(dp1
S'limited'
p2
I3681
sS'writings'
p3
I3707
sS'suicidal'
p4
I1558
sS'barrages'
p5
I3886
sS'paralyzed'
p6
I3820
sS'desirable'
p7
I2228
sS'felt'
p8
I1938
sS'four'
p9
I705
sS'facilities'
p10
I2802
sS'protest'
p11
I4061
sS'segregation'
p12
I3764
sS'controversial'
p13
I509
sS'extinctions'
p14
I3525
sS'oldest'
p15
I597
sS'integrity'
p16
I1374
sS'aggression'
p17
I274
sS'poorly'
p18
I3463
sS'relationships'
p19
I1471
sS'whose'
p20
I1950
sS'votes'
p21
I4016
sS'euphemistic'
p22
I1467
sS'violate'
p23
I2671
sS'granting'
p24
I2707
sS'eligible'
p25
I1683
sS'physiological'
p26
I312
sS'crises'
p27
I2112
sS'bureaucrats'
p28
I455
sS'poorest'
p29
I1672
sS'contravention'
p30
I3130
sS'containing'
p31
I4111
sS'presents'
p32
I3628
sS'unionized'
p33
I1869
sS'protections'
p34
I2727
sS'whatsoever'
p35
I3616
sS'under'
p36
I446
sS'teaching'
p37
I894
sS'pride'
p38
I1413
sS'worth'
p39
I1977
sS'importation'
p40
I3209
sS'applied'
p41
I4006
sS'legislators'
p42
I4133
sS'risk'
p43
I925
sS'unpopular'
p44
I3709
sS'compassion'
p45
I2376
sS'dollar'
p46
I3053
sS'rise'
p47
I1695
sS'distort'
p48
I1727
sS'stolen'
p49
I2635
sS'every'
p50
I1576
sS'gratification'
p51
I1606
sS'reforms'
p52
I3018
sS'affect'
p53
I390
sS'bringing'
p54
I1307
sS'vast'
p55
I2619
sS'believed'
p56
I1973
sS'school'
p57
I210
sS'publicly'
p58
I2750
sS'skills'
p59
I394
sS'supports'
p60
I16
sS'companies'
p61
I995
sS'solution'
p62
I3858
sS'viable'
p63
I2722
sS'unrelated'
p64
I726
sS'intensification'
p65
I3937
sS'succession'
p66
I1824
sS'enhance'
p67
I756
sS'abolishing'
p68
I1330
sS'enjoy'
p69
I1662
sS'charter'
p70
I2164
sS'force'
p71
I85
sS'leaders'
p72
I3281
sS'blasphemy'
p73
I241
sS'invariably'
p74
I2096
sS'direct'
p75
I246
sS'elections'
p76
I203
sS'surrounding'
p77
I1593
sS'likely'
p78
I687
sS'follow'
p79
I1982
sS'rigorous'
p80
I2286
sS'implemented'
p81
I514
sS'expressive'
p82
I420
sS'monopolies'
p83
I2680
sS'even'
p84
I423
sS'established'
p85
I1228
sS'spouses'
p86
I1970
sS'organisms'
p87
I2883
sS'deliberate'
p88
I1907
sS'encouraged'
p89
I3554
sS'decisions'
p90
I3237
sS'selected'
p91
I3535
sS'near'
p92
I1914
sS'liberty'
p93
I1333
sS'unskilled'
p94
I3604
sS'above'
p95
I1870
sS'conduct'
p96
I1881
sS'new'
p97
I762
sS'net'
p98
I829
sS'increasing'
p99
I650
sS'ever'
p100
I2118
sS'destroy'
p101
I2206
sS'entitles'
p102
I4057
sS'evolving'
p103
I2864
sS'harvesting'
p104
I3899
sS'impartial'
p105
I1795
sS'notions'
p106
I2601
sS'never'
p107
I1334
sS'hundreds'
p108
I3854
sS'met'
p109
I2370
sS'voter'
p110
I2447
sS'china'
p111
I19
sS'pursuit'
p112
I808
sS'cult'
p113
I1120
sS'path'
p114
I2559
sS'establishment'
p115
I3611
sS'contraction'
p116
I3357
sS'stresses'
p117
I1993
sS'substance'
p118
I879
sS'antisemitic'
p119
I3985
sS'unwillingness'
p120
I4078
sS'items'
p121
I3200
sS'leaves'
p122
I583
sS'perinatal'
p123
I3411
sS'tolerating'
p124
I1481
sS'credit'
p125
I1636
sS'launched'
p126
I3155
sS'abolition'
p127
I2514
sS'permit'
p128
I21
sS'military'
p129
I184
sS'suitable'
p130
I2853
sS'adolescents'
p131
I345
sS'segments'
p132
I2917
sS'mutual'
p133
I3381
sS'criticism'
p134
I2740
sS'divide'
p135
I1355
sS'myanmar'
p136
I143
sS'straw'
p137
I2148
sS'servicemen'
p138
I3397
sS'explained'
p139
I2276
sS'schooling'
p140
I72
sS'feelings'
p141
I330
sS'psychological'
p142
I366
sS'visible'
p143
I2310
sS'beneficiaries'
p144
I1030
sS'moral'
p145
I1506
sS'perpetuates'
p146
I1181
sS'total'
p147
I567
sS'circumvent'
p148
I1781
sS'landscape'
p149
I2791
sS'sexual'
p150
I3299
sS'criminals'
p151
I2961
sS'would'
p152
I20
sS'army'
p153
I2509
sS'insecurity'
p154
I3517
sS'mexico'
p155
I2123
sS'modernization'
p156
I671
sS'insult'
p157
I3964
sS'occupying'
p158
I3131
sS'elect'
p159
I1774
sS'call'
p160
I788
sS'therefore'
p161
I1008
sS'ip'
p162
I2668
sS'survive'
p163
I4114
sS'type'
p164
I477
sS'capital'
p165
I2627
sS'separated'
p166
I158
sS'tolerated'
p167
I3685
sS'continuing'
p168
I3137
sS'females'
p169
I1984
sS'holy'
p170
I2358
sS'populations'
p171
I1677
sS'successful'
p172
I2086
sS'brings'
p173
I1496
sS'wars'
p174
I2224
sS'hurt'
p175
I1379
sS'disruption'
p176
I2930
sS'interaction'
p177
I3933
sS'adult'
p178
I595
sS'excellent'
p179
I3254
sS'allies'
p180
I2221
sS'hold'
p181
I1776
sS'outdated'
p182
I1814
sS'lawmakers'
p183
I4139
sS'must'
p184
I1054
sS'morally'
p185
I1900
sS'word'
p186
I3725
sS'rights'
p187
I49
sS'work'
p188
I113
sS'theories'
p189
I353
sS'itself'
p190
I564
sS'prosocial'
p191
I288
sS'transparency'
p192
I3632
sS'mortar'
p193
I3191
sS'root'
p194
I2140
sS'addictive'
p195
I1533
sS'defer'
p196
I1763
sS'compulsive'
p197
I1554
sS'pollute'
p198
I3047
sS'give'
p199
I769
sS'deadweight'
p200
I1866
sS'unjust'
p201
I1905
sS'household'
p202
I2647
sS'preserving'
p203
I1940
sS'missiles'
p204
I3891
sS'involve'
p205
I633
sS'currency'
p206
I1584
sS'caution'
p207
I2179
sS'hardens'
p208
I497
sS'campaigning'
p209
I3078
sS'counseling'
p210
I835
sS'drive'
p211
I3605
sS'times'
p212
I1579
sS'attract'
p213
I4018
sS'advancing'
p214
I4129
sS'absolute'
p215
I43
sS'legislate'
p216
I1085
sS'ones'
p217
I1920
sS'end'
p218
I1486
sS'recovery'
p219
I3150
sS'unpaid'
p220
I2656
sS'provide'
p221
I541
sS'handguns'
p222
I2983
sS'feature'
p223
I1282
sS'grows'
p224
I3579
sS'machine'
p225
I1581
sS'far'
p226
I1190
sS'significance'
p227
I2226
sS'answer'
p228
I2938
sS'record'
p229
I2752
sS'widespread'
p230
I831
sS'preferable'
p231
I1961
sS'massive'
p232
I3527
sS'gaming'
p233
I396
sS'regional'
p234
I3139
sS'minority'
p235
I972
sS'transforming'
p236
I3438
sS'insecure'
p237
I2581
sS'after'
p238
I1064
sS'vicious'
p239
I3040
sS'lotteries'
p240
I1613
sS'outlawed'
p241
I1567
sS'wrong'
p242
I407
sS'tackle'
p243
I3603
sS'lay'
p244
I3741
sS'law'
p245
I608
sS'unborn'
p246
I1906
sS'types'
p247
I2728
sS'severity'
p248
I536
sS'inactivity'
p249
I926
sS'purchase'
p250
I462
sS'marginalize'
p251
I3140
sS'circumcisions'
p252
I3464
sS'effective'
p253
I199
sS'alienate'
p254
I3314
sS'youths'
p255
I3424
sS'acknowledged'
p256
I1397
sS'lost'
p257
I1966
sS'capitalism'
p258
I2586
sS'complaining'
p259
I2803
sS'encompassing'
p260
I1927
sS'complexity'
p261
I2275
sS'maintain'
p262
I1372
sS'ultimate'
p263
I666
sS'correlation'
p264
I364
sS'preventive'
p265
I3446
sS'democratic'
p266
I94
sS'athletes'
p267
I790
sS'order'
p268
I459
sS'wind'
p269
I116
sS'operations'
p270
I234
sS'fetus'
p271
I1897
sS'office'
p272
I1777
sS'dirtiest'
p273
I3054
sS'consent'
p274
I3415
sS'over'
p275
I560
sS'fall'
p276
I2003
sS'inconclusive'
p277
I508
sS'presence'
p278
I3373
sS'innovative'
p279
I1600
sS'japan'
p280
I186
sS'nets'
p281
I2034
sS'mayor'
p282
I4013
sS'before'
p283
I723
sS'difference'
p284
I1433
sS'surviving'
p285
I2851
sS'fit'
p286
I961
sS'personal'
p287
I1556
sS'revenue'
p288
I1515
sS'expectations'
p289
I2987
sS'anabolica'
p290
I787
sS'better'
p291
I542
sS'production'
p292
I646
sS'compelling'
p293
I2413
sS'encounter'
p294
I3716
sS'persist'
p295
I1535
sS'stifling'
p296
I3691
sS'hidden'
p297
I2820
sS'hamas'
p298
I3114
sS'easier'
p299
I2940
sS'overcome'
p300
I3594
sS'harmony'
p301
I1407
sS'eventually'
p302
I1547
sS'them'
p303
I321
sS'affected'
p304
I611
sS'diseases'
p305
I3338
sS'bans'
p306
I1261
sS'sterilization'
p307
I696
sS'enrich'
p308
I2709
sS'unemployed'
p309
I3753
sS'safe'
p310
I411
sS'bouts'
p311
I1236
sS'neurological'
p312
I381
sS'break'
p313
I1992
sS'academics'
p314
I3251
sS'effects'
p315
I357
sS'they'
p316
I297
sS'schools'
p317
I182
sS'tourism'
p318
I1514
sS'smoking'
p319
I3662
sS'competitiveness'
p320
I2640
sS'shadows'
p321
I3900
sS'represents'
p322
I2484
sS'oxygen'
p323
I3482
sS'classified'
p324
I3645
sS'backgrounds'
p325
I1058
sS'slavery'
p326
I2485
sS'harming'
p327
I3194
sS'deficient'
p328
I3045
sS'daughters'
p329
I2538
sS'reasonable'
p330
I2363
sS'each'
p331
I1039
sS'addicted'
p332
I1644
sS'inventors'
p333
I2697
sS'operatives'
p334
I1690
sS'mean'
p335
I645
sS'prohibit'
p336
I252
sS'objectors'
p337
I2473
sS'series'
p338
I3017
sS'crimes'
p339
I473
sS'principles'
p340
I3283
sS'marital'
p341
I3577
sS'vote'
p342
I2466
sS'trading'
p343
I2665
sS'ameliorate'
p344
I1083
sS'extract'
p345
I3484
sS'message'
p346
I3276
sS'puts'
p347
I3523
sS'depress'
p348
I2918
sS'network'
p349
I3284
sS'driving'
p350
I1872
sS'god'
p351
I2235
sS'useless'
p352
I3033
sS'crucial'
p353
I3301
sS'content'
p354
I416
sS'encourage'
p355
I65
sS'casinos'
p356
I1594
sS'adapt'
p357
I2061
sS'banning'
p358
I1934
sS'medicine'
p359
I3417
sS'millions'
p360
I1603
sS'independence'
p361
I3395
sS'foundation'
p362
I2251
sS'inhabitants'
p363
I2910
sS'forcible'
p364
I1714
sS'unpopularity'
p365
I4009
sS'barrier'
p366
I206
sS'resume'
p367
I2115
sS'threatened'
p368
I1325
sS'given'
p369
I1582
sS'free'
p370
I877
sS'standard'
p371
I664
sS'disputes'
p372
I1885
sS'counterparts'
p373
I3271
sS'complied'
p374
I3217
sS'obstructing'
p375
I2679
sS'gameplay'
p376
I485
sS'subsistence'
p377
I2631
sS'publication'
p378
I3633
sS'atf'
p379
I2144
sS'enormous'
p380
I2907
sS'logging'
p381
I194
sS'created'
p382
I693
sS'refugee'
p383
I1676
sS'privacy'
p384
I1607
sS'secularism'
p385
I3240
sS'days'
p386
I1503
sS'priorities'
p387
I2121
sS'tolerant'
p388
I3997
sS'creates'
p389
I1119
sS'renew'
p390
I3845
sS'musicians'
p391
I2731
sS'oppose'
p392
I3363
sS'impede'
p393
I3565
sS'undisputable'
p394
I3857
sS'condom'
p395
I3369
sS'speeds'
p396
I2780
sS'already'
p397
I855
sS'features'
p398
I1383
sS'economists'
p399
I652
sS'steroids'
p400
I775
sS'attractions'
p401
I2880
sS'primary'
p402
I119
sS'autonomy'
p403
I3414
sS'restrict'
p404
I222
sS'floors'
p405
I3922
sS'disappearing'
p406
I3530
sS'another'
p407
I1143
sS'electronic'
p408
I1610
sS'anyone'
p409
I3972
sS'service'
p410
I106
sS'similarly'
p411
I768
sS'concussion'
p412
I1248
sS'engagement'
p413
I3034
sS'girls'
p414
I68
sS'approximately'
p415
I3780
sS'plentiful'
p416
I2764
sS'needed'
p417
I957
sS'however'
p418
I2444
sS'rates'
p419
I438
sS'too'
p420
I369
sS'agricultural'
p421
I3515
sS'wildly'
p422
I781
sS'percentage'
p423
I2133
sS'farming'
p424
I3659
sS'damaging'
p425
I3066
sS'listen'
p426
I3163
sS'urban'
p427
I3935
sS'abrogation'
p428
I2492
sS'murder'
p429
I323
sS'emblem'
p430
I4056
sS'collapse'
p431
I3493
sS'enhancing'
p432
I24
sS'tool'
p433
I1411
sS'leaking'
p434
I213
sS'rejected'
p435
I1952
sS'japanese'
p436
I3379
sS'incur'
p437
I3474
sS'western'
p438
I1566
sS'somewhat'
p439
I2587
sS'wasted'
p440
I2504
sS'prefecture'
p441
I3378
sS'nonpartisan'
p442
I3542
sS'gambler'
p443
I1540
sS'positively'
p444
I391
sS'begins'
p445
I1913
sS'disproportionally'
p446
I993
sS'showed'
p447
I2015
sS'toughman'
p448
I1253
sS'nominate'
p449
I3537
sS'outlaw'
p450
I4040
sS'immigrants'
p451
I1309
sS'monarchies'
p452
I1841
sS'arming'
p453
I2142
sS'nations'
p454
I232
sS'matter'
p455
I1049
sS'classes'
p456
I1158
sS'stratified'
p457
I2104
sS'historical'
p458
I1090
sS'spoiled'
p459
I672
sS'wielded'
p460
I4146
sS'contrasted'
p461
I1747
sS'solely'
p462
I1162
sS'fabrications'
p463
I2362
sS'spender'
p464
I2648
sS'entail'
p465
I1066
sS'willingness'
p466
I1476
sS'modern'
p467
I810
sS'mind'
p468
I2380
sS'spectrum'
p469
I3320
sS'deprived'
p470
I3711
sS'spent'
p471
I2009
sS'manner'
p472
I512
sS'arousal'
p473
I329
sS'seen'
p474
I1280
sS'subjects'
p475
I1853
sS'regulate'
p476
I458
sS'seek'
p477
I1169
sS'relatively'
p478
I959
sS'forced'
p479
I679
sS'abroad'
p480
I2824
sS'strength'
p481
I2474
sS'realm'
p482
I3235
sS'concrete'
p483
I3176
sS'convenient'
p484
I3986
sS'responsible'
p485
I79
sS'-'
I4158
sS'isolated'
p486
I4092
sS'explanations'
p487
I2384
sS'guns'
p488
I2130
sS'contact'
p489
I1274
sS'forces'
p490
I2522
sS'responsibly'
p491
I731
sS'effectiveness'
p492
I2578
sS'tunnels'
p493
I3201
sS'exactly'
p494
I2423
sS'prohibition'
p495
I1713
sS'committing'
p496
I495
sS'psychologically'
p497
I343
sS'limitless'
p498
I1393
sS'involving'
p499
I1216
sS'reverence'
p500
I3582
sS'exercises'
p501
I1919
sS'genital'
p502
I3421
sS'complying'
p503
I3186
sS'grave'
p504
I3946
sS'morality'
p505
I1086
sS'peers'
p506
I2014
sS'redistribution'
p507
I2085
sS'neighborhoods'
p508
I3939
sS'circumvention'
p509
I3272
sS'medical'
p510
I821
sS'incompatible'
p511
I2406
sS'flow'
p512
I3197
sS'gunshops'
p513
I2125
sS'swamp'
p514
I1737
sS'competitors'
p515
I770
sS'demoralized'
p516
I3252
sS'incumbents'
p517
I4138
sS'principle'
p518
I575
sS'rupees'
p519
I1978
sS'voting'
p520
I2462
sS'oppress'
p521
I2239
sS'came'
p522
I2159
sS'amending'
p523
I4039
sS'inspire'
p524
I3995
sS'reductions'
p525
I2941
sS'whitelist'
p526
I834
sS'sexist'
p527
I359
sS'ending'
p528
I3115
sS'religions'
p529
I2260
sS'attempts'
p530
I1034
sS'negates'
p531
I2493
sS'participate'
p532
I1525
sS'earth'
p533
I3796
sS'tempted'
p534
I1588
sS'enjoyed'
p535
I1602
sS'powerpunch'
p536
I1270
sS'consciousness'
p537
I1203
sS'implementation'
p538
I694
sS'situations'
p539
I3699
sS'explain'
p540
I941
sS'debts'
p541
I1550
sS'appreciated'
p542
I3380
sS'rich'
p543
I2080
sS'gods'
p544
I2301
sS'adequate'
p545
I2216
sS'impose'
p546
I3655
sS'personality'
p547
I602
sS'continuity'
p548
I1753
sS'do'
p549
I464
sS'exports'
p550
I2567
sS'rebellions'
p551
I2959
sS'fossil'
p552
I2763
sS'stop'
p553
I1221
sS'preferred'
p554
I1023
sS'criticized'
p555
I1036
sS'enters'
p556
I3612
sS'cushion'
p557
I2056
sS'supplies'
p558
I2863
sS'policymakers'
p559
I3758
sS'egalitarianism'
p560
I1820
sS'dp'
p561
I1278
sS'societies'
p562
I1336
sS'imperialistic'
p563
I4034
sS'contributes'
p564
I714
sS'bar'
p565
I1107
sS'countries'
p566
I57
sS'officially'
p567
I3243
sS'public'
p568
I852
sS'illegitimate'
p569
I4095
sS'knockdowns'
p570
I1235
sS'bad'
p571
I466
sS'openly'
p572
I3652
sS'ban'
p573
I35
sS'sanctioning'
p574
I1227
sS'fertility'
p575
I531
sS'steal'
p576
I1590
sS'respond'
p577
I2556
sS'ethical'
p578
I2250
sS'erroneous'
p579
I1544
sS'mandatory'
p580
I2512
sS'disaster'
p581
I2854
sS'reference'
p582
I2277
sS'habit'
p583
I3663
sS'imitate'
p584
I428
sS'consummation'
p585
I3599
sS'sensitivity'
p586
I3953
sS'testing'
p587
I780
sS'deemed'
p588
I3157
sS'reporting'
p589
I3279
sS'resist'
p590
I2902
sS'decided'
p591
I3688
sS'result'
p592
I618
sS'fail'
p593
I923
sS'miserable'
p594
I2254
sS'limiting'
p595
I2690
sS'best'
p596
I824
sS'subject'
p597
I2689
sS'said'
p598
I1819
sS'capacity'
p599
I2811
sS'inappropriate'
p600
I921
sS'away'
p601
I1381
sS'artificial'
p602
I2675
sS'paternal'
p603
I3556
sS'tantamount'
p604
I190
sS'unable'
p605
I593
sS'humankind'
p606
I1363
sS'designin'
p607
I2393
sS'encounters'
p608
I2297
sS'discovery'
p609
I2855
sS'preserve'
p610
I1072
sS'we'
p611
I2417
sS'men'
p612
I1971
sS'terms'
p613
I1668
sS'reproduction'
p614
I740
sS'relative'
p615
I1998
sS'nature'
p616
I863
sS'purity'
p617
I3228
sS'confusion'
p618
I2446
sS'aesthetic'
p619
I2859
sS'weak'
p620
I370
sS'ignorance'
p621
I2346
sS'cut'
p622
I2554
sS'wear'
p623
I1230
sS'extent'
p624
I833
sS'carbon'
p625
I2836
sS'debt'
p626
I1643
sS'improve'
p627
I634
sS'faced'
p628
I1268
sS'protect'
p629
I460
sS'embarked'
p630
I3016
sS'reported'
p631
I3093
sS'country'
p632
I1310
sS'biologically'
p633
I1902
sS'against'
p634
I235
sS'regions'
p635
I2979
sS'players'
p636
I294
sS'negative'
p637
I516
sS'disastrous'
p638
I2183
sS'games'
p639
I10
sS'receives'
p640
I2568
sS'distinction'
p641
I1373
sS'contribution'
p642
I716
sS'expense'
p643
I1017
sS'asked'
p644
I2309
sS'extractable'
p645
I2771
sS'royal'
p646
I1768
sS'betting'
p647
I1522
sS'civilians'
p648
I3182
sS'epidemic'
p649
I949
sS'represented'
p650
I1156
sS'karen'
p651
I3025
sS'written'
p652
I4044
sS'initiative'
p653
I931
sS'affiliated'
p654
I3813
sS'pregnancy'
p655
I1945
sS'trust'
p656
I1303
sS'vouchers'
p657
I3762
sS'speak'
p658
I3100
sS'japans'
p659
I3377
sS'ease'
p660
I2606
sS'targeting'
p661
I2479
sS'infringes'
p662
I2677
sS'basis'
p663
I2258
sS'union'
p664
I1867
sS'condemned'
p665
I3441
sS'criticised'
p666
I1091
sS'been'
p667
I363
sS'quickly'
p668
I3925
sS'extraction'
p669
I1944
sS'much'
p670
I372
sS'detrimental'
p671
I1555
sS'interest'
p672
I853
sS'basic'
p673
I729
sS'expected'
p674
I568
sS'parents'
p675
I66
sS'duties'
p676
I1826
sS'obtained'
p677
I2117
sS'life'
p678
I284
sS'families'
p679
I1634
sS'deeper'
p680
I2054
sS'prosperous'
p681
I2639
sS'attacked'
p682
I3834
sS'drugs'
p683
I25
sS'suppress'
p684
I2451
sS'concerning'
p685
I3749
sS'prison'
p686
I3143
sS'worker'
p687
I643
sS'wish'
p688
I2000
sS'relevance'
p689
I1890
sS'lift'
p690
I153
sS'child'
p691
I191
sS'worked'
p692
I1813
sS'postmodern'
p693
I1294
sS'naval'
p694
I3183
sS'distorts'
p695
I3010
sS'physician'
p696
I1930
sS'inhibit'
p697
I3619
sS'guarantees'
p698
I2982
sS'harms'
p699
I1788
sS'ahead'
p700
I3291
sS'reciprocal'
p701
I2496
sS'originate'
p702
I2134
sS'lessen'
p703
I2220
sS'inviolable'
p704
I1958
sS'marginalised'
p705
I1130
sS'air'
p706
I2789
sS'employ'
p707
I4052
sS'depictions'
p708
I465
sS'aid'
p709
I109
sS'property'
p710
I115
sS'employees'
p711
I1740
sS'procedure'
p712
I1933
sS'played'
p713
I1577
sS'recoup'
p714
I2734
sS'deities'
p715
I2416
sS'is'
p716
I78
sS'it'
p717
I220
sS'ponders'
p718
I2296
sS'tissue'
p719
I3429
sS'brutal'
p720
I1269
sS'ramifications'
p721
I711
sS'in'
p722
I26
sS'victims'
p723
I2964
sS'pathology'
p724
I1431
sS'controversy'
p725
I1592
sS'id'
p726
I2459
sS'if'
p727
I424
sS'grown'
p728
I4135
sS'damaged'
p729
I2915
sS'specialization'
p730
I660
sS'perform'
p731
I1026
sS'things'
p732
I933
sS'make'
p733
I29
sS'format'
p734
I4069
sS'clearly'
p735
I3871
sS'democracies'
p736
I3998
sS'complex'
p737
I2388
sS'potentially'
p738
I632
sS'damages'
p739
I753
sS'babies'
p740
I1976
sS'monarch'
p741
I1748
sS'hierarchies'
p742
I1845
sS'several'
p743
I2612
sS'breaks'
p744
I2018
sS'entitled'
p745
I2659
sS'independent'
p746
I2379
sS'incentivising'
p747
I2726
sS'devalues'
p748
I1001
sS'prohibits'
p749
I2166
sS'natures'
p750
I607
sS'qualifications'
p751
I1007
sS'workforce'
p752
I2506
sS'evil'
p753
I2405
sS'liberties'
p754
I2969
sS'producers'
p755
I2622
sS'ownership'
p756
I2758
sS'overt'
p757
I1089
sS'opportunity'
p758
I970
sS'blamed'
p759
I647
sS'thoughts'
p760
I311
sS'cycle'
p761
I2553
sS'prescribed'
p762
I3701
sS'kept'
p763
I572
sS'whereby'
p764
I3794
sS'programs'
p765
I615
sS'changes'
p766
I1187
sS'possessed'
p767
I4047
sS'failing'
p768
I1012
sS'imperialism'
p769
I1767
sS'game'
p770
I278
sS'pathological'
p771
I1537
sS'academic'
p772
I1996
sS'savings'
p773
I545
sS'practices'
p774
I1317
sS'impediment'
p775
I1507
sS'greatest'
p776
I3672
sS'incapable'
p777
I2414
sS'mother'
p778
I1888
sS'the'
p779
I5
sS'corporate'
p780
I2529
sS'investments'
p781
I2040
sS'left'
p782
I700
sS'opinions'
p783
I3679
sS'spurred'
p784
I3761
sS'traditions'
p785
I1500
sS'just'
p786
I570
sS'unemployment'
p787
I3757
sS'photo'
p788
I99
sS'sporting'
p789
I766
sS'distribute'
p790
I169
sS'unfair'
p791
I771
sS'homogeneity'
p792
I1318
sS'beset'
p793
I3043
sS'fighters'
p794
I1229
sS'financially'
p795
I2107
sS'identify'
p796
I1117
sS'human'
p797
I578
sS'facts'
p798
I2281
sS'plight'
p799
I1711
sS'impending'
p800
I3884
sS'previous'
p801
I573
sS'poses'
p802
I2993
sS'monitored'
p803
I792
sS'subtracts'
p804
I2501
sS'candidate'
p805
I3076
sS'endangered'
p806
I124
sS'regarded'
p807
I2433
sS'deters'
p808
I2943
sS'had'
p809
I522
sS'ideal'
p810
I928
sS'disparity'
p811
I2533
sS'spread'
p812
I2177
sS'inefficiencies'
p813
I2031
sS'innocent'
p814
I1901
sS'technological'
p815
I661
sS'has'
p816
I361
sS'humanity'
p817
I1362
sS'designate'
p818
I1020
sS'opt'
p819
I3770
sS'threatens'
p820
I1351
sS'municipal'
p821
I3910
sS'dignity'
p822
I1287
sS'involuntary'
p823
I2486
sS'advances'
p824
I2857
sS'survival'
p825
I1361
sS'posed'
p826
I3738
sS'possible'
p827
I518
sS'stds'
p828
I3358
sS'inflicting'
p829
I3189
sS'possibly'
p830
I3133
sS'cultural'
p831
I1358
sS'boxer'
p832
I1223
sS'gridlock'
p833
I4140
sS'birth'
p834
I55
sS'sustains'
p835
I2060
sS'govt'
p836
I3230
sS'shadow'
p837
I3896
sS'unique'
p838
I1415
sS'advanced'
p839
I3049
sS'occurring'
p840
I690
sS'constitution'
p841
I1761
sS'brought'
p842
I862
sS'deviance'
p843
I4115
sS'external'
p844
I4091
sS'performing'
p845
I2017
sS'unnecessary'
p846
I1196
sS'bred'
p847
I2100
sS'specific'
p848
I1078
sS'erodes'
p849
I1298
sS'arbitrary'
p850
I1045
sS'notorious'
p851
I3892
sS'security'
p852
I2173
sS'starvation'
p853
I668
sS'whomever'
p854
I3865
sS'beneficial'
p855
I918
sS'right'
p856
I40
sS'old'
p857
I1111
sS'deal'
p858
I388
sS'people'
p859
I604
sS'understand'
p860
I3317
sS'gesture'
p861
I4037
sS'successfully'
p862
I619
sS'crown'
p863
I1804
sS'elderly'
p864
I2461
sS'coerce'
p865
I3609
sS'born'
p866
I2344
sS'election'
p867
I247
sS'industries'
p868
I2634
sS'recognise'
p869
I3205
sS'pain'
p870
I3405
sS'bore'
p871
I1889
sS'intellect'
p872
I1787
sS'enemies'
p873
I2207
sS'denies'
p874
I3585
sS'ignore'
p875
I2962
sS'for'
p876
I80
sS'fourth'
p877
I3827
sS'establish'
p878
I1126
sS'opposite'
p879
I2340
sS'creative'
p880
I490
sS'repression'
p881
I1439
sS'everything'
p882
I2426
sS'continue'
p883
I1957
sS'enterprises'
p884
I3266
sS'unit'
p885
I2814
sS'denied'
p886
I1699
sS'beating'
p887
I4083
sS'participation'
p888
I3541
sS'core'
p889
I3960
sS'knew'
p890
I1854
sS'deflation'
p891
I2919
sS'payment'
p892
I2725
sS'pose'
p893
I2827
sS'confer'
p894
I3743
sS'constructive'
p895
I3035
sS'fullest'
p896
I3693
sS'confrontation'
p897
I4026
sS'defensive'
p898
I2985
sS'losing'
p899
I2901
sS'inflicted'
p900
I3174
sS'permitted'
p901
I1163
sS'dead'
p902
I3961
sS'nonparty'
p903
I3536
sS'foreskin'
p904
I3434
sS'limitation'
p905
I3700
sS'conceal'
p906
I176
sS'firearms'
p907
I2122
sS'dollars'
p908
I3768
sS'citizens'
p909
I133
sS'assault'
p910
I3436
sS'flourishes'
p911
I3229
sS'despair'
p912
I2339
sS'ensure'
p913
I971
sS'commit'
p914
I472
sS'efforts'
p915
I2912
sS'palestinians'
p916
I3199
sS'automatically'
p917
I431
sS'demise'
p918
I2872
sS'considerations'
p919
I3246
sS'primitive'
p920
I2367
sS'amounted'
p921
I3129
sS'civil'
p922
I1040
sS'intellectual'
p923
I114
sS'arms'
p924
I139
sS'accommodate'
p925
I3908
sS'lies'
p926
I3226
sS'beings'
p927
I665
sS'accomplishments'
p928
I1002
sS'raises'
p929
I2397
sS'doctrine'
p930
I3242
sS'trafficked'
p931
I2126
sS'balanced'
p932
I1754
sS'easy'
p933
I3538
sS'refined'
p934
I3075
sS'reducing'
p935
I1233
sS'soon'
p936
I1981
sS'mass'
p937
I3097
sS'methods'
p938
I207
sS'annoyance'
p939
I2804
sS'rely'
p940
I2066
sS'america'
p941
I3394
sS'leaks'
p942
I3643
sS'expired'
p943
I2751
sS'support'
p944
I136
sS'initial'
p945
I1573
sS'knowing'
p946
I2153
sS'sovereign'
p947
I1772
sS'fight'
p948
I1219
sS'infecting'
p949
I3559
sS'influencing'
p950
I443
sS'counterproductive'
p951
I1010
sS'way'
p952
I93
sS'obliged'
p953
I2524
sS'resulted'
p954
I1340
sS'was'
p955
I217
sS'war'
p956
I81
sS'asset'
p957
I1491
sS'questionable'
p958
I825
sS'intolerance'
p959
I1708
sS'head'
p960
I1206
sS'amateur'
p961
I1252
sS'form'
p962
I417
sS'offer'
p963
I1608
sS'becoming'
p964
I2198
sS'differences'
p965
I1369
sS'removes'
p966
I3506
sS'encodes'
p967
I3410
sS'failure'
p968
I2421
sS'heat'
p969
I3927
sS'catalyst'
p970
I3769
sS'solar'
p971
I3898
sS'sustained'
p972
I1201
sS'safeguard'
p973
I1799
sS'true'
p974
I3624
sS'atrocities'
p975
I2373
sS'imprison'
p976
I3968
sS'absent'
p977
I3440
sS'responding'
p978
I1401
sS'builds'
p979
I398
sS'reproductive'
p980
I735
sS'understood'
p981
I2342
sS'markets'
p982
I2029
sS'inside'
p983
I3193
sS'bargain'
p984
I1858
sS'devices'
p985
I3809
sS'until'
p986
I3354
sS'complications'
p987
I3461
sS'precious'
p988
I3680
sS'emotional'
p989
I491
sS'cosmos'
p990
I2394
sS'emit'
p991
I2834
sS'strengthening'
p992
I910
sS'proved'
p993
I523
sS'glans'
p994
I3452
sS'item'
p995
I4058
sS'infections'
p996
I3552
sS'wealthy'
p997
I3773
sS'escape'
p998
I3801
sS'proven'
p999
I2102
sS'evidence'
p1000
I342
sS'unbiased'
p1001
I3238
sS'exist'
p1002
I2271
sS'revitalize'
p1003
I2793
sS'accounting'
p1004
I3512
sS'adversely'
p1005
I2896
sS'mold'
p1006
I3610
sS'check'
p1007
I1838
sS'liberalism'
p1008
I1485
sS'physical'
p1009
I30
sS'willingly'
p1010
I1458
sS'palestinian'
p1011
I3105
sS'discriminate'
p1012
I1037
sS'no'
p1013
I302
sS'fosters'
p1014
I1344
sS'generally'
p1015
I1238
sS'junta'
p1016
I3036
sS'setting'
p1017
I350
sS'role'
p1018
I946
sS'test'
p1019
I954
sS'developers'
p1020
I2708
sS'erosion'
p1021
I3476
sS'circumcise'
p1022
I3420
sS'subsidize'
p1023
I73
sS'amputate'
p1024
I3428
sS'permitting'
p1025
I3570
sS'thoroughgoing'
p1026
I2705
sS'models'
p1027
I2723
sS'leak'
p1028
I3644
sS'football'
p1029
I260
sS'convincing'
p1030
I474
sS'polite'
p1031
I1466
sS'emission'
p1032
I2819
sS'punishing'
p1033
I4000
sS'authoritarianism'
p1034
I2264
sS'journey'
p1035
I1435
sS'intent'
p1036
I1851
sS'scores'
p1037
I955
sS'persecution'
p1038
I976
sS'transfers'
p1039
I1611
sS'notion'
p1040
I4024
sS'died'
p1041
I1254
sS'admissions'
p1042
I3253
sS'longer'
p1043
I1160
sS'proposed'
p1044
I502
sS'bottom'
p1045
I4126
sS'together'
p1046
I1308
sS'cohesion'
p1047
I1352
sS'defamation'
p1048
I3957
sS'stripping'
p1049
I1380
sS'time'
p1050
I563
sS'serious'
p1051
I281
sS'knockouts'
p1052
I1217
sS'backward'
p1053
I1155
sS'restored'
p1054
I1329
sS'hope'
p1055
I3800
sS'premeditated'
p1056
I2151
sS'shop'
p1057
I3250
sS'concept'
p1058
I1338
sS'customary'
p1059
I1716
sS'impulse'
p1060
I1549
sS'licence'
p1061
I3973
sS'equalities'
p1062
I1065
sS'global'
p1063
I2172
sS'alternatives'
p1064
I2721
sS'focus'
p1065
I120
sS'invent'
p1066
I2657
sS'leads'
p1067
I415
sS'infants'
p1068
I3454
sS'mild'
p1069
I324
sS'assailants'
p1070
I2955
sS'shot'
p1071
I2965
sS'tenable'
p1072
I3145
sS'hijacked'
p1073
I3790
sS'contributing'
p1074
I1692
sS'impugned'
p1075
I4048
sS'inverse'
p1076
I341
sS'essentials'
p1077
I3203
sS'disorders'
p1078
I603
sS'casualties'
p1079
I3629
sS'passage'
p1080
I3153
sS'environment'
p1081
I683
sS'violation'
p1082
I1917
sS'charge'
p1083
I3270
sS'compensate'
p1084
I974
sS'electricity'
p1085
I2772
sS'terror'
p1086
I3829
sS'exposition'
p1087
I4049
sS'disapproved'
p1088
I1954
sS'circumstances'
p1089
I1928
sS'veterans'
p1090
I3755
sS'division'
p1091
I1074
sS'protective'
p1092
I1231
sS'inhuman'
p1093
I3138
sS'advantage'
p1094
I772
sS'tends'
p1095
I1478
sS'choice'
p1096
I1959
sS'emergencies'
p1097
I3904
sS'friction'
p1098
I1357
sS'locked'
p1099
I4141
sS'emphasized'
p1100
I553
sS'procreation'
p1101
I3596
sS'governments'
p1102
I95
sS'car'
p1103
I3936
sS'perceived'
p1104
I1154
sS'rightthe'
p1105
I2495
sS'immediately'
p1106
I2396
sS'level'
p1107
I259
sS'did'
p1108
I1267
sS'die'
p1109
I935
sS'permits'
p1110
I1863
sS'posts'
p1111
I1053
sS'gun'
p1112
I2127
sS'skewed'
p1113
I62
sS'leave'
p1114
I1741
sS'p'
I953
sS'theological'
p1115
I3568
sS'team'
p1116
I1523
sS'quick'
p1117
I1348
sS'round'
p1118
I71
sS'anesthetic'
p1119
I3407
sS'prevent'
p1120
I86
sS'spiritual'
p1121
I2860
sS'legalized'
p1122
I832
sS'occurrence'
p1123
I2409
sS'peds'
p1124
I865
sS'hindered'
p1125
I2701
sS'pregnancies'
p1126
I3305
sS'discover'
p1127
I932
sS'affiliation'
p1128
I1454
sS'heavyweight'
p1129
I1184
sS'cost'
p1130
I1647
sS'bombardment'
p1131
I3881
sS'voucher'
p1132
I230
sS'scarcity'
p1133
I2676
sS'careers'
p1134
I4130
sS'rough'
p1135
I3103
sS'substitute'
p1136
I3988
sS'purchasers'
p1137
I2149
sS'adds'
p1138
I3003
sS'victimization'
p1139
I1121
sS'newborns'
p1140
I3402
sS'nationalized'
p1141
I3268
sS'assistance'
p1142
I2580
sS'theist'
p1143
I2357
sS'agrees'
p1144
I3374
sS'current'
p1145
I527
sS'health'
p1146
I543
sS'theism'
p1147
I2288
sS'goes'
p1148
I1657
sS'international'
p1149
I758
sS'falling'
p1150
I2053
sS'principal'
p1151
I1847
sS'boost'
p1152
I2585
sS'era'
p1153
I1295
sS'satisfy'
p1154
I848
sS'supporting'
p1155
I2364
sS'realizing'
p1156
I4093
sS'transportation'
p1157
I3055
sS'efficacious'
p1158
I2597
sS'grandparents'
p1159
I706
sS'perverts'
p1160
I3620
sS'kamm'
p1161
I216
sS'understanding'
p1162
I2295
sS'water'
p1163
I2797
sS'contemplate'
p1164
I3838
sS'groups'
p1165
I934
sS'address'
p1166
I1100
sS'alone'
p1167
I470
sS'persecuted'
p1168
I1703
sS'teaches'
p1169
I3352
sS'change'
p1170
I1622
sS'sending'
p1171
I2150
sS'enroll'
p1172
I3767
sS'bygone'
p1173
I1766
sS'healthy'
p1174
I408
sS'funded'
p1175
I2614
sS'commonly'
p1176
I4062
sS'exploitation'
p1177
I977
sS'burdensome'
p1178
I2468
sS'ineffective'
p1179
I2546
sS'usually'
p1180
I3627
sS'studies'
p1181
I3334
sS'influx'
p1182
I1674
sS'genuinely'
p1183
I3260
sS'lowers'
p1184
I1106
sS'teenage'
p1185
I3294
sS'useful'
p1186
I1487
sS'curtailing'
p1187
I1447
sS'inducing'
p1188
I2210
sS'merely'
p1189
I4017
sS'prefer'
p1190
I2745
sS'logical'
p1191
I1758
sS'histories'
p1192
I2355
sS'bribery'
p1193
I140
sS'contradictions'
p1194
I2299
sS'licensing'
p1195
I1512
sS'verge'
p1196
I3347
sS'employer'
p1197
I1862
sS'crisis'
p1198
I1710
sS'market'
p1199
I2030
sS'handled'
p1200
I1585
sS'working'
p1201
I1999
sS'prove'
p1202
I475
sS'positive'
p1203
I409
sS'predictions'
p1204
I3096
sS'sports'
p1205
I28
sS'scenarios'
p1206
I884
sS'live'
p1207
I2868
sS'approach'
p1208
I3310
sS'opposed'
p1209
I3399
sS'black'
p1210
I2157
sS'cited'
p1211
I3480
sS'today'
p1212
I1164
sS'introducing'
p1213
I885
sS'afford'
p1214
I2048
sS'share'
p1215
I2541
sS'acceptable'
p1216
I142
sS'apparent'
p1217
I2391
sS'assimilation'
p1218
I1378
sS'refrain'
p1219
I3241
sS'equivalents'
p1220
I2904
sS'rigid'
p1221
I2934
sS'degrade'
p1222
I2072
sS'cases'
p1223
I942
sS'effort'
p1224
I2192
sS'behalf'
p1225
I1098
sS'organizations'
p1226
I759
sS'graphic'
p1227
I493
sS'indiscriminately'
p1228
I3812
sS'pushed'
p1229
I3111
sS'local'
p1230
I1509
sS'unitive'
p1231
I3586
sS'abortion'
p1232
I1887
sS'believes'
p1233
I3
sS'attacks'
p1234
I3107
sS'harmonious'
p1235
I1988
sS'values'
p1236
I1489
sS'can'
p1237
I367
sS'growing'
p1238
I218
sS'making'
p1239
I1009
sS'stimulating'
p1240
I1659
sS'social'
p1241
I135
sS'claim'
p1242
I1701
sS'classrooms'
p1243
I1408
sS'months'
p1244
I1989
sS'want'
p1245
I2407
sS'figure'
p1246
I2422
sS'prosecute'
p1247
I3999
sS'expanding'
p1248
I2582
sS'subsidies'
p1249
I2028
sS'despot'
p1250
I3791
sS'agent'
p1251
I2401
sS'abort'
p1252
I1929
sS'performed'
p1253
I2418
sS'council'
p1254
I4014
sS'allowed'
p1255
I1239
sS'forcibly'
p1256
I3455
sS'occur'
p1257
I1175
sS'productive'
p1258
I2039
sS'requirements'
p1259
I2443
sS'anabolic'
p1260
I774
sS'ideas'
p1261
I2673
sS'discussion'
p1262
I3686
sS'spreads'
p1263
I2093
sS'chemical'
p1264
I1542
sS'immune'
p1265
I901
sS'vital'
p1266
I1360
sS'criterion'
p1267
I1047
sS'churchis'
p1268
I3233
sS'pure'
p1269
I2438
sS'overpopulate'
p1270
I1736
sS'allowable'
p1271
I3722
sS'guarantee'
p1272
I132
sS'economy'
p1273
I1656
sS'product'
p1274
I2279
sS'designer'
p1275
I2395
sS'paramount'
p1276
I2970
sS'irrational'
p1277
I2347
sS'protection'
p1278
I2471
sS'information'
p1279
I2674
sS'may'
p1280
I286
sS'southern'
p1281
I3852
sS'respective'
p1282
I1836
sS'anomie'
p1283
I1621
sS'conscripted'
p1284
I2508
sS'produce'
p1285
I67
sS'designed'
p1286
I1153
sS'improving'
p1287
I1852
sS'such'
p1288
I836
sS'employers'
p1289
I1886
sS'data'
p1290
I822
sS'lacked'
p1291
I3234
sS'man'
p1292
I3227
sS'classroom'
p1293
I3346
sS'stress'
p1294
I389
sS'natural'
p1295
I1726
sS'sectors'
p1296
I2617
sS'whenever'
p1297
I1144
sS'purification'
p1298
I2862
sS'regressive'
p1299
I1563
sS'burmese'
p1300
I3023
sS'hailed'
p1301
I1614
sS'so'
p1302
I2436
sS'african'
p1303
I2555
sS'offend'
p1304
I3950
sS'truce'
p1305
I3862
sS'talk'
p1306
I3296
sS'typical'
p1307
I1199
sS'exclusive'
p1308
I732
sS'serving'
p1309
I1811
sS'constituents'
p1310
I4137
sS'exchanges'
p1311
I3012
sS'sexually'
p1312
I3336
sS'unacceptable'
p1313
I3148
sS'damage'
p1314
I1197
sS'stability'
p1315
I1810
sS'brain'
p1316
I1210
sS'unsuitable'
p1317
I2809
sS'fatalities'
p1318
I1182
sS'cuts'
p1319
I2844
sS'unfavorable'
p1320
I3642
sS'deity'
p1321
I2316
sS'still'
p1322
I4054
sS'blocked'
p1323
I3151
sS'constituted'
p1324
I3848
sS'emits'
p1325
I2788
sS'group'
p1326
I1005
sS'how'
p1327
I2424
sS'procedures'
p1328
I2467
sS'organisation'
p1329
I4029
sS'undermined'
p1330
I1353
sS'decreases'
p1331
I295
sS'ideation'
p1332
I1559
sS'forms'
p1333
I325
sS'gazan'
p1334
I3195
sS'creations'
p1335
I2662
sS'constitutes'
p1336
I463
sS'policy'
p1337
I17
sS'decreased'
p1338
I313
sS'factual'
p1339
I3303
sS'undermines'
p1340
I1113
sS'abusive'
p1341
I3021
sS'deviant'
p1342
I4090
sS'unplanned'
p1343
I3345
sS'finance'
p1344
I2558
sS'civilian'
p1345
I2505
sS'matches'
p1346
I1185
sS'relativism'
p1347
I2249
sS'processes'
p1348
I2881
sS'introduce'
p1349
I69
sS'nation'
p1350
I692
sS'toxic'
p1351
I3666
sS'normalcy'
p1352
I3831
sS'qualified'
p1353
I1043
sS'compelled'
p1354
I828
sS'republicanism'
p1355
I1756
sS'not'
p1356
I42
sS'prima'
p1357
I2292
sS'now'
p1358
I776
sS'provision'
p1359
I3776
sS'killed'
p1360
I3841
sS'maintaining'
p1361
I907
sS'possess'
p1362
I1096
sS'outweigh'
p1363
I1572
sS'term'
p1364
I265
sS'equality'
p1365
I981
sS'name'
p1366
I2390
sS'certainty'
p1367
I2323
sS'legislation'
p1368
I3989
sS'promulgate'
p1369
I4059
sS'bowling'
p1370
I886
sS'instability'
p1371
I1800
sS'entirely'
p1372
I3165
sS'physiologic'
p1373
I3406
sS'last'
p1374
I2957
sS'civilizing'
p1375
I2377
sS'differential'
p1376
I4098
sS'significantly'
p1377
I308
sS'challenged'
p1378
I574
sS'bitumen'
p1379
I3068
sS'variability'
p1380
I2776
sS'abnormal'
p1381
I1794
sS'conventions'
p1382
I1859
sS'challenges'
p1383
I2777
sS'electorate'
p1384
I2450
sS'fires'
p1385
I3923
sS'entering'
p1386
I3214
sS'year'
p1387
I70
sS'eu'
p1388
I2594
sS'assumption'
p1389
I2439
sS'monitors'
p1390
I1218
sS'awarding'
p1391
I2747
sS'abdication'
p1392
I2241
sS'living'
p1393
I626
sS'ultimately'
p1394
I1297
sS'decreasingly'
p1395
I2200
sS'intercourse'
p1396
I3316
sS'factors'
p1397
I727
sS'profit'
p1398
I1649
sS'tensions'
p1399
I2068
sS'interference'
p1400
I2756
sS'increase'
p1401
I273
sS'believers'
p1402
I3952
sS'seriously'
p1403
I1224
sS'condemns'
p1404
I1791
sS'unforgettable'
p1405
I3873
sS'rational'
p1406
I1445
sS'internet'
p1407
I1595
sS'protected'
p1408
I126
sS'receiving'
p1409
I2114
sS'correct'
p1410
I1093
sS'managed'
p1411
I2545
sS'inevitably'
p1412
I3766
sS'despite'
p1413
I4082
sS'earlier'
p1414
I3359
sS'theory'
p1415
I1313
sS'curbs'
p1416
I3210
sS'infidelity'
p1417
I3578
sS'incentives'
p1418
I1025
sS'possibility'
p1419
I2170
sS'quite'
p1420
I1519
sS'lucrative'
p1421
I1597
sS'obligation'
p1422
I2106
sS'inevitable'
p1423
I3162
sS'card'
p1424
I1637
sS'care'
p1425
I594
sS'advance'
p1426
I1892
sS'training'
p1427
I1256
sS'language'
p1428
I3727
sS'locations'
p1429
I3860
sS'discussing'
p1430
I3695
sS'deprivation'
p1431
I261
sS'transition'
p1432
I3027
sS'british'
p1433
I159
sS'honest'
p1434
I3009
sS'turn'
p1435
I663
sS'place'
p1436
I2990
sS'undesirable'
p1437
I613
sS'promotion'
p1438
I1492
sS'childhood'
p1439
I487
sS'frequent'
p1440
I897
sS'first'
p1441
I447
sS'origin'
p1442
I1685
sS'benefited'
p1443
I2736
sS'xl'
p1444
I146
sS'enhances'
p1445
I1436
sS'spoken'
p1446
I4043
sS'bargaining'
p1447
I48
sS'waves'
p1448
I1696
sS'municipality'
p1449
I1632
sS'indecent'
p1450
I3748
sS'one'
p1451
I676
sS'americans'
p1452
I2974
sS'long'
p1453
I293
sS'directly'
p1454
I1658
sS'invasion'
p1455
I2903
sS'carry'
p1456
I892
sS'impossible'
p1457
I997
sS'ring'
p1458
I1255
sS'custom'
p1459
I3433
sS'open'
p1460
I195
sS'seaport'
p1461
I3196
sS'size'
p1462
I580
sS'city'
p1463
I248
sS'little'
p1464
I760
sS'necessarily'
p1465
I1449
sS'officials'
p1466
I2636
sS'humiliation'
p1467
I3974
sS'district'
p1468
I4015
sS'occupy'
p1469
I3909
sS'caught'
p1470
I815
sS'unduly'
p1471
I3467
sS'oligopolies'
p1472
I1877
sS'response'
p1473
I2650
sS'households'
p1474
I2038
sS'encourages'
p1475
I1116
sS'conservation'
p1476
I2875
sS'draft'
p1477
I2476
sS'chastity'
p1478
I3584
sS'lobbyists'
p1479
I4147
sS'convention'
p1480
I3828
sS'legally'
p1481
I2658
sS'white'
p1482
I2539
sS'renewal'
p1483
I3598
sS'national'
p1484
I105
sS'gives'
p1485
I2642
sS'prone'
p1486
I3267
sS'legitimately'
p1487
I2116
sS'fraction'
p1488
I1682
sS'allegedly'
p1489
I2321
sS'that'
p1490
I4
sS'season'
p1491
I4071
sS'taxation'
p1492
I1616
sS'proving'
p1493
I2322
sS'overcapacity'
p1494
I3059
sS'outcome'
p1495
I3084
sS'criticize'
p1496
I1426
sS'representing'
p1497
I1829
sS'than'
p1498
I922
sS'intrinsically'
p1499
I1422
sS'population'
p1500
I534
sS'wide'
p1501
I868
sS'exclusionary'
p1502
I1428
sS'cartels'
p1503
I2143
sS'third'
p1504
I1391
sS'accordance'
p1505
I2978
sS'favors'
p1506
I3004
sS'require'
p1507
I96
sS'dialogue'
p1508
I3014
sS'economies'
p1509
I2105
sS'mutilation'
p1510
I3422
sS'future'
p1511
I121
sS'venture'
p1512
I1630
sS'were'
p1513
I236
sS'posit'
p1514
I2350
sS'happy'
p1515
I2318
sS'disorganisation'
p1516
I4106
sS'respectability'
p1517
I3704
sS'depresses'
p1518
I2921
sS'and'
p1519
I168
sS'lowest'
p1520
I2817
sS'tenure'
p1521
I4151
sS'legalizing'
p1522
I840
sS'enhanced'
p1523
I3481
sS'considerably'
p1524
I2762
sS'appreciate'
p1525
I3390
sS'turned'
p1526
I809
sS'argument'
p1527
I2302
sS'voices'
p1528
I1288
sS'say'
p1529
I2012
sS'rent'
p1530
I2738
sS'nominating'
p1531
I3543
sS'exchanging'
p1532
I3653
sS'dogmatism'
p1533
I2265
sS'insatiable'
p1534
I2138
sS'occupied'
p1535
I3220
sS'any'
p1536
I476
sS'conversion'
p1537
I3491
sS'offering'
p1538
I4088
sS'efficient'
p1539
I2042
sS'aside'
p1540
I1502
sS'reforestation'
p1541
I3470
sS'equipment'
p1542
I767
sS'emphasis'
p1543
I1331
sS'potential'
p1544
I503
sS'take'
p1545
I742
sS'online'
p1546
I177
sS'objective'
p1547
I2429
sS'performance'
p1548
I23
sS'coincide'
p1549
I2781
sS'primaries'
p1550
I196
sS'motivated'
p1551
I1719
sS'deniers'
p1552
I3979
sS'begin'
p1553
I3315
sS'multiple'
p1554
I1482
sS'normal'
p1555
I349
sS'price'
p1556
I1324
sS'enter'
p1557
I1705
sS'dioxide'
p1558
I2837
sS'paid'
p1559
I111
sS'donation'
p1560
I2577
sS'importantly'
p1561
I319
sS'knowingly'
p1562
I2145
sS'atrocity'
p1563
I3280
sS'especially'
p1564
I1931
sS'fills'
p1565
I2399
sS'considered'
p1566
I757
sS'shooter'
p1567
I479
sS'implications'
p1568
I3519
sS'sale'
p1569
I6
sS'federal'
p1570
I3756
sS'prepare'
p1571
I3289
sS'trafficking'
p1572
I1985
sS'clearing'
p1573
I3495
sS'infringement'
p1574
I2694
sS'professional'
p1575
I27
sS'typically'
p1576
I2891
sS'filing'
p1577
I2687
sS'multitrack'
p1578
I2004
sS'laws'
p1579
I989
sS'slope'
p1580
I1965
sS'perpetrated'
p1581
I4119
sS'playoffs'
p1582
I257
sS'regulated'
p1583
I1604
sS'show'
p1584
I2267
sS'cheat'
p1585
I1589
sS'recipe'
p1586
I2338
sS'merit'
p1587
I1180
sS'spaces'
p1588
I3901
sS'inconsistent'
p1589
I782
sS'copyrighted'
p1590
I2693
sS'scarce'
p1591
I2711
sS'aggressive'
p1592
I282
sS'imagined'
p1593
I3963
sS'pacific'
p1594
I3387
sS'ground'
p1595
I1446
sS'slot'
p1596
I1580
sS'fend'
p1597
I3806
sS'sinks'
p1598
I3511
sS'ratio'
p1599
I61
sS'entities'
p1600
I2681
sS'title'
p1601
I4075
sS'daily'
p1602
I3202
sS'unchanging'
p1603
I2311
sS'retards'
p1604
I3011
sS'behind'
p1605
I519
sS'crime'
p1606
I263
sS'overruns'
p1607
I3044
sS'only'
p1608
I92
sS'going'
p1609
I2865
sS'enriched'
p1610
I1472
sS'worthwhile'
p1611
I2498
sS'inventions'
p1612
I2236
sS'supernatural'
p1613
I2411
sS'ranking'
p1614
I2517
sS'get'
p1615
I956
sS'truly'
p1616
I1283
sS'israels'
p1617
I3119
sS'cannot'
p1618
I400
sS'outlet'
p1619
I412
sS'import'
p1620
I3204
sS'budget'
p1621
I2922
sS'unethical'
p1622
I498
sS'teens'
p1623
I2023
sS'regarding'
p1624
I3343
sS'resource'
p1625
I667
sS'mavericks'
p1626
I4019
sS'radar'
p1627
I2796
sS'assimilate'
p1628
I1375
sS'subsidise'
p1629
I2595
sS'routinely'
p1630
I4084
sS'across'
p1631
I3319
sS'barbaric'
p1632
I1277
sS'prevents'
p1633
I2960
sS'where'
p1634
I861
sS'conviction'
p1635
I3696
sS'monarchs'
p1636
I1789
sS'physically'
p1637
I963
sS'violated'
p1638
I3169
sS'artworks'
p1639
I2732
sS'closures'
p1640
I3110
sS'bounds'
p1641
I3306
sS'famine'
p1642
I655
sS'elected'
p1643
I1833
sS'actively'
p1644
I2182
sS'college'
p1645
I4063
sS'eliminating'
p1646
I1404
sS'pretext'
p1647
I3641
sS'calendar'
p1648
I2013
sS'sport'
p1649
I1192
sS'violates'
p1650
I606
sS'constraints'
p1651
I3623
sS'wonder'
p1652
I859
sS'appear'
p1653
I2900
sS'fails'
p1654
I1108
sS'invoked'
p1655
I1146
sS'inequalities'
p1656
I1067
sS'farmers'
p1657
I3513
sS'ways'
p1658
I1399
sS'subsequent'
p1659
I2669
sS'seekers'
p1660
I1718
sS'justifies'
p1661
I3868
sS'materials'
p1662
I763
sS'weapons'
p1663
I90
sS'outside'
p1664
I511
sS'preemptive'
p1665
I2480
sS'between'
p1666
I305
sS'affecting'
p1667
I2458
sS'custodians'
p1668
I2899
sS'justified'
p1669
I83
sS'fields'
p1670
I3497
sS'checks'
p1671
I1831
sS'promiscuity'
p1672
I3360
sS'infrastructure'
p1673
I2549
sS'jobs'
p1674
I227
sS'august'
p1675
I3028
sS'parental'
p1676
I3418
sS'legitimacy'
p1677
I1460
sS'killing'
p1678
I1909
sS'steroid'
p1679
I875
sS'commodified'
p1680
I2706
sS'hurts'
p1681
I1029
sS'nationality'
p1682
I1735
sS'cities'
p1683
I1694
sS'come'
p1684
I537
sS'undermine'
p1685
I1429
sS'massacres'
p1686
I3994
sS'motivations'
p1687
I2653
sS'reaction'
p1688
I3879
sS'mans'
p1689
I2494
sS'acquiring'
p1690
I88
sS'fearsome'
p1691
I3920
sS'many'
p1692
I393
sS'region'
p1693
I2187
sS'trades'
p1694
I52
sS'emergency'
p1695
I3702
sS'according'
p1696
I1055
sS'propaganda'
p1697
I3982
sS'enabling'
p1698
I2111
sS'marked'
p1699
I3024
sS'patrons'
p1700
I1586
sS'workplace'
p1701
I1864
sS'guardians'
p1702
I3261
sS'holders'
p1703
I2754
sS'expression'
p1704
I418
sS'comes'
p1705
I1432
sS'nearby'
p1706
I3897
sS'duty'
p1707
I1812
sS'among'
p1708
I299
sS'impediments'
p1709
I3759
sS'recreational'
p1710
I2879
sS'spoil'
p1711
I1728
sS'cancer'
p1712
I3669
sS'continuation'
p1713
I689
sS'period'
p1714
I562
sS'balance'
p1715
I3692
sS'innovations'
p1716
I2743
sS'satisfaction'
p1717
I2077
sS'exploit'
p1718
I2109
sS'learning'
p1719
I1419
sS'gene'
p1720
I3502
sS'liberal'
p1721
I1326
sS'extinct'
p1722
I2866
sS'poll'
p1723
I3080
sS'considers'
p1724
I3591
sS'boat'
p1725
I1712
sS'reconcile'
p1726
I2419
sS'save'
p1727
I3593
sS'arts'
p1728
I858
sS'subscribed'
p1729
I4023
sS'capable'
p1730
I2500
sS'west'
p1731
I1356
sS'vacation'
p1732
I1995
sS'extramarital'
p1733
I3576
sS'fleeing'
p1734
I1665
sS'usfj'
p1735
I3383
sS'motives'
p1736
I2600
sS'peaceful'
p1737
I3836
sS'technical'
p1738
I2525
sS'ecosystem'
p1739
I2861
sS'borders'
p1740
I1664
sS'wants'
p1741
I3041
sS'enable'
p1742
I2037
sS'bionics'
p1743
I2858
sS'indirect'
p1744
I2905
sS'shortages'
p1745
I2516
sS'unsafe'
p1746
I1967
sS'connections'
p1747
I4120
sS'curbing'
p1748
I3532
sS'dramatic'
p1749
I721
sS'covers'
p1750
I3351
sS'declaration'
p1751
I3949
sS'suspected'
p1752
I2147
sS'thing'
p1753
I3037
sS'esoteric'
p1754
I4079
sS'irrelevant'
p1755
I1046
sS'former'
p1756
I805
sS'those'
p1757
I552
sS'case'
p1758
I1969
sS'deprive'
p1759
I3116
sS'developing'
p1760
I2550
sS'these'
p1761
I823
sS'slumber'
p1762
I3687
sS'polls'
p1763
I149
sS'intimately'
p1764
I2624
sS'cast'
p1765
I3816
sS'slippery'
p1766
I1964
sS'unfortunate'
p1767
I3878
sS'policies'
p1768
I657
sS'situation'
p1769
I3147
sS'endured'
p1770
I3720
sS'perpetuate'
p1771
I986
sS'conferences'
p1772
I4077
sS'then'
p1773
I1704
sS'characteristics'
p1774
I1405
sS'ethically'
p1775
I867
sS'contrive'
p1776
I2996
sS'dissident'
p1777
I3943
sS'deficits'
p1778
I2924
sS'couples'
p1779
I3574
sS'middle'
p1780
I2110
sS'bias'
p1781
I1518
sS'embrace'
p1782
I37
sS'attributed'
p1783
I507
sS'argue'
p1784
I3601
sS'contraceptives'
p1785
I3344
sS'return'
p1786
I1715
sS'technology'
p1787
I2749
sS'different'
p1788
I761
sS'dragging'
p1789
I2223
sS'participant'
p1790
I1243
sS'doctor'
p1791
I3427
sS'pay'
p1792
I1167
sS'deforested'
p1793
I3473
sS'same'
p1794
I559
sS'speech'
p1795
I224
sS'arguments'
p1796
I2266
sS'agitated'
p1797
I3941
sS'deference'
p1798
I1784
sS'struggling'
p1799
I2019
sS'regime'
p1800
I2717
sS'intermediary'
p1801
I1803
sS'licit'
p1802
I3595
sS'status'
p1803
I1684
sS'extended'
p1804
I561
sS'centuries'
p1805
I2757
sS'disadvantages'
p1806
I1088
sS'enjoyment'
p1807
I1080
sS'defy'
p1808
I3039
sS'assist'
p1809
I1135
sS'births'
p1810
I556
sS'drives'
p1811
I2720
sS'intimidation'
p1812
I2448
sS'disadvantaged'
p1813
I1060
sS'persons'
p1814
I1675
sS'statutory'
p1815
I2661
sS'unqualified'
p1816
I2973
sS'footprint'
p1817
I2801
sS'changing'
p1818
I2312
sS'anticipated'
p1819
I3187
sS'wholeness'
p1820
I1293
sS'renewable'
p1821
I2816
sS'complained'
p1822
I3391
sS'misdirection'
p1823
I3007
sS'rain'
p1824
I3494
sS'largely'
p1825
I2735
sS'minimize'
p1826
I2174
sS'cct'
p1827
I2041
sS'constitutional'
p1828
I1103
sS'walls'
p1829
I3930
sS'know'
p1830
I3784
sS'evils'
p1831
I2378
sS'severe'
p1832
I1211
sS'without'
p1833
I800
sS'solve'
p1834
I1709
sS'components'
p1835
I2888
sS'relied'
p1836
I2842
sS'sculptors'
p1837
I2730
sS'model'
p1838
I927
sS'otherwise'
p1839
I1731
sS'researchers'
p1840
I501
sS'justify'
p1841
I719
sS'gdp'
p1842
I2547
sS'summer'
p1843
I1994
sS'peace'
p1844
I2195
sS'reconstruction'
p1845
I3215
sS'being'
p1846
I962
sS'when'
p1847
I789
sS'guided'
p1848
I3606
sS'unconstitutional'
p1849
I454
sS'actions'
p1850
I1069
sS'safeguards'
p1851
I1801
sS'misuse'
p1852
I1806
sS'civilized'
p1853
I1258
sS'kill'
p1854
I1251
sS'potentiality'
p1855
I1895
sS'positions'
p1856
I2518
sS'touch'
p1857
I4136
sS'minimized'
p1858
I3302
sS'speed'
p1859
I2576
sS'perilous'
p1860
I1337
sS'death'
p1861
I938
sS'grounded'
p1862
I1424
sS'womans'
p1863
I1956
sS'thinking'
p1864
I1410
sS'seems'
p1865
I1392
sS'except'
p1866
I2167
sS'improvement'
p1867
I3782
sS'interested'
p1868
I4081
sS'suppressed'
p1869
I3690
sS'treatment'
p1870
I919
sS'door'
p1871
I3651
sS'stateno'
p1872
I3232
sS'constant'
p1873
I3883
sS'republic'
p1874
I18
sS'extensive'
p1875
I3058
sS'structural'
p1876
I3917
sS'disrupt'
p1877
I3224
sS'disproportionate'
p1878
I3832
sS'real'
p1879
I276
sS'aspects'
p1880
I410
sS'around'
p1881
I804
sS'rules'
p1882
I814
sS'offence'
p1883
I245
sS'disappearance'
p1884
I2873
sS'early'
p1885
I888
sS'inflation'
p1886
I2926
sS'grid'
p1887
I2847
sS'preference'
p1888
I1161
sS'detract'
p1889
I4070
sS'schedules'
p1890
I2005
sS'reconfiguration'
p1891
I707
sS'using'
p1892
I84
sS'breakage'
p1893
I3370
sS'accepted'
p1894
I4005
sS'recipient'
p1895
I2070
sS'unjustifiable'
p1896
I3880
sS'ruled'
p1897
I1850
sS'meaning'
p1898
I3569
sS'legalised'
p1899
I819
sS'martyrs'
p1900
I4003
sS'terrorize'
p1901
I3826
sS'collective'
p1902
I47
sS'maintained'
p1903
I2475
sS'serves'
p1904
I1749
sS'desensitizing'
p1905
I377
sS'facing'
p1906
I2051
sS'benefit'
p1907
I1015
sS'either'
p1908
I1510
sS'fully'
p1909
I1760
sS'output'
p1910
I641
sS'dilution'
p1911
I3547
sS'reduced'
p1912
I535
sS'fulfil'
p1913
I4101
sS'homicides'
p1914
I2956
sS'jews'
p1915
I3996
sS'picture'
p1916
I3077
sS'tragedies'
p1917
I3160
sS'competition'
p1918
I2081
sS'privatization'
p1919
I3264
sS'indulged'
p1920
I4050
sS'refresh'
p1921
I4131
sS'demeaning'
p1922
I4089
sS'racial'
p1923
I990
sS'intact'
p1924
I1942
sS'generates'
p1925
I2998
sS'developmental'
p1926
I1434
sS'accidental'
p1927
I2219
sS'freer'
p1928
I1389
sS'unbelief'
p1929
I2326
sS'recorded'
p1930
I2290
sS'legal'
p1931
I826
sS'conservative'
p1932
I3312
sS'habits'
p1933
I890
sS'exit'
p1934
I3101
sS'deficit'
p1935
I2923
sS'provides'
p1936
I1417
sS'moderate'
p1937
I917
sS'freed'
p1938
I4143
sS'unethically'
p1939
I315
sS'scientific'
p1940
I2348
sS'power'
p1941
I117
sS'prosecution'
p1942
I1844
sS'equivalent'
p1943
I1910
sS'fitness'
p1944
I908
sS'communicate'
p1945
I3286
sS'broker'
p1946
I3876
sS'royals'
p1947
I1816
sS'tuition'
p1948
I3257
sS'notably'
p1949
I3771
sS'credits'
p1950
I3763
sS'leadership'
p1951
I1849
sS'found'
p1952
I1339
sS'strangled'
p1953
I3159
sS'stereotypes'
p1954
I360
sS'kids'
p1955
I3774
sS'on'
p1956
I267
sS'patent'
p1957
I2686
sS'central'
p1958
I2655
sS'origins'
p1959
I2132
sS'of'
p1960
I7
sS'industry'
p1961
I1524
sS'violence'
p1962
I279
sS'sustain'
p1963
I2611
sS'bonding'
p1964
I3413
sS'practical'
p1965
I399
sS'supervised'
p1966
I2001
sS'stand'
p1967
I1879
sS'act'
p1968
I228
sS'concentrations'
p1969
I2091
sS'invested'
p1970
I3895
sS'derailment'
p1971
I3223
sS'or'
p1972
I337
sS'fallacy'
p1973
I2303
sS'libel'
p1974
I3948
sS'burning'
p1975
I253
sS'inclusion'
p1976
I4086
sS'communication'
p1977
I3678
sS'spreading'
p1978
I3342
sS'escalated'
p1979
I4025
sS'authorities'
p1980
I1504
sS'involvement'
p1981
I2561
sS'determine'
p1982
I579
sS'parties'
p1983
I983
sS'speculated'
p1984
I677
sS'financial'
p1985
I2604
sS'playoff'
p1986
I4065
sS'jerusalem'
p1987
I3126
sS'your'
p1988
I881
sS'intervention'
p1989
I1136
sS'her'
p1990
I703
sS'area'
p1991
I1591
sS'bribes'
p1992
I2992
sS'assumed'
p1993
I2403
sS'strictly'
p1994
I791
sS'there'
p1995
I383
sS'hazards'
p1996
I3668
sS'racism'
p1997
I1171
sS'strict'
p1998
I813
sS'multinationality'
p1999
I1448
sS'low'
p2000
I1516
sS'lot'
p2001
I1271
sS'prepuce'
p2002
I3450
sS'deteriorating'
p2003
I3222
sS'cultures'
p2004
I896
sS'decisive'
p2005
I2242
sS'circumcised'
p2006
I3403
sS'displayed'
p2007
I3875
sS'enough'
p2008
I718
sS'reduce'
p2009
I640
sS'regard'
p2010
I3793
sS'delayed'
p2011
I3331
sS'societal'
p2012
I436
sS'genocidal'
p2013
I3993
sS'land'
p2014
I2770
sS'technologies'
p2015
I3750
sS'promote'
p2016
I374
sS'with'
p2017
I58
sS'hire'
p2018
I3752
sS'fraud'
p2019
I1628
sS'romantic'
p2020
I3350
sS'embedded'
p2021
I2087
sS'engage'
p2022
I924
sS'lawfully'
p2023
I3185
sS'resolving'
p2024
I4032
sS'extermination'
p2025
I3026
sS'emissions'
p2026
I2767
sS'dependents'
p2027
I2065
sS'tens'
p2028
I3856
sS'beliefs'
p2029
I376
sS'distributing'
p2030
I3785
sS'regimes'
p2031
I3022
sS'strongly'
p2032
I1987
sS'gone'
p2033
I784
sS'money'
p2034
I1552
sS'contributors'
p2035
I2605
sS'complicated'
p2036
I4149
sS'exhausted'
p2037
I3837
sS'certain'
p2038
I883
sS'censor'
p2039
I3733
sS'wartime'
p2040
I3721
sS'an'
p2041
I59
sS'as'
p2042
I331
sS'at'
p2043
I101
sS'aids'
p2044
I2548
sS'importing'
p2045
I2823
sS'lifetime'
p2046
I1561
sS'deterrent'
p2047
I2967
sS'match'
p2048
I4127
sS'dampens'
p2049
I3730
sS'incorrect'
p2050
I3981
sS'again'
p2051
I3042
sS'subversive'
p2052
I3684
sS'beyond'
p2053
I2442
sS'deserve'
p2054
I2231
sS'abolish'
p2055
I44
sS'field'
p2056
I830
sS'gambling'
p2057
I39
sS'you'
p2058
I1084
sS'pollutants'
p2059
I2826
sS'victimize'
p2060
I3942
sS'poor'
p2061
I74
sS'championship'
p2062
I4068
sS'ineligible'
p2063
I2457
sS'congress'
p2064
I2530
sS'separate'
p2065
I1343
sS'students'
p2066
I387
sS'symbol'
p2067
I1752
sS'contradicted'
p2068
I2351
sS'includes'
p2069
I1926
sS'zone'
p2070
I3818
sS'important'
p2071
I906
sS'peak'
p2072
I2779
sS'suited'
p2073
I1765
sS'conferred'
p2074
I1835
sS'included'
p2075
I973
sS'tendencies'
p2076
I298
sS'intimacy'
p2077
I3308
sS'pool'
p2078
I3503
sS'conclusive'
p2079
I303
sS'fiscal'
p2080
I2928
sS'assets'
p2081
I1138
sS'calls'
p2082
I3168
sS'infanticide'
p2083
I617
sS'controlled'
p2084
I1960
sS'colonialism'
p2085
I1843
sS'odds'
p2086
I1578
sS'collegiate'
p2087
I258
sS'gross'
p2088
I3618
sS'impossibility'
p2089
I818
sS'stockpile'
p2090
I2162
sS'u'
I2124
sS'profits'
p2091
I1629
sS'hugely'
p2092
I3786
sS'prerequisite'
p2093
I3631
sS'starting'
p2094
I1062
sS'original'
p2095
I1421
sS'caste'
p2096
I2088
sS'represent'
p2097
I3549
sS'all'
p2098
I46
sS'consider'
p2099
I434
sS'chinese'
p2100
I712
sS'complements'
p2101
I3965
sS'caused'
p2102
I656
sS'lack'
p2103
I599
sS'concern'
p2104
I2620
sS'unmeasurable'
p2105
I2878
sS'unrest'
p2106
I1968
sS'surgical'
p2107
I3409
sS'antagonize'
p2108
I4051
sS'welfare'
p2109
I2059
sS'partial'
p2110
I54
sS'expressions'
p2111
I1490
sS'adhere'
p2112
I1368
sS'religious'
p2113
I1475
sS'children'
p2114
I317
sS'causes'
p2115
I262
sS'synthetic'
p2116
I3069
sS'killers'
p2117
I3665
sS'altruism'
p2118
I3607
sS'catastrophe'
p2119
I3146
sS'subjected'
p2120
I3735
sS'okinawan'
p2121
I3401
sS'participants'
p2122
I4067
sS'opportunities'
p2123
I1139
sS'removal'
p2124
I3430
sS'to'
p2125
I11
sS'playeven'
p2126
I492
sS'program'
p2127
I724
sS'preserved'
p2128
I1371
sS'siblings'
p2129
I674
sS'subsides'
p2130
I3658
sS'believing'
p2131
I2330
sS'activities'
p2132
I178
sS'woman'
p2133
I1893
sS'worse'
p2134
I2645
sS'virtue'
p2135
I3797
sS'returning'
p2136
I3851
sS'very'
p2137
I812
sS'induce'
p2138
I2208
sS'blockade'
p2139
I154
sS'sons'
p2140
I2537
sS'worst'
p2141
I2491
sS'decide'
p2142
I456
sS'headgear'
p2143
I1232
sS'austerity'
p2144
I130
sS'condition'
p2145
I2325
sS'treating'
p2146
I3954
sS'anat'
p2147
I215
sS'biosequestration'
p2148
I3471
sS'benevolent'
p2149
I2315
sS'issue'
p2150
I1717
sS'applicable'
p2151
I3787
sS'large'
p2152
I636
sS'sane'
p2153
I3792
sS'small'
p2154
I994
sS'biological'
p2155
I352
sS'economically'
p2156
I1660
sS'embodying'
p2157
I1828
sS'tel'
p2158
I3124
sS'escalation'
p2159
I2209
sS'ten'
p2160
I802
sS'professing'
p2161
I3694
sS'past'
p2162
I975
sS'rate'
p2163
I532
sS'invention'
p2164
I2255
sS'design'
p2165
I2385
sS'pass'
p2166
I225
sS'coverage'
p2167
I3098
sS'further'
p2168
I752
sS'resettled'
p2169
I1667
sS'investment'
p2170
I2083
sS'creatures'
p2171
I2319
sS'conscience'
p2172
I3236
sS'harden'
p2173
I320
sS'what'
p2174
I406
sS'defence'
p2175
I2520
sS'assured'
p2176
I2084
sS'consumers'
p2177
I2047
sS'witnessed'
p2178
I430
sS'deeply'
p2179
I3567
sS'attitudes'
p2180
I375
sS'instilling'
p2181
I1412
sS'destroyed'
p2182
I3777
sS'ongoing'
p2183
I2783
sS'learned'
p2184
I395
sS'method'
p2185
I200
sS'contrast'
p2186
I3906
sS'movement'
p2187
I1707
sS'unbearable'
p2188
I3887
sS'full'
p2189
I1079
sS'component'
p2190
I1444
sS'behaviour'
p2191
I380
sS'bloggers'
p2192
I172
sS'suicide'
p2193
I1562
sS'operating'
p2194
I2021
sS'tolerance'
p2195
I3557
sS'excess'
p2196
I947
sS'directions'
p2197
I3198
sS'strong'
p2198
I1335
sS'tragedy'
p2199
I3874
sS'criminality'
p2200
I1743
sS'unproven'
p2201
I2229
sS'leveling'
p2202
I1875
sS'difficulty'
p2203
I4110
sS'deviate'
p2204
I4113
sS'inspired'
p2205
I2361
sS'losses'
p2206
I1536
sS'allows'
p2207
I171
sS'experience'
p2208
I397
sS'fired'
p2209
I3824
sS'soldier'
p2210
I2507
sS'amount'
p2211
I699
sS'simply'
p2212
I1764
sS'published'
p2213
I839
sS'action'
p2214
I34
sS'narrow'
p2215
I748
sS'options'
p2216
I550
sS'authorize'
p2217
I2531
sS'via'
p2218
I940
sS'dire'
p2219
I2759
sS'family'
p2220
I582
sS'africa'
p2221
I2552
sS'backed'
p2222
I2831
sS'sanction'
p2223
I3032
sS'extinction'
p2224
I2871
sS'coercion'
p2225
I750
sS'select'
p2226
I340
sS'conventional'
p2227
I682
sS'ubermenschen'
p2228
I849
sS'takes'
p2229
I3079
sS'distinct'
p2230
I710
sS'turnout'
p2231
I2452
sS'two'
p2232
I704
sS'governance'
p2233
I2638
sS'generate'
p2234
I2755
sS'resident'
p2235
I3932
sS'cultivation'
p2236
I3656
sS'soil'
p2237
I3475
sS'taken'
p2238
I2510
sS'promoting'
p2239
I3575
sS'injury'
p2240
I1198
sS'affluence'
p2241
I903
sS'achieving'
p2242
I4102
sS'minor'
p2243
I2454
sS'more'
p2244
I318
sS'teen'
p2245
I3329
sS'israel'
p2246
I152
sS'delaying'
p2247
I3333
sS'erode'
p2248
I2637
sS'abridged'
p2249
I3712
sS'substances'
p2250
I841
sS'unworkable'
p2251
I1390
sS'company'
p2252
I1880
sS'problem'
p2253
I1543
sS'instrumental'
p2254
I2886
sS'excuse'
p2255
I3747
sS'flag'
p2256
I4036
sS'citizenry'
p2257
I639
sS'particular'
p2258
I1178
sS'known'
p2259
I1207
sS'foundations'
p2260
I2349
sS'producing'
p2261
I1974
sS'pleasing'
p2262
I2839
sS'helped'
p2263
I2610
sS'none'
p2264
I2412
sS'include'
p2265
I737
sS'offender'
p2266
I4109
sS'science'
p2267
I2356
sS'offended'
p2268
I3959
sS'remain'
p2269
I3030
sS'budgets'
p2270
I2583
sS'evolved'
p2271
I2368
sS'learn'
p2272
I895
sS'abandon'
p2273
I612
sS'strategies'
p2274
I2625
sS'male'
p2275
I187
sS'treaty'
p2276
I3382
sS'history'
p2277
I966
sS'civilizations'
p2278
I1451
sS'impacts'
p2279
I2818
sS'stated'
p2280
I3207
sS'gravely'
p2281
I3583
sS'abandonment'
p2282
I1420
sS'demcoracy'
p2283
I3015
sS'states'
p2284
I77
sS'contradicts'
p2285
I1773
sS'protects'
p2286
I2704
sS'numbers'
p2287
I2984
sS'sense'
p2288
I1292
sS'species'
p2289
I125
sS'homicide'
p2290
I2939
sS'huge'
p2291
I2161
sS'needs'
p2292
I736
sS'heeds'
p2293
I3167
sS'goal'
p2294
I620
sS'rather'
p2295
I433
sS'imminent'
p2296
I2168
sS'acts'
p2297
I481
sS'conducted'
p2298
I3822
sS'ratified'
p2299
I2165
sS'constructed'
p2300
I3915
sS'occasionally'
p2301
I3717
sS'functioning'
p2302
I3431
sS'influences'
p2303
I368
sS'reject'
p2304
I3309
sS'stis'
p2305
I3293
sS'misallocates'
p2306
I2565
sS'plant'
p2307
I2775
sS'intended'
p2308
I968
sS'inflationary'
p2309
I2925
sS'rainforest'
p2310
I3528
sS'replace'
p2311
I1738
sS'tries'
p2312
I1290
sS'terrorist'
p2313
I1691
sS'countering'
p2314
I965
sS'accorded'
p2315
I1124
sS'develop'
p2316
I384
sS'ethics'
p2317
I2259
sS'inconceivable'
p2318
I2313
sS'compulsory'
p2319
I32
sS'proclaimed'
p2320
I3088
sS'a'
I118
sS'usurper'
p2321
I3677
sS'short'
p2322
I292
sS'crowded'
p2323
I2616
sS'prefers'
p2324
I107
sS'author'
p2325
I3597
sS'relation'
p2326
I3175
sS'supervision'
p2327
I1963
sS'blasphemous'
p2328
I3947
sS'ignores'
p2329
I4148
sS'negligible'
p2330
I1133
sS'fundamental'
p2331
I1081
sS'media'
p2332
I356
sS'banks'
p2333
I1635
sS'pleasure'
p2334
I3459
sS'lasting'
p2335
I3877
sS'dream'
p2336
I4094
sS'playing'
p2337
I336
sS'enslavement'
p2338
I2245
sS'infant'
p2339
I188
sS'mexican'
p2340
I2129
sS'help'
p2341
I386
sS'swamped'
p2342
I2623
sS'developed'
p2343
I2569
sS'charities'
p2344
I1631
sS'trade'
p2345
I108
sS'disabled'
p2346
I3754
sS'held'
p2347
I1825
sS'through'
p2348
I506
sS'predisposed'
p2349
I4117
sS'committed'
p2350
I3396
sS'existence'
p2351
I2248
sS'turbine'
p2352
I2832
sS'suffer'
p2353
I874
sS'its'
p2354
I129
sS'environmentally'
p2355
I3065
sS'rapidly'
p2356
I3529
sS'render'
p2357
I2497
sS'susceptible'
p2358
I1627
sS'gamesespecially'
p2359
I478
sS'border'
p2360
I3888
sS'solving'
p2361
I1400
sS'actually'
p2362
I287
sS'absence'
p2363
I2282
sS'parts'
p2364
I3457
sS'systems'
p2365
I1483
sS'bypass'
p2366
I3273
sS'bout'
p2367
I1222
sS'might'
p2368
I1834
sS'hurting'
p2369
I1262
sS'good'
p2370
I889
sS'somebody'
p2371
I999
sS'seeking'
p2372
I1105
sS'food'
p2373
I2852
sS'males'
p2374
I64
sS'socially'
p2375
I1132
sS'redistribute'
p2376
I2035
sS'prejudices'
p2377
I1170
sS'reflected'
p2378
I1173
sS'usarj'
p2379
I3384
sS'snowball'
p2380
I3095
sS'imperil'
p2381
I1946
sS'permissible'
p2382
I3326
sS'communities'
p2383
I75
sS'linking'
p2384
I3172
sS'association'
p2385
I1860
sS'easily'
p2386
I1520
sS'solves'
p2387
I2590
sS'imprisoned'
p2388
I4004
sS'pregnant'
p2389
I1899
sS'always'
p2390
I1322
sS'judgments'
p2391
I3646
sS'presented'
p2392
I3423
sS'truths'
p2393
I2430
sS'evade'
p2394
I174
sS'someone'
p2395
I3560
sS'inequality'
p2396
I1073
sS'apartheid'
p2397
I2189
sS'inherent'
p2398
I1070
sS'intolerable'
p2399
I3216
sS'lifestyles'
p2400
I1623
sS'heavy'
p2401
I468
sS'injured'
p2402
I1225
sS'harm'
p2403
I150
sS'everyone'
p2404
I915
sS'england'
p2405
I157
sS'mental'
p2406
I806
sS'weight'
p2407
I909
sS'generation'
p2408
I2064
sS'house'
p2409
I2
sS'energy'
p2410
I122
sS'hard'
p2411
I2052
sS'oppressed'
p2412
I1157
sS'idea'
p2413
I1057
sS'police'
p2414
I4060
sS'oil'
p2415
I3057
sS'populist'
p2416
I3269
sS'inflict'
p2417
I1265
sS'doses'
p2418
I873
sS'operation'
p2419
I2768
sS'standards'
p2420
I627
sS'distributive'
p2421
I2074
sS'theologians'
p2422
I3945
sS'really'
p2423
I2141
sS'repressive'
p2424
I3020
sS'funding'
p2425
I2608
sS'missed'
p2426
I1521
sS'ritual'
p2427
I3426
sS'since'
p2428
I546
sS'publish'
p2429
I3714
sS'research'
p2430
I167
sS'acting'
p2431
I3835
sS'safety'
p2432
I837
sS'induced'
p2433
I1915
sS'evaluation'
p2434
I1033
sS'occurs'
p2435
I929
sS'conceived'
p2436
I2435
sS'belief'
p2437
I1545
sS'causally'
p2438
I333
sS'circumstance'
p2439
I1955
sS'favored'
p2440
I1142
sS'houses'
p2441
I3907
sS'reason'
p2442
I591
sS'base'
p2443
I2684
sS'members'
p2444
I1022
sS'put'
p2445
I878
sS'teach'
p2446
I179
sS'rises'
p2447
I238
sS'beginning'
p2448
I1903
sS'sedentary'
p2449
I943
sS'curtailed'
p2450
I3849
sS'driven'
p2451
I1640
sS'benefits'
p2452
I427
sS'perceptible'
p2453
I2270
sS'persists'
p2454
I3171
sS'running'
p2455
I3846
sS'american'
p2456
I226
sS'prejudice'
p2457
I1159
sS'threat'
p2458
I755
sS'disincentive'
p2459
I2670
sS'consequence'
p2460
I3154
sS'corrupting'
p2461
I4154
sS'lawsuits'
p2462
I2688
sS'major'
p2463
I777
sS'unhealthy'
p2464
I3674
sS'probability'
p2465
I1517
sS'upper'
p2466
I2540
sS'feel'
p2467
I1620
sS'knocking'
p2468
I1246
sS'number'
p2469
I669
sS'preservation'
p2470
I3708
sS'antiquity'
p2471
I1746
sS'instances'
p2472
I783
sS'general'
p2473
I2906
sS'done'
p2474
I2651
sS'construct'
p2475
I2366
sS'fees'
p2476
I3258
sS'wages'
p2477
I1734
sS'hollows'
p2478
I2591
sS'miss'
p2479
I2026
sS'militant'
p2480
I3192
sS'differ'
p2481
I2989
sS'adherents'
p2482
I3955
sS'gazans'
p2483
I3830
sS'utilization'
p2484
I3526
sS'leading'
p2485
I936
sS'threatening'
p2486
I3521
sS'least'
p2487
I271
sS'tradition'
p2488
I1809
sS'intense'
p2489
I2410
sS'acknowledgment'
p2490
I2334
sS'regulation'
p2491
I1513
sS'station'
p2492
I103
sS'expand'
p2493
I2449
sS'statement'
p2494
I3046
sS'wildlife'
p2495
I3072
sS'scheme'
p2496
I231
sS'challenge'
p2497
I2994
sS'recovered'
p2498
I2158
sS'shifted'
p2499
I1480
sS'imperfect'
p2500
I2320
sS'option'
p2501
I3008
sS'relationship'
p2502
I335
sS'trapped'
p2503
I3869
sS'helpful'
p2504
I2646
sS'mentality'
p2505
I1345
sS'immediate'
p2506
I1848
sS'obsolete'
p2507
I2712
sS'appreciation'
p2508
I1474
sS'part'
p2509
I347
sS'favorable'
p2510
I1097
sS'doctors'
p2511
I1937
sS'focusing'
p2512
I3328
sS'imposing'
p2513
I3149
sS'believe'
p2514
I2234
sS'ecotourism'
p2515
I2867
sS'analgesia'
p2516
I3404
sS'std'
p2517
I3362
sS'financing'
p2518
I2136
sS'assaulted'
p2519
I2954
sS'iranian'
p2520
I3120
sS'double'
p2521
I860
sS'intermittent'
p2522
I2845
sS'sti'
p2523
I3561
sS'aims'
p2524
I1092
sS'finances'
p2525
I3772
sS'youth'
p2526
I300
sS'determined'
p2527
I2950
sS'contrary'
p2528
I1840
sS'risks'
p2529
I871
sS'toward'
p2530
I1028
sS'treated'
p2531
I1042
sS'kilometers'
p2532
I3123
sS'risky'
p2533
I3340
sS'motivation'
p2534
I685
sS'obstacles'
p2535
I1101
sS'minds'
p2536
I3613
sS'contraception'
p2537
I208
sS'imports'
p2538
I2849
sS'organisations'
p2539
I3742
sS'defect'
p2540
I4152
sS'affirmative'
p2541
I33
sS'relieve'
p2542
I2641
sS'substantial'
p2543
I2016
sS'servitude'
p2544
I2487
sS'categorized'
p2545
I3634
sS'pipelines'
p2546
I3060
sS'concentration'
p2547
I3219
sS'vulnerable'
p2548
I2036
sS'lie'
p2549
I4108
sS'built'
p2550
I2008
sS'zero'
p2551
I2841
sS'refute'
p2552
I2284
sS'self'
p2553
I2945
sS'interferes'
p2554
I3453
sS'accountable'
p2555
I1796
sS'reliance'
p2556
I2196
sS'majority'
p2557
I1019
sS'costs'
p2558
I720
sS'build'
p2559
I144
sS'genetically'
p2560
I4116
sS'donor'
p2561
I2069
sS'passively'
p2562
I3863
sS'play'
p2563
I346
sS'towards'
p2564
I63
sS'critics'
p2565
I1932
sS'serve'
p2566
I1688
sS'victim'
p2567
I2966
sS'measures'
p2568
I131
sS'reach'
p2569
I2050
sS'quota'
p2570
I1145
sS'exempted'
p2571
I1706
sS'most'
p2572
I198
sS'sponsored'
p2573
I1041
sS'plan'
p2574
I3588
sS'significant'
p2575
I698
sS'dynamic'
p2576
I3508
sS'services'
p2577
I1655
sS'accepting'
p2578
I1459
sS'infrastructures'
p2579
I2571
sS'extremely'
p2580
I794
sS'approved'
p2581
I1953
sS'achievement'
p2582
I684
sS'intervenes'
p2583
I1194
sS'reward'
p2584
I2699
sS'unequal'
p2585
I1470
sS'dealers'
p2586
I2128
sS'confers'
p2587
I3365
sS'unsupervised'
p2588
I2002
sS'clear'
p2589
I1249
sS'sometimes'
p2590
I141
sS'cover'
p2591
I1642
sS'unreasonable'
p2592
I2714
sS'devalue'
p2593
I2375
sS'traditional'
p2594
I1827
sS'bodies'
p2595
I778
sS'clean'
p2596
I2833
sS'hindrance'
p2597
I3718
sS'warming'
p2598
I3479
sS'weigh'
p2599
I3419
sS'fetal'
p2600
I1941
sS'blend'
p2601
I1377
sS'institutions'
p2602
I1661
sS'sector'
p2603
I2560
sS'particularly'
p2604
I3275
sS'monopolise'
p2605
I3795
sS'obligations'
p2606
I2428
sS'commissions'
p2607
I1226
sS'industrialized'
p2608
I2603
sS'authors'
p2609
I2718
sS'celebrities'
p2610
I1817
sS'norms'
p2611
I4125
sS'businesses'
p2612
I1871
sS'expressed'
p2613
I3724
sS'entity'
p2614
I2305
sS'stores'
p2615
I2135
sS'degraded'
p2616
I3488
sS'hereditary'
p2617
I1790
sS'find'
p2618
I1744
sS'dilation'
p2619
I1943
sS'impact'
p2620
I1134
sS'indicator'
p2621
I3104
sS'stifle'
p2622
I2739
sS'regulations'
p2623
I450
sS'delinquent'
p2624
I4104
sS'copyright'
p2625
I2703
sS'justice'
p2626
I2089
sS'firefighters'
p2627
I3903
sS'heavily'
p2628
I1511
sS'distributed'
p2629
I2760
sS'incidence'
p2630
I3292
sS'technologically'
p2631
I3048
sS'failed'
p2632
I1279
sS'dysfunctional'
p2633
I1633
sS'factor'
p2634
I1152
sS'override'
p2635
I1898
sS'harmed'
p2636
I2551
sS'?'
I4156
sS'his'
p2637
I702
sS'dominant'
p2638
I1038
sS'gains'
p2639
I3490
sS'hiv'
p2640
I3355
sS'dependent'
p2641
I2575
sS'slandering'
p2642
I4012
sS'banned'
p2643
I15
sS'express'
p2644
I1284
sS'trees'
p2645
I3469
sS'informants'
p2646
I1689
sS'remedy'
p2647
I2532
sS'grew'
p2648
I3911
sS'valuable'
p2649
I1370
sS'theft'
p2650
I1553
sS'shared'
p2651
I3929
sS'during'
p2652
I1032
sS'intensify'
p2653
I2071
sS'unrestricted'
p2654
I2761
sS'target'
p2655
I3814
sS'militants'
p2656
I3890
sS'enemy'
p2657
I1785
sS'adulthood'
p2658
I893
sS'roles'
p2659
I2909
sS'distasteful'
p2660
I3967
sS'collapsed'
p2661
I3134
sS'violent'
p2662
I8
sS'remove'
p2663
I183
sS'moralizing'
p2664
I3313
sS'sacrifices'
p2665
I2935
sS'common'
p2666
I486
sS'inefficient'
p2667
I2032
sS'activity'
p2668
I307
sS'sustainable'
p2669
I1495
sS'consciously'
p2670
I1911
sS'proportion'
p2671
I4087
sS'inferior'
p2672
I2382
sS'set'
p2673
I1501
sS'aspect'
p2674
I3001
sS'adopt'
p2675
I3282
sS'achieved'
p2676
I558
sS'intelligence'
p2677
I385
sS'carrying'
p2678
I2947
sS'activists'
p2679
I3274
sS'<SOS>'
p2680
I0
sS'sex'
p2681
I181
sS'culture'
p2682
I980
sS'see'
p2683
I1455
sS'individual'
p2684
I378
sS'are'
p2685
I197
sS'sacred'
p2686
I3958
sS'close'
p2687
I2869
sS'disseminating'
p2688
I3976
sS'arm'
p2689
I2968
sS'locals'
p2690
I3400
sS'threats'
p2691
I2215
sS'bandwagon'
p2692
I3094
sS'distinctive'
p2693
I1382
sS'century'
p2694
I2372
sS'currently'
p2695
I3056
sS'electoral'
p2696
I2464
sS'unions'
p2697
I53
sS'smallest'
p2698
I2980
sS'various'
p2699
I439
sS'probably'
p2700
I565
sS'avoidance'
p2701
I3353
sS'conditions'
p2702
I914
sS'corruption'
p2703
I1342
sS'thrive'
p2704
I2884
sS'supposed'
p2705
I1118
sS'available'
p2706
I847
sS'breaches'
p2707
I4046
sS'recently'
p2708
I4027
sS'hardship'
p2709
I1687
sS'unconscious'
p2710
I1247
sS'targeted'
p2711
I3825
sS'commercial'
p2712
I1498
sS'attention'
p2713
I2024
sS'figurehead'
p2714
I1751
sS'poorer'
p2715
I2633
sS'peacetime'
p2716
I3723
sS'respondents'
p2717
I3081
sS'succeed'
p2718
I747
sS'turning'
p2719
I2557
sS'opposition'
p2720
I1723
sS'rarer'
p2721
I1191
sS'distinguish'
p2722
I3638
sS'okinawa'
p2723
I3376
sS'both'
p2724
I291
sS'prospects'
p2725
I2527
sS'feeling'
p2726
I1769
sS'tangible'
p2727
I426
sS'reverse'
p2728
I850
sS'secrets'
p2729
I3635
sS'powers'
p2730
I1780
sS'foreign'
p2731
I165
sS'orthodoxly'
p2732
I2434
sS'characterised'
p2733
I2188
sS'connection'
p2734
I449
sS'improves'
p2735
I904
sS'gamblers'
p2736
I1534
sS'context'
p2737
I435
sS'boxers'
p2738
I1237
sS'focused'
p2739
I4022
sS'bond'
p2740
I4124
sS'whole'
p2741
I1367
sS'finds'
p2742
I3705
sS'insurance'
p2743
I3448
sS'regulates'
p2744
I3649
sS'consume'
p2745
I2799
sS'study'
p2746
I2876
sS'supply'
p2747
I123
sS'reasons'
p2748
I2328
sS'congestion'
p2749
I1693
sS'community'
p2750
I1302
sS'newborn'
p2751
I3466
sS'agents'
p2752
I820
sS'adaptation'
p2753
I1321
sS'church'
p2754
I156
sS'creeds'
p2755
I3944
sS'doping'
p2756
I798
sS'gazas'
p2757
I3132
sS'throughout'
p2758
I2289
sS'suppressing'
p2759
I1733
sS'along'
p2760
I1742
sS'expensive'
p2761
I1797
sS'decline'
p2762
I851
sS'ensures'
p2763
I2753
sS'described'
p2764
I2975
sS'enhancements'
p2765
I844
sS'incomes'
p2766
I2090
sS'create'
p2767
I1488
sS'acceptance'
p2768
I1316
sS'political'
p2769
I1341
sS'due'
p2770
I1165
sS'whom'
p2771
I4150
sS'reduction'
p2772
I530
sS'initiation'
p2773
I3332
sS'ensured'
p2774
I838
sS'maintenance'
p2775
I1493
sS'omniscient'
p2776
I2272
sS'preventable'
p2777
I937
sS'intrusive'
p2778
I549
sS'territory'
p2779
I3156
sS'attractive'
p2780
I4100
sS'generating'
p2781
I2810
sS'referee'
p2782
I1193
sS'boy'
p2783
I3449
sS'fire'
p2784
I3850
sS'cyborg'
p2785
I843
sS'propositions'
p2786
I2230
sS'gas'
p2787
I2766
sS'gap'
p2788
I2079
sS'fund'
p2789
I229
sS'moderation'
p2790
I3141
sS'races'
p2791
I992
sS'lives'
p2792
I635
sS'representative'
p2793
I2534
sS'systematic'
p2794
I2152
sS'demand'
p2795
I1653
sS'prices'
p2796
I2046
sS'condoms'
p2797
I3553
sS'towns'
p2798
I3889
sS'heighten'
p2799
I2445
sS'plants'
p2800
I3501
sS'replaces'
p2801
I1110
sS'conception'
p2802
I1904
sS'reliable'
p2803
I2812
sS'tolerate'
p2804
I1477
sS'holocaust'
p2805
I242
sS'recall'
p2806
I4145
sS'medically'
p2807
I1936
sS'while'
p2808
I1896
sS'sexuality'
p2809
I739
sS'pressed'
p2810
I2285
sS'behavior'
p2811
I283
sS'endanger'
p2812
I3640
sS'fundamentally'
p2813
I2477
sS'grip'
p2814
I3142
sS'casino'
p2815
I1571
sS'costly'
p2816
I2469
sS'hoping'
p2817
I3089
sS'voters'
p2818
I97
sS'guilty'
p2819
I3833
sS'binding'
p2820
I2431
sS'rip'
p2821
I4128
sS'rulers'
p2822
I3038
sS'obstacle'
p2823
I623
sS'unproportionally'
p2824
I3872
sS'ready'
p2825
I3805
sS'rid'
p2826
I2194
sS'south'
p2827
I3821
sS'fairer'
p2828
I1418
sS'ethnicity'
p2829
I1385
sS'antidiscrimination'
p2830
I1035
sS'strikes'
p2831
I3819
sS'justification'
p2832
I2441
sS'paying'
p2833
I2937
sS'lengths'
p2834
I1641
sS'belong'
p2835
I1006
sS'port'
p2836
I3121
sS'emphasize'
p2837
I1479
sS'widely'
p2838
I2094
sS'peoples'
p2839
I1395
sS'wasteland'
p2840
I3477
sS'products'
p2841
I2596
sS'advise'
p2842
I1215
sS'dozen'
p2843
I3122
sS'conflict'
p2844
I1406
sS'higher'
p2845
I658
sS'development'
p2846
I571
sS'used'
p2847
I629
sS'temporary'
p2848
I272
sS'tower'
p2849
I3913
sS'affairs'
p2850
I4153
sS'comprehensive'
p2851
I3297
sS'painless'
p2852
I1615
sS'flows'
p2853
I3636
sS'levels'
p2854
I1724
sS'uses'
p2855
I2769
sS'purpose'
p2856
I1874
sS'necessity'
p2857
I2822
sS'aggregate'
p2858
I1652
sS'yuan'
p2859
I1979
sS'focal'
p2860
I1808
sS'lower'
p2861
I2076
sS'task'
p2862
I3290
sS'bonds'
p2863
I4112
sS'older'
p2864
I584
sS'halve'
p2865
I3489
sS'anybody'
p2866
I876
sS'person'
p2867
I496
sS'presumptively'
p2868
I451
sS'regulating'
p2869
I2155
sS'patents'
p2870
I2678
sS'consistency'
p2871
I2287
sS'organization'
p2872
I3180
sS'chemistry'
p2873
I1532
sS'spend'
p2874
I1645
sS'prevention'
p2875
I817
sS'authoritatively'
p2876
I2332
sS'fbs'
p2877
I4076
sS'presume'
p2878
I3323
sS'reliant'
p2879
I2892
sS'settlements'
p2880
I1884
sS'competitive'
p2881
I827
sS'quarters'
p2882
I2482
sS'okinawans'
p2883
I3398
sS'intervals'
p2884
I2807
sS'questions'
p2885
I3648
sS'world'
p2886
I277
sS'regardless'
p2887
I1700
sS'alternative'
p2888
I1638
sS'fornication'
p2889
I3572
sS'injuries'
p2890
I1234
sS'uselessly'
p2891
I2579
sS'timber'
p2892
I3505
sS'profitable'
p2893
I2156
sS'impetus'
p2894
I1087
sS'retirement'
p2895
I588
sS'morals'
p2896
I2354
sS'also'
p2897
I362
sS'reap'
p2898
I4035
sS'workers'
p2899
I1861
sS'guaranteed'
p2900
I2724
sS'recommended'
p2901
I3555
sS'exclusively'
p2902
I3368
sS'source'
p2903
I1830
sS'governmental'
p2904
I3239
sS'causing'
p2905
I441
sS'deliberately'
p2906
I1365
sS'questioned'
p2907
I670
sS'problematic'
p2908
I2589
sS'circumcision'
p2909
I189
sS'violations'
p2910
I2489
sS'impoverished'
p2911
I2103
sS'remaining'
p2912
I2913
sS'conscription'
p2913
I2470
sS'associations'
p2914
I1259
sS'apartment'
p2915
I3893
sS'manage'
p2916
I2055
sS'motivating'
p2917
I2335
sS'constitutions'
p2918
I1837
sS'adversaries'
p2919
I3375
sS'demands'
p2920
I1783
sS'conformed'
p2921
I3184
sS'discriminatory'
p2922
I3739
sS'unlimited'
p2923
I3698
sS'matters'
p2924
I738
sS'suffering'
p2925
I365
sS'geneva'
p2926
I3170
sS'clout'
p2927
I2119
sS'ecosystems'
p2928
I2890
sS'entrenched'
p2929
I4142
sS'projects'
p2930
I2792
sS'formal'
p2931
I1818
sS'traffickers'
p2932
I2137
sS'knock'
p2933
I1200
sS'outright'
p2934
I816
sS'imposed'
p2935
I3136
sS'cognitive'
p2936
I958
sS'shaped'
p2937
I3445
sS'systematically'
p2938
I2337
sS'follows'
p2939
I2427
sS'multicultural'
p2940
I1328
sS'translates'
p2941
I2097
sS'consensus'
p2942
I1425
sS'deleterious'
p2943
I2588
sS'individuals'
p2944
I1149
sS'unstable'
p2945
I2609
sS'popular'
p2946
I1596
sS'tribes'
p2947
I3531
sS'nominees'
p2948
I3544
sS'disorder'
p2949
I1538
sS'essential'
p2950
I1281
sS'logically'
p2951
I2306
sS'often'
p2952
I797
sS'absolutely'
p2953
I2528
sS'unenforced'
p2954
I785
sS'creation'
p2955
I161
sS'some'
p2956
I285
sS'back'
p2957
I1061
sS'underdeveloped'
p2958
I2584
sS'martial'
p2959
I857
sS'strongest'
p2960
I1304
sS'economic'
p2961
I528
sS'pricing'
p2962
I1868
sS'nuclearization'
p2963
I3803
sS'amicable'
p2964
I1883
sS'gradually'
p2965
I1208
sS'scale'
p2966
I1350
sS'aerobic'
p2967
I911
sS'affects'
p2968
I3412
sS'decision'
p2969
I461
sS'shall'
p2970
I3710
sS'compounds'
p2971
I3667
sS'integration'
p2972
I1319
sS'per'
p2973
I642
sS'firearm'
p2974
I2972
sS'conditionally'
p2975
I2598
sS'religion'
p2976
I2237
sS'behave'
p2977
I2398
sS'eliminate'
p2978
I985
sS'prosecuted'
p2979
I1855
sS'innovation'
p2980
I662
sS'fragments'
p2981
I1296
sS'inclination'
p2982
I3621
sS'be'
p2983
I14
sS'inconvenience'
p2984
I2455
sS'run'
p2985
I1568
sS'overexploitation'
p2986
I3524
sS'erogenous'
p2987
I3451
sS'dictates'
p2988
I2536
sS'obscures'
p2989
I1349
sS'confidence'
p2990
I1414
sS'step'
p2991
I1759
sS'viewpoints'
p2992
I4007
sS'concealed'
p2993
I2942
sS'lasts'
p2994
I2628
sS'served'
p2995
I2737
sS'lottery'
p2996
I1569
sS'by'
p2997
I51
sS'wealth'
p2998
I2092
sS'faith'
p2999
I2336
sS'pipeline'
p3000
I147
sS'goods'
p3001
I1654
sS'blockaded'
p3002
I3190
sS'anything'
p3003
I3615
sS'soft'
p3004
I4028
sS'monarchical'
p3005
I1778
sS'firing'
p3006
I3847
sS'ceremonial'
p3007
I1750
sS'deserves'
p3008
I3866
sS'range'
p3009
I869
sS'regular'
p3010
I898
sS'militia'
p3011
I2952
sS'idf'
p3012
I3817
sS'experiences'
p3013
I2027
sS'hatred'
p3014
I3970
sS'block'
p3015
I2465
sS'pollution'
p3016
I2790
sS'credible'
p3017
I2329
sS'disclosure'
p3018
I2742
sS'conserving'
p3019
I2916
sS'letter'
p3020
I3962
sS'terrorists'
p3021
I2201
sS'into'
p3022
I744
sS'within'
p3023
I510
sS'integral'
p3024
I2874
sS'nothing'
p3025
I2298
sS'appropriate'
p3026
I457
sS'controversies'
p3027
I4085
sS'primarily'
p3028
I1024
sS'conscientious'
p3029
I2472
sS'contributor'
p3030
I3071
sS'bankruptcy'
p3031
I1650
sS'realisation'
p3032
I3287
sS'wrongs'
p3033
I1112
sS'propel'
p3034
I4074
sS'blockades'
p3035
I3178
sS'spending'
p3036
I2120
sS'exposed'
p3037
I3516
sS'question'
p3038
I1131
sS'specifically'
p3039
I354
sS'accountability'
p3040
I1782
sS'atheists'
p3041
I2233
sS'vendors'
p3042
I3775
sS'infected'
p3043
I3558
sS'heritage'
p3044
I1376
sS'conceivable'
p3045
I4053
sS'opponent'
p3046
I1266
sS'fragmented'
p3047
I2682
sS'withholding'
p3048
I3625
sS'himself'
p3049
I1245
sS'elsewhere'
p3050
I3617
sS'jewish'
p3051
I1499
sS'registered'
p3052
I2977
sS'anywhere'
p3053
I3288
sS'immigration'
p3054
I1320
sS'archaic'
p3055
I1798
sS'properly'
p3056
I2543
sS'link'
p3057
I304
sS'repeatedly'
p3058
I3092
sS'forbidding'
p3059
I205
sS'line'
p3060
I2958
sS'active'
p3061
I964
sS'considerable'
p3062
I2519
sS'raising'
p3063
I209
sS'directed'
p3064
I2544
sS'persisting'
p3065
I1469
sS'consist'
p3066
I1678
sS'characteristic'
p3067
I1095
sS'up'
p3068
I1305
sS'us'
p3069
I82
sS'historically'
p3070
I3102
sS'planet'
p3071
I3063
sS'maturity'
p3072
I2513
sS'slander'
p3073
I3737
sS'growth'
p3074
I529
sS'accustomed'
p3075
I3580
sS'uk'
p3076
I164
sS'desire'
p3077
I3608
sS'similar'
p3078
I1541
sS'called'
p3079
I1260
sS'humanitarian'
p3080
I1686
sS'associated'
p3081
I309
sS'adults'
p3082
I327
sS'bureaucracy'
p3083
I2986
sS'defined'
p3084
I1702
sS'unsociable'
p3085
I3921
sS'influence'
p3086
I373
sS'consigned'
p3087
I2420
sS'globally'
p3088
I951
sS'divisive'
p3089
I1347
sS'single'
p3090
I592
sS'diverse'
p3091
I1301
sS'organizational'
p3092
I2217
sS'multiculturalist'
p3093
I1388
sS'denying'
p3094
I2247
sS'predictability'
p3095
I2774
sS'divine'
p3096
I2261
sS'amounts'
p3097
I1583
sS'inequities'
p3098
I1168
sS'prerogative'
p3099
I1779
sS'cohesive'
p3100
I1127
sS'backs'
p3101
I3206
sS'invalid'
p3102
I452
sS'preventing'
p3103
I2222
sS'application'
p3104
I1698
sS'politicians'
p3105
I1807
sS'reputation'
p3106
I3912
sS'electrical'
p3107
I2782
sS'transport'
p3108
I3074
sS'income'
p3109
I1529
sS'irreplaceable'
p3110
I2887
sS'accept'
p3111
I3864
sS'explaining'
p3112
I2369
sS'elements'
p3113
I1306
sS'users'
p3114
I870
sS'reportedly'
p3115
I2006
sS'provided'
p3116
I1722
sS'problems'
p3117
I488
sS'prepared'
p3118
I1663
sS'helping'
p3119
I526
sS'generated'
p3120
I1574
sS'restoration'
p3121
I3031
sS'allowing'
p3122
I2672
sS'armed'
p3123
I2521
sS'restrained'
p3124
I3744
sS'structure'
p3125
I709
sS'feasible'
p3126
I2733
sS'independently'
p3127
I3255
sS'deterrence'
p3128
I2197
sS'implies'
p3129
I2240
sS'disbelief'
p3130
I2232
sS'reasoned'
p3131
I3247
sS'organism'
p3132
I2897
sS'age'
p3133
I212
sS'required'
p3134
I1250
sS'turbines'
p3135
I2798
sS'attacking'
p3136
I2205
sS'federally'
p3137
I2613
sS'correlates'
p3138
I275
sS'presenting'
p3139
I2453
sS'teachings'
p3140
I2352
sS'menace'
p3141
I3789
sS'requires'
p3142
I982
sS'having'
p3143
I701
sS'once'
p3144
I845
sS'inflates'
p3145
I2920
sS'minors'
p3146
I12
sS'restraining'
p3147
I4031
sS'results'
p3148
I328
sS'existing'
p3149
I1729
sS'alien'
p3150
I1725
sS'farms'
p3151
I2795
sS'broader'
p3152
I3298
sS'go'
p3153
I930
sS'contributions'
p3154
I2615
sS'issues'
p3155
I649
sS'gases'
p3156
I2835
sS'breached'
p3157
I3811
sS'animal'
p3158
I3510
sS'dissidents'
p3159
I3969
sS'young'
p3160
I326
sS'send'
p3161
I3783
sS'suits'
p3162
I765
sS'critical'
p3163
I1409
sS'helps'
p3164
I540
sS'excluded'
p3165
I355
sS'stable'
p3166
I621
sS'discretion'
p3167
I3437
sS'dislike'
p3168
I1821
sS'women'
p3169
I544
sS'fairness'
p3170
I2535
sS'resources'
p3171
I600
sS'brigade'
p3172
I3924
sS'restricting'
p3173
I3728
sS'mainstream'
p3174
I3278
sS'continues'
p3175
I1172
sS'valued'
p3176
I1441
sS'chooses'
p3177
I3211
sS'continued'
p3178
I569
sS'entire'
p3179
I2463
sS'recreation'
p3180
I1526
sS'eased'
p3181
I3112
sS'transmission'
p3182
I1275
sS'gender'
p3183
I520
sS'marry'
p3184
I1972
sS'sanctions'
p3185
I3013
sS'anachronistic'
p3186
I2523
sS'fewer'
p3187
I686
sS'try'
p3188
I3082
sS'race'
p3189
I1048
sS'catastrophes'
p3190
I1402
sS'polling'
p3191
I102
sS'avoiding'
p3192
I3244
sS'comprise'
p3193
I1450
sS'obesity'
p3194
I905
sS'enforce'
p3195
I264
sS'solutions'
p3196
I2562
sS'limitations'
p3197
I3732
sS'smaller'
p3198
I2800
sS'compensated'
p3199
I2654
sS'bleeding'
p3200
I3462
sS'recruitment'
p3201
I2515
sS'imply'
p3202
I3325
sS'video'
p3203
I9
sS'premarital'
p3204
I3321
sS'makers'
p3205
I2931
sS'depression'
p3206
I920
sS'curricula'
p3207
I3327
sS'universities'
p3208
I163
sS'reconciliation'
p3209
I1075
sS'plays'
p3210
I945
sS'business'
p3211
I1598
sS'saw'
p3212
I3914
sS'reaching'
p3213
I3118
sS'exacerbate'
p3214
I1609
sS'availability'
p3215
I1720
sS'access'
p3216
I2044
sS'consistently'
p3217
I2932
sS'punishment'
p3218
I3113
sS'costing'
p3219
I2815
sS'referees'
p3220
I1220
sS'renders'
p3221
I2252
sS'exercise'
p3222
I899
sS'body'
p3223
I1921
sS'completion'
p3224
I3062
sS'nominee'
p3225
I3534
sS'proliferation'
p3226
I2175
sS'led'
p3227
I749
sS'degree'
p3228
I414
sS'exchange'
p3229
I3499
sS'spacing'
p3230
I555
sS'sins'
p3231
I3592
sS'highly'
p3232
I1924
sS'desired'
p3233
I631
sS'poverty'
p3234
I638
sS'separation'
p3235
I3231
sS'others'
p3236
I773
sS'consideration'
p3237
I1031
sS'safer'
p3238
I1935
sS'implicit'
p3239
I3788
sS'extreme'
p3240
I605
sS'great'
p3241
I524
sS'biodiversity'
p3242
I1364
sS'receive'
p3243
I590
sS'involved'
p3244
I695
sS'guarantor'
p3245
I1805
sS'larger'
p3246
I644
sS'leaving'
p3247
I211
sS'suggests'
p3248
I2432
sS'resulting'
p3249
I2343
sS'opinion'
p3250
I148
sS'implement'
p3251
I256
sS'breeds'
p3252
I2099
sS'makes'
p3253
I1398
sS'delays'
p3254
I2997
sS'involves'
p3255
I1530
sS'balances'
p3256
I1832
sS'danger'
p3257
I786
sS'forbid'
p3258
I2946
sS'win'
p3259
I1548
sS'terrified'
p3260
I1679
sS'impedes'
p3261
I2991
sS'private'
p3262
I162
sS'outcomes'
p3263
I3339
sS'improbable'
p3264
I2389
sS'sovereignty'
p3265
I3602
sS'decrease'
p3266
I697
sS'frighten'
p3267
I2256
sS'contracting'
p3268
I3366
sS'tools'
p3269
I2043
sS'manipulate'
p3270
I3083
sS'penalty'
p3271
I3181
sS'use'
p3272
I22
sS'from'
p3273
I87
sS'consumption'
p3274
I437
sS'freedoms'
p3275
I1082
sS'remains'
p3276
I1099
sS'illegal'
p3277
I866
sS'next'
p3278
I1757
sS'distinctiveness'
p3279
I1396
sS'few'
p3280
I2566
sS'doubt'
p3281
I653
sS'constitutionally'
p3282
I4055
sS'themselves'
p3283
I1021
sS'stage'
p3284
I1697
sS'start'
p3285
I2425
sS'possession'
p3286
I2951
sS'gained'
p3287
I2570
sS'formally'
p3288
I4038
sS'journalists'
p3289
I173
sS'engender'
p3290
I1122
sS'comparison'
p3291
I2353
sS'started'
p3292
I722
sS'becomes'
p3293
I2574
sS'inclined'
p3294
I2949
sS'equity'
p3295
I1315
sS'heir'
p3296
I1792
sS'occurred'
p3297
I728
sS'infection'
p3298
I3356
sS'cooperate'
p3299
I681
sS'supplying'
p3300
I3173
sS'train'
p3301
I316
sS'israelis'
p3302
I3840
sS'penis'
p3303
I3458
sS'lifestyle'
p3304
I944
sS'rivalry'
p3305
I4073
sS'charity'
p3306
I589
sS'nominations'
p3307
I3545
sS'account'
p3308
I745
sS'animals'
p3309
I2911
sS'integrating'
p3310
I2846
sS'this'
p3311
I1
sS'athlete'
p3312
I1263
sS'accrues'
p3313
I1473
sS'theistic'
p3314
I2374
sS'universe'
p3315
I2269
sS'meet'
p3316
I734
sS'nurture'
p3317
I3259
sS'disabilities'
p3318
I2025
sS'proof'
p3319
I2327
sS'control'
p3320
I539
sS'borrowed'
p3321
I2936
sS'superobserver'
p3322
I2273
sS'paralysis'
p3323
I1213
sS'prohibiting'
p3324
I2691
sS'distortions'
p3325
I2999
sS'process'
p3326
I151
sS'favorite'
p3327
I3539
sS'proportions'
p3328
I950
sS'tax'
p3329
I1564
sS'purposes'
p3330
I3751
sS'bloc'
p3331
I4021
sS'high'
p3332
I237
sS'effectively'
p3333
I2503
sS'atheistic'
p3334
I2283
sS'something'
p3335
I2400
sS'contempt'
p3336
I3745
sS'weaken'
p3337
I128
sS'educational'
p3338
I1980
sS'united'
p3339
I76
sS'varied'
p3340
I1651
sS'hinders'
p3341
I1109
sS'boxing'
p3342
I36
sS'negation'
p3343
I2243
sS'fortunate'
p3344
I1018
sS'delay'
p3345
I554
sS'reinstated'
p3346
I2481
sS'responsibilities'
p3347
I1346
sS'winners'
p3348
I1619
sS'sentiments'
p3349
I3715
sS'forest'
p3350
I3487
sS'responsibility'
p3351
I733
sS'justifiably'
p3352
I3689
sS'instead'
p3353
I1770
sS'native'
p3354
I1732
sS'immoral'
p3355
I1925
sS'secular'
p3356
I3348
sS'stock'
p3357
I2629
sS'tension'
p3358
I1014
sS'buildings'
p3359
I3894
sS'blocks'
p3360
I3905
sS'attend'
p3361
I2011
sS'farm'
p3362
I2828
sS'functioned'
p3363
I3779
sS'philosophy'
p3364
I2371
sS'tied'
p3365
I2599
sS'halted'
p3366
I1240
sS'mixed'
p3367
I2490
sS'abuse'
p3368
I192
sS'leisure'
p3369
I1601
sS'ethnic'
p3370
I1166
sS'npt'
p3371
I2225
sS'solidarity'
p3372
I2715
sS'efficiently'
p3373
I2058
sS'readiness'
p3374
I4118
sS'realized'
p3375
I1068
sS'majorities'
p3376
I1464
sS'purely'
p3377
I2227
sS'democracy'
p3378
I1327
sS'bcs'
p3379
I4066
sS'light'
p3380
I2324
sS'counter'
p3381
I3277
sS'windpower'
p3382
I2808
sS'commodities'
p3383
I2045
sS'allow'
p3384
I482
sS'aviv'
p3385
I3125
sS'furious'
p3386
I3221
sS'addiction'
p3387
I442
sS'tactical'
p3388
I3626
sS'justifiable'
p3389
I1947
sS'closely'
p3390
I3091
sS'sanctioned'
p3391
I1257
sS'produces'
p3392
I1865
sS'minimising'
p3393
I4010
sS'altogether'
p3394
I3128
sS'disarm'
p3395
I2948
sS'outset'
p3396
I3324
sS'interpreted'
p3397
I3571
sS'produced'
p3398
I872
sS'offences'
p3399
I1856
sS'own'
p3400
I581
sS'including'
p3401
I551
sS'lifeblood'
p3402
I3740
sS'electors'
p3403
I3086
sS'facilitates'
p3404
I1882
sS'boosts'
p3405
I900
sS'childrens'
p3406
I3442
sS'perfect'
p3407
I2314
sS'superior'
p3408
I2257
sS'decay'
p3409
I3918
sS'chosen'
p3410
I1003
sS'varies'
p3411
I2829
sS'winning'
p3412
I1617
sS'resorting'
p3413
I3002
sS'permanent'
p3414
I1209
sS'choose'
p3415
I880
sS'criminal'
p3416
I244
sS'desensitization'
p3417
I494
sS'physicians'
p3418
I1214
sS'violating'
p3419
I577
sS'greater'
p3420
I134
sS'later'
p3421
I2526
sS'richness'
p3422
I2877
sS'existences'
p3423
I2404
sS'repercussions'
p3424
I3650
sS'practice'
p3425
I576
sS'hate'
p3426
I3736
sS'commitment'
p3427
I3050
sS'disrupted'
p3428
I3885
sS'resolve'
p3429
I1140
sS'hands'
p3430
I2202
sS'garner'
p3431
I4155
sS'day'
p3432
I811
sS'applicants'
p3433
I1177
sS'worlds'
p3434
I1671
sS'relax'
p3435
I1991
sS'hallmarks'
p3436
I3882
sS'intelligent'
p3437
I2280
sS'university'
p3438
I3256
sS'traced'
p3439
I2131
sS'identified'
p3440
I2274
sS'sin'
p3441
I3564
sS'sufficiently'
p3442
I2630
sS'transmitted'
p3443
I3337
sS'truth'
p3444
I3980
sS'shortage'
p3445
I1983
sS'rising'
p3446
I3670
sS'expressly'
p3447
I3600
sS'experienced'
p3448
I3916
sS'reproducing'
p3449
I2692
sS'homogeneous'
p3450
I1423
sS'attachments'
p3451
I1438
sS'doing'
p3452
I3839
sS'wood'
p3453
I3492
sS'globe'
p3454
I3520
sS'strip'
p3455
I3108
sS'ills'
p3456
I675
sS'related'
p3457
I280
sS'retaliation'
p3458
I2212
sS'constitute'
p3459
I3435
sS'society'
p3460
I713
sS'books'
p3461
I2359
sS'sands'
p3462
I3064
sS'firepower'
p3463
I3853
sS'measure'
p3464
I1891
sS'separating'
p3465
I1384
sS'our'
p3466
I2483
sS'programmes'
p3467
I793
sS'agriculture'
p3468
I2593
sS'witness'
p3469
I467
sS'out'
p3470
I483
sS'respects'
p3471
I3285
sS'omnipotent'
p3472
I2304
sS'sentiment'
p3473
I3951
sS'entertainment'
p3474
I422
sS'defend'
p3475
I1244
sS'unlawful'
p3476
I3842
sS'acutest'
p3477
I4011
sS'wholly'
p3478
I2408
sS'strokes'
p3479
I1212
sS'behaviours'
p3480
I3341
sS'theists'
p3481
I2440
sS'cause'
p3482
I401
sS'affirming'
p3483
I1468
sS'statist'
p3484
I2488
sS'achievements'
p3485
I1114
sS'classification'
p3486
I3639
sS'logistic'
p3487
I3389
sS'main'
p3488
I4123
sS'maintains'
p3489
I3385
sS'release'
p3490
I2825
sS'completely'
p3491
I3161
sS'vacations'
p3492
I2020
sS'latest'
p3493
I3808
sS'conflicts'
p3494
I1314
sS'delinquency'
p3495
I4097
sS'likelihood'
p3496
I2178
sS'organ'
p3497
I3432
sS'quo'
p3498
I3099
sS'repairing'
p3499
I2914
sS'deforestation'
p3500
I3478
sS'farmland'
p3501
I3660
sS'mainland'
p3502
I717
sS'hostile'
p3503
I1484
sS'sustainability'
p3504
I3522
sS'biosphere'
p3505
I3485
sS'determining'
p3506
I1151
sS'could'
p3507
I557
sS'scars'
p3508
I807
sS'diminished'
p3509
I1332
sS'count'
p3510
I3804
sS'keep'
p3511
I1546
sS'removing'
p3512
I4132
sS'diminishes'
p3513
I754
sS'facilitate'
p3514
I1624
sS'desertification'
p3515
I3509
sS'deprives'
p3516
I1923
sS'mankind'
p3517
I2246
sS'embryo'
p3518
I1916
sS'unwanted'
p3519
I3304
sS'govern'
p3520
I3416
sS'succeeds'
p3521
I2386
sS'powerful'
p3522
I1876
sS'reaches'
p3523
I3984
sS'strategic'
p3524
I3388
sS'engenders'
p3525
I2889
sS'facie'
p3526
I2293
sS'reached'
p3527
I948
sS'blows'
p3528
I1205
sS'precisely'
p3529
I1462
sS'quality'
p3530
I751
sS'owning'
p3531
I2695
sS'destinations'
p3532
I2154
sS'legislative'
p3533
I268
sS'destructive'
p3534
I3798
sS'fair'
p3535
I2664
sS'uniting'
p3536
I1443
sS'flourish'
p3537
I2893
sS'extrinsic'
p3538
I2885
sS'creator'
p3539
I2278
sS'system'
p3540
I902
sS'relations'
p3541
I2073
sS'grow'
p3542
I3622
sS'their'
p3543
I112
sS'attack'
p3544
I2169
sS'inalienable'
p3545
I2944
sS'declines'
p3546
I1997
sS'perfectly'
p3547
I3444
sS'final'
p3548
I1052
sS'painful'
p3549
I3408
sS'futile'
p3550
I3029
sS'interests'
p3551
I743
sS'enforcement'
p3552
I2666
sS'stars'
p3553
I254
sS'unscrupulous'
p3554
I3006
sS'explanation'
p3555
I2402
sS'acquire'
p3556
I1730
sS'israeli'
p3557
I3109
sS'environmental'
p3558
I2785
sS'manipulation'
p3559
I3546
sS'diminish'
p3560
I984
sS'institution'
p3561
I1815
sS'catered'
p3562
I1457
sS'warfare'
p3563
I2171
sS'collectively'
p3564
I1857
sS'objectionable'
p3565
I3322
sS'lawful'
p3566
I3179
sS'aspiration'
p3567
I1786
sS'richer'
p3568
I2632
sS'discriminating'
p3569
I1000
sS'asean'
p3570
I251
sS'defense'
p3571
I2511
sS'disband'
p3572
I250
sS'bind'
p3573
I3225
sS'negatively'
p3574
I392
sS'providing'
p3575
I1386
sS'migration'
p3576
I1721
sS'behaviors'
p3577
I429
sS'imaginative'
p3578
I421
sS'xenophobia'
p3579
I3971
sS'teenagers'
p3580
I382
sS'deterred'
p3581
I2963
sS'corrupt'
p3582
I1626
sS'callings'
p3583
I3164
sS'variable'
p3584
I2773
sS'unlikely'
p3585
I746
sS'have'
p3586
I233
sS'need'
p3587
I741
sS'demonstration'
p3588
I2294
sS'linked'
p3589
I334
sS'viewed'
p3590
I864
sS'necessities'
p3591
I601
sS'catholic'
p3592
I204
sS'documents'
p3593
I214
sS'triggered'
p3594
I3870
sS'jurisdictions'
p3595
I1508
sS'able'
p3596
I1437
sS'incentive'
p3597
I2063
sS'.'
I4157
sS'relatives'
p3598
I596
sS'concerns'
p3599
I515
sS'incorporating'
p3600
I2778
sS'which'
p3601
I513
sS'divert'
p3602
I2685
sS'catholicism'
p3603
I3590
sS'accuracy'
p3604
I4008
sS'worldwide'
p3605
I939
sS'fuels'
p3606
I2139
sS'unless'
p3607
I2033
sS'agenda'
p3608
I4033
sS'combat'
p3609
I1272
sS'who'
p3610
I489
sS'dilute'
p3611
I3548
sS'harmful'
p3612
I344
sS'intentions'
p3613
I3085
sS'connected'
p3614
I3005
sS'amongst'
p3615
I2499
sS'device'
p3616
I3087
sS'intrinsic'
p3617
I2652
sS'class'
p3618
I979
sS'polemical'
p3619
I3987
sS'uncircumcised'
p3620
I3439
sS'statute'
p3621
I3551
sS'reduces'
p3622
I2095
sS'consequences'
p3623
I517
sS'sweeping'
p3624
I3152
sS'european'
p3625
I4001
sS'ambitions'
p3626
I1456
sS'stronger'
p3627
I3637
sS'disease'
p3628
I1276
sS'face'
p3629
I598
sS'capita'
p3630
I3938
sS'artificially'
p3631
I3673
sS'wealthier'
p3632
I4099
sS'normally'
p3633
I1150
sS'fact'
p3634
I2870
sS'gain'
p3635
I1528
sS'son'
p3636
I1986
sS'optimal'
p3637
I2643
sS'selection'
p3638
I1044
sS'chances'
p3639
I586
sS'supported'
p3640
I3349
sS'terminate'
p3641
I1949
sS'bring'
p3642
I637
sS'planning'
p3643
I614
sS'greenhouse'
p3644
I2765
sS'soldiers'
p3645
I3815
sS'fear'
p3646
I2345
sS'asylum'
p3647
I41
sS'debate'
p3648
I3248
sS'staff'
p3649
I1587
sS'partners'
p3650
I3563
sS'trying'
p3651
I2713
sS'based'
p3652
I1004
sS'knowledge'
p3653
I801
sS'housewives'
p3654
I110
sS'endangers'
p3655
I3859
sS'fans'
p3656
I4064
sS'controls'
p3657
I2218
sS'should'
p3658
I13
sS'surroundings'
p3659
I1681
sS'bases'
p3660
I185
sS'candidates'
p3661
I202
sS'procreative'
p3662
I3566
sS'inherited'
p3663
I1822
sS'fuel'
p3664
I2787
sS'marriage'
p3665
I3307
sS'partially'
p3666
I566
sS'thousands'
p3667
I1273
sS'mayors'
p3668
I249
sS'achieve'
p3669
I630
sS'vigor'
p3670
I3731
sS'jackpot'
p3671
I1618
sS'move'
p3672
I3926
sS'handle'
p3673
I1673
sS'combating'
p3674
I4002
sS'means'
p3675
I1527
sS'beat'
p3676
I3540
sS'familiar'
p3677
I1680
sS'overall'
p3678
I1056
sS'stripes'
p3679
I255
sS'bear'
p3680
I138
sS'copyrights'
p3681
I2683
sS'livelihoods'
p3682
I3855
sS'gamesencouraged'
p3683
I480
sS'legitimate'
p3684
I1639
sS'words'
p3685
I3726
sS'familial'
p3686
I708
sS'years'
p3687
I803
sS'simpler'
p3688
I2387
sS'nearly'
p3689
I1565
sS'areas'
p3690
I3486
sS'following'
p3691
I1646
sS'evolution'
p3692
I2383
sS'densities'
p3693
I3934
sS'tobacco'
p3694
I219
sS'numerous'
p3695
I500
sS'monopoly'
p3696
I2696
sS'teams'
p3697
I4080
sS'avoidable'
p3698
I3166
sS'contain'
p3699
I425
sS'disparities'
p3700
I1141
sS'generations'
p3701
I585
sS'view'
p3702
I444
sS'europe'
p3703
I127
sS'requirement'
p3704
I1494
sS'exists'
p3705
I654
sS'acquired'
p3706
I2213
sS'catastrophic'
p3707
I3465
sS'exerted'
p3708
I610
sS'correlations'
p3709
I484
sS'humans'
p3710
I403
sS'immigrant'
p3711
I1387
sS'intensity'
p3712
I4072
sS'computer'
p3713
I504
sS'merits'
p3714
I4144
sS'disagreeable'
p3715
I3706
sS'unfairly'
p3716
I2478
sS'converting'
p3717
I3514
sS'liberalization'
p3718
I2626
sS'cold'
p3719
I3928
sS'creating'
p3720
I1873
sS'exploited'
p3721
I1612
sS'imposition'
p3722
I3135
sS'reform'
p3723
I1430
sS'aspirations'
p3724
I4121
sS'nuclear'
p3725
I89
sS'criminalizing'
p3726
I1922
sS'tend'
p3727
I339
sS'favor'
p3728
I998
sS'state'
p3729
I160
sS'difficulties'
p3730
I2022
sS'identification'
p3731
I100
sS'injustice'
p3732
I1427
sS'closed'
p3733
I3249
sS'crude'
p3734
I3067
sS'progress'
p3735
I1497
sS'neither'
p3736
I2563
sS'prevailing'
p3737
I3262
sS'bought'
p3738
I2146
sS'publishers'
p3739
I314
sS'ends'
p3740
I2244
sS'sole'
p3741
I3364
sS'ability'
p3742
I404
sS'opening'
p3743
I2621
sS'importance'
p3744
I2191
sS'monarchy'
p3745
I45
sS'deliver'
p3746
I3265
sS'interfere'
p3747
I1125
sS'neonatal'
p3748
I3460
sS'efficiency'
p3749
I2075
sS'job'
p3750
I1051
sS'hypothesis'
p3751
I2381
sS'key'
p3752
I651
sS'disproportionately'
p3753
I2460
sS'rainforests'
p3754
I3498
sS'multiculturalism'
p3755
I38
sS'restrictions'
p3756
I453
sS'empathy'
p3757
I296
sS'instant'
p3758
I1605
sS'limits'
p3759
I266
sS'career'
p3760
I4134
sS'freely'
p3761
I730
sS'taking'
p3762
I1912
sS'equal'
p3763
I969
sS'drug'
p3764
I779
sS'fulfilled'
p3765
I4103
sS'etc'
p3766
I2573
sS'urging'
p3767
I2163
sS'cleanest'
p3768
I2843
sS'heart'
p3769
I3734
sS'safely'
p3770
I2180
sS'grounds'
p3771
I1104
sS'relevant'
p3772
I3245
sS'censorship'
p3773
I175
sS'conclude'
p3774
I3589
sS'allocates'
p3775
I1625
sS'coercive'
p3776
I628
sS'respect'
p3777
I1286
sS'labor'
p3778
I1669
sS'pouring'
p3779
I2618
sS'second'
p3780
I2976
sS'addition'
p3781
I1011
sS'discrimination'
p3782
I967
sS'quotas'
p3783
I1147
sS'breakdown'
p3784
I4122
sS'immense'
p3785
I3218
sS'genetic'
p3786
I842
sS'willing'
p3787
I3844
sS'slowly'
p3788
I3158
sS'treat'
p3789
I912
sS'gaza'
p3790
I155
sS'indicators'
p3791
I3992
sS'proposal'
p3792
I3778
sS'waste'
p3793
I3661
sS'universal'
p3794
I2894
sS'isolating'
p3795
I4107
sS'divinely'
p3796
I2360
sS'tyranny'
p3797
I2953
sS'arises'
p3798
I2437
sS'diversity'
p3799
I1359
sS'puberty'
p3800
I3300
sS'sufficient'
p3801
I2415
sS'overwhelmingly'
p3802
I3802
sS'climate'
p3803
I3052
sS'assert'
p3804
I2331
sS'dissemination'
p3805
I2741
sS'abortions'
p3806
I56
sS'improved'
p3807
I625
sS'fellow'
p3808
I1771
sS'unionisation'
p3809
I1878
sS'present'
p3810
I98
sS'homes'
p3811
I1557
sS'imbalance'
p3812
I521
sS'atmospheric'
p3813
I3472
sS'unlike'
p3814
I2710
sS'contexts'
p3815
I290
sS'divorce'
p3816
I3587
sS'value'
p3817
I1452
sS'promotes'
p3818
I1285
sS'will'
p3819
I891
sS'incitement'
p3820
I3966
sS'promoted'
p3821
I1453
sS'medicinal'
p3822
I2856
sS'inexpensive'
p3823
I2821
sS'ill'
p3824
I2805
sS'greatly'
p3825
I3810
sS'amenity'
p3826
I3902
sS'almost'
p3827
I1575
sS'dissent'
p3828
I3683
sS'delusion'
p3829
I2365
sS'thus'
p3830
I533
sS'disapprove'
p3831
I1505
sS'encouragement'
p3832
I2113
sS'weighed'
p3833
I2456
sS'consumes'
p3834
I2786
sS'audiences'
p3835
I3983
sS'demanded'
p3836
I3867
sS'unmarried'
p3837
I3330
sS'aggressiveness'
p3838
I499
sS'claimed'
p3839
I50
sS'minorities'
p3840
I1115
sS'conserve'
p3841
I1366
sS'halt'
p3842
I3518
sS'capture'
p3843
I2660
sS'denial'
p3844
I243
sS'productivity'
p3845
I1648
sS'sensitive'
p3846
I3456
sS'perhaps'
p3847
I2193
sS'began'
p3848
I725
sS'views'
p3849
I3550
sS'camp'
p3850
I3144
sS'member'
p3851
I4020
sS'adverse'
p3852
I1539
sS'unity'
p3853
I1354
sS'became'
p3854
I846
sS'largest'
p3855
I3070
sS'habitats'
p3856
I3500
sS'party'
p3857
I3212
sS'terrorism'
p3858
I2184
sS'privileged'
p3859
I1016
sS'difficult'
p3860
I680
sS'covenant'
p3861
I988
sS'conflicting'
p3862
I3682
sS'material'
p3863
I2211
sS'emotionally'
p3864
I322
sS'forgotten'
p3865
I1289
sS'upon'
p3866
I2067
sS'effect'
p3867
I289
sS'bullying'
p3868
I338
sS'student'
p3869
I3614
sS'frequently'
p3870
I1670
sS'indigenous'
p3871
I1394
sS'identity'
p3872
I1128
sS'destruction'
p3873
I1951
sS'broke'
p3874
I3861
sS'transaction'
p3875
I2988
sS'off'
p3876
I1990
sS'restricted'
p3877
I3703
sS'weapon'
p3878
I2185
sS'variety'
p3879
I648
sS'well'
p3880
I332
sS'fighting'
p3881
I3978
sS'thought'
p3882
I715
sS'cutting'
p3883
I2995
sS'credibility'
p3884
I3386
sS'position'
p3885
I1063
sS'creators'
p3886
I2308
sS'reintroduce'
p3887
I104
sS'stressed'
p3888
I1755
sS'restore'
p3889
I1291
sS'excessive'
p3890
I379
sS'enormously'
p3891
I2700
sS'rocket'
p3892
I3106
sS'less'
p3893
I548
sS'increasingly'
p3894
I2049
sS'offensive'
p3895
I3697
sS'accurate'
p3896
I3090
sS'slippage'
p3897
I3371
sS'domestic'
p3898
I2607
sS'inadequate'
p3899
I3213
sS'sources'
p3900
I1551
sS'underlying'
p3901
I678
sS'distant'
p3902
I371
sS'developments'
p3903
I3931
sS'protecting'
p3904
I1894
sS'happiness'
p3905
I2078
sS'soils'
p3906
I3507
sS'rapid'
p3907
I622
sS'density'
p3908
I659
sS'point'
p3909
I854
sS'demographic'
p3910
I1094
sS'sustaining'
p3911
I2667
sS'capabilities'
p3912
I2214
sS'realize'
p3913
I4096
sS'imposes'
p3914
I3990
sS'extends'
p3915
I3000
sS'nor'
p3916
I2564
sS'citizen'
p3917
I1775
sS'usage'
p3918
I306
sS'crops'
p3919
I3496
sS'enacted'
p3920
I3425
sS'warrant'
p3921
I2898
sS'irresponsible'
p3922
I3573
sS'ought'
p3923
I2317
sS'details'
p3924
I2748
sS'identical'
p3925
I1071
sS'subsidised'
p3926
I3671
sS'increased'
p3927
I310
sS'provisions'
p3928
I1129
sS'government'
p3929
I221
sS'underestimated'
p3930
I2933
sS'criminalize'
p3931
I240
sS'increases'
p3932
I1560
sS'five'
p3933
I3781
sS'whatever'
p3934
I3208
sS'burden'
p3935
I2542
sS'deployment'
p3936
I2850
sS'press'
p3937
I3654
sS'racially'
p3938
I1300
sS'loss'
p3939
I1202
sS'necessary'
p3940
I624
sS'like'
p3941
I856
sS'success'
p3942
I525
sS'safest'
p3943
I1939
sS'vibrant'
p3944
I1599
sS'unprotected'
p3945
I3562
sS'admitted'
p3946
I796
sS'loses'
p3947
I2908
sS'taxpayers'
p3948
I3675
sS'displaces'
p3949
I1148
sS'conscripts'
p3950
I2502
sS'lose'
p3951
I1323
sS'become'
p3952
I1465
sS'works'
p3953
I1312
sS'refugees'
p3954
I1666
sS'lends'
p3955
I2263
sS'amendment'
p3956
I448
sS'surest'
p3957
I3991
sS'because'
p3958
I402
sS'habitat'
p3959
I2882
sS'flagrant'
p3960
I3177
sS'phenomena'
p3961
I2341
sS'desecration'
p3962
I4041
sS'authority'
p3963
I2262
sS'redress'
p3964
I1076
sS'export'
p3965
I3504
sS'choosing'
p3966
I1179
sS'elitist'
p3967
I1762
sS'proper'
p3968
I1962
sS'home'
p3969
I2649
sS'employment'
p3970
I996
sS'recognition'
p3971
I1123
sS'happens'
p3972
I1918
sS'mitigate'
p3973
I3533
sS'contested'
p3974
I1102
sS'redistributive'
p3975
I2082
sS'encouraging'
p3976
I2592
sS'aesthetically'
p3977
I2838
sS'lead'
p3978
I469
sS'unpredictable'
p3979
I2806
sS'broad'
p3980
I3295
sS'avoid'
p3981
I1195
sS'eyesore'
p3982
I2840
sS'rewarding'
p3983
I3676
sS'does'
p3984
I471
sS'keystone'
p3985
I145
sS'economical'
p3986
I3073
sS'rockets'
p3987
I3823
sS'demonstrated'
p3988
I2101
sS'hinder'
p3989
I691
sS'noise'
p3990
I3393
sS'inaccurate'
p3991
I3361
sS'schedule'
p3992
I2010
sS'selecting'
p3993
I201
sS'monetary'
p3994
I2602
sS'expansion'
p3995
I2176
sS'educating'
p3996
I3372
sS'pressure'
p3997
I609
sS'host'
p3998
I1299
sS'conveyed'
p3999
I505
sS'prohibited'
p4000
I987
sS'inherently'
p4001
I1839
sS'offset'
p4002
I2929
sS'instinct'
p4003
I3367
sS'symbolic'
p4004
I4042
sS'adversary'
p4005
I3799
sS'preventative'
p4006
I3335
sS'refuge'
p4007
I1745
sS'raise'
p4008
I1570
sS'throne'
p4009
I1793
sS'about'
p4010
I445
sS'rare'
p4011
I1183
sS'carried'
p4012
I799
sS'getting'
p4013
I1050
sS'freedom'
p4014
I223
sS'abstinence'
p4015
I180
sS'aversive'
p4016
I673
sS'dependence'
p4017
I2062
sS'recognized'
p4018
I1442
sS'dependency'
p4019
I587
sS'carries'
p4020
I2190
sS'tighter'
p4021
I2927
sS'insufficient'
p4022
I2268
sS'introduced'
p4023
I547
sS'software'
p4024
I170
sS'burma'
p4025
I3019
sS'equally'
p4026
I916
sS'rendered'
p4027
I991
sS'unsustainable'
p4028
I193
sS'keeps'
p4029
I2160
sS'previously'
p4030
I3443
sS'creativity'
p4031
I2663
sS'warrants'
p4032
I1403
sS'stratification'
p4033
I1174
sS'domain'
p4034
I2744
sS'three'
p4035
I2007
sS'chronic'
p4036
I913
sS'guard'
p4037
I2181
sS'weather'
p4038
I2830
sS'esteem'
p4039
I3975
sS'female'
p4040
I1975
sS'artists'
p4041
I2719
sS'roads'
p4042
I2572
sS'quiet'
p4043
I3117
sS'forget'
p4044
I3581
sS'unfashionable'
p4045
I1842
sS'utility'
p4046
I419
sS'accused'
p4047
I440
sS'additional'
p4048
I2813
sS'adolescent'
p4049
I348
sS'egalitarian'
p4050
I2108
sS'empowers'
p4051
I2098
sS'housing'
p4052
I239
sS'secret'
p4053
I2746
sS'continental'
p4054
I3263
sS'intention'
p4055
I1264
sS'restricts'
p4056
I3188
sS'recognised'
p4057
I3630
sS'frustration'
p4058
I413
sS'ed'
p4059
I3311
sS'biggest'
p4060
I3664
sS'utterance'
p4061
I3719
sS'function'
p4062
I1461
sS'building'
p4063
I3051
sS'buy'
p4064
I2702
sS'insures'
p4065
I3447
sS'aircraft'
p4066
I3392
sS'funds'
p4067
I166
sS'hazardous'
p4068
I2199
sS'overbearing'
p4069
I3919
sS'but'
p4070
I432
sS'privilege'
p4071
I1823
sS'repeated'
p4072
I1204
sS'construction'
p4073
I764
sS'contradictory'
p4074
I2307
sS'goals'
p4075
I1013
sS'courts'
p4076
I3746
sS'threaten'
p4077
I3468
sS'highest'
p4078
I4105
sS'he'
p4079
I1242
sS'embargo'
p4080
I3127
sS'made'
p4081
I960
sS'places'
p4082
I2291
sS'whether'
p4083
I1948
sS'dangerous'
p4084
I795
sS'official'
p4085
I1311
sS'reinforcement'
p4086
I358
sS'imbalances'
p4087
I1077
sS'placed'
p4088
I1908
sS'intangible'
p4089
I2729
sS'limit'
p4090
I137
sS'ruling'
p4091
I978
sS'invest'
p4092
I2057
sS'imbalanced'
p4093
I60
sS'demonstrate'
p4094
I1176
sS'distribution'
p4095
I1137
sS'strengthens'
p4096
I1846
sS'advantages'
p4097
I2644
sS'supreme'
p4098
I2333
sS'begun'
p4099
I4030
sS'deaths'
p4100
I1189
sS'devise'
p4101
I3807
sS'recognize'
p4102
I405
sS'domino'
p4103
I2186
sS'contribute'
p4104
I616
sS'meaningless'
p4105
I2253
sS'slowing'
p4106
I2716
sS'consumed'
p4107
I2895
sS'education'
p4108
I31
sS'incentivize'
p4109
I3760
sS'functions'
p4110
I2238
sS'compared'
p4111
I2784
sS'contest'
p4112
I1241
sS'deadly'
p4113
I882
sS'percent'
p4114
I3657
sS'forests'
p4115
I3483
sS'adequately'
p4116
I2300
sS'other'
p4117
I351
sS'special'
p4118
I1416
sS'branch'
p4119
I269
sS'quantities'
p4120
I2848
sS'overpopulation'
p4121
I538
sS'illusion'
p4122
I2392
sS'canada'
p4123
I3061
sS'illegally'
p4124
I3647
sS'frisbee'
p4125
I887
sS'kinds'
p4126
I1188
sS'oppression'
p4127
I1463
sS'shown'
p4128
I301
sS'variation'
p4129
I1531
sS'stay'
p4130
I952
sS'inescapably'
p4131
I3729
sS'chance'
p4132
I1059
sS'weaponry'
p4133
I2203
sS'arbiter'
p4134
I1802
sS'animosity'
p4135
I1027
sS'deter'
p4136
I2204
sS'friends'
p4137
I688
sS'exposure'
p4138
I270
sS'extort'
p4139
I2698
sS'venerated'
p4140
I4045
sS'contraceptive'
p4141
I3318
sS'prevalent'
p4142
I1440
sS'attacker'
p4143
I2971
sS'space'
p4144
I3940
sS'rule'
p4145
I1186
sS'intentionally'
p4146
I3843
sS'atheism'
p4147
I91
sS'write'
p4148
I3713
sS'compete'
p4149
I1739
sS'affront'
p4150
I3977
sS'rural'
p4151
I2794
sS'accidents'
p4152
I2981
sS'indirectly'
p4153
I3765
sS'compromised'
p4154
I3956
s.