(dp1
S'limited'
p2
I3683
sS'writings'
p3
I3709
sS'suicidal'
p4
I1560
sS'barrages'
p5
I3888
sS'paralyzed'
p6
I3822
sS'desirable'
p7
I2230
sS'felt'
p8
I1940
sS'four'
p9
I707
sS'facilities'
p10
I2804
sS'protest'
p11
I4063
sS'segregation'
p12
I3766
sS'controversial'
p13
I511
sS'extinctions'
p14
I3527
sS'oldest'
p15
I599
sS'integrity'
p16
I1376
sS'aggression'
p17
I276
sS'poorly'
p18
I3465
sS'relationships'
p19
I1473
sS'whose'
p20
I1952
sS'votes'
p21
I4018
sS'euphemistic'
p22
I1469
sS'violate'
p23
I2673
sS'granting'
p24
I2709
sS'eligible'
p25
I1685
sS'physiological'
p26
I314
sS'crises'
p27
I2114
sS'bureaucrats'
p28
I457
sS'poorest'
p29
I1674
sS'contravention'
p30
I3132
sS'containing'
p31
I4113
sS'presents'
p32
I3630
sS'unionized'
p33
I1871
sS'protections'
p34
I2729
sS'whatsoever'
p35
I3618
sS'under'
p36
I448
sS'teaching'
p37
I896
sS'pride'
p38
I1415
sS'worth'
p39
I1979
sS'importation'
p40
I3211
sS'applied'
p41
I4008
sS'legislators'
p42
I4135
sS'risk'
p43
I927
sS'unpopular'
p44
I3711
sS'compassion'
p45
I2378
sS'dollar'
p46
I3055
sS'rise'
p47
I1697
sS'distort'
p48
I1729
sS'stolen'
p49
I2637
sS'every'
p50
I1578
sS'gratification'
p51
I1608
sS'reforms'
p52
I3020
sS'affect'
p53
I392
sS'bringing'
p54
I1309
sS'vast'
p55
I2621
sS'believed'
p56
I1975
sS'school'
p57
I212
sS'publicly'
p58
I2752
sS'skills'
p59
I396
sS'supports'
p60
I18
sS'companies'
p61
I997
sS'solution'
p62
I3860
sS'viable'
p63
I2724
sS'unrelated'
p64
I728
sS'intensification'
p65
I3939
sS'succession'
p66
I1826
sS'enhance'
p67
I758
sS'abolishing'
p68
I1332
sS'enjoy'
p69
I1664
sS'charter'
p70
I2166
sS'force'
p71
I87
sS'leaders'
p72
I3283
sS'blasphemy'
p73
I243
sS'invariably'
p74
I2098
sS'direct'
p75
I248
sS'elections'
p76
I205
sS'surrounding'
p77
I1595
sS'likely'
p78
I689
sS'follow'
p79
I1984
sS'rigorous'
p80
I2288
sS'implemented'
p81
I516
sS'expressive'
p82
I422
sS'monopolies'
p83
I2682
sS'even'
p84
I425
sS'established'
p85
I1230
sS'spouses'
p86
I1972
sS'organisms'
p87
I2885
sS'deliberate'
p88
I1909
sS'encouraged'
p89
I3556
sS'decisions'
p90
I3239
sS'selected'
p91
I3537
sS'near'
p92
I1916
sS'liberty'
p93
I1335
sS'unskilled'
p94
I3606
sS'above'
p95
I1872
sS'conduct'
p96
I1883
sS'new'
p97
I764
sS'net'
p98
I831
sS'increasing'
p99
I652
sS'ever'
p100
I2120
sS'destroy'
p101
I2208
sS'entitles'
p102
I4059
sS'evolving'
p103
I2866
sS'harvesting'
p104
I3901
sS'impartial'
p105
I1797
sS'notions'
p106
I2603
sS'never'
p107
I1336
sS'hundreds'
p108
I3856
sS'met'
p109
I2372
sS'voter'
p110
I2449
sS'china'
p111
I21
sS'pursuit'
p112
I810
sS'cult'
p113
I1122
sS'path'
p114
I2561
sS'establishment'
p115
I3613
sS'contraction'
p116
I3359
sS'stresses'
p117
I1995
sS'substance'
p118
I881
sS'antisemitic'
p119
I3987
sS'unwillingness'
p120
I4080
sS'items'
p121
I3202
sS'leaves'
p122
I585
sS'perinatal'
p123
I3413
sS'tolerating'
p124
I1483
sS'credit'
p125
I1638
sS'launched'
p126
I3157
sS'abolition'
p127
I2516
sS'permit'
p128
I23
sS'military'
p129
I186
sS'suitable'
p130
I2855
sS'adolescents'
p131
I347
sS'segments'
p132
I2919
sS'mutual'
p133
I3383
sS'criticism'
p134
I2742
sS'divide'
p135
I1357
sS'myanmar'
p136
I145
sS'straw'
p137
I2150
sS'servicemen'
p138
I3399
sS'explained'
p139
I2278
sS'schooling'
p140
I74
sS'feelings'
p141
I332
sS'psychological'
p142
I368
sS'visible'
p143
I2312
sS'beneficiaries'
p144
I1032
sS'moral'
p145
I1508
sS'perpetuates'
p146
I1183
sS'total'
p147
I569
sS'circumvent'
p148
I1783
sS'landscape'
p149
I2793
sS'sexual'
p150
I3301
sS'criminals'
p151
I2963
sS'would'
p152
I22
sS'army'
p153
I2511
sS'insecurity'
p154
I3519
sS'mexico'
p155
I2125
sS'modernization'
p156
I673
sS'insult'
p157
I3966
sS'occupying'
p158
I3133
sS'elect'
p159
I1776
sS'call'
p160
I790
sS'therefore'
p161
I1010
sS'ip'
p162
I2670
sS'survive'
p163
I4116
sS'type'
p164
I479
sS'capital'
p165
I2629
sS'separated'
p166
I160
sS'tolerated'
p167
I3687
sS'continuing'
p168
I3139
sS'females'
p169
I1986
sS'holy'
p170
I2360
sS'populations'
p171
I1679
sS'successful'
p172
I2088
sS'brings'
p173
I1498
sS'wars'
p174
I2226
sS'hurt'
p175
I1381
sS'disruption'
p176
I2932
sS'interaction'
p177
I3935
sS'adult'
p178
I597
sS'excellent'
p179
I3256
sS'allies'
p180
I2223
sS'hold'
p181
I1778
sS'outdated'
p182
I1816
sS'lawmakers'
p183
I4141
sS'must'
p184
I1056
sS'morally'
p185
I1902
sS'word'
p186
I3727
sS'rights'
p187
I51
sS'work'
p188
I115
sS'theories'
p189
I355
sS'itself'
p190
I566
sS'prosocial'
p191
I290
sS'transparency'
p192
I3634
sS'mortar'
p193
I3193
sS'root'
p194
I2142
sS'addictive'
p195
I1535
sS'defer'
p196
I1765
sS'compulsive'
p197
I1556
sS'pollute'
p198
I3049
sS'give'
p199
I771
sS'deadweight'
p200
I1868
sS'unjust'
p201
I1907
sS'household'
p202
I2649
sS'preserving'
p203
I1942
sS'missiles'
p204
I3893
sS'involve'
p205
I635
sS'currency'
p206
I1586
sS'caution'
p207
I2181
sS'hardens'
p208
I499
sS'campaigning'
p209
I3080
sS'counseling'
p210
I837
sS'drive'
p211
I3607
sS'times'
p212
I1581
sS'attract'
p213
I4020
sS'advancing'
p214
I4131
sS'absolute'
p215
I45
sS'legislate'
p216
I1087
sS'ones'
p217
I1922
sS'end'
p218
I1488
sS'recovery'
p219
I3152
sS'unpaid'
p220
I2658
sS'provide'
p221
I543
sS'handguns'
p222
I2985
sS'feature'
p223
I1284
sS'grows'
p224
I3581
sS'machine'
p225
I1583
sS'far'
p226
I1192
sS'significance'
p227
I2228
sS'answer'
p228
I2940
sS'record'
p229
I2754
sS'widespread'
p230
I833
sS'preferable'
p231
I1963
sS'massive'
p232
I3529
sS'gaming'
p233
I398
sS'regional'
p234
I3141
sS'minority'
p235
I974
sS'transforming'
p236
I3440
sS'insecure'
p237
I2583
sS'after'
p238
I1066
sS'vicious'
p239
I3042
sS'lotteries'
p240
I1615
sS'outlawed'
p241
I1569
sS'wrong'
p242
I409
sS'tackle'
p243
I3605
sS'lay'
p244
I3743
sS'law'
p245
I610
sS'unborn'
p246
I1908
sS'types'
p247
I2730
sS'severity'
p248
I538
sS'inactivity'
p249
I928
sS'purchase'
p250
I464
sS'marginalize'
p251
I3142
sS'circumcisions'
p252
I3466
sS'effective'
p253
I201
sS'alienate'
p254
I3316
sS'youths'
p255
I3426
sS'acknowledged'
p256
I1399
sS'lost'
p257
I1968
sS'capitalism'
p258
I2588
sS'complaining'
p259
I2805
sS'encompassing'
p260
I1929
sS'complexity'
p261
I2277
sS'maintain'
p262
I1374
sS'ultimate'
p263
I668
sS'correlation'
p264
I366
sS'preventive'
p265
I3448
sS'democratic'
p266
I96
sS'athletes'
p267
I792
sS'order'
p268
I461
sS'wind'
p269
I118
sS'operations'
p270
I236
sS'fetus'
p271
I1899
sS'office'
p272
I1779
sS'dirtiest'
p273
I3056
sS'consent'
p274
I3417
sS'over'
p275
I562
sS'fall'
p276
I2005
sS'inconclusive'
p277
I510
sS'presence'
p278
I3375
sS'innovative'
p279
I1602
sS'japan'
p280
I188
sS'nets'
p281
I2036
sS'mayor'
p282
I4015
sS'before'
p283
I725
sS'difference'
p284
I1435
sS'surviving'
p285
I2853
sS'fit'
p286
I963
sS'personal'
p287
I1558
sS'revenue'
p288
I1517
sS'expectations'
p289
I2989
sS'anabolica'
p290
I789
sS'better'
p291
I544
sS'production'
p292
I648
sS'compelling'
p293
I2415
sS'encounter'
p294
I3718
sS'persist'
p295
I1537
sS'stifling'
p296
I3693
sS'hidden'
p297
I2822
sS'hamas'
p298
I3116
sS'easier'
p299
I2942
sS'overcome'
p300
I3596
sS'harmony'
p301
I1409
sS'eventually'
p302
I1549
sS'them'
p303
I323
sS'affected'
p304
I613
sS'diseases'
p305
I3340
sS'bans'
p306
I1263
sS'sterilization'
p307
I698
sS'enrich'
p308
I2711
sS'unemployed'
p309
I3755
sS'safe'
p310
I413
sS'bouts'
p311
I1238
sS'neurological'
p312
I383
sS'break'
p313
I1994
sS'academics'
p314
I3253
sS'effects'
p315
I359
sS'they'
p316
I299
sS'schools'
p317
I184
sS'tourism'
p318
I1516
sS'smoking'
p319
I3664
sS'competitiveness'
p320
I2642
sS'shadows'
p321
I3902
sS'represents'
p322
I2486
sS'oxygen'
p323
I3484
sS'classified'
p324
I3647
sS'backgrounds'
p325
I1060
sS'slavery'
p326
I2487
sS'harming'
p327
I3196
sS'deficient'
p328
I3047
sS'daughters'
p329
I2540
sS'reasonable'
p330
I2365
sS'each'
p331
I1041
sS'addicted'
p332
I1646
sS'inventors'
p333
I2699
sS'operatives'
p334
I1692
sS'mean'
p335
I647
sS'prohibit'
p336
I254
sS'objectors'
p337
I2475
sS'series'
p338
I3019
sS'crimes'
p339
I475
sS'principles'
p340
I3285
sS'marital'
p341
I3579
sS'vote'
p342
I2468
sS'trading'
p343
I2667
sS'ameliorate'
p344
I1085
sS'extract'
p345
I3486
sS'message'
p346
I3278
sS'puts'
p347
I3525
sS'depress'
p348
I2920
sS'network'
p349
I3286
sS'driving'
p350
I1874
sS'god'
p351
I2237
sS'useless'
p352
I3035
sS'crucial'
p353
I3303
sS'content'
p354
I418
sS'encourage'
p355
I67
sS'casinos'
p356
I1596
sS'adapt'
p357
I2063
sS'banning'
p358
I1936
sS'medicine'
p359
I3419
sS'millions'
p360
I1605
sS'independence'
p361
I3397
sS'foundation'
p362
I2253
sS'inhabitants'
p363
I2912
sS'forcible'
p364
I1716
sS'unpopularity'
p365
I4011
sS'barrier'
p366
I208
sS'resume'
p367
I2117
sS'threatened'
p368
I1327
sS'given'
p369
I1584
sS'free'
p370
I879
sS'standard'
p371
I666
sS'disputes'
p372
I1887
sS'counterparts'
p373
I3273
sS'complied'
p374
I3219
sS'obstructing'
p375
I2681
sS'gameplay'
p376
I487
sS'subsistence'
p377
I2633
sS'publication'
p378
I3635
sS'atf'
p379
I2146
sS'enormous'
p380
I2909
sS'logging'
p381
I196
sS'created'
p382
I695
sS'refugee'
p383
I1678
sS'privacy'
p384
I1609
sS'secularism'
p385
I3242
sS'days'
p386
I1505
sS'priorities'
p387
I2123
sS'tolerant'
p388
I3999
sS'creates'
p389
I1121
sS'renew'
p390
I3847
sS'musicians'
p391
I2733
sS'oppose'
p392
I3365
sS'impede'
p393
I3567
sS'undisputable'
p394
I3859
sS'condom'
p395
I3371
sS'speeds'
p396
I2782
sS'already'
p397
I857
sS'features'
p398
I1385
sS'economists'
p399
I654
sS'steroids'
p400
I777
sS'attractions'
p401
I2882
sS'primary'
p402
I121
sS'autonomy'
p403
I3416
sS'restrict'
p404
I224
sS'floors'
p405
I3924
sS'disappearing'
p406
I3532
sS'another'
p407
I1145
sS'electronic'
p408
I1612
sS'anyone'
p409
I3974
sS'service'
p410
I108
sS'similarly'
p411
I770
sS'concussion'
p412
I1250
sS'engagement'
p413
I3036
sS'girls'
p414
I70
sS'approximately'
p415
I3782
sS'plentiful'
p416
I2766
sS'needed'
p417
I959
sS'however'
p418
I2446
sS'rates'
p419
I440
sS'too'
p420
I371
sS'agricultural'
p421
I3517
sS'wildly'
p422
I783
sS'percentage'
p423
I2135
sS'farming'
p424
I3661
sS'damaging'
p425
I3068
sS'listen'
p426
I3165
sS'urban'
p427
I3937
sS'abrogation'
p428
I2494
sS'murder'
p429
I325
sS'emblem'
p430
I4058
sS'collapse'
p431
I3495
sS'enhancing'
p432
I26
sS'tool'
p433
I1413
sS'leaking'
p434
I215
sS'rejected'
p435
I1954
sS'japanese'
p436
I3381
sS'incur'
p437
I3476
sS'western'
p438
I1568
sS'somewhat'
p439
I2589
sS'wasted'
p440
I2506
sS'prefecture'
p441
I3380
sS'nonpartisan'
p442
I3544
sS'gambler'
p443
I1542
sS'positively'
p444
I393
sS'begins'
p445
I1915
sS'disproportionally'
p446
I995
sS'showed'
p447
I2017
sS'toughman'
p448
I1255
sS'nominate'
p449
I3539
sS'outlaw'
p450
I4042
sS'immigrants'
p451
I1311
sS'monarchies'
p452
I1843
sS'arming'
p453
I2144
sS'nations'
p454
I234
sS'matter'
p455
I1051
sS'classes'
p456
I1160
sS'stratified'
p457
I2106
sS'historical'
p458
I1092
sS'spoiled'
p459
I674
sS'wielded'
p460
I4148
sS'contrasted'
p461
I1749
sS'solely'
p462
I1164
sS'fabrications'
p463
I2364
sS'spender'
p464
I2650
sS'entail'
p465
I1068
sS'willingness'
p466
I1478
sS'modern'
p467
I812
sS'mind'
p468
I2382
sS'spectrum'
p469
I3322
sS'deprived'
p470
I3713
sS'spent'
p471
I2011
sS'manner'
p472
I514
sS'arousal'
p473
I331
sS'seen'
p474
I1282
sS'subjects'
p475
I1855
sS'regulate'
p476
I460
sS'seek'
p477
I1171
sS'relatively'
p478
I961
sS'forced'
p479
I681
sS'abroad'
p480
I2826
sS'strength'
p481
I2476
sS'realm'
p482
I3237
sS'concrete'
p483
I3178
sS'convenient'
p484
I3988
sS'responsible'
p485
I81
sS'-'
I4160
sS'isolated'
p486
I4094
sS'explanations'
p487
I2386
sS'guns'
p488
I2132
sS'contact'
p489
I1276
sS'forces'
p490
I2524
sS'responsibly'
p491
I733
sS'effectiveness'
p492
I2580
sS'tunnels'
p493
I3203
sS'exactly'
p494
I2425
sS'prohibition'
p495
I1715
sS'committing'
p496
I497
sS'psychologically'
p497
I345
sS'limitless'
p498
I1395
sS'involving'
p499
I1218
sS'reverence'
p500
I3584
sS'exercises'
p501
I1921
sS'genital'
p502
I3423
sS'complying'
p503
I3188
sS'grave'
p504
I3948
sS'morality'
p505
I1088
sS'peers'
p506
I2016
sS'redistribution'
p507
I2087
sS'neighborhoods'
p508
I3941
sS'circumvention'
p509
I3274
sS'medical'
p510
I823
sS'incompatible'
p511
I2408
sS'flow'
p512
I3199
sS'gunshops'
p513
I2127
sS'swamp'
p514
I1739
sS'competitors'
p515
I772
sS'demoralized'
p516
I3254
sS'incumbents'
p517
I4140
sS'principle'
p518
I577
sS'rupees'
p519
I1980
sS'voting'
p520
I2464
sS'oppress'
p521
I2241
sS'came'
p522
I2161
sS'amending'
p523
I4041
sS'inspire'
p524
I3997
sS'reductions'
p525
I2943
sS'whitelist'
p526
I836
sS'sexist'
p527
I361
sS'ending'
p528
I3117
sS'religions'
p529
I2262
sS'attempts'
p530
I1036
sS'negates'
p531
I2495
sS'participate'
p532
I1527
sS'earth'
p533
I3798
sS'tempted'
p534
I1590
sS'enjoyed'
p535
I1604
sS'powerpunch'
p536
I1272
sS'consciousness'
p537
I1205
sS'implementation'
p538
I696
sS'situations'
p539
I3701
sS'explain'
p540
I943
sS'debts'
p541
I1552
sS'appreciated'
p542
I3382
sS'rich'
p543
I2082
sS'gods'
p544
I2303
sS'adequate'
p545
I2218
sS'impose'
p546
I3657
sS'personality'
p547
I604
sS'continuity'
p548
I1755
sS'do'
p549
I466
sS'exports'
p550
I2569
sS'rebellions'
p551
I2961
sS'fossil'
p552
I2765
sS'stop'
p553
I1223
sS'preferred'
p554
I1025
sS'criticized'
p555
I1038
sS'enters'
p556
I3614
sS'cushion'
p557
I2058
sS'supplies'
p558
I2865
sS'policymakers'
p559
I3760
sS'egalitarianism'
p560
I1822
sS'dp'
p561
I1280
sS'societies'
p562
I1338
sS'imperialistic'
p563
I4036
sS'contributes'
p564
I716
sS'bar'
p565
I1109
sS'countries'
p566
I59
sS'officially'
p567
I3245
sS'public'
p568
I854
sS'illegitimate'
p569
I4097
sS'knockdowns'
p570
I1237
sS'bad'
p571
I468
sS'openly'
p572
I3654
sS'ban'
p573
I37
sS'sanctioning'
p574
I1229
sS'fertility'
p575
I533
sS'steal'
p576
I1592
sS'respond'
p577
I2558
sS'ethical'
p578
I2252
sS'erroneous'
p579
I1546
sS'mandatory'
p580
I2514
sS'disaster'
p581
I2856
sS'reference'
p582
I2279
sS'habit'
p583
I3665
sS'imitate'
p584
I430
sS'consummation'
p585
I3601
sS'sensitivity'
p586
I3955
sS'testing'
p587
I782
sS'deemed'
p588
I3159
sS'reporting'
p589
I3281
sS'resist'
p590
I2904
sS'decided'
p591
I3690
sS'result'
p592
I620
sS'fail'
p593
I925
sS'miserable'
p594
I2256
sS'limiting'
p595
I2692
sS'best'
p596
I826
sS'subject'
p597
I2691
sS'said'
p598
I1821
sS'capacity'
p599
I2813
sS'inappropriate'
p600
I923
sS'away'
p601
I1383
sS'artificial'
p602
I2677
sS'paternal'
p603
I3558
sS'tantamount'
p604
I192
sS'unable'
p605
I595
sS'humankind'
p606
I1365
sS'designin'
p607
I2395
sS'encounters'
p608
I2299
sS'discovery'
p609
I2857
sS'preserve'
p610
I1074
sS'we'
p611
I2419
sS'men'
p612
I1973
sS'terms'
p613
I1670
sS'reproduction'
p614
I742
sS'relative'
p615
I2000
sS'nature'
p616
I865
sS'purity'
p617
I3230
sS'confusion'
p618
I2448
sS'aesthetic'
p619
I2861
sS'weak'
p620
I372
sS'ignorance'
p621
I2348
sS'cut'
p622
I2556
sS'wear'
p623
I1232
sS'extent'
p624
I835
sS'carbon'
p625
I2838
sS'debt'
p626
I1645
sS'improve'
p627
I636
sS'faced'
p628
I1270
sS'protect'
p629
I462
sS'embarked'
p630
I3018
sS'reported'
p631
I3095
sS'country'
p632
I1312
sS'biologically'
p633
I1904
sS'against'
p634
I237
sS'regions'
p635
I2981
sS'players'
p636
I296
sS'negative'
p637
I518
sS'disastrous'
p638
I2185
sS'games'
p639
I12
sS'receives'
p640
I2570
sS'distinction'
p641
I1375
sS'contribution'
p642
I718
sS'expense'
p643
I1019
sS'asked'
p644
I2311
sS'extractable'
p645
I2773
sS'royal'
p646
I1770
sS'betting'
p647
I1524
sS'civilians'
p648
I3184
sS'epidemic'
p649
I951
sS'represented'
p650
I1158
sS'karen'
p651
I3027
sS'written'
p652
I4046
sS'initiative'
p653
I933
sS'affiliated'
p654
I3815
sS'pregnancy'
p655
I1947
sS'trust'
p656
I1305
sS'vouchers'
p657
I3764
sS'speak'
p658
I3102
sS'japans'
p659
I3379
sS'ease'
p660
I2608
sS'targeting'
p661
I2481
sS'infringes'
p662
I2679
sS'basis'
p663
I2260
sS'union'
p664
I1869
sS'condemned'
p665
I3443
sS'criticised'
p666
I1093
sS'been'
p667
I365
sS'quickly'
p668
I3927
sS'extraction'
p669
I1946
sS'much'
p670
I374
sS'detrimental'
p671
I1557
sS'interest'
p672
I855
sS'basic'
p673
I731
sS'expected'
p674
I570
sS'deliberately'
p675
I1367
sS'duties'
p676
I1828
sS'obtained'
p677
I2119
sS'life'
p678
I286
sS'families'
p679
I1636
sS'deeper'
p680
I2056
sS'prosperous'
p681
I2641
sS'attacked'
p682
I3836
sS'drugs'
p683
I27
sS'suppress'
p684
I2453
sS'concerning'
p685
I3751
sS'prison'
p686
I3145
sS'worker'
p687
I645
sS'wish'
p688
I2002
sS'relevance'
p689
I1892
sS'lift'
p690
I155
sS'child'
p691
I193
sS'worked'
p692
I1815
sS'postmodern'
p693
I1296
sS'naval'
p694
I3185
sS'distorts'
p695
I3012
sS'physician'
p696
I1932
sS'inhibit'
p697
I3621
sS'guarantees'
p698
I2984
sS'harms'
p699
I1790
sS'ahead'
p700
I3293
sS'reciprocal'
p701
I2498
sS'originate'
p702
I2136
sS'lessen'
p703
I2222
sS'inviolable'
p704
I1960
sS'marginalised'
p705
I1132
sS'air'
p706
I2791
sS'employ'
p707
I4054
sS'depictions'
p708
I467
sS'aid'
p709
I111
sS'property'
p710
I117
sS'employees'
p711
I1742
sS'procedure'
p712
I1935
sS'played'
p713
I1579
sS'recoup'
p714
I2736
sS'deities'
p715
I2418
sS'is'
p716
I80
sS'it'
p717
I222
sS'ponders'
p718
I2298
sS'tissue'
p719
I3431
sS'brutal'
p720
I1271
sS'ramifications'
p721
I713
sS'in'
p722
I28
sS'victims'
p723
I2966
sS'pathology'
p724
I1433
sS'controversy'
p725
I1594
sS'id'
p726
I2461
sS'if'
p727
I426
sS'grown'
p728
I4137
sS'damaged'
p729
I2917
sS'specialization'
p730
I662
sS'perform'
p731
I1028
sS'things'
p732
I935
sS'make'
p733
I31
sS'format'
p734
I4071
sS'clearly'
p735
I3873
sS'democracies'
p736
I4000
sS'complex'
p737
I2390
sS'potentially'
p738
I634
sS'damages'
p739
I755
sS'babies'
p740
I1978
sS'monarch'
p741
I1750
sS'hierarchies'
p742
I1847
sS'several'
p743
I2614
sS'breaks'
p744
I2020
sS'entitled'
p745
I2661
sS'independent'
p746
I2381
sS'incentivising'
p747
I2728
sS'devalues'
p748
I1003
sS'prohibits'
p749
I2168
sS'natures'
p750
I609
sS'qualifications'
p751
I1009
sS'workforce'
p752
I2508
sS'evil'
p753
I2407
sS'liberties'
p754
I2971
sS'producers'
p755
I2624
sS'ownership'
p756
I2760
sS'overt'
p757
I1091
sS'opportunity'
p758
I972
sS'blamed'
p759
I649
sS'thoughts'
p760
I313
sS'cycle'
p761
I2555
sS'prescribed'
p762
I3703
sS'kept'
p763
I574
sS'whereby'
p764
I3796
sS'programs'
p765
I617
sS'changes'
p766
I1189
sS'possessed'
p767
I4049
sS'failing'
p768
I1014
sS'imperialism'
p769
I1769
sS'game'
p770
I280
sS'pathological'
p771
I1539
sS'academic'
p772
I1998
sS'savings'
p773
I547
sS'practices'
p774
I1319
sS'impediment'
p775
I1509
sS'greatest'
p776
I3674
sS'incapable'
p777
I2416
sS'mother'
p778
I1890
sS'the'
p779
I7
sS'corporate'
p780
I2531
sS'investments'
p781
I2042
sS'left'
p782
I702
sS'opinions'
p783
I3681
sS'spurred'
p784
I3763
sS'traditions'
p785
I1502
sS'just'
p786
I572
sS'unemployment'
p787
I3759
sS'photo'
p788
I101
sS'sporting'
p789
I768
sS'distribute'
p790
I171
sS'unfair'
p791
I773
sS'homogeneity'
p792
I1320
sS'beset'
p793
I3045
sS'fighters'
p794
I1231
sS'financially'
p795
I2109
sS'identify'
p796
I1119
sS'human'
p797
I580
sS'facts'
p798
I2283
sS'plight'
p799
I1713
sS'impending'
p800
I3886
sS'previous'
p801
I575
sS'poses'
p802
I2995
sS'monitored'
p803
I794
sS'subtracts'
p804
I2503
sS'candidate'
p805
I3078
sS'endangered'
p806
I126
sS'regarded'
p807
I2435
sS'deters'
p808
I2945
sS'had'
p809
I524
sS'ideal'
p810
I930
sS'disparity'
p811
I2535
sS'spread'
p812
I2179
sS'inefficiencies'
p813
I2033
sS'innocent'
p814
I1903
sS'technological'
p815
I663
sS'has'
p816
I363
sS'humanity'
p817
I1364
sS'designate'
p818
I1022
sS'opt'
p819
I3772
sS'threatens'
p820
I1353
sS'municipal'
p821
I3912
sS'dignity'
p822
I1289
sS'involuntary'
p823
I2488
sS'advances'
p824
I2859
sS'survival'
p825
I1363
sS'posed'
p826
I3740
sS'possible'
p827
I520
sS'stds'
p828
I3360
sS'inflicting'
p829
I3191
sS'possibly'
p830
I3135
sS'cultural'
p831
I1360
sS'boxer'
p832
I1225
sS'gridlock'
p833
I4142
sS'birth'
p834
I57
sS'sustains'
p835
I2062
sS'govt'
p836
I3232
sS'shadow'
p837
I3898
sS'unique'
p838
I1417
sS'advanced'
p839
I3051
sS'occurring'
p840
I692
sS'constitution'
p841
I1763
sS'brought'
p842
I864
sS'deviance'
p843
I4117
sS'external'
p844
I4093
sS'performing'
p845
I2019
sS'unnecessary'
p846
I1198
sS'bred'
p847
I2102
sS'specific'
p848
I1080
sS'erodes'
p849
I1300
sS'arbitrary'
p850
I1047
sS'notorious'
p851
I3894
sS'security'
p852
I2175
sS'starvation'
p853
I670
sS'whomever'
p854
I3867
sS'beneficial'
p855
I920
sS'right'
p856
I42
sS'old'
p857
I1113
sS'deal'
p858
I390
sS'people'
p859
I606
sS'understand'
p860
I3319
sS'gesture'
p861
I4039
sS'successfully'
p862
I621
sS'crown'
p863
I1806
sS'elderly'
p864
I2463
sS'coerce'
p865
I3611
sS'born'
p866
I2346
sS'election'
p867
I249
sS'industries'
p868
I2636
sS'recognise'
p869
I3207
sS'pain'
p870
I3407
sS'bore'
p871
I1891
sS'intellect'
p872
I1789
sS'enemies'
p873
I2209
sS'denies'
p874
I3587
sS'ignore'
p875
I2964
sS'for'
p876
I82
sS'fourth'
p877
I3829
sS'establish'
p878
I1128
sS'opposite'
p879
I2342
sS'creative'
p880
I492
sS'repression'
p881
I1441
sS'everything'
p882
I2428
sS'continue'
p883
I1959
sS'enterprises'
p884
I3268
sS'unit'
p885
I2816
sS'denied'
p886
I1701
sS'beating'
p887
I4085
sS'participation'
p888
I3543
sS'core'
p889
I3962
sS'knew'
p890
I1856
sS'deflation'
p891
I2921
sS'payment'
p892
I2727
sS'pose'
p893
I2829
sS'confer'
p894
I3745
sS'constructive'
p895
I3037
sS'fullest'
p896
I3695
sS'confrontation'
p897
I4028
sS'defensive'
p898
I2987
sS'losing'
p899
I2903
sS'inflicted'
p900
I3176
sS'permitted'
p901
I1165
sS'dead'
p902
I3963
sS'nonparty'
p903
I3538
sS'foreskin'
p904
I3436
sS'limitation'
p905
I3702
sS'conceal'
p906
I178
sS'firearms'
p907
I2124
sS'dollars'
p908
I3770
sS'citizens'
p909
I135
sS'assault'
p910
I3438
sS'flourishes'
p911
I3231
sS'despair'
p912
I2341
sS'ensure'
p913
I973
sS'commit'
p914
I474
sS'efforts'
p915
I2914
sS'palestinians'
p916
I3201
sS'automatically'
p917
I433
sS'demise'
p918
I2874
sS'considerations'
p919
I3248
sS'primitive'
p920
I2369
sS'amounted'
p921
I3131
sS'civil'
p922
I1042
sS'intellectual'
p923
I116
sS'arms'
p924
I141
sS'accommodate'
p925
I3910
sS'lies'
p926
I3228
sS'beings'
p927
I667
sS'accomplishments'
p928
I1004
sS'raises'
p929
I2399
sS'doctrine'
p930
I3244
sS'trafficked'
p931
I2128
sS'balanced'
p932
I1756
sS'easy'
p933
I3540
sS'refined'
p934
I3077
sS'reducing'
p935
I1235
sS'soon'
p936
I1983
sS'mass'
p937
I3099
sS'methods'
p938
I209
sS'annoyance'
p939
I2806
sS'rely'
p940
I2068
sS'america'
p941
I3396
sS'leaks'
p942
I3645
sS'expired'
p943
I2753
sS'support'
p944
I138
sS'initial'
p945
I1575
sS'knowing'
p946
I2155
sS'sovereign'
p947
I1774
sS'fight'
p948
I1221
sS'infecting'
p949
I3561
sS'influencing'
p950
I445
sS'counterproductive'
p951
I1012
sS'way'
p952
I95
sS'obliged'
p953
I2526
sS'resulted'
p954
I1342
sS'was'
p955
I219
sS'war'
p956
I83
sS'asset'
p957
I1493
sS'questionable'
p958
I827
sS'intolerance'
p959
I1710
sS'head'
p960
I1208
sS'amateur'
p961
I1254
sS'form'
p962
I419
sS'offer'
p963
I1610
sS'becoming'
p964
I2200
sS'differences'
p965
I1371
sS'removes'
p966
I3508
sS'encodes'
p967
I3412
sS'failure'
p968
I2423
sS'heat'
p969
I3929
sS'catalyst'
p970
I3771
sS'solar'
p971
I3900
sS'sustained'
p972
I1203
sS'safeguard'
p973
I1801
sS'true'
p974
I3626
sS'atrocities'
p975
I2375
sS'imprison'
p976
I3970
sS'absent'
p977
I3442
sS'responding'
p978
I1403
sS'builds'
p979
I400
sS'reproductive'
p980
I737
sS'understood'
p981
I2344
sS'markets'
p982
I2031
sS'inside'
p983
I3195
sS'bargain'
p984
I1860
sS'devices'
p985
I3811
sS'until'
p986
I3356
sS'complications'
p987
I3463
sS'precious'
p988
I3682
sS'emotional'
p989
I493
sS'cosmos'
p990
I2396
sS'emit'
p991
I2836
sS'strengthening'
p992
I912
sS'proved'
p993
I525
sS'glans'
p994
I3454
sS'item'
p995
I4060
sS'infections'
p996
I3554
sS'wealthy'
p997
I3775
sS'escape'
p998
I3803
sS'proven'
p999
I2104
sS'evidence'
p1000
I344
sS'unbiased'
p1001
I3240
sS'exist'
p1002
I2273
sS'revitalize'
p1003
I2795
sS'accounting'
p1004
I3514
sS'adversely'
p1005
I2898
sS'mold'
p1006
I3612
sS'check'
p1007
I1840
sS'liberalism'
p1008
I1487
sS'physical'
p1009
I32
sS'willingly'
p1010
I1460
sS'palestinian'
p1011
I3107
sS'discriminate'
p1012
I1039
sS'no'
p1013
I304
sS'fosters'
p1014
I1346
sS'generally'
p1015
I1240
sS'junta'
p1016
I3038
sS'setting'
p1017
I352
sS'role'
p1018
I948
sS'test'
p1019
I956
sS'developers'
p1020
I2710
sS'erosion'
p1021
I3478
sS'circumcise'
p1022
I3422
sS'subsidize'
p1023
I75
sS'amputate'
p1024
I3430
sS'permitting'
p1025
I3572
sS'thoroughgoing'
p1026
I2707
sS'models'
p1027
I2725
sS'leak'
p1028
I3646
sS'football'
p1029
I262
sS'convincing'
p1030
I476
sS'polite'
p1031
I1468
sS'emission'
p1032
I2821
sS'punishing'
p1033
I4002
sS'authoritarianism'
p1034
I2266
sS'journey'
p1035
I1437
sS'intent'
p1036
I1853
sS'scores'
p1037
I957
sS'persecution'
p1038
I978
sS'transfers'
p1039
I1613
sS'notion'
p1040
I4026
sS'died'
p1041
I1256
sS'admissions'
p1042
I3255
sS'longer'
p1043
I1162
sS'proposed'
p1044
I504
sS'bottom'
p1045
I4128
sS'together'
p1046
I1310
sS'cohesion'
p1047
I1354
sS'defamation'
p1048
I3959
sS'stripping'
p1049
I1382
sS'time'
p1050
I565
sS'serious'
p1051
I283
sS'knockouts'
p1052
I1219
sS'backward'
p1053
I1157
sS'restored'
p1054
I1331
sS'hope'
p1055
I3802
sS'premeditated'
p1056
I2153
sS'shop'
p1057
I3252
sS'concept'
p1058
I1340
sS'customary'
p1059
I1718
sS'impulse'
p1060
I1551
sS'licence'
p1061
I3975
sS'equalities'
p1062
I1067
sS'global'
p1063
I2174
sS'alternatives'
p1064
I2723
sS'focus'
p1065
I122
sS'invent'
p1066
I2659
sS'leads'
p1067
I417
sS'infants'
p1068
I3456
sS'mild'
p1069
I326
sS'assailants'
p1070
I2957
sS'shot'
p1071
I2967
sS'tenable'
p1072
I3147
sS'hijacked'
p1073
I3792
sS'contributing'
p1074
I1694
sS'impugned'
p1075
I4050
sS'inverse'
p1076
I343
sS'essentials'
p1077
I3205
sS'disorders'
p1078
I605
sS'casualties'
p1079
I3631
sS'passage'
p1080
I3155
sS'environment'
p1081
I685
sS'violation'
p1082
I1919
sS'charge'
p1083
I3272
sS'compensate'
p1084
I976
sS'electricity'
p1085
I2774
sS'terror'
p1086
I3831
sS'exposition'
p1087
I4051
sS'disapproved'
p1088
I1956
sS'circumstances'
p1089
I1930
sS'veterans'
p1090
I3757
sS'division'
p1091
I1076
sS'protective'
p1092
I1233
sS'inhuman'
p1093
I3140
sS'advantage'
p1094
I774
sS'tends'
p1095
I1480
sS'choice'
p1096
I1961
sS'emergencies'
p1097
I3906
sS'friction'
p1098
I1359
sS'locked'
p1099
I4143
sS'emphasized'
p1100
I555
sS'procreation'
p1101
I3598
sS'governments'
p1102
I97
sS'car'
p1103
I3938
sS'perceived'
p1104
I1156
sS'rightthe'
p1105
I2497
sS'immediately'
p1106
I2398
sS'level'
p1107
I261
sS'did'
p1108
I1269
sS'die'
p1109
I937
sS'permits'
p1110
I1865
sS'posts'
p1111
I1055
sS'gun'
p1112
I2129
sS'skewed'
p1113
I64
sS'leave'
p1114
I1743
sS'p'
I955
sS'theological'
p1115
I3570
sS'team'
p1116
I1525
sS'quick'
p1117
I1350
sS'round'
p1118
I73
sS'anesthetic'
p1119
I3409
sS'prevent'
p1120
I88
sS'spiritual'
p1121
I2862
sS'legalized'
p1122
I834
sS'occurrence'
p1123
I2411
sS'peds'
p1124
I867
sS'hindered'
p1125
I2703
sS'pregnancies'
p1126
I3307
sS'discover'
p1127
I934
sS'affiliation'
p1128
I1456
sS'heavyweight'
p1129
I1186
sS'cost'
p1130
I1649
sS'bombardment'
p1131
I3883
sS'voucher'
p1132
I232
sS'scarcity'
p1133
I2678
sS'careers'
p1134
I4132
sS'rough'
p1135
I3105
sS'substitute'
p1136
I3990
sS'purchasers'
p1137
I2151
sS'adds'
p1138
I3005
sS'victimization'
p1139
I1123
sS'newborns'
p1140
I3404
sS'nationalized'
p1141
I3270
sS'assistance'
p1142
I2582
sS'theist'
p1143
I2359
sS'agrees'
p1144
I3376
sS'current'
p1145
I529
sS'health'
p1146
I545
sS'theism'
p1147
I2290
sS'goes'
p1148
I1659
sS'international'
p1149
I760
sS'falling'
p1150
I2055
sS'principal'
p1151
I1849
sS'boost'
p1152
I2587
sS'era'
p1153
I1297
sS'satisfy'
p1154
I850
sS'supporting'
p1155
I2366
sS'realizing'
p1156
I4095
sS'transportation'
p1157
I3057
sS'efficacious'
p1158
I2599
sS'grandparents'
p1159
I708
sS'perverts'
p1160
I3622
sS'kamm'
p1161
I218
sS'understanding'
p1162
I2297
sS'water'
p1163
I2799
sS'contemplate'
p1164
I3840
sS'groups'
p1165
I936
sS'address'
p1166
I1102
sS'alone'
p1167
I472
sS'persecuted'
p1168
I1705
sS'teaches'
p1169
I3354
sS'change'
p1170
I1624
sS'sending'
p1171
I2152
sS'enroll'
p1172
I3769
sS'bygone'
p1173
I1768
sS'healthy'
p1174
I410
sS'funded'
p1175
I2616
sS'commonly'
p1176
I4064
sS'exploitation'
p1177
I979
sS'burdensome'
p1178
I2470
sS'ineffective'
p1179
I2548
sS'usually'
p1180
I3629
sS'studies'
p1181
I3336
sS'influx'
p1182
I1676
sS'genuinely'
p1183
I3262
sS'lowers'
p1184
I1108
sS'teenage'
p1185
I3296
sS'useful'
p1186
I1489
sS'curtailing'
p1187
I1449
sS'inducing'
p1188
I2212
sS'merely'
p1189
I4019
sS'prefer'
p1190
I2747
sS'logical'
p1191
I1760
sS'histories'
p1192
I2357
sS'bribery'
p1193
I142
sS'contradictions'
p1194
I2301
sS'licensing'
p1195
I1514
sS'verge'
p1196
I3349
sS'employer'
p1197
I1864
sS'crisis'
p1198
I1712
sS'market'
p1199
I2032
sS'handled'
p1200
I1587
sS'working'
p1201
I2001
sS'prove'
p1202
I477
sS'positive'
p1203
I411
sS'predictions'
p1204
I3098
sS'sports'
p1205
I30
sS'scenarios'
p1206
I886
sS'live'
p1207
I2870
sS'approach'
p1208
I3312
sS'opposed'
p1209
I3401
sS'black'
p1210
I2159
sS'cited'
p1211
I3482
sS'today'
p1212
I1166
sS'introducing'
p1213
I887
sS'afford'
p1214
I2050
sS'share'
p1215
I2543
sS'acceptable'
p1216
I144
sS'apparent'
p1217
I2393
sS'assimilation'
p1218
I1380
sS'refrain'
p1219
I3243
sS'equivalents'
p1220
I2906
sS'rigid'
p1221
I2936
sS'degrade'
p1222
I2074
sS'cases'
p1223
I944
sS'effort'
p1224
I2194
sS'behalf'
p1225
I1100
sS'organizations'
p1226
I761
sS'graphic'
p1227
I495
sS'indiscriminately'
p1228
I3814
sS'pushed'
p1229
I3113
sS'local'
p1230
I1511
sS'unitive'
p1231
I3588
sS'abortion'
p1232
I1889
sS'believes'
p1233
I5
sS'attacks'
p1234
I3109
sS'harmonious'
p1235
I1990
sS'values'
p1236
I1491
sS'can'
p1237
I369
sS'growing'
p1238
I220
sS'making'
p1239
I1011
sS'stimulating'
p1240
I1661
sS'social'
p1241
I137
sS'claim'
p1242
I1703
sS'classrooms'
p1243
I1410
sS'months'
p1244
I1991
sS'want'
p1245
I2409
sS'figure'
p1246
I2424
sS'prosecute'
p1247
I4001
sS'expanding'
p1248
I2584
sS'subsidies'
p1249
I2030
sS'despot'
p1250
I3793
sS'agent'
p1251
I2403
sS'abort'
p1252
I1931
sS'performed'
p1253
I2420
sS'council'
p1254
I4016
sS'allowed'
p1255
I1241
sS'forcibly'
p1256
I3457
sS'occur'
p1257
I1177
sS'productive'
p1258
I2041
sS'requirements'
p1259
I2445
sS'anabolic'
p1260
I776
sS'ideas'
p1261
I2675
sS'discussion'
p1262
I3688
sS'spreads'
p1263
I2095
sS'chemical'
p1264
I1544
sS'immune'
p1265
I903
sS'vital'
p1266
I1362
sS'criterion'
p1267
I1049
sS'churchis'
p1268
I3235
sS'pure'
p1269
I2440
sS'overpopulate'
p1270
I1738
sS'allowable'
p1271
I3724
sS'guarantee'
p1272
I134
sS'economy'
p1273
I1658
sS'product'
p1274
I2281
sS'designer'
p1275
I2397
sS'paramount'
p1276
I2972
sS'irrational'
p1277
I2349
sS'protection'
p1278
I2473
sS'information'
p1279
I2676
sS'may'
p1280
I288
sS'southern'
p1281
I3854
sS'respective'
p1282
I1838
sS'anomie'
p1283
I1623
sS'conscripted'
p1284
I2510
sS'produce'
p1285
I69
sS'designed'
p1286
I1155
sS'improving'
p1287
I1854
sS'such'
p1288
I838
sS'employers'
p1289
I1888
sS'data'
p1290
I824
sS'lacked'
p1291
I3236
sS'man'
p1292
I3229
sS'classroom'
p1293
I3348
sS'stress'
p1294
I391
sS'natural'
p1295
I1728
sS'sectors'
p1296
I2619
sS'whenever'
p1297
I1146
sS'purification'
p1298
I2864
sS'regressive'
p1299
I1565
sS'burmese'
p1300
I3025
sS'hailed'
p1301
I1616
sS'so'
p1302
I2438
sS'african'
p1303
I2557
sS'offend'
p1304
I3952
sS'truce'
p1305
I3864
sS'talk'
p1306
I3298
sS'typical'
p1307
I1201
sS'exclusive'
p1308
I734
sS'serving'
p1309
I1813
sS'constituents'
p1310
I4139
sS'exchanges'
p1311
I3014
sS'sexually'
p1312
I3338
sS'unacceptable'
p1313
I3150
sS'damage'
p1314
I1199
sS'stability'
p1315
I1812
sS'brain'
p1316
I1212
sS'unsuitable'
p1317
I2811
sS'disparities'
p1318
I1143
sS'cuts'
p1319
I2846
sS'unfavorable'
p1320
I3644
sS'deity'
p1321
I2318
sS'still'
p1322
I4056
sS'blocked'
p1323
I3153
sS'constituted'
p1324
I3850
sS'emits'
p1325
I2790
sS'group'
p1326
I1007
sS'how'
p1327
I2426
sS'procedures'
p1328
I2469
sS'organisation'
p1329
I4031
sS'undermined'
p1330
I1355
sS'decreases'
p1331
I297
sS'ideation'
p1332
I1561
sS'forms'
p1333
I327
sS'gazan'
p1334
I3197
sS'creations'
p1335
I2664
sS'constitutes'
p1336
I465
sS'policy'
p1337
I19
sS'decreased'
p1338
I315
sS'factual'
p1339
I3305
sS'undermines'
p1340
I1115
sS'abusive'
p1341
I3023
sS'deviant'
p1342
I4092
sS'unplanned'
p1343
I3347
sS'finance'
p1344
I2560
sS'civilian'
p1345
I2507
sS'matches'
p1346
I1187
sS'relativism'
p1347
I2251
sS'processes'
p1348
I2883
sS'introduce'
p1349
I71
sS'nation'
p1350
I694
sS'toxic'
p1351
I3668
sS'normalcy'
p1352
I3833
sS'qualified'
p1353
I1045
sS'compelled'
p1354
I830
sS'republicanism'
p1355
I1758
sS'not'
p1356
I44
sS'prima'
p1357
I2294
sS'now'
p1358
I778
sS'provision'
p1359
I3778
sS'killed'
p1360
I3843
sS'maintaining'
p1361
I909
sS'possess'
p1362
I1098
sS'outweigh'
p1363
I1574
sS'term'
p1364
I267
sS'equality'
p1365
I983
sS'name'
p1366
I2392
sS'certainty'
p1367
I2325
sS'legislation'
p1368
I3991
sS'promulgate'
p1369
I4061
sS'bowling'
p1370
I888
sS'instability'
p1371
I1802
sS'entirely'
p1372
I3167
sS'physiologic'
p1373
I3408
sS'last'
p1374
I2959
sS'civilizing'
p1375
I2379
sS'differential'
p1376
I4100
sS'significantly'
p1377
I310
sS'challenged'
p1378
I576
sS'bitumen'
p1379
I3070
sS'variability'
p1380
I2778
sS'abnormal'
p1381
I1796
sS'conventions'
p1382
I1861
sS'challenges'
p1383
I2779
sS'electorate'
p1384
I2452
sS'fires'
p1385
I3925
sS'entering'
p1386
I3216
sS'year'
p1387
I72
sS'eu'
p1388
I2596
sS'assumption'
p1389
I2441
sS'monitors'
p1390
I1220
sS'awarding'
p1391
I2749
sS'abdication'
p1392
I2243
sS'living'
p1393
I628
sS'ultimately'
p1394
I1299
sS'decreasingly'
p1395
I2202
sS'intercourse'
p1396
I3318
sS'factors'
p1397
I729
sS'profit'
p1398
I1651
sS'tensions'
p1399
I2070
sS'interference'
p1400
I2758
sS'increase'
p1401
I275
sS'believers'
p1402
I3954
sS'seriously'
p1403
I1226
sS'condemns'
p1404
I1793
sS'unforgettable'
p1405
I3875
sS'rational'
p1406
I1447
sS'internet'
p1407
I1597
sS'protected'
p1408
I128
sS'receiving'
p1409
I2116
sS'correct'
p1410
I1095
sS'managed'
p1411
I2547
sS'inevitably'
p1412
I3768
sS'despite'
p1413
I4084
sS'earlier'
p1414
I3361
sS'theory'
p1415
I1315
sS'curbs'
p1416
I3212
sS'infidelity'
p1417
I3580
sS'incentives'
p1418
I1027
sS'possibility'
p1419
I2172
sS'quite'
p1420
I1521
sS'lucrative'
p1421
I1599
sS'obligation'
p1422
I2108
sS'inevitable'
p1423
I3164
sS'card'
p1424
I1639
sS'care'
p1425
I596
sS'advance'
p1426
I1894
sS'training'
p1427
I1258
sS'language'
p1428
I3729
sS'locations'
p1429
I3862
sS'discussing'
p1430
I3697
sS'deprivation'
p1431
I263
sS'transition'
p1432
I3029
sS'british'
p1433
I161
sS'honest'
p1434
I3011
sS'turn'
p1435
I665
sS'place'
p1436
I2992
sS'undesirable'
p1437
I615
sS'promotion'
p1438
I1494
sS'childhood'
p1439
I489
sS'frequent'
p1440
I899
sS'first'
p1441
I449
sS'origin'
p1442
I1687
sS'benefited'
p1443
I2738
sS'xl'
p1444
I148
sS'enhances'
p1445
I1438
sS'spoken'
p1446
I4045
sS'bargaining'
p1447
I50
sS'waves'
p1448
I1698
sS'municipality'
p1449
I1634
sS'indecent'
p1450
I3750
sS'one'
p1451
I678
sS'americans'
p1452
I2976
sS'long'
p1453
I295
sS'directly'
p1454
I1660
sS'invasion'
p1455
I2905
sS'carry'
p1456
I894
sS'impossible'
p1457
I999
sS'ring'
p1458
I1257
sS'custom'
p1459
I3435
sS'open'
p1460
I197
sS'seaport'
p1461
I3198
sS'size'
p1462
I582
sS'city'
p1463
I250
sS'little'
p1464
I762
sS'necessarily'
p1465
I1451
sS'officials'
p1466
I2638
sS'humiliation'
p1467
I3976
sS'district'
p1468
I4017
sS'occupy'
p1469
I3911
sS'caught'
p1470
I817
sS'unduly'
p1471
I3469
sS'oligopolies'
p1472
I1879
sS'response'
p1473
I2652
sS'households'
p1474
I2040
sS'encourages'
p1475
I1118
sS'conservation'
p1476
I2877
sS'draft'
p1477
I2478
sS'chastity'
p1478
I3586
sS'lobbyists'
p1479
I4149
sS'convention'
p1480
I3830
sS'legally'
p1481
I2660
sS'white'
p1482
I2541
sS'renewal'
p1483
I3600
sS'national'
p1484
I107
sS'gives'
p1485
I2644
sS'prone'
p1486
I3269
sS'legitimately'
p1487
I2118
sS'fraction'
p1488
I1684
sS'allegedly'
p1489
I2323
sS'that'
p1490
I6
sS'season'
p1491
I4073
sS'taxation'
p1492
I1618
sS'proving'
p1493
I2324
sS'overcapacity'
p1494
I3061
sS'outcome'
p1495
I3086
sS'criticize'
p1496
I1428
sS'representing'
p1497
I1831
sS'than'
p1498
I924
sS'intrinsically'
p1499
I1424
sS'population'
p1500
I536
sS'wide'
p1501
I870
sS'exclusionary'
p1502
I1430
sS'cartels'
p1503
I2145
sS'third'
p1504
I1393
sS'accordance'
p1505
I2980
sS'favors'
p1506
I3006
sS'require'
p1507
I98
sS'dialogue'
p1508
I3016
sS'economies'
p1509
I2107
sS'mutilation'
p1510
I3424
sS'future'
p1511
I123
sS'venture'
p1512
I1632
sS'were'
p1513
I238
sS'posit'
p1514
I2352
sS'happy'
p1515
I2320
sS'disorganisation'
p1516
I4108
sS'respectability'
p1517
I3706
sS'depresses'
p1518
I2923
sS'and'
p1519
I170
sS'lowest'
p1520
I2819
sS'tenure'
p1521
I4153
sS'legalizing'
p1522
I842
sS'enhanced'
p1523
I3483
sS'considerably'
p1524
I2764
sS'appreciate'
p1525
I3392
sS'turned'
p1526
I811
sS'argument'
p1527
I2304
sS'voices'
p1528
I1290
sS'say'
p1529
I2014
sS'rent'
p1530
I2740
sS'nominating'
p1531
I3545
sS'exchanging'
p1532
I3655
sS'dogmatism'
p1533
I2267
sS'insatiable'
p1534
I2140
sS'occupied'
p1535
I3222
sS'any'
p1536
I478
sS'conversion'
p1537
I3493
sS'offering'
p1538
I4090
sS'efficient'
p1539
I2044
sS'aside'
p1540
I1504
sS'reforestation'
p1541
I3472
sS'equipment'
p1542
I769
sS'emphasis'
p1543
I1333
sS'potential'
p1544
I505
sS'take'
p1545
I744
sS'online'
p1546
I179
sS'objective'
p1547
I2431
sS'performance'
p1548
I25
sS'coincide'
p1549
I2783
sS'primaries'
p1550
I198
sS'motivated'
p1551
I1721
sS'deniers'
p1552
I3981
sS'begin'
p1553
I3317
sS'multiple'
p1554
I1484
sS'normal'
p1555
I351
sS'price'
p1556
I1326
sS'enter'
p1557
I1707
sS'dioxide'
p1558
I2839
sS'paid'
p1559
I113
sS'donation'
p1560
I2579
sS'importantly'
p1561
I321
sS'knowingly'
p1562
I2147
sS'atrocity'
p1563
I3282
sS'especially'
p1564
I1933
sS'fills'
p1565
I2401
sS'considered'
p1566
I759
sS'shooter'
p1567
I481
sS'implications'
p1568
I3521
sS'sale'
p1569
I8
sS'federal'
p1570
I3758
sS'prepare'
p1571
I3291
sS'trafficking'
p1572
I1987
sS'clearing'
p1573
I3497
sS'infringement'
p1574
I2696
sS'professional'
p1575
I29
sS'typically'
p1576
I2893
sS'filing'
p1577
I2689
sS'multitrack'
p1578
I2006
sS'laws'
p1579
I991
sS'slope'
p1580
I1967
sS'perpetrated'
p1581
I4121
sS'playoffs'
p1582
I259
sS'regulated'
p1583
I1606
sS'show'
p1584
I2269
sS'cheat'
p1585
I1591
sS'recipe'
p1586
I2340
sS'merit'
p1587
I1182
sS'spaces'
p1588
I3903
sS'inconsistent'
p1589
I784
sS'copyrighted'
p1590
I2695
sS'scarce'
p1591
I2713
sS'aggressive'
p1592
I284
sS'imagined'
p1593
I3965
sS'pacific'
p1594
I3389
sS'ground'
p1595
I1448
sS'slot'
p1596
I1582
sS'fend'
p1597
I3808
sS'sinks'
p1598
I3513
sS'ratio'
p1599
I63
sS'entities'
p1600
I2683
sS'title'
p1601
I4077
sS'daily'
p1602
I3204
sS'unchanging'
p1603
I2313
sS'retards'
p1604
I3013
sS'behind'
p1605
I521
sS'crime'
p1606
I265
sS'overruns'
p1607
I3046
sS'only'
p1608
I94
sS'going'
p1609
I2867
sS'enriched'
p1610
I1474
sS'worthwhile'
p1611
I2500
sS'inventions'
p1612
I2238
sS'supernatural'
p1613
I2413
sS'ranking'
p1614
I2519
sS'get'
p1615
I958
sS'truly'
p1616
I1285
sS'israels'
p1617
I3121
sS'cannot'
p1618
I402
sS'outlet'
p1619
I414
sS'import'
p1620
I3206
sS'budget'
p1621
I2924
sS'unethical'
p1622
I500
sS'teens'
p1623
I2025
sS'regarding'
p1624
I3345
sS'resource'
p1625
I669
sS'mavericks'
p1626
I4021
sS'radar'
p1627
I2798
sS'assimilate'
p1628
I1377
sS'subsidise'
p1629
I2597
sS'routinely'
p1630
I4086
sS'across'
p1631
I3321
sS'barbaric'
p1632
I1279
sS'prevents'
p1633
I2962
sS'where'
p1634
I863
sS'conviction'
p1635
I3698
sS'monarchs'
p1636
I1791
sS'physically'
p1637
I965
sS'violated'
p1638
I3171
sS'artworks'
p1639
I2734
sS'closures'
p1640
I3112
sS'bounds'
p1641
I3308
sS'famine'
p1642
I657
sS'elected'
p1643
I1835
sS'actively'
p1644
I2184
sS'college'
p1645
I4065
sS'eliminating'
p1646
I1406
sS'pretext'
p1647
I3643
sS'calendar'
p1648
I2015
sS'sport'
p1649
I1194
sS'violates'
p1650
I608
sS'constraints'
p1651
I3625
sS'wonder'
p1652
I861
sS'appear'
p1653
I2902
sS'fails'
p1654
I1110
sS'invoked'
p1655
I1148
sS'inequalities'
p1656
I1069
sS'farmers'
p1657
I3515
sS'ways'
p1658
I1401
sS'subsequent'
p1659
I2671
sS'seekers'
p1660
I1720
sS'justifies'
p1661
I3870
sS'materials'
p1662
I765
sS'weapons'
p1663
I92
sS'outside'
p1664
I513
sS'preemptive'
p1665
I2482
sS'between'
p1666
I307
sS'affecting'
p1667
I2460
sS'custodians'
p1668
I2901
sS'justified'
p1669
I85
sS'fields'
p1670
I3499
sS'checks'
p1671
I1833
sS'promiscuity'
p1672
I3362
sS'infrastructure'
p1673
I2551
sS'jobs'
p1674
I229
sS'august'
p1675
I3030
sS'parental'
p1676
I3420
sS'legitimacy'
p1677
I1462
sS'killing'
p1678
I1911
sS'steroid'
p1679
I877
sS'commodified'
p1680
I2708
sS'hurts'
p1681
I1031
sS'nationality'
p1682
I1737
sS'cities'
p1683
I1696
sS'come'
p1684
I539
sS'undermine'
p1685
I1431
sS'massacres'
p1686
I3996
sS'motivations'
p1687
I2655
sS'reaction'
p1688
I3881
sS'mans'
p1689
I2496
sS'acquiring'
p1690
I90
sS'fearsome'
p1691
I3922
sS'many'
p1692
I395
sS'region'
p1693
I2189
sS'trades'
p1694
I54
sS'emergency'
p1695
I3704
sS'according'
p1696
I1057
sS'propaganda'
p1697
I3984
sS'enabling'
p1698
I2113
sS'marked'
p1699
I3026
sS'patrons'
p1700
I1588
sS'workplace'
p1701
I1866
sS'guardians'
p1702
I3263
sS'holders'
p1703
I2756
sS'expression'
p1704
I420
sS'comes'
p1705
I1434
sS'nearby'
p1706
I3899
sS'duty'
p1707
I1814
sS'among'
p1708
I301
sS'impediments'
p1709
I3761
sS'recreational'
p1710
I2881
sS'spoil'
p1711
I1730
sS'cancer'
p1712
I3671
sS'continuation'
p1713
I691
sS'period'
p1714
I564
sS'balance'
p1715
I3694
sS'innovations'
p1716
I2745
sS'satisfaction'
p1717
I2079
sS'exploit'
p1718
I2111
sS'learning'
p1719
I1421
sS'gene'
p1720
I3504
sS'liberal'
p1721
I1328
sS'extinct'
p1722
I2868
sS'poll'
p1723
I3082
sS'considers'
p1724
I3593
sS'boat'
p1725
I1714
sS'reconcile'
p1726
I2421
sS'save'
p1727
I3595
sS'arts'
p1728
I860
sS'subscribed'
p1729
I4025
sS'capable'
p1730
I2502
sS'west'
p1731
I1358
sS'vacation'
p1732
I1997
sS'extramarital'
p1733
I3578
sS'fleeing'
p1734
I1667
sS'usfj'
p1735
I3385
sS'motives'
p1736
I2602
sS'peaceful'
p1737
I3838
sS'technical'
p1738
I2527
sS'ecosystem'
p1739
I2863
sS'borders'
p1740
I1666
sS'wants'
p1741
I3043
sS'enable'
p1742
I2039
sS'bionics'
p1743
I2860
sS'indirect'
p1744
I2907
sS'shortages'
p1745
I2518
sS'unsafe'
p1746
I1969
sS'connections'
p1747
I4122
sS'curbing'
p1748
I3534
sS'dramatic'
p1749
I723
sS'covers'
p1750
I3353
sS'declaration'
p1751
I3951
sS'suspected'
p1752
I2149
sS'thing'
p1753
I3039
sS'esoteric'
p1754
I4081
sS'irrelevant'
p1755
I1048
sS'former'
p1756
I807
sS'those'
p1757
I554
sS'case'
p1758
I1971
sS'deprive'
p1759
I3118
sS'developing'
p1760
I2552
sS'these'
p1761
I825
sS'slumber'
p1762
I3689
sS'polls'
p1763
I151
sS'intimately'
p1764
I2626
sS'cast'
p1765
I3818
sS'slippery'
p1766
I1966
sS'unfortunate'
p1767
I3880
sS'policies'
p1768
I659
sS'situation'
p1769
I3149
sS'endured'
p1770
I3722
sS'perpetuate'
p1771
I988
sS'conferences'
p1772
I4079
sS'then'
p1773
I1706
sS'characteristics'
p1774
I1407
sS'ethically'
p1775
I869
sS'contrive'
p1776
I2998
sS'dissident'
p1777
I3945
sS'deficits'
p1778
I2926
sS'couples'
p1779
I3576
sS'middle'
p1780
I2112
sS'bias'
p1781
I1520
sS'embrace'
p1782
I39
sS'attributed'
p1783
I509
sS'argue'
p1784
I3603
sS'contraceptives'
p1785
I3346
sS'return'
p1786
I1717
sS'technology'
p1787
I2751
sS'different'
p1788
I763
sS'dragging'
p1789
I2225
sS'participant'
p1790
I1245
sS'doctor'
p1791
I3429
sS'pay'
p1792
I1169
sS'deforested'
p1793
I3475
sS'same'
p1794
I561
sS'speech'
p1795
I226
sS'arguments'
p1796
I2268
sS'agitated'
p1797
I3943
sS'deference'
p1798
I1786
sS'struggling'
p1799
I2021
sS'regime'
p1800
I2719
sS'intermediary'
p1801
I1805
sS'licit'
p1802
I3597
sS'status'
p1803
I1686
sS'extended'
p1804
I563
sS'centuries'
p1805
I2759
sS'disadvantages'
p1806
I1090
sS'enjoyment'
p1807
I1082
sS'defy'
p1808
I3041
sS'assist'
p1809
I1137
sS'births'
p1810
I558
sS'drives'
p1811
I2722
sS'intimidation'
p1812
I2450
sS'disadvantaged'
p1813
I1062
sS'persons'
p1814
I1677
sS'statutory'
p1815
I2663
sS'unqualified'
p1816
I2975
sS'footprint'
p1817
I2803
sS'changing'
p1818
I2314
sS'anticipated'
p1819
I3189
sS'wholeness'
p1820
I1295
sS'renewable'
p1821
I2818
sS'complained'
p1822
I3393
sS'misdirection'
p1823
I3009
sS'rain'
p1824
I3496
sS'largely'
p1825
I2737
sS'minimize'
p1826
I2176
sS'cct'
p1827
I2043
sS'constitutional'
p1828
I1105
sS'walls'
p1829
I3932
sS'know'
p1830
I3786
sS'evils'
p1831
I2380
sS'severe'
p1832
I1213
sS'without'
p1833
I802
sS'solve'
p1834
I1711
sS'components'
p1835
I2890
sS'relied'
p1836
I2844
sS'sculptors'
p1837
I2732
sS'model'
p1838
I929
sS'otherwise'
p1839
I1733
sS'researchers'
p1840
I503
sS'justify'
p1841
I721
sS'gdp'
p1842
I2549
sS'summer'
p1843
I1996
sS'peace'
p1844
I2197
sS'reconstruction'
p1845
I3217
sS'being'
p1846
I964
sS'when'
p1847
I791
sS'guided'
p1848
I3608
sS'unconstitutional'
p1849
I456
sS'actions'
p1850
I1071
sS'safeguards'
p1851
I1803
sS'misuse'
p1852
I1808
sS'civilized'
p1853
I1260
sS'kill'
p1854
I1253
sS'potentiality'
p1855
I1897
sS'positions'
p1856
I2520
sS'touch'
p1857
I4138
sS'minimized'
p1858
I3304
sS'speed'
p1859
I2578
sS'perilous'
p1860
I1339
sS'death'
p1861
I940
sS'grounded'
p1862
I1426
sS'womans'
p1863
I1958
sS'thinking'
p1864
I1412
sS'seems'
p1865
I1394
sS'except'
p1866
I2169
sS'improvement'
p1867
I3784
sS'interested'
p1868
I4083
sS'suppressed'
p1869
I3692
sS'treatment'
p1870
I921
sS'door'
p1871
I3653
sS'stateno'
p1872
I3234
sS'constant'
p1873
I3885
sS'republic'
p1874
I20
sS'extensive'
p1875
I3060
sS'structural'
p1876
I3919
sS'disrupt'
p1877
I3226
sS'disproportionate'
p1878
I3834
sS'real'
p1879
I278
sS'aspects'
p1880
I412
sS'around'
p1881
I806
sS'rules'
p1882
I816
sS'offence'
p1883
I247
sS'disappearance'
p1884
I2875
sS'early'
p1885
I890
sS'inflation'
p1886
I2928
sS'grid'
p1887
I2849
sS'preference'
p1888
I1163
sS'detract'
p1889
I4072
sS'schedules'
p1890
I2007
sS'reconfiguration'
p1891
I709
sS'using'
p1892
I86
sS'breakage'
p1893
I3372
sS'accepted'
p1894
I4007
sS'recipient'
p1895
I2072
sS'unjustifiable'
p1896
I3882
sS'ruled'
p1897
I1852
sS'meaning'
p1898
I3571
sS'legalised'
p1899
I821
sS'martyrs'
p1900
I4005
sS'terrorize'
p1901
I3828
sS'collective'
p1902
I49
sS'maintained'
p1903
I2477
sS'serves'
p1904
I1751
sS'desensitizing'
p1905
I379
sS'facing'
p1906
I2053
sS'benefit'
p1907
I1017
sS'either'
p1908
I1512
sS'fully'
p1909
I1762
sS'output'
p1910
I643
sS'dilution'
p1911
I3549
sS'reduced'
p1912
I537
sS'fulfil'
p1913
I4103
sS'homicides'
p1914
I2958
sS'jews'
p1915
I3998
sS'picture'
p1916
I3079
sS'tragedies'
p1917
I3162
sS'competition'
p1918
I2083
sS'privatization'
p1919
I3266
sS'indulged'
p1920
I4052
sS'refresh'
p1921
I4133
sS'demeaning'
p1922
I4091
sS'racial'
p1923
I992
sS'intact'
p1924
I1944
sS'generates'
p1925
I3000
sS'developmental'
p1926
I1436
sS'accidental'
p1927
I2221
sS'freer'
p1928
I1391
sS'unbelief'
p1929
I2328
sS'recorded'
p1930
I2292
sS'legal'
p1931
I828
sS'conservative'
p1932
I3314
sS'habits'
p1933
I892
sS'exit'
p1934
I3103
sS'deficit'
p1935
I2925
sS'provides'
p1936
I1419
sS'moderate'
p1937
I919
sS'freed'
p1938
I4145
sS'unethically'
p1939
I317
sS'scientific'
p1940
I2350
sS'power'
p1941
I119
sS'prosecution'
p1942
I1846
sS'equivalent'
p1943
I1912
sS'fitness'
p1944
I910
sS'communicate'
p1945
I3288
sS'broker'
p1946
I3878
sS'royals'
p1947
I1818
sS'tuition'
p1948
I3259
sS'notably'
p1949
I3773
sS'credits'
p1950
I3765
sS'leadership'
p1951
I1851
sS'found'
p1952
I1341
sS'strangled'
p1953
I3161
sS'stereotypes'
p1954
I362
sS'kids'
p1955
I3776
sS'on'
p1956
I269
sS'patent'
p1957
I2688
sS'central'
p1958
I2657
sS'origins'
p1959
I2134
sS'of'
p1960
I9
sS'industry'
p1961
I1526
sS'violence'
p1962
I281
sS'sustain'
p1963
I2613
sS'bonding'
p1964
I3415
sS'practical'
p1965
I401
sS'supervised'
p1966
I2003
sS'stand'
p1967
I1881
sS'act'
p1968
I230
sS'concentrations'
p1969
I2093
sS'invested'
p1970
I3897
sS'derailment'
p1971
I3225
sS'or'
p1972
I339
sS'fallacy'
p1973
I2305
sS'libel'
p1974
I3950
sS'burning'
p1975
I255
sS'inclusion'
p1976
I4088
sS'communication'
p1977
I3680
sS'spreading'
p1978
I3344
sS'escalated'
p1979
I4027
sS'authorities'
p1980
I1506
sS'involvement'
p1981
I2563
sS'determine'
p1982
I581
sS'parties'
p1983
I985
sS'speculated'
p1984
I679
sS'financial'
p1985
I2606
sS'playoff'
p1986
I4067
sS'jerusalem'
p1987
I3128
sS'your'
p1988
I883
sS'intervention'
p1989
I1138
sS'her'
p1990
I705
sS'area'
p1991
I1593
sS'bribes'
p1992
I2994
sS'assumed'
p1993
I2405
sS'strictly'
p1994
I793
sS'there'
p1995
I385
sS'hazards'
p1996
I3670
sS'racism'
p1997
I1173
sS'strict'
p1998
I815
sS'multinationality'
p1999
I1450
sS'low'
p2000
I1518
sS'lot'
p2001
I1273
sS'prepuce'
p2002
I3452
sS'deteriorating'
p2003
I3224
sS'cultures'
p2004
I898
sS'decisive'
p2005
I2244
sS'circumcised'
p2006
I3405
sS'displayed'
p2007
I3877
sS'enough'
p2008
I720
sS'reduce'
p2009
I642
sS'regard'
p2010
I3795
sS'delayed'
p2011
I3333
sS'societal'
p2012
I438
sS'genocidal'
p2013
I3995
sS'land'
p2014
I2772
sS'technologies'
p2015
I3752
sS'promote'
p2016
I376
sS'with'
p2017
I60
sS'hire'
p2018
I3754
sS'fraud'
p2019
I1630
sS'romantic'
p2020
I3352
sS'embedded'
p2021
I2089
sS'biodiversity'
p2022
I1366
sS'lawfully'
p2023
I3187
sS'resolving'
p2024
I4034
sS'extermination'
p2025
I3028
sS'emissions'
p2026
I2769
sS'dependents'
p2027
I2067
sS'tens'
p2028
I3858
sS'beliefs'
p2029
I378
sS'distributing'
p2030
I3787
sS'regimes'
p2031
I3024
sS'strongly'
p2032
I1989
sS'gone'
p2033
I786
sS'money'
p2034
I1554
sS'contributors'
p2035
I2607
sS'complicated'
p2036
I4151
sS'exhausted'
p2037
I3839
sS'certain'
p2038
I885
sS'censor'
p2039
I3735
sS'wartime'
p2040
I3723
sS'an'
p2041
I61
sS'as'
p2042
I333
sS'at'
p2043
I103
sS'aids'
p2044
I2550
sS'importing'
p2045
I2825
sS'lifetime'
p2046
I1563
sS'deterrent'
p2047
I2969
sS'match'
p2048
I4129
sS'dampens'
p2049
I3732
sS'incorrect'
p2050
I3983
sS'again'
p2051
I3044
sS'subversive'
p2052
I3686
sS'beyond'
p2053
I2444
sS'deserve'
p2054
I2233
sS'abolish'
p2055
I46
sS'field'
p2056
I832
sS'gambling'
p2057
I41
sS'you'
p2058
I1086
sS'pollutants'
p2059
I2828
sS'victimize'
p2060
I3944
sS'poor'
p2061
I76
sS'championship'
p2062
I4070
sS'ineligible'
p2063
I2459
sS'congress'
p2064
I2532
sS'separate'
p2065
I1345
sS'students'
p2066
I389
sS'symbol'
p2067
I1754
sS'contradicted'
p2068
I2353
sS'includes'
p2069
I1928
sS'zone'
p2070
I3820
sS'important'
p2071
I908
sS'peak'
p2072
I2781
sS'suited'
p2073
I1767
sS'conferred'
p2074
I1837
sS'included'
p2075
I975
sS'tendencies'
p2076
I300
sS'intimacy'
p2077
I3310
sS'pool'
p2078
I3505
sS'conclusive'
p2079
I305
sS'fiscal'
p2080
I2930
sS'assets'
p2081
I1140
sS'calls'
p2082
I3170
sS'infanticide'
p2083
I619
sS'controlled'
p2084
I1962
sS'colonialism'
p2085
I1845
sS'odds'
p2086
I1580
sS'collegiate'
p2087
I260
sS'gross'
p2088
I3620
sS'impossibility'
p2089
I820
sS'stockpile'
p2090
I2164
sS'u'
I2126
sS'profits'
p2091
I1631
sS'hugely'
p2092
I3788
sS'prerequisite'
p2093
I3633
sS'starting'
p2094
I1064
sS'original'
p2095
I1423
sS'caste'
p2096
I2090
sS'represent'
p2097
I3551
sS'all'
p2098
I48
sS'consider'
p2099
I436
sS'chinese'
p2100
I714
sS'complements'
p2101
I3967
sS'caused'
p2102
I658
sS'lack'
p2103
I601
sS'concern'
p2104
I2622
sS'unmeasurable'
p2105
I2880
sS'unrest'
p2106
I1970
sS'surgical'
p2107
I3411
sS'antagonize'
p2108
I4053
sS'welfare'
p2109
I2061
sS'partial'
p2110
I56
sS'expressions'
p2111
I1492
sS'adhere'
p2112
I1370
sS'religious'
p2113
I1477
sS'children'
p2114
I319
sS'causes'
p2115
I264
sS'synthetic'
p2116
I3071
sS'killers'
p2117
I3667
sS'altruism'
p2118
I3609
sS'catastrophe'
p2119
I3148
sS'subjected'
p2120
I3737
sS'okinawan'
p2121
I3403
sS'participants'
p2122
I4069
sS'opportunities'
p2123
I1141
sS'removal'
p2124
I3432
sS'to'
p2125
I13
sS'playeven'
p2126
I494
sS'program'
p2127
I726
sS'preserved'
p2128
I1373
sS'siblings'
p2129
I676
sS'subsides'
p2130
I3660
sS'believing'
p2131
I2332
sS'activities'
p2132
I180
sS'woman'
p2133
I1895
sS'worse'
p2134
I2647
sS'virtue'
p2135
I3799
sS'returning'
p2136
I3853
sS'very'
p2137
I814
sS'induce'
p2138
I2210
sS'blockade'
p2139
I156
sS'sons'
p2140
I2539
sS'worst'
p2141
I2493
sS'decide'
p2142
I458
sS'headgear'
p2143
I1234
sS'austerity'
p2144
I132
sS'condition'
p2145
I2327
sS'treating'
p2146
I3956
sS'anat'
p2147
I217
sS'biosequestration'
p2148
I3473
sS'benevolent'
p2149
I2317
sS'issue'
p2150
I1719
sS'applicable'
p2151
I3789
sS'large'
p2152
I638
sS'sane'
p2153
I3794
sS'small'
p2154
I996
sS'biological'
p2155
I354
sS'economically'
p2156
I1662
sS'embodying'
p2157
I1830
sS'tel'
p2158
I3126
sS'escalation'
p2159
I2211
sS'ten'
p2160
I804
sS'professing'
p2161
I3696
sS'past'
p2162
I977
sS'rate'
p2163
I534
sS'invention'
p2164
I2257
sS'design'
p2165
I2387
sS'pass'
p2166
I227
sS'coverage'
p2167
I3100
sS'further'
p2168
I754
sS'resettled'
p2169
I1669
sS'investment'
p2170
I2085
sS'creatures'
p2171
I2321
sS'conscience'
p2172
I3238
sS'harden'
p2173
I322
sS'what'
p2174
I408
sS'defence'
p2175
I2522
sS'assured'
p2176
I2086
sS'consumers'
p2177
I2049
sS'witnessed'
p2178
I432
sS'deeply'
p2179
I3569
sS'<EOS>'
p2180
I1
sS'attitudes'
p2181
I377
sS'instilling'
p2182
I1414
sS'destroyed'
p2183
I3779
sS'ongoing'
p2184
I2785
sS'learned'
p2185
I397
sS'method'
p2186
I202
sS'contrast'
p2187
I3908
sS'movement'
p2188
I1709
sS'unbearable'
p2189
I3889
sS'full'
p2190
I1081
sS'component'
p2191
I1446
sS'behaviour'
p2192
I382
sS'bloggers'
p2193
I174
sS'suicide'
p2194
I1564
sS'operating'
p2195
I2023
sS'tolerance'
p2196
I3559
sS'excess'
p2197
I949
sS'directions'
p2198
I3200
sS'strong'
p2199
I1337
sS'tragedy'
p2200
I3876
sS'criminality'
p2201
I1745
sS'unproven'
p2202
I2231
sS'leveling'
p2203
I1877
sS'difficulty'
p2204
I4112
sS'deviate'
p2205
I4115
sS'inspired'
p2206
I2363
sS'losses'
p2207
I1538
sS'allows'
p2208
I173
sS'experience'
p2209
I399
sS'fired'
p2210
I3826
sS'soldier'
p2211
I2509
sS'amount'
p2212
I701
sS'simply'
p2213
I1766
sS'published'
p2214
I841
sS'action'
p2215
I36
sS'narrow'
p2216
I750
sS'options'
p2217
I552
sS'authorize'
p2218
I2533
sS'via'
p2219
I942
sS'dire'
p2220
I2761
sS'family'
p2221
I584
sS'africa'
p2222
I2554
sS'backed'
p2223
I2833
sS'sanction'
p2224
I3034
sS'extinction'
p2225
I2873
sS'coercion'
p2226
I752
sS'select'
p2227
I342
sS'conventional'
p2228
I684
sS'ubermenschen'
p2229
I851
sS'takes'
p2230
I3081
sS'distinct'
p2231
I712
sS'turnout'
p2232
I2454
sS'two'
p2233
I706
sS'governance'
p2234
I2640
sS'generate'
p2235
I2757
sS'resident'
p2236
I3934
sS'cultivation'
p2237
I3658
sS'soil'
p2238
I3477
sS'taken'
p2239
I2512
sS'promoting'
p2240
I3577
sS'injury'
p2241
I1200
sS'affluence'
p2242
I905
sS'achieving'
p2243
I4104
sS'minor'
p2244
I2456
sS'more'
p2245
I320
sS'teen'
p2246
I3331
sS'israel'
p2247
I154
sS'delaying'
p2248
I3335
sS'erode'
p2249
I2639
sS'abridged'
p2250
I3714
sS'substances'
p2251
I843
sS'unworkable'
p2252
I1392
sS'company'
p2253
I1882
sS'problem'
p2254
I1545
sS'instrumental'
p2255
I2888
sS'excuse'
p2256
I3749
sS'flag'
p2257
I4038
sS'citizenry'
p2258
I641
sS'particular'
p2259
I1180
sS'known'
p2260
I1209
sS'foundations'
p2261
I2351
sS'producing'
p2262
I1976
sS'pleasing'
p2263
I2841
sS'helped'
p2264
I2612
sS'none'
p2265
I2414
sS'include'
p2266
I739
sS'offender'
p2267
I4111
sS'science'
p2268
I2358
sS'offended'
p2269
I3961
sS'remain'
p2270
I3032
sS'budgets'
p2271
I2585
sS'evolved'
p2272
I2370
sS'learn'
p2273
I897
sS'abandon'
p2274
I614
sS'strategies'
p2275
I2627
sS'male'
p2276
I189
sS'treaty'
p2277
I3384
sS'history'
p2278
I968
sS'civilizations'
p2279
I1453
sS'impacts'
p2280
I2820
sS'stated'
p2281
I3209
sS'gravely'
p2282
I3585
sS'abandonment'
p2283
I1422
sS'demcoracy'
p2284
I3017
sS'states'
p2285
I79
sS'contradicts'
p2286
I1775
sS'protects'
p2287
I2706
sS'numbers'
p2288
I2986
sS'sense'
p2289
I1294
sS'species'
p2290
I127
sS'homicide'
p2291
I2941
sS'huge'
p2292
I2163
sS'needs'
p2293
I738
sS'heeds'
p2294
I3169
sS'goal'
p2295
I622
sS'rather'
p2296
I435
sS'imminent'
p2297
I2170
sS'acts'
p2298
I483
sS'conducted'
p2299
I3824
sS'ratified'
p2300
I2167
sS'<PAD>'
p2301
I2
sS'occasionally'
p2302
I3719
sS'functioning'
p2303
I3433
sS'influences'
p2304
I370
sS'reject'
p2305
I3311
sS'stis'
p2306
I3295
sS'misallocates'
p2307
I2567
sS'plant'
p2308
I2777
sS'intended'
p2309
I970
sS'inflationary'
p2310
I2927
sS'rainforest'
p2311
I3530
sS'replace'
p2312
I1740
sS'tries'
p2313
I1292
sS'terrorist'
p2314
I1693
sS'countering'
p2315
I967
sS'accorded'
p2316
I1126
sS'develop'
p2317
I386
sS'ethics'
p2318
I2261
sS'inconceivable'
p2319
I2315
sS'compulsory'
p2320
I34
sS'proclaimed'
p2321
I3090
sS'a'
I120
sS'usurper'
p2322
I3679
sS'short'
p2323
I294
sS'crowded'
p2324
I2618
sS'prefers'
p2325
I109
sS'author'
p2326
I3599
sS'relation'
p2327
I3177
sS'supervision'
p2328
I1965
sS'blasphemous'
p2329
I3949
sS'ignores'
p2330
I4150
sS'negligible'
p2331
I1135
sS'fundamental'
p2332
I1083
sS'media'
p2333
I358
sS'banks'
p2334
I1637
sS'pleasure'
p2335
I3461
sS'lasting'
p2336
I3879
sS'dream'
p2337
I4096
sS'playing'
p2338
I338
sS'enslavement'
p2339
I2247
sS'infant'
p2340
I190
sS'mexican'
p2341
I2131
sS'help'
p2342
I388
sS'swamped'
p2343
I2625
sS'developed'
p2344
I2571
sS'charities'
p2345
I1633
sS'trade'
p2346
I110
sS'disabled'
p2347
I3756
sS'held'
p2348
I1827
sS'through'
p2349
I508
sS'predisposed'
p2350
I4119
sS'committed'
p2351
I3398
sS'existence'
p2352
I2250
sS'turbine'
p2353
I2834
sS'suffer'
p2354
I876
sS'its'
p2355
I131
sS'environmentally'
p2356
I3067
sS'rapidly'
p2357
I3531
sS'render'
p2358
I2499
sS'susceptible'
p2359
I1629
sS'gamesespecially'
p2360
I480
sS'border'
p2361
I3890
sS'solving'
p2362
I1402
sS'actually'
p2363
I289
sS'absence'
p2364
I2284
sS'parts'
p2365
I3459
sS'systems'
p2366
I1485
sS'bypass'
p2367
I3275
sS'bout'
p2368
I1224
sS'might'
p2369
I1836
sS'hurting'
p2370
I1264
sS'good'
p2371
I891
sS'somebody'
p2372
I1001
sS'seeking'
p2373
I1107
sS'food'
p2374
I2854
sS'males'
p2375
I66
sS'socially'
p2376
I1134
sS'redistribute'
p2377
I2037
sS'prejudices'
p2378
I1172
sS'reflected'
p2379
I1175
sS'usarj'
p2380
I3386
sS'snowball'
p2381
I3097
sS'imperil'
p2382
I1948
sS'permissible'
p2383
I3328
sS'communities'
p2384
I77
sS'linking'
p2385
I3174
sS'association'
p2386
I1862
sS'easily'
p2387
I1522
sS'solves'
p2388
I2592
sS'imprisoned'
p2389
I4006
sS'pregnant'
p2390
I1901
sS'always'
p2391
I1324
sS'judgments'
p2392
I3648
sS'presented'
p2393
I3425
sS'truths'
p2394
I2432
sS'evade'
p2395
I176
sS'someone'
p2396
I3562
sS'inequality'
p2397
I1075
sS'apartheid'
p2398
I2191
sS'inherent'
p2399
I1072
sS'intolerable'
p2400
I3218
sS'lifestyles'
p2401
I1625
sS'heavy'
p2402
I470
sS'injured'
p2403
I1227
sS'harm'
p2404
I152
sS'everyone'
p2405
I917
sS'england'
p2406
I159
sS'mental'
p2407
I808
sS'weight'
p2408
I911
sS'generation'
p2409
I2066
sS'house'
p2410
I4
sS'energy'
p2411
I124
sS'hard'
p2412
I2054
sS'oppressed'
p2413
I1159
sS'idea'
p2414
I1059
sS'police'
p2415
I4062
sS'oil'
p2416
I3059
sS'populist'
p2417
I3271
sS'inflict'
p2418
I1267
sS'doses'
p2419
I875
sS'operation'
p2420
I2770
sS'standards'
p2421
I629
sS'distributive'
p2422
I2076
sS'theologians'
p2423
I3947
sS'really'
p2424
I2143
sS'repressive'
p2425
I3022
sS'funding'
p2426
I2610
sS'missed'
p2427
I1523
sS'ritual'
p2428
I3428
sS'since'
p2429
I548
sS'publish'
p2430
I3716
sS'research'
p2431
I169
sS'acting'
p2432
I3837
sS'safety'
p2433
I839
sS'induced'
p2434
I1917
sS'evaluation'
p2435
I1035
sS'occurs'
p2436
I931
sS'conceived'
p2437
I2437
sS'belief'
p2438
I1547
sS'causally'
p2439
I335
sS'circumstance'
p2440
I1957
sS'favored'
p2441
I1144
sS'houses'
p2442
I3909
sS'reason'
p2443
I593
sS'base'
p2444
I2686
sS'members'
p2445
I1024
sS'put'
p2446
I880
sS'teach'
p2447
I181
sS'rises'
p2448
I240
sS'beginning'
p2449
I1905
sS'sedentary'
p2450
I945
sS'curtailed'
p2451
I3851
sS'driven'
p2452
I1642
sS'benefits'
p2453
I429
sS'perceptible'
p2454
I2272
sS'persists'
p2455
I3173
sS'running'
p2456
I3848
sS'american'
p2457
I228
sS'prejudice'
p2458
I1161
sS'threat'
p2459
I757
sS'disincentive'
p2460
I2672
sS'consequence'
p2461
I3156
sS'corrupting'
p2462
I4156
sS'lawsuits'
p2463
I2690
sS'major'
p2464
I779
sS'unhealthy'
p2465
I3676
sS'probability'
p2466
I1519
sS'upper'
p2467
I2542
sS'feel'
p2468
I1622
sS'knocking'
p2469
I1248
sS'number'
p2470
I671
sS'preservation'
p2471
I3710
sS'antiquity'
p2472
I1748
sS'instances'
p2473
I785
sS'general'
p2474
I2908
sS'done'
p2475
I2653
sS'construct'
p2476
I2368
sS'fees'
p2477
I3260
sS'wages'
p2478
I1736
sS'hollows'
p2479
I2593
sS'miss'
p2480
I2028
sS'militant'
p2481
I3194
sS'differ'
p2482
I2991
sS'adherents'
p2483
I3957
sS'gazans'
p2484
I3832
sS'utilization'
p2485
I3528
sS'leading'
p2486
I938
sS'threatening'
p2487
I3523
sS'least'
p2488
I273
sS'tradition'
p2489
I1811
sS'intense'
p2490
I2412
sS'acknowledgment'
p2491
I2336
sS'regulation'
p2492
I1515
sS'station'
p2493
I105
sS'expand'
p2494
I2451
sS'statement'
p2495
I3048
sS'wildlife'
p2496
I3074
sS'scheme'
p2497
I233
sS'challenge'
p2498
I2996
sS'recovered'
p2499
I2160
sS'shifted'
p2500
I1482
sS'imperfect'
p2501
I2322
sS'option'
p2502
I3010
sS'relationship'
p2503
I337
sS'trapped'
p2504
I3871
sS'helpful'
p2505
I2648
sS'mentality'
p2506
I1347
sS'immediate'
p2507
I1850
sS'obsolete'
p2508
I2714
sS'appreciation'
p2509
I1476
sS'part'
p2510
I349
sS'favorable'
p2511
I1099
sS'doctors'
p2512
I1939
sS'focusing'
p2513
I3330
sS'imposing'
p2514
I3151
sS'believe'
p2515
I2236
sS'ecotourism'
p2516
I2869
sS'analgesia'
p2517
I3406
sS'std'
p2518
I3364
sS'financing'
p2519
I2138
sS'assaulted'
p2520
I2956
sS'iranian'
p2521
I3122
sS'double'
p2522
I862
sS'intermittent'
p2523
I2847
sS'sti'
p2524
I3563
sS'aims'
p2525
I1094
sS'finances'
p2526
I3774
sS'youth'
p2527
I302
sS'determined'
p2528
I2952
sS'contrary'
p2529
I1842
sS'risks'
p2530
I873
sS'toward'
p2531
I1030
sS'treated'
p2532
I1044
sS'kilometers'
p2533
I3125
sS'risky'
p2534
I3342
sS'motivation'
p2535
I687
sS'obstacles'
p2536
I1103
sS'minds'
p2537
I3615
sS'contraception'
p2538
I210
sS'imports'
p2539
I2851
sS'organisations'
p2540
I3744
sS'defect'
p2541
I4154
sS'affirmative'
p2542
I35
sS'relieve'
p2543
I2643
sS'substantial'
p2544
I2018
sS'servitude'
p2545
I2489
sS'categorized'
p2546
I3636
sS'pipelines'
p2547
I3062
sS'concentration'
p2548
I3221
sS'vulnerable'
p2549
I2038
sS'lie'
p2550
I4110
sS'built'
p2551
I2010
sS'zero'
p2552
I2843
sS'refute'
p2553
I2286
sS'self'
p2554
I2947
sS'interferes'
p2555
I3455
sS'accountable'
p2556
I1798
sS'reliance'
p2557
I2198
sS'majority'
p2558
I1021
sS'costs'
p2559
I722
sS'build'
p2560
I146
sS'genetically'
p2561
I4118
sS'donor'
p2562
I2071
sS'passively'
p2563
I3865
sS'play'
p2564
I348
sS'towards'
p2565
I65
sS'critics'
p2566
I1934
sS'serve'
p2567
I1690
sS'victim'
p2568
I2968
sS'measures'
p2569
I133
sS'reach'
p2570
I2052
sS'quota'
p2571
I1147
sS'exempted'
p2572
I1708
sS'most'
p2573
I200
sS'sponsored'
p2574
I1043
sS'plan'
p2575
I3590
sS'significant'
p2576
I700
sS'dynamic'
p2577
I3510
sS'services'
p2578
I1657
sS'accepting'
p2579
I1461
sS'infrastructures'
p2580
I2573
sS'extremely'
p2581
I796
sS'approved'
p2582
I1955
sS'achievement'
p2583
I686
sS'intervenes'
p2584
I1196
sS'reward'
p2585
I2701
sS'unequal'
p2586
I1472
sS'dealers'
p2587
I2130
sS'confers'
p2588
I3367
sS'unsupervised'
p2589
I2004
sS'clear'
p2590
I1251
sS'sometimes'
p2591
I143
sS'cover'
p2592
I1644
sS'unreasonable'
p2593
I2716
sS'devalue'
p2594
I2377
sS'traditional'
p2595
I1829
sS'bodies'
p2596
I780
sS'clean'
p2597
I2835
sS'hindrance'
p2598
I3720
sS'warming'
p2599
I3481
sS'weigh'
p2600
I3421
sS'fetal'
p2601
I1943
sS'blend'
p2602
I1379
sS'institutions'
p2603
I1663
sS'sector'
p2604
I2562
sS'particularly'
p2605
I3277
sS'monopolise'
p2606
I3797
sS'obligations'
p2607
I2430
sS'commissions'
p2608
I1228
sS'industrialized'
p2609
I2605
sS'authors'
p2610
I2720
sS'celebrities'
p2611
I1819
sS'norms'
p2612
I4127
sS'businesses'
p2613
I1873
sS'expressed'
p2614
I3726
sS'entity'
p2615
I2307
sS'stores'
p2616
I2137
sS'degraded'
p2617
I3490
sS'hereditary'
p2618
I1792
sS'find'
p2619
I1746
sS'dilation'
p2620
I1945
sS'impact'
p2621
I1136
sS'indicator'
p2622
I3106
sS'stifle'
p2623
I2741
sS'regulations'
p2624
I452
sS'delinquent'
p2625
I4106
sS'copyright'
p2626
I2705
sS'justice'
p2627
I2091
sS'firefighters'
p2628
I3905
sS'heavily'
p2629
I1513
sS'distributed'
p2630
I2762
sS'incidence'
p2631
I3294
sS'technologically'
p2632
I3050
sS'failed'
p2633
I1281
sS'dysfunctional'
p2634
I1635
sS'factor'
p2635
I1154
sS'override'
p2636
I1900
sS'harmed'
p2637
I2553
sS'?'
I4158
sS'his'
p2638
I704
sS'dominant'
p2639
I1040
sS'gains'
p2640
I3492
sS'hiv'
p2641
I3357
sS'dependent'
p2642
I2577
sS'slandering'
p2643
I4014
sS'banned'
p2644
I17
sS'express'
p2645
I1286
sS'trees'
p2646
I3471
sS'informants'
p2647
I1691
sS'remedy'
p2648
I2534
sS'grew'
p2649
I3913
sS'valuable'
p2650
I1372
sS'theft'
p2651
I1555
sS'shared'
p2652
I3931
sS'during'
p2653
I1034
sS'intensify'
p2654
I2073
sS'unrestricted'
p2655
I2763
sS'target'
p2656
I3816
sS'militants'
p2657
I3892
sS'enemy'
p2658
I1787
sS'adulthood'
p2659
I895
sS'roles'
p2660
I2911
sS'distasteful'
p2661
I3969
sS'collapsed'
p2662
I3136
sS'violent'
p2663
I10
sS'remove'
p2664
I185
sS'moralizing'
p2665
I3315
sS'sacrifices'
p2666
I2937
sS'common'
p2667
I488
sS'inefficient'
p2668
I2034
sS'activity'
p2669
I309
sS'sustainable'
p2670
I1497
sS'consciously'
p2671
I1913
sS'proportion'
p2672
I4089
sS'inferior'
p2673
I2384
sS'set'
p2674
I1503
sS'aspect'
p2675
I3003
sS'adopt'
p2676
I3284
sS'achieved'
p2677
I560
sS'intelligence'
p2678
I387
sS'carrying'
p2679
I2949
sS'activists'
p2680
I3276
sS'<SOS>'
p2681
I0
sS'sex'
p2682
I183
sS'culture'
p2683
I982
sS'see'
p2684
I1457
sS'individual'
p2685
I380
sS'are'
p2686
I199
sS'sacred'
p2687
I3960
sS'close'
p2688
I2871
sS'disseminating'
p2689
I3978
sS'arm'
p2690
I2970
sS'locals'
p2691
I3402
sS'threats'
p2692
I2217
sS'bandwagon'
p2693
I3096
sS'distinctive'
p2694
I1384
sS'century'
p2695
I2374
sS'currently'
p2696
I3058
sS'electoral'
p2697
I2466
sS'unions'
p2698
I55
sS'smallest'
p2699
I2982
sS'various'
p2700
I441
sS'probably'
p2701
I567
sS'avoidance'
p2702
I3355
sS'conditions'
p2703
I916
sS'corruption'
p2704
I1344
sS'thrive'
p2705
I2886
sS'supposed'
p2706
I1120
sS'available'
p2707
I849
sS'breaches'
p2708
I4048
sS'recently'
p2709
I4029
sS'hardship'
p2710
I1689
sS'unconscious'
p2711
I1249
sS'targeted'
p2712
I3827
sS'commercial'
p2713
I1500
sS'attention'
p2714
I2026
sS'figurehead'
p2715
I1753
sS'poorer'
p2716
I2635
sS'peacetime'
p2717
I3725
sS'respondents'
p2718
I3083
sS'succeed'
p2719
I749
sS'turning'
p2720
I2559
sS'opposition'
p2721
I1725
sS'rarer'
p2722
I1193
sS'distinguish'
p2723
I3640
sS'okinawa'
p2724
I3378
sS'both'
p2725
I293
sS'prospects'
p2726
I2529
sS'feeling'
p2727
I1771
sS'tangible'
p2728
I428
sS'reverse'
p2729
I852
sS'secrets'
p2730
I3637
sS'powers'
p2731
I1782
sS'foreign'
p2732
I167
sS'orthodoxly'
p2733
I2436
sS'characterised'
p2734
I2190
sS'connection'
p2735
I451
sS'improves'
p2736
I906
sS'gamblers'
p2737
I1536
sS'context'
p2738
I437
sS'boxers'
p2739
I1239
sS'focused'
p2740
I4024
sS'bond'
p2741
I4126
sS'whole'
p2742
I1369
sS'finds'
p2743
I3707
sS'insurance'
p2744
I3450
sS'regulates'
p2745
I3651
sS'consume'
p2746
I2801
sS'study'
p2747
I2878
sS'supply'
p2748
I125
sS'reasons'
p2749
I2330
sS'congestion'
p2750
I1695
sS'community'
p2751
I1304
sS'newborn'
p2752
I3468
sS'agents'
p2753
I822
sS'adaptation'
p2754
I1323
sS'church'
p2755
I158
sS'creeds'
p2756
I3946
sS'doping'
p2757
I800
sS'gazas'
p2758
I3134
sS'throughout'
p2759
I2291
sS'suppressing'
p2760
I1735
sS'along'
p2761
I1744
sS'expensive'
p2762
I1799
sS'decline'
p2763
I853
sS'ensures'
p2764
I2755
sS'described'
p2765
I2977
sS'enhancements'
p2766
I846
sS'incomes'
p2767
I2092
sS'create'
p2768
I1490
sS'acceptance'
p2769
I1318
sS'political'
p2770
I1343
sS'due'
p2771
I1167
sS'whom'
p2772
I4152
sS'reduction'
p2773
I532
sS'initiation'
p2774
I3334
sS'ensured'
p2775
I840
sS'maintenance'
p2776
I1495
sS'omniscient'
p2777
I2274
sS'preventable'
p2778
I939
sS'intrusive'
p2779
I551
sS'territory'
p2780
I3158
sS'attractive'
p2781
I4102
sS'generating'
p2782
I2812
sS'referee'
p2783
I1195
sS'boy'
p2784
I3451
sS'fire'
p2785
I3852
sS'cyborg'
p2786
I845
sS'propositions'
p2787
I2232
sS'gas'
p2788
I2768
sS'gap'
p2789
I2081
sS'fund'
p2790
I231
sS'moderation'
p2791
I3143
sS'races'
p2792
I994
sS'lives'
p2793
I637
sS'representative'
p2794
I2536
sS'systematic'
p2795
I2154
sS'demand'
p2796
I1655
sS'prices'
p2797
I2048
sS'condoms'
p2798
I3555
sS'towns'
p2799
I3891
sS'heighten'
p2800
I2447
sS'plants'
p2801
I3503
sS'replaces'
p2802
I1112
sS'conception'
p2803
I1906
sS'reliable'
p2804
I2814
sS'tolerate'
p2805
I1479
sS'holocaust'
p2806
I244
sS'recall'
p2807
I4147
sS'medically'
p2808
I1938
sS'while'
p2809
I1898
sS'sexuality'
p2810
I741
sS'pressed'
p2811
I2287
sS'behavior'
p2812
I285
sS'endanger'
p2813
I3642
sS'fundamentally'
p2814
I2479
sS'grip'
p2815
I3144
sS'casino'
p2816
I1573
sS'costly'
p2817
I2471
sS'hoping'
p2818
I3091
sS'voters'
p2819
I99
sS'guilty'
p2820
I3835
sS'binding'
p2821
I2433
sS'rip'
p2822
I4130
sS'rulers'
p2823
I3040
sS'obstacle'
p2824
I625
sS'unproportionally'
p2825
I3874
sS'ready'
p2826
I3807
sS'rid'
p2827
I2196
sS'south'
p2828
I3823
sS'fairer'
p2829
I1420
sS'ethnicity'
p2830
I1387
sS'antidiscrimination'
p2831
I1037
sS'strikes'
p2832
I3821
sS'justification'
p2833
I2443
sS'paying'
p2834
I2939
sS'lengths'
p2835
I1643
sS'belong'
p2836
I1008
sS'port'
p2837
I3123
sS'emphasize'
p2838
I1481
sS'widely'
p2839
I2096
sS'peoples'
p2840
I1397
sS'wasteland'
p2841
I3479
sS'products'
p2842
I2598
sS'advise'
p2843
I1217
sS'dozen'
p2844
I3124
sS'conflict'
p2845
I1408
sS'higher'
p2846
I660
sS'development'
p2847
I573
sS'used'
p2848
I631
sS'temporary'
p2849
I274
sS'tower'
p2850
I3915
sS'affairs'
p2851
I4155
sS'comprehensive'
p2852
I3299
sS'painless'
p2853
I1617
sS'flows'
p2854
I3638
sS'levels'
p2855
I1726
sS'uses'
p2856
I2771
sS'purpose'
p2857
I1876
sS'necessity'
p2858
I2824
sS'aggregate'
p2859
I1654
sS'yuan'
p2860
I1981
sS'focal'
p2861
I1810
sS'lower'
p2862
I2078
sS'task'
p2863
I3292
sS'bonds'
p2864
I4114
sS'older'
p2865
I586
sS'halve'
p2866
I3491
sS'anybody'
p2867
I878
sS'person'
p2868
I498
sS'presumptively'
p2869
I453
sS'regulating'
p2870
I2157
sS'patents'
p2871
I2680
sS'consistency'
p2872
I2289
sS'organization'
p2873
I3182
sS'chemistry'
p2874
I1534
sS'spend'
p2875
I1647
sS'prevention'
p2876
I819
sS'authoritatively'
p2877
I2334
sS'fbs'
p2878
I4078
sS'presume'
p2879
I3325
sS'reliant'
p2880
I2894
sS'settlements'
p2881
I1886
sS'competitive'
p2882
I829
sS'quarters'
p2883
I2484
sS'okinawans'
p2884
I3400
sS'intervals'
p2885
I2809
sS'questions'
p2886
I3650
sS'world'
p2887
I279
sS'regardless'
p2888
I1702
sS'alternative'
p2889
I1640
sS'fornication'
p2890
I3574
sS'injuries'
p2891
I1236
sS'uselessly'
p2892
I2581
sS'timber'
p2893
I3507
sS'profitable'
p2894
I2158
sS'impetus'
p2895
I1089
sS'retirement'
p2896
I590
sS'morals'
p2897
I2356
sS'also'
p2898
I364
sS'reap'
p2899
I4037
sS'workers'
p2900
I1863
sS'guaranteed'
p2901
I2726
sS'recommended'
p2902
I3557
sS'exclusively'
p2903
I3370
sS'source'
p2904
I1832
sS'governmental'
p2905
I3241
sS'causing'
p2906
I443
sS'parents'
p2907
I68
sS'questioned'
p2908
I672
sS'problematic'
p2909
I2591
sS'circumcision'
p2910
I191
sS'violations'
p2911
I2491
sS'impoverished'
p2912
I2105
sS'remaining'
p2913
I2915
sS'conscription'
p2914
I2472
sS'associations'
p2915
I1261
sS'apartment'
p2916
I3895
sS'manage'
p2917
I2057
sS'motivating'
p2918
I2337
sS'constitutions'
p2919
I1839
sS'adversaries'
p2920
I3377
sS'demands'
p2921
I1785
sS'conformed'
p2922
I3186
sS'discriminatory'
p2923
I3741
sS'unlimited'
p2924
I3700
sS'matters'
p2925
I740
sS'suffering'
p2926
I367
sS'geneva'
p2927
I3172
sS'clout'
p2928
I2121
sS'ecosystems'
p2929
I2892
sS'entrenched'
p2930
I4144
sS'projects'
p2931
I2794
sS'formal'
p2932
I1820
sS'traffickers'
p2933
I2139
sS'knock'
p2934
I1202
sS'outright'
p2935
I818
sS'imposed'
p2936
I3138
sS'cognitive'
p2937
I960
sS'shaped'
p2938
I3447
sS'systematically'
p2939
I2339
sS'follows'
p2940
I2429
sS'multicultural'
p2941
I1330
sS'translates'
p2942
I2099
sS'consensus'
p2943
I1427
sS'deleterious'
p2944
I2590
sS'individuals'
p2945
I1151
sS'unstable'
p2946
I2611
sS'popular'
p2947
I1598
sS'tribes'
p2948
I3533
sS'nominees'
p2949
I3546
sS'disorder'
p2950
I1540
sS'essential'
p2951
I1283
sS'logically'
p2952
I2308
sS'often'
p2953
I799
sS'absolutely'
p2954
I2530
sS'unenforced'
p2955
I787
sS'creation'
p2956
I163
sS'some'
p2957
I287
sS'back'
p2958
I1063
sS'underdeveloped'
p2959
I2586
sS'martial'
p2960
I859
sS'strongest'
p2961
I1306
sS'economic'
p2962
I530
sS'pricing'
p2963
I1870
sS'nuclearization'
p2964
I3805
sS'amicable'
p2965
I1885
sS'gradually'
p2966
I1210
sS'scale'
p2967
I1352
sS'aerobic'
p2968
I913
sS'affects'
p2969
I3414
sS'decision'
p2970
I463
sS'shall'
p2971
I3712
sS'compounds'
p2972
I3669
sS'integration'
p2973
I1321
sS'per'
p2974
I644
sS'firearm'
p2975
I2974
sS'conditionally'
p2976
I2600
sS'religion'
p2977
I2239
sS'behave'
p2978
I2400
sS'eliminate'
p2979
I987
sS'prosecuted'
p2980
I1857
sS'innovation'
p2981
I664
sS'fragments'
p2982
I1298
sS'inclination'
p2983
I3623
sS'be'
p2984
I16
sS'inconvenience'
p2985
I2457
sS'run'
p2986
I1570
sS'overexploitation'
p2987
I3526
sS'erogenous'
p2988
I3453
sS'dictates'
p2989
I2538
sS'obscures'
p2990
I1351
sS'confidence'
p2991
I1416
sS'step'
p2992
I1761
sS'viewpoints'
p2993
I4009
sS'concealed'
p2994
I2944
sS'lasts'
p2995
I2630
sS'served'
p2996
I2739
sS'lottery'
p2997
I1571
sS'by'
p2998
I53
sS'wealth'
p2999
I2094
sS'faith'
p3000
I2338
sS'pipeline'
p3001
I149
sS'goods'
p3002
I1656
sS'blockaded'
p3003
I3192
sS'anything'
p3004
I3617
sS'soft'
p3005
I4030
sS'monarchical'
p3006
I1780
sS'firing'
p3007
I3849
sS'ceremonial'
p3008
I1752
sS'deserves'
p3009
I3868
sS'range'
p3010
I871
sS'regular'
p3011
I900
sS'militia'
p3012
I2954
sS'idf'
p3013
I3819
sS'experiences'
p3014
I2029
sS'hatred'
p3015
I3972
sS'block'
p3016
I2467
sS'pollution'
p3017
I2792
sS'credible'
p3018
I2331
sS'disclosure'
p3019
I2744
sS'conserving'
p3020
I2918
sS'letter'
p3021
I3964
sS'terrorists'
p3022
I2203
sS'into'
p3023
I746
sS'within'
p3024
I512
sS'integral'
p3025
I2876
sS'nothing'
p3026
I2300
sS'appropriate'
p3027
I459
sS'controversies'
p3028
I4087
sS'primarily'
p3029
I1026
sS'conscientious'
p3030
I2474
sS'contributor'
p3031
I3073
sS'bankruptcy'
p3032
I1652
sS'realisation'
p3033
I3289
sS'wrongs'
p3034
I1114
sS'propel'
p3035
I4076
sS'blockades'
p3036
I3180
sS'spending'
p3037
I2122
sS'exposed'
p3038
I3518
sS'question'
p3039
I1133
sS'specifically'
p3040
I356
sS'accountability'
p3041
I1784
sS'atheists'
p3042
I2235
sS'vendors'
p3043
I3777
sS'infected'
p3044
I3560
sS'heritage'
p3045
I1378
sS'conceivable'
p3046
I4055
sS'opponent'
p3047
I1268
sS'fragmented'
p3048
I2684
sS'withholding'
p3049
I3627
sS'himself'
p3050
I1247
sS'elsewhere'
p3051
I3619
sS'jewish'
p3052
I1501
sS'registered'
p3053
I2979
sS'anywhere'
p3054
I3290
sS'immigration'
p3055
I1322
sS'archaic'
p3056
I1800
sS'properly'
p3057
I2545
sS'link'
p3058
I306
sS'repeatedly'
p3059
I3094
sS'forbidding'
p3060
I207
sS'line'
p3061
I2960
sS'active'
p3062
I966
sS'considerable'
p3063
I2521
sS'raising'
p3064
I211
sS'directed'
p3065
I2546
sS'persisting'
p3066
I1471
sS'consist'
p3067
I1680
sS'characteristic'
p3068
I1097
sS'up'
p3069
I1307
sS'us'
p3070
I84
sS'historically'
p3071
I3104
sS'planet'
p3072
I3065
sS'maturity'
p3073
I2515
sS'slander'
p3074
I3739
sS'growth'
p3075
I531
sS'accustomed'
p3076
I3582
sS'uk'
p3077
I166
sS'desire'
p3078
I3610
sS'similar'
p3079
I1543
sS'called'
p3080
I1262
sS'humanitarian'
p3081
I1688
sS'associated'
p3082
I311
sS'adults'
p3083
I329
sS'bureaucracy'
p3084
I2988
sS'defined'
p3085
I1704
sS'unsociable'
p3086
I3923
sS'influence'
p3087
I375
sS'consigned'
p3088
I2422
sS'globally'
p3089
I953
sS'divisive'
p3090
I1349
sS'single'
p3091
I594
sS'diverse'
p3092
I1303
sS'organizational'
p3093
I2219
sS'multiculturalist'
p3094
I1390
sS'denying'
p3095
I2249
sS'predictability'
p3096
I2776
sS'divine'
p3097
I2263
sS'amounts'
p3098
I1585
sS'inequities'
p3099
I1170
sS'prerogative'
p3100
I1781
sS'cohesive'
p3101
I1129
sS'backs'
p3102
I3208
sS'invalid'
p3103
I454
sS'preventing'
p3104
I2224
sS'application'
p3105
I1700
sS'politicians'
p3106
I1809
sS'reputation'
p3107
I3914
sS'electrical'
p3108
I2784
sS'transport'
p3109
I3076
sS'income'
p3110
I1531
sS'irreplaceable'
p3111
I2889
sS'accept'
p3112
I3866
sS'explaining'
p3113
I2371
sS'elements'
p3114
I1308
sS'users'
p3115
I872
sS'reportedly'
p3116
I2008
sS'provided'
p3117
I1724
sS'problems'
p3118
I490
sS'prepared'
p3119
I1665
sS'helping'
p3120
I528
sS'generated'
p3121
I1576
sS'restoration'
p3122
I3033
sS'allowing'
p3123
I2674
sS'armed'
p3124
I2523
sS'restrained'
p3125
I3746
sS'structure'
p3126
I711
sS'feasible'
p3127
I2735
sS'independently'
p3128
I3257
sS'deterrence'
p3129
I2199
sS'implies'
p3130
I2242
sS'disbelief'
p3131
I2234
sS'reasoned'
p3132
I3249
sS'organism'
p3133
I2899
sS'age'
p3134
I214
sS'required'
p3135
I1252
sS'turbines'
p3136
I2800
sS'attacking'
p3137
I2207
sS'federally'
p3138
I2615
sS'correlates'
p3139
I277
sS'presenting'
p3140
I2455
sS'teachings'
p3141
I2354
sS'menace'
p3142
I3791
sS'requires'
p3143
I984
sS'having'
p3144
I703
sS'once'
p3145
I847
sS'inflates'
p3146
I2922
sS'minors'
p3147
I14
sS'restraining'
p3148
I4033
sS'results'
p3149
I330
sS'existing'
p3150
I1731
sS'alien'
p3151
I1727
sS'farms'
p3152
I2797
sS'broader'
p3153
I3300
sS'go'
p3154
I932
sS'contributions'
p3155
I2617
sS'issues'
p3156
I651
sS'gases'
p3157
I2837
sS'breached'
p3158
I3813
sS'animal'
p3159
I3512
sS'dissidents'
p3160
I3971
sS'young'
p3161
I328
sS'send'
p3162
I3785
sS'suits'
p3163
I767
sS'critical'
p3164
I1411
sS'helps'
p3165
I542
sS'excluded'
p3166
I357
sS'stable'
p3167
I623
sS'discretion'
p3168
I3439
sS'dislike'
p3169
I1823
sS'women'
p3170
I546
sS'fairness'
p3171
I2537
sS'resources'
p3172
I602
sS'brigade'
p3173
I3926
sS'restricting'
p3174
I3730
sS'mainstream'
p3175
I3280
sS'continues'
p3176
I1174
sS'valued'
p3177
I1443
sS'chooses'
p3178
I3213
sS'continued'
p3179
I571
sS'entire'
p3180
I2465
sS'recreation'
p3181
I1528
sS'eased'
p3182
I3114
sS'transmission'
p3183
I1277
sS'gender'
p3184
I522
sS'marry'
p3185
I1974
sS'sanctions'
p3186
I3015
sS'anachronistic'
p3187
I2525
sS'fewer'
p3188
I688
sS'try'
p3189
I3084
sS'race'
p3190
I1050
sS'catastrophes'
p3191
I1404
sS'polling'
p3192
I104
sS'avoiding'
p3193
I3246
sS'comprise'
p3194
I1452
sS'obesity'
p3195
I907
sS'enforce'
p3196
I266
sS'solutions'
p3197
I2564
sS'limitations'
p3198
I3734
sS'smaller'
p3199
I2802
sS'compensated'
p3200
I2656
sS'bleeding'
p3201
I3464
sS'recruitment'
p3202
I2517
sS'imply'
p3203
I3327
sS'video'
p3204
I11
sS'premarital'
p3205
I3323
sS'makers'
p3206
I2933
sS'depression'
p3207
I922
sS'curricula'
p3208
I3329
sS'universities'
p3209
I165
sS'reconciliation'
p3210
I1077
sS'plays'
p3211
I947
sS'business'
p3212
I1600
sS'saw'
p3213
I3916
sS'reaching'
p3214
I3120
sS'exacerbate'
p3215
I1611
sS'availability'
p3216
I1722
sS'access'
p3217
I2046
sS'consistently'
p3218
I2934
sS'punishment'
p3219
I3115
sS'costing'
p3220
I2817
sS'referees'
p3221
I1222
sS'renders'
p3222
I2254
sS'exercise'
p3223
I901
sS'body'
p3224
I1923
sS'completion'
p3225
I3064
sS'nominee'
p3226
I3536
sS'proliferation'
p3227
I2177
sS'led'
p3228
I751
sS'degree'
p3229
I416
sS'exchange'
p3230
I3501
sS'spacing'
p3231
I557
sS'sins'
p3232
I3594
sS'highly'
p3233
I1926
sS'desired'
p3234
I633
sS'poverty'
p3235
I640
sS'separation'
p3236
I3233
sS'others'
p3237
I775
sS'consideration'
p3238
I1033
sS'safer'
p3239
I1937
sS'implicit'
p3240
I3790
sS'extreme'
p3241
I607
sS'great'
p3242
I526
sS'engage'
p3243
I926
sS'receive'
p3244
I592
sS'involved'
p3245
I697
sS'guarantor'
p3246
I1807
sS'larger'
p3247
I646
sS'leaving'
p3248
I213
sS'suggests'
p3249
I2434
sS'resulting'
p3250
I2345
sS'opinion'
p3251
I150
sS'implement'
p3252
I258
sS'breeds'
p3253
I2101
sS'makes'
p3254
I1400
sS'delays'
p3255
I2999
sS'involves'
p3256
I1532
sS'balances'
p3257
I1834
sS'danger'
p3258
I788
sS'forbid'
p3259
I2948
sS'win'
p3260
I1550
sS'terrified'
p3261
I1681
sS'impedes'
p3262
I2993
sS'private'
p3263
I164
sS'outcomes'
p3264
I3341
sS'improbable'
p3265
I2391
sS'sovereignty'
p3266
I3604
sS'decrease'
p3267
I699
sS'frighten'
p3268
I2258
sS'contracting'
p3269
I3368
sS'tools'
p3270
I2045
sS'manipulate'
p3271
I3085
sS'penalty'
p3272
I3183
sS'use'
p3273
I24
sS'from'
p3274
I89
sS'consumption'
p3275
I439
sS'freedoms'
p3276
I1084
sS'remains'
p3277
I1101
sS'illegal'
p3278
I868
sS'next'
p3279
I1759
sS'distinctiveness'
p3280
I1398
sS'few'
p3281
I2568
sS'doubt'
p3282
I655
sS'constitutionally'
p3283
I4057
sS'themselves'
p3284
I1023
sS'stage'
p3285
I1699
sS'start'
p3286
I2427
sS'possession'
p3287
I2953
sS'gained'
p3288
I2572
sS'constructed'
p3289
I3917
sS'formally'
p3290
I4040
sS'journalists'
p3291
I175
sS'engender'
p3292
I1124
sS'comparison'
p3293
I2355
sS'started'
p3294
I724
sS'becomes'
p3295
I2576
sS'inclined'
p3296
I2951
sS'equity'
p3297
I1317
sS'heir'
p3298
I1794
sS'occurred'
p3299
I730
sS'infection'
p3300
I3358
sS'cooperate'
p3301
I683
sS'supplying'
p3302
I3175
sS'train'
p3303
I318
sS'israelis'
p3304
I3842
sS'penis'
p3305
I3460
sS'lifestyle'
p3306
I946
sS'rivalry'
p3307
I4075
sS'charity'
p3308
I591
sS'nominations'
p3309
I3547
sS'account'
p3310
I747
sS'animals'
p3311
I2913
sS'integrating'
p3312
I2848
sS'this'
p3313
I3
sS'athlete'
p3314
I1265
sS'accrues'
p3315
I1475
sS'theistic'
p3316
I2376
sS'universe'
p3317
I2271
sS'meet'
p3318
I736
sS'nurture'
p3319
I3261
sS'disabilities'
p3320
I2027
sS'proof'
p3321
I2329
sS'control'
p3322
I541
sS'borrowed'
p3323
I2938
sS'superobserver'
p3324
I2275
sS'paralysis'
p3325
I1215
sS'prohibiting'
p3326
I2693
sS'distortions'
p3327
I3001
sS'process'
p3328
I153
sS'favorite'
p3329
I3541
sS'proportions'
p3330
I952
sS'tax'
p3331
I1566
sS'purposes'
p3332
I3753
sS'bloc'
p3333
I4023
sS'high'
p3334
I239
sS'effectively'
p3335
I2505
sS'atheistic'
p3336
I2285
sS'something'
p3337
I2402
sS'contempt'
p3338
I3747
sS'weaken'
p3339
I130
sS'educational'
p3340
I1982
sS'united'
p3341
I78
sS'varied'
p3342
I1653
sS'hinders'
p3343
I1111
sS'boxing'
p3344
I38
sS'negation'
p3345
I2245
sS'fortunate'
p3346
I1020
sS'delay'
p3347
I556
sS'reinstated'
p3348
I2483
sS'responsibilities'
p3349
I1348
sS'winners'
p3350
I1621
sS'sentiments'
p3351
I3717
sS'forest'
p3352
I3489
sS'responsibility'
p3353
I735
sS'justifiably'
p3354
I3691
sS'instead'
p3355
I1772
sS'native'
p3356
I1734
sS'immoral'
p3357
I1927
sS'secular'
p3358
I3350
sS'stock'
p3359
I2631
sS'tension'
p3360
I1016
sS'buildings'
p3361
I3896
sS'blocks'
p3362
I3907
sS'attend'
p3363
I2013
sS'farm'
p3364
I2830
sS'functioned'
p3365
I3781
sS'philosophy'
p3366
I2373
sS'tied'
p3367
I2601
sS'halted'
p3368
I1242
sS'mixed'
p3369
I2492
sS'abuse'
p3370
I194
sS'leisure'
p3371
I1603
sS'ethnic'
p3372
I1168
sS'npt'
p3373
I2227
sS'solidarity'
p3374
I2717
sS'efficiently'
p3375
I2060
sS'readiness'
p3376
I4120
sS'realized'
p3377
I1070
sS'majorities'
p3378
I1466
sS'purely'
p3379
I2229
sS'democracy'
p3380
I1329
sS'bcs'
p3381
I4068
sS'light'
p3382
I2326
sS'counter'
p3383
I3279
sS'windpower'
p3384
I2810
sS'commodities'
p3385
I2047
sS'allow'
p3386
I484
sS'aviv'
p3387
I3127
sS'furious'
p3388
I3223
sS'addiction'
p3389
I444
sS'tactical'
p3390
I3628
sS'justifiable'
p3391
I1949
sS'closely'
p3392
I3093
sS'sanctioned'
p3393
I1259
sS'produces'
p3394
I1867
sS'minimising'
p3395
I4012
sS'altogether'
p3396
I3130
sS'disarm'
p3397
I2950
sS'outset'
p3398
I3326
sS'interpreted'
p3399
I3573
sS'produced'
p3400
I874
sS'offences'
p3401
I1858
sS'own'
p3402
I583
sS'including'
p3403
I553
sS'lifeblood'
p3404
I3742
sS'electors'
p3405
I3088
sS'facilitates'
p3406
I1884
sS'boosts'
p3407
I902
sS'childrens'
p3408
I3444
sS'perfect'
p3409
I2316
sS'superior'
p3410
I2259
sS'decay'
p3411
I3920
sS'chosen'
p3412
I1005
sS'varies'
p3413
I2831
sS'winning'
p3414
I1619
sS'resorting'
p3415
I3004
sS'permanent'
p3416
I1211
sS'choose'
p3417
I882
sS'criminal'
p3418
I246
sS'desensitization'
p3419
I496
sS'physicians'
p3420
I1216
sS'violating'
p3421
I579
sS'greater'
p3422
I136
sS'later'
p3423
I2528
sS'richness'
p3424
I2879
sS'existences'
p3425
I2406
sS'repercussions'
p3426
I3652
sS'practice'
p3427
I578
sS'hate'
p3428
I3738
sS'commitment'
p3429
I3052
sS'disrupted'
p3430
I3887
sS'resolve'
p3431
I1142
sS'hands'
p3432
I2204
sS'garner'
p3433
I4157
sS'day'
p3434
I813
sS'applicants'
p3435
I1179
sS'worlds'
p3436
I1673
sS'relax'
p3437
I1993
sS'hallmarks'
p3438
I3884
sS'intelligent'
p3439
I2282
sS'university'
p3440
I3258
sS'traced'
p3441
I2133
sS'identified'
p3442
I2276
sS'sin'
p3443
I3566
sS'sufficiently'
p3444
I2632
sS'transmitted'
p3445
I3339
sS'truth'
p3446
I3982
sS'shortage'
p3447
I1985
sS'rising'
p3448
I3672
sS'expressly'
p3449
I3602
sS'experienced'
p3450
I3918
sS'reproducing'
p3451
I2694
sS'homogeneous'
p3452
I1425
sS'attachments'
p3453
I1440
sS'doing'
p3454
I3841
sS'wood'
p3455
I3494
sS'globe'
p3456
I3522
sS'strip'
p3457
I3110
sS'ills'
p3458
I677
sS'related'
p3459
I282
sS'retaliation'
p3460
I2214
sS'constitute'
p3461
I3437
sS'society'
p3462
I715
sS'books'
p3463
I2361
sS'sands'
p3464
I3066
sS'firepower'
p3465
I3855
sS'measure'
p3466
I1893
sS'separating'
p3467
I1386
sS'our'
p3468
I2485
sS'programmes'
p3469
I795
sS'agriculture'
p3470
I2595
sS'witness'
p3471
I469
sS'out'
p3472
I485
sS'respects'
p3473
I3287
sS'omnipotent'
p3474
I2306
sS'sentiment'
p3475
I3953
sS'entertainment'
p3476
I424
sS'defend'
p3477
I1246
sS'unlawful'
p3478
I3844
sS'acutest'
p3479
I4013
sS'wholly'
p3480
I2410
sS'strokes'
p3481
I1214
sS'behaviours'
p3482
I3343
sS'theists'
p3483
I2442
sS'cause'
p3484
I403
sS'affirming'
p3485
I1470
sS'statist'
p3486
I2490
sS'achievements'
p3487
I1116
sS'classification'
p3488
I3641
sS'logistic'
p3489
I3391
sS'main'
p3490
I4125
sS'maintains'
p3491
I3387
sS'release'
p3492
I2827
sS'completely'
p3493
I3163
sS'vacations'
p3494
I2022
sS'latest'
p3495
I3810
sS'conflicts'
p3496
I1316
sS'delinquency'
p3497
I4099
sS'likelihood'
p3498
I2180
sS'organ'
p3499
I3434
sS'quo'
p3500
I3101
sS'repairing'
p3501
I2916
sS'deforestation'
p3502
I3480
sS'farmland'
p3503
I3662
sS'mainland'
p3504
I719
sS'hostile'
p3505
I1486
sS'sustainability'
p3506
I3524
sS'biosphere'
p3507
I3487
sS'determining'
p3508
I1153
sS'could'
p3509
I559
sS'scars'
p3510
I809
sS'diminished'
p3511
I1334
sS'count'
p3512
I3806
sS'keep'
p3513
I1548
sS'removing'
p3514
I4134
sS'diminishes'
p3515
I756
sS'facilitate'
p3516
I1626
sS'desertification'
p3517
I3511
sS'deprives'
p3518
I1925
sS'mankind'
p3519
I2248
sS'embryo'
p3520
I1918
sS'unwanted'
p3521
I3306
sS'govern'
p3522
I3418
sS'succeeds'
p3523
I2388
sS'powerful'
p3524
I1878
sS'reaches'
p3525
I3986
sS'strategic'
p3526
I3390
sS'engenders'
p3527
I2891
sS'facie'
p3528
I2295
sS'reached'
p3529
I950
sS'blows'
p3530
I1207
sS'precisely'
p3531
I1464
sS'quality'
p3532
I753
sS'owning'
p3533
I2697
sS'destinations'
p3534
I2156
sS'legislative'
p3535
I270
sS'destructive'
p3536
I3800
sS'fair'
p3537
I2666
sS'uniting'
p3538
I1445
sS'flourish'
p3539
I2895
sS'extrinsic'
p3540
I2887
sS'creator'
p3541
I2280
sS'system'
p3542
I904
sS'relations'
p3543
I2075
sS'grow'
p3544
I3624
sS'their'
p3545
I114
sS'attack'
p3546
I2171
sS'inalienable'
p3547
I2946
sS'declines'
p3548
I1999
sS'perfectly'
p3549
I3446
sS'final'
p3550
I1054
sS'painful'
p3551
I3410
sS'futile'
p3552
I3031
sS'interests'
p3553
I745
sS'enforcement'
p3554
I2668
sS'stars'
p3555
I256
sS'unscrupulous'
p3556
I3008
sS'explanation'
p3557
I2404
sS'acquire'
p3558
I1732
sS'israeli'
p3559
I3111
sS'environmental'
p3560
I2787
sS'manipulation'
p3561
I3548
sS'diminish'
p3562
I986
sS'institution'
p3563
I1817
sS'catered'
p3564
I1459
sS'warfare'
p3565
I2173
sS'collectively'
p3566
I1859
sS'objectionable'
p3567
I3324
sS'lawful'
p3568
I3181
sS'aspiration'
p3569
I1788
sS'richer'
p3570
I2634
sS'discriminating'
p3571
I1002
sS'asean'
p3572
I253
sS'defense'
p3573
I2513
sS'disband'
p3574
I252
sS'bind'
p3575
I3227
sS'negatively'
p3576
I394
sS'providing'
p3577
I1388
sS'migration'
p3578
I1723
sS'behaviors'
p3579
I431
sS'imaginative'
p3580
I423
sS'xenophobia'
p3581
I3973
sS'teenagers'
p3582
I384
sS'deterred'
p3583
I2965
sS'corrupt'
p3584
I1628
sS'callings'
p3585
I3166
sS'variable'
p3586
I2775
sS'unlikely'
p3587
I748
sS'have'
p3588
I235
sS'need'
p3589
I743
sS'demonstration'
p3590
I2296
sS'linked'
p3591
I336
sS'viewed'
p3592
I866
sS'necessities'
p3593
I603
sS'catholic'
p3594
I206
sS'documents'
p3595
I216
sS'triggered'
p3596
I3872
sS'jurisdictions'
p3597
I1510
sS'able'
p3598
I1439
sS'incentive'
p3599
I2065
sS'.'
I4159
sS'relatives'
p3600
I598
sS'concerns'
p3601
I517
sS'incorporating'
p3602
I2780
sS'which'
p3603
I515
sS'divert'
p3604
I2687
sS'catholicism'
p3605
I3592
sS'accuracy'
p3606
I4010
sS'worldwide'
p3607
I941
sS'fuels'
p3608
I2141
sS'unless'
p3609
I2035
sS'agenda'
p3610
I4035
sS'combat'
p3611
I1274
sS'who'
p3612
I491
sS'dilute'
p3613
I3550
sS'harmful'
p3614
I346
sS'intentions'
p3615
I3087
sS'connected'
p3616
I3007
sS'amongst'
p3617
I2501
sS'device'
p3618
I3089
sS'intrinsic'
p3619
I2654
sS'class'
p3620
I981
sS'polemical'
p3621
I3989
sS'uncircumcised'
p3622
I3441
sS'statute'
p3623
I3553
sS'reduces'
p3624
I2097
sS'consequences'
p3625
I519
sS'sweeping'
p3626
I3154
sS'european'
p3627
I4003
sS'ambitions'
p3628
I1458
sS'stronger'
p3629
I3639
sS'disease'
p3630
I1278
sS'face'
p3631
I600
sS'capita'
p3632
I3940
sS'artificially'
p3633
I3675
sS'wealthier'
p3634
I4101
sS'normally'
p3635
I1152
sS'fact'
p3636
I2872
sS'gain'
p3637
I1530
sS'son'
p3638
I1988
sS'optimal'
p3639
I2645
sS'selection'
p3640
I1046
sS'chances'
p3641
I588
sS'supported'
p3642
I3351
sS'terminate'
p3643
I1951
sS'bring'
p3644
I639
sS'planning'
p3645
I616
sS'greenhouse'
p3646
I2767
sS'soldiers'
p3647
I3817
sS'fear'
p3648
I2347
sS'asylum'
p3649
I43
sS'debate'
p3650
I3250
sS'staff'
p3651
I1589
sS'partners'
p3652
I3565
sS'trying'
p3653
I2715
sS'based'
p3654
I1006
sS'knowledge'
p3655
I803
sS'housewives'
p3656
I112
sS'endangers'
p3657
I3861
sS'fans'
p3658
I4066
sS'controls'
p3659
I2220
sS'should'
p3660
I15
sS'surroundings'
p3661
I1683
sS'bases'
p3662
I187
sS'candidates'
p3663
I204
sS'procreative'
p3664
I3568
sS'inherited'
p3665
I1824
sS'fuel'
p3666
I2789
sS'marriage'
p3667
I3309
sS'partially'
p3668
I568
sS'thousands'
p3669
I1275
sS'mayors'
p3670
I251
sS'achieve'
p3671
I632
sS'vigor'
p3672
I3733
sS'jackpot'
p3673
I1620
sS'move'
p3674
I3928
sS'handle'
p3675
I1675
sS'combating'
p3676
I4004
sS'means'
p3677
I1529
sS'beat'
p3678
I3542
sS'familiar'
p3679
I1682
sS'overall'
p3680
I1058
sS'stripes'
p3681
I257
sS'bear'
p3682
I140
sS'copyrights'
p3683
I2685
sS'livelihoods'
p3684
I3857
sS'gamesencouraged'
p3685
I482
sS'legitimate'
p3686
I1641
sS'words'
p3687
I3728
sS'familial'
p3688
I710
sS'years'
p3689
I805
sS'simpler'
p3690
I2389
sS'nearly'
p3691
I1567
sS'areas'
p3692
I3488
sS'following'
p3693
I1648
sS'evolution'
p3694
I2385
sS'densities'
p3695
I3936
sS'tobacco'
p3696
I221
sS'numerous'
p3697
I502
sS'monopoly'
p3698
I2698
sS'teams'
p3699
I4082
sS'avoidable'
p3700
I3168
sS'contain'
p3701
I427
sS'fatalities'
p3702
I1184
sS'generations'
p3703
I587
sS'view'
p3704
I446
sS'europe'
p3705
I129
sS'requirement'
p3706
I1496
sS'exists'
p3707
I656
sS'acquired'
p3708
I2215
sS'catastrophic'
p3709
I3467
sS'exerted'
p3710
I612
sS'correlations'
p3711
I486
sS'humans'
p3712
I405
sS'immigrant'
p3713
I1389
sS'intensity'
p3714
I4074
sS'computer'
p3715
I506
sS'merits'
p3716
I4146
sS'disagreeable'
p3717
I3708
sS'unfairly'
p3718
I2480
sS'converting'
p3719
I3516
sS'liberalization'
p3720
I2628
sS'cold'
p3721
I3930
sS'creating'
p3722
I1875
sS'exploited'
p3723
I1614
sS'imposition'
p3724
I3137
sS'reform'
p3725
I1432
sS'aspirations'
p3726
I4123
sS'nuclear'
p3727
I91
sS'criminalizing'
p3728
I1924
sS'tend'
p3729
I341
sS'favor'
p3730
I1000
sS'state'
p3731
I162
sS'difficulties'
p3732
I2024
sS'identification'
p3733
I102
sS'injustice'
p3734
I1429
sS'closed'
p3735
I3251
sS'crude'
p3736
I3069
sS'progress'
p3737
I1499
sS'neither'
p3738
I2565
sS'prevailing'
p3739
I3264
sS'bought'
p3740
I2148
sS'publishers'
p3741
I316
sS'ends'
p3742
I2246
sS'sole'
p3743
I3366
sS'ability'
p3744
I406
sS'opening'
p3745
I2623
sS'importance'
p3746
I2193
sS'monarchy'
p3747
I47
sS'deliver'
p3748
I3267
sS'interfere'
p3749
I1127
sS'neonatal'
p3750
I3462
sS'efficiency'
p3751
I2077
sS'job'
p3752
I1053
sS'hypothesis'
p3753
I2383
sS'key'
p3754
I653
sS'disproportionately'
p3755
I2462
sS'rainforests'
p3756
I3500
sS'multiculturalism'
p3757
I40
sS'restrictions'
p3758
I455
sS'empathy'
p3759
I298
sS'instant'
p3760
I1607
sS'limits'
p3761
I268
sS'career'
p3762
I4136
sS'freely'
p3763
I732
sS'taking'
p3764
I1914
sS'equal'
p3765
I971
sS'drug'
p3766
I781
sS'fulfilled'
p3767
I4105
sS'etc'
p3768
I2575
sS'urging'
p3769
I2165
sS'cleanest'
p3770
I2845
sS'heart'
p3771
I3736
sS'safely'
p3772
I2182
sS'grounds'
p3773
I1106
sS'relevant'
p3774
I3247
sS'censorship'
p3775
I177
sS'conclude'
p3776
I3591
sS'allocates'
p3777
I1627
sS'coercive'
p3778
I630
sS'respect'
p3779
I1288
sS'labor'
p3780
I1671
sS'pouring'
p3781
I2620
sS'second'
p3782
I2978
sS'addition'
p3783
I1013
sS'discrimination'
p3784
I969
sS'quotas'
p3785
I1149
sS'breakdown'
p3786
I4124
sS'immense'
p3787
I3220
sS'genetic'
p3788
I844
sS'willing'
p3789
I3846
sS'slowly'
p3790
I3160
sS'treat'
p3791
I914
sS'gaza'
p3792
I157
sS'indicators'
p3793
I3994
sS'proposal'
p3794
I3780
sS'waste'
p3795
I3663
sS'universal'
p3796
I2896
sS'isolating'
p3797
I4109
sS'divinely'
p3798
I2362
sS'tyranny'
p3799
I2955
sS'arises'
p3800
I2439
sS'diversity'
p3801
I1361
sS'puberty'
p3802
I3302
sS'sufficient'
p3803
I2417
sS'overwhelmingly'
p3804
I3804
sS'climate'
p3805
I3054
sS'assert'
p3806
I2333
sS'dissemination'
p3807
I2743
sS'abortions'
p3808
I58
sS'improved'
p3809
I627
sS'fellow'
p3810
I1773
sS'unionisation'
p3811
I1880
sS'present'
p3812
I100
sS'homes'
p3813
I1559
sS'imbalance'
p3814
I523
sS'atmospheric'
p3815
I3474
sS'unlike'
p3816
I2712
sS'contexts'
p3817
I292
sS'divorce'
p3818
I3589
sS'value'
p3819
I1454
sS'promotes'
p3820
I1287
sS'will'
p3821
I893
sS'incitement'
p3822
I3968
sS'promoted'
p3823
I1455
sS'medicinal'
p3824
I2858
sS'inexpensive'
p3825
I2823
sS'ill'
p3826
I2807
sS'greatly'
p3827
I3812
sS'amenity'
p3828
I3904
sS'almost'
p3829
I1577
sS'dissent'
p3830
I3685
sS'delusion'
p3831
I2367
sS'thus'
p3832
I535
sS'disapprove'
p3833
I1507
sS'encouragement'
p3834
I2115
sS'weighed'
p3835
I2458
sS'consumes'
p3836
I2788
sS'audiences'
p3837
I3985
sS'demanded'
p3838
I3869
sS'unmarried'
p3839
I3332
sS'aggressiveness'
p3840
I501
sS'claimed'
p3841
I52
sS'minorities'
p3842
I1117
sS'conserve'
p3843
I1368
sS'halt'
p3844
I3520
sS'capture'
p3845
I2662
sS'denial'
p3846
I245
sS'productivity'
p3847
I1650
sS'sensitive'
p3848
I3458
sS'perhaps'
p3849
I2195
sS'began'
p3850
I727
sS'views'
p3851
I3552
sS'camp'
p3852
I3146
sS'member'
p3853
I4022
sS'adverse'
p3854
I1541
sS'unity'
p3855
I1356
sS'became'
p3856
I848
sS'largest'
p3857
I3072
sS'habitats'
p3858
I3502
sS'party'
p3859
I3214
sS'terrorism'
p3860
I2186
sS'privileged'
p3861
I1018
sS'difficult'
p3862
I682
sS'covenant'
p3863
I990
sS'conflicting'
p3864
I3684
sS'material'
p3865
I2213
sS'emotionally'
p3866
I324
sS'forgotten'
p3867
I1291
sS'upon'
p3868
I2069
sS'effect'
p3869
I291
sS'bullying'
p3870
I340
sS'student'
p3871
I3616
sS'frequently'
p3872
I1672
sS'indigenous'
p3873
I1396
sS'identity'
p3874
I1130
sS'destruction'
p3875
I1953
sS'broke'
p3876
I3863
sS'transaction'
p3877
I2990
sS'off'
p3878
I1992
sS'restricted'
p3879
I3705
sS'weapon'
p3880
I2187
sS'variety'
p3881
I650
sS'well'
p3882
I334
sS'fighting'
p3883
I3980
sS'thought'
p3884
I717
sS'cutting'
p3885
I2997
sS'credibility'
p3886
I3388
sS'position'
p3887
I1065
sS'creators'
p3888
I2310
sS'reintroduce'
p3889
I106
sS'stressed'
p3890
I1757
sS'restore'
p3891
I1293
sS'excessive'
p3892
I381
sS'enormously'
p3893
I2702
sS'rocket'
p3894
I3108
sS'less'
p3895
I550
sS'increasingly'
p3896
I2051
sS'offensive'
p3897
I3699
sS'accurate'
p3898
I3092
sS'slippage'
p3899
I3373
sS'domestic'
p3900
I2609
sS'inadequate'
p3901
I3215
sS'sources'
p3902
I1553
sS'underlying'
p3903
I680
sS'distant'
p3904
I373
sS'developments'
p3905
I3933
sS'protecting'
p3906
I1896
sS'happiness'
p3907
I2080
sS'soils'
p3908
I3509
sS'rapid'
p3909
I624
sS'density'
p3910
I661
sS'point'
p3911
I856
sS'demographic'
p3912
I1096
sS'sustaining'
p3913
I2669
sS'capabilities'
p3914
I2216
sS'realize'
p3915
I4098
sS'imposes'
p3916
I3992
sS'extends'
p3917
I3002
sS'nor'
p3918
I2566
sS'citizen'
p3919
I1777
sS'usage'
p3920
I308
sS'crops'
p3921
I3498
sS'enacted'
p3922
I3427
sS'warrant'
p3923
I2900
sS'irresponsible'
p3924
I3575
sS'ought'
p3925
I2319
sS'details'
p3926
I2750
sS'identical'
p3927
I1073
sS'subsidised'
p3928
I3673
sS'increased'
p3929
I312
sS'provisions'
p3930
I1131
sS'government'
p3931
I223
sS'underestimated'
p3932
I2935
sS'criminalize'
p3933
I242
sS'increases'
p3934
I1562
sS'five'
p3935
I3783
sS'whatever'
p3936
I3210
sS'burden'
p3937
I2544
sS'deployment'
p3938
I2852
sS'press'
p3939
I3656
sS'racially'
p3940
I1302
sS'loss'
p3941
I1204
sS'necessary'
p3942
I626
sS'like'
p3943
I858
sS'success'
p3944
I527
sS'safest'
p3945
I1941
sS'vibrant'
p3946
I1601
sS'unprotected'
p3947
I3564
sS'admitted'
p3948
I798
sS'loses'
p3949
I2910
sS'taxpayers'
p3950
I3677
sS'displaces'
p3951
I1150
sS'conscripts'
p3952
I2504
sS'lose'
p3953
I1325
sS'become'
p3954
I1467
sS'works'
p3955
I1314
sS'refugees'
p3956
I1668
sS'lends'
p3957
I2265
sS'amendment'
p3958
I450
sS'surest'
p3959
I3993
sS'because'
p3960
I404
sS'habitat'
p3961
I2884
sS'flagrant'
p3962
I3179
sS'phenomena'
p3963
I2343
sS'desecration'
p3964
I4043
sS'authority'
p3965
I2264
sS'redress'
p3966
I1078
sS'export'
p3967
I3506
sS'choosing'
p3968
I1181
sS'elitist'
p3969
I1764
sS'proper'
p3970
I1964
sS'home'
p3971
I2651
sS'employment'
p3972
I998
sS'recognition'
p3973
I1125
sS'happens'
p3974
I1920
sS'mitigate'
p3975
I3535
sS'contested'
p3976
I1104
sS'redistributive'
p3977
I2084
sS'encouraging'
p3978
I2594
sS'aesthetically'
p3979
I2840
sS'lead'
p3980
I471
sS'unpredictable'
p3981
I2808
sS'broad'
p3982
I3297
sS'avoid'
p3983
I1197
sS'eyesore'
p3984
I2842
sS'rewarding'
p3985
I3678
sS'does'
p3986
I473
sS'keystone'
p3987
I147
sS'economical'
p3988
I3075
sS'rockets'
p3989
I3825
sS'demonstrated'
p3990
I2103
sS'hinder'
p3991
I693
sS'noise'
p3992
I3395
sS'inaccurate'
p3993
I3363
sS'schedule'
p3994
I2012
sS'selecting'
p3995
I203
sS'monetary'
p3996
I2604
sS'expansion'
p3997
I2178
sS'educating'
p3998
I3374
sS'pressure'
p3999
I611
sS'host'
p4000
I1301
sS'conveyed'
p4001
I507
sS'prohibited'
p4002
I989
sS'inherently'
p4003
I1841
sS'offset'
p4004
I2931
sS'instinct'
p4005
I3369
sS'symbolic'
p4006
I4044
sS'adversary'
p4007
I3801
sS'preventative'
p4008
I3337
sS'refuge'
p4009
I1747
sS'raise'
p4010
I1572
sS'throne'
p4011
I1795
sS'about'
p4012
I447
sS'rare'
p4013
I1185
sS'carried'
p4014
I801
sS'getting'
p4015
I1052
sS'freedom'
p4016
I225
sS'abstinence'
p4017
I182
sS'aversive'
p4018
I675
sS'dependence'
p4019
I2064
sS'recognized'
p4020
I1444
sS'dependency'
p4021
I589
sS'carries'
p4022
I2192
sS'tighter'
p4023
I2929
sS'insufficient'
p4024
I2270
sS'introduced'
p4025
I549
sS'software'
p4026
I172
sS'burma'
p4027
I3021
sS'equally'
p4028
I918
sS'rendered'
p4029
I993
sS'unsustainable'
p4030
I195
sS'keeps'
p4031
I2162
sS'previously'
p4032
I3445
sS'creativity'
p4033
I2665
sS'warrants'
p4034
I1405
sS'stratification'
p4035
I1176
sS'domain'
p4036
I2746
sS'three'
p4037
I2009
sS'chronic'
p4038
I915
sS'guard'
p4039
I2183
sS'weather'
p4040
I2832
sS'esteem'
p4041
I3977
sS'female'
p4042
I1977
sS'artists'
p4043
I2721
sS'roads'
p4044
I2574
sS'quiet'
p4045
I3119
sS'forget'
p4046
I3583
sS'unfashionable'
p4047
I1844
sS'utility'
p4048
I421
sS'accused'
p4049
I442
sS'additional'
p4050
I2815
sS'adolescent'
p4051
I350
sS'egalitarian'
p4052
I2110
sS'empowers'
p4053
I2100
sS'housing'
p4054
I241
sS'secret'
p4055
I2748
sS'continental'
p4056
I3265
sS'intention'
p4057
I1266
sS'restricts'
p4058
I3190
sS'recognised'
p4059
I3632
sS'frustration'
p4060
I415
sS'ed'
p4061
I3313
sS'biggest'
p4062
I3666
sS'utterance'
p4063
I3721
sS'function'
p4064
I1463
sS'building'
p4065
I3053
sS'buy'
p4066
I2704
sS'insures'
p4067
I3449
sS'aircraft'
p4068
I3394
sS'funds'
p4069
I168
sS'hazardous'
p4070
I2201
sS'overbearing'
p4071
I3921
sS'but'
p4072
I434
sS'privilege'
p4073
I1825
sS'repeated'
p4074
I1206
sS'construction'
p4075
I766
sS'contradictory'
p4076
I2309
sS'goals'
p4077
I1015
sS'courts'
p4078
I3748
sS'threaten'
p4079
I3470
sS'highest'
p4080
I4107
sS'he'
p4081
I1244
sS'embargo'
p4082
I3129
sS'made'
p4083
I962
sS'places'
p4084
I2293
sS'whether'
p4085
I1950
sS'dangerous'
p4086
I797
sS'official'
p4087
I1313
sS'reinforcement'
p4088
I360
sS'imbalances'
p4089
I1079
sS'placed'
p4090
I1910
sS'intangible'
p4091
I2731
sS'limit'
p4092
I139
sS'ruling'
p4093
I980
sS'invest'
p4094
I2059
sS'imbalanced'
p4095
I62
sS'demonstrate'
p4096
I1178
sS'distribution'
p4097
I1139
sS'strengthens'
p4098
I1848
sS'advantages'
p4099
I2646
sS'supreme'
p4100
I2335
sS'begun'
p4101
I4032
sS'deaths'
p4102
I1191
sS'devise'
p4103
I3809
sS'recognize'
p4104
I407
sS'domino'
p4105
I2188
sS'contribute'
p4106
I618
sS'meaningless'
p4107
I2255
sS'slowing'
p4108
I2718
sS'consumed'
p4109
I2897
sS'education'
p4110
I33
sS'incentivize'
p4111
I3762
sS'functions'
p4112
I2240
sS'compared'
p4113
I2786
sS'contest'
p4114
I1243
sS'deadly'
p4115
I884
sS'percent'
p4116
I3659
sS'forests'
p4117
I3485
sS'adequately'
p4118
I2302
sS'other'
p4119
I353
sS'special'
p4120
I1418
sS'branch'
p4121
I271
sS'quantities'
p4122
I2850
sS'overpopulation'
p4123
I540
sS'illusion'
p4124
I2394
sS'canada'
p4125
I3063
sS'illegally'
p4126
I3649
sS'frisbee'
p4127
I889
sS'kinds'
p4128
I1190
sS'oppression'
p4129
I1465
sS'shown'
p4130
I303
sS'variation'
p4131
I1533
sS'stay'
p4132
I954
sS'inescapably'
p4133
I3731
sS'chance'
p4134
I1061
sS'weaponry'
p4135
I2205
sS'arbiter'
p4136
I1804
sS'animosity'
p4137
I1029
sS'deter'
p4138
I2206
sS'friends'
p4139
I690
sS'exposure'
p4140
I272
sS'extort'
p4141
I2700
sS'venerated'
p4142
I4047
sS'contraceptive'
p4143
I3320
sS'prevalent'
p4144
I1442
sS'attacker'
p4145
I2973
sS'space'
p4146
I3942
sS'rule'
p4147
I1188
sS'intentionally'
p4148
I3845
sS'atheism'
p4149
I93
sS'write'
p4150
I3715
sS'compete'
p4151
I1741
sS'affront'
p4152
I3979
sS'rural'
p4153
I2796
sS'accidents'
p4154
I2983
sS'indirectly'
p4155
I3767
sS'compromised'
p4156
I3958
s.