(dp1
I0
S'<SOS>'
p2
sI1
S'<EOS>'
p3
sI2
S'<PAD>'
p4
sI3
S'this'
p5
sI4
S'house'
p6
sI5
S'believes'
p7
sI6
S'that'
p8
sI7
S'the'
p9
sI8
S'sale'
p10
sI9
S'of'
p11
sI10
S'violent'
p12
sI11
S'video'
p13
sI12
S'games'
p14
sI13
S'to'
p15
sI14
S'minors'
p16
sI15
S'should'
p17
sI16
S'be'
p18
sI17
S'banned'
p19
sI18
S'supports'
p20
sI19
S'policy'
p21
sI20
S'republic'
p22
sI21
S'china'
p23
sI22
S'would'
p24
sI23
S'permit'
p25
sI24
S'use'
p26
sI25
S'performance'
p27
sI26
S'enhancing'
p28
sI27
S'drugs'
p29
sI28
S'in'
p30
sI29
S'professional'
p31
sI30
S'sports'
p32
sI31
S'make'
p33
sI32
S'physical'
p34
sI33
S'education'
p35
sI34
S'compulsory'
p36
sI35
S'affirmative'
p37
sI36
S'action'
p38
sI37
S'ban'
p39
sI38
S'boxing'
p40
sI39
S'embrace'
p41
sI40
S'multiculturalism'
p42
sI41
S'gambling'
p43
sI42
S'right'
p44
sI43
S'asylum'
p45
sI44
S'not'
p46
sI45
S'absolute'
p47
sI46
S'abolish'
p48
sI47
S'monarchy'
p49
sI48
S'all'
p50
sI49
S'collective'
p51
sI50
S'bargaining'
p52
sI51
S'rights'
p53
sI52
S'claimed'
p54
sI53
S'by'
p55
sI54
S'trades'
p56
sI55
S'unions'
p57
sI56
S'partial'
p58
sI57
S'birth'
p59
sI58
S'abortions'
p60
sI59
S'countries'
p61
sI60
S'with'
p62
sI61
S'an'
p63
sI62
S'imbalanced'
p64
sI63
S'ratio'
p65
sI64
S'skewed'
p66
sI65
S'towards'
p67
sI66
S'males'
p68
sI67
S'encourage'
p69
sI68
S'parents'
p70
sI69
S'produce'
p71
sI70
S'girls'
p72
sI71
S'introduce'
p73
sI72
S'year'
p74
sI73
S'round'
p75
sI74
S'schooling'
p76
sI75
S'subsidize'
p77
sI76
S'poor'
p78
sI77
S'communities'
p79
sI78
S'united'
p80
sI79
S'states'
p81
sI80
S'is'
p82
sI81
S'responsible'
p83
sI82
S'for'
p84
sI83
S'war'
p85
sI84
S'us'
p86
sI85
S'justified'
p87
sI86
S'using'
p88
sI87
S'force'
p89
sI88
S'prevent'
p90
sI89
S'from'
p91
sI90
S'acquiring'
p92
sI91
S'nuclear'
p93
sI92
S'weapons'
p94
sI93
S'atheism'
p95
sI94
S'only'
p96
sI95
S'way'
p97
sI96
S'democratic'
p98
sI97
S'governments'
p99
sI98
S'require'
p100
sI99
S'voters'
p101
sI100
S'present'
p102
sI101
S'photo'
p103
sI102
S'identification'
p104
sI103
S'at'
p105
sI104
S'polling'
p106
sI105
S'station'
p107
sI106
S'reintroduce'
p108
sI107
S'national'
p109
sI108
S'service'
p110
sI109
S'prefers'
p111
sI110
S'trade'
p112
sI111
S'aid'
p113
sI112
S'housewives'
p114
sI113
S'paid'
p115
sI114
S'their'
p116
sI115
S'work'
p117
sI116
S'intellectual'
p118
sI117
S'property'
p119
sI118
S'wind'
p120
sI119
S'power'
p121
sI120
S'a'
sI121
S'primary'
p122
sI122
S'focus'
p123
sI123
S'future'
p124
sI124
S'energy'
p125
sI125
S'supply'
p126
sI126
S'endangered'
p127
sI127
S'species'
p128
sI128
S'protected'
p129
sI129
S'europe'
p130
sI130
S'weaken'
p131
sI131
S'its'
p132
sI132
S'austerity'
p133
sI133
S'measures'
p134
sI134
S'guarantee'
p135
sI135
S'citizens'
p136
sI136
S'greater'
p137
sI137
S'social'
p138
sI138
S'support'
p139
sI139
S'limit'
p140
sI140
S'bear'
p141
sI141
S'arms'
p142
sI142
S'bribery'
p143
sI143
S'sometimes'
p144
sI144
S'acceptable'
p145
sI145
S'myanmar'
p146
sI146
S'build'
p147
sI147
S'keystone'
p148
sI148
S'xl'
p149
sI149
S'pipeline'
p150
sI150
S'opinion'
p151
sI151
S'polls'
p152
sI152
S'harm'
p153
sI153
S'process'
p154
sI154
S'israel'
p155
sI155
S'lift'
p156
sI156
S'blockade'
p157
sI157
S'gaza'
p158
sI158
S'church'
p159
sI159
S'england'
p160
sI160
S'separated'
p161
sI161
S'british'
p162
sI162
S'state'
p163
sI163
S'creation'
p164
sI164
S'private'
p165
sI165
S'universities'
p166
sI166
S'uk'
p167
sI167
S'foreign'
p168
sI168
S'funds'
p169
sI169
S'research'
p170
sI170
S'and'
p171
sI171
S'distribute'
p172
sI172
S'software'
p173
sI173
S'allows'
p174
sI174
S'bloggers'
p175
sI175
S'journalists'
p176
sI176
S'evade'
p177
sI177
S'censorship'
p178
sI178
S'conceal'
p179
sI179
S'online'
p180
sI180
S'activities'
p181
sI181
S'teach'
p182
sI182
S'abstinence'
p183
sI183
S'sex'
p184
sI184
S'schools'
p185
sI185
S'remove'
p186
sI186
S'military'
p187
sI187
S'bases'
p188
sI188
S'japan'
p189
sI189
S'male'
p190
sI190
S'infant'
p191
sI191
S'circumcision'
p192
sI192
S'tantamount'
p193
sI193
S'child'
p194
sI194
S'abuse'
p195
sI195
S'unsustainable'
p196
sI196
S'logging'
p197
sI197
S'open'
p198
sI198
S'primaries'
p199
sI199
S'are'
p200
sI200
S'most'
p201
sI201
S'effective'
p202
sI202
S'method'
p203
sI203
S'selecting'
p204
sI204
S'candidates'
p205
sI205
S'elections'
p206
sI206
S'catholic'
p207
sI207
S'forbidding'
p208
sI208
S'barrier'
p209
sI209
S'methods'
p210
sI210
S'contraception'
p211
sI211
S'raising'
p212
sI212
S'school'
p213
sI213
S'leaving'
p214
sI214
S'age'
p215
sI215
S'leaking'
p216
sI216
S'documents'
p217
sI217
S'anat'
p218
sI218
S'kamm'
p219
sI219
S'was'
p220
sI220
S'growing'
p221
sI221
S'tobacco'
p222
sI222
S'it'
p223
sI223
S'government'
p224
sI224
S'restrict'
p225
sI225
S'freedom'
p226
sI226
S'speech'
p227
sI227
S'pass'
p228
sI228
S'american'
p229
sI229
S'jobs'
p230
sI230
S'act'
p231
sI231
S'fund'
p232
sI232
S'voucher'
p233
sI233
S'scheme'
p234
sI234
S'nations'
p235
sI235
S'have'
p236
sI236
S'operations'
p237
sI237
S'against'
p238
sI238
S'were'
p239
sI239
S'high'
p240
sI240
S'rises'
p241
sI241
S'housing'
p242
sI242
S'criminalize'
p243
sI243
S'blasphemy'
p244
sI244
S'holocaust'
p245
sI245
S'denial'
p246
sI246
S'criminal'
p247
sI247
S'offence'
p248
sI248
S'direct'
p249
sI249
S'election'
p250
sI250
S'city'
p251
sI251
S'mayors'
p252
sI252
S'disband'
p253
sI253
S'asean'
p254
sI254
S'prohibit'
p255
sI255
S'burning'
p256
sI256
S'stars'
p257
sI257
S'stripes'
p258
sI258
S'implement'
p259
sI259
S'playoffs'
p260
sI260
S'collegiate'
p261
sI261
S'level'
p262
sI262
S'football'
p263
sI263
S'deprivation'
p264
sI264
S'causes'
p265
sI265
S'crime'
p266
sI266
S'enforce'
p267
sI267
S'term'
p268
sI268
S'limits'
p269
sI269
S'on'
p270
sI270
S'legislative'
p271
sI271
S'branch'
p272
sI272
S'exposure'
p273
sI273
S'least'
p274
sI274
S'temporary'
p275
sI275
S'increase'
p276
sI276
S'aggression'
p277
sI277
S'correlates'
p278
sI278
S'real'
p279
sI279
S'world'
p280
sI280
S'game'
p281
sI281
S'violence'
p282
sI282
S'related'
p283
sI283
S'serious'
p284
sI284
S'aggressive'
p285
sI285
S'behavior'
p286
sI286
S'life'
p287
sI287
S'some'
p288
sI288
S'may'
p289
sI289
S'actually'
p290
sI290
S'prosocial'
p291
sI291
S'effect'
p292
sI292
S'contexts'
p293
sI293
S'both'
p294
sI294
S'short'
p295
sI295
S'long'
p296
sI296
S'players'
p297
sI297
S'decreases'
p298
sI298
S'empathy'
p299
sI299
S'they'
p300
sI300
S'tendencies'
p301
sI301
S'among'
p302
sI302
S'youth'
p303
sI303
S'shown'
p304
sI304
S'no'
p305
sI305
S'conclusive'
p306
sI306
S'link'
p307
sI307
S'between'
p308
sI308
S'usage'
p309
sI309
S'activity'
p310
sI310
S'significantly'
p311
sI311
S'associated'
p312
sI312
S'increased'
p313
sI313
S'thoughts'
p314
sI314
S'physiological'
p315
sI315
S'decreased'
p316
sI316
S'publishers'
p317
sI317
S'unethically'
p318
sI318
S'train'
p319
sI319
S'children'
p320
sI320
S'more'
p321
sI321
S'importantly'
p322
sI322
S'harden'
p323
sI323
S'them'
p324
sI324
S'emotionally'
p325
sI325
S'murder'
p326
sI326
S'mild'
p327
sI327
S'forms'
p328
sI328
S'young'
p329
sI329
S'adults'
p330
sI330
S'results'
p331
sI331
S'arousal'
p332
sI332
S'feelings'
p333
sI333
S'as'
p334
sI334
S'well'
p335
sI335
S'causally'
p336
sI336
S'linked'
p337
sI337
S'relationship'
p338
sI338
S'playing'
p339
sI339
S'or'
p340
sI340
S'bullying'
p341
sI341
S'tend'
p342
sI342
S'select'
p343
sI343
S'inverse'
p344
sI344
S'evidence'
p345
sI345
S'psychologically'
p346
sI346
S'harmful'
p347
sI347
S'adolescents'
p348
sI348
S'play'
p349
sI349
S'part'
p350
sI350
S'adolescent'
p351
sI351
S'normal'
p352
sI352
S'setting'
p353
sI353
S'other'
p354
sI354
S'biological'
p355
sI355
S'theories'
p356
sI356
S'specifically'
p357
sI357
S'excluded'
p358
sI358
S'media'
p359
sI359
S'effects'
p360
sI360
S'reinforcement'
p361
sI361
S'sexist'
p362
sI362
S'stereotypes'
p363
sI363
S'has'
p364
sI364
S'also'
p365
sI365
S'been'
p366
sI366
S'correlation'
p367
sI367
S'suffering'
p368
sI368
S'psychological'
p369
sI369
S'can'
p370
sI370
S'influences'
p371
sI371
S'too'
p372
sI372
S'weak'
p373
sI373
S'distant'
p374
sI374
S'much'
p375
sI375
S'influence'
p376
sI376
S'promote'
p377
sI377
S'attitudes'
p378
sI378
S'beliefs'
p379
sI379
S'desensitizing'
p380
sI380
S'individual'
p381
sI381
S'excessive'
p382
sI382
S'behaviour'
p383
sI383
S'neurological'
p384
sI384
S'teenagers'
p385
sI385
S'there'
p386
sI386
S'develop'
p387
sI387
S'intelligence'
p388
sI388
S'help'
p389
sI389
S'students'
p390
sI390
S'deal'
p391
sI391
S'stress'
p392
sI392
S'affect'
p393
sI393
S'positively'
p394
sI394
S'negatively'
p395
sI395
S'many'
p396
sI396
S'skills'
p397
sI397
S'learned'
p398
sI398
S'gaming'
p399
sI399
S'experience'
p400
sI400
S'builds'
p401
sI401
S'practical'
p402
sI402
S'cannot'
p403
sI403
S'cause'
p404
sI404
S'because'
p405
sI405
S'humans'
p406
sI406
S'ability'
p407
sI407
S'recognize'
p408
sI408
S'what'
p409
sI409
S'wrong'
p410
sI410
S'healthy'
p411
sI411
S'positive'
p412
sI412
S'aspects'
p413
sI413
S'safe'
p414
sI414
S'outlet'
p415
sI415
S'frustration'
p416
sI416
S'degree'
p417
sI417
S'leads'
p418
sI418
S'content'
p419
sI419
S'form'
p420
sI420
S'expression'
p421
sI421
S'utility'
p422
sI422
S'expressive'
p423
sI423
S'imaginative'
p424
sI424
S'entertainment'
p425
sI425
S'even'
p426
sI426
S'if'
p427
sI427
S'contain'
p428
sI428
S'tangible'
p429
sI429
S'benefits'
p430
sI430
S'imitate'
p431
sI431
S'behaviors'
p432
sI432
S'witnessed'
p433
sI433
S'automatically'
p434
sI434
S'but'
p435
sI435
S'rather'
p436
sI436
S'consider'
p437
sI437
S'context'
p438
sI438
S'societal'
p439
sI439
S'consumption'
p440
sI440
S'rates'
p441
sI441
S'various'
p442
sI442
S'accused'
p443
sI443
S'causing'
p444
sI444
S'addiction'
p445
sI445
S'influencing'
p446
sI446
S'view'
p447
sI447
S'about'
p448
sI448
S'under'
p449
sI449
S'first'
p450
sI450
S'amendment'
p451
sI451
S'connection'
p452
sI452
S'regulations'
p453
sI453
S'presumptively'
p454
sI454
S'invalid'
p455
sI455
S'restrictions'
p456
sI456
S'unconstitutional'
p457
sI457
S'bureaucrats'
p458
sI458
S'decide'
p459
sI459
S'appropriate'
p460
sI460
S'regulate'
p461
sI461
S'order'
p462
sI462
S'protect'
p463
sI463
S'decision'
p464
sI464
S'purchase'
p465
sI465
S'constitutes'
p466
sI466
S'do'
p467
sI467
S'depictions'
p468
sI468
S'bad'
p469
sI469
S'witness'
p470
sI470
S'heavy'
p471
sI471
S'lead'
p472
sI472
S'alone'
p473
sI473
S'does'
p474
sI474
S'commit'
p475
sI475
S'crimes'
p476
sI476
S'convincing'
p477
sI477
S'prove'
p478
sI478
S'any'
p479
sI479
S'type'
p480
sI480
S'gamesespecially'
p481
sI481
S'shooter'
p482
sI482
S'gamesencouraged'
p483
sI483
S'acts'
p484
sI484
S'allow'
p485
sI485
S'out'
p486
sI486
S'correlations'
p487
sI487
S'gameplay'
p488
sI488
S'common'
p489
sI489
S'childhood'
p490
sI490
S'problems'
p491
sI491
S'who'
p492
sI492
S'creative'
p493
sI493
S'emotional'
p494
sI494
S'playeven'
p495
sI495
S'graphic'
p496
sI496
S'desensitization'
p497
sI497
S'committing'
p498
sI498
S'person'
p499
sI499
S'hardens'
p500
sI500
S'unethical'
p501
sI501
S'aggressiveness'
p502
sI502
S'numerous'
p503
sI503
S'researchers'
p504
sI504
S'proposed'
p505
sI505
S'potential'
p506
sI506
S'computer'
p507
sI507
S'conveyed'
p508
sI508
S'through'
p509
sI509
S'attributed'
p510
sI510
S'inconclusive'
p511
sI511
S'controversial'
p512
sI512
S'within'
p513
sI513
S'outside'
p514
sI514
S'manner'
p515
sI515
S'which'
p516
sI516
S'implemented'
p517
sI517
S'concerns'
p518
sI518
S'negative'
p519
sI519
S'consequences'
p520
sI520
S'possible'
p521
sI521
S'behind'
p522
sI522
S'gender'
p523
sI523
S'imbalance'
p524
sI524
S'had'
p525
sI525
S'proved'
p526
sI526
S'great'
p527
sI527
S'success'
p528
sI528
S'helping'
p529
sI529
S'current'
p530
sI530
S'economic'
p531
sI531
S'growth'
p532
sI532
S'reduction'
p533
sI533
S'fertility'
p534
sI534
S'rate'
p535
sI535
S'thus'
p536
sI536
S'population'
p537
sI537
S'reduced'
p538
sI538
S'severity'
p539
sI539
S'come'
p540
sI540
S'overpopulation'
p541
sI541
S'control'
p542
sI542
S'helps'
p543
sI543
S'provide'
p544
sI544
S'better'
p545
sI545
S'health'
p546
sI546
S'women'
p547
sI547
S'savings'
p548
sI548
S'since'
p549
sI549
S'introduced'
p550
sI550
S'less'
p551
sI551
S'intrusive'
p552
sI552
S'options'
p553
sI553
S'including'
p554
sI554
S'those'
p555
sI555
S'emphasized'
p556
sI556
S'delay'
p557
sI557
S'spacing'
p558
sI558
S'births'
p559
sI559
S'could'
p560
sI560
S'achieved'
p561
sI561
S'same'
p562
sI562
S'over'
p563
sI563
S'extended'
p564
sI564
S'period'
p565
sI565
S'time'
p566
sI566
S'itself'
p567
sI567
S'probably'
p568
sI568
S'partially'
p569
sI569
S'total'
p570
sI570
S'expected'
p571
sI571
S'continued'
p572
sI572
S'just'
p573
sI573
S'development'
p574
sI574
S'kept'
p575
sI575
S'previous'
p576
sI576
S'challenged'
p577
sI577
S'principle'
p578
sI578
S'practice'
p579
sI579
S'violating'
p580
sI580
S'human'
p581
sI581
S'determine'
p582
sI582
S'size'
p583
sI583
S'own'
p584
sI584
S'family'
p585
sI585
S'leaves'
p586
sI586
S'older'
p587
sI587
S'generations'
p588
sI588
S'chances'
p589
sI589
S'dependency'
p590
sI590
S'retirement'
p591
sI591
S'charity'
p592
sI592
S'receive'
p593
sI593
S'reason'
p594
sI594
S'single'
p595
sI595
S'unable'
p596
sI596
S'care'
p597
sI597
S'adult'
p598
sI598
S'relatives'
p599
sI599
S'oldest'
p600
sI600
S'face'
p601
sI601
S'lack'
p602
sI602
S'resources'
p603
sI603
S'necessities'
p604
sI604
S'personality'
p605
sI605
S'disorders'
p606
sI606
S'people'
p607
sI607
S'extreme'
p608
sI608
S'violates'
p609
sI609
S'natures'
p610
sI610
S'law'
p611
sI611
S'pressure'
p612
sI612
S'exerted'
p613
sI613
S'affected'
p614
sI614
S'abandon'
p615
sI615
S'undesirable'
p616
sI616
S'planning'
p617
sI617
S'programs'
p618
sI618
S'contribute'
p619
sI619
S'infanticide'
p620
sI620
S'result'
p621
sI621
S'successfully'
p622
sI622
S'goal'
p623
sI623
S'stable'
p624
sI624
S'rapid'
p625
sI625
S'obstacle'
p626
sI626
S'necessary'
p627
sI627
S'improved'
p628
sI628
S'living'
p629
sI629
S'standards'
p630
sI630
S'coercive'
p631
sI631
S'used'
p632
sI632
S'achieve'
p633
sI633
S'desired'
p634
sI634
S'potentially'
p635
sI635
S'involve'
p636
sI636
S'improve'
p637
sI637
S'lives'
p638
sI638
S'large'
p639
sI639
S'bring'
p640
sI640
S'poverty'
p641
sI641
S'citizenry'
p642
sI642
S'reduce'
p643
sI643
S'output'
p644
sI644
S'per'
p645
sI645
S'worker'
p646
sI646
S'larger'
p647
sI647
S'mean'
p648
sI648
S'production'
p649
sI649
S'blamed'
p650
sI650
S'variety'
p651
sI651
S'issues'
p652
sI652
S'increasing'
p653
sI653
S'key'
p654
sI654
S'economists'
p655
sI655
S'doubt'
p656
sI656
S'exists'
p657
sI657
S'famine'
p658
sI658
S'caused'
p659
sI659
S'policies'
p660
sI660
S'higher'
p661
sI661
S'density'
p662
sI662
S'specialization'
p663
sI663
S'technological'
p664
sI664
S'innovation'
p665
sI665
S'turn'
p666
sI666
S'standard'
p667
sI667
S'beings'
p668
sI668
S'ultimate'
p669
sI669
S'resource'
p670
sI670
S'starvation'
p671
sI671
S'number'
p672
sI672
S'questioned'
p673
sI673
S'modernization'
p674
sI674
S'spoiled'
p675
sI675
S'aversive'
p676
sI676
S'siblings'
p677
sI677
S'ills'
p678
sI678
S'one'
p679
sI679
S'speculated'
p680
sI680
S'underlying'
p681
sI681
S'forced'
p682
sI682
S'difficult'
p683
sI683
S'cooperate'
p684
sI684
S'conventional'
p685
sI685
S'environment'
p686
sI686
S'achievement'
p687
sI687
S'motivation'
p688
sI688
S'fewer'
p689
sI689
S'likely'
p690
sI690
S'friends'
p691
sI691
S'continuation'
p692
sI692
S'occurring'
p693
sI693
S'hinder'
p694
sI694
S'nation'
p695
sI695
S'created'
p696
sI696
S'implementation'
p697
sI697
S'involved'
p698
sI698
S'sterilization'
p699
sI699
S'decrease'
p700
sI700
S'significant'
p701
sI701
S'amount'
p702
sI702
S'left'
p703
sI703
S'having'
p704
sI704
S'his'
p705
sI705
S'her'
p706
sI706
S'two'
p707
sI707
S'four'
p708
sI708
S'grandparents'
p709
sI709
S'reconfiguration'
p710
sI710
S'familial'
p711
sI711
S'structure'
p712
sI712
S'distinct'
p713
sI713
S'ramifications'
p714
sI714
S'chinese'
p715
sI715
S'society'
p716
sI716
S'contributes'
p717
sI717
S'thought'
p718
sI718
S'contribution'
p719
sI719
S'mainland'
p720
sI720
S'enough'
p721
sI721
S'justify'
p722
sI722
S'costs'
p723
sI723
S'dramatic'
p724
sI724
S'started'
p725
sI725
S'before'
p726
sI726
S'program'
p727
sI727
S'began'
p728
sI728
S'unrelated'
p729
sI729
S'factors'
p730
sI730
S'occurred'
p731
sI731
S'basic'
p732
sI732
S'freely'
p733
sI733
S'responsibly'
p734
sI734
S'exclusive'
p735
sI735
S'responsibility'
p736
sI736
S'meet'
p737
sI737
S'reproductive'
p738
sI738
S'needs'
p739
sI739
S'include'
p740
sI740
S'matters'
p741
sI741
S'sexuality'
p742
sI742
S'reproduction'
p743
sI743
S'need'
p744
sI744
S'take'
p745
sI745
S'interests'
p746
sI746
S'into'
p747
sI747
S'account'
p748
sI748
S'unlikely'
p749
sI749
S'succeed'
p750
sI750
S'narrow'
p751
sI751
S'led'
p752
sI752
S'coercion'
p753
sI753
S'quality'
p754
sI754
S'further'
p755
sI755
S'damages'
p756
sI756
S'diminishes'
p757
sI757
S'threat'
p758
sI758
S'enhance'
p759
sI759
S'considered'
p760
sI760
S'international'
p761
sI761
S'organizations'
p762
sI762
S'little'
p763
sI763
S'different'
p764
sI764
S'new'
p765
sI765
S'materials'
p766
sI766
S'construction'
p767
sI767
S'suits'
p768
sI768
S'sporting'
p769
sI769
S'equipment'
p770
sI770
S'similarly'
p771
sI771
S'give'
p772
sI772
S'competitors'
p773
sI773
S'unfair'
p774
sI774
S'advantage'
p775
sI775
S'others'
p776
sI776
S'anabolic'
p777
sI777
S'steroids'
p778
sI778
S'now'
p779
sI779
S'major'
p780
sI780
S'bodies'
p781
sI781
S'drug'
p782
sI782
S'testing'
p783
sI783
S'wildly'
p784
sI784
S'inconsistent'
p785
sI785
S'instances'
p786
sI786
S'gone'
p787
sI787
S'unenforced'
p788
sI788
S'danger'
p789
sI789
S'anabolica'
p790
sI790
S'call'
p791
sI791
S'when'
p792
sI792
S'athletes'
p793
sI793
S'strictly'
p794
sI794
S'monitored'
p795
sI795
S'programmes'
p796
sI796
S'extremely'
p797
sI797
S'dangerous'
p798
sI798
S'admitted'
p799
sI799
S'often'
p800
sI800
S'doping'
p801
sI801
S'carried'
p802
sI802
S'without'
p803
sI803
S'knowledge'
p804
sI804
S'ten'
p805
sI805
S'years'
p806
sI806
S'around'
p807
sI807
S'former'
p808
sI808
S'mental'
p809
sI809
S'scars'
p810
sI810
S'pursuit'
p811
sI811
S'turned'
p812
sI812
S'modern'
p813
sI813
S'day'
p814
sI814
S'very'
p815
sI815
S'strict'
p816
sI816
S'rules'
p817
sI817
S'caught'
p818
sI818
S'outright'
p819
sI819
S'prevention'
p820
sI820
S'impossibility'
p821
sI821
S'legalised'
p822
sI822
S'agents'
p823
sI823
S'medical'
p824
sI824
S'data'
p825
sI825
S'these'
p826
sI826
S'best'
p827
sI827
S'questionable'
p828
sI828
S'legal'
p829
sI829
S'competitive'
p830
sI830
S'compelled'
p831
sI831
S'net'
p832
sI832
S'field'
p833
sI833
S'widespread'
p834
sI834
S'legalized'
p835
sI835
S'extent'
p836
sI836
S'whitelist'
p837
sI837
S'counseling'
p838
sI838
S'such'
p839
sI839
S'safety'
p840
sI840
S'ensured'
p841
sI841
S'published'
p842
sI842
S'legalizing'
p843
sI843
S'substances'
p844
sI844
S'genetic'
p845
sI845
S'cyborg'
p846
sI846
S'enhancements'
p847
sI847
S'once'
p848
sI848
S'became'
p849
sI849
S'available'
p850
sI850
S'satisfy'
p851
sI851
S'ubermenschen'
p852
sI852
S'reverse'
p853
sI853
S'decline'
p854
sI854
S'public'
p855
sI855
S'interest'
p856
sI856
S'point'
p857
sI857
S'already'
p858
sI858
S'like'
p859
sI859
S'martial'
p860
sI860
S'arts'
p861
sI861
S'wonder'
p862
sI862
S'double'
p863
sI863
S'where'
p864
sI864
S'brought'
p865
sI865
S'nature'
p866
sI866
S'viewed'
p867
sI867
S'peds'
p868
sI868
S'illegal'
p869
sI869
S'ethically'
p870
sI870
S'wide'
p871
sI871
S'range'
p872
sI872
S'users'
p873
sI873
S'risks'
p874
sI874
S'produced'
p875
sI875
S'doses'
p876
sI876
S'suffer'
p877
sI877
S'steroid'
p878
sI878
S'anybody'
p879
sI879
S'free'
p880
sI880
S'put'
p881
sI881
S'substance'
p882
sI882
S'choose'
p883
sI883
S'your'
p884
sI884
S'deadly'
p885
sI885
S'certain'
p886
sI886
S'scenarios'
p887
sI887
S'introducing'
p888
sI888
S'bowling'
p889
sI889
S'frisbee'
p890
sI890
S'early'
p891
sI891
S'good'
p892
sI892
S'habits'
p893
sI893
S'will'
p894
sI894
S'carry'
p895
sI895
S'adulthood'
p896
sI896
S'teaching'
p897
sI897
S'learn'
p898
sI898
S'cultures'
p899
sI899
S'frequent'
p900
sI900
S'regular'
p901
sI901
S'exercise'
p902
sI902
S'boosts'
p903
sI903
S'immune'
p904
sI904
S'system'
p905
sI905
S'affluence'
p906
sI906
S'improves'
p907
sI907
S'obesity'
p908
sI908
S'important'
p909
sI909
S'maintaining'
p910
sI910
S'fitness'
p911
sI911
S'weight'
p912
sI912
S'strengthening'
p913
sI913
S'aerobic'
p914
sI914
S'treat'
p915
sI915
S'chronic'
p916
sI916
S'conditions'
p917
sI917
S'everyone'
p918
sI918
S'equally'
p919
sI919
S'moderate'
p920
sI920
S'beneficial'
p921
sI921
S'treatment'
p922
sI922
S'depression'
p923
sI923
S'inappropriate'
p924
sI924
S'than'
p925
sI925
S'fail'
p926
sI926
S'engage'
p927
sI927
S'risk'
p928
sI928
S'inactivity'
p929
sI929
S'model'
p930
sI930
S'ideal'
p931
sI931
S'occurs'
p932
sI932
S'go'
p933
sI933
S'initiative'
p934
sI934
S'discover'
p935
sI935
S'things'
p936
sI936
S'groups'
p937
sI937
S'die'
p938
sI938
S'leading'
p939
sI939
S'preventable'
p940
sI940
S'death'
p941
sI941
S'worldwide'
p942
sI942
S'via'
p943
sI943
S'explain'
p944
sI944
S'cases'
p945
sI945
S'sedentary'
p946
sI946
S'lifestyle'
p947
sI947
S'plays'
p948
sI948
S'role'
p949
sI949
S'excess'
p950
sI950
S'reached'
p951
sI951
S'epidemic'
p952
sI952
S'proportions'
p953
sI953
S'globally'
p954
sI954
S'stay'
p955
sI955
S'p'
sI956
S'test'
p956
sI957
S'scores'
p957
sI958
S'get'
p958
sI959
S'needed'
p959
sI960
S'cognitive'
p960
sI961
S'relatively'
p961
sI962
S'made'
p962
sI963
S'fit'
p963
sI964
S'being'
p964
sI965
S'physically'
p965
sI966
S'active'
p966
sI967
S'countering'
p967
sI968
S'history'
p968
sI969
S'discrimination'
p969
sI970
S'intended'
p970
sI971
S'equal'
p971
sI972
S'opportunity'
p972
sI973
S'ensure'
p973
sI974
S'minority'
p974
sI975
S'included'
p975
sI976
S'compensate'
p976
sI977
S'past'
p977
sI978
S'persecution'
p978
sI979
S'exploitation'
p979
sI980
S'ruling'
p980
sI981
S'class'
p981
sI982
S'culture'
p982
sI983
S'equality'
p983
sI984
S'requires'
p984
sI985
S'parties'
p985
sI986
S'diminish'
p986
sI987
S'eliminate'
p987
sI988
S'perpetuate'
p988
sI989
S'prohibited'
p989
sI990
S'covenant'
p990
sI991
S'laws'
p991
sI992
S'racial'
p992
sI993
S'rendered'
p993
sI994
S'races'
p994
sI995
S'disproportionally'
p995
sI996
S'small'
p996
sI997
S'companies'
p997
sI998
S'employment'
p998
sI999
S'impossible'
p999
sI1000
S'favor'
p1000
sI1001
S'somebody'
p1001
sI1002
S'discriminating'
p1002
sI1003
S'devalues'
p1003
sI1004
S'accomplishments'
p1004
sI1005
S'chosen'
p1005
sI1006
S'based'
p1006
sI1007
S'group'
p1007
sI1008
S'belong'
p1008
sI1009
S'qualifications'
p1009
sI1010
S'therefore'
p1010
sI1011
S'making'
p1011
sI1012
S'counterproductive'
p1012
sI1013
S'addition'
p1013
sI1014
S'failing'
p1014
sI1015
S'goals'
p1015
sI1016
S'tension'
p1016
sI1017
S'benefit'
p1017
sI1018
S'privileged'
p1018
sI1019
S'expense'
p1019
sI1020
S'fortunate'
p1020
sI1021
S'majority'
p1021
sI1022
S'designate'
p1022
sI1023
S'themselves'
p1023
sI1024
S'members'
p1024
sI1025
S'preferred'
p1025
sI1026
S'primarily'
p1026
sI1027
S'incentives'
p1027
sI1028
S'perform'
p1028
sI1029
S'animosity'
p1029
sI1030
S'toward'
p1030
sI1031
S'hurts'
p1031
sI1032
S'beneficiaries'
p1032
sI1033
S'consideration'
p1033
sI1034
S'during'
p1034
sI1035
S'evaluation'
p1035
sI1036
S'attempts'
p1036
sI1037
S'antidiscrimination'
p1037
sI1038
S'criticized'
p1038
sI1039
S'discriminate'
p1039
sI1040
S'dominant'
p1040
sI1041
S'each'
p1041
sI1042
S'civil'
p1042
sI1043
S'sponsored'
p1043
sI1044
S'treated'
p1044
sI1045
S'qualified'
p1045
sI1046
S'selection'
p1046
sI1047
S'arbitrary'
p1047
sI1048
S'irrelevant'
p1048
sI1049
S'criterion'
p1049
sI1050
S'race'
p1050
sI1051
S'matter'
p1051
sI1052
S'getting'
p1052
sI1053
S'job'
p1053
sI1054
S'final'
p1054
sI1055
S'posts'
p1055
sI1056
S'must'
p1056
sI1057
S'according'
p1057
sI1058
S'overall'
p1058
sI1059
S'idea'
p1059
sI1060
S'backgrounds'
p1060
sI1061
S'chance'
p1061
sI1062
S'disadvantaged'
p1062
sI1063
S'back'
p1063
sI1064
S'starting'
p1064
sI1065
S'position'
p1065
sI1066
S'after'
p1066
sI1067
S'equalities'
p1067
sI1068
S'entail'
p1068
sI1069
S'inequalities'
p1069
sI1070
S'realized'
p1070
sI1071
S'actions'
p1071
sI1072
S'inherent'
p1072
sI1073
S'identical'
p1073
sI1074
S'preserve'
p1074
sI1075
S'inequality'
p1075
sI1076
S'division'
p1076
sI1077
S'reconciliation'
p1077
sI1078
S'redress'
p1078
sI1079
S'imbalances'
p1079
sI1080
S'specific'
p1080
sI1081
S'full'
p1081
sI1082
S'enjoyment'
p1082
sI1083
S'fundamental'
p1083
sI1084
S'freedoms'
p1084
sI1085
S'ameliorate'
p1085
sI1086
S'you'
p1086
sI1087
S'legislate'
p1087
sI1088
S'morality'
p1088
sI1089
S'impetus'
p1089
sI1090
S'disadvantages'
p1090
sI1091
S'overt'
p1091
sI1092
S'historical'
p1092
sI1093
S'criticised'
p1093
sI1094
S'aims'
p1094
sI1095
S'correct'
p1095
sI1096
S'demographic'
p1096
sI1097
S'characteristic'
p1097
sI1098
S'possess'
p1098
sI1099
S'favorable'
p1099
sI1100
S'behalf'
p1100
sI1101
S'remains'
p1101
sI1102
S'address'
p1102
sI1103
S'obstacles'
p1103
sI1104
S'contested'
p1104
sI1105
S'constitutional'
p1105
sI1106
S'grounds'
p1106
sI1107
S'seeking'
p1107
sI1108
S'lowers'
p1108
sI1109
S'bar'
p1109
sI1110
S'fails'
p1110
sI1111
S'hinders'
p1111
sI1112
S'replaces'
p1112
sI1113
S'old'
p1113
sI1114
S'wrongs'
p1114
sI1115
S'undermines'
p1115
sI1116
S'achievements'
p1116
sI1117
S'minorities'
p1117
sI1118
S'encourages'
p1118
sI1119
S'identify'
p1119
sI1120
S'supposed'
p1120
sI1121
S'creates'
p1121
sI1122
S'cult'
p1122
sI1123
S'victimization'
p1123
sI1124
S'engender'
p1124
sI1125
S'recognition'
p1125
sI1126
S'accorded'
p1126
sI1127
S'interfere'
p1127
sI1128
S'establish'
p1128
sI1129
S'cohesive'
p1129
sI1130
S'identity'
p1130
sI1131
S'provisions'
p1131
sI1132
S'marginalised'
p1132
sI1133
S'question'
p1133
sI1134
S'socially'
p1134
sI1135
S'negligible'
p1135
sI1136
S'impact'
p1136
sI1137
S'assist'
p1137
sI1138
S'intervention'
p1138
sI1139
S'distribution'
p1139
sI1140
S'assets'
p1140
sI1141
S'opportunities'
p1141
sI1142
S'resolve'
p1142
sI1143
S'disparities'
p1143
sI1144
S'favored'
p1144
sI1145
S'another'
p1145
sI1146
S'whenever'
p1146
sI1147
S'quota'
p1147
sI1148
S'invoked'
p1148
sI1149
S'quotas'
p1149
sI1150
S'displaces'
p1150
sI1151
S'individuals'
p1151
sI1152
S'normally'
p1152
sI1153
S'determining'
p1153
sI1154
S'factor'
p1154
sI1155
S'designed'
p1155
sI1156
S'perceived'
p1156
sI1157
S'backward'
p1157
sI1158
S'represented'
p1158
sI1159
S'oppressed'
p1159
sI1160
S'classes'
p1160
sI1161
S'prejudice'
p1161
sI1162
S'longer'
p1162
sI1163
S'preference'
p1163
sI1164
S'solely'
p1164
sI1165
S'permitted'
p1165
sI1166
S'today'
p1166
sI1167
S'due'
p1167
sI1168
S'ethnic'
p1168
sI1169
S'pay'
p1169
sI1170
S'inequities'
p1170
sI1171
S'seek'
p1171
sI1172
S'prejudices'
p1172
sI1173
S'racism'
p1173
sI1174
S'continues'
p1174
sI1175
S'reflected'
p1175
sI1176
S'stratification'
p1176
sI1177
S'occur'
p1177
sI1178
S'demonstrate'
p1178
sI1179
S'applicants'
p1179
sI1180
S'particular'
p1180
sI1181
S'choosing'
p1181
sI1182
S'merit'
p1182
sI1183
S'perpetuates'
p1183
sI1184
S'fatalities'
p1184
sI1185
S'rare'
p1185
sI1186
S'heavyweight'
p1186
sI1187
S'matches'
p1187
sI1188
S'rule'
p1188
sI1189
S'changes'
p1189
sI1190
S'kinds'
p1190
sI1191
S'deaths'
p1191
sI1192
S'far'
p1192
sI1193
S'rarer'
p1193
sI1194
S'sport'
p1194
sI1195
S'referee'
p1195
sI1196
S'intervenes'
p1196
sI1197
S'avoid'
p1197
sI1198
S'unnecessary'
p1198
sI1199
S'damage'
p1199
sI1200
S'injury'
p1200
sI1201
S'typical'
p1201
sI1202
S'knock'
p1202
sI1203
S'sustained'
p1203
sI1204
S'loss'
p1204
sI1205
S'consciousness'
p1205
sI1206
S'repeated'
p1206
sI1207
S'blows'
p1207
sI1208
S'head'
p1208
sI1209
S'known'
p1209
sI1210
S'gradually'
p1210
sI1211
S'permanent'
p1211
sI1212
S'brain'
p1212
sI1213
S'severe'
p1213
sI1214
S'strokes'
p1214
sI1215
S'paralysis'
p1215
sI1216
S'physicians'
p1216
sI1217
S'advise'
p1217
sI1218
S'involving'
p1218
sI1219
S'knockouts'
p1219
sI1220
S'monitors'
p1220
sI1221
S'fight'
p1221
sI1222
S'referees'
p1222
sI1223
S'stop'
p1223
sI1224
S'bout'
p1224
sI1225
S'boxer'
p1225
sI1226
S'seriously'
p1226
sI1227
S'injured'
p1227
sI1228
S'commissions'
p1228
sI1229
S'sanctioning'
p1229
sI1230
S'established'
p1230
sI1231
S'fighters'
p1231
sI1232
S'wear'
p1232
sI1233
S'protective'
p1233
sI1234
S'headgear'
p1234
sI1235
S'reducing'
p1235
sI1236
S'injuries'
p1236
sI1237
S'knockdowns'
p1237
sI1238
S'bouts'
p1238
sI1239
S'boxers'
p1239
sI1240
S'generally'
p1240
sI1241
S'allowed'
p1241
sI1242
S'halted'
p1242
sI1243
S'contest'
p1243
sI1244
S'he'
p1244
sI1245
S'participant'
p1245
sI1246
S'defend'
p1246
sI1247
S'himself'
p1247
sI1248
S'knocking'
p1248
sI1249
S'unconscious'
p1249
sI1250
S'concussion'
p1250
sI1251
S'clear'
p1251
sI1252
S'required'
p1252
sI1253
S'kill'
p1253
sI1254
S'amateur'
p1254
sI1255
S'toughman'
p1255
sI1256
S'died'
p1256
sI1257
S'ring'
p1257
sI1258
S'training'
p1258
sI1259
S'sanctioned'
p1259
sI1260
S'civilized'
p1260
sI1261
S'associations'
p1261
sI1262
S'called'
p1262
sI1263
S'bans'
p1263
sI1264
S'hurting'
p1264
sI1265
S'athlete'
p1265
sI1266
S'intention'
p1266
sI1267
S'inflict'
p1267
sI1268
S'opponent'
p1268
sI1269
S'did'
p1269
sI1270
S'faced'
p1270
sI1271
S'brutal'
p1271
sI1272
S'powerpunch'
p1272
sI1273
S'lot'
p1273
sI1274
S'combat'
p1274
sI1275
S'thousands'
p1275
sI1276
S'contact'
p1276
sI1277
S'transmission'
p1277
sI1278
S'disease'
p1278
sI1279
S'barbaric'
p1279
sI1280
S'dp'
p1280
sI1281
S'failed'
p1281
sI1282
S'seen'
p1282
sI1283
S'essential'
p1283
sI1284
S'feature'
p1284
sI1285
S'truly'
p1285
sI1286
S'express'
p1286
sI1287
S'promotes'
p1287
sI1288
S'respect'
p1288
sI1289
S'dignity'
p1289
sI1290
S'voices'
p1290
sI1291
S'forgotten'
p1291
sI1292
S'tries'
p1292
sI1293
S'restore'
p1293
sI1294
S'sense'
p1294
sI1295
S'wholeness'
p1295
sI1296
S'postmodern'
p1296
sI1297
S'era'
p1297
sI1298
S'fragments'
p1298
sI1299
S'ultimately'
p1299
sI1300
S'erodes'
p1300
sI1301
S'host'
p1301
sI1302
S'racially'
p1302
sI1303
S'diverse'
p1303
sI1304
S'community'
p1304
sI1305
S'trust'
p1305
sI1306
S'strongest'
p1306
sI1307
S'up'
p1307
sI1308
S'elements'
p1308
sI1309
S'bringing'
p1309
sI1310
S'together'
p1310
sI1311
S'immigrants'
p1311
sI1312
S'country'
p1312
sI1313
S'official'
p1313
sI1314
S'works'
p1314
sI1315
S'theory'
p1315
sI1316
S'conflicts'
p1316
sI1317
S'equity'
p1317
sI1318
S'acceptance'
p1318
sI1319
S'practices'
p1319
sI1320
S'homogeneity'
p1320
sI1321
S'integration'
p1321
sI1322
S'immigration'
p1322
sI1323
S'adaptation'
p1323
sI1324
S'always'
p1324
sI1325
S'lose'
p1325
sI1326
S'price'
p1326
sI1327
S'threatened'
p1327
sI1328
S'liberal'
p1328
sI1329
S'democracy'
p1329
sI1330
S'multicultural'
p1330
sI1331
S'restored'
p1331
sI1332
S'abolishing'
p1332
sI1333
S'emphasis'
p1333
sI1334
S'diminished'
p1334
sI1335
S'liberty'
p1335
sI1336
S'never'
p1336
sI1337
S'strong'
p1337
sI1338
S'societies'
p1338
sI1339
S'perilous'
p1339
sI1340
S'concept'
p1340
sI1341
S'found'
p1341
sI1342
S'resulted'
p1342
sI1343
S'political'
p1343
sI1344
S'corruption'
p1344
sI1345
S'separate'
p1345
sI1346
S'fosters'
p1346
sI1347
S'mentality'
p1347
sI1348
S'responsibilities'
p1348
sI1349
S'divisive'
p1349
sI1350
S'quick'
p1350
sI1351
S'obscures'
p1351
sI1352
S'scale'
p1352
sI1353
S'threatens'
p1353
sI1354
S'cohesion'
p1354
sI1355
S'undermined'
p1355
sI1356
S'unity'
p1356
sI1357
S'divide'
p1357
sI1358
S'west'
p1358
sI1359
S'friction'
p1359
sI1360
S'cultural'
p1360
sI1361
S'diversity'
p1361
sI1362
S'vital'
p1362
sI1363
S'survival'
p1363
sI1364
S'humanity'
p1364
sI1365
S'humankind'
p1365
sI1366
S'biodiversity'
p1366
sI1367
S'deliberately'
p1367
sI1368
S'conserve'
p1368
sI1369
S'whole'
p1369
sI1370
S'adhere'
p1370
sI1371
S'differences'
p1371
sI1372
S'valuable'
p1372
sI1373
S'preserved'
p1373
sI1374
S'maintain'
p1374
sI1375
S'distinction'
p1375
sI1376
S'integrity'
p1376
sI1377
S'assimilate'
p1377
sI1378
S'heritage'
p1378
sI1379
S'blend'
p1379
sI1380
S'assimilation'
p1380
sI1381
S'hurt'
p1381
sI1382
S'stripping'
p1382
sI1383
S'away'
p1383
sI1384
S'distinctive'
p1384
sI1385
S'features'
p1385
sI1386
S'separating'
p1386
sI1387
S'ethnicity'
p1387
sI1388
S'providing'
p1388
sI1389
S'immigrant'
p1389
sI1390
S'multiculturalist'
p1390
sI1391
S'freer'
p1391
sI1392
S'unworkable'
p1392
sI1393
S'third'
p1393
sI1394
S'seems'
p1394
sI1395
S'limitless'
p1395
sI1396
S'indigenous'
p1396
sI1397
S'peoples'
p1397
sI1398
S'distinctiveness'
p1398
sI1399
S'acknowledged'
p1399
sI1400
S'makes'
p1400
sI1401
S'ways'
p1401
sI1402
S'solving'
p1402
sI1403
S'responding'
p1403
sI1404
S'catastrophes'
p1404
sI1405
S'warrants'
p1405
sI1406
S'eliminating'
p1406
sI1407
S'characteristics'
p1407
sI1408
S'conflict'
p1408
sI1409
S'harmony'
p1409
sI1410
S'classrooms'
p1410
sI1411
S'critical'
p1411
sI1412
S'thinking'
p1412
sI1413
S'tool'
p1413
sI1414
S'instilling'
p1414
sI1415
S'pride'
p1415
sI1416
S'confidence'
p1416
sI1417
S'unique'
p1417
sI1418
S'special'
p1418
sI1419
S'provides'
p1419
sI1420
S'fairer'
p1420
sI1421
S'learning'
p1421
sI1422
S'abandonment'
p1422
sI1423
S'original'
p1423
sI1424
S'intrinsically'
p1424
sI1425
S'homogeneous'
p1425
sI1426
S'grounded'
p1426
sI1427
S'consensus'
p1427
sI1428
S'criticize'
p1428
sI1429
S'injustice'
p1429
sI1430
S'exclusionary'
p1430
sI1431
S'undermine'
p1431
sI1432
S'reform'
p1432
sI1433
S'pathology'
p1433
sI1434
S'comes'
p1434
sI1435
S'difference'
p1435
sI1436
S'developmental'
p1436
sI1437
S'journey'
p1437
sI1438
S'enhances'
p1438
sI1439
S'able'
p1439
sI1440
S'attachments'
p1440
sI1441
S'repression'
p1441
sI1442
S'prevalent'
p1442
sI1443
S'valued'
p1443
sI1444
S'recognized'
p1444
sI1445
S'uniting'
p1445
sI1446
S'component'
p1446
sI1447
S'rational'
p1447
sI1448
S'ground'
p1448
sI1449
S'curtailing'
p1449
sI1450
S'multinationality'
p1450
sI1451
S'necessarily'
p1451
sI1452
S'comprise'
p1452
sI1453
S'civilizations'
p1453
sI1454
S'value'
p1454
sI1455
S'promoted'
p1455
sI1456
S'affiliation'
p1456
sI1457
S'see'
p1457
sI1458
S'ambitions'
p1458
sI1459
S'catered'
p1459
sI1460
S'willingly'
p1460
sI1461
S'accepting'
p1461
sI1462
S'legitimacy'
p1462
sI1463
S'function'
p1463
sI1464
S'precisely'
p1464
sI1465
S'oppression'
p1465
sI1466
S'majorities'
p1466
sI1467
S'become'
p1467
sI1468
S'polite'
p1468
sI1469
S'euphemistic'
p1469
sI1470
S'affirming'
p1470
sI1471
S'persisting'
p1471
sI1472
S'unequal'
p1472
sI1473
S'relationships'
p1473
sI1474
S'enriched'
p1474
sI1475
S'accrues'
p1475
sI1476
S'appreciation'
p1476
sI1477
S'religious'
p1477
sI1478
S'willingness'
p1478
sI1479
S'tolerate'
p1479
sI1480
S'tends'
p1480
sI1481
S'emphasize'
p1481
sI1482
S'shifted'
p1482
sI1483
S'tolerating'
p1483
sI1484
S'multiple'
p1484
sI1485
S'systems'
p1485
sI1486
S'hostile'
p1486
sI1487
S'liberalism'
p1487
sI1488
S'end'
p1488
sI1489
S'useful'
p1489
sI1490
S'create'
p1490
sI1491
S'values'
p1491
sI1492
S'expressions'
p1492
sI1493
S'asset'
p1493
sI1494
S'promotion'
p1494
sI1495
S'maintenance'
p1495
sI1496
S'requirement'
p1496
sI1497
S'sustainable'
p1497
sI1498
S'brings'
p1498
sI1499
S'progress'
p1499
sI1500
S'commercial'
p1500
sI1501
S'jewish'
p1501
sI1502
S'traditions'
p1502
sI1503
S'set'
p1503
sI1504
S'aside'
p1504
sI1505
S'days'
p1505
sI1506
S'authorities'
p1506
sI1507
S'disapprove'
p1507
sI1508
S'moral'
p1508
sI1509
S'impediment'
p1509
sI1510
S'jurisdictions'
p1510
sI1511
S'local'
p1511
sI1512
S'either'
p1512
sI1513
S'heavily'
p1513
sI1514
S'licensing'
p1514
sI1515
S'regulation'
p1515
sI1516
S'tourism'
p1516
sI1517
S'revenue'
p1517
sI1518
S'low'
p1518
sI1519
S'probability'
p1519
sI1520
S'bias'
p1520
sI1521
S'quite'
p1521
sI1522
S'easily'
p1522
sI1523
S'missed'
p1523
sI1524
S'betting'
p1524
sI1525
S'team'
p1525
sI1526
S'industry'
p1526
sI1527
S'participate'
p1527
sI1528
S'recreation'
p1528
sI1529
S'means'
p1529
sI1530
S'gain'
p1530
sI1531
S'income'
p1531
sI1532
S'involves'
p1532
sI1533
S'variation'
p1533
sI1534
S'chemistry'
p1534
sI1535
S'addictive'
p1535
sI1536
S'gamblers'
p1536
sI1537
S'persist'
p1537
sI1538
S'losses'
p1538
sI1539
S'pathological'
p1539
sI1540
S'disorder'
p1540
sI1541
S'adverse'
p1541
sI1542
S'gambler'
p1542
sI1543
S'similar'
p1543
sI1544
S'chemical'
p1544
sI1545
S'problem'
p1545
sI1546
S'erroneous'
p1546
sI1547
S'belief'
p1547
sI1548
S'keep'
p1548
sI1549
S'eventually'
p1549
sI1550
S'win'
p1550
sI1551
S'impulse'
p1551
sI1552
S'debts'
p1552
sI1553
S'sources'
p1553
sI1554
S'money'
p1554
sI1555
S'theft'
p1555
sI1556
S'compulsive'
p1556
sI1557
S'detrimental'
p1557
sI1558
S'personal'
p1558
sI1559
S'homes'
p1559
sI1560
S'suicidal'
p1560
sI1561
S'ideation'
p1561
sI1562
S'increases'
p1562
sI1563
S'lifetime'
p1563
sI1564
S'suicide'
p1564
sI1565
S'regressive'
p1565
sI1566
S'tax'
p1566
sI1567
S'nearly'
p1567
sI1568
S'western'
p1568
sI1569
S'outlawed'
p1569
sI1570
S'run'
p1570
sI1571
S'lottery'
p1571
sI1572
S'raise'
p1572
sI1573
S'casino'
p1573
sI1574
S'outweigh'
p1574
sI1575
S'initial'
p1575
sI1576
S'generated'
p1576
sI1577
S'almost'
p1577
sI1578
S'every'
p1578
sI1579
S'played'
p1579
sI1580
S'odds'
p1580
sI1581
S'times'
p1581
sI1582
S'slot'
p1582
sI1583
S'machine'
p1583
sI1584
S'given'
p1584
sI1585
S'amounts'
p1585
sI1586
S'currency'
p1586
sI1587
S'handled'
p1587
sI1588
S'patrons'
p1588
sI1589
S'staff'
p1589
sI1590
S'tempted'
p1590
sI1591
S'cheat'
p1591
sI1592
S'steal'
p1592
sI1593
S'area'
p1593
sI1594
S'controversy'
p1594
sI1595
S'surrounding'
p1595
sI1596
S'casinos'
p1596
sI1597
S'internet'
p1597
sI1598
S'popular'
p1598
sI1599
S'lucrative'
p1599
sI1600
S'business'
p1600
sI1601
S'vibrant'
p1601
sI1602
S'innovative'
p1602
sI1603
S'leisure'
p1603
sI1604
S'enjoyed'
p1604
sI1605
S'millions'
p1605
sI1606
S'regulated'
p1606
sI1607
S'instant'
p1607
sI1608
S'gratification'
p1608
sI1609
S'privacy'
p1609
sI1610
S'offer'
p1610
sI1611
S'exacerbate'
p1611
sI1612
S'electronic'
p1612
sI1613
S'transfers'
p1613
sI1614
S'exploited'
p1614
sI1615
S'lotteries'
p1615
sI1616
S'hailed'
p1616
sI1617
S'painless'
p1617
sI1618
S'taxation'
p1618
sI1619
S'winning'
p1619
sI1620
S'jackpot'
p1620
sI1621
S'winners'
p1621
sI1622
S'feel'
p1622
sI1623
S'anomie'
p1623
sI1624
S'change'
p1624
sI1625
S'lifestyles'
p1625
sI1626
S'facilitate'
p1626
sI1627
S'allocates'
p1627
sI1628
S'corrupt'
p1628
sI1629
S'susceptible'
p1629
sI1630
S'fraud'
p1630
sI1631
S'profits'
p1631
sI1632
S'venture'
p1632
sI1633
S'charities'
p1633
sI1634
S'municipality'
p1634
sI1635
S'dysfunctional'
p1635
sI1636
S'families'
p1636
sI1637
S'banks'
p1637
sI1638
S'credit'
p1638
sI1639
S'card'
p1639
sI1640
S'alternative'
p1640
sI1641
S'legitimate'
p1641
sI1642
S'driven'
p1642
sI1643
S'lengths'
p1643
sI1644
S'cover'
p1644
sI1645
S'debt'
p1645
sI1646
S'addicted'
p1646
sI1647
S'spend'
p1647
sI1648
S'following'
p1648
sI1649
S'cost'
p1649
sI1650
S'productivity'
p1650
sI1651
S'profit'
p1651
sI1652
S'bankruptcy'
p1652
sI1653
S'varied'
p1653
sI1654
S'aggregate'
p1654
sI1655
S'demand'
p1655
sI1656
S'goods'
p1656
sI1657
S'services'
p1657
sI1658
S'economy'
p1658
sI1659
S'goes'
p1659
sI1660
S'directly'
p1660
sI1661
S'stimulating'
p1661
sI1662
S'economically'
p1662
sI1663
S'institutions'
p1663
sI1664
S'enjoy'
p1664
sI1665
S'prepared'
p1665
sI1666
S'borders'
p1666
sI1667
S'fleeing'
p1667
sI1668
S'refugees'
p1668
sI1669
S'resettled'
p1669
sI1670
S'terms'
p1670
sI1671
S'labor'
p1671
sI1672
S'frequently'
p1672
sI1673
S'worlds'
p1673
sI1674
S'poorest'
p1674
sI1675
S'handle'
p1675
sI1676
S'influx'
p1676
sI1677
S'persons'
p1677
sI1678
S'refugee'
p1678
sI1679
S'populations'
p1679
sI1680
S'consist'
p1680
sI1681
S'terrified'
p1681
sI1682
S'familiar'
p1682
sI1683
S'surroundings'
p1683
sI1684
S'fraction'
p1684
sI1685
S'eligible'
p1685
sI1686
S'status'
p1686
sI1687
S'origin'
p1687
sI1688
S'humanitarian'
p1688
sI1689
S'hardship'
p1689
sI1690
S'serve'
p1690
sI1691
S'informants'
p1691
sI1692
S'operatives'
p1692
sI1693
S'terrorist'
p1693
sI1694
S'contributing'
p1694
sI1695
S'congestion'
p1695
sI1696
S'cities'
p1696
sI1697
S'rise'
p1697
sI1698
S'waves'
p1698
sI1699
S'stage'
p1699
sI1700
S'application'
p1700
sI1701
S'denied'
p1701
sI1702
S'regardless'
p1702
sI1703
S'claim'
p1703
sI1704
S'defined'
p1704
sI1705
S'persecuted'
p1705
sI1706
S'then'
p1706
sI1707
S'enter'
p1707
sI1708
S'exempted'
p1708
sI1709
S'movement'
p1709
sI1710
S'intolerance'
p1710
sI1711
S'solve'
p1711
sI1712
S'crisis'
p1712
sI1713
S'plight'
p1713
sI1714
S'boat'
p1714
sI1715
S'prohibition'
p1715
sI1716
S'forcible'
p1716
sI1717
S'return'
p1717
sI1718
S'customary'
p1718
sI1719
S'issue'
p1719
sI1720
S'seekers'
p1720
sI1721
S'motivated'
p1721
sI1722
S'availability'
p1722
sI1723
S'migration'
p1723
sI1724
S'provided'
p1724
sI1725
S'opposition'
p1725
sI1726
S'levels'
p1726
sI1727
S'alien'
p1727
sI1728
S'natural'
p1728
sI1729
S'distort'
p1729
sI1730
S'spoil'
p1730
sI1731
S'existing'
p1731
sI1732
S'acquire'
p1732
sI1733
S'otherwise'
p1733
sI1734
S'native'
p1734
sI1735
S'suppressing'
p1735
sI1736
S'wages'
p1736
sI1737
S'nationality'
p1737
sI1738
S'overpopulate'
p1738
sI1739
S'swamp'
p1739
sI1740
S'replace'
p1740
sI1741
S'compete'
p1741
sI1742
S'employees'
p1742
sI1743
S'leave'
p1743
sI1744
S'along'
p1744
sI1745
S'criminality'
p1745
sI1746
S'find'
p1746
sI1747
S'refuge'
p1747
sI1748
S'antiquity'
p1748
sI1749
S'contrasted'
p1749
sI1750
S'monarch'
p1750
sI1751
S'serves'
p1751
sI1752
S'ceremonial'
p1752
sI1753
S'figurehead'
p1753
sI1754
S'symbol'
p1754
sI1755
S'continuity'
p1755
sI1756
S'balanced'
p1756
sI1757
S'stressed'
p1757
sI1758
S'republicanism'
p1758
sI1759
S'next'
p1759
sI1760
S'logical'
p1760
sI1761
S'step'
p1761
sI1762
S'fully'
p1762
sI1763
S'constitution'
p1763
sI1764
S'elitist'
p1764
sI1765
S'defer'
p1765
sI1766
S'simply'
p1766
sI1767
S'suited'
p1767
sI1768
S'bygone'
p1768
sI1769
S'imperialism'
p1769
sI1770
S'royal'
p1770
sI1771
S'feeling'
p1771
sI1772
S'instead'
p1772
sI1773
S'fellow'
p1773
sI1774
S'sovereign'
p1774
sI1775
S'contradicts'
p1775
sI1776
S'elect'
p1776
sI1777
S'citizen'
p1777
sI1778
S'hold'
p1778
sI1779
S'office'
p1779
sI1780
S'monarchical'
p1780
sI1781
S'prerogative'
p1781
sI1782
S'powers'
p1782
sI1783
S'circumvent'
p1783
sI1784
S'accountability'
p1784
sI1785
S'demands'
p1785
sI1786
S'deference'
p1786
sI1787
S'enemy'
p1787
sI1788
S'aspiration'
p1788
sI1789
S'intellect'
p1789
sI1790
S'harms'
p1790
sI1791
S'monarchs'
p1791
sI1792
S'hereditary'
p1792
sI1793
S'condemns'
p1793
sI1794
S'heir'
p1794
sI1795
S'throne'
p1795
sI1796
S'abnormal'
p1796
sI1797
S'impartial'
p1797
sI1798
S'accountable'
p1798
sI1799
S'expensive'
p1799
sI1800
S'archaic'
p1800
sI1801
S'safeguard'
p1801
sI1802
S'instability'
p1802
sI1803
S'safeguards'
p1803
sI1804
S'arbiter'
p1804
sI1805
S'intermediary'
p1805
sI1806
S'crown'
p1806
sI1807
S'guarantor'
p1807
sI1808
S'misuse'
p1808
sI1809
S'politicians'
p1809
sI1810
S'focal'
p1810
sI1811
S'tradition'
p1811
sI1812
S'stability'
p1812
sI1813
S'serving'
p1813
sI1814
S'duty'
p1814
sI1815
S'worked'
p1815
sI1816
S'outdated'
p1816
sI1817
S'institution'
p1817
sI1818
S'royals'
p1818
sI1819
S'celebrities'
p1819
sI1820
S'formal'
p1820
sI1821
S'said'
p1821
sI1822
S'egalitarianism'
p1822
sI1823
S'dislike'
p1823
sI1824
S'inherited'
p1824
sI1825
S'privilege'
p1825
sI1826
S'succession'
p1826
sI1827
S'held'
p1827
sI1828
S'duties'
p1828
sI1829
S'traditional'
p1829
sI1830
S'embodying'
p1830
sI1831
S'representing'
p1831
sI1832
S'source'
p1832
sI1833
S'checks'
p1833
sI1834
S'balances'
p1834
sI1835
S'elected'
p1835
sI1836
S'might'
p1836
sI1837
S'conferred'
p1837
sI1838
S'respective'
p1838
sI1839
S'constitutions'
p1839
sI1840
S'check'
p1840
sI1841
S'inherently'
p1841
sI1842
S'contrary'
p1842
sI1843
S'monarchies'
p1843
sI1844
S'unfashionable'
p1844
sI1845
S'colonialism'
p1845
sI1846
S'prosecution'
p1846
sI1847
S'hierarchies'
p1847
sI1848
S'strengthens'
p1848
sI1849
S'principal'
p1849
sI1850
S'immediate'
p1850
sI1851
S'leadership'
p1851
sI1852
S'ruled'
p1852
sI1853
S'intent'
p1853
sI1854
S'improving'
p1854
sI1855
S'subjects'
p1855
sI1856
S'knew'
p1856
sI1857
S'prosecuted'
p1857
sI1858
S'offences'
p1858
sI1859
S'collectively'
p1859
sI1860
S'bargain'
p1860
sI1861
S'conventions'
p1861
sI1862
S'association'
p1862
sI1863
S'workers'
p1863
sI1864
S'employer'
p1864
sI1865
S'permits'
p1865
sI1866
S'workplace'
p1866
sI1867
S'produces'
p1867
sI1868
S'deadweight'
p1868
sI1869
S'union'
p1869
sI1870
S'pricing'
p1870
sI1871
S'unionized'
p1871
sI1872
S'above'
p1872
sI1873
S'businesses'
p1873
sI1874
S'driving'
p1874
sI1875
S'creating'
p1875
sI1876
S'purpose'
p1876
sI1877
S'leveling'
p1877
sI1878
S'powerful'
p1878
sI1879
S'oligopolies'
p1879
sI1880
S'unionisation'
p1880
sI1881
S'stand'
p1881
sI1882
S'company'
p1882
sI1883
S'conduct'
p1883
sI1884
S'facilitates'
p1884
sI1885
S'amicable'
p1885
sI1886
S'settlements'
p1886
sI1887
S'disputes'
p1887
sI1888
S'employers'
p1888
sI1889
S'abortion'
p1889
sI1890
S'mother'
p1890
sI1891
S'bore'
p1891
sI1892
S'relevance'
p1892
sI1893
S'measure'
p1893
sI1894
S'advance'
p1894
sI1895
S'woman'
p1895
sI1896
S'protecting'
p1896
sI1897
S'potentiality'
p1897
sI1898
S'while'
p1898
sI1899
S'fetus'
p1899
sI1900
S'override'
p1900
sI1901
S'pregnant'
p1901
sI1902
S'morally'
p1902
sI1903
S'innocent'
p1903
sI1904
S'biologically'
p1904
sI1905
S'beginning'
p1905
sI1906
S'conception'
p1906
sI1907
S'unjust'
p1907
sI1908
S'unborn'
p1908
sI1909
S'deliberate'
p1909
sI1910
S'placed'
p1910
sI1911
S'killing'
p1911
sI1912
S'equivalent'
p1912
sI1913
S'consciously'
p1913
sI1914
S'taking'
p1914
sI1915
S'begins'
p1915
sI1916
S'near'
p1916
sI1917
S'induced'
p1917
sI1918
S'embryo'
p1918
sI1919
S'violation'
p1919
sI1920
S'happens'
p1920
sI1921
S'exercises'
p1921
sI1922
S'ones'
p1922
sI1923
S'body'
p1923
sI1924
S'criminalizing'
p1924
sI1925
S'deprives'
p1925
sI1926
S'highly'
p1926
sI1927
S'immoral'
p1927
sI1928
S'includes'
p1928
sI1929
S'encompassing'
p1929
sI1930
S'circumstances'
p1930
sI1931
S'abort'
p1931
sI1932
S'physician'
p1932
sI1933
S'especially'
p1933
sI1934
S'critics'
p1934
sI1935
S'procedure'
p1935
sI1936
S'banning'
p1936
sI1937
S'safer'
p1937
sI1938
S'medically'
p1938
sI1939
S'doctors'
p1939
sI1940
S'felt'
p1940
sI1941
S'safest'
p1941
sI1942
S'preserving'
p1942
sI1943
S'fetal'
p1943
sI1944
S'intact'
p1944
sI1945
S'dilation'
p1945
sI1946
S'extraction'
p1946
sI1947
S'pregnancy'
p1947
sI1948
S'imperil'
p1948
sI1949
S'justifiable'
p1949
sI1950
S'whether'
p1950
sI1951
S'terminate'
p1951
sI1952
S'whose'
p1952
sI1953
S'destruction'
p1953
sI1954
S'rejected'
p1954
sI1955
S'approved'
p1955
sI1956
S'disapproved'
p1956
sI1957
S'circumstance'
p1957
sI1958
S'womans'
p1958
sI1959
S'continue'
p1959
sI1960
S'inviolable'
p1960
sI1961
S'choice'
p1961
sI1962
S'controlled'
p1962
sI1963
S'preferable'
p1963
sI1964
S'proper'
p1964
sI1965
S'supervision'
p1965
sI1966
S'slippery'
p1966
sI1967
S'slope'
p1967
sI1968
S'lost'
p1968
sI1969
S'unsafe'
p1969
sI1970
S'unrest'
p1970
sI1971
S'case'
p1971
sI1972
S'spouses'
p1972
sI1973
S'men'
p1973
sI1974
S'marry'
p1974
sI1975
S'believed'
p1975
sI1976
S'producing'
p1976
sI1977
S'female'
p1977
sI1978
S'babies'
p1978
sI1979
S'worth'
p1979
sI1980
S'rupees'
p1980
sI1981
S'yuan'
p1981
sI1982
S'educational'
p1982
sI1983
S'soon'
p1983
sI1984
S'follow'
p1984
sI1985
S'shortage'
p1985
sI1986
S'females'
p1986
sI1987
S'trafficking'
p1987
sI1988
S'son'
p1988
sI1989
S'strongly'
p1989
sI1990
S'harmonious'
p1990
sI1991
S'months'
p1991
sI1992
S'off'
p1992
sI1993
S'relax'
p1993
sI1994
S'break'
p1994
sI1995
S'stresses'
p1995
sI1996
S'summer'
p1996
sI1997
S'vacation'
p1997
sI1998
S'academic'
p1998
sI1999
S'declines'
p1999
sI2000
S'relative'
p2000
sI2001
S'working'
p2001
sI2002
S'wish'
p2002
sI2003
S'supervised'
p2003
sI2004
S'unsupervised'
p2004
sI2005
S'fall'
p2005
sI2006
S'multitrack'
p2006
sI2007
S'schedules'
p2007
sI2008
S'reportedly'
p2008
sI2009
S'three'
p2009
sI2010
S'built'
p2010
sI2011
S'spent'
p2011
sI2012
S'schedule'
p2012
sI2013
S'attend'
p2013
sI2014
S'say'
p2014
sI2015
S'calendar'
p2015
sI2016
S'peers'
p2016
sI2017
S'showed'
p2017
sI2018
S'substantial'
p2018
sI2019
S'performing'
p2019
sI2020
S'breaks'
p2020
sI2021
S'struggling'
p2021
sI2022
S'vacations'
p2022
sI2023
S'operating'
p2023
sI2024
S'difficulties'
p2024
sI2025
S'teens'
p2025
sI2026
S'attention'
p2026
sI2027
S'disabilities'
p2027
sI2028
S'miss'
p2028
sI2029
S'experiences'
p2029
sI2030
S'subsidies'
p2030
sI2031
S'markets'
p2031
sI2032
S'market'
p2032
sI2033
S'inefficiencies'
p2033
sI2034
S'inefficient'
p2034
sI2035
S'unless'
p2035
sI2036
S'nets'
p2036
sI2037
S'redistribute'
p2037
sI2038
S'vulnerable'
p2038
sI2039
S'enable'
p2039
sI2040
S'households'
p2040
sI2041
S'productive'
p2041
sI2042
S'investments'
p2042
sI2043
S'cct'
p2043
sI2044
S'efficient'
p2044
sI2045
S'tools'
p2045
sI2046
S'access'
p2046
sI2047
S'commodities'
p2047
sI2048
S'prices'
p2048
sI2049
S'consumers'
p2049
sI2050
S'afford'
p2050
sI2051
S'increasingly'
p2051
sI2052
S'reach'
p2052
sI2053
S'facing'
p2053
sI2054
S'hard'
p2054
sI2055
S'falling'
p2055
sI2056
S'deeper'
p2056
sI2057
S'manage'
p2057
sI2058
S'cushion'
p2058
sI2059
S'invest'
p2059
sI2060
S'efficiently'
p2060
sI2061
S'welfare'
p2061
sI2062
S'sustains'
p2062
sI2063
S'adapt'
p2063
sI2064
S'dependence'
p2064
sI2065
S'incentive'
p2065
sI2066
S'generation'
p2066
sI2067
S'dependents'
p2067
sI2068
S'rely'
p2068
sI2069
S'upon'
p2069
sI2070
S'tensions'
p2070
sI2071
S'donor'
p2071
sI2072
S'recipient'
p2072
sI2073
S'intensify'
p2073
sI2074
S'degrade'
p2074
sI2075
S'relations'
p2075
sI2076
S'distributive'
p2076
sI2077
S'efficiency'
p2077
sI2078
S'lower'
p2078
sI2079
S'satisfaction'
p2079
sI2080
S'happiness'
p2080
sI2081
S'gap'
p2081
sI2082
S'rich'
p2082
sI2083
S'competition'
p2083
sI2084
S'redistributive'
p2084
sI2085
S'investment'
p2085
sI2086
S'assured'
p2086
sI2087
S'redistribution'
p2087
sI2088
S'successful'
p2088
sI2089
S'embedded'
p2089
sI2090
S'caste'
p2090
sI2091
S'justice'
p2091
sI2092
S'incomes'
p2092
sI2093
S'concentrations'
p2093
sI2094
S'wealth'
p2094
sI2095
S'spreads'
p2095
sI2096
S'widely'
p2096
sI2097
S'reduces'
p2097
sI2098
S'invariably'
p2098
sI2099
S'translates'
p2099
sI2100
S'empowers'
p2100
sI2101
S'breeds'
p2101
sI2102
S'bred'
p2102
sI2103
S'demonstrated'
p2103
sI2104
S'proven'
p2104
sI2105
S'impoverished'
p2105
sI2106
S'stratified'
p2106
sI2107
S'economies'
p2107
sI2108
S'obligation'
p2108
sI2109
S'financially'
p2109
sI2110
S'egalitarian'
p2110
sI2111
S'exploit'
p2111
sI2112
S'middle'
p2112
sI2113
S'enabling'
p2113
sI2114
S'crises'
p2114
sI2115
S'encouragement'
p2115
sI2116
S'receiving'
p2116
sI2117
S'resume'
p2117
sI2118
S'legitimately'
p2118
sI2119
S'obtained'
p2119
sI2120
S'ever'
p2120
sI2121
S'clout'
p2121
sI2122
S'spending'
p2122
sI2123
S'priorities'
p2123
sI2124
S'firearms'
p2124
sI2125
S'mexico'
p2125
sI2126
S'u'
sI2127
S'gunshops'
p2126
sI2128
S'trafficked'
p2127
sI2129
S'gun'
p2128
sI2130
S'dealers'
p2129
sI2131
S'mexican'
p2130
sI2132
S'guns'
p2131
sI2133
S'traced'
p2132
sI2134
S'origins'
p2133
sI2135
S'percentage'
p2134
sI2136
S'originate'
p2135
sI2137
S'stores'
p2136
sI2138
S'financing'
p2137
sI2139
S'traffickers'
p2138
sI2140
S'insatiable'
p2139
sI2141
S'fuels'
p2140
sI2142
S'root'
p2141
sI2143
S'really'
p2142
sI2144
S'arming'
p2143
sI2145
S'cartels'
p2144
sI2146
S'atf'
p2145
sI2147
S'knowingly'
p2146
sI2148
S'bought'
p2147
sI2149
S'suspected'
p2148
sI2150
S'straw'
p2149
sI2151
S'purchasers'
p2150
sI2152
S'sending'
p2151
sI2153
S'premeditated'
p2152
sI2154
S'systematic'
p2153
sI2155
S'knowing'
p2154
sI2156
S'destinations'
p2155
sI2157
S'regulating'
p2156
sI2158
S'profitable'
p2157
sI2159
S'black'
p2158
sI2160
S'recovered'
p2159
sI2161
S'came'
p2160
sI2162
S'keeps'
p2161
sI2163
S'huge'
p2162
sI2164
S'stockpile'
p2163
sI2165
S'urging'
p2164
sI2166
S'charter'
p2165
sI2167
S'ratified'
p2166
sI2168
S'prohibits'
p2167
sI2169
S'except'
p2168
sI2170
S'imminent'
p2169
sI2171
S'attack'
p2170
sI2172
S'possibility'
p2171
sI2173
S'warfare'
p2172
sI2174
S'global'
p2173
sI2175
S'security'
p2174
sI2176
S'minimize'
p2175
sI2177
S'proliferation'
p2176
sI2178
S'expansion'
p2177
sI2179
S'spread'
p2178
sI2180
S'likelihood'
p2179
sI2181
S'caution'
p2180
sI2182
S'safely'
p2181
sI2183
S'guard'
p2182
sI2184
S'actively'
p2183
sI2185
S'disastrous'
p2184
sI2186
S'terrorism'
p2185
sI2187
S'weapon'
p2186
sI2188
S'domino'
p2187
sI2189
S'region'
p2188
sI2190
S'characterised'
p2189
sI2191
S'apartheid'
p2190
sI2192
S'carries'
p2191
sI2193
S'importance'
p2192
sI2194
S'effort'
p2193
sI2195
S'perhaps'
p2194
sI2196
S'rid'
p2195
sI2197
S'peace'
p2196
sI2198
S'reliance'
p2197
sI2199
S'deterrence'
p2198
sI2200
S'becoming'
p2199
sI2201
S'hazardous'
p2200
sI2202
S'decreasingly'
p2201
sI2203
S'terrorists'
p2202
sI2204
S'hands'
p2203
sI2205
S'weaponry'
p2204
sI2206
S'deter'
p2205
sI2207
S'attacking'
p2206
sI2208
S'destroy'
p2207
sI2209
S'enemies'
p2208
sI2210
S'induce'
p2209
sI2211
S'escalation'
p2210
sI2212
S'inducing'
p2211
sI2213
S'material'
p2212
sI2214
S'retaliation'
p2213
sI2215
S'acquired'
p2214
sI2216
S'capabilities'
p2215
sI2217
S'threats'
p2216
sI2218
S'adequate'
p2217
sI2219
S'organizational'
p2218
sI2220
S'controls'
p2219
sI2221
S'accidental'
p2220
sI2222
S'lessen'
p2221
sI2223
S'allies'
p2222
sI2224
S'preventing'
p2223
sI2225
S'dragging'
p2224
sI2226
S'wars'
p2225
sI2227
S'npt'
p2226
sI2228
S'significance'
p2227
sI2229
S'purely'
p2228
sI2230
S'desirable'
p2229
sI2231
S'unproven'
p2230
sI2232
S'propositions'
p2231
sI2233
S'deserve'
p2232
sI2234
S'disbelief'
p2233
sI2235
S'atheists'
p2234
sI2236
S'believe'
p2235
sI2237
S'god'
p2236
sI2238
S'inventions'
p2237
sI2239
S'religion'
p2238
sI2240
S'functions'
p2239
sI2241
S'oppress'
p2240
sI2242
S'implies'
p2241
sI2243
S'abdication'
p2242
sI2244
S'decisive'
p2243
sI2245
S'negation'
p2244
sI2246
S'ends'
p2245
sI2247
S'enslavement'
p2246
sI2248
S'mankind'
p2247
sI2249
S'denying'
p2248
sI2250
S'existence'
p2249
sI2251
S'relativism'
p2250
sI2252
S'ethical'
p2251
sI2253
S'foundation'
p2252
sI2254
S'renders'
p2253
sI2255
S'meaningless'
p2254
sI2256
S'miserable'
p2255
sI2257
S'invention'
p2256
sI2258
S'frighten'
p2257
sI2259
S'superior'
p2258
sI2260
S'basis'
p2259
sI2261
S'ethics'
p2260
sI2262
S'religions'
p2261
sI2263
S'divine'
p2262
sI2264
S'authority'
p2263
sI2265
S'lends'
p2264
sI2266
S'authoritarianism'
p2265
sI2267
S'dogmatism'
p2266
sI2268
S'arguments'
p2267
sI2269
S'show'
p2268
sI2270
S'insufficient'
p2269
sI2271
S'universe'
p2270
sI2272
S'perceptible'
p2271
sI2273
S'exist'
p2272
sI2274
S'omniscient'
p2273
sI2275
S'superobserver'
p2274
sI2276
S'identified'
p2275
sI2277
S'complexity'
p2276
sI2278
S'explained'
p2277
sI2279
S'reference'
p2278
sI2280
S'creator'
p2279
sI2281
S'product'
p2280
sI2282
S'intelligent'
p2281
sI2283
S'facts'
p2282
sI2284
S'absence'
p2283
sI2285
S'atheistic'
p2284
sI2286
S'refute'
p2285
sI2287
S'pressed'
p2286
sI2288
S'rigorous'
p2287
sI2289
S'consistency'
p2288
sI2290
S'theism'
p2289
sI2291
S'throughout'
p2290
sI2292
S'recorded'
p2291
sI2293
S'places'
p2292
sI2294
S'prima'
p2293
sI2295
S'facie'
p2294
sI2296
S'demonstration'
p2295
sI2297
S'understanding'
p2296
sI2298
S'ponders'
p2297
sI2299
S'encounters'
p2298
sI2300
S'nothing'
p2299
sI2301
S'contradictions'
p2300
sI2302
S'adequately'
p2301
sI2303
S'gods'
p2302
sI2304
S'argument'
p2303
sI2305
S'fallacy'
p2304
sI2306
S'omnipotent'
p2305
sI2307
S'entity'
p2306
sI2308
S'logically'
p2307
sI2309
S'contradictory'
p2308
sI2310
S'creators'
p2309
sI2311
S'asked'
p2310
sI2312
S'visible'
p2311
sI2313
S'unchanging'
p2312
sI2314
S'changing'
p2313
sI2315
S'inconceivable'
p2314
sI2316
S'perfect'
p2315
sI2317
S'benevolent'
p2316
sI2318
S'deity'
p2317
sI2319
S'ought'
p2318
sI2320
S'happy'
p2319
sI2321
S'creatures'
p2320
sI2322
S'imperfect'
p2321
sI2323
S'allegedly'
p2322
sI2324
S'proving'
p2323
sI2325
S'certainty'
p2324
sI2326
S'light'
p2325
sI2327
S'condition'
p2326
sI2328
S'unbelief'
p2327
sI2329
S'proof'
p2328
sI2330
S'reasons'
p2329
sI2331
S'credible'
p2330
sI2332
S'believing'
p2331
sI2333
S'assert'
p2332
sI2334
S'authoritatively'
p2333
sI2335
S'supreme'
p2334
sI2336
S'acknowledgment'
p2335
sI2337
S'motivating'
p2336
sI2338
S'faith'
p2337
sI2339
S'systematically'
p2338
sI2340
S'recipe'
p2339
sI2341
S'despair'
p2340
sI2342
S'opposite'
p2341
sI2343
S'phenomena'
p2342
sI2344
S'understood'
p2343
sI2345
S'resulting'
p2344
sI2346
S'born'
p2345
sI2347
S'fear'
p2346
sI2348
S'ignorance'
p2347
sI2349
S'irrational'
p2348
sI2350
S'scientific'
p2349
sI2351
S'foundations'
p2350
sI2352
S'posit'
p2351
sI2353
S'contradicted'
p2352
sI2354
S'teachings'
p2353
sI2355
S'comparison'
p2354
sI2356
S'morals'
p2355
sI2357
S'histories'
p2356
sI2358
S'science'
p2357
sI2359
S'theist'
p2358
sI2360
S'holy'
p2359
sI2361
S'books'
p2360
sI2362
S'divinely'
p2361
sI2363
S'inspired'
p2362
sI2364
S'fabrications'
p2363
sI2365
S'reasonable'
p2364
sI2366
S'supporting'
p2365
sI2367
S'delusion'
p2366
sI2368
S'construct'
p2367
sI2369
S'primitive'
p2368
sI2370
S'evolved'
p2369
sI2371
S'explaining'
p2370
sI2372
S'met'
p2371
sI2373
S'philosophy'
p2372
sI2374
S'century'
p2373
sI2375
S'atrocities'
p2374
sI2376
S'theistic'
p2375
sI2377
S'devalue'
p2376
sI2378
S'compassion'
p2377
sI2379
S'civilizing'
p2378
sI2380
S'evils'
p2379
sI2381
S'independent'
p2380
sI2382
S'mind'
p2381
sI2383
S'hypothesis'
p2382
sI2384
S'inferior'
p2383
sI2385
S'evolution'
p2384
sI2386
S'explanations'
p2385
sI2387
S'design'
p2386
sI2388
S'succeeds'
p2387
sI2389
S'simpler'
p2388
sI2390
S'complex'
p2389
sI2391
S'improbable'
p2390
sI2392
S'name'
p2391
sI2393
S'apparent'
p2392
sI2394
S'illusion'
p2393
sI2395
S'designin'
p2394
sI2396
S'cosmos'
p2395
sI2397
S'designer'
p2396
sI2398
S'immediately'
p2397
sI2399
S'raises'
p2398
sI2400
S'behave'
p2399
sI2401
S'fills'
p2400
sI2402
S'something'
p2401
sI2403
S'agent'
p2402
sI2404
S'explanation'
p2403
sI2405
S'assumed'
p2404
sI2406
S'existences'
p2405
sI2407
S'evil'
p2406
sI2408
S'incompatible'
p2407
sI2409
S'want'
p2408
sI2410
S'wholly'
p2409
sI2411
S'occurrence'
p2410
sI2412
S'intense'
p2411
sI2413
S'supernatural'
p2412
sI2414
S'none'
p2413
sI2415
S'compelling'
p2414
sI2416
S'incapable'
p2415
sI2417
S'sufficient'
p2416
sI2418
S'deities'
p2417
sI2419
S'we'
p2418
sI2420
S'performed'
p2419
sI2421
S'reconcile'
p2420
sI2422
S'consigned'
p2421
sI2423
S'failure'
p2422
sI2424
S'figure'
p2423
sI2425
S'exactly'
p2424
sI2426
S'how'
p2425
sI2427
S'start'
p2426
sI2428
S'everything'
p2427
sI2429
S'follows'
p2428
sI2430
S'obligations'
p2429
sI2431
S'objective'
p2430
sI2432
S'truths'
p2431
sI2433
S'binding'
p2432
sI2434
S'suggests'
p2433
sI2435
S'regarded'
p2434
sI2436
S'orthodoxly'
p2435
sI2437
S'conceived'
p2436
sI2438
S'so'
p2437
sI2439
S'arises'
p2438
sI2440
S'pure'
p2439
sI2441
S'assumption'
p2440
sI2442
S'theists'
p2441
sI2443
S'justification'
p2442
sI2444
S'beyond'
p2443
sI2445
S'requirements'
p2444
sI2446
S'however'
p2445
sI2447
S'heighten'
p2446
sI2448
S'confusion'
p2447
sI2449
S'voter'
p2448
sI2450
S'intimidation'
p2449
sI2451
S'expand'
p2450
sI2452
S'electorate'
p2451
sI2453
S'suppress'
p2452
sI2454
S'turnout'
p2453
sI2455
S'presenting'
p2454
sI2456
S'minor'
p2455
sI2457
S'inconvenience'
p2456
sI2458
S'weighed'
p2457
sI2459
S'ineligible'
p2458
sI2460
S'affecting'
p2459
sI2461
S'id'
p2460
sI2462
S'disproportionately'
p2461
sI2463
S'elderly'
p2462
sI2464
S'voting'
p2463
sI2465
S'entire'
p2464
sI2466
S'electoral'
p2465
sI2467
S'block'
p2466
sI2468
S'vote'
p2467
sI2469
S'procedures'
p2468
sI2470
S'burdensome'
p2469
sI2471
S'costly'
p2470
sI2472
S'conscription'
p2471
sI2473
S'protection'
p2472
sI2474
S'conscientious'
p2473
sI2475
S'objectors'
p2474
sI2476
S'strength'
p2475
sI2477
S'maintained'
p2476
sI2478
S'draft'
p2477
sI2479
S'fundamentally'
p2478
sI2480
S'unfairly'
p2479
sI2481
S'targeting'
p2480
sI2482
S'preemptive'
p2481
sI2483
S'reinstated'
p2482
sI2484
S'quarters'
p2483
sI2485
S'our'
p2484
sI2486
S'represents'
p2485
sI2487
S'slavery'
p2486
sI2488
S'involuntary'
p2487
sI2489
S'servitude'
p2488
sI2490
S'statist'
p2489
sI2491
S'violations'
p2490
sI2492
S'mixed'
p2491
sI2493
S'worst'
p2492
sI2494
S'abrogation'
p2493
sI2495
S'negates'
p2494
sI2496
S'mans'
p2495
sI2497
S'rightthe'
p2496
sI2498
S'reciprocal'
p2497
sI2499
S'render'
p2498
sI2500
S'worthwhile'
p2499
sI2501
S'amongst'
p2500
sI2502
S'capable'
p2501
sI2503
S'subtracts'
p2502
sI2504
S'conscripts'
p2503
sI2505
S'effectively'
p2504
sI2506
S'wasted'
p2505
sI2507
S'civilian'
p2506
sI2508
S'workforce'
p2507
sI2509
S'soldier'
p2508
sI2510
S'conscripted'
p2509
sI2511
S'army'
p2510
sI2512
S'taken'
p2511
sI2513
S'defense'
p2512
sI2514
S'mandatory'
p2513
sI2515
S'maturity'
p2514
sI2516
S'abolition'
p2515
sI2517
S'recruitment'
p2516
sI2518
S'shortages'
p2517
sI2519
S'ranking'
p2518
sI2520
S'positions'
p2519
sI2521
S'considerable'
p2520
sI2522
S'defence'
p2521
sI2523
S'armed'
p2522
sI2524
S'forces'
p2523
sI2525
S'anachronistic'
p2524
sI2526
S'obliged'
p2525
sI2527
S'technical'
p2526
sI2528
S'later'
p2527
sI2529
S'prospects'
p2528
sI2530
S'absolutely'
p2529
sI2531
S'corporate'
p2530
sI2532
S'congress'
p2531
sI2533
S'authorize'
p2532
sI2534
S'remedy'
p2533
sI2535
S'disparity'
p2534
sI2536
S'representative'
p2535
sI2537
S'fairness'
p2536
sI2538
S'dictates'
p2537
sI2539
S'sons'
p2538
sI2540
S'daughters'
p2539
sI2541
S'white'
p2540
sI2542
S'upper'
p2541
sI2543
S'share'
p2542
sI2544
S'burden'
p2543
sI2545
S'properly'
p2544
sI2546
S'directed'
p2545
sI2547
S'managed'
p2546
sI2548
S'ineffective'
p2547
sI2549
S'gdp'
p2548
sI2550
S'aids'
p2549
sI2551
S'infrastructure'
p2550
sI2552
S'developing'
p2551
sI2553
S'harmed'
p2552
sI2554
S'africa'
p2553
sI2555
S'cycle'
p2554
sI2556
S'cut'
p2555
sI2557
S'african'
p2556
sI2558
S'respond'
p2557
sI2559
S'turning'
p2558
sI2560
S'finance'
p2559
sI2561
S'path'
p2560
sI2562
S'sector'
p2561
sI2563
S'involvement'
p2562
sI2564
S'solutions'
p2563
sI2565
S'neither'
p2564
sI2566
S'nor'
p2565
sI2567
S'misallocates'
p2566
sI2568
S'few'
p2567
sI2569
S'exports'
p2568
sI2570
S'receives'
p2569
sI2571
S'developed'
p2570
sI2572
S'gained'
p2571
sI2573
S'infrastructures'
p2572
sI2574
S'roads'
p2573
sI2575
S'etc'
p2574
sI2576
S'becomes'
p2575
sI2577
S'dependent'
p2576
sI2578
S'speed'
p2577
sI2579
S'donation'
p2578
sI2580
S'effectiveness'
p2579
sI2581
S'uselessly'
p2580
sI2582
S'assistance'
p2581
sI2583
S'insecure'
p2582
sI2584
S'expanding'
p2583
sI2585
S'budgets'
p2584
sI2586
S'underdeveloped'
p2585
sI2587
S'boost'
p2586
sI2588
S'capitalism'
p2587
sI2589
S'somewhat'
p2588
sI2590
S'deleterious'
p2589
sI2591
S'problematic'
p2590
sI2592
S'solves'
p2591
sI2593
S'hollows'
p2592
sI2594
S'encouraging'
p2593
sI2595
S'agriculture'
p2594
sI2596
S'eu'
p2595
sI2597
S'subsidise'
p2596
sI2598
S'products'
p2597
sI2599
S'efficacious'
p2598
sI2600
S'conditionally'
p2599
sI2601
S'tied'
p2600
sI2602
S'motives'
p2601
sI2603
S'notions'
p2602
sI2604
S'monetary'
p2603
sI2605
S'industrialized'
p2604
sI2606
S'financial'
p2605
sI2607
S'contributors'
p2606
sI2608
S'ease'
p2607
sI2609
S'domestic'
p2608
sI2610
S'funding'
p2609
sI2611
S'unstable'
p2610
sI2612
S'helped'
p2611
sI2613
S'sustain'
p2612
sI2614
S'several'
p2613
sI2615
S'federally'
p2614
sI2616
S'funded'
p2615
sI2617
S'contributions'
p2616
sI2618
S'crowded'
p2617
sI2619
S'sectors'
p2618
sI2620
S'pouring'
p2619
sI2621
S'vast'
p2620
sI2622
S'concern'
p2621
sI2623
S'opening'
p2622
sI2624
S'producers'
p2623
sI2625
S'swamped'
p2624
sI2626
S'intimately'
p2625
sI2627
S'strategies'
p2626
sI2628
S'liberalization'
p2627
sI2629
S'capital'
p2628
sI2630
S'lasts'
p2629
sI2631
S'stock'
p2630
sI2632
S'sufficiently'
p2631
sI2633
S'subsistence'
p2632
sI2634
S'richer'
p2633
sI2635
S'poorer'
p2634
sI2636
S'industries'
p2635
sI2637
S'stolen'
p2636
sI2638
S'officials'
p2637
sI2639
S'erode'
p2638
sI2640
S'governance'
p2639
sI2641
S'prosperous'
p2640
sI2642
S'competitiveness'
p2641
sI2643
S'relieve'
p2642
sI2644
S'gives'
p2643
sI2645
S'optimal'
p2644
sI2646
S'advantages'
p2645
sI2647
S'worse'
p2646
sI2648
S'helpful'
p2647
sI2649
S'household'
p2648
sI2650
S'spender'
p2649
sI2651
S'home'
p2650
sI2652
S'response'
p2651
sI2653
S'done'
p2652
sI2654
S'intrinsic'
p2653
sI2655
S'motivations'
p2654
sI2656
S'compensated'
p2655
sI2657
S'central'
p2656
sI2658
S'unpaid'
p2657
sI2659
S'invent'
p2658
sI2660
S'legally'
p2659
sI2661
S'entitled'
p2660
sI2662
S'capture'
p2661
sI2663
S'statutory'
p2662
sI2664
S'creations'
p2663
sI2665
S'creativity'
p2664
sI2666
S'fair'
p2665
sI2667
S'trading'
p2666
sI2668
S'enforcement'
p2667
sI2669
S'sustaining'
p2668
sI2670
S'ip'
p2669
sI2671
S'subsequent'
p2670
sI2672
S'disincentive'
p2671
sI2673
S'violate'
p2672
sI2674
S'allowing'
p2673
sI2675
S'ideas'
p2674
sI2676
S'information'
p2675
sI2677
S'artificial'
p2676
sI2678
S'scarcity'
p2677
sI2679
S'infringes'
p2678
sI2680
S'patents'
p2679
sI2681
S'obstructing'
p2680
sI2682
S'monopolies'
p2681
sI2683
S'entities'
p2682
sI2684
S'fragmented'
p2683
sI2685
S'copyrights'
p2684
sI2686
S'base'
p2685
sI2687
S'divert'
p2686
sI2688
S'patent'
p2687
sI2689
S'filing'
p2688
sI2690
S'lawsuits'
p2689
sI2691
S'subject'
p2690
sI2692
S'limiting'
p2691
sI2693
S'prohibiting'
p2692
sI2694
S'reproducing'
p2693
sI2695
S'copyrighted'
p2694
sI2696
S'infringement'
p2695
sI2697
S'owning'
p2696
sI2698
S'monopoly'
p2697
sI2699
S'inventors'
p2698
sI2700
S'extort'
p2699
sI2701
S'reward'
p2700
sI2702
S'enormously'
p2701
sI2703
S'hindered'
p2702
sI2704
S'buy'
p2703
sI2705
S'copyright'
p2704
sI2706
S'protects'
p2705
sI2707
S'thoroughgoing'
p2706
sI2708
S'commodified'
p2707
sI2709
S'granting'
p2708
sI2710
S'developers'
p2709
sI2711
S'enrich'
p2710
sI2712
S'unlike'
p2711
sI2713
S'scarce'
p2712
sI2714
S'obsolete'
p2713
sI2715
S'trying'
p2714
sI2716
S'unreasonable'
p2715
sI2717
S'solidarity'
p2716
sI2718
S'slowing'
p2717
sI2719
S'regime'
p2718
sI2720
S'authors'
p2719
sI2721
S'artists'
p2720
sI2722
S'drives'
p2721
sI2723
S'alternatives'
p2722
sI2724
S'viable'
p2723
sI2725
S'models'
p2724
sI2726
S'guaranteed'
p2725
sI2727
S'payment'
p2726
sI2728
S'incentivising'
p2727
sI2729
S'protections'
p2728
sI2730
S'types'
p2729
sI2731
S'intangible'
p2730
sI2732
S'sculptors'
p2731
sI2733
S'musicians'
p2732
sI2734
S'artworks'
p2733
sI2735
S'feasible'
p2734
sI2736
S'recoup'
p2735
sI2737
S'largely'
p2736
sI2738
S'benefited'
p2737
sI2739
S'served'
p2738
sI2740
S'rent'
p2739
sI2741
S'stifle'
p2740
sI2742
S'criticism'
p2741
sI2743
S'dissemination'
p2742
sI2744
S'disclosure'
p2743
sI2745
S'innovations'
p2744
sI2746
S'domain'
p2745
sI2747
S'prefer'
p2746
sI2748
S'secret'
p2747
sI2749
S'awarding'
p2748
sI2750
S'details'
p2749
sI2751
S'technology'
p2750
sI2752
S'publicly'
p2751
sI2753
S'expired'
p2752
sI2754
S'record'
p2753
sI2755
S'ensures'
p2754
sI2756
S'holders'
p2755
sI2757
S'generate'
p2756
sI2758
S'interference'
p2757
sI2759
S'centuries'
p2758
sI2760
S'ownership'
p2759
sI2761
S'dire'
p2760
sI2762
S'distributed'
p2761
sI2763
S'unrestricted'
p2762
sI2764
S'considerably'
p2763
sI2765
S'fossil'
p2764
sI2766
S'plentiful'
p2765
sI2767
S'greenhouse'
p2766
sI2768
S'gas'
p2767
sI2769
S'emissions'
p2768
sI2770
S'operation'
p2769
sI2771
S'uses'
p2770
sI2772
S'land'
p2771
sI2773
S'extractable'
p2772
sI2774
S'electricity'
p2773
sI2775
S'variable'
p2774
sI2776
S'predictability'
p2775
sI2777
S'plant'
p2776
sI2778
S'variability'
p2777
sI2779
S'challenges'
p2778
sI2780
S'incorporating'
p2779
sI2781
S'peak'
p2780
sI2782
S'speeds'
p2781
sI2783
S'coincide'
p2782
sI2784
S'electrical'
p2783
sI2785
S'ongoing'
p2784
sI2786
S'compared'
p2785
sI2787
S'environmental'
p2786
sI2788
S'consumes'
p2787
sI2789
S'fuel'
p2788
sI2790
S'emits'
p2789
sI2791
S'air'
p2790
sI2792
S'pollution'
p2791
sI2793
S'landscape'
p2792
sI2794
S'projects'
p2793
sI2795
S'revitalize'
p2794
sI2796
S'rural'
p2795
sI2797
S'farms'
p2796
sI2798
S'radar'
p2797
sI2799
S'water'
p2798
sI2800
S'turbines'
p2799
sI2801
S'consume'
p2800
sI2802
S'smaller'
p2801
sI2803
S'footprint'
p2802
sI2804
S'facilities'
p2803
sI2805
S'complaining'
p2804
sI2806
S'annoyance'
p2805
sI2807
S'ill'
p2806
sI2808
S'unpredictable'
p2807
sI2809
S'intervals'
p2808
sI2810
S'windpower'
p2809
sI2811
S'unsuitable'
p2810
sI2812
S'generating'
p2811
sI2813
S'capacity'
p2812
sI2814
S'reliable'
p2813
sI2815
S'additional'
p2814
sI2816
S'unit'
p2815
sI2817
S'costing'
p2816
sI2818
S'renewable'
p2817
sI2819
S'lowest'
p2818
sI2820
S'impacts'
p2819
sI2821
S'emission'
p2820
sI2822
S'hidden'
p2821
sI2823
S'inexpensive'
p2822
sI2824
S'necessity'
p2823
sI2825
S'importing'
p2824
sI2826
S'abroad'
p2825
sI2827
S'release'
p2826
sI2828
S'pollutants'
p2827
sI2829
S'pose'
p2828
sI2830
S'farm'
p2829
sI2831
S'varies'
p2830
sI2832
S'weather'
p2831
sI2833
S'backed'
p2832
sI2834
S'turbine'
p2833
sI2835
S'clean'
p2834
sI2836
S'emit'
p2835
sI2837
S'gases'
p2836
sI2838
S'carbon'
p2837
sI2839
S'dioxide'
p2838
sI2840
S'aesthetically'
p2839
sI2841
S'pleasing'
p2840
sI2842
S'eyesore'
p2841
sI2843
S'zero'
p2842
sI2844
S'relied'
p2843
sI2845
S'cleanest'
p2844
sI2846
S'cuts'
p2845
sI2847
S'intermittent'
p2846
sI2848
S'integrating'
p2847
sI2849
S'grid'
p2848
sI2850
S'quantities'
p2849
sI2851
S'imports'
p2850
sI2852
S'deployment'
p2851
sI2853
S'surviving'
p2852
sI2854
S'food'
p2853
sI2855
S'suitable'
p2854
sI2856
S'disaster'
p2855
sI2857
S'discovery'
p2856
sI2858
S'medicinal'
p2857
sI2859
S'advances'
p2858
sI2860
S'bionics'
p2859
sI2861
S'aesthetic'
p2860
sI2862
S'spiritual'
p2861
sI2863
S'ecosystem'
p2862
sI2864
S'purification'
p2863
sI2865
S'supplies'
p2864
sI2866
S'evolving'
p2865
sI2867
S'going'
p2866
sI2868
S'extinct'
p2867
sI2869
S'ecotourism'
p2868
sI2870
S'live'
p2869
sI2871
S'close'
p2870
sI2872
S'fact'
p2871
sI2873
S'extinction'
p2872
sI2874
S'demise'
p2873
sI2875
S'disappearance'
p2874
sI2876
S'integral'
p2875
sI2877
S'conservation'
p2876
sI2878
S'study'
p2877
sI2879
S'richness'
p2878
sI2880
S'unmeasurable'
p2879
sI2881
S'recreational'
p2880
sI2882
S'attractions'
p2881
sI2883
S'processes'
p2882
sI2884
S'habitat'
p2883
sI2885
S'organisms'
p2884
sI2886
S'thrive'
p2885
sI2887
S'extrinsic'
p2886
sI2888
S'instrumental'
p2887
sI2889
S'irreplaceable'
p2888
sI2890
S'components'
p2889
sI2891
S'engenders'
p2890
sI2892
S'ecosystems'
p2891
sI2893
S'typically'
p2892
sI2894
S'reliant'
p2893
sI2895
S'flourish'
p2894
sI2896
S'universal'
p2895
sI2897
S'consumed'
p2896
sI2898
S'adversely'
p2897
sI2899
S'organism'
p2898
sI2900
S'warrant'
p2899
sI2901
S'custodians'
p2900
sI2902
S'appear'
p2901
sI2903
S'losing'
p2902
sI2904
S'resist'
p2903
sI2905
S'invasion'
p2904
sI2906
S'equivalents'
p2905
sI2907
S'indirect'
p2906
sI2908
S'general'
p2907
sI2909
S'enormous'
p2908
sI2910
S'loses'
p2909
sI2911
S'roles'
p2910
sI2912
S'inhabitants'
p2911
sI2913
S'animals'
p2912
sI2914
S'efforts'
p2913
sI2915
S'remaining'
p2914
sI2916
S'repairing'
p2915
sI2917
S'damaged'
p2916
sI2918
S'conserving'
p2917
sI2919
S'segments'
p2918
sI2920
S'depress'
p2919
sI2921
S'deflation'
p2920
sI2922
S'inflates'
p2921
sI2923
S'depresses'
p2922
sI2924
S'budget'
p2923
sI2925
S'deficit'
p2924
sI2926
S'deficits'
p2925
sI2927
S'inflationary'
p2926
sI2928
S'inflation'
p2927
sI2929
S'tighter'
p2928
sI2930
S'fiscal'
p2929
sI2931
S'offset'
p2930
sI2932
S'disruption'
p2931
sI2933
S'makers'
p2932
sI2934
S'consistently'
p2933
sI2935
S'underestimated'
p2934
sI2936
S'rigid'
p2935
sI2937
S'sacrifices'
p2936
sI2938
S'borrowed'
p2937
sI2939
S'paying'
p2938
sI2940
S'answer'
p2939
sI2941
S'homicide'
p2940
sI2942
S'easier'
p2941
sI2943
S'reductions'
p2942
sI2944
S'concealed'
p2943
sI2945
S'deters'
p2944
sI2946
S'inalienable'
p2945
sI2947
S'self'
p2946
sI2948
S'forbid'
p2947
sI2949
S'carrying'
p2948
sI2950
S'disarm'
p2949
sI2951
S'inclined'
p2950
sI2952
S'determined'
p2951
sI2953
S'possession'
p2952
sI2954
S'militia'
p2953
sI2955
S'tyranny'
p2954
sI2956
S'assaulted'
p2955
sI2957
S'assailants'
p2956
sI2958
S'homicides'
p2957
sI2959
S'last'
p2958
sI2960
S'line'
p2959
sI2961
S'rebellions'
p2960
sI2962
S'prevents'
p2961
sI2963
S'criminals'
p2962
sI2964
S'ignore'
p2963
sI2965
S'deterred'
p2964
sI2966
S'victims'
p2965
sI2967
S'shot'
p2966
sI2968
S'victim'
p2967
sI2969
S'deterrent'
p2968
sI2970
S'arm'
p2969
sI2971
S'liberties'
p2970
sI2972
S'paramount'
p2971
sI2973
S'attacker'
p2972
sI2974
S'firearm'
p2973
sI2975
S'unqualified'
p2974
sI2976
S'americans'
p2975
sI2977
S'described'
p2976
sI2978
S'second'
p2977
sI2979
S'registered'
p2978
sI2980
S'accordance'
p2979
sI2981
S'regions'
p2980
sI2982
S'smallest'
p2981
sI2983
S'accidents'
p2982
sI2984
S'guarantees'
p2983
sI2985
S'handguns'
p2984
sI2986
S'numbers'
p2985
sI2987
S'defensive'
p2986
sI2988
S'bureaucracy'
p2987
sI2989
S'expectations'
p2988
sI2990
S'transaction'
p2989
sI2991
S'differ'
p2990
sI2992
S'place'
p2991
sI2993
S'impedes'
p2992
sI2994
S'bribes'
p2993
sI2995
S'poses'
p2994
sI2996
S'challenge'
p2995
sI2997
S'cutting'
p2996
sI2998
S'contrive'
p2997
sI2999
S'delays'
p2998
sI3000
S'generates'
p2999
sI3001
S'distortions'
p3000
sI3002
S'extends'
p3001
sI3003
S'aspect'
p3002
sI3004
S'resorting'
p3003
sI3005
S'adds'
p3004
sI3006
S'favors'
p3005
sI3007
S'connected'
p3006
sI3008
S'unscrupulous'
p3007
sI3009
S'misdirection'
p3008
sI3010
S'option'
p3009
sI3011
S'honest'
p3010
sI3012
S'distorts'
p3011
sI3013
S'retards'
p3012
sI3014
S'exchanges'
p3013
sI3015
S'sanctions'
p3014
sI3016
S'dialogue'
p3015
sI3017
S'demcoracy'
p3016
sI3018
S'embarked'
p3017
sI3019
S'series'
p3018
sI3020
S'reforms'
p3019
sI3021
S'burma'
p3020
sI3022
S'repressive'
p3021
sI3023
S'abusive'
p3022
sI3024
S'regimes'
p3023
sI3025
S'burmese'
p3024
sI3026
S'marked'
p3025
sI3027
S'karen'
p3026
sI3028
S'extermination'
p3027
sI3029
S'transition'
p3028
sI3030
S'august'
p3029
sI3031
S'futile'
p3030
sI3032
S'remain'
p3031
sI3033
S'restoration'
p3032
sI3034
S'sanction'
p3033
sI3035
S'useless'
p3034
sI3036
S'engagement'
p3035
sI3037
S'constructive'
p3036
sI3038
S'junta'
p3037
sI3039
S'thing'
p3038
sI3040
S'rulers'
p3039
sI3041
S'defy'
p3040
sI3042
S'vicious'
p3041
sI3043
S'wants'
p3042
sI3044
S'again'
p3043
sI3045
S'beset'
p3044
sI3046
S'overruns'
p3045
sI3047
S'deficient'
p3046
sI3048
S'statement'
p3047
sI3049
S'pollute'
p3048
sI3050
S'technologically'
p3049
sI3051
S'advanced'
p3050
sI3052
S'commitment'
p3051
sI3053
S'building'
p3052
sI3054
S'climate'
p3053
sI3055
S'dollar'
p3054
sI3056
S'dirtiest'
p3055
sI3057
S'transportation'
p3056
sI3058
S'currently'
p3057
sI3059
S'oil'
p3058
sI3060
S'extensive'
p3059
sI3061
S'overcapacity'
p3060
sI3062
S'pipelines'
p3061
sI3063
S'canada'
p3062
sI3064
S'completion'
p3063
sI3065
S'planet'
p3064
sI3066
S'sands'
p3065
sI3067
S'environmentally'
p3066
sI3068
S'damaging'
p3067
sI3069
S'crude'
p3068
sI3070
S'bitumen'
p3069
sI3071
S'synthetic'
p3070
sI3072
S'largest'
p3071
sI3073
S'contributor'
p3072
sI3074
S'wildlife'
p3073
sI3075
S'economical'
p3074
sI3076
S'transport'
p3075
sI3077
S'refined'
p3076
sI3078
S'candidate'
p3077
sI3079
S'picture'
p3078
sI3080
S'campaigning'
p3079
sI3081
S'takes'
p3080
sI3082
S'poll'
p3081
sI3083
S'respondents'
p3082
sI3084
S'try'
p3083
sI3085
S'manipulate'
p3084
sI3086
S'outcome'
p3085
sI3087
S'intentions'
p3086
sI3088
S'electors'
p3087
sI3089
S'device'
p3088
sI3090
S'proclaimed'
p3089
sI3091
S'hoping'
p3090
sI3092
S'accurate'
p3091
sI3093
S'closely'
p3092
sI3094
S'repeatedly'
p3093
sI3095
S'reported'
p3094
sI3096
S'bandwagon'
p3095
sI3097
S'snowball'
p3096
sI3098
S'predictions'
p3097
sI3099
S'mass'
p3098
sI3100
S'coverage'
p3099
sI3101
S'quo'
p3100
sI3102
S'speak'
p3101
sI3103
S'exit'
p3102
sI3104
S'historically'
p3103
sI3105
S'rough'
p3104
sI3106
S'indicator'
p3105
sI3107
S'palestinian'
p3106
sI3108
S'rocket'
p3107
sI3109
S'attacks'
p3108
sI3110
S'strip'
p3109
sI3111
S'israeli'
p3110
sI3112
S'closures'
p3111
sI3113
S'pushed'
p3112
sI3114
S'eased'
p3113
sI3115
S'punishment'
p3114
sI3116
S'hamas'
p3115
sI3117
S'ending'
p3116
sI3118
S'deprive'
p3117
sI3119
S'quiet'
p3118
sI3120
S'reaching'
p3119
sI3121
S'israels'
p3120
sI3122
S'iranian'
p3121
sI3123
S'port'
p3122
sI3124
S'dozen'
p3123
sI3125
S'kilometers'
p3124
sI3126
S'tel'
p3125
sI3127
S'aviv'
p3126
sI3128
S'jerusalem'
p3127
sI3129
S'embargo'
p3128
sI3130
S'altogether'
p3129
sI3131
S'amounted'
p3130
sI3132
S'contravention'
p3131
sI3133
S'occupying'
p3132
sI3134
S'gazas'
p3133
sI3135
S'possibly'
p3134
sI3136
S'collapsed'
p3135
sI3137
S'imposition'
p3136
sI3138
S'imposed'
p3137
sI3139
S'continuing'
p3138
sI3140
S'inhuman'
p3139
sI3141
S'regional'
p3140
sI3142
S'marginalize'
p3141
sI3143
S'moderation'
p3142
sI3144
S'grip'
p3143
sI3145
S'prison'
p3144
sI3146
S'camp'
p3145
sI3147
S'tenable'
p3146
sI3148
S'catastrophe'
p3147
sI3149
S'situation'
p3148
sI3150
S'unacceptable'
p3149
sI3151
S'imposing'
p3150
sI3152
S'recovery'
p3151
sI3153
S'blocked'
p3152
sI3154
S'sweeping'
p3153
sI3155
S'passage'
p3154
sI3156
S'consequence'
p3155
sI3157
S'launched'
p3156
sI3158
S'territory'
p3157
sI3159
S'deemed'
p3158
sI3160
S'slowly'
p3159
sI3161
S'strangled'
p3160
sI3162
S'tragedies'
p3161
sI3163
S'completely'
p3162
sI3164
S'inevitable'
p3163
sI3165
S'listen'
p3164
sI3166
S'callings'
p3165
sI3167
S'entirely'
p3166
sI3168
S'avoidable'
p3167
sI3169
S'heeds'
p3168
sI3170
S'calls'
p3169
sI3171
S'violated'
p3170
sI3172
S'geneva'
p3171
sI3173
S'persists'
p3172
sI3174
S'linking'
p3173
sI3175
S'supplying'
p3174
sI3176
S'inflicted'
p3175
sI3177
S'relation'
p3176
sI3178
S'concrete'
p3177
sI3179
S'flagrant'
p3178
sI3180
S'blockades'
p3179
sI3181
S'lawful'
p3180
sI3182
S'organization'
p3181
sI3183
S'penalty'
p3182
sI3184
S'civilians'
p3183
sI3185
S'naval'
p3184
sI3186
S'conformed'
p3185
sI3187
S'lawfully'
p3186
sI3188
S'complying'
p3187
sI3189
S'anticipated'
p3188
sI3190
S'restricts'
p3189
sI3191
S'inflicting'
p3190
sI3192
S'blockaded'
p3191
sI3193
S'mortar'
p3192
sI3194
S'militant'
p3193
sI3195
S'inside'
p3194
sI3196
S'harming'
p3195
sI3197
S'gazan'
p3196
sI3198
S'seaport'
p3197
sI3199
S'flow'
p3198
sI3200
S'directions'
p3199
sI3201
S'palestinians'
p3200
sI3202
S'items'
p3201
sI3203
S'tunnels'
p3202
sI3204
S'daily'
p3203
sI3205
S'essentials'
p3204
sI3206
S'import'
p3205
sI3207
S'recognise'
p3206
sI3208
S'backs'
p3207
sI3209
S'stated'
p3208
sI3210
S'whatever'
p3209
sI3211
S'importation'
p3210
sI3212
S'curbs'
p3211
sI3213
S'chooses'
p3212
sI3214
S'party'
p3213
sI3215
S'inadequate'
p3214
sI3216
S'entering'
p3215
sI3217
S'reconstruction'
p3216
sI3218
S'intolerable'
p3217
sI3219
S'complied'
p3218
sI3220
S'immense'
p3219
sI3221
S'concentration'
p3220
sI3222
S'occupied'
p3221
sI3223
S'furious'
p3222
sI3224
S'deteriorating'
p3223
sI3225
S'derailment'
p3224
sI3226
S'disrupt'
p3225
sI3227
S'bind'
p3226
sI3228
S'lies'
p3227
sI3229
S'man'
p3228
sI3230
S'purity'
p3229
sI3231
S'flourishes'
p3230
sI3232
S'govt'
p3231
sI3233
S'separation'
p3232
sI3234
S'stateno'
p3233
sI3235
S'churchis'
p3234
sI3236
S'lacked'
p3235
sI3237
S'realm'
p3236
sI3238
S'conscience'
p3237
sI3239
S'decisions'
p3238
sI3240
S'unbiased'
p3239
sI3241
S'governmental'
p3240
sI3242
S'secularism'
p3241
sI3243
S'refrain'
p3242
sI3244
S'doctrine'
p3243
sI3245
S'officially'
p3244
sI3246
S'avoiding'
p3245
sI3247
S'relevant'
p3246
sI3248
S'considerations'
p3247
sI3249
S'reasoned'
p3248
sI3250
S'debate'
p3249
sI3251
S'closed'
p3250
sI3252
S'shop'
p3251
sI3253
S'academics'
p3252
sI3254
S'demoralized'
p3253
sI3255
S'admissions'
p3254
sI3256
S'excellent'
p3255
sI3257
S'independently'
p3256
sI3258
S'university'
p3257
sI3259
S'tuition'
p3258
sI3260
S'fees'
p3259
sI3261
S'nurture'
p3260
sI3262
S'genuinely'
p3261
sI3263
S'guardians'
p3262
sI3264
S'prevailing'
p3263
sI3265
S'continental'
p3264
sI3266
S'privatization'
p3265
sI3267
S'deliver'
p3266
sI3268
S'enterprises'
p3267
sI3269
S'prone'
p3268
sI3270
S'nationalized'
p3269
sI3271
S'populist'
p3270
sI3272
S'charge'
p3271
sI3273
S'counterparts'
p3272
sI3274
S'circumvention'
p3273
sI3275
S'bypass'
p3274
sI3276
S'activists'
p3275
sI3277
S'particularly'
p3276
sI3278
S'message'
p3277
sI3279
S'counter'
p3278
sI3280
S'mainstream'
p3279
sI3281
S'reporting'
p3280
sI3282
S'atrocity'
p3281
sI3283
S'leaders'
p3282
sI3284
S'adopt'
p3283
sI3285
S'principles'
p3284
sI3286
S'network'
p3285
sI3287
S'respects'
p3286
sI3288
S'communicate'
p3287
sI3289
S'realisation'
p3288
sI3290
S'anywhere'
p3289
sI3291
S'prepare'
p3290
sI3292
S'task'
p3291
sI3293
S'ahead'
p3292
sI3294
S'incidence'
p3293
sI3295
S'stis'
p3294
sI3296
S'teenage'
p3295
sI3297
S'broad'
p3296
sI3298
S'talk'
p3297
sI3299
S'comprehensive'
p3298
sI3300
S'broader'
p3299
sI3301
S'sexual'
p3300
sI3302
S'puberty'
p3301
sI3303
S'crucial'
p3302
sI3304
S'minimized'
p3303
sI3305
S'factual'
p3304
sI3306
S'unwanted'
p3305
sI3307
S'pregnancies'
p3306
sI3308
S'bounds'
p3307
sI3309
S'marriage'
p3308
sI3310
S'intimacy'
p3309
sI3311
S'reject'
p3310
sI3312
S'approach'
p3311
sI3313
S'ed'
p3312
sI3314
S'conservative'
p3313
sI3315
S'moralizing'
p3314
sI3316
S'alienate'
p3315
sI3317
S'begin'
p3316
sI3318
S'intercourse'
p3317
sI3319
S'understand'
p3318
sI3320
S'contraceptive'
p3319
sI3321
S'across'
p3320
sI3322
S'spectrum'
p3321
sI3323
S'premarital'
p3322
sI3324
S'objectionable'
p3323
sI3325
S'presume'
p3324
sI3326
S'outset'
p3325
sI3327
S'imply'
p3326
sI3328
S'permissible'
p3327
sI3329
S'curricula'
p3328
sI3330
S'focusing'
p3329
sI3331
S'teen'
p3330
sI3332
S'unmarried'
p3331
sI3333
S'delayed'
p3332
sI3334
S'initiation'
p3333
sI3335
S'delaying'
p3334
sI3336
S'studies'
p3335
sI3337
S'preventative'
p3336
sI3338
S'sexually'
p3337
sI3339
S'transmitted'
p3338
sI3340
S'diseases'
p3339
sI3341
S'outcomes'
p3340
sI3342
S'risky'
p3341
sI3343
S'behaviours'
p3342
sI3344
S'spreading'
p3343
sI3345
S'regarding'
p3344
sI3346
S'contraceptives'
p3345
sI3347
S'unplanned'
p3346
sI3348
S'classroom'
p3347
sI3349
S'verge'
p3348
sI3350
S'secular'
p3349
sI3351
S'supported'
p3350
sI3352
S'romantic'
p3351
sI3353
S'covers'
p3352
sI3354
S'teaches'
p3353
sI3355
S'avoidance'
p3354
sI3356
S'until'
p3355
sI3357
S'hiv'
p3356
sI3358
S'infection'
p3357
sI3359
S'contraction'
p3358
sI3360
S'stds'
p3359
sI3361
S'earlier'
p3360
sI3362
S'promiscuity'
p3361
sI3363
S'inaccurate'
p3362
sI3364
S'std'
p3363
sI3365
S'oppose'
p3364
sI3366
S'sole'
p3365
sI3367
S'confers'
p3366
sI3368
S'contracting'
p3367
sI3369
S'instinct'
p3368
sI3370
S'exclusively'
p3369
sI3371
S'condom'
p3370
sI3372
S'breakage'
p3371
sI3373
S'slippage'
p3372
sI3374
S'educating'
p3373
sI3375
S'presence'
p3374
sI3376
S'agrees'
p3375
sI3377
S'adversaries'
p3376
sI3378
S'okinawa'
p3377
sI3379
S'japans'
p3378
sI3380
S'prefecture'
p3379
sI3381
S'japanese'
p3380
sI3382
S'appreciated'
p3381
sI3383
S'mutual'
p3382
sI3384
S'treaty'
p3383
sI3385
S'usfj'
p3384
sI3386
S'usarj'
p3385
sI3387
S'maintains'
p3386
sI3388
S'credibility'
p3387
sI3389
S'pacific'
p3388
sI3390
S'strategic'
p3389
sI3391
S'logistic'
p3390
sI3392
S'appreciate'
p3391
sI3393
S'complained'
p3392
sI3394
S'aircraft'
p3393
sI3395
S'noise'
p3394
sI3396
S'america'
p3395
sI3397
S'independence'
p3396
sI3398
S'committed'
p3397
sI3399
S'servicemen'
p3398
sI3400
S'okinawans'
p3399
sI3401
S'opposed'
p3400
sI3402
S'locals'
p3401
sI3403
S'okinawan'
p3402
sI3404
S'newborns'
p3403
sI3405
S'circumcised'
p3404
sI3406
S'analgesia'
p3405
sI3407
S'pain'
p3406
sI3408
S'physiologic'
p3407
sI3409
S'anesthetic'
p3408
sI3410
S'painful'
p3409
sI3411
S'surgical'
p3410
sI3412
S'encodes'
p3411
sI3413
S'perinatal'
p3412
sI3414
S'affects'
p3413
sI3415
S'bonding'
p3414
sI3416
S'autonomy'
p3415
sI3417
S'consent'
p3416
sI3418
S'govern'
p3417
sI3419
S'medicine'
p3418
sI3420
S'parental'
p3419
sI3421
S'weigh'
p3420
sI3422
S'circumcise'
p3421
sI3423
S'genital'
p3422
sI3424
S'mutilation'
p3423
sI3425
S'presented'
p3424
sI3426
S'youths'
p3425
sI3427
S'enacted'
p3426
sI3428
S'ritual'
p3427
sI3429
S'doctor'
p3428
sI3430
S'amputate'
p3429
sI3431
S'tissue'
p3430
sI3432
S'removal'
p3431
sI3433
S'functioning'
p3432
sI3434
S'organ'
p3433
sI3435
S'custom'
p3434
sI3436
S'foreskin'
p3435
sI3437
S'constitute'
p3436
sI3438
S'assault'
p3437
sI3439
S'discretion'
p3438
sI3440
S'transforming'
p3439
sI3441
S'uncircumcised'
p3440
sI3442
S'absent'
p3441
sI3443
S'condemned'
p3442
sI3444
S'childrens'
p3443
sI3445
S'previously'
p3444
sI3446
S'perfectly'
p3445
sI3447
S'shaped'
p3446
sI3448
S'preventive'
p3447
sI3449
S'insures'
p3448
sI3450
S'insurance'
p3449
sI3451
S'boy'
p3450
sI3452
S'prepuce'
p3451
sI3453
S'erogenous'
p3452
sI3454
S'glans'
p3453
sI3455
S'interferes'
p3454
sI3456
S'infants'
p3455
sI3457
S'forcibly'
p3456
sI3458
S'sensitive'
p3457
sI3459
S'parts'
p3458
sI3460
S'penis'
p3459
sI3461
S'pleasure'
p3460
sI3462
S'neonatal'
p3461
sI3463
S'complications'
p3462
sI3464
S'bleeding'
p3463
sI3465
S'poorly'
p3464
sI3466
S'circumcisions'
p3465
sI3467
S'catastrophic'
p3466
sI3468
S'newborn'
p3467
sI3469
S'unduly'
p3468
sI3470
S'threaten'
p3469
sI3471
S'trees'
p3470
sI3472
S'reforestation'
p3471
sI3473
S'biosequestration'
p3472
sI3474
S'atmospheric'
p3473
sI3475
S'deforested'
p3474
sI3476
S'incur'
p3475
sI3477
S'soil'
p3476
sI3478
S'erosion'
p3477
sI3479
S'wasteland'
p3478
sI3480
S'deforestation'
p3479
sI3481
S'warming'
p3480
sI3482
S'cited'
p3481
sI3483
S'enhanced'
p3482
sI3484
S'oxygen'
p3483
sI3485
S'forests'
p3484
sI3486
S'extract'
p3485
sI3487
S'biosphere'
p3486
sI3488
S'areas'
p3487
sI3489
S'forest'
p3488
sI3490
S'degraded'
p3489
sI3491
S'halve'
p3490
sI3492
S'gains'
p3491
sI3493
S'conversion'
p3492
sI3494
S'wood'
p3493
sI3495
S'collapse'
p3494
sI3496
S'rain'
p3495
sI3497
S'clearing'
p3496
sI3498
S'crops'
p3497
sI3499
S'fields'
p3498
sI3500
S'rainforests'
p3499
sI3501
S'exchange'
p3500
sI3502
S'habitats'
p3501
sI3503
S'plants'
p3502
sI3504
S'gene'
p3503
sI3505
S'pool'
p3504
sI3506
S'export'
p3505
sI3507
S'timber'
p3506
sI3508
S'removes'
p3507
sI3509
S'soils'
p3508
sI3510
S'dynamic'
p3509
sI3511
S'desertification'
p3510
sI3512
S'animal'
p3511
sI3513
S'sinks'
p3512
sI3514
S'accounting'
p3513
sI3515
S'farmers'
p3514
sI3516
S'converting'
p3515
sI3517
S'agricultural'
p3516
sI3518
S'exposed'
p3517
sI3519
S'insecurity'
p3518
sI3520
S'halt'
p3519
sI3521
S'implications'
p3520
sI3522
S'globe'
p3521
sI3523
S'threatening'
p3522
sI3524
S'sustainability'
p3523
sI3525
S'puts'
p3524
sI3526
S'overexploitation'
p3525
sI3527
S'extinctions'
p3526
sI3528
S'utilization'
p3527
sI3529
S'massive'
p3528
sI3530
S'rainforest'
p3529
sI3531
S'rapidly'
p3530
sI3532
S'disappearing'
p3531
sI3533
S'tribes'
p3532
sI3534
S'curbing'
p3533
sI3535
S'mitigate'
p3534
sI3536
S'nominee'
p3535
sI3537
S'selected'
p3536
sI3538
S'nonparty'
p3537
sI3539
S'nominate'
p3538
sI3540
S'easy'
p3539
sI3541
S'favorite'
p3540
sI3542
S'beat'
p3541
sI3543
S'participation'
p3542
sI3544
S'nonpartisan'
p3543
sI3545
S'nominating'
p3544
sI3546
S'nominees'
p3545
sI3547
S'nominations'
p3546
sI3548
S'manipulation'
p3547
sI3549
S'dilution'
p3548
sI3550
S'dilute'
p3549
sI3551
S'represent'
p3550
sI3552
S'views'
p3551
sI3553
S'statute'
p3552
sI3554
S'infections'
p3553
sI3555
S'condoms'
p3554
sI3556
S'encouraged'
p3555
sI3557
S'recommended'
p3556
sI3558
S'paternal'
p3557
sI3559
S'tolerance'
p3558
sI3560
S'infected'
p3559
sI3561
S'infecting'
p3560
sI3562
S'someone'
p3561
sI3563
S'sti'
p3562
sI3564
S'unprotected'
p3563
sI3565
S'partners'
p3564
sI3566
S'sin'
p3565
sI3567
S'impede'
p3566
sI3568
S'procreative'
p3567
sI3569
S'deeply'
p3568
sI3570
S'theological'
p3569
sI3571
S'meaning'
p3570
sI3572
S'permitting'
p3571
sI3573
S'interpreted'
p3572
sI3574
S'fornication'
p3573
sI3575
S'irresponsible'
p3574
sI3576
S'couples'
p3575
sI3577
S'promoting'
p3576
sI3578
S'extramarital'
p3577
sI3579
S'marital'
p3578
sI3580
S'infidelity'
p3579
sI3581
S'grows'
p3580
sI3582
S'accustomed'
p3581
sI3583
S'forget'
p3582
sI3584
S'reverence'
p3583
sI3585
S'gravely'
p3584
sI3586
S'chastity'
p3585
sI3587
S'denies'
p3586
sI3588
S'unitive'
p3587
sI3589
S'divorce'
p3588
sI3590
S'plan'
p3589
sI3591
S'conclude'
p3590
sI3592
S'catholicism'
p3591
sI3593
S'considers'
p3592
sI3594
S'sins'
p3593
sI3595
S'save'
p3594
sI3596
S'overcome'
p3595
sI3597
S'licit'
p3596
sI3598
S'procreation'
p3597
sI3599
S'author'
p3598
sI3600
S'renewal'
p3599
sI3601
S'consummation'
p3600
sI3602
S'expressly'
p3601
sI3603
S'argue'
p3602
sI3604
S'sovereignty'
p3603
sI3605
S'tackle'
p3604
sI3606
S'unskilled'
p3605
sI3607
S'drive'
p3606
sI3608
S'guided'
p3607
sI3609
S'altruism'
p3608
sI3610
S'desire'
p3609
sI3611
S'coerce'
p3610
sI3612
S'mold'
p3611
sI3613
S'establishment'
p3612
sI3614
S'enters'
p3613
sI3615
S'minds'
p3614
sI3616
S'student'
p3615
sI3617
S'anything'
p3616
sI3618
S'whatsoever'
p3617
sI3619
S'elsewhere'
p3618
sI3620
S'gross'
p3619
sI3621
S'inhibit'
p3620
sI3622
S'perverts'
p3621
sI3623
S'inclination'
p3622
sI3624
S'grow'
p3623
sI3625
S'constraints'
p3624
sI3626
S'true'
p3625
sI3627
S'withholding'
p3626
sI3628
S'tactical'
p3627
sI3629
S'usually'
p3628
sI3630
S'presents'
p3629
sI3631
S'casualties'
p3630
sI3632
S'recognised'
p3631
sI3633
S'prerequisite'
p3632
sI3634
S'transparency'
p3633
sI3635
S'publication'
p3634
sI3636
S'categorized'
p3635
sI3637
S'secrets'
p3636
sI3638
S'flows'
p3637
sI3639
S'stronger'
p3638
sI3640
S'distinguish'
p3639
sI3641
S'classification'
p3640
sI3642
S'endanger'
p3641
sI3643
S'pretext'
p3642
sI3644
S'unfavorable'
p3643
sI3645
S'leaks'
p3644
sI3646
S'leak'
p3645
sI3647
S'classified'
p3646
sI3648
S'judgments'
p3647
sI3649
S'illegally'
p3648
sI3650
S'questions'
p3649
sI3651
S'regulates'
p3650
sI3652
S'repercussions'
p3651
sI3653
S'door'
p3652
sI3654
S'openly'
p3653
sI3655
S'exchanging'
p3654
sI3656
S'press'
p3655
sI3657
S'impose'
p3656
sI3658
S'cultivation'
p3657
sI3659
S'percent'
p3658
sI3660
S'subsides'
p3659
sI3661
S'farming'
p3660
sI3662
S'farmland'
p3661
sI3663
S'waste'
p3662
sI3664
S'smoking'
p3663
sI3665
S'habit'
p3664
sI3666
S'biggest'
p3665
sI3667
S'killers'
p3666
sI3668
S'toxic'
p3667
sI3669
S'compounds'
p3668
sI3670
S'hazards'
p3669
sI3671
S'cancer'
p3670
sI3672
S'rising'
p3671
sI3673
S'subsidised'
p3672
sI3674
S'greatest'
p3673
sI3675
S'artificially'
p3674
sI3676
S'unhealthy'
p3675
sI3677
S'taxpayers'
p3676
sI3678
S'rewarding'
p3677
sI3679
S'usurper'
p3678
sI3680
S'communication'
p3679
sI3681
S'opinions'
p3680
sI3682
S'precious'
p3681
sI3683
S'limited'
p3682
sI3684
S'conflicting'
p3683
sI3685
S'dissent'
p3684
sI3686
S'subversive'
p3685
sI3687
S'tolerated'
p3686
sI3688
S'discussion'
p3687
sI3689
S'slumber'
p3688
sI3690
S'decided'
p3689
sI3691
S'justifiably'
p3690
sI3692
S'suppressed'
p3691
sI3693
S'stifling'
p3692
sI3694
S'balance'
p3693
sI3695
S'fullest'
p3694
sI3696
S'professing'
p3695
sI3697
S'discussing'
p3696
sI3698
S'conviction'
p3697
sI3699
S'offensive'
p3698
sI3700
S'unlimited'
p3699
sI3701
S'situations'
p3700
sI3702
S'limitation'
p3701
sI3703
S'prescribed'
p3702
sI3704
S'emergency'
p3703
sI3705
S'restricted'
p3704
sI3706
S'respectability'
p3705
sI3707
S'finds'
p3706
sI3708
S'disagreeable'
p3707
sI3709
S'writings'
p3708
sI3710
S'preservation'
p3709
sI3711
S'unpopular'
p3710
sI3712
S'shall'
p3711
sI3713
S'deprived'
p3712
sI3714
S'abridged'
p3713
sI3715
S'write'
p3714
sI3716
S'publish'
p3715
sI3717
S'sentiments'
p3716
sI3718
S'encounter'
p3717
sI3719
S'occasionally'
p3718
sI3720
S'hindrance'
p3719
sI3721
S'utterance'
p3720
sI3722
S'endured'
p3721
sI3723
S'wartime'
p3722
sI3724
S'allowable'
p3723
sI3725
S'peacetime'
p3724
sI3726
S'expressed'
p3725
sI3727
S'word'
p3726
sI3728
S'words'
p3727
sI3729
S'language'
p3728
sI3730
S'restricting'
p3729
sI3731
S'inescapably'
p3730
sI3732
S'dampens'
p3731
sI3733
S'vigor'
p3732
sI3734
S'limitations'
p3733
sI3735
S'censor'
p3734
sI3736
S'heart'
p3735
sI3737
S'subjected'
p3736
sI3738
S'hate'
p3737
sI3739
S'slander'
p3738
sI3740
S'posed'
p3739
sI3741
S'discriminatory'
p3740
sI3742
S'lifeblood'
p3741
sI3743
S'lay'
p3742
sI3744
S'organisations'
p3743
sI3745
S'confer'
p3744
sI3746
S'restrained'
p3745
sI3747
S'contempt'
p3746
sI3748
S'courts'
p3747
sI3749
S'excuse'
p3748
sI3750
S'indecent'
p3749
sI3751
S'concerning'
p3750
sI3752
S'technologies'
p3751
sI3753
S'purposes'
p3752
sI3754
S'hire'
p3753
sI3755
S'unemployed'
p3754
sI3756
S'disabled'
p3755
sI3757
S'veterans'
p3756
sI3758
S'federal'
p3757
sI3759
S'unemployment'
p3758
sI3760
S'policymakers'
p3759
sI3761
S'impediments'
p3760
sI3762
S'incentivize'
p3761
sI3763
S'spurred'
p3762
sI3764
S'vouchers'
p3763
sI3765
S'credits'
p3764
sI3766
S'segregation'
p3765
sI3767
S'indirectly'
p3766
sI3768
S'inevitably'
p3767
sI3769
S'enroll'
p3768
sI3770
S'dollars'
p3769
sI3771
S'catalyst'
p3770
sI3772
S'opt'
p3771
sI3773
S'notably'
p3772
sI3774
S'finances'
p3773
sI3775
S'wealthy'
p3774
sI3776
S'kids'
p3775
sI3777
S'vendors'
p3776
sI3778
S'provision'
p3777
sI3779
S'destroyed'
p3778
sI3780
S'proposal'
p3779
sI3781
S'functioned'
p3780
sI3782
S'approximately'
p3781
sI3783
S'five'
p3782
sI3784
S'improvement'
p3783
sI3785
S'send'
p3784
sI3786
S'know'
p3785
sI3787
S'distributing'
p3786
sI3788
S'hugely'
p3787
sI3789
S'applicable'
p3788
sI3790
S'implicit'
p3789
sI3791
S'menace'
p3790
sI3792
S'hijacked'
p3791
sI3793
S'despot'
p3792
sI3794
S'sane'
p3793
sI3795
S'regard'
p3794
sI3796
S'whereby'
p3795
sI3797
S'monopolise'
p3796
sI3798
S'earth'
p3797
sI3799
S'virtue'
p3798
sI3800
S'destructive'
p3799
sI3801
S'adversary'
p3800
sI3802
S'hope'
p3801
sI3803
S'escape'
p3802
sI3804
S'overwhelmingly'
p3803
sI3805
S'nuclearization'
p3804
sI3806
S'count'
p3805
sI3807
S'ready'
p3806
sI3808
S'fend'
p3807
sI3809
S'devise'
p3808
sI3810
S'latest'
p3809
sI3811
S'devices'
p3810
sI3812
S'greatly'
p3811
sI3813
S'breached'
p3812
sI3814
S'indiscriminately'
p3813
sI3815
S'affiliated'
p3814
sI3816
S'target'
p3815
sI3817
S'soldiers'
p3816
sI3818
S'cast'
p3817
sI3819
S'idf'
p3818
sI3820
S'zone'
p3819
sI3821
S'strikes'
p3820
sI3822
S'paralyzed'
p3821
sI3823
S'south'
p3822
sI3824
S'conducted'
p3823
sI3825
S'rockets'
p3824
sI3826
S'fired'
p3825
sI3827
S'targeted'
p3826
sI3828
S'terrorize'
p3827
sI3829
S'fourth'
p3828
sI3830
S'convention'
p3829
sI3831
S'terror'
p3830
sI3832
S'gazans'
p3831
sI3833
S'normalcy'
p3832
sI3834
S'disproportionate'
p3833
sI3835
S'guilty'
p3834
sI3836
S'attacked'
p3835
sI3837
S'acting'
p3836
sI3838
S'peaceful'
p3837
sI3839
S'exhausted'
p3838
sI3840
S'contemplate'
p3839
sI3841
S'doing'
p3840
sI3842
S'israelis'
p3841
sI3843
S'killed'
p3842
sI3844
S'unlawful'
p3843
sI3845
S'intentionally'
p3844
sI3846
S'willing'
p3845
sI3847
S'renew'
p3846
sI3848
S'running'
p3847
sI3849
S'firing'
p3848
sI3850
S'constituted'
p3849
sI3851
S'curtailed'
p3850
sI3852
S'fire'
p3851
sI3853
S'returning'
p3852
sI3854
S'southern'
p3853
sI3855
S'firepower'
p3854
sI3856
S'hundreds'
p3855
sI3857
S'livelihoods'
p3856
sI3858
S'tens'
p3857
sI3859
S'undisputable'
p3858
sI3860
S'solution'
p3859
sI3861
S'endangers'
p3860
sI3862
S'locations'
p3861
sI3863
S'broke'
p3862
sI3864
S'truce'
p3863
sI3865
S'passively'
p3864
sI3866
S'accept'
p3865
sI3867
S'whomever'
p3866
sI3868
S'deserves'
p3867
sI3869
S'demanded'
p3868
sI3870
S'justifies'
p3869
sI3871
S'trapped'
p3870
sI3872
S'triggered'
p3871
sI3873
S'clearly'
p3872
sI3874
S'unproportionally'
p3873
sI3875
S'unforgettable'
p3874
sI3876
S'tragedy'
p3875
sI3877
S'displayed'
p3876
sI3878
S'broker'
p3877
sI3879
S'lasting'
p3878
sI3880
S'unfortunate'
p3879
sI3881
S'reaction'
p3880
sI3882
S'unjustifiable'
p3881
sI3883
S'bombardment'
p3882
sI3884
S'hallmarks'
p3883
sI3885
S'constant'
p3884
sI3886
S'impending'
p3885
sI3887
S'disrupted'
p3886
sI3888
S'barrages'
p3887
sI3889
S'unbearable'
p3888
sI3890
S'border'
p3889
sI3891
S'towns'
p3890
sI3892
S'militants'
p3891
sI3893
S'missiles'
p3892
sI3894
S'notorious'
p3893
sI3895
S'apartment'
p3894
sI3896
S'buildings'
p3895
sI3897
S'invested'
p3896
sI3898
S'shadow'
p3897
sI3899
S'nearby'
p3898
sI3900
S'solar'
p3899
sI3901
S'harvesting'
p3900
sI3902
S'shadows'
p3901
sI3903
S'spaces'
p3902
sI3904
S'amenity'
p3903
sI3905
S'firefighters'
p3904
sI3906
S'emergencies'
p3905
sI3907
S'blocks'
p3906
sI3908
S'contrast'
p3907
sI3909
S'houses'
p3908
sI3910
S'accommodate'
p3909
sI3911
S'occupy'
p3910
sI3912
S'municipal'
p3911
sI3913
S'grew'
p3912
sI3914
S'reputation'
p3913
sI3915
S'tower'
p3914
sI3916
S'saw'
p3915
sI3917
S'constructed'
p3916
sI3918
S'experienced'
p3917
sI3919
S'structural'
p3918
sI3920
S'decay'
p3919
sI3921
S'overbearing'
p3920
sI3922
S'fearsome'
p3921
sI3923
S'unsociable'
p3922
sI3924
S'floors'
p3923
sI3925
S'fires'
p3924
sI3926
S'brigade'
p3925
sI3927
S'quickly'
p3926
sI3928
S'move'
p3927
sI3929
S'heat'
p3928
sI3930
S'cold'
p3929
sI3931
S'shared'
p3930
sI3932
S'walls'
p3931
sI3933
S'developments'
p3932
sI3934
S'resident'
p3933
sI3935
S'interaction'
p3934
sI3936
S'densities'
p3935
sI3937
S'urban'
p3936
sI3938
S'car'
p3937
sI3939
S'intensification'
p3938
sI3940
S'capita'
p3939
sI3941
S'neighborhoods'
p3940
sI3942
S'space'
p3941
sI3943
S'agitated'
p3942
sI3944
S'victimize'
p3943
sI3945
S'dissident'
p3944
sI3946
S'creeds'
p3945
sI3947
S'theologians'
p3946
sI3948
S'grave'
p3947
sI3949
S'blasphemous'
p3948
sI3950
S'libel'
p3949
sI3951
S'declaration'
p3950
sI3952
S'offend'
p3951
sI3953
S'sentiment'
p3952
sI3954
S'believers'
p3953
sI3955
S'sensitivity'
p3954
sI3956
S'treating'
p3955
sI3957
S'adherents'
p3956
sI3958
S'compromised'
p3957
sI3959
S'defamation'
p3958
sI3960
S'sacred'
p3959
sI3961
S'offended'
p3960
sI3962
S'core'
p3961
sI3963
S'dead'
p3962
sI3964
S'letter'
p3963
sI3965
S'imagined'
p3964
sI3966
S'insult'
p3965
sI3967
S'complements'
p3966
sI3968
S'incitement'
p3967
sI3969
S'distasteful'
p3968
sI3970
S'imprison'
p3969
sI3971
S'dissidents'
p3970
sI3972
S'hatred'
p3971
sI3973
S'xenophobia'
p3972
sI3974
S'anyone'
p3973
sI3975
S'licence'
p3974
sI3976
S'humiliation'
p3975
sI3977
S'esteem'
p3976
sI3978
S'disseminating'
p3977
sI3979
S'affront'
p3978
sI3980
S'fighting'
p3979
sI3981
S'deniers'
p3980
sI3982
S'truth'
p3981
sI3983
S'incorrect'
p3982
sI3984
S'propaganda'
p3983
sI3985
S'audiences'
p3984
sI3986
S'reaches'
p3985
sI3987
S'antisemitic'
p3986
sI3988
S'convenient'
p3987
sI3989
S'polemical'
p3988
sI3990
S'substitute'
p3989
sI3991
S'legislation'
p3990
sI3992
S'imposes'
p3991
sI3993
S'surest'
p3992
sI3994
S'indicators'
p3993
sI3995
S'genocidal'
p3994
sI3996
S'massacres'
p3995
sI3997
S'inspire'
p3996
sI3998
S'jews'
p3997
sI3999
S'tolerant'
p3998
sI4000
S'democracies'
p3999
sI4001
S'prosecute'
p4000
sI4002
S'punishing'
p4001
sI4003
S'european'
p4002
sI4004
S'combating'
p4003
sI4005
S'martyrs'
p4004
sI4006
S'imprisoned'
p4005
sI4007
S'accepted'
p4006
sI4008
S'applied'
p4007
sI4009
S'viewpoints'
p4008
sI4010
S'accuracy'
p4009
sI4011
S'unpopularity'
p4010
sI4012
S'minimising'
p4011
sI4013
S'acutest'
p4012
sI4014
S'slandering'
p4013
sI4015
S'mayor'
p4014
sI4016
S'council'
p4015
sI4017
S'district'
p4016
sI4018
S'votes'
p4017
sI4019
S'merely'
p4018
sI4020
S'attract'
p4019
sI4021
S'mavericks'
p4020
sI4022
S'member'
p4021
sI4023
S'bloc'
p4022
sI4024
S'focused'
p4023
sI4025
S'subscribed'
p4024
sI4026
S'notion'
p4025
sI4027
S'escalated'
p4026
sI4028
S'confrontation'
p4027
sI4029
S'recently'
p4028
sI4030
S'soft'
p4029
sI4031
S'organisation'
p4030
sI4032
S'begun'
p4031
sI4033
S'restraining'
p4032
sI4034
S'resolving'
p4033
sI4035
S'agenda'
p4034
sI4036
S'imperialistic'
p4035
sI4037
S'reap'
p4036
sI4038
S'flag'
p4037
sI4039
S'gesture'
p4038
sI4040
S'formally'
p4039
sI4041
S'amending'
p4040
sI4042
S'outlaw'
p4041
sI4043
S'desecration'
p4042
sI4044
S'symbolic'
p4043
sI4045
S'spoken'
p4044
sI4046
S'written'
p4045
sI4047
S'venerated'
p4046
sI4048
S'breaches'
p4047
sI4049
S'possessed'
p4048
sI4050
S'impugned'
p4049
sI4051
S'exposition'
p4050
sI4052
S'indulged'
p4051
sI4053
S'antagonize'
p4052
sI4054
S'employ'
p4053
sI4055
S'conceivable'
p4054
sI4056
S'still'
p4055
sI4057
S'constitutionally'
p4056
sI4058
S'emblem'
p4057
sI4059
S'entitles'
p4058
sI4060
S'item'
p4059
sI4061
S'promulgate'
p4060
sI4062
S'police'
p4061
sI4063
S'protest'
p4062
sI4064
S'commonly'
p4063
sI4065
S'college'
p4064
sI4066
S'fans'
p4065
sI4067
S'playoff'
p4066
sI4068
S'bcs'
p4067
sI4069
S'participants'
p4068
sI4070
S'championship'
p4069
sI4071
S'format'
p4070
sI4072
S'detract'
p4071
sI4073
S'season'
p4072
sI4074
S'intensity'
p4073
sI4075
S'rivalry'
p4074
sI4076
S'propel'
p4075
sI4077
S'title'
p4076
sI4078
S'fbs'
p4077
sI4079
S'conferences'
p4078
sI4080
S'unwillingness'
p4079
sI4081
S'esoteric'
p4080
sI4082
S'teams'
p4081
sI4083
S'interested'
p4082
sI4084
S'despite'
p4083
sI4085
S'beating'
p4084
sI4086
S'routinely'
p4085
sI4087
S'controversies'
p4086
sI4088
S'inclusion'
p4087
sI4089
S'proportion'
p4088
sI4090
S'offering'
p4089
sI4091
S'demeaning'
p4090
sI4092
S'deviant'
p4091
sI4093
S'external'
p4092
sI4094
S'isolated'
p4093
sI4095
S'realizing'
p4094
sI4096
S'dream'
p4095
sI4097
S'illegitimate'
p4096
sI4098
S'realize'
p4097
sI4099
S'delinquency'
p4098
sI4100
S'differential'
p4099
sI4101
S'wealthier'
p4100
sI4102
S'attractive'
p4101
sI4103
S'fulfil'
p4102
sI4104
S'achieving'
p4103
sI4105
S'fulfilled'
p4104
sI4106
S'delinquent'
p4105
sI4107
S'highest'
p4106
sI4108
S'disorganisation'
p4107
sI4109
S'isolating'
p4108
sI4110
S'lie'
p4109
sI4111
S'offender'
p4110
sI4112
S'difficulty'
p4111
sI4113
S'containing'
p4112
sI4114
S'bonds'
p4113
sI4115
S'deviate'
p4114
sI4116
S'survive'
p4115
sI4117
S'deviance'
p4116
sI4118
S'genetically'
p4117
sI4119
S'predisposed'
p4118
sI4120
S'readiness'
p4119
sI4121
S'perpetrated'
p4120
sI4122
S'connections'
p4121
sI4123
S'aspirations'
p4122
sI4124
S'breakdown'
p4123
sI4125
S'main'
p4124
sI4126
S'bond'
p4125
sI4127
S'norms'
p4126
sI4128
S'bottom'
p4127
sI4129
S'match'
p4128
sI4130
S'rip'
p4129
sI4131
S'advancing'
p4130
sI4132
S'careers'
p4131
sI4133
S'refresh'
p4132
sI4134
S'removing'
p4133
sI4135
S'legislators'
p4134
sI4136
S'career'
p4135
sI4137
S'grown'
p4136
sI4138
S'touch'
p4137
sI4139
S'constituents'
p4138
sI4140
S'incumbents'
p4139
sI4141
S'lawmakers'
p4140
sI4142
S'gridlock'
p4141
sI4143
S'locked'
p4142
sI4144
S'entrenched'
p4143
sI4145
S'freed'
p4144
sI4146
S'merits'
p4145
sI4147
S'recall'
p4146
sI4148
S'wielded'
p4147
sI4149
S'lobbyists'
p4148
sI4150
S'ignores'
p4149
sI4151
S'complicated'
p4150
sI4152
S'whom'
p4151
sI4153
S'tenure'
p4152
sI4154
S'defect'
p4153
sI4155
S'affairs'
p4154
sI4156
S'corrupting'
p4155
sI4157
S'garner'
p4156
sI4158
S'?'
sI4159
S'.'
sI4160
S'-'
s.