(dp1
S'input'
p2
(dp3
S'motion'
p4
(lp5
I3
aI4
aI22
aI258
aI259
aI28
aI260
aI261
aI228
aI262
assS'output'
p6
(dp7
S'encoded'
p8
(lp9
I4087
aI3751
aI4088
aI28
aI7
aI4068
aI107
aI4070
aI280
aI199
aI502
asS'original'
p10
S'Controversies concerning inclusion in the BCS National Championship Game are numerous'
p11
ss.