(dp1
S'input'
p2
(dp3
S'motion'
p4
(lp5
I3
aI4
aI22
aI46
aI48
aI49
aI50
aI51
aI52
aI53
aI54
aI55
assS'output'
p6
(dp7
S'encoded'
p8
(lp9
I49
aI50
aI1865
aI1863
aI13
aI632
aI120
aI419
aI9
aI1866
aI1329
asS'original'
p10
S'Collective bargaining permits workers to achieve a form of workplace democracy'
p11
ss.