(dp1
S'input'
p2
(dp3
S'motion'
p4
(lp5
I1
aI2
aI3
aI4
aI116
aI117
aI13
aI14
aI118
aI119
aI120
aI7
aI121
aI122
aI123
assS'output'
p6
(dp7
S'encoded'
p8
(lp9
I471
aI42
aI2834
aI2765
aI2835
aI337
aI2836
aI2837
asS'original'
p10
S'does not emit greenhouse gases or carbon dioxide'
p11
ss.