(dp1
S'input'
p2
(dp3
S'motion'
p4
(lp5
I1
aI2
aI3
aI5
aI82
aI78
aI83
aI26
aI84
aI85
aI11
aI86
aI77
aI87
aI88
aI89
aI90
assS'output'
p6
(dp7
S'encoded'
p8
(lp9
I89
aI90
aI522
aI1465
aI118
aI1830
aI7
aI605
aI925
asS'original'
p10
S'nuclear weapons had become a source of extreme risk'
p11
ss.