(dp1
S'input'
p2
(dp3
S'motion'
p4
(lp5
I3
aI4
aI22
aI242
aI243
assS'output'
p6
(dp7
S'encoded'
p8
(lp9
I385
aI80
aI304
aI2992
aI82
aI7
aI247
aI9
aI3949
aI3950
aI28
aI120
aI715
aI515
aI3287
aI225
aI9
aI226
asS'original'
p10
S'there is no place for the offence of blasphemous libel in a society which respects freedom of speech'
p11
ss.