(dp1
S'input'
p2
(dp3
S'motion'
p4
(lp5
I1
aI2
aI3
aI26
aI5
aI22
aI7
aI33
aI34
assS'output'
p6
(dp7
S'encoded'
p8
(lp9
I220
aI1108
aI11
aI630
aI129
aI1013
asS'original'
p10
S'it fails to achieve its goals'
p11
ss.