(dp1
S'input'
p2
(dp3
S'motion'
p4
(lp5
I1
aI2
aI3
aI5
aI76
aI77
aI78
aI79
aI80
aI25
aI81
assS'output'
p6
(dp7
S'encoded'
p8
(lp9
I198
aI7
aI5
aI2136
aI80
aI5
aI2129
aI2137
aI1432
aI87
aI226
aI779
aI2047
asS'original'
p10
S'most of the financing for the Mexican traffickers comes from American drug consumers'
p11
ss.