(dp1
S'input'
p2
(dp3
S'motion'
p4
(lp5
I1
aI2
aI3
aI4
aI152
aI13
aI153
aI5
aI154
aI7
aI155
assS'output'
p6
(dp7
S'encoded'
p8
(lp9
I5
aI3183
aI154
aI3136
aI267
aI5
aI155
aI3108
aI51
aI152
aI3184
aI11
aI5
aI814
aI7
aI758
aI608
asS'original'
p10
S'the naval blockade imposed on the Gaza Strip by Israel conformed to the rules of international law'
p11
ss.