(dp1
S'input'
p2
(dp3
S'motion'
p4
(lp5
I1
aI2
aI20
aI240
aI241
assS'output'
p6
(dp7
S'encoded'
p8
(lp9
I168
aI1475
aI3957
aI989
aI513
aI197
aI629
aI11
aI3968
aI173
aI387
aI168
aI351
aI3836
aI1341
aI3969
asS'original'
p10
S'anti-blasphemy and religious defamation laws  which are used to imprison journalists  students and other peaceful political dissidents'
p11
ss.