(dp1
S'input'
p2
(dp3
S'motion'
p4
(lp5
I3
aI4
aI5
aI93
aI80
aI7
aI94
aI95
assS'output'
p6
(dp7
S'encoded'
p8
(lp9
I2237
aI7
aI1905
aI170
aI1488
aI9
aI48
aI369
aI53
aI7
aI1728
aI2326
aI9
aI580
aI593
aI16
aI1209
aI60
aI2325
aI89
aI7
aI1314
aI9
aI163
asS'original'
p10
S'God  the beginning and end of all  can  by the natural light of human reason  be known with certainty from the works of creation'
p11
ss.