(dp1
S'input'
p2
(dp3
S'motion'
p4
(lp5
I3
aI4
aI22
aI231
aI33
aI86
aI120
aI232
aI233
assS'output'
p6
(dp7
S'encoded'
p8
(lp9
I299
aI3762
aI184
aI13
aI275
aI1784
aI170
aI212
aI25
asS'original'
p10
S'they incentivize schools to increase accountability and school performance'
p11
ss.