(dp1
S'input'
p2
(dp3
S'motion'
p4
(lp5
I3
aI4
aI18
aI7
aI19
aI9
aI7
aI20
aI9
aI21
assS'output'
p6
(dp7
S'encoded'
p8
(lp9
I381
aI531
aI288
aI642
aI643
aI644
aI645
asS'original'
p10
S'excessive growth may reduce output per worker'
p11
ss.