(dp1
S'input'
p2
(dp3
S'motion'
p4
(lp5
I3
aI4
aI5
aI6
aI186
aI236
aI237
aI157
aI238
aI85
assS'output'
p6
(dp7
S'encoded'
p8
(lp9
I131
aI1071
aI238
aI443
aI3882
aI1191
aI301
aI7
aI3184
asS'original'
p10
S'its actions were causing unjustifiable deaths among the civilians'
p11
ss.