(dp1
S'input'
p2
(dp3
S'motion'
p4
(lp5
I3
aI4
aI5
aI6
aI154
aI15
aI155
aI7
aI156
aI9
aI157
assS'output'
p6
(dp7
S'encoded'
p8
(lp9
I530
aI3152
aI80
aI3153
aI53
aI3154
aI455
aI269
aI7
aI1709
aI9
aI1656
aI170
aI606
asS'original'
p10
S'economic recovery is blocked by sweeping restrictions on the movement of goods and people'
p11
ss.