(dp1
S'input'
p2
(dp3
S'motion'
p4
(lp5
I1
aI2
aI3
aI4
aI187
aI188
aI189
aI78
aI190
aI11
aI191
aI192
assS'output'
p6
(dp7
S'encoded'
p8
(lp9
I3461
aI87
aI3462
aI3356
aI168
aI3463
aI799
aI483
aI3464
aI367
aI14
aI3465
asS'original'
p10
S'complications from bleeding  infection and poorly carried out circumcisions can be catastrophic'
p11
ss.