(dp1
S'input'
p2
(dp3
S'motion'
p4
(lp5
I1
aI2
aI20
aI73
aI74
aI75
assS'output'
p6
(dp7
S'encoded'
p8
(lp9
I2041
aI615
aI197
aI2042
aI2043
aI80
aI1233
aI638
aI168
aI1073
asS'original'
p10
S'CCT Programs are efficient tools for reducing poverty and inequality'
p11
ss.