(dp1
S'input'
p2
(dp3
S'motion'
p4
(lp5
I3
aI4
aI5
aI28
aI7
aI24
aI9
aI35
aI36
assS'output'
p6
(dp7
S'encoded'
p8
(lp9
I1041
aI1042
aI51
aI739
aI7
aI42
aI13
aI16
aI879
aI89
aI223
aI1043
aI137
aI969
asS'original'
p10
S"each individual's civil rights include the right to be free from government sponsored social discrimination"
p11
ss.