(dp1
S'input'
p2
(dp3
S'motion'
p4
(lp5
I3
aI4
aI5
aI6
aI7
aI206
aI158
aI80
aI85
aI28
aI207
aI7
aI24
aI9
aI208
aI209
aI9
aI210
assS'output'
p6
(dp7
S'encoded'
p8
(lp9
I3567
aI7
aI3568
aI3003
aI9
aI7
aI3301
aI230
aI515
aI80
aI2344
aI53
aI7
aI158
aI13
aI235
aI120
aI3569
aI3570
aI3571
asS'original'
p10
S'impede the procreative aspect of the sexual act which is understood by the Church to have a deeply theological meaning'
p11
ss.