(dp1
S'input'
p2
(dp3
S'motion'
p4
(lp5
I1
aI2
aI3
aI4
aI152
aI13
aI153
aI5
aI154
aI7
aI155
assS'output'
p6
(dp7
S'encoded'
p8
(lp9
I154
aI3169
aI5
aI3170
aI1859
asS'original'
p10
S"Israel's blockade violated the Geneva Conventions"
p11
ss.