(dp1
S'input'
p2
(dp3
S'motion'
p4
(lp5
I1
aI2
aI20
aI92
aI179
aI180
aI80
aI181
aI31
aI26
aI182
assS'output'
p6
(dp7
S'encoded'
p8
(lp9
I3295
aI181
aI31
aI615
aI233
aI2172
aI427
asS'original'
p10
S'broad sex education programs have global benefits'
p11
ss.