(dp1
S'input'
p2
(dp3
S'motion'
p4
(lp5
I3
aI4
aI5
aI6
aI154
aI15
aI155
aI7
aI156
aI9
aI157
assS'output'
p6
(dp7
S'encoded'
p8
(lp9
I222
aI80
aI120
aI49
aI419
aI9
aI3115
aI269
aI120
aI2507
aI536
asS'original'
p10
S'it is a collective form of punishment on a civilian population'
p11
ss.