(dp1
S'input'
p2
(dp3
S'motion'
p4
(lp5
I3
aI4
aI5
aI93
aI80
aI7
aI94
aI95
assS'output'
p6
(dp7
S'encoded'
p8
(lp9
I120
aI2317
aI2318
aI2319
aI13
aI1490
aI94
aI2320
aI2321
aI44
aI61
aI2322
aI279
aI858
aI7
aI278
aI279
asS'original'
p10
S'a benevolent deity ought to create only happy creatures  not an imperfect world like the real world'
p11
ss.