(dp1
S'input'
p2
(dp3
S'motion'
p4
(lp5
I3
aI4
aI5
aI6
aI186
aI236
aI237
aI157
aI238
aI85
assS'output'
p6
(dp7
S'encoded'
p8
(lp9
I3107
aI2523
aI936
aI3398
aI83
aI475
aI170
aI3135
aI475
aI237
aI1364
asS'original'
p10
S'Palestinian armed groups committed war crimes and possibly crimes against humanity'
p11
ss.