(dp1
S'input'
p2
(dp3
S'motion'
p4
(lp5
I3
aI4
aI22
aI46
aI7
aI47
assS'output'
p6
(dp7
S'encoded'
p8
(lp9
I1419
aI120
aI1801
aI237
aI223
aI1802
asS'original'
p10
S'Provides a safeguard against government instability'
p11
ss.