(dp1
S'input'
p2
(dp3
S'motion'
p4
(lp5
I1
aI2
aI16
aI5
aI17
aI7
aI5
aI18
aI7
aI19
assS'output'
p6
(dp7
S'encoded'
p8
(lp9
I118
aI644
aI534
aI20
aI645
aI318
aI646
asS'original'
p10
S'a larger population would mean more production'
p11
ss.