(dp1
S'input'
p2
(dp3
S'motion'
p4
(lp5
I1
aI2
aI20
aI144
aI5
aI145
aI146
aI147
assS'output'
p6
(dp7
S'encoded'
p8
(lp9
I129
aI21
aI217
aI1004
aI267
aI118
aI3045
aI2785
aI1134
aI3046
asS'original'
p10
S'its permit was based on a deficient environmental impact statement'
p11
ss.