(dp1
S'input'
p2
(dp3
S'motion'
p4
(lp5
I3
aI4
aI22
aI37
aI48
aI195
aI196
assS'output'
p6
(dp7
S'encoded'
p8
(lp9
I7
aI3480
aI363
aI7
aI291
aI9
aI1235
aI120
aI3504
aI3505
aI2501
aI127
asS'original'
p10
S'The deforestation has the effect of reducing a gene pool amongst species'
p11
ss.