(dp1
S'input'
p2
(dp3
S'motion'
p4
(lp5
I1
aI2
aI3
aI4
aI187
aI188
aI189
aI78
aI190
aI11
aI191
aI192
assS'output'
p6
(dp7
S'encoded'
p8
(lp9
I5
aI1056
aI289
aI7
aI187
aI3460
aI189
aI267
aI543
aI78
aI318
aI687
aI11
aI14
aI516
aI433
aI922
aI409
asS'original'
p10
S'the overall effect of male neonatal non-therapeutic circumcision on health is more likely to be negative rather than positive'
p11
ss.