(dp1
S'input'
p2
(dp3
S'motion'
p4
(lp5
I1
aI2
aI20
aI35
aI46
aI193
aI194
assS'output'
p6
(dp7
S'encoded'
p8
(lp9
I3478
aI78
aI118
aI777
aI401
aI7
aI3509
asS'original'
p10
S'deforestation is a major cause of desertification'
p11
ss.