(dp1
S'input'
p2
(dp3
S'motion'
p4
(lp5
I3
aI4
aI5
aI6
aI7
aI42
aI13
aI43
aI15
aI44
aI16
aI45
assS'output'
p6
(dp7
S'encoded'
p8
(lp9
I1715
aI9
aI1716
aI1717
aI80
aI349
aI9
aI1718
aI760
aI610
asS'original'
p10
S'prohibition of forcible return is part of customary international law'
p11
ss.