(dp1
S'input'
p2
(dp3
S'motion'
p4
(lp5
I3
aI4
aI5
aI28
aI7
aI24
aI9
aI35
aI36
assS'output'
p6
(dp7
S'encoded'
p8
(lp9
I617
aI235
aI103
aI826
aI120
aI1135
aI1136
aI269
aI7
aI936
aI299
aI199
aI970
aI13
aI1137
asS'original'
p10
S'programs have at best a negligible impact on the groups they are intended to assist'
p11
ss.