(dp1
S'input'
p2
(dp3
S'motion'
p4
(lp5
I1
aI2
aI16
aI5
aI17
aI7
aI5
aI18
aI7
aI19
assS'output'
p6
(dp7
S'encoded'
p8
(lp9
I118
aI697
aI26
aI5
aI578
aI534
aI20
aI86
aI118
aI698
aI699
aI7
aI578
aI365
asS'original'
p10
S'a decrease in the human population would prevent a significant amount of man-made human suffering'
p11
ss.