(dp1
S'input'
p2
(dp3
S'motion'
p4
(lp5
I3
aI4
aI18
aI7
aI19
aI9
aI7
aI20
aI9
aI21
assS'output'
p6
(dp7
S'encoded'
p8
(lp9
I7
aI19
aI80
aI511
aI293
aI512
aI170
aI513
aI21
aI404
aI9
aI7
aI514
aI28
aI515
aI7
aI19
aI363
aI365
aI516
aI170
aI404
aI9
aI517
aI447
aI518
aI137
aI519
asS'original'
p10
S'The policy is controversial both within and outside China because of the manner in which the policy has been implemented  and because of concerns about negative social consequences'
p11
ss.