(dp1
S'input'
p2
(dp3
S'motion'
p4
(lp5
I1
aI2
aI20
aI73
aI74
aI75
assS'output'
p6
(dp7
S'encoded'
p8
(lp9
I528
aI1073
aI78
aI715
aI11
aI640
aI2074
aI2075
aI510
aI713
asS'original'
p10
S'Economic inequality is thought to reduce distributive efficiency within society'
p11
ss.