(dp1
S'input'
p2
(dp3
S'motion'
p4
(lp5
I1
aI2
aI3
aI135
aI261
aI262
aI263
assS'output'
p6
(dp7
S'encoded'
p8
(lp9
I4091
aI727
aI197
aI42
aI101
aI346
aI789
aI220
aI1432
aI11
aI263
asS'original'
p10
S'external factors are not at play when it comes to crime'
p11
ss.