(dp1
S'input'
p2
(dp3
S'motion'
p4
(lp5
I3
aI4
aI22
aI37
aI38
assS'output'
p6
(dp7
S'encoded'
p8
(lp9
I120
aI1272
aI369
aI466
aI120
aI1273
aI9
aI1199
aI13
aI120
aI1225
asS'original'
p10
S'a powerpunch can do a lot of damage to a boxer'
p11
ss.