(dp1
S'input'
p2
(dp3
S'motion'
p4
(lp5
I3
aI4
aI5
aI6
aI118
aI119
aI15
aI16
aI120
aI121
aI122
aI9
aI123
aI124
aI125
assS'output'
p6
(dp7
S'encoded'
p8
(lp9
I118
aI119
aI80
aI7
aI200
aI1799
aI124
aI2812
aI2751
aI964
aI759
aI82
aI638
aI1352
aI2852
asS'original'
p10
S'wind power is the most expensive energy generating technology being considered for large scale deployment'
p11
ss.