(dp1
S'input'
p2
(dp3
S'motion'
p4
(lp5
I1
aI2
aI3
aI4
aI152
aI13
aI153
aI5
aI154
aI7
aI155
assS'output'
p6
(dp7
S'encoded'
p8
(lp9
I5
aI3209
aI3210
aI197
aI26
aI2990
aI11
aI609
aI3114
asS'original'
p10
S'the importation curbs are in place to pressure Hamas'
p11
ss.