(dp1
S'input'
p2
(dp3
S'motion'
p4
(lp5
I1
aI2
aI20
aI37
aI38
assS'output'
p6
(dp7
S'encoded'
p8
(lp9
I1328
aI1408
aI374
aI168
aI1409
aI1410
asS'original'
p10
S'Multicultural classrooms promote decision-making and critical thinking'
p11
ss.