(dp1
S'input'
p2
(dp3
S'motion'
p4
(lp5
I3
aI4
aI5
aI48
aI234
aI235
aI120
aI42
aI13
aI91
aI92
assS'output'
p6
(dp7
S'encoded'
p8
(lp9
I91
aI92
aI618
aI13
aI1812
aI103
aI120
aI3390
aI261
asS'original'
p10
S'nuclear weapons contribute to stability at a strategic level'
p11
ss.