(dp1
S'input'
p2
(dp3
S'motion'
p4
(lp5
I1
aI2
aI20
aI256
aI257
aI26
aI258
aI259
aI226
aI260
assS'output'
p6
(dp7
S'encoded'
p8
(lp9
I1165
aI11
aI5
aI1415
aI168
aI797
aI4079
aI863
aI7
aI5
aI4066
aI4069
aI383
aI361
aI363
aI1592
aI331
aI11
aI513
aI704
aI4080
aI13
aI346
aI80
aI5
aI105
aI4068
asS'original'
p10
S'due to the unique and often esoteric nature of the BCS format  there has been controversy as to which two teams should play for the national championship'
p11
ss.