(dp1
S'input'
p2
(dp3
S'motion'
p4
(lp5
I1
aI2
aI20
aI73
aI74
aI75
assS'output'
p6
(dp7
S'encoded'
p8
(lp9
I658
aI1724
aI7
aI528
aI1073
aI339
aI11
aI2071
aI135
aI1845
aI168
aI1238
aI2072
aI5
aI751
aI7
aI135
aI2073
asS'original'
p10
S'Higher levels of economic inequality tend to intensify social hierarchies and generally degrade the quality of social relations'
p11
ss.