(dp1
S'input'
p2
(dp3
S'motion'
p4
(lp5
I1
aI2
aI3
aI4
aI5
aI6
aI7
aI8
aI9
aI10
aI11
aI12
aI13
aI14
aI15
assS'output'
p6
(dp7
S'encoded'
p8
(lp9
I393
aI394
aI367
aI14
aI395
aI87
aI5
aI396
aI397
aI220
aI398
aI399
aI168
aI114
aI394
asS'original'
p10
S'many skills can be learned from the gaming experience  it builds practical and intellectual skills'
p11
ss.