(dp1
S'input'
p2
(dp3
S'motion'
p4
(lp5
I3
aI4
aI109
aI110
aI13
aI111
assS'output'
p6
(dp7
S'encoded'
p8
(lp9
I167
aI111
aI80
aI1282
aI13
aI16
aI1813
aI7
aI745
aI9
aI7
aI2071
aI320
aI924
aI7
aI2072
asS'original'
p10
S'foreign aid is seen to be serving the interests of the donor more than the recipient'
p11
ss.