(dp1
S'input'
p2
(dp3
S'motion'
p4
(lp5
I3
aI4
aI22
aI37
aI41
assS'output'
p6
(dp7
S'encoded'
p8
(lp9
I1536
aI1537
aI28
aI41
aI425
aI1066
aI1206
aI1538
asS'original'
p10
S'gamblers persist in gambling even after repeated losses'
p11
ss.