(dp1
S'input'
p2
(dp3
S'motion'
p4
(lp5
I1
aI2
aI20
aI35
aI36
assS'output'
p6
(dp7
S'encoded'
p8
(lp9
I821
aI1259
aI362
aI233
aI1260
aI80
aI1261
aI267
aI36
asS'original'
p10
S'Medical Associations also have called for bans on boxing'
p11
ss.