(dp1
S'input'
p2
(dp3
S'motion'
p4
(lp5
I3
aI4
aI22
aI39
aI40
assS'output'
p6
(dp7
S'encoded'
p8
(lp9
I40
aI80
aI120
aI1413
aI82
aI1414
aI389
aI60
aI1415
aI170
aI1416
aI28
aI114
aI1417
aI170
aI1418
aI1060
asS'original'
p10
S'multiculturalism is a tool for instilling students with pride and confidence in their unique and special backgrounds'
p11
ss.