(dp1
S'input'
p2
(dp3
S'motion'
p4
(lp5
I1
aI2
aI3
aI46
aI232
aI233
aI118
aI40
aI11
aI89
aI90
assS'output'
p6
(dp7
S'encoded'
p8
(lp9
I20
aI1238
aI14
aI1840
aI11
aI5
aI814
aI7
aI758
aI608
aI3787
aI26
aI2521
aI1406
asS'original'
p10
S'would generally be contrary to the rules of international law applicable in armed conflict'
p11
ss.