(dp1
S'input'
p2
(dp3
S'motion'
p4
(lp5
I1
aI2
aI3
aI4
aI187
aI188
aI189
aI78
aI190
aI11
aI191
aI192
assS'output'
p6
(dp7
S'encoded'
p8
(lp9
I189
aI367
aI14
aI918
aI11
aI118
aI187
aI723
aI1242
aI20
aI14
aI1437
aI11
aI1731
aI541
aI3415
asS'original'
p10
S'circumcision can be beneficial to a male before he would be able to otherwise provide consent'
p11
ss.