(dp1
S'input'
p2
(dp3
S'motion'
p4
(lp5
I3
aI4
aI5
aI6
aI7
aI42
aI13
aI43
aI15
aI44
aI16
aI45
assS'output'
p6
(dp7
S'encoded'
p8
(lp9
I299
aI288
aI1690
aI333
aI1691
aI339
aI333
aI1692
aI9
aI1486
aI79
aI339
aI1693
aI761
asS'original'
p10
S'they may serve as informants or as operatives of hostile states or terrorist organizations'
p11
ss.