(dp1
S'input'
p2
(dp3
S'motion'
p4
(lp5
I1
aI2
aI20
aI252
aI253
aI5
aI254
aI168
aI255
assS'output'
p6
(dp7
S'encoded'
p8
(lp9
I383
aI78
aI118
aI1103
aI40
aI11
aI29
aI224
aI331
aI199
aI331
aI518
asS'original'
p10
S"there is a constitutional right to make one's speech as effective as possible"
p11
ss.