(dp1
S'input'
p2
(dp3
S'motion'
p4
(lp5
I1
aI2
aI3
aI4
aI187
aI188
aI189
aI78
aI190
aI11
aI191
aI192
assS'output'
p6
(dp7
S'encoded'
p8
(lp9
I189
aI118
aI3422
aI7
aI118
aI3443
aI3444
aI3445
aI3432
asS'original'
p10
S'circumcision a mutilation of a previously perfectly shaped organ'
p11
ss.