(dp1
S'input'
p2
(dp3
S'motion'
p4
(lp5
I1
aI2
aI20
aI21
aI5
aI22
aI7
aI23
aI24
aI25
aI26
aI27
aI28
assS'output'
p6
(dp7
S'encoded'
p8
(lp9
I393
aI28
aI759
aI233
aI15
aI5
aI22
aI7
aI23
aI24
aI25
aI168
aI233
aI812
aI813
aI814
aI168
aI517
aI80
aI604
aI489
aI197
aI815
aI84
aI321
asS'original'
p10
S'Many sports organizations have banned the use of performance enhancing drugs and have very strict rules and consequences for people who are caught using them'
p11
ss.