(dp1
S'input'
p2
(dp3
S'motion'
p4
(lp5
I1
aI2
aI107
aI108
aI11
aI109
assS'output'
p6
(dp7
S'encoded'
p8
(lp9
I372
aI109
aI217
aI2546
asS'original'
p10
S'much government-to-government aid was ineffective'
p11
ss.