(dp1
S'input'
p2
(dp3
S'motion'
p4
(lp5
I3
aI4
aI5
aI7
aI78
aI79
aI80
aI81
aI82
aI27
aI83
assS'output'
p6
(dp7
S'encoded'
p8
(lp9
I7
aI2142
aI403
aI9
aI7
aI2126
aI4159
aI1655
asS'original'
p10
S'the root cause of the problem: U .S . demand'
p11
ss.