(dp1
S'input'
p2
(dp3
S'motion'
p4
(lp5
I3
aI4
aI22
aI231
aI33
aI86
aI120
aI232
aI233
assS'output'
p6
(dp7
S'encoded'
p8
(lp9
I120
aI33
aI22
aI471
aI13
aI170
aI3784
asS'original'
p10
S'a "competitive education market" would lead to "innovation and improvement'
p11
ss.