(dp1
S'input'
p2
(dp3
S'motion'
p4
(lp5
I1
aI2
aI3
aI4
aI152
aI13
aI153
aI5
aI154
aI7
aI155
assS'output'
p6
(dp7
S'encoded'
p8
(lp9
I220
aI217
aI118
aI263
aI11
aI1957
aI3149
aI5
aI154
aI235
aI5
aI155
aI3108
asS'original'
p10
S'it was a crime to continue imposing the blockade against the Gaza Strip'
p11
ss.