(dp1
S'input'
p2
(dp3
S'motion'
p4
(lp5
I3
aI4
aI22
aI106
aI107
aI108
assS'output'
p6
(dp7
S'encoded'
p8
(lp9
I7
aI2478
aI2526
aI189
aI135
aI13
aI1169
aI715
aI1063
aI508
aI114
aI186
aI339
aI2507
aI108
asS'original'
p10
S'The draft obliged male citizens to pay society back through their military or civilian service'
p11
ss.