(dp1
S'input'
p2
(dp3
S'motion'
p4
(lp5
I1
aI2
aI20
aI92
aI179
aI180
aI80
aI181
aI31
aI26
aI182
assS'output'
p6
(dp7
S'encoded'
p8
(lp9
I3299
aI180
aI26
aI382
aI295
aI5
aI925
aI7
aI3366
aI3358
aI168
aI701
aI317
aI511
aI3307
asS'original'
p10
S'sexual abstinence in teenagers decreases the risk of contracting STDs and having children outside marriage'
p11
ss.