(dp1
S'input'
p2
(dp3
S'motion'
p4
(lp5
I1
aI2
aI20
aI144
aI237
aI238
aI80
aI239
assS'output'
p6
(dp7
S'encoded'
p8
(lp9
I5
aI93
aI3913
aI3905
aI236
aI3915
aI20
aI3593
aI1552
asS'original'
p10
S'the way tower blocks were constructed would save money'
p11
ss.