(dp1
S'input'
p2
(dp3
S'motion'
p4
(lp5
I3
aI4
aI22
aI37
aI56
aI57
aI58
assS'output'
p6
(dp7
S'encoded'
p8
(lp9
I546
aI235
aI120
aI42
aI13
aI541
aI408
aI1920
aI28
aI170
aI13
aI114
aI583
aI780
asS'original'
p10
S'women have a right to control what happens in and to their own bodies'
p11
ss.