(dp1
S'input'
p2
(dp3
S'motion'
p4
(lp5
I1
aI2
aI20
aI264
aI265
aI266
aI267
aI5
aI268
aI269
aI7
aI221
assS'output'
p6
(dp7
S'encoded'
p8
(lp9
I762
aI4139
aI197
aI318
aI2036
aI11
aI117
aI4146
aI51
aI4147
asS'original'
p10
S'New lawmakers are more vulnerable to power wielded by lobbyists'
p11
ss.