(dp1
S'input'
p2
(dp3
S'motion'
p4
(lp5
I1
aI2
aI107
aI108
aI11
aI109
assS'output'
p6
(dp7
S'encoded'
p8
(lp9
I5
aI198
aI199
aI512
aI11
aI386
aI2550
aI57
aI1892
aI78
aI506
aI165
aI109
asS'original'
p10
S'the most effective manner to help developing countries advance is through state-controlled foreign aid'
p11
ss.