(dp1
S'input'
p2
(dp3
S'motion'
p4
(lp5
I3
aI4
aI5
aI6
aI222
aI80
aI143
aI42
aI82
aI7
aI223
aI13
aI224
aI225
aI9
aI226
assS'output'
p6
(dp7
S'encoded'
p8
(lp9
I3115
aI9
aI339
aI3699
aI3709
aI4159
aI626
aI82
aI7
aI3710
aI9
aI2197
aI170
aI891
aI461
asS'original'
p10
S'punishment of "dangerous or offensive writings . .[was] necessary for the preservation of peace and good order'
p11
ss.