(dp1
S'input'
p2
(dp3
S'motion'
p4
(lp5
I1
aI2
aI3
aI4
aI242
aI243
aI13
aI14
aI118
aI244
aI245
assS'output'
p6
(dp7
S'encoded'
p8
(lp9
I31
aI78
aI318
aI199
aI922
aI3989
aI101
aI4002
aI242
aI243
asS'original'
p10
S'education is more effective than legislation at combating Holocaust denial'
p11
ss.