(dp1
S'input'
p2
(dp3
S'motion'
p4
(lp5
I3
aI4
aI5
aI6
aI222
aI80
aI143
aI42
aI82
aI7
aI223
aI13
aI224
aI225
aI9
aI226
assS'output'
p6
(dp7
S'encoded'
p8
(lp9
I3656
aI225
aI80
aI7
aI42
aI9
aI7
aI606
asS'original'
p10
S'Press freedom is the right of the people'
p11
ss.