(dp1
S'input'
p2
(dp3
S'motion'
p4
(lp5
I1
aI2
aI20
aI229
aI31
aI84
aI118
aI230
aI231
assS'output'
p6
(dp7
S'encoded'
p8
(lp9
I506
aI877
aI2081
aI305
aI3775
aI80
aI5
aI3776
aI7
aI2596
aI168
aI1655
aI2046
aI339
aI11
aI697
aI168
aI751
aI1478
aI11
aI273
asS'original'
p10
S'Through free competition between vendors for the provision of products and services  prices tend to decrease  and quality tends to increase'
p11
ss.