(dp1
S'input'
p2
(dp3
S'motion'
p4
(lp5
I1
aI2
aI20
aI104
aI105
aI106
assS'output'
p6
(dp7
S'encoded'
p8
(lp9
I2519
aI545
aI26
aI2520
aI2120
aI87
aI1330
aI5
aI2476
asS'original'
p10
S'considerable savings in defence spending from abolishing the draft'
p11
ss.