(dp1
S'input'
p2
(dp3
S'motion'
p4
(lp5
I1
aI2
aI20
aI29
aI30
aI31
aI32
assS'output'
p6
(dp7
S'encoded'
p8
(lp9
I926
aI676
aI7
aI5
aI936
aI937
aI262
aI7
aI938
aI939
asS'original'
p10
S'inactivity one of the leading preventable causes of death worldwide'
p11
ss.