(dp1
S'input'
p2
(dp3
S'motion'
p4
(lp5
I1
aI2
aI3
aI91
aI78
aI5
aI92
aI93
assS'output'
p6
(dp7
S'encoded'
p8
(lp9
I2229
aI1475
aI2230
aI2231
aI331
aI372
aI2232
aI331
aI46
aI351
aI2229
aI2230
asS'original'
p10
S'unproven religious propositions deserve as much disbelief as all other unproven propositions'
p11
ss.