(dp1
S'input'
p2
(dp3
S'motion'
p4
(lp5
I1
aI2
aI3
aI4
aI184
aI234
aI235
aI155
aI236
aI83
assS'output'
p6
(dp7
S'encoded'
p8
(lp9
I5
aI3883
aI755
aI7
aI3884
aI3106
aI3107
aI361
aI656
aI2345
aI168
aI3885
aI5
aI635
aI7
aI5
aI218
aI669
aI7
aI3840
aI489
aI2868
aI510
aI869
aI7
aI836
aI3107
asS'original'
p10
S'the constant threat of impending rocket attacks has caused fear and disrupted the lives of the growing number of Israelis who live within range of such attacks'
p11
ss.