(dp1
S'input'
p2
(dp3
S'motion'
p4
(lp5
I3
aI4
aI22
aI139
aI7
aI42
aI13
aI140
aI141
assS'output'
p6
(dp7
S'encoded'
p8
(lp9
I2963
aI2964
aI2129
aI541
aI991
asS'original'
p10
S'criminals ignore gun control laws'
p11
ss.