(dp1
S'input'
p2
(dp3
S'motion'
p4
(lp5
I1
aI2
aI20
aI73
aI74
aI75
assS'output'
p6
(dp7
S'encoded'
p8
(lp9
I5
aI2080
aI2109
aI5
aI74
aI337
aI1731
aI1528
aI771
aI427
aI168
aI533
aI13
aI1715
aI285
aI7
aI552
aI427
asS'original'
p10
S'the rich exploit the poor or otherwise gain unfair benefits  and thus should return some of those benefits'
p11
ss.