(dp1
S'input'
p2
(dp3
S'motion'
p4
(lp5
I3
aI4
aI5
aI6
aI244
aI245
aI15
aI16
aI120
aI246
aI247
assS'output'
p6
(dp7
S'encoded'
p8
(lp9
I244
aI245
aI80
aI120
aI3988
aI3989
aI3990
aI82
asS'original'
p10
S'Holocaust denial is a convenient polemical substitute for anti-semitism'
p11
ss.