(dp1
S'input'
p2
(dp3
S'motion'
p4
(lp5
I1
aI2
aI3
aI4
aI116
aI117
aI13
aI14
aI118
aI119
aI120
aI7
aI121
aI122
aI123
assS'output'
p6
(dp7
S'encoded'
p8
(lp9
I220
aI2844
aI2062
aI267
aI2763
aI2139
asS'original'
p10
S'it cuts dependence on fossil fuels'
p11
ss.