(dp1
S'input'
p2
(dp3
S'motion'
p4
(lp5
I3
aI4
aI22
aI139
aI7
aI42
aI13
aI140
aI141
assS'output'
p6
(dp7
S'encoded'
p8
(lp9
I246
aI24
aI9
aI2132
aI80
aI1192
aI320
aI488
aI924
aI24
aI9
aI2132
asS'original'
p10
S'criminal use of guns is far more common than self-defense use of guns'
p11
ss.