(dp1
S'input'
p2
(dp3
S'motion'
p4
(lp5
I1
aI2
aI3
aI4
aI152
aI13
aI153
aI5
aI154
aI7
aI155
assS'output'
p6
(dp7
S'encoded'
p8
(lp9
I59
aI195
aI3196
aI26
aI5
aI155
aI3108
aI124
aI5
aI2173
aI7
aI152
asS'original'
p10
S'an open seaport in the Gaza Strip endangered the security of Israel'
p11
ss.