(dp1
S'input'
p2
(dp3
S'motion'
p4
(lp5
I1
aI2
aI20
aI35
aI54
aI55
aI56
assS'output'
p6
(dp7
S'encoded'
p8
(lp9
I1506
aI40
aI11
aI284
aI7
aI578
aI665
aI1913
aI101
aI337
aI1914
asS'original'
p10
S'moral right to life of human beings (human organisms) begins at or near conception-fertilization'
p11
ss.