(dp1
S'input'
p2
(dp3
S'motion'
p4
(lp5
I3
aI4
aI5
aI93
aI80
aI7
aI94
aI95
assS'output'
p6
(dp7
S'encoded'
p8
(lp9
I48
aI1508
aI717
aI984
aI7
aI2441
aI6
aI2237
aI656
asS'original'
p10
S'all moral thought requires the assumption that God exists'
p11
ss.