(dp1
S'input'
p2
(dp3
S'motion'
p4
(lp5
I3
aI4
aI5
aI6
aI222
aI80
aI143
aI42
aI82
aI7
aI223
aI13
aI224
aI225
aI9
aI226
assS'output'
p6
(dp7
S'encoded'
p8
(lp9
I7
aI380
aI1056
aI235
aI3700
aI2046
aI13
aI7
aI2675
aI9
aI704
aI1773
aI1973
aI28
aI120
aI879
aI170
aI197
aI3718
asS'original'
p10
S'the individual must have unlimited access to the ideas of his fellow men in a free and open encounter'
p11
ss.