(dp1
S'input'
p2
(dp3
S'motion'
p4
(lp5
I1
aI2
aI3
aI26
aI5
aI22
aI7
aI33
aI34
assS'output'
p6
(dp7
S'encoded'
p8
(lp9
I33
aI34
aI1099
aI624
aI11
aI1100
aI1101
asS'original'
p10
S'Race-conscious affirmative action remains necessary to address race-based obstacles'
p11
ss.