(dp1
S'input'
p2
(dp3
S'motion'
p4
(lp5
I1
aI2
aI3
aI4
aI184
aI234
aI235
aI155
aI236
aI83
assS'output'
p6
(dp7
S'encoded'
p8
(lp9
I3840
aI233
aI363
aI3841
aI51
aI5
aI3842
aI3106
aI168
aI3191
aI3107
aI87
aI155
asS'original'
p10
S'Israelis have been killed by the unlawful rocket and mortar attacks from Gaza'
p11
ss.