(dp1
S'input'
p2
(dp3
S'motion'
p4
(lp5
I3
aI4
aI5
aI6
aI7
aI158
aI9
aI159
aI15
aI16
aI160
aI89
aI7
aI161
aI162
assS'output'
p6
(dp7
S'encoded'
p8
(lp9
I120
aI3233
aI9
aI158
aI170
aI3234
aI339
aI3235
aI891
aI82
aI293
aI7
aI158
aI170
aI7
aI162
asS'original'
p10
S'a separation of church and stateno state-run or state-established churchis good for both the church and the state'
p11
ss.