(dp1
S'input'
p2
(dp3
S'motion'
p4
(lp5
I1
aI2
aI20
aI44
aI114
aI115
aI49
assS'output'
p6
(dp7
S'encoded'
p8
(lp9
I1749
aI11
aI2709
aI118
aI2566
aI101
aI5
aI1017
aI7
aI2663
asS'original'
p10
S'serves to enrich a few at the expense of creativity'
p11
ss.