(dp1
S'input'
p2
(dp3
S'motion'
p4
(lp5
I3
aI4
aI22
aI37
aI48
aI195
aI196
assS'output'
p6
(dp7
S'encoded'
p8
(lp9
I3480
aI269
aI120
aI580
aI1352
aI330
aI28
aI853
aI28
aI1366
asS'original'
p10
S'Deforestation on a human scale results in decline in biodiversity'
p11
ss.