(dp1
S'input'
p2
(dp3
S'motion'
p4
(lp5
I3
aI4
aI5
aI7
aI84
aI80
aI85
aI28
aI86
aI87
aI13
aI88
aI79
aI89
aI90
aI91
aI92
assS'output'
p6
(dp7
S'encoded'
p8
(lp9
I764
aI91
aI79
aI799
aI601
aI2218
aI2219
aI2220
aI562
aI114
aI764
aI92
aI515
aI1400
aI82
aI120
aI239
aI927
aI9
aI1512
aI1909
aI339
aI2221
aI91
aI83
asS'original'
p10
S'new nuclear states often lack adequate organizational controls over their new weapons  which makes for a high risk of either deliberate or accidental nuclear war'
p11
ss.