(dp1
S'input'
p2
(dp3
S'motion'
p4
(lp5
I3
aI4
aI5
aI6
aI7
aI206
aI158
aI80
aI85
aI28
aI207
aI7
aI24
aI9
aI208
aI209
aI9
aI210
assS'output'
p6
(dp7
S'encoded'
p8
(lp9
I7
aI158
aI15
aI44
aI170
aI559
aI44
aI1624
aI131
aI896
asS'original'
p10
S'the Church should not and could not change its long-standing teaching'
p11
ss.