(dp1
S'input'
p2
(dp3
S'motion'
p4
(lp5
I1
aI2
aI20
aI144
aI237
aI238
aI80
aI239
assS'output'
p6
(dp7
S'encoded'
p8
(lp9
I5
aI3919
aI2385
aI7
aI5
aI3913
aI3905
aI960
aI321
aI3920
aI168
aI3921
asS'original'
p10
S'the overbearing design of the tower blocks made them fearsome and unsociable'
p11
ss.