(dp1
S'input'
p2
(dp3
S'motion'
p4
(lp5
I1
aI2
aI20
aI44
aI5
aI45
assS'output'
p6
(dp7
S'encoded'
p8
(lp9
I1756
aI78
aI5
aI1757
aI1758
aI1759
aI1028
aI118
aI1760
aI94
aI1761
asS'original'
p10
S'republicanism is the next logical step toward a fully democratic constitution'
p11
ss.