(dp1
S'input'
p2
(dp3
S'motion'
p4
(lp5
I3
aI4
aI5
aI6
aI186
aI236
aI237
aI157
aI238
aI85
assS'output'
p6
(dp7
S'encoded'
p8
(lp9
I131
aI24
aI9
aI87
aI28
aI7
aI157
aI3110
aI199
aI483
aI9
asS'original'
p10
S'its use of force in the Gaza Strip are acts of self-defense'
p11
ss.