(dp1
S'input'
p2
(dp3
S'motion'
p4
(lp5
I3
aI4
aI5
aI6
aI222
aI80
aI143
aI42
aI82
aI7
aI223
aI13
aI224
aI225
aI9
aI226
assS'output'
p6
(dp7
S'encoded'
p8
(lp9
I225
aI9
aI226
aI28
aI461
aI13
aI2273
aI170
aI1463
aI1451
aI3002
aI13
aI425
aI7
aI3711
asS'original'
p10
S'freedom of speech  in order to exist and function  necessarily extends to even the unpopular'
p11
ss.