(dp1
S'input'
p2
(dp3
S'motion'
p4
(lp5
I1
aI2
aI20
aI240
aI241
assS'output'
p6
(dp7
S'encoded'
p8
(lp9
I5
aI40
aI11
aI223
aI7
aI715
aI168
aI418
aI1257
aI51
aI5
aI3949
aI7
aI5
aI49
aI7
aI3227
aI400
aI3325
aI5
aI40
aI11
aI3950
aI5
aI1475
aI3951
aI7
aI3952
asS'original'
p10
S'The right to freedom of thought and expression  sanctioned by the Declaration of the Rights of Man  cannot imply the right to offend the religious sentiment of believers'
p11
ss.