(dp1
S'input'
p2
(dp3
S'motion'
p4
(lp5
I3
aI4
aI109
aI110
aI13
aI111
assS'output'
p6
(dp7
S'encoded'
p8
(lp9
I248
aI2604
aI2582
aI89
aI2605
aI59
aI363
aI786
aI13
aI275
aI7
aI666
aI9
aI628
aI28
aI395
aI2105
aI234
asS'original'
p10
S'direct monetary assistance from industrialized countries has gone to increase the standard of living in many impoverished nations'
p11
ss.