(dp1
S'input'
p2
(dp3
S'motion'
p4
(lp5
I1
aI2
aI20
aI44
aI5
aI45
assS'output'
p6
(dp7
S'encoded'
p8
(lp9
I5
aI1206
aI7
aI160
aI13
aI14
aI1833
asS'original'
p10
S"the country's head of state should be elected"
p11
ss.