(dp1
S'input'
p2
(dp3
S'motion'
p4
(lp5
I3
aI4
aI18
aI7
aI19
aI9
aI7
aI20
aI9
aI21
assS'output'
p6
(dp7
S'encoded'
p8
(lp9
I654
aI655
aI6
aI120
aI366
aI307
aI536
aI532
aI170
aI530
aI531
aI656
asS'original'
p10
S'economists doubt that a correlation between population reduction and economic growth exists'
p11
ss.