(dp1
S'input'
p2
(dp3
S'motion'
p4
(lp5
I1
aI2
aI20
aI256
aI257
aI26
aI258
aI259
aI226
aI260
assS'output'
p6
(dp7
S'encoded'
p8
(lp9
I20
aI469
aI11
aI351
aI318
aI281
aI517
asS'original'
p10
S'would lead to other  more serious consequences'
p11
ss.