(dp1
S'input'
p2
(dp3
S'motion'
p4
(lp5
I3
aI4
aI22
aI24
aI167
aI111
aI168
aI13
aI169
aI170
aI171
aI172
aI6
aI173
aI174
aI170
aI175
aI28
aI59
aI13
aI176
aI177
aI170
aI178
aI114
aI179
aI180
assS'output'
p6
(dp7
S'encoded'
p8
(lp9
I7
aI1597
aI80
aI120
aI653
aI669
aI82
aI2381
aI3276
aI339
aI3277
aI554
aI1952
aI3278
aI288
aI1570
aI3279
aI13
aI7
aI3280
asS'original'
p10
S'The Internet is a key resource for independent activists or E-activists  particularly those whose message may run counter to the mainstream'
p11
ss.