(dp1
S'input'
p2
(dp3
S'motion'
p4
(lp5
I1
aI2
aI3
aI4
aI57
aI58
aI59
aI60
aI61
aI62
aI63
aI64
aI13
aI65
aI66
aI11
aI67
aI68
assS'output'
p6
(dp7
S'encoded'
p8
(lp9
I424
aI1975
aI1976
aI1977
aI112
aI909
aI26
aI1978
aI168
aI1979
aI528
aI168
aI1980
aI1139
aI80
aI68
aI20
aI1981
aI1982
asS'original'
p10
S'if female babies [were] worth their weight in rupees and yuan  economic and educational opportunities for girls would soon follow'
p11
ss.