(dp1
S'input'
p2
(dp3
S'motion'
p4
(lp5
I3
aI4
aI5
aI137
aI263
aI264
aI265
assS'output'
p6
(dp7
S'encoded'
p8
(lp9
I1151
aI926
aI28
aI4092
aI431
aI791
aI114
aI1529
aI466
aI44
aI4129
aI114
aI1015
asS'original'
p10
S'individuals engage in deviant behaviors when their means do not match their goals'
p11
ss.