(dp1
S'input'
p2
(dp3
S'motion'
p4
(lp5
I1
aI2
aI3
aI4
aI184
aI234
aI235
aI155
aI236
aI83
assS'output'
p6
(dp7
S'encoded'
p8
(lp9
I302
aI1310
aI367
aI570
aI3863
aI3864
aI962
aI3824
aI267
asS'original'
p10
S'No country can just passively accept being fired on'
p11
ss.