(dp1
S'input'
p2
(dp3
S'motion'
p4
(lp5
I1
aI2
aI20
aI35
aI46
aI193
aI194
assS'output'
p6
(dp7
S'encoded'
p8
(lp9
I5
aI3430
aI7
aI3469
aI800
aI2415
aI3470
aI361
aI1340
aI26
aI1197
aI11
aI2882
asS'original'
p10
S'The removal of trees without sufficient reforestation has resulted in damage to habitat'
p11
ss.