(dp1
S'input'
p2
(dp3
S'motion'
p4
(lp5
I3
aI4
aI5
aI6
aI7
aI42
aI13
aI43
aI15
aI44
aI16
aI45
assS'output'
p6
(dp7
S'encoded'
p8
(lp9
I1678
aI1679
aI1680
aI9
aI606
aI491
aI199
aI1681
aI170
aI199
aI1383
aI89
aI1682
aI1683
asS'original'
p10
S'Refugee populations consist of people who are terrified and are away from familiar surroundings'
p11
ss.