(dp1
S'input'
p2
(dp3
S'motion'
p4
(lp5
I3
aI4
aI22
aI39
aI40
assS'output'
p6
(dp7
S'encoded'
p8
(lp9
I40
aI542
aI28
aI1309
aI1310
aI1311
aI170
aI1117
aI28
aI7
aI1312
asS'original'
p10
S'multiculturalism helps in bringing together immigrants and minorities in the country'
p11
ss.