(dp1
S'input'
p2
(dp3
S'motion'
p4
(lp5
I3
aI4
aI109
aI110
aI13
aI111
assS'output'
p6
(dp7
S'encoded'
p8
(lp9
I879
aI110
aI2644
aI2645
aI530
aI2646
asS'original'
p10
S'free trade gives optimal economic advantages'
p11
ss.