(dp1
S'input'
p2
(dp3
S'motion'
p4
(lp5
I3
aI4
aI22
aI37
aI48
aI195
aI196
assS'output'
p6
(dp7
S'encoded'
p8
(lp9
I7
aI3432
aI9
aI3471
aI802
aI2417
aI3472
aI363
aI1342
aI28
aI1199
aI13
aI2884
asS'original'
p10
S'The removal of trees without sufficient reforestation has resulted in damage to habitat'
p11
ss.