(dp1
S'input'
p2
(dp3
S'motion'
p4
(lp5
I1
aI2
aI3
aI4
aI187
aI188
aI189
aI78
aI190
aI11
aI191
aI192
assS'output'
p6
(dp7
S'encoded'
p8
(lp9
I3402
aI489
aI197
aI3403
aI800
aI3404
aI397
aI3405
aI168
aI3406
aI389
asS'original'
p10
S'newborns who are circumcised without analgesia experience pain and physiologic stress'
p11
ss.