(dp1
S'input'
p2
(dp3
S'motion'
p4
(lp5
I1
aI2
aI20
aI73
aI74
aI75
assS'output'
p6
(dp7
S'encoded'
p8
(lp9
I2085
aI1478
aI11
aI1015
aI552
aI58
aI1341
aI2119
aI11
aI1501
aI2120
aI2121
aI318
aI922
aI552
aI26
aI741
asS'original'
p10
S'redistribution tends to benefit those with political clout to set spending priorities more than those in need'
p11
ss.