(dp1
S'input'
p2
(dp3
S'motion'
p4
(lp5
I3
aI4
aI5
aI93
aI80
aI7
aI94
aI95
assS'output'
p6
(dp7
S'encoded'
p8
(lp9
I80
aI28
aI120
aI95
aI6
aI2239
aI369
aI1336
aI16
asS'original'
p10
S'is life-affirming in a way that religion can never be'
p11
ss.