(dp1
S'input'
p2
(dp3
S'motion'
p4
(lp5
I3
aI4
aI5
aI6
aI189
aI190
aI191
aI80
aI192
aI13
aI193
aI194
assS'output'
p6
(dp7
S'encoded'
p8
(lp9
I190
aI191
aI369
aI16
aI3443
aI333
aI120
aI1919
aI9
aI3444
aI51
asS'original'
p10
S'infant circumcision can be "clearly condemned as a violation of childrens rights'
p11
ss.