(dp1
S'input'
p2
(dp3
S'motion'
p4
(lp5
I3
aI4
aI22
aI106
aI107
aI108
assS'output'
p6
(dp7
S'encoded'
p8
(lp9
I287
aI108
aI80
aI544
aI924
aI2414
aI103
aI48
aI1309
aI135
aI28
aI1276
aI60
aI114
aI186
asS'original'
p10
S'some service is better than none at all  bringing citizens in contact with their military'
p11
ss.