(dp1
S'input'
p2
(dp3
S'motion'
p4
(lp5
I1
aI2
aI3
aI4
aI124
aI125
aI13
aI14
aI126
assS'output'
p6
(dp7
S'encoded'
p8
(lp9
I318
aI1902
aI1301
aI75
aI2900
aI11
aI14
aI318
aI2039
asS'original'
p10
S'More biologically diverse communities appear to be more productive'
p11
ss.