(dp1
S'input'
p2
(dp3
S'motion'
p4
(lp5
I3
aI4
aI22
aI46
aI116
aI117
aI51
assS'output'
p6
(dp7
S'encoded'
p8
(lp9
I2680
aI170
aI2685
aI199
aI7
aI828
aI696
aI9
aI7
aI2686
aI9
aI48
aI117
aI120
aI42
aI13
aI7
aI2281
aI9
aI704
aI2382
asS'original'
p10
S"Patents and copyrights are the legal implementation of the base of all property rights: a man's right to the product of his mind"
p11
ss.