(dp1
S'input'
p2
(dp3
S'motion'
p4
(lp5
I3
aI4
aI18
aI211
aI7
aI212
aI213
aI214
aI13
assS'output'
p6
(dp7
S'encoded'
p8
(lp9
I7
aI968
aI9
aI7
aI3607
aI82
aI34
aI74
aI80
aI44
aI3608
aI53
aI3609
aI434
aI53
aI120
aI3610
aI13
aI3611
aI7
aI536
aI746
aI120
aI3612
aI633
aI53
aI7
aI3613
asS'original'
p10
S'the history of the drive for compulsory schooling is not guided by altruism  but by a desire to coerce the population into a mold desired by the Establishment'
p11
ss.