(dp1
S'input'
p2
(dp3
S'motion'
p4
(lp5
I1
aI2
aI20
aI92
aI179
aI180
aI80
aI181
aI31
aI26
aI182
assS'output'
p6
(dp7
S'encoded'
p8
(lp9
I2247
aI2023
aI836
aI3303
aI2674
aI415
aI11
aI3304
aI3305
aI168
aI3293
asS'original'
p10
S'denying teens such factual information leads to unwanted pregnancies and STIs'
p11
ss.