(dp1
S'input'
p2
(dp3
S'motion'
p4
(lp5
I3
aI4
aI5
aI6
aI154
aI15
aI155
aI7
aI156
aI9
aI157
assS'output'
p6
(dp7
S'encoded'
p8
(lp9
I7
aI3111
aI156
aI9
aI7
aI250
aI524
aI658
aI7
aI1688
aI3149
aI28
aI157
aI13
aI235
aI950
aI131
aI2493
aI856
aI548
aI154
aI3222
aI7
aI3158
aI28
aI7
aI83
asS'original'
p10
S'the Israeli blockade of the city had caused the humanitarian situation in Gaza to have reached its worst point since Israel occupied the territory in the 1967 Six-Day War'
p11
ss.