(dp1
S'input'
p2
(dp3
S'motion'
p4
(lp5
I3
aI4
aI5
aI28
aI7
aI24
aI9
aI35
aI36
assS'output'
p6
(dp7
S'encoded'
p8
(lp9
I222
aI542
aI13
aI976
aI82
aI977
aI969
aI978
aI339
aI979
aI53
aI7
aI980
aI981
aI9
aI120
aI982
asS'original'
p10
S'it helps to compensate for past discrimination  persecution or exploitation by the ruling class of a culture'
p11
ss.