(dp1
S'input'
p2
(dp3
S'motion'
p4
(lp5
I3
aI4
aI5
aI7
aI78
aI79
aI80
aI81
aI82
aI27
aI83
assS'output'
p6
(dp7
S'encoded'
p8
(lp9
I7
aI2146
aI2147
aI1241
aI1275
aI9
aI2132
aI13
aI16
aI2148
aI53
aI2149
aI141
aI2139
aI2001
aI508
aI2150
aI2151
aI269
aI1100
aI9
aI2131
aI781
aI2145
asS'original'
p10
S'the ATF knowingly allowed thousands of guns to be bought by suspected arms traffickers ("gunrunners") working through straw purchasers on behalf of Mexican drug cartels'
p11
ss.