(dp1
S'input'
p2
(dp3
S'motion'
p4
(lp5
I3
aI4
aI5
aI6
aI142
aI80
aI143
aI144
assS'output'
p6
(dp7
S'encoded'
p8
(lp9
I222
aI1115
aI1329
aI170
aI891
aI2640
asS'original'
p10
S'it undermines democracy and good governance'
p11
ss.