(dp1
S'input'
p2
(dp3
S'motion'
p4
(lp5
I3
aI4
aI22
aI106
aI107
aI108
assS'output'
p6
(dp7
S'encoded'
p8
(lp9
I7
aI814
aI1906
aI9
aI120
aI572
aI223
aI28
aI131
aI1814
aI13
aI7
aI1777
aI1928
aI7
aI2498
aI2108
aI9
aI7
aI1777
aI13
aI2499
aI186
aI108
aI28
aI1971
aI9
aI743
asS'original'
p10
S'the very conception of a just government in its duty to the citizen includes the reciprocal obligation of the citizen to render military service in case of need'
p11
ss.