(dp1
S'input'
p2
(dp3
S'motion'
p4
(lp5
I1
aI2
aI3
aI4
aI140
aI78
aI141
aI142
assS'output'
p6
(dp7
S'encoded'
p8
(lp9
I1342
aI1560
aI5
aI1647
aI7
aI1598
asS'original'
p10
S'corruption increases the cost of business'
p11
ss.