(dp1
S'input'
p2
(dp3
S'motion'
p4
(lp5
I1
aI2
aI3
aI4
aI187
aI188
aI189
aI78
aI190
aI11
aI191
aI192
assS'output'
p6
(dp7
S'encoded'
p8
(lp9
I383
aI197
aI331
aI889
aI2328
aI80
aI826
aI1713
aI7
aI187
aI189
aI331
aI2271
aI80
aI1975
aI3421
aI3422
asS'original'
p10
S'there are as good reasons for legal prohibition of male circumcision as exist for female genital mutilation'
p11
ss.