(dp1
S'input'
p2
(dp3
S'motion'
p4
(lp5
I1
aI2
aI3
aI4
aI152
aI13
aI153
aI5
aI154
aI7
aI155
assS'output'
p6
(dp7
S'encoded'
p8
(lp9
I1686
aI1654
aI168
aI604
aI1054
aI3197
aI26
aI291
aI3198
asS'original'
p10
S'Humanitarian goods and people must flow in both directions'
p11
ss.