(dp1
S'input'
p2
(dp3
S'motion'
p4
(lp5
I1
aI2
aI3
aI4
aI140
aI78
aI141
aI142
assS'output'
p6
(dp7
S'encoded'
p8
(lp9
I220
aI1116
aI2738
aI1105
aI380
asS'original'
p10
S'it encourages rent seeking behaviour'
p11
ss.