(dp1
S'input'
p2
(dp3
S'motion'
p4
(lp5
I1
aI2
aI3
aI4
aI124
aI125
aI13
aI14
aI126
assS'output'
p6
(dp7
S'encoded'
p8
(lp9
I403
aI197
aI2901
aI2911
aI4
aI557
aI233
aI2737
aI331
aI352
aI539
aI820
asS'original'
p10
S'humans are losing animals that could have served as biological control agents'
p11
ss.