(dp1
S'input'
p2
(dp3
S'motion'
p4
(lp5
I1
aI2
aI20
aI92
aI179
aI180
aI80
aI181
aI31
aI26
aI182
assS'output'
p6
(dp7
S'encoded'
p8
(lp9
I181
aI31
aI736
aI11
aI14
aI3297
aI11
aI14
aI199
asS'original'
p10
S'sex education needs to be comprehensive to be effective'
p11
ss.