(dp1
S'input'
p2
(dp3
S'motion'
p4
(lp5
I1
aI2
aI20
aI137
aI5
aI40
aI11
aI138
aI139
assS'output'
p6
(dp7
S'encoded'
p8
(lp9
I1009
aI2505
aI2758
aI7
aI2122
aI866
aI20
aI273
aI5
aI263
aI532
asS'original'
p10
S'making civilian ownership of firearms illegal would increase the crime rate'
p11
ss.