(dp1
S'input'
p2
(dp3
S'motion'
p4
(lp5
I1
aI2
aI20
aI73
aI74
aI75
assS'output'
p6
(dp7
S'encoded'
p8
(lp9
I297
aI460
aI2038
aI2051
aI2052
aI1579
aI87
aI2053
aI744
aI2054
aI638
aI168
aI386
aI321
aI2055
aI925
asS'original'
p10
S'they protect households facing hard times from falling into deeper poverty and help them manage risk'
p11
ss.