(dp1
S'input'
p2
(dp3
S'motion'
p4
(lp5
I3
aI4
aI5
aI6
aI186
aI236
aI237
aI157
aI238
aI85
assS'output'
p6
(dp7
S'encoded'
p8
(lp9
I3874
aI83
aI269
aI3116
aI60
aI120
aI526
aI671
aI9
aI1184
aI80
aI61
aI3875
aI580
aI3876
asS'original'
p10
S'Israel`s unproportionally all-out war on Hamas with a great number of fatalities is an unforgettable human tragedy'
p11
ss.