(dp1
S'input'
p2
(dp3
S'motion'
p4
(lp5
I1
aI2
aI16
aI209
aI5
aI210
aI211
aI212
aI11
assS'output'
p6
(dp7
S'encoded'
p8
(lp9
I3424
aI13
aI233
aI5
aI40
aI11
aI539
aI168
aI246
aI112
aI581
aI1419
asS'original'
p10
S'youths should have the right to control and direct their own learning'
p11
ss.