(dp1
S'input'
p2
(dp3
S'motion'
p4
(lp5
I3
aI4
aI5
aI6
aI186
aI236
aI237
aI157
aI238
aI85
assS'output'
p6
(dp7
S'encoded'
p8
(lp9
I131
aI42
aI13
aI2947
aI2522
aI219
aI1399
asS'original'
p10
S'its right to self defence was acknowledged'
p11
ss.