(dp1
S'input'
p2
(dp3
S'motion'
p4
(lp5
I1
aI2
aI20
aI144
aI237
aI238
aI80
aI239
assS'output'
p6
(dp7
S'encoded'
p8
(lp9
I2047
aI2745
aI2076
aI659
aI3939
asS'original'
p10
S'consumers prefer lower density neighborhoods'
p11
ss.