(dp1
S'input'
p2
(dp3
S'motion'
p4
(lp5
I3
aI4
aI5
aI6
aI186
aI236
aI237
aI157
aI238
aI85
assS'output'
p6
(dp7
S'encoded'
p8
(lp9
I7
aI42
aI9
aI154
aI13
aI1246
aI566
aI237
aI3825
aI170
aI1693
aI3109
asS'original'
p10
S'the right of Israel to defend itself against rockets and terrorist attacks'
p11
ss.