(dp1
S'input'
p2
(dp3
S'motion'
p4
(lp5
I1
aI2
aI20
aI65
aI5
aI161
aI7
aI162
aI163
aI26
aI5
aI164
assS'output'
p6
(dp7
S'encoded'
p8
(lp9
I361
aI522
aI2183
aI357
aI267
aI5
aI658
aI31
aI2560
aI26
aI3263
aI127
asS'original'
p10
S'has had disastrous effects on the higher education sector in continental Europe'
p11
ss.