(dp1
S'input'
p2
(dp3
S'motion'
p4
(lp5
I3
aI4
aI5
aI93
aI80
aI7
aI94
aI95
assS'output'
p6
(dp7
S'encoded'
p8
(lp9
I2431
aI1508
aI2432
aI170
aI7
aI2433
aI865
aI9
aI2430
aI2434
aI120
aI239
aI119
aI13
aI266
aI323
aI2435
aI333
aI2237
asS'original'
p10
S'objective moral truths and the binding nature of obligations suggests a high power to enforce them  regarded as God'
p11
ss.