(dp1
S'input'
p2
(dp3
S'motion'
p4
(lp5
I3
aI4
aI22
aI139
aI7
aI42
aI13
aI140
aI141
assS'output'
p6
(dp7
S'encoded'
p8
(lp9
I7
aI606
aI235
aI120
aI42
aI13
aI170
aI140
aI333
aI120
aI2473
aI89
aI7
aI223
asS'original'
p10
S'the people have a right to "keep and bear arms" as a protection from the government'
p11
ss.