(dp1
S'input'
p2
(dp3
S'motion'
p4
(lp5
I1
aI2
aI20
aI44
aI46
aI47
aI48
aI49
aI50
aI51
aI52
aI53
assS'output'
p6
(dp7
S'encoded'
p8
(lp9
I220
aI11
aI5
aI199
aI1881
aI7
aI852
aI1598
asS'original'
p10
S'it "contributes to the effective conduct of public business'
p11
ss.