(dp1
S'input'
p2
(dp3
S'motion'
p4
(lp5
I3
aI4
aI22
aI37
aI48
aI195
aI196
assS'output'
p6
(dp7
S'encoded'
p8
(lp9
I80
aI1209
aI13
aI403
aI7
aI2873
aI9
aI395
aI127
asS'original'
p10
S'is known to cause the extinction of many species'
p11
ss.