(dp1
S'input'
p2
(dp3
S'motion'
p4
(lp5
I1
aI2
aI20
aI256
aI257
aI26
aI258
aI259
aI226
aI260
assS'output'
p6
(dp7
S'encoded'
p8
(lp9
I698
aI136
aI299
aI4063
aI260
aI4064
aI80
aI118
aI4065
aI11
aI1738
aI5
aI4066
asS'original'
p10
S'significant support among college football fans for a playoff to replace the BCS'
p11
ss.