(dp1
S'input'
p2
(dp3
S'motion'
p4
(lp5
I1
aI2
aI16
aI5
aI17
aI7
aI5
aI18
aI7
aI19
assS'output'
p6
(dp7
S'encoded'
p8
(lp9
I520
aI521
aI78
aI752
aI310
aI51
aI5
aI676
aI191
aI17
asS'original'
p10
S"China's gender imbalance is further increased by the One Child Policy"
p11
ss.