(dp1
S'input'
p2
(dp3
S'motion'
p4
(lp5
I3
aI4
aI22
aI37
aI48
aI195
aI196
assS'output'
p6
(dp7
S'encoded'
p8
(lp9
I2693
aI7
aI606
aI13
aI2556
aI3471
aI1933
aI554
aI491
aI2870
aI28
aI2796
aI3459
aI9
aI7
aI1312
aI893
aI289
aI1381
aI114
aI3204
aI286
asS'original'
p10
S'Prohibiting the people to cut trees  especially those who live in rural parts of the country will actually hurt their daily life'
p11
ss.