(dp1
S'input'
p2
(dp3
S'motion'
p4
(lp5
I3
aI4
aI22
aI146
aI7
aI147
aI148
aI149
assS'output'
p6
(dp7
S'encoded'
p8
(lp9
I3053
aI3
aI149
aI363
aI7
aI505
aI13
aI1431
aI2835
aI124
aI123
aI170
aI760
aI1851
aI269
aI3054
aI1624
asS'original'
p10
S"building this pipeline has the potential to undermine America's clean energy future and international leadership on climate change"
p11
ss.