(dp1
S'input'
p2
(dp3
S'motion'
p4
(lp5
I1
aI2
aI3
aI4
aI242
aI243
aI13
aI14
aI118
aI244
aI245
assS'output'
p6
(dp7
S'encoded'
p8
(lp9
I242
aI243
aI3982
aI26
aI46
aI325
aI361
aI301
aI11
aI373
aI5
aI3983
aI4
aI220
aI3984
asS'original'
p10
S'Holocaust denial propaganda in all forms has shown to influence the audiences that it reaches'
p11
ss.