(dp1
S'input'
p2
(dp3
S'motion'
p4
(lp5
I3
aI4
aI5
aI93
aI80
aI7
aI94
aI95
assS'output'
p6
(dp7
S'encoded'
p8
(lp9
I7
aI2290
aI9
aI606
aI2291
aI200
aI9
aI2292
aI968
aI170
aI28
aI395
aI763
aI2293
aI1419
aI2294
aI2295
aI2296
aI9
aI2250
asS'original'
p10
S"the theism of people throughout most of recorded history and in many different places provides prima facie demonstration of God's existence"
p11
ss.