(dp1
S'input'
p2
(dp3
S'motion'
p4
(lp5
I3
aI4
aI5
aI6
aI189
aI190
aI191
aI80
aI192
aI13
aI193
aI194
assS'output'
p6
(dp7
S'encoded'
p8
(lp9
I80
aI3410
aI425
aI791
aI2420
aI60
aI3409
asS'original'
p10
S'is painful even when performed with anesthetic'
p11
ss.