(dp1
S'input'
p2
(dp3
S'motion'
p4
(lp5
I3
aI4
aI5
aI6
aI186
aI236
aI237
aI157
aI238
aI85
assS'output'
p6
(dp7
S'encoded'
p8
(lp9
I7
aI186
aI3860
aI1883
aI13
aI2197
asS'original'
p10
S"the military solution won't conduct to peace"
p11
ss.