(dp1
S'input'
p2
(dp3
S'motion'
p4
(lp5
I1
aI2
aI3
aI4
aI220
aI78
aI141
aI40
aI80
aI5
aI221
aI11
aI222
aI223
aI7
aI224
assS'output'
p6
(dp7
S'encoded'
p8
(lp9
I915
aI361
aI5
aI40
aI11
aI223
aI7
aI148
aI168
aI418
asS'original'
p10
S'Everyone has the right to freedom of opinion and expression'
p11
ss.