(dp1
S'input'
p2
(dp3
S'motion'
p4
(lp5
I1
aI2
aI16
aI5
aI17
aI7
aI5
aI18
aI7
aI19
assS'output'
p6
(dp7
S'encoded'
p8
(lp9
I538
aI331
aI118
aI281
aI755
aI11
aI5
aI751
aI7
aI578
aI284
asS'original'
p10
S'overpopulation as a serious threat to the quality of human life'
p11
ss.