(dp1
S'input'
p2
(dp3
S'motion'
p4
(lp5
I1
aI2
aI3
aI26
aI5
aI22
aI7
aI33
aI34
assS'output'
p6
(dp7
S'encoded'
p8
(lp9
I33
aI34
aI982
aI5
aI812
aI967
aI220
aI78
aI1105
aI11
aI985
asS'original'
p10
S'affirmative action requires the very discrimination it is seeking to eliminate'
p11
ss.