(dp1
S'input'
p2
(dp3
S'motion'
p4
(lp5
I1
aI2
aI20
aI44
aI5
aI45
assS'output'
p6
(dp7
S'encoded'
p8
(lp9
I1778
aI1779
aI1780
aI367
aI14
aI629
aI11
aI1781
aI349
aI94
aI151
aI58
aI302
aI1782
asS'original'
p10
S'Monarchical prerogative powers can be used to circumvent normal democratic process with no accountability'
p11
ss.