(dp1
S'input'
p2
(dp3
S'motion'
p4
(lp5
I3
aI4
aI5
aI28
aI7
aI24
aI9
aI35
aI36
assS'output'
p6
(dp7
S'encoded'
p8
(lp9
I825
aI991
aI403
aI995
aI239
aI722
aI82
aI996
aI997
aI170
aI642
aI530
aI531
aI170
aI998
asS'original'
p10
S'These laws cause disproportionally high costs for small companies and reduce economic growth and employment'
p11
ss.