(dp1
S'input'
p2
(dp3
S'motion'
p4
(lp5
I1
aI2
aI16
aI5
aI17
aI7
aI5
aI18
aI7
aI19
assS'output'
p6
(dp7
S'encoded'
p8
(lp9
I628
aI696
aI11
aI264
aI5
aI676
aI191
aI17
aI361
aI728
aI26
aI19
asS'original'
p10
S'Coercive sterilization to enforce the one child policy has occurred in China'
p11
ss.