(dp1
S'input'
p2
(dp3
S'motion'
p4
(lp5
I3
aI4
aI22
aI37
aI56
aI57
aI58
assS'output'
p6
(dp7
S'encoded'
p8
(lp9
I7
aI42
aI13
aI286
aI1915
aI103
aI1906
asS'original'
p10
S'the right to life begins at conception'
p11
ss.