(dp1
S'input'
p2
(dp3
S'motion'
p4
(lp5
I3
aI4
aI5
aI137
aI263
aI264
aI265
assS'output'
p6
(dp7
S'encoded'
p8
(lp9
I7
aI76
aI22
aI474
aI265
aI485
aI9
aI743
aI339
aI485
aI9
aI120
aI1294
aI9
aI1429
asS'original'
p10
S'The poor would commit crime out of need or out of a sense of injustice'
p11
ss.