(dp1
S'input'
p2
(dp3
S'motion'
p4
(lp5
I1
aI2
aI20
aI44
aI114
aI115
aI49
assS'output'
p6
(dp7
S'encoded'
p8
(lp9
I789
aI118
aI265
aI361
aI2751
aI5
aI852
aI2752
aI2753
aI4
aI5
aI1057
aI78
aI42
aI1966
aI11
aI1362
asS'original'
p10
S"when a patent's term has expired  the public record ensures that the patentee's idea is not lost to humanity"
p11
ss.