(dp1
S'input'
p2
(dp3
S'motion'
p4
(lp5
I1
aI2
aI20
aI29
aI30
aI31
aI32
assS'output'
p6
(dp7
S'encoded'
p8
(lp9
I300
aI464
aI42
aI956
aI5
aI30
aI412
aI957
aI42
aI92
aI80
aI112
aI958
aI571
aI432
aI80
aI112
aI30
aI543
asS'original'
p10
S'youth do not get the physical outlet needed not only for their cognitive development but for their physical health'
p11
ss.