(dp1
S'input'
p2
(dp3
S'motion'
p4
(lp5
I3
aI4
aI22
aI266
aI267
aI268
aI269
aI7
aI270
aI271
aI9
aI223
assS'output'
p6
(dp7
S'encoded'
p8
(lp9
I267
aI268
aI199
aI120
aI95
aI13
aI1293
aI1598
aI541
aI562
aI223
asS'original'
p10
S'term limits are a way to restore popular control over government'
p11
ss.