(dp1
S'input'
p2
(dp3
S'motion'
p4
(lp5
I1
aI2
aI20
aI104
aI105
aI106
assS'output'
p6
(dp7
S'encoded'
p8
(lp9
I5
aI2514
aI7
aI5
aI2476
aI20
aI469
aI11
aI2515
aI2516
aI423
aI80
aI658
aI2517
aI2518
asS'original'
p10
S'the abolition of the draft would lead to recruitment shortages even for higher ranking positions'
p11
ss.