(dp1
S'input'
p2
(dp3
S'motion'
p4
(lp5
I3
aI4
aI22
aI37
aI41
assS'output'
p6
(dp7
S'encoded'
p8
(lp9
I41
aI28
aI287
aI419
aI339
aI1145
aI363
aI365
aI1282
aI28
aI1577
aI1578
aI715
aI28
aI968
asS'original'
p10
S'gambling in some form or another has been seen in almost every society in history'
p11
ss.