(dp1
S'input'
p2
(dp3
S'motion'
p4
(lp5
I1
aI2
aI3
aI4
aI184
aI234
aI235
aI155
aI236
aI83
assS'output'
p6
(dp7
S'encoded'
p8
(lp9
I197
aI291
aI3832
aI168
aI3871
aI1840
aI11
aI758
aI1686
aI608
asS'original'
p10
S'are both disproportionate and clearly contrary to international humanitarian law'
p11
ss.