(dp1
S'input'
p2
(dp3
S'motion'
p4
(lp5
I1
aI2
aI20
aI137
aI5
aI40
aI11
aI138
aI139
assS'output'
p6
(dp7
S'encoded'
p8
(lp9
I2127
aI1261
aI20
aI273
aI1234
aI168
aI1189
asS'original'
p10
S'gun bans would increase injuries and deaths'
p11
ss.