(dp1
S'input'
p2
(dp3
S'motion'
p4
(lp5
I3
aI4
aI5
aI7
aI84
aI80
aI85
aI28
aI86
aI87
aI13
aI88
aI79
aI89
aI90
aI91
aI92
assS'output'
p6
(dp7
S'encoded'
p8
(lp9
I200
aI79
aI199
aI44
aI28
aI120
aI1065
aI13
aI2182
aI2183
aI237
aI91
aI24
asS'original'
p10
S'most states are not in a position to safely guard against nuclear use'
p11
ss.