(dp1
S'input'
p2
(dp3
S'motion'
p4
(lp5
I1
aI2
aI20
aI44
aI114
aI115
aI49
assS'output'
p6
(dp7
S'encoded'
p8
(lp9
I424
aI2697
aI1267
aI42
aI233
aI5
aI826
aI2471
aI7
aI2678
aI26
aI393
aI942
aI297
aI20
aI2745
aI337
aI339
aI11
aI1546
aI112
aI2236
aI2746
asS'original'
p10
S'If inventors did not have the legal protection of patents  in many cases  they would prefer or tend to keep their inventions secret'
p11
ss.