(dp1
S'input'
p2
(dp3
S'motion'
p4
(lp5
I1
aI2
aI3
aI91
aI78
aI5
aI92
aI93
assS'output'
p6
(dp7
S'encoded'
p8
(lp9
I5
aI1313
aI7
aI118
aI2269
aI800
aI118
aI2235
aI78
aI1961
aI11
aI5
aI1313
aI7
aI118
aI2269
aI58
aI118
aI2235
asS'original'
p10
S'the theory of a universe without a God is preferable to the theory of a universe with a God'
p11
ss.