(dp1
S'input'
p2
(dp3
S'motion'
p4
(lp5
I3
aI4
aI22
aI37
aI56
aI57
aI58
assS'output'
p6
(dp7
S'encoded'
p8
(lp9
I7
aI463
aI13
aI1931
aI1056
aI16
aI702
aI13
aI7
aI1890
aI170
aI705
aI1932
asS'original'
p10
S'the decision to abort must be left to the mother and her physician'
p11
ss.