(dp1
S'input'
p2
(dp3
S'motion'
p4
(lp5
I3
aI4
aI109
aI110
aI13
aI111
assS'output'
p6
(dp7
S'encoded'
p8
(lp9
I111
aI369
aI799
aI1729
aI1027
aI28
aI76
aI59
aI28
aI441
aI346
aI1401
asS'original'
p10
S'aid can often distort incentives in poor countries in various harmful ways'
p11
ss.