(dp1
S'input'
p2
(dp3
S'motion'
p4
(lp5
I1
aI2
aI20
aI35
aI54
aI55
aI56
assS'output'
p6
(dp7
S'encoded'
p8
(lp9
I1907
aI56
aI197
aI1224
aI1925
asS'original'
p10
S'deliberate abortions are seriously immoral'
p11
ss.