(dp1
S'input'
p2
(dp3
S'motion'
p4
(lp5
I3
aI4
aI5
aI6
aI112
aI15
aI16
aI113
aI82
aI114
aI115
assS'output'
p6
(dp7
S'encoded'
p8
(lp9
I596
aI115
aI80
aI1660
aI282
aI13
aI7
aI545
aI9
aI120
aI715
aI333
aI334
aI333
aI13
aI7
aI530
aI573
aI9
aI6
aI715
asS'original'
p10
S'care work is directly related to the health of a society as well as to the economic development of that society'
p11
ss.