(dp1
S'input'
p2
(dp3
S'motion'
p4
(lp5
I3
aI4
aI5
aI6
aI118
aI119
aI15
aI16
aI120
aI121
aI122
aI9
aI123
aI124
aI125
assS'output'
p6
(dp7
S'encoded'
p8
(lp9
I61
aI908
aI2692
aI1154
aI9
aI118
aI119
aI80
aI2775
aI119
aI1576
aI53
aI118
aI2797
asS'original'
p10
S'An important limiting factor of wind power is variable power generated by wind farms'
p11
ss.