(dp1
S'input'
p2
(dp3
S'motion'
p4
(lp5
I3
aI4
aI22
aI254
aI255
aI7
aI256
aI170
aI257
assS'output'
p6
(dp7
S'encoded'
p8
(lp9
I4038
aI255
aI219
aI120
aI419
aI9
aI879
aI226
asS'original'
p10
S'flag burning was a form of free speech'
p11
ss.