(dp1
S'input'
p2
(dp3
S'motion'
p4
(lp5
I1
aI2
aI20
aI250
aI251
assS'output'
p6
(dp7
S'encoded'
p8
(lp9
I1502
aI87
aI1852
aI1039
aI4020
aI2105
aI5
aI4021
aI362
aI4022
aI267
aI2195
aI168
aI1810
aI26
aI5
aI2187
asS'original'
p10
S"Aside from improving each member state's economies  the bloc also focused on peace and stability in the region"
p11
ss.