(dp1
S'input'
p2
(dp3
S'motion'
p4
(lp5
I3
aI4
aI22
aI258
aI259
aI28
aI260
aI261
aI228
aI262
assS'output'
p6
(dp7
S'encoded'
p8
(lp9
I502
aI4078
aI4079
aI235
aI3726
aI114
aI4080
aI13
aI1527
aI28
aI120
aI904
asS'original'
p10
S'numerous FBS Conferences have expressed their unwillingness to participate in a play-off system'
p11
ss.