(dp1
S'input'
p2
(dp3
S'motion'
p4
(lp5
I1
aI2
aI3
aI4
aI116
aI117
aI13
aI14
aI118
aI119
aI120
aI7
aI121
aI122
aI123
assS'output'
p6
(dp7
S'encoded'
p8
(lp9
I361
aI676
aI7
aI5
aI2817
aI2785
aI2818
aI7
aI46
aI122
aI1551
asS'original'
p10
S'has one of the lowest environmental impacts of all energy sources'
p11
ss.