(dp1
S'input'
p2
(dp3
S'motion'
p4
(lp5
I3
aI4
aI5
aI48
aI234
aI235
aI120
aI42
aI13
aI91
aI92
assS'output'
p6
(dp7
S'encoded'
p8
(lp9
I7
aI136
aI7
aI757
aI9
aI3383
aI1953
aI7
aI1937
aI7
aI279
aI22
aI16
asS'original'
p10
S'the greater the threat of mutual destruction  the safer the world would be'
p11
ss.