(dp1
S'input'
p2
(dp3
S'motion'
p4
(lp5
I1
aI2
aI3
aI5
aI76
aI77
aI78
aI79
aI80
aI25
aI81
assS'output'
p6
(dp7
S'encoded'
p8
(lp9
I2138
aI1653
aI80
aI866
aI25
aI2139
aI5
aI779
aI108
asS'original'
p10
S"America's] insatiable demand for illegal drugs fuels the drug trade"
p11
ss.