(dp1
S'input'
p2
(dp3
S'motion'
p4
(lp5
I1
aI2
aI20
aI35
aI54
aI55
aI56
assS'output'
p6
(dp7
S'encoded'
p8
(lp9
I476
aI461
aI13
aI14
aI700
aI1305
aI11
aI5
aI1893
aI510
aI1950
aI1921
aI5
aI1897
aI78
aI218
asS'original'
p10
S'any decision should be left up to the woman within whose body the fetus is growing'
p11
ss.