(dp1
S'input'
p2
(dp3
S'motion'
p4
(lp5
I3
aI4
aI5
aI6
aI150
aI151
aI152
aI7
aI96
aI153
assS'output'
p6
(dp7
S'encoded'
p8
(lp9
I287
aI606
aI2468
aI82
aI554
aI204
aI339
aI985
aI491
aI199
aI689
aI13
aI749
aI199
aI3090
aI333
aI838
aI53
aI7
aI3091
aI13
aI16
aI269
aI7
aI28
aI7
aI1488
asS'original'
p10
S'some people vote for those candidates or parties who are likely to succeed (or are proclaimed as such by the media)  hoping to be on the "winner\'s side" in the end'
p11
ss.