(dp1
S'input'
p2
(dp3
S'motion'
p4
(lp5
I1
aI2
aI3
aI4
aI195
aI196
aI197
aI5
aI198
aI199
aI200
aI7
aI201
aI202
aI80
aI203
assS'output'
p6
(dp7
S'encoded'
p8
(lp9
I5
aI195
aI119
aI171
aI3542
aI337
aI2379
aI97
aI11
aI1525
aI26
aI5
aI3543
aI151
asS'original'
p10
S'the open primary allows nonpartisan or independent voters to participate in the nominating process'
p11
ss.