(dp1
S'input'
p2
(dp3
S'motion'
p4
(lp5
I1
aI2
aI20
aI37
aI38
assS'output'
p6
(dp7
S'encoded'
p8
(lp9
I38
aI361
aI1480
aI87
aI1481
aI1482
aI896
aI11
aI1481
aI1482
aI1452
aI1483
aI513
aI367
aI14
aI1484
aI11
aI1485
asS'original'
p10
S'multiculturalism has shifted from tolerating multiple cultures to tolerating multiple value systems  which can be hostile to liberalism'
p11
ss.