(dp1
S'input'
p2
(dp3
S'motion'
p4
(lp5
I3
aI4
aI22
aI31
aI32
aI33
aI34
assS'output'
p6
(dp7
S'encoded'
p8
(lp9
I385
aI199
aI395
aI545
aI282
aI429
aI13
aI964
aI965
aI966
asS'original'
p10
S'There are many health related benefits to being physically active'
p11
ss.