(dp1
S'input'
p2
(dp3
S'motion'
p4
(lp5
I1
aI2
aI16
aI5
aI17
aI7
aI5
aI18
aI7
aI19
assS'output'
p6
(dp7
S'encoded'
p8
(lp9
I118
aI636
aI273
aI26
aI534
aI20
aI637
aI638
aI267
aI5
aI639
asS'original'
p10
S'a large increase in population would bring  "certain poverty on the citizenry'
p11
ss.