(dp1
S'input'
p2
(dp3
S'motion'
p4
(lp5
I1
aI2
aI3
aI135
aI261
aI262
aI263
assS'output'
p6
(dp7
S'encoded'
p8
(lp9
I1149
aI924
aI26
aI4090
aI429
aI789
aI112
aI1527
aI464
aI42
aI4127
aI112
aI1013
asS'original'
p10
S'individuals engage in deviant behaviors when their means do not match their goals'
p11
ss.