(dp1
S'input'
p2
(dp3
S'motion'
p4
(lp5
I1
aI2
aI20
aI35
aI46
aI193
aI194
assS'output'
p6
(dp7
S'encoded'
p8
(lp9
I5
aI3478
aI361
aI5
aI289
aI7
aI1233
aI118
aI3502
aI3503
aI2499
aI125
asS'original'
p10
S'The deforestation has the effect of reducing a gene pool amongst species'
p11
ss.