(dp1
S'input'
p2
(dp3
S'motion'
p4
(lp5
I1
aI2
aI3
aI4
aI5
aI40
aI11
aI41
aI13
aI42
aI14
aI43
assS'output'
p6
(dp7
S'encoded'
p8
(lp9
I1666
aI233
aI372
aI11
aI637
aI11
aI5
aI57
aI26
aI513
aI297
aI197
aI1667
aI26
aI1668
aI7
aI980
aI168
aI1669
asS'original'
p10
S'refugees have much to bring to the countries in which they are resettled in terms of culture and labor'
p11
ss.