(dp1
S'input'
p2
(dp3
S'motion'
p4
(lp5
I1
aI2
aI20
aI104
aI105
aI106
assS'output'
p6
(dp7
S'encoded'
p8
(lp9
I220
aI2493
aI2494
aI1081
aI2495
aI40
aI11
aI284
asS'original'
p10
S'It negates mans fundamental rightthe right to life'
p11
ss.