(dp1
S'input'
p2
(dp3
S'motion'
p4
(lp5
I1
aI2
aI3
aI91
aI78
aI5
aI92
aI93
assS'output'
p6
(dp7
S'encoded'
p8
(lp9
I2237
aI471
aI318
aI150
aI922
aI889
asS'original'
p10
S'religion does more harm than good'
p11
ss.