(dp1
S'input'
p2
(dp3
S'motion'
p4
(lp5
I3
aI4
aI22
aI75
aI76
aI77
assS'output'
p6
(dp7
S'encoded'
p8
(lp9
I2043
aI617
aI199
aI2044
aI2045
aI82
aI1235
aI640
aI170
aI1075
asS'original'
p10
S'CCT Programs are efficient tools for reducing poverty and inequality'
p11
ss.