(dp1
S'input'
p2
(dp3
S'motion'
p4
(lp5
I3
aI4
aI5
aI6
aI222
aI80
aI143
aI42
aI82
aI7
aI223
aI13
aI224
aI225
aI9
aI226
assS'output'
p6
(dp7
S'encoded'
p8
(lp9
I222
aI80
aI626
aI13
aI88
aI7
aI24
aI9
aI2676
aI602
aI170
aI3752
aI82
aI246
aI170
aI1693
aI3753
asS'original'
p10
S'it is necessary to prevent the use of information resources and technologies for criminal and terrorist purposes'
p11
ss.