(dp1
S'input'
p2
(dp3
S'motion'
p4
(lp5
I1
aI2
aI20
aI44
aI114
aI115
aI49
assS'output'
p6
(dp7
S'encoded'
p8
(lp9
I2703
aI608
aI2704
aI2529
aI743
aI1896
aI1922
aI1639
aI22
asS'original'
p10
S'copyright law protects corporate interests while criminalizing legitimate use'
p11
ss.