(dp1
S'input'
p2
(dp3
S'motion'
p4
(lp5
I3
aI4
aI5
aI6
aI189
aI190
aI191
aI80
aI192
aI13
aI193
aI194
assS'output'
p6
(dp7
S'encoded'
p8
(lp9
I791
aI2420
aI269
aI3456
aI170
aI319
aI222
aI608
aI7
aI580
aI51
asS'original'
p10
S"when performed on infants and children  it violates the individual's human rights"
p11
ss.