(dp1
S'input'
p2
(dp3
S'motion'
p4
(lp5
I3
aI4
aI5
aI93
aI80
aI7
aI94
aI95
assS'output'
p6
(dp7
S'encoded'
p8
(lp9
I885
aI1385
aI9
aI7
aI2271
aI170
aI9
aI628
aI935
aI199
aI7
aI2281
aI9
aI61
aI2282
aI403
asS'original'
p10
S'certain features of the universe and of living things are the product of an intelligent cause'
p11
ss.