(dp1
S'input'
p2
(dp3
S'motion'
p4
(lp5
I1
aI2
aI3
aI4
aI184
aI234
aI235
aI155
aI236
aI83
assS'output'
p6
(dp7
S'encoded'
p8
(lp9
I284
aI26
aI5
aI3821
aI446
aI3106
aI3886
aI522
aI1465
aI3887
asS'original'
p10
S'Life in the south under rocket barrages had become unbearable'
p11
ss.