(dp1
S'input'
p2
(dp3
S'motion'
p4
(lp5
I3
aI4
aI5
aI6
aI154
aI15
aI155
aI7
aI156
aI9
aI157
assS'output'
p6
(dp7
S'encoded'
p8
(lp9
I3215
aI1585
aI9
aI1656
aI199
aI3216
aI157
aI13
aI736
aI1688
aI170
aI3217
aI738
asS'original'
p10
S"inadequate amounts of goods are entering Gaza to meet Gaza's humanitarian and reconstruction needs"
p11
ss.