(dp1
S'input'
p2
(dp3
S'motion'
p4
(lp5
I3
aI4
aI22
aI106
aI107
aI108
assS'output'
p6
(dp7
S'encoded'
p8
(lp9
I1578
aI2509
aI2510
aI28
aI7
aI2511
aI80
aI2512
aI1383
aI89
aI704
aI2507
aI115
aI170
aI1383
aI89
aI1694
aI13
aI7
aI1658
aI515
aI168
aI7
aI186
asS'original'
p10
S'Every soldier conscripted in the army is taken away from his civilian work  and away from contributing to the economy which funds the military'
p11
ss.