(dp1
S'input'
p2
(dp3
S'motion'
p4
(lp5
I1
aI2
aI107
aI108
aI11
aI109
assS'output'
p6
(dp7
S'encoded'
p8
(lp9
I108
aI362
aI171
aI80
aI542
aI751
aI67
aI168
aI2640
aI305
aI232
aI2503
aI209
aI5
aI626
aI627
aI7
aI552
aI232
asS'original'
p10
S'Trade also allows for better quality produce and competitiveness between nations  effectively raising the living standards of those nations'
p11
ss.