(dp1
S'input'
p2
(dp3
S'motion'
p4
(lp5
I1
aI2
aI20
aI35
aI54
aI55
aI56
assS'output'
p6
(dp7
S'encoded'
p8
(lp9
I1915
aI1887
aI78
aI5
aI1907
aI168
aI1905
aI1909
aI7
aI5
aI1916
aI26
aI1917
aI7
aI129
aI40
aI11
aI284
asS'original'
p10
S'induced abortion is the deliberate and unjust killing of the embryo in violation of its right to life'
p11
ss.