(dp1
S'input'
p2
(dp3
S'motion'
p4
(lp5
I1
aI2
aI3
aI4
aI220
aI78
aI141
aI40
aI80
aI5
aI221
aI11
aI222
aI223
aI7
aI224
assS'output'
p6
(dp7
S'encoded'
p8
(lp9
I223
aI7
aI224
aI20
aI42
aI482
aI118
aI496
aI11
aI3745
aI5
aI3746
asS'original'
p10
S'freedom of speech would not allow a person to contempt the courts'
p11
ss.