(dp1
S'input'
p2
(dp3
S'motion'
p4
(lp5
I3
aI4
aI22
aI46
aI7
aI47
assS'output'
p6
(dp7
S'encoded'
p8
(lp9
I47
aI80
aI61
aI1089
aI82
aI310
aI136
aI107
aI1531
aI89
aI1516
asS'original'
p10
S'monarchy is an impetus for significantly greater national income from tourism'
p11
ss.