(dp1
S'input'
p2
(dp3
S'motion'
p4
(lp5
I1
aI2
aI3
aI4
aI148
aI149
aI150
aI5
aI94
aI151
assS'output'
p6
(dp7
S'encoded'
p8
(lp9
I331
aI3080
aI328
aI197
aI3092
aI3093
aI5
aI3094
aI289
aI891
aI339
aI11
aI3095
aI168
aI1465
aI118
aI1876
aI109
aI11
aI936
aI202
asS'original'
p10
S'as poll results are repeatedly reported  the bandwagon effect will tend to snowball and become a powerful aid to leading candidates'
p11
ss.