(dp1
S'input'
p2
(dp3
S'motion'
p4
(lp5
I3
aI4
aI5
aI6
aI96
aI97
aI15
aI98
aI99
aI13
aI100
aI101
aI102
aI103
aI7
aI104
aI105
assS'output'
p6
(dp7
S'encoded'
p8
(lp9
I2449
aI102
aI991
aI6
aI559
aI2453
aI7
aI2454
aI53
aI99
asS'original'
p10
S'voter identification laws that could suppress the turnout by voters'
p11
ss.