(dp1
S'input'
p2
(dp3
S'motion'
p4
(lp5
I1
aI2
aI3
aI4
aI124
aI125
aI13
aI14
aI126
assS'output'
p6
(dp7
S'encoded'
p8
(lp9
I1364
aI78
aI1839
aI1370
asS'original'
p10
S'biodiversity is inherently valuable'
p11
ss.