(dp1
S'input'
p2
(dp3
S'motion'
p4
(lp5
I1
aI2
aI3
aI4
aI5
aI213
aI7
aI184
aI214
aI51
aI215
aI216
aI217
aI83
assS'output'
p6
(dp7
S'encoded'
p8
(lp9
I5
aI1874
aI7
aI3639
aI78
aI11
aI460
aI2674
aI87
aI962
aI629
aI11
aI1197
aI337
aI3640
aI105
aI2173
asS'original'
p10
S'The purpose of classification is to protect information from being used to damage or endanger national security'
p11
ss.