(dp1
S'input'
p2
(dp3
S'motion'
p4
(lp5
I3
aI4
aI5
aI6
aI150
aI151
aI152
aI7
aI96
aI153
assS'output'
p6
(dp7
S'encoded'
p8
(lp9
I53
aI1388
aI2676
aI447
aI2464
aI3087
aI150
aI151
aI369
aI143
aI375
aI7
aI285
aI9
aI3088
asS'original'
p10
S'By providing information about voting intentions  opinion polls can sometimes influence the behavior of electors'
p11
ss.