(dp1
S'input'
p2
(dp3
S'motion'
p4
(lp5
I3
aI4
aI5
aI28
aI7
aI24
aI9
aI35
aI36
assS'output'
p6
(dp7
S'encoded'
p8
(lp9
I825
aI659
aI1178
aI61
aI1091
aI1163
aI82
aI1179
aI89
aI1180
aI1060
aI562
aI204
aI89
aI353
aI1060
asS'original'
p10
S'these policies demonstrate an overt preference for applicants from particular backgrounds over better-qualified (or equally-qualified) candidates from other backgrounds'
p11
ss.