(dp1
S'input'
p2
(dp3
S'motion'
p4
(lp5
I1
aI2
aI20
aI256
aI257
aI26
aI258
aI259
aI226
aI260
assS'output'
p6
(dp7
S'encoded'
p8
(lp9
I118
aI592
aI1202
aI367
aI632
aI1486
aI118
aI1059
aI101
aI118
aI105
aI4068
aI337
aI4074
aI285
aI351
aI1523
aI744
aI5
aI4075
aI278
aI446
aI5
aI527
aI902
asS'original'
p10
S"a single loss can potentially end a team's chance at a National Championship or propel some other team into the title game under the current system"
p11
ss.