(dp1
S'input'
p2
(dp3
S'motion'
p4
(lp5
I1
aI2
aI20
aI35
aI46
aI193
aI194
assS'output'
p6
(dp7
S'encoded'
p8
(lp9
I2172
aI2836
aI2767
aI197
aI656
aI51
aI3478
asS'original'
p10
S'global carbon emissions are caused by deforestation'
p11
ss.