(dp1
S'input'
p2
(dp3
S'motion'
p4
(lp5
I1
aI2
aI20
aI104
aI105
aI106
assS'output'
p6
(dp7
S'encoded'
p8
(lp9
I1556
aI168
aI2525
aI394
aI395
aI26
aI5
aI184
aI891
aI634
aI2526
aI996
aI2527
aI26
aI2505
aI284
asS'original'
p10
S'personal and technical skills learned in the military will improve later employment prospects in civilian life'
p11
ss.