(dp1
S'input'
p2
(dp3
S'motion'
p4
(lp5
I3
aI4
aI5
aI6
aI154
aI15
aI155
aI7
aI156
aI9
aI157
assS'output'
p6
(dp7
S'encoded'
p8
(lp9
I7
aI156
aI9
aI7
aI157
aI3110
aI353
aI2175
aI170
aI2199
aI235
aI864
aI447
aI120
aI3119
asS'original'
p10
S'the blockade of the Gaza Strip [among other security and deterrence measures]  have brought about a quiet'
p11
ss.