(dp1
S'input'
p2
(dp3
S'motion'
p4
(lp5
I3
aI4
aI5
aI6
aI7
aI42
aI13
aI43
aI15
aI44
aI16
aI45
assS'output'
p6
(dp7
S'encoded'
p8
(lp9
I1668
aI235
aI374
aI13
aI639
aI13
aI7
aI59
aI28
aI515
aI299
aI199
aI1669
aI28
aI1670
aI9
aI982
aI170
aI1671
asS'original'
p10
S'refugees have much to bring to the countries in which they are resettled in terms of culture and labor'
p11
ss.