(dp1
S'input'
p2
(dp3
S'motion'
p4
(lp5
I3
aI4
aI22
aI266
aI267
aI268
aI269
aI7
aI270
aI271
aI9
aI223
assS'output'
p6
(dp7
S'encoded'
p8
(lp9
I4133
aI7
aI1343
aI904
aI4134
aI4135
aI491
aI524
aI1467
aI4136
aI1809
aI170
aI4137
aI485
aI9
aI4138
aI60
aI114
aI4139
asS'original'
p10
S'Refresh the political system  removing legislators who had become career politicians and grown out of touch with their constituents'
p11
ss.