(dp1
S'input'
p2
(dp3
S'motion'
p4
(lp5
I1
aI2
aI20
aI73
aI74
aI75
assS'output'
p6
(dp7
S'encoded'
p8
(lp9
I297
aI367
aI541
aI2038
aI58
aI118
aI2056
aI11
aI2057
aI600
aI318
aI2058
asS'original'
p10
S'they can provide households with a cushion to invest resources more efficiently'
p11
ss.