(dp1
S'input'
p2
(dp3
S'motion'
p4
(lp5
I3
aI4
aI22
aI71
aI72
aI73
aI74
assS'output'
p6
(dp7
S'encoded'
p8
(lp9
I319
aI743
aI7
aI1991
aI1992
aI13
aI1993
aI170
aI364
aI13
aI744
aI120
aI1994
aI89
aI353
aI489
aI1995
aI311
aI60
aI212
asS'original'
p10
S'children need the 23 months off to relax and also to take a break from other childhood stresses associated with school'
p11
ss.