(dp1
S'input'
p2
(dp3
S'motion'
p4
(lp5
I1
aI2
aI20
aI144
aI5
aI145
aI146
aI147
assS'output'
p6
(dp7
S'encoded'
p8
(lp9
I3072
aI361
aI363
aI392
aI611
aI51
aI5
aI3057
aI3064
asS'original'
p10
S'wildlife has been negatively affected by the oil sands'
p11
ss.