(dp1
S'input'
p2
(dp3
S'motion'
p4
(lp5
I3
aI4
aI5
aI6
aI7
aI206
aI158
aI80
aI85
aI28
aI207
aI7
aI24
aI9
aI208
aI209
aI9
aI210
assS'output'
p6
(dp7
S'encoded'
p8
(lp9
I3555
aI199
aI144
aI333
aI120
aI1529
aI9
aI2224
aI2550
asS'original'
p10
S'condoms are acceptable as a means of preventing AIDS'
p11
ss.