(dp1
S'input'
p2
(dp3
S'motion'
p4
(lp5
I1
aI2
aI20
aI35
aI46
aI193
aI194
assS'output'
p6
(dp7
S'encoded'
p8
(lp9
I3478
aI1238
aI1560
aI438
aI7
aI3475
aI3476
asS'original'
p10
S'Deforestation generally increases rates of soil erosion'
p11
ss.