(dp1
S'input'
p2
(dp3
S'motion'
p4
(lp5
I1
aI2
aI20
aI21
aI5
aI22
aI7
aI23
aI24
aI25
aI26
aI27
aI28
assS'output'
p6
(dp7
S'encoded'
p8
(lp9
I58
aI798
aI826
aI46
aI827
aI790
aI20
aI14
aI828
aI11
aI22
aI25
aI168
aI5
aI829
aI289
aI20
aI14
aI118
aI259
aI336
aI830
aI432
aI58
aI831
aI543
aI517
asS'original'
p10
S'with doping legal  all competitive athletes would be compelled to use drugs  and the net effect would be a level playing field but with widespread health consequences'
p11
ss.