(dp1
S'input'
p2
(dp3
S'motion'
p4
(lp5
I3
aI4
aI5
aI6
aI7
aI158
aI9
aI159
aI15
aI16
aI160
aI89
aI7
aI161
aI162
assS'output'
p6
(dp7
S'encoded'
p8
(lp9
I223
aI3236
aI2264
aI28
aI7
aI3237
aI9
aI380
aI3238
asS'original'
p10
S'government lacked authority in the realm of individual conscience'
p11
ss.