(dp1
S'input'
p2
(dp3
S'motion'
p4
(lp5
I1
aI2
aI3
aI4
aI5
aI156
aI7
aI157
aI13
aI14
aI158
aI87
aI5
aI159
aI160
assS'output'
p6
(dp7
S'encoded'
p8
(lp9
I399
aI1373
aI305
aI2237
aI168
aI1040
aI221
aI78
aI1281
aI11
aI5
aI3228
aI7
aI291
asS'original'
p10
S'practical distinction between Religion and Civil Government is essential to the purity of both'
p11
ss.