(dp1
S'input'
p2
(dp3
S'motion'
p4
(lp5
I3
aI4
aI22
aI23
aI7
aI24
aI9
aI25
aI26
aI27
aI28
aI29
aI30
assS'output'
p6
(dp7
S'encoded'
p8
(lp9
I60
aI304
aI823
aI824
aI13
aI138
aI825
aI52
aI545
aI490
aI222
aI80
aI103
aI826
aI827
asS'original'
p10
S'with no medical data to support these claimed health problems  it is  at best  questionable'
p11
ss.