(dp1
S'input'
p2
(dp3
S'motion'
p4
(lp5
I1
aI2
aI20
aI144
aI237
aI238
aI80
aI239
assS'output'
p6
(dp7
S'encoded'
p8
(lp9
I846
aI3892
aI80
aI263
aI168
aI638
asS'original'
p10
S'became notorious for crime and poverty'
p11
ss.