(dp1
S'input'
p2
(dp3
S'motion'
p4
(lp5
I1
aI2
aI20
aI92
aI179
aI180
aI80
aI181
aI31
aI26
aI182
assS'output'
p6
(dp7
S'encoded'
p8
(lp9
I615
aI3116
aI382
aI7
aI1409
aI2674
aI445
aI739
asS'original'
p10
S'abstinence-only programs deprive teenagers of critical information about sexuality'
p11
ss.