(dp1
S'input'
p2
(dp3
S'motion'
p4
(lp5
I1
aI2
aI3
aI4
aI148
aI149
aI150
aI5
aI94
aI151
assS'output'
p6
(dp7
S'encoded'
p8
(lp9
I5
aI3076
aI286
aI22
aI5
aI3080
aI11
aI456
aI1948
aI337
aI42
aI297
aI13
aI423
aI1568
aI80
aI1777
asS'original'
p10
S'the candidate may use the poll to decide whether or not they should even run for office'
p11
ss.