(dp1
S'input'
p2
(dp3
S'motion'
p4
(lp5
I3
aI4
aI22
aI94
aI181
aI182
aI82
aI183
aI33
aI28
aI184
assS'output'
p6
(dp7
S'encoded'
p8
(lp9
I617
aI3333
aI7
aI3334
aI9
aI183
asS'original'
p10
S'abstinence-only programs delayed the initiation of sex'
p11
ss.