(dp1
S'input'
p2
(dp3
S'motion'
p4
(lp5
I1
aI2
aI20
aI37
aI38
assS'output'
p6
(dp7
S'encoded'
p8
(lp9
I5
aI134
aI852
aI889
aI1403
aI1404
aI552
aI1358
aI1405
aI4
aI374
aI1406
aI337
aI86
aI1407
asS'original'
p10
S'The greater public good warrants eliminating those cultural characteristics that promote conflict or prevent harmony'
p11
ss.