(dp1
S'input'
p2
(dp3
S'motion'
p4
(lp5
I1
aI2
aI3
aI91
aI78
aI5
aI92
aI93
assS'output'
p6
(dp7
S'encoded'
p8
(lp9
I2412
aI7
aI5
aI2266
aI80
aI2248
aI197
aI2413
asS'original'
p10
S"none of the arguments for God's existence are compelling"
p11
ss.