(dp1
S'input'
p2
(dp3
S'motion'
p4
(lp5
I1
aI2
aI20
aI73
aI74
aI75
assS'output'
p6
(dp7
S'encoded'
p8
(lp9
I165
aI109
aI78
aI1280
aI11
aI14
aI1811
aI5
aI743
aI7
aI5
aI2069
aI318
aI922
aI5
aI2070
asS'original'
p10
S'foreign aid is seen to be serving the interests of the donor more than the recipient'
p11
ss.