(dp1
S'input'
p2
(dp3
S'motion'
p4
(lp5
I3
aI4
aI5
aI6
aI7
aI8
aI9
aI10
aI11
aI12
aI13
aI14
aI15
aI16
aI17
assS'output'
p6
(dp7
S'encoded'
p8
(lp9
I502
aI503
aI235
aI504
aI505
aI411
aI359
aI9
aI11
aI12
asS'original'
p10
S'numerous researchers have proposed potential positive effects of video games'
p11
ss.