(dp1
S'input'
p2
(dp3
S'motion'
p4
(lp5
I3
aI4
aI5
aI6
aI7
aI206
aI158
aI80
aI85
aI28
aI207
aI7
aI24
aI9
aI208
aI209
aI9
aI210
assS'output'
p6
(dp7
S'encoded'
p8
(lp9
I210
aI219
aI1324
aI1226
aI2407
asS'original'
p10
S'contraception was always seriously evil'
p11
ss.