(dp1
S'input'
p2
(dp3
S'motion'
p4
(lp5
I1
aI2
aI20
aI35
aI46
aI193
aI194
assS'output'
p6
(dp7
S'encoded'
p8
(lp9
I5
aI3430
aI7
aI5
aI3487
aI51
aI2708
aI3412
aI5
aI135
aI168
aI528
aI635
aI7
aI5
aI1394
aI604
aI489
aI2868
aI26
aI5
aI3483
asS'original'
p10
S'The removal of the forest by developers affects the social and economic lives of the indigenous people who live in the forests'
p11
ss.