(dp1
S'input'
p2
(dp3
S'motion'
p4
(lp5
I1
aI2
aI3
aI4
aI5
aI40
aI11
aI41
aI13
aI42
aI14
aI43
assS'output'
p6
(dp7
S'encoded'
p8
(lp9
I1439
aI168
aI1708
aI235
aI1309
aI891
aI42
aI1709
aI5
aI488
aI656
aI51
aI5
aI528
aI1710
asS'original'
p10
S'repression and intolerance against immigrants will not solve the problems caused by the economic crisis'
p11
ss.