(dp1
S'input'
p2
(dp3
S'motion'
p4
(lp5
I1
aI2
aI107
aI108
aI11
aI109
assS'output'
p6
(dp7
S'encoded'
p8
(lp9
I877
aI108
aI78
aI1238
aI757
aI11
aI630
aI59
aI1056
aI273
aI26
aI419
aI26
aI118
aI713
asS'original'
p10
S'Free trade is generally considered to achieve an overall increase in utility in a society'
p11
ss.