(dp1
S'input'
p2
(dp3
S'motion'
p4
(lp5
I1
aI2
aI3
aI4
aI124
aI125
aI13
aI14
aI126
assS'output'
p6
(dp7
S'encoded'
p8
(lp9
I125
aI2877
aI168
aI842
aI1364
aI714
aI11
aI168
aI2889
aI2861
aI1810
asS'original'
p10
S'Species richness and genetic biodiversity contributes to and engenders ecosystem stability'
p11
ss.