(dp1
S'input'
p2
(dp3
S'motion'
p4
(lp5
I1
aI2
aI20
aI35
aI46
aI193
aI194
assS'output'
p6
(dp7
S'encoded'
p8
(lp9
I3483
aI197
aI59
aI906
aI347
aI7
aI5
aI2172
aI2836
aI2553
asS'original'
p10
S'Forests are an important part of the global carbon cycle'
p11
ss.