(dp1
S'input'
p2
(dp3
S'motion'
p4
(lp5
I3
aI4
aI22
aI146
aI239
aI240
aI82
aI241
assS'output'
p6
(dp7
S'encoded'
p8
(lp9
I299
aI364
aI2829
aI283
aI2779
aI13
aI3905
aI1034
aI3906
asS'original'
p10
S'They also pose serious challenges to firefighters during emergencies'
p11
ss.