(dp1
S'input'
p2
(dp3
S'motion'
p4
(lp5
I1
aI2
aI20
aI144
aI5
aI145
aI146
aI147
assS'output'
p6
(dp7
S'encoded'
p8
(lp9
I1064
aI3062
aI7
aI5
aI145
aI146
aI2958
aI3057
aI3060
aI11
aI5
aI2124
aI4157
aI286
aI1568
aI1565
asS'original'
p10
S'After completion of the Keystone XL line  oil pipelines to the U .S . may run nearly half-empty'
p11
ss.