(dp1
S'input'
p2
(dp3
S'motion'
p4
(lp5
I3
aI4
aI22
aI31
aI32
aI33
aI34
assS'output'
p6
(dp7
S'encoded'
p8
(lp9
I899
aI170
aI900
aI32
aI901
aI902
aI7
aI903
aI904
asS'original'
p10
S'Frequent and regular physical exercise boosts the immune system'
p11
ss.