(dp1
S'input'
p2
(dp3
S'motion'
p4
(lp5
I3
aI4
aI22
aI75
aI76
aI77
assS'output'
p6
(dp7
S'encoded'
p8
(lp9
I530
aI983
aI80
aI626
aI82
aI1343
aI225
asS'original'
p10
S'economic equality is necessary for political freedom'
p11
ss.