(dp1
S'input'
p2
(dp3
S'motion'
p4
(lp5
I3
aI4
aI5
aI6
aI7
aI8
aI9
aI10
aI11
aI12
aI13
aI14
aI15
aI16
aI17
assS'output'
p6
(dp7
S'encoded'
p8
(lp9
I11
aI280
aI348
aI80
aI349
aI9
aI61
aI350
aI351
aI137
aI352
asS'original'
p10
S"video game play is part of an adolescent boy's normal social setting"
p11
ss.