(dp1
S'input'
p2
(dp3
S'motion'
p4
(lp5
I1
aI2
aI20
aI44
aI46
aI47
aI48
aI49
aI50
aI51
aI52
aI53
assS'output'
p6
(dp7
S'encoded'
p8
(lp9
I53
aI374
aI1866
aI1202
asS'original'
p10
S'unions promote deadweight loss'
p11
ss.