(dp1
S'input'
p2
(dp3
S'motion'
p4
(lp5
I3
aI4
aI22
aI185
aI78
aI79
aI186
aI187
aI89
aI188
assS'output'
p6
(dp7
S'encoded'
p8
(lp9
I7
aI186
aI187
aI3226
aI7
aI637
aI9
aI7
aI3403
aI606
asS'original'
p10
S'the military bases disrupt the lives of the Okinawan people'
p11
ss.