(dp1
S'input'
p2
(dp3
S'motion'
p4
(lp5
I3
aI4
aI5
aI6
aI126
aI127
aI15
aI16
aI128
assS'output'
p6
(dp7
S'encoded'
p8
(lp9
I1366
aI363
aI2654
aI2861
aI170
aI2862
aI1454
aI13
aI2248
asS'original'
p10
S'biodiversity has intrinsic aesthetic and spiritual value to mankind'
p11
ss.