(dp1
S'input'
p2
(dp3
S'motion'
p4
(lp5
I1
aI2
aI20
aI144
aI237
aI238
aI80
aI239
assS'output'
p6
(dp7
S'encoded'
p8
(lp9
I3913
aI3905
aI286
aI14
aI1839
aI318
aI3267
aI11
aI3629
aI87
aI118
aI3850
asS'original'
p10
S'Tower blocks may be inherently more prone to casualties from a fire'
p11
ss.