(dp1
S'input'
p2
(dp3
S'motion'
p4
(lp5
I1
aI2
aI3
aI4
aI184
aI234
aI235
aI155
aI236
aI83
assS'output'
p6
(dp7
S'encoded'
p8
(lp9
I5
aI2209
aI7
aI2068
aI26
aI5
aI155
aI3108
aI4157
aI4157
aI361
aI363
aI3870
aI51
aI3106
aI3107
aI3155
aI51
aI3114
aI235
aI1901
aI3109
aI3182
asS'original'
p10
S'The escalation of tensions in the Gaza Strip [ . . .] has been triggered by rocket attacks launched by Hamas against innocent Israeli civilians'
p11
ss.