(dp1
S'input'
p2
(dp3
S'motion'
p4
(lp5
I3
aI4
aI5
aI6
aI197
aI198
aI199
aI7
aI200
aI201
aI202
aI9
aI203
aI204
aI82
aI205
assS'output'
p6
(dp7
S'encoded'
p8
(lp9
I99
aI9
aI678
aI3214
aI143
aI2468
aI28
aI7
aI353
aI121
aI13
aI3539
aI120
aI3078
aI491
aI893
aI16
aI3540
aI82
aI114
aI3541
aI13
aI3542
asS'original'
p10
S"voters of one party sometimes vote in the other party's primary to nominate a candidate who will be easy for their favorite to beat"
p11
ss.