(dp1
S'input'
p2
(dp3
S'motion'
p4
(lp5
I1
aI2
aI3
aI135
aI261
aI262
aI263
assS'output'
p6
(dp7
S'encoded'
p8
(lp9
I599
aI7
aI1319
aI305
aI406
aI5
aI980
aI3168
aI80
aI168
aI406
aI5
aI709
aI1863
aI4
aI262
aI4090
aI380
asS'original'
p10
S'lack of integration between what the culture calls for and what the structure permits that causes deviant behaviour'
p11
ss.