(dp1
S'input'
p2
(dp3
S'motion'
p4
(lp5
I1
aI2
aI3
aI91
aI78
aI5
aI92
aI93
assS'output'
p6
(dp7
S'encoded'
p8
(lp9
I578
aI591
aI78
aI2414
aI7
aI1386
aI2415
aI1445
aI1104
aI11
aI719
aI5
aI1545
aI4
aI2416
aI1510
aI464
aI337
aI464
aI42
aI2271
asS'original'
p10
S'human reason is incapable of providing sufficient rational grounds to justify the belief that deities either do or do not exist'
p11
ss.