(dp1
S'input'
p2
(dp3
S'motion'
p4
(lp5
I1
aI2
aI3
aI4
aI140
aI78
aI141
aI142
assS'output'
p6
(dp7
S'encoded'
p8
(lp9
I1342
aI2993
aI118
aI281
aI571
aI2994
asS'original'
p10
S'Corruption poses a serious development challenge'
p11
ss.