(dp1
S'input'
p2
(dp3
S'motion'
p4
(lp5
I1
aI2
aI3
aI4
aI5
aI40
aI11
aI41
aI13
aI42
aI14
aI43
assS'output'
p6
(dp7
S'encoded'
p8
(lp9
I1730
aI227
aI513
aI20
aI233
aI1731
aI363
aI847
aI11
aI1732
aI133
aI1733
aI1734
asS'original'
p10
S'Acquire jobs which would have otherwise been available to native citizens  suppressing wages'
p11
ss.