(dp1
S'input'
p2
(dp3
S'motion'
p4
(lp5
I3
aI4
aI5
aI6
aI222
aI80
aI143
aI42
aI82
aI7
aI223
aI13
aI224
aI225
aI9
aI226
assS'output'
p6
(dp7
S'encoded'
p8
(lp9
I1251
aI170
aI100
aI788
aI3740
aI53
aI3741
aI226
aI170
aI7
aI531
aI9
asS'original'
p10
S'clear and present danger posed by discriminatory speech and the growth of e-hate'
p11
ss.