(dp1
S'input'
p2
(dp3
S'motion'
p4
(lp5
I1
aI2
aI3
aI26
aI5
aI22
aI7
aI33
aI34
assS'output'
p6
(dp7
S'encoded'
p8
(lp9
I33
aI34
aI78
aI968
aI11
aI374
aI969
aI970
asS'original'
p10
S'Affirmative action is intended to promote  equal opportunity'
p11
ss.