(dp1
S'input'
p2
(dp3
S'motion'
p4
(lp5
I3
aI4
aI5
aI6
aI154
aI15
aI155
aI7
aI156
aI9
aI157
assS'output'
p6
(dp7
S'encoded'
p8
(lp9
I156
aI9
aI7
aI157
aI3110
aI333
aI3218
aI170
aI3150
aI28
aI7
aI2374
asS'original'
p10
S'Israel\'s blockade of the Gaza Strip as "totally intolerable and unacceptable in the 21st century'
p11
ss.