(dp1
S'input'
p2
(dp3
S'motion'
p4
(lp5
I3
aI4
aI22
aI23
aI7
aI24
aI9
aI25
aI26
aI27
aI28
aI29
aI30
assS'output'
p6
(dp7
S'encoded'
p8
(lp9
I385
aI80
aI120
aI870
aI871
aI9
aI545
aI517
aI82
aI872
asS'original'
p10
S'There is a wide range of health concerns for users'
p11
ss.