(dp1
S'input'
p2
(dp3
S'motion'
p4
(lp5
I1
aI2
aI20
aI240
aI241
assS'output'
p6
(dp7
S'encoded'
p8
(lp9
I223
aI7
aI418
aI471
aI42
aI769
aI3972
aI5
aI3973
aI11
aI3964
aI2237
aI337
aI1048
asS'original'
p10
S"Freedom of expression does not give anyone the licence to insult another's religion or race"
p11
ss.