(dp1
S'input'
p2
(dp3
S'motion'
p4
(lp5
I3
aI4
aI22
aI37
aI56
aI57
aI58
assS'output'
p6
(dp7
S'encoded'
p8
(lp9
I1898
aI7
aI162
aI363
aI61
aI855
aI28
aI1896
aI7
aI1899
aI287
aI3
aI855
aI402
aI1900
aI6
aI9
aI7
aI1901
aI1895
asS'original'
p10
S'while the state has an interest in protecting the fetus "at some point"  this interest cannot override that of the pregnant woman'
p11
ss.