(dp1
S'input'
p2
(dp3
S'motion'
p4
(lp5
I3
aI4
aI22
aI46
aI48
aI49
aI50
aI51
aI52
aI53
aI54
aI55
assS'output'
p6
(dp7
S'encoded'
p8
(lp9
I55
aI288
aI1690
aI7
aI401
aI1876
aI9
aI1877
aI7
aI307
aI1863
aI170
aI1878
aI1879
asS'original'
p10
S'Unions may serve the practical purpose of leveling the playing-field between workers and powerful oligopolies'
p11
ss.