(dp1
S'input'
p2
(dp3
S'motion'
p4
(lp5
I3
aI4
aI18
aI211
aI7
aI212
aI213
aI214
aI13
assS'output'
p6
(dp7
S'encoded'
p8
(lp9
I3426
aI15
aI235
aI7
aI42
aI13
aI541
aI170
aI248
aI114
aI583
aI1421
asS'original'
p10
S'youths should have the right to control and direct their own learning'
p11
ss.