(dp1
S'input'
p2
(dp3
S'motion'
p4
(lp5
I1
aI2
aI3
aI4
aI140
aI78
aI141
aI142
assS'output'
p6
(dp7
S'encoded'
p8
(lp9
I2992
aI362
aI469
aI11
aI118
aI3007
aI7
aI600
asS'original'
p10
S'Bribes also lead to a misdirection of resources'
p11
ss.