(dp1
S'input'
p2
(dp3
S'motion'
p4
(lp5
I1
aI2
aI20
aI264
aI265
aI266
aI267
aI5
aI268
aI269
aI7
aI221
assS'output'
p6
(dp7
S'encoded'
p8
(lp9
I4138
aI233
aI369
aI524
aI59
aI2464
aI772
asS'original'
p10
S'Incumbents have too great an electoral advantage'
p11
ss.