(dp1
S'input'
p2
(dp3
S'motion'
p4
(lp5
I3
aI4
aI5
aI28
aI7
aI24
aI9
aI35
aI36
assS'output'
p6
(dp7
S'encoded'
p8
(lp9
I28
aI287
aI59
aI515
aI235
aI991
aI269
aI992
aI983
aI35
aI36
aI80
aI993
aI868
aI404
aI222
aI473
aI44
aI914
aI48
aI994
aI918
asS'original'
p10
S'In some countries which have laws on racial equality  affirmative action is rendered illegal because it does not treat all races equally'
p11
ss.