(dp1
S'input'
p2
(dp3
S'motion'
p4
(lp5
I1
aI2
aI3
aI4
aI94
aI95
aI13
aI96
aI97
aI11
aI98
aI99
aI100
aI101
aI5
aI102
aI103
assS'output'
p6
(dp7
S'encoded'
p8
(lp9
I220
aI5
aI503
aI11
aI2465
aI1603
aI7
aI1683
aI226
aI97
aI168
aI533
aI2451
aI5
aI40
aI11
aI2466
asS'original'
p10
S'it "has the potential to block millions of eligible American voters  and thus suppress the right to vote'
p11
ss.