(dp1
S'input'
p2
(dp3
S'motion'
p4
(lp5
I1
aI2
aI3
aI91
aI78
aI5
aI92
aI93
assS'output'
p6
(dp7
S'encoded'
p8
(lp9
I59
aI2311
aI2235
aI400
aI14
aI5
aI1830
aI7
aI59
aI2118
aI2312
aI277
asS'original'
p10
S'an unchanging God cannot be the source of an ever changing world'
p11
ss.