(dp1
S'input'
p2
(dp3
S'motion'
p4
(lp5
I3
aI4
aI22
aI139
aI7
aI42
aI13
aI140
aI141
assS'output'
p6
(dp7
S'encoded'
p8
(lp9
I61
aI2523
aI2954
aI369
aI388
aI2206
aI265
aI170
aI2955
asS'original'
p10
S"an armed citizens' militia can help deter crime and tyranny"
p11
ss.