(dp1
S'input'
p2
(dp3
S'motion'
p4
(lp5
I3
aI4
aI5
aI6
aI150
aI151
aI152
aI7
aI96
aI153
assS'output'
p6
(dp7
S'encoded'
p8
(lp9
I333
aI3082
aI330
aI199
aI3094
aI3095
aI7
aI3096
aI291
aI893
aI341
aI13
aI3097
aI170
aI1467
aI120
aI1878
aI111
aI13
aI938
aI204
asS'original'
p10
S'as poll results are repeatedly reported  the bandwagon effect will tend to snowball and become a powerful aid to leading candidates'
p11
ss.