(dp1
S'input'
p2
(dp3
S'motion'
p4
(lp5
I3
aI4
aI22
aI146
aI7
aI147
aI148
aI149
assS'output'
p6
(dp7
S'encoded'
p8
(lp9
I3059
aI3066
aI1526
aI363
aI365
aI2276
aI333
aI7
aI3072
aI3073
aI13
aI2767
aI2768
aI2769
aI531
aI28
aI3063
asS'original'
p10
S'oil sands industry has been identified as the largest contributor to greenhouse gas emissions growth in Canada'
p11
ss.