(dp1
S'input'
p2
(dp3
S'motion'
p4
(lp5
I1
aI2
aI3
aI4
aI140
aI78
aI141
aI142
assS'output'
p6
(dp7
S'encoded'
p8
(lp9
I286
aI1125
aI58
aI889
aI221
asS'original'
p10
S'may interfere with good government'
p11
ss.