(dp1
S'input'
p2
(dp3
S'motion'
p4
(lp5
I3
aI4
aI22
aI146
aI7
aI147
aI148
aI149
assS'output'
p6
(dp7
S'encoded'
p8
(lp9
I222
aI22
aI484
aI7
aI2126
aI4159
aI13
aI275
aI131
aI124
aI2175
aI170
aI642
aI131
aI2064
aI269
aI167
aI3059
asS'original'
p10
S'it would allow the U .S . to increase its energy security and reduce its dependence on foreign oil'
p11
ss.