(dp1
S'input'
p2
(dp3
S'motion'
p4
(lp5
I1
aI2
aI20
aI35
aI39
assS'output'
p6
(dp7
S'encoded'
p8
(lp9
I1537
aI39
aI78
aI59
aI442
aI1541
aI11
aI1542
aI442
asS'original'
p10
S'pathological gambling is an addiction similar to chemical addiction'
p11
ss.