(dp1
S'input'
p2
(dp3
S'motion'
p4
(lp5
I3
aI4
aI22
aI39
aI40
assS'output'
p6
(dp7
S'encoded'
p8
(lp9
I40
aI363
aI1342
aI28
aI1343
aI1344
asS'original'
p10
S'multiculturalism has resulted in political corruption'
p11
ss.