(dp1
S'input'
p2
(dp3
S'motion'
p4
(lp5
I1
aI2
aI20
aI35
aI39
assS'output'
p6
(dp7
S'encoded'
p8
(lp9
I5
aI135
aI168
aI528
aI517
aI7
aI1571
aI39
aI1572
aI5
aI1573
aI1515
aI4
aI286
aI14
aI1574
asS'original'
p10
S'the social and economic consequences of casino gambling outweigh the initial revenue that may be generated'
p11
ss.