(dp1
S'input'
p2
(dp3
S'motion'
p4
(lp5
I1
aI2
aI20
aI35
aI46
aI193
aI194
assS'output'
p6
(dp7
S'encoded'
p8
(lp9
I3524
aI168
aI1806
aI7
aI1726
aI600
aI78
aI59
aI2118
aI98
aI755
aI80
aI125
aI2877
asS'original'
p10
S'overexploitation and misuse of natural resources is an ever present threat for species richness'
p11
ss.