(dp1
S'input'
p2
(dp3
S'motion'
p4
(lp5
I1
aI2
aI3
aI4
aI116
aI117
aI13
aI14
aI118
aI119
aI120
aI7
aI121
aI122
aI123
assS'output'
p6
(dp7
S'encoded'
p8
(lp9
I2846
aI116
aI122
aI744
aI5
aI419
aI2847
aI367
aI14
aI2589
asS'original'
p10
S'integrating wind energy into the utility grid can be problematic'
p11
ss.