(dp1
S'input'
p2
(dp3
S'motion'
p4
(lp5
I3
aI4
aI22
aI46
aI116
aI117
aI51
assS'output'
p6
(dp7
S'encoded'
p8
(lp9
I2705
aI610
aI333
aI2224
aI339
aI2718
aI580
aI1499
asS'original'
p10
S'copyright law as preventing or slowing human progress'
p11
ss.