(dp1
S'input'
p2
(dp3
S'motion'
p4
(lp5
I1
aI2
aI3
aI4
aI116
aI117
aI13
aI14
aI118
aI119
aI120
aI7
aI121
aI122
aI123
assS'output'
p6
(dp7
S'encoded'
p8
(lp9
I116
aI122
aI78
aI118
aI2833
aI122
aI1830
asS'original'
p10
S'Wind energy is a clean energy source'
p11
ss.