(dp1
S'input'
p2
(dp3
S'motion'
p4
(lp5
I1
aI2
aI20
aI44
aI114
aI115
aI49
assS'output'
p6
(dp7
S'encoded'
p8
(lp9
I801
aI13
aI14
aI26
aI2715
asS'original'
p10
S'knowledge should be "shared in solidarity'
p11
ss.