(dp1
S'input'
p2
(dp3
S'motion'
p4
(lp5
I3
aI4
aI5
aI93
aI80
aI7
aI94
aI95
assS'output'
p6
(dp7
S'encoded'
p8
(lp9
I2338
aI1547
aI6
aI80
aI44
aI1006
aI269
aI344
aI80
aI678
aI9
aI7
aI526
aI2380
asS'original'
p10
S"faith  belief that is not based on evidence  is one of the world's great evils"
p11
ss.