(dp1
S'input'
p2
(dp3
S'motion'
p4
(lp5
I3
aI4
aI5
aI93
aI80
aI7
aI94
aI95
assS'output'
p6
(dp7
S'encoded'
p8
(lp9
I2442
aI199
aI1439
aI13
aI1610
aI2443
aI82
aI1088
aI1898
aI2235
aI199
aI44
asS'original'
p10
S'theists are able to offer justification for morality  while atheists are not'
p11
ss.