(dp1
S'input'
p2
(dp3
S'motion'
p4
(lp5
I3
aI4
aI5
aI6
aI129
aI15
aI130
aI131
aI132
aI133
aI13
aI134
aI131
aI135
aI136
aI137
aI138
assS'output'
p6
(dp7
S'encoded'
p8
(lp9
I137
aI2932
aI559
aI235
aI120
aI310
aI518
aI1136
aI269
aI2085
aI170
aI531
aI28
aI7
aI1162
aI267
asS'original'
p10
S'social disruption could have a significantly negative impact on investment and growth in the longer term'
p11
ss.