(dp1
S'input'
p2
(dp3
S'motion'
p4
(lp5
I1
aI2
aI20
aI44
aI5
aI45
assS'output'
p6
(dp7
S'encoded'
p8
(lp9
I5
aI1748
aI1749
aI331
aI118
aI1750
aI1751
aI1752
aI7
aI105
aI1354
aI168
aI160
aI1753
asS'original'
p10
S'The monarch serves as a ceremonial figurehead symbol of national unity and state continuity'
p11
ss.