(dp1
S'input'
p2
(dp3
S'motion'
p4
(lp5
I1
aI2
aI3
aI4
aI124
aI125
aI13
aI14
aI126
assS'output'
p6
(dp7
S'encoded'
p8
(lp9
I578
aI528
aI1648
aI78
aI2735
aI2892
aI267
aI2890
asS'original'
p10
S"human economic productivity is largely reliant on Earth's ecosystems"
p11
ss.