(dp1
S'input'
p2
(dp3
S'motion'
p4
(lp5
I3
aI4
aI22
aI227
aI7
aI228
aI229
aI230
assS'output'
p6
(dp7
S'encoded'
p8
(lp9
I222
aI2644
aI320
aI1566
aI2020
aI535
aI1694
aI320
aI13
aI7
aI3758
aI2925
asS'original'
p10
S'it gives more tax breaks  thus contributing more to the federal deficit'
p11
ss.