(dp1
S'input'
p2
(dp3
S'motion'
p4
(lp5
I3
aI4
aI22
aI37
aI41
assS'output'
p6
(dp7
S'encoded'
p8
(lp9
I1584
aI7
aI638
aI1585
aI9
aI1586
aI1587
aI512
aI120
aI1573
aI293
aI1588
aI170
aI1589
aI288
aI16
aI1590
aI13
aI1591
aI170
aI1592
asS'original'
p10
S'Given the large amounts of currency handled within a casino  both patrons and staff may be tempted to cheat and steal'
p11
ss.