(dp1
S'input'
p2
(dp3
S'motion'
p4
(lp5
I3
aI4
aI5
aI6
aI112
aI15
aI16
aI113
aI82
aI114
aI115
assS'output'
p6
(dp7
S'encoded'
p8
(lp9
I596
aI115
aI333
aI2657
aI13
aI530
aI573
aI170
aI580
asS'original'
p10
S'care work as central to economic development and human well-being'
p11
ss.