(dp1
S'input'
p2
(dp3
S'motion'
p4
(lp5
I1
aI2
aI3
aI5
aI76
aI77
aI78
aI79
aI80
aI25
aI81
assS'output'
p6
(dp7
S'encoded'
p8
(lp9
I118
aI698
aI669
aI7
aI2122
aI4
aI29
aI112
aI93
aI11
aI2123
aI537
aI87
aI2124
aI4157
aI2125
asS'original'
p10
S'A significant number of firearms that make their way to Mexico come from U .S . gunshops'
p11
ss.