(dp1
S'input'
p2
(dp3
S'motion'
p4
(lp5
I1
aI2
aI20
aI264
aI265
aI266
aI267
aI5
aI268
aI269
aI7
aI221
assS'output'
p6
(dp7
S'encoded'
p8
(lp9
I265
aI266
aI197
aI118
aI93
aI11
aI1291
aI1596
aI539
aI560
aI221
asS'original'
p10
S'term limits are a way to restore popular control over government'
p11
ss.