(dp1
S'input'
p2
(dp3
S'motion'
p4
(lp5
I1
aI2
aI3
aI91
aI78
aI5
aI92
aI93
assS'output'
p6
(dp7
S'encoded'
p8
(lp9
I2429
aI1506
aI2430
aI168
aI5
aI2431
aI863
aI7
aI2428
aI2432
aI118
aI237
aI117
aI11
aI264
aI321
aI2433
aI331
aI2235
asS'original'
p10
S'objective moral truths and the binding nature of obligations suggests a high power to enforce them  regarded as God'
p11
ss.