(dp1
S'input'
p2
(dp3
S'motion'
p4
(lp5
I1
aI2
aI3
aI4
aI242
aI243
aI13
aI14
aI118
aI244
aI245
assS'output'
p6
(dp7
S'encoded'
p8
(lp9
I5
aI113
aI7
aI242
aI3979
aI13
aI14
aI126
aI51
aI118
aI2894
aI40
aI11
aI877
aI224
asS'original'
p10
S'the work of Holocaust deniers should be protected by a universal right to free speech'
p11
ss.