(dp1
S'input'
p2
(dp3
S'motion'
p4
(lp5
I1
aI2
aI3
aI4
aI77
aI13
aI42
aI73
aI5
aI218
aI7
aI219
assS'output'
p6
(dp7
S'encoded'
p8
(lp9
I5
aI2030
aI902
aI217
aI42
aI2300
aI3676
aI2828
aI604
aI80
aI112
aI3515
aI2045
asS'original'
p10
S'the market system was not adequately rewarding farm people for their agricultural commodities'
p11
ss.