(dp1
S'input'
p2
(dp3
S'motion'
p4
(lp5
I1
aI2
aI107
aI108
aI11
aI109
assS'output'
p6
(dp7
S'encoded'
p8
(lp9
I246
aI2602
aI2580
aI87
aI2603
aI57
aI361
aI784
aI11
aI273
aI5
aI664
aI7
aI626
aI26
aI393
aI2103
aI232
asS'original'
p10
S'direct monetary assistance from industrialized countries has gone to increase the standard of living in many impoverished nations'
p11
ss.