(dp1
S'input'
p2
(dp3
S'motion'
p4
(lp5
I1
aI2
aI3
aI5
aI82
aI78
aI83
aI26
aI84
aI85
aI11
aI86
aI77
aI87
aI88
aI89
aI90
assS'output'
p6
(dp7
S'encoded'
p8
(lp9
I198
aI77
aI197
aI42
aI26
aI118
aI1063
aI11
aI2180
aI2181
aI235
aI89
aI22
asS'original'
p10
S'most states are not in a position to safely guard against nuclear use'
p11
ss.