(dp1
S'input'
p2
(dp3
S'motion'
p4
(lp5
I3
aI4
aI5
aI93
aI80
aI7
aI94
aI95
assS'output'
p6
(dp7
S'encoded'
p8
(lp9
I426
aI791
aI2311
aI82
aI385
aI80
aI304
aI2312
aI388
aI89
aI2237
aI385
aI80
aI304
aI593
aI13
aI2236
aI6
aI385
aI80
aI120
aI2237
asS'original'
p10
S'if  when asked for  there is no visible help from God  there is no reason to believe that there is a God'
p11
ss.