(dp1
S'input'
p2
(dp3
S'motion'
p4
(lp5
I1
aI2
aI20
aI229
aI31
aI84
aI118
aI230
aI231
assS'output'
p6
(dp7
S'encoded'
p8
(lp9
I118
aI230
aI902
aI20
aI128
aI852
aI182
asS'original'
p10
S'a voucher system would weaken public schools'
p11
ss.