(dp1
S'input'
p2
(dp3
S'motion'
p4
(lp5
I1
aI2
aI20
aI240
aI241
assS'output'
p6
(dp7
S'encoded'
p8
(lp9
I5
aI733
aI7
aI46
aI95
aI11
aI971
aI1079
aI1286
aI7
aI46
aI2260
asS'original'
p10
S'the responsibility of all governments to ensure full respect of all religions'
p11
ss.