(dp1
S'input'
p2
(dp3
S'motion'
p4
(lp5
I3
aI4
aI22
aI71
aI72
aI73
aI74
assS'output'
p6
(dp7
S'encoded'
p8
(lp9
I82
aI1578
aI2009
aI2006
aI184
aI678
aI550
aI212
aI1056
aI16
aI2010
asS'original'
p10
S'for every three multitrack schools  one less school must be built'
p11
ss.