(dp1
S'input'
p2
(dp3
S'motion'
p4
(lp5
I1
aI2
aI20
aI22
aI165
aI109
aI166
aI11
aI167
aI168
aI169
aI170
aI4
aI171
aI172
aI168
aI173
aI26
aI57
aI11
aI174
aI175
aI168
aI176
aI112
aI177
aI178
assS'output'
p6
(dp7
S'encoded'
p8
(lp9
I5
aI1595
aI286
aI233
aI2519
aI503
aI11
aI2050
aI168
aI924
aI148
aI3281
aI489
aI373
aI5
aI1410
aI168
aI283
aI7
aI773
asS'original'
p10
S'the Internet may have considerable potential to reach and engage opinion leaders who influence the thinking and behavior of others'
p11
ss.