(dp1
S'input'
p2
(dp3
S'motion'
p4
(lp5
I1
aI2
aI20
aI250
aI251
assS'output'
p6
(dp7
S'encoded'
p8
(lp9
I251
aI1022
aI233
aI5
aI503
aI11
aI4035
aI698
aI427
asS'original'
p10
S'ASEAN members have the potential to reap significant benefits'
p11
ss.