(dp1
S'input'
p2
(dp3
S'motion'
p4
(lp5
I3
aI4
aI5
aI7
aI84
aI80
aI85
aI28
aI86
aI87
aI13
aI88
aI79
aI89
aI90
aI91
aI92
assS'output'
p6
(dp7
S'encoded'
p8
(lp9
I7
aI78
aI234
aI2166
aI2167
aI53
aI7
aI2126
aI4159
aI2168
aI1024
aI89
aI86
aI87
aI237
aI1773
aI1024
aI2169
aI237
aI2170
aI2171
asS'original'
p10
S'the United Nations Charter  ratified by the U .S .  prohibits members from using force against fellow members except against imminent attack'
p11
ss.