(dp1
S'input'
p2
(dp3
S'motion'
p4
(lp5
I3
aI4
aI5
aI6
aI7
aI8
aI9
aI10
aI11
aI12
aI13
aI14
aI15
aI16
aI17
assS'output'
p6
(dp7
S'encoded'
p8
(lp9
I381
aI272
aI13
aI10
aI11
aI12
aI170
aI353
aI10
aI358
aI363
aI365
aI336
aI13
aI284
aI382
asS'original'
p10
S'Excessive exposure to violent video games and other violent media has been linked to aggressive behaviour'
p11
ss.