(dp1
S'input'
p2
(dp3
S'motion'
p4
(lp5
I1
aI2
aI3
aI4
aI116
aI117
aI13
aI14
aI118
aI119
aI120
aI7
aI121
aI122
aI123
assS'output'
p6
(dp7
S'encoded'
p8
(lp9
I5
aI22
aI7
aI116
aI117
aI2095
aI5
aI2822
aI80
aI2823
aI2772
aI87
aI2824
asS'original'
p10
S'The use of wind power reduces the necessity for importing electricity from abroad'
p11
ss.