(dp1
S'input'
p2
(dp3
S'motion'
p4
(lp5
I3
aI4
aI109
aI110
aI13
aI111
assS'output'
p6
(dp7
S'encoded'
p8
(lp9
I167
aI2582
aI1933
aI167
aI2588
aI363
aI365
aI2589
aI2590
aI13
aI2557
aI573
asS'original'
p10
S'foreign assistance  especially foreign capitalism  has been somewhat deleterious to African development'
p11
ss.