(dp1
S'input'
p2
(dp3
S'motion'
p4
(lp5
I1
aI2
aI20
aI252
aI253
aI5
aI254
aI168
aI255
assS'output'
p6
(dp7
S'encoded'
p8
(lp9
I2974
aI3399
aI118
aI4036
aI4041
aI448
asS'original'
p10
S'Americans opposed a flag desecration amendment'
p11
ss.