(dp1
S'input'
p2
(dp3
S'motion'
p4
(lp5
I1
aI2
aI3
aI4
aI5
aI6
aI7
aI8
aI9
aI10
aI11
aI12
aI13
aI14
aI15
assS'output'
p6
(dp7
S'encoded'
p8
(lp9
I66
aI13
aI29
aI5
aI461
aI445
aI406
aI9
aI10
aI297
aI462
aI80
aI112
aI317
aI168
aI406
aI463
aI369
aI8
asS'original'
p10
S'parents should make the decision about what video games they purchase for their children  and what constitutes too violent'
p11
ss.