(dp1
S'input'
p2
(dp3
S'motion'
p4
(lp5
I1
aI2
aI20
aI37
aI38
assS'output'
p6
(dp7
S'encoded'
p8
(lp9
I1318
aI168
aI1319
aI197
aI624
aI80
aI118
aI713
asS'original'
p10
S'homogeneity and integration are necessary for a society'
p11
ss.