(dp1
S'input'
p2
(dp3
S'motion'
p4
(lp5
I3
aI4
aI22
aI37
aI41
assS'output'
p6
(dp7
S'encoded'
p8
(lp9
I7
aI137
aI722
aI13
aI715
aI199
aI1653
asS'original'
p10
S'The social costs to society are varied'
p11
ss.