(dp1
S'input'
p2
(dp3
S'motion'
p4
(lp5
I1
aI2
aI107
aI108
aI11
aI109
assS'output'
p6
(dp7
S'encoded'
p8
(lp9
I1566
aI2602
aI109
aI797
aI92
aI1749
aI11
aI273
aI638
aI168
aI135
aI1073
asS'original'
p10
S'Western monetary aid often only serves to increase poverty and social inequality'
p11
ss.