(dp1
S'input'
p2
(dp3
S'motion'
p4
(lp5
I1
aI2
aI3
aI4
aI184
aI234
aI235
aI155
aI236
aI83
assS'output'
p6
(dp7
S'encoded'
p8
(lp9
I1639
aI40
aI11
aI78
aI3857
asS'original'
p10
S"Israel's legitimate right to self-defence is undisputable"
p11
ss.