(dp1
S'input'
p2
(dp3
S'motion'
p4
(lp5
I3
aI4
aI22
aI75
aI76
aI77
assS'output'
p6
(dp7
S'encoded'
p8
(lp9
I791
aI385
aI80
aI530
aI1075
aI1706
aI1343
aI1075
aI80
aI2086
asS'original'
p10
S'when there is economic inequality then political inequality is assured'
p11
ss.