(dp1
S'input'
p2
(dp3
S'motion'
p4
(lp5
I3
aI4
aI5
aI28
aI7
aI24
aI9
aI35
aI36
assS'output'
p6
(dp7
S'encoded'
p8
(lp9
I7
aI94
aI1033
aI28
aI1181
aI307
aI1179
aI15
aI16
aI1182
asS'original'
p10
S'the only consideration in choosing between applicants should be merit'
p11
ss.