(dp1
S'input'
p2
(dp3
S'motion'
p4
(lp5
I1
aI2
aI20
aI29
aI30
aI31
aI32
assS'output'
p6
(dp7
S'encoded'
p8
(lp9
I897
aI168
aI898
aI30
aI899
aI900
aI5
aI901
aI902
asS'original'
p10
S'Frequent and regular physical exercise boosts the immune system'
p11
ss.