(dp1
S'input'
p2
(dp3
S'motion'
p4
(lp5
I1
aI2
aI20
aI35
aI46
aI193
aI194
assS'output'
p6
(dp7
S'encoded'
p8
(lp9
I578
aI1915
aI3478
aI945
aI118
aI698
aI946
aI26
aI441
aI3498
aI11
aI2825
aI2836
aI2837
asS'original'
p10
S'Human induced deforestation plays a significant role in causing rainforests to release carbon dioxide'
p11
ss.