(dp1
S'input'
p2
(dp3
S'motion'
p4
(lp5
I3
aI4
aI5
aI6
aI126
aI127
aI15
aI16
aI128
assS'output'
p6
(dp7
S'encoded'
p8
(lp9
I548
aI127
aI1467
aI2868
aI7
aI7
aI2875
aI9
aI120
aI2568
aI320
aI893
aI44
aI2208
aI7
aI2863
asS'original'
p10
S'since species become extinct "all the time" the disappearance of a few more will not destroy the ecosystem'
p11
ss.