(dp1
S'input'
p2
(dp3
S'motion'
p4
(lp5
I3
aI4
aI5
aI6
aI7
aI8
aI9
aI10
aI11
aI12
aI13
aI14
aI15
aI16
aI17
assS'output'
p6
(dp7
S'encoded'
p8
(lp9
I358
aI370
aI199
aI371
aI372
aI170
aI373
aI13
aI235
aI374
aI375
asS'original'
p10
S'media influences are too weak and distant to have much influence'
p11
ss.