(dp1
S'input'
p2
(dp3
S'motion'
p4
(lp5
I1
aI2
aI20
aI229
aI31
aI84
aI118
aI230
aI231
assS'output'
p6
(dp7
S'encoded'
p8
(lp9
I297
aI3760
aI182
aI11
aI273
aI1782
aI168
aI210
aI23
asS'original'
p10
S'they incentivize schools to increase accountability and school performance'
p11
ss.