(dp1
S'input'
p2
(dp3
S'motion'
p4
(lp5
I3
aI4
aI5
aI6
aI222
aI80
aI143
aI42
aI82
aI7
aI223
aI13
aI224
aI225
aI9
aI226
assS'output'
p6
(dp7
S'encoded'
p8
(lp9
I7
aI879
aI3680
aI9
aI313
aI170
aI9
aI3681
aI80
aI678
aI9
aI7
aI200
aI3682
aI51
aI9
aI3229
asS'original'
p10
S'The free communication of thoughts and of opinions is one of the most precious rights of man'
p11
ss.