(dp1
S'input'
p2
(dp3
S'motion'
p4
(lp5
I3
aI4
aI22
aI37
aI48
aI195
aI196
assS'output'
p6
(dp7
S'encoded'
p8
(lp9
I3480
aI80
aI120
aI779
aI403
aI9
aI3511
asS'original'
p10
S'deforestation is a major cause of desertification'
p11
ss.