(dp1
S'input'
p2
(dp3
S'motion'
p4
(lp5
I1
aI2
aI20
aI144
aI237
aI238
aI80
aI239
assS'output'
p6
(dp7
S'encoded'
p8
(lp9
I393
aI3913
aI3905
aI3914
aI3670
aI263
aI1724
asS'original'
p10
S'many tower blocks saw rising crime levels'
p11
ss.