(dp1
S'input'
p2
(dp3
S'motion'
p4
(lp5
I3
aI4
aI5
aI6
aI189
aI190
aI191
aI80
aI192
aI13
aI193
aI194
assS'output'
p6
(dp7
S'encoded'
p8
(lp9
I3440
aI89
aI7
aI3441
aI13
aI7
aI3405
aI162
aI893
aI235
aI368
aI170
aI353
aI722
aI82
aI61
aI597
aI6
aI199
aI3442
aI82
aI120
aI193
asS'original'
p10
S'Transforming from the uncircumcised to the circumcised state will have psychological and other costs for an adult that are absent for a child'
p11
ss.