(dp1
S'input'
p2
(dp3
S'motion'
p4
(lp5
I1
aI2
aI3
aI4
aI184
aI234
aI235
aI155
aI236
aI83
assS'output'
p6
(dp7
S'encoded'
p8
(lp9
I3114
aI722
aI5
aI1406
aI51
aI3847
aI3823
aI267
aI152
asS'original'
p10
S'Hamas started the conflict by firing rockets on Israel'
p11
ss.