(dp1
S'input'
p2
(dp3
S'motion'
p4
(lp5
I1
aI2
aI20
aI37
aI38
assS'output'
p6
(dp7
S'encoded'
p8
(lp9
I1359
aI78
aI1422
aI1370
aI11
aI5
aI1038
aI980
asS'original'
p10
S'Diversity is intrinsically valuable to the dominant culture'
p11
ss.