(dp1
S'input'
p2
(dp3
S'motion'
p4
(lp5
I3
aI4
aI5
aI6
aI126
aI127
aI15
aI16
aI128
assS'output'
p6
(dp7
S'encoded'
p8
(lp9
I2877
aI80
aI1362
aI82
aI123
aI2878
asS'original'
p10
S'Conservation is vital for future study'
p11
ss.