(dp1
S'input'
p2
(dp3
S'motion'
p4
(lp5
I1
aI2
aI20
aI264
aI265
aI266
aI267
aI5
aI268
aI269
aI7
aI221
assS'output'
p6
(dp7
S'encoded'
p8
(lp9
I5
aI1160
aI1807
aI197
aI26
aI1777
aI5
aI318
aI687
aI297
aI197
aI11
aI4128
aI82
aI1990
aI80
aI112
aI581
aI1015
asS'original'
p10
S'The longer politicians are in office  the more likely they are to rip us off for their own benefit'
p11
ss.