(dp1
S'input'
p2
(dp3
S'motion'
p4
(lp5
I3
aI4
aI22
aI146
aI239
aI240
aI82
aI241
assS'output'
p6
(dp7
S'encoded'
p8
(lp9
I299
aI3913
aI120
aI3914
aI82
aI964
aI615
aI1518
aI1649
aI241
asS'original'
p10
S'they grew a reputation for being undesirable low cost housing'
p11
ss.