(dp1
S'input'
p2
(dp3
S'motion'
p4
(lp5
I1
aI2
aI3
aI4
aI5
aI204
aI156
aI78
aI83
aI26
aI205
aI5
aI22
aI7
aI206
aI207
aI7
aI208
assS'output'
p6
(dp7
S'encoded'
p8
(lp9
I3553
aI286
aI1125
aI58
aI5
aI151
aI7
aI3556
aI3557
asS'original'
p10
S'Condoms may interfere with the process of paternal tolerance'
p11
ss.