(dp1
S'input'
p2
(dp3
S'motion'
p4
(lp5
I1
aI2
aI20
aI144
aI237
aI238
aI80
aI239
assS'output'
p6
(dp7
S'encoded'
p8
(lp9
I3935
aI3937
aI513
aI1560
aI534
aI659
aI891
aI640
aI642
aI3938
aI3936
aI22
aI58
aI427
aI11
aI5
aI2172
aI683
asS'original'
p10
S'urban intensification which increases population density will reduce per capita car use  with benefits to the global environment'
p11
ss.