(dp1
S'input'
p2
(dp3
S'encoded'
p4
(lp5
I64
aI2179
aI43
aI63
aI3
aI4990
aI4991
aI116
aI4850
aI24
aI12166
aI3
aI475
aI7
aI3532
aI3290
aI7
aI4714
asS'ori'
p6
S'This house believes that the Catholic Church is justified in forbidding the use of barrier methods of contraception'
p7
ssS'output'
p8
(dp9
g4
(lp10
I7119
aI2992
aI75
aI3
aI4701
aI927
aI107
aI2036
aI89
aI165
aI979
aI14774
aI60
aI7
aI2389
aI24
aI1511
aI475
aI3016
aI63765
asg6
S'" Clinical studies by the Guttmacher Institute  instead  showed a much lower efficacy  with 25 .3% of failures in typical use condition  .'
p11
ss.