(dp1
S'input'
p2
(dp3
S'encoded'
p4
(lp5
I64
aI2179
aI43
aI24
aI3
aI475
aI7
aI12436
aI3364
asS'ori'
p6
S'This house believes in the use of affirmative action'
p7
ssS'output'
p8
(dp9
g4
(lp10
I24
aI25810
aI7
aI965
aI10535
aI1210
aI57669
aI55
aI1038
aI10535
aI41
aI2593
aI955
aI4859
aI92
aI917
aI7
aI10584
aI2686
aI776
aI3
aI5138
aI5948
aI11
aI604
aI7
aI3
aI21332
aI1597
aI7
aI10250
aI5275
aI63765
asg6
S'In Portraits of White Racism  David Wellman has defined racism as culturally sanctioned beliefs  which  regardless of intentions involved  defend the advantages whites have because of the subordinated position of racial minorities  .'
p11
ss.