(dp1
S'input'
p2
(dp3
S'encoded'
p4
(lp5
I64
aI2179
aI43
aI223
aI2138
aI11
aI89
aI21
aI45
aI2185
aI372
asS'ori'
p6
S'This house believes all nations have a right to nuclear weapons'
p7
ssS'output'
p8
(dp9
g4
(lp10
I11594
aI2836
aI45
aI3779
aI3
aI2747
aI24
aI574
aI7
aI25
aI7259
aI34
aI3
aI2687
aI5
aI2688
aI2250
aI11091
aI6525
aI63765
asg6
S'Koizumi continues to reaffirm the principles in each of his addresses for the Hiroshima and Nagasaki Peace Memorial Ceremonies  .'
p11
ss.