(dp1
S'input'
p2
(dp3
S'encoded'
p4
(lp5
I64
aI2179
aI43
aI17
aI4941
aI857
aI3211
asS'ori'
p6
S'This house believes social deprivation causes crime'
p7
ssS'output'
p8
(dp9
g4
(lp10
I2682
aI63765
aI1815
aI3168
aI7
aI3
aI15495
aI4014
aI3365
aI45
aI3
aI15495
aI4921
aI116
aI40
aI3446
aI214
aI463
aI1199
aI658
aI214
aI63765
asg6
S"C . Wright Mills' theory of the sociological imagination related to the sociological perspective is how personal issues could become public issues  ."
p11
ss.