(dp1
S'input'
p2
(dp3
S'encoded'
p4
(lp5
I64
aI2179
aI394
aI163
aI959
aI2042
aI3557
asS'ori'
p6
S'This house would make physical education compulsory'
p7
ssS'output'
p8
(dp9
g4
(lp10
I24
aI180
aI15
aI11270
aI5
aI7964
aI11
aI3350
aI691
aI773
aI59
aI75
aI35088
aI6676
aI63765
asg6
S'In England both walking and cycling have declined since 1975 being replaced by motorized transport  .'
p11
ss.