(dp1
S'input'
p2
(dp3
S'encoded'
p4
(lp5
I64
aI2179
aI394
aI60
aI23587
asS'ori'
p6
S'This house would re-engage with Myanmar'
p7
ssS'output'
p8
(dp9
g4
(lp10
I41469
aI31386
aI25
aI22
aI12715
aI24
aI3
aI626
aI187
aI5
aI3316
aI45
aI3118
aI24
aI2871
aI60
aI3
aI9331
aI7
aI1444
aI2591
aI60
aI2789
aI3
aI2528
aI2157
aI3081
aI45
aI3709
aI820
aI588
aI3
aI2696
aI63765
asg6
S'Zarni renounced his political asylum in the United States and returned to Burma in October 2005 with the hope of building ties with members the ruling military regime to help open up the country .'
p11
ss.