(dp1
S'input'
p2
(dp3
S'encoded'
p4
(lp5
I64
aI2179
aI394
aI4325
aI2042
aI270
aI89
aI11605
aI3324
asS'ori'
p6
S'This house would fund education using a voucher scheme'
p7
ssS'output'
p8
(dp9
g4
(lp10
I7376
aI155
aI2463
aI63
aI257
aI134
aI116
aI1986
aI24
aI6174
aI34
aI3
aI260
aI45
aI4262
aI24
aI128
aI45
aI4325
aI658
aI2042
aI768
aI93
aI417
aI99
aI7246
aI351
aI968
aI7
aI3
aI137
aI45
aI4325
aI3249
aI2042
aI63765
asg6
S'" Moreover  they suggest that if it is wrong in principle for the government to tax in order to fund public education  then one should not accept any portion of the ill-gotten money to fund private education  .'
p11
ss.