(dp1
S'input'
p2
(dp3
S'encoded'
p4
(lp5
I64
aI2179
aI13605
aI2258
aI45
aI2194
asS'ori'
p6
S'This house prefers trade to aid'
p7
ssS'output'
p8
(dp9
g4
(lp10
I155
aI513
aI63
aI3
aI1260
aI2258
aI24
aI5428
aI394
aI174
aI316
aI89
aI4229
aI149
aI831
aI493
aI130
aI946
aI257
aI7483
aI3213
aI2589
aI382
aI504
aI63765
asg6
S'They considered that the free trade in labour would also be a significant (although less important) move against poverty  especially if skilled worker migration were permitted .'
p11
ss.