(dp1
S'input'
p2
(dp3
S'encoded'
p4
(lp5
I64
aI2179
aI43
aI17
aI4941
aI857
aI3211
asS'ori'
p6
S'This house believes social deprivation causes crime'
p7
ssS'output'
p8
(dp9
g4
(lp10
I246
aI3888
aI45
aI3020
aI7
aI708
aI289
aI89
aI2007
aI81
aI116
aI8820
aI75
aI97
aI45
aI268
aI24
aI8803
aI364
aI63765
asg6
S'"Forced prostitution" generally refers to conditions of control over a person who is coerced by another to engage in sexual activity  .'
p11
ss.