(dp1
S'input'
p2
(dp3
S'encoded'
p4
(lp5
I64
aI2179
aI43
aI63
aI134
aI116
aI400
aI21
aI34
aI3
aI260
aI45
aI3439
aI57
aI7
aI2381
asS'ori'
p6
S'This house believes that it is sometimes right for the government to restrict freedom of speech'
p7
ssS'output'
p8
(dp9
g4
(lp10
I49978
aI705
aI7177
aI2050
aI4799
aI34
aI574
aI4741
aI10636
aI12352
aI5
aI17701
aI3
aI3717
aI1265
aI574
aI1012
aI73
aI11202
aI63765
asg6
S'CPJ staff applies strict criteria for each case; researchers independently investigate and verify the circumstances behind each death or imprisonment .'
p11
ss.