(dp1
S'input'
p2
(dp3
S'encoded'
p4
(lp5
I64
aI2179
aI43
aI63
aI17574
aI417
aI316
aI3481
aI34
aI271
aI79
asS'ori'
p6
S'This house believes that housewives should be paid for their work'
p7
ssS'output'
p8
(dp9
g4
(lp10
I3620
aI5019
aI2517
aI132
aI8358
aI45
aI404
aI34
aI17592
aI8803
aI5
aI4583
aI2202
aI5743
aI2567
aI12460
aI2202
aI60
aI3862
aI5
aI3
aI6203
aI7
aI10947
aI63765
asg6
S'Feminist economists modify these assumptions to account for exploitative sexual and gender relations  single-parent families  same-sex relationships  familial relations with children and the consequences of reproduction .'
p11
ss.