(dp1
S'input'
p2
(dp3
S'encoded'
p4
(lp5
I64
aI2179
aI43
aI8629
aI116
aI3
aI117
aI998
asS'ori'
p6
S'This house believes atheism is the only way'
p7
ssS'output'
p8
(dp9
g4
(lp10
I42
aI174
aI7029
aI63
aI9776
aI81
aI6305
aI60
aI574
aI248
aI47
aI1890
aI823
aI1544
aI14
aI1431
aI3
aI350
aI217
aI3740
aI235
aI63765
asg6
S'He also asserts that atheists who disagree with each other will eventually side together on whatever the evidence most strongly supports  .'
p11
ss.