(dp1
S'input'
p2
(dp3
S'encoded'
p4
(lp5
I64
aI2179
aI394
aI3830
aI3
aI475
aI7
aI9441
aI13132
aI3102
aI24
aI276
aI381
asS'ori'
p6
S'This house would permit the use of performance enhancing drugs in professional sports'
p7
ssS'output'
p8
(dp9
g4
(lp10
I3
aI317
aI7
aI24
aI3
aI8436
aI1136
aI2265
aI122
aI87
aI4163
aI75
aI298
aI3
aI4226
aI579
aI45
aI150
aI4144
aI63
aI382
aI45
aI316
aI3481
aI34
aI75
aI3
aI31511
aI63
aI3
aI306
aI26
aI8060
aI45
aI12256
aI75
aI3
aI44011
aI20647
aI44012
aI19410
aI86
aI63
aI3102
aI382
aI99
aI887
aI2930
aI60
aI92
aI155
aI394
aI316
aI2396
aI63765
asg6
S'The acceptance of drug-taking in the Tour de France was so complete by 1930  when the race changed to national teams that were to be paid for by the organisers  that the rule book distributed to riders by the organiser  Henri Desgrange  reminded them that drugs were not among items with which they would be provided  .'
p11
ss.