(dp1
S'input'
p2
(dp3
S'encoded'
p4
(lp5
I64
aI2179
aI235
aI3
aI2136
aI7
aI3
aI2306
aI7
aI2390
asS'ori'
p6
S'This house supports the one-child policy of the republic of China'
p7
ssS'output'
p8
(dp9
g4
(lp10
I3
aI5058
aI63
aI2598
aI1347
aI857
aI2322
aI7497
aI23681
aI55
aI12
aI1902
aI3531
aI14
aI3
aI3177
aI18
aI63765
asg6
S'The hypothesis that population pressure causes increased warfare (youth bulge theory) has been recently criticized on the empirical grounds .'
p11
ss.