(dp1
S'input'
p2
(dp3
S'encoded'
p4
(lp5
I64
aI2179
aI43
aI63
aI2157
aI2565
aI493
aI19084
aI382
aI4850
asS'ori'
p6
S"This house believes that Israel's 2008-2009 military operations against Gaza were justified"
p7
ssS'output'
p8
(dp9
g4
(lp10
I5592
aI382
aI45
aI3108
aI14
aI5
aI709
aI63
aI458
aI24
aI3
aI4659
aI7
aI3
aI2218
aI2513
aI63
aI427
aI238
aI291
aI2394
aI5
aI425
aI5
aI63
aI3
aI792
aI7
aI211
aI6412
aI2120
aI691
aI2116
aI182
aI324
aI4825
aI45
aI3
aI2513
aI63765
asg6
S'Submissions were to focus on "events and conduct that occurred in the context of the armed conflict that took place between 27 December 2008 and 19 January 2009" and that "for the purposes of its mandate  events since June 2008 are particularly relevant to the conflict .'
p11
ss.