(dp1
S'input'
p2
(dp3
S'encoded'
p4
(lp5
I64
aI2179
aI394
aI190
aI3
aI21
aI45
aI3895
aI834
asS'ori'
p6
S'This house would limit the right to bear arms'
p7
ssS'output'
p8
(dp9
g4
(lp10
I10
aI2511
aI159
aI41
aI120
aI24
aI4132
aI5
aI2300
aI63
aI3439
aI3
aI696
aI7
aI2611
aI4353
aI24
aI89
aI4728
aI88
aI3709
aI19139
aI159
aI4353
aI63765
asg6
S'" State laws  such as those in Virginia and California  that restrict the number of gun purchases in a month may help stem such "straw purchases .'
p11
ss.