(dp1
S'input'
p2
(dp3
S'encoded'
p4
(lp5
I64
aI2179
aI394
aI5370
aI3
aI5286
asS'ori'
p6
S'This house would abolish the monarchy'
p7
ssS'output'
p8
(dp9
g4
(lp10
I41034
aI73
aI41035
aI416
aI24
aI4192
aI5
aI368
aI2450
aI41036
aI63765
asg6
S'|- Rawal or Maharawal Used in northern and western India  Yaduvanshis .'
p11
ss.