(dp1
S'input'
p2
(dp3
S'encoded'
p4
(lp5
I64
aI2179
aI43
aI63
aI17574
aI417
aI316
aI3481
aI34
aI271
aI79
asS'ori'
p6
S'This house believes that housewives should be paid for their work'
p7
ssS'output'
p8
(dp9
g4
(lp10
I3
aI1869
aI217
aI1360
aI416
aI116
aI10900
aI5224
aI14
aI413
aI475
aI92
aI55
aI4544
aI75
aI311
aI870
aI2760
aI2203
aI5
aI136
aI182
aI63765
asg6
S'The method most widely used is gathering information on time use  which has "been implemented by at least 20 developing countries and more are underway" .'
p11
ss.