(dp1
S'input'
p2
(dp3
S'encoded'
p4
(lp5
I64
aI2179
aI394
aI2773
aI12505
asS'ori'
p6
S'This house would embrace multiculturalism'
p7
ssS'output'
p8
(dp9
g4
(lp10
I217
aI7
aI3
aI12197
aI7
aI2637
aI13347
aI2622
aI887
aI2768
aI6195
aI2118
aI19
aI3
aI9414
aI5938
aI63765
asg6
S'Most of the definitions of cultural competence shared among diversity professionals come from the healthcare industry .'
p11
ss.