(dp1
S'input'
p2
(dp3
S'encoded'
p4
(lp5
I64
aI2179
aI43
aI17
aI4941
aI857
aI3211
asS'ori'
p6
S'This house believes social deprivation causes crime'
p7
ssS'output'
p8
(dp9
g4
(lp10
I12527
aI139
aI316
aI1545
aI41
aI89
aI2521
aI7
aI132
aI13541
aI63765
asg6
S'Deviance can be described as a violation of these norms  .'
p11
ss.