(dp1
S'input'
p2
(dp3
S'encoded'
p4
(lp5
I64
aI2179
aI394
aI16756
aI20435
asS'ori'
p6
S'This house would criminalize blasphemy'
p7
ssS'output'
p8
(dp9
g4
(lp10
I41
aI7
aI2805
aI311
aI870
aI78
aI217
aI7
aI86
aI12691
aI440
aI2013
aI397
aI7058
aI63765
asg6
S'As of February 24  at least 150 people  most of them Nigerian  had died during protests  .'
p11
ss.