(dp1
S'input'
p2
(dp3
S'encoded'
p4
(lp5
I64
aI2179
aI394
aI163
aI959
aI2042
aI3557
asS'ori'
p6
S'This house would make physical education compulsory'
p7
ssS'output'
p8
(dp9
g4
(lp10
I2504
aI1198
aI182
aI1260
aI45
aI5526
aI41
aI165
aI41
aI1198
aI675
aI545
aI3
aI2240
aI18
aI131
aI6466
aI4736
aI866
aI51
aI20031
aI565
aI116
aI14241
aI63765
asg6
S'Hence  you are free to swear as much as you like  within the school grounds  but calling someone else an offensive name is licence .'
p11
ss.