(dp1
S'input'
p2
(dp3
S'encoded'
p4
(lp5
I64
aI2179
aI394
aI5842
aI3569
aI446
aI13498
asS'ori'
p6
S'This house would introduce year round schooling'
p7
ssS'output'
p8
(dp9
g4
(lp10
I24
aI626
aI187
aI117
aI1191
aI7
aI2625
aI182
aI8790
aI24
aI6678
aI63765
asg6
S"In today's United States  only about 3% of Americans are engaged in agriculture ."
p11
ss.