(dp1
S'input'
p2
(dp3
S'encoded'
p4
(lp5
I64
aI2179
aI13605
aI2258
aI45
aI2194
asS'ori'
p6
S'This house prefers trade to aid'
p7
ssS'output'
p8
(dp9
g4
(lp10
I16
aI2234
aI55
aI3
aI6568
aI1718
aI45
aI129
aI130
aI41
aI89
aI296
aI7
aI89
aI8022
aI3226
aI24
aI7517
aI7631
aI5
aI3226
aI5428
aI3223
aI63765
asg6
S'Economic growth has the indirect potential to alleviate poverty  as a result of a simultaneous increase in employment opportunities and increase labour productivity  .'
p11
ss.