(dp1
S'input'
p2
(dp3
S'encoded'
p4
(lp5
I64
aI2179
aI43
aI63
aI6670
aI546
aI417
aI316
aI89
aI1334
aI3108
aI7
aI4849
aI1886
aI2855
asS'ori'
p6
S'This house believes that wind power should be a primary focus of future energy supply'
p7
ssS'output'
p8
(dp9
g4
(lp10
I3
aI47208
aI116
aI89
aI5257
aI4262
aI8921
aI34
aI1237
aI6844
aI2879
aI158
aI6670
aI92
aI4004
aI4386
aI18098
aI34
aI2881
aI104
aI75
aI6670
aI546
aI63765
asg6
S'The PTC is a corporate tax credit for several renewable sources including wind  which credited 1 .5 per kWh for electricity produced by wind power .'
p11
ss.