(dp1
S'input'
p2
(dp3
S'encoded'
p4
(lp5
I64
aI2179
aI394
aI190
aI3
aI21
aI45
aI3895
aI834
asS'ori'
p6
S'This house would limit the right to bear arms'
p7
ssS'output'
p8
(dp9
g4
(lp10
I100
aI1488
aI834
aI19
aI3
aI2513
aI24
aI3
aI325
aI7452
aI2654
aI11
aI174
aI353
aI271
aI998
aI4272
aI736
aI3
aI281
aI15080
aI385
aI63765
asg6
S'Some small arms from the conflict in the Great Lakes region have also found their way illegally into the major Kenyan cities .'
p11
ss.