(dp1
S'input'
p2
(dp3
S'encoded'
p4
(lp5
I64
aI2179
aI394
aI5842
aI3569
aI446
aI13498
asS'ori'
p6
S'This house would introduce year round schooling'
p7
ssS'output'
p8
(dp9
g4
(lp10
I366
aI2240
aI256
aI1985
aI4358
aI2210
aI4471
aI5
aI89
aI3456
aI238
aI45
aI7434
aI5
aI6372
aI63765
asg6
S'After school programs give students role models and a safe place to learn and play .'
p11
ss.