(dp1
S'input'
p2
(dp3
S'encoded'
p4
(lp5
I64
aI2179
aI43
aI63
aI3
aI21
aI45
aI12715
aI417
aI99
aI316
aI2897
asS'ori'
p6
S'This house believes that the right to asylum should not be absolute'
p7
ssS'output'
p8
(dp9
g4
(lp10
I9518
aI45
aI3
aI2378
aI6174
aI7
aI116
aI45
aI9036
aI1788
aI12715
aI2554
aI2195
aI45
aI9904
aI45
aI120
aI81
aI876
aI375
aI316
aI2195
aI45
aI9665
aI63765
asg6
S"Russia's answer to the fundamental principle of non-refoulement is to offer temporary asylum status  subject to revocation  to those who might again be subject to persecution ."
p11
ss.