(dp1
S'input'
p2
(dp3
S'encoded'
p4
(lp5
I64
aI2179
aI43
aI63
aI1036
aI4828
aI33250
aI116
aI25073
aI45
aI3315
aI4562
asS'ori'
p6
S'This house believes that male infant circumcision is tantamount to child abuse'
p7
ssS'output'
p8
(dp9
g4
(lp10
I233
aI45
aI33238
aI10845
aI4047
aI63765
aI3
aI863
aI33262
aI2506
aI217
aI9124
aI45
aI182
aI4648
aI14
aI3
aI33218
aI63765
asg6
S'According to Sorrells et al .  the five penile areas most sensitive to fine-touch are located on the foreskin  .'
p11
ss.