(dp1
S'input'
p2
(dp3
S'encoded'
p4
(lp5
I64
aI2179
aI43
aI63
aI134
aI116
aI400
aI21
aI34
aI3
aI260
aI45
aI3439
aI57
aI7
aI2381
asS'ori'
p6
S'This house believes that it is sometimes right for the government to restrict freedom of speech'
p7
ssS'output'
p8
(dp9
g4
(lp10
I159
aI6228
aI88
aI316
aI2597
aI138
aI3
aI2600
aI7
aI100
aI7
aI3
aI187
aI545
aI92
aI155
aI1233
aI5
aI139
aI6411
aI4229
aI16
aI5
aI22
aI546
aI63765
asg6
S'Such companies may be larger than the economies of some of the states within which they operate  and can wield significant economic and political power .'
p11
ss.