(dp1
S'input'
p2
(dp3
S'encoded'
p4
(lp5
I64
aI2179
aI235
aI3
aI2136
aI7
aI3
aI2306
aI7
aI2390
asS'ori'
p6
S'This house supports the one-child policy of the republic of China'
p7
ssS'output'
p8
(dp9
g4
(lp10
I4608
aI117
aI3
aI6033
aI7
aI5057
aI88
aI163
aI3
aI4944
aI136
aI1335
aI311
aI237
aI131
aI1890
aI42
aI3821
aI153
aI36407
aI63765
asg6
S'Treating only the symptoms of cancer may make the victim more comfortable at first  but eventually he dies - often horribly .'
p11
ss.