(dp1
S'input'
p2
(dp3
S'encoded'
p4
(lp5
I64
aI2179
aI394
aI2017
aI223
aI9058
aI23653
asS'ori'
p6
S'This house would ban all unsustainable logging'
p7
ssS'output'
p8
(dp9
g4
(lp10
I10247
aI44341
aI122
aI136
aI7595
aI14
aI3
aI285
aI192
aI311
aI89
aI413
aI298
aI2705
aI6794
aI24
aI3
aI4566
aI2923
aI24
aI3
aI47781
aI24
aI3
aI320
aI620
aI3
aI50712
aI23642
aI4567
aI5
aI4705
aI248
aI667
aI6761
aI1442
aI1718
aI14184
aI3757
aI45
aI2411
aI2506
aI7
aI2623
aI19298
aI1948
aI7
aI3
aI8254
aI63765
asg6
S'Brazilian beef was more competitive on the world market at a time when extensive improvements in the road network in the Amazonas in the early 1970s through the Trans Amazonian highway and subsequent other new roads gave potential developers access to vast areas of previously inaccessible parts of the forest .'
p11
ss.