(dp1
S'input'
p2
(dp3
S'encoded'
p4
(lp5
I64
aI2179
aI394
aI163
aI959
aI2042
aI3557
asS'ori'
p6
S'This house would make physical education compulsory'
p7
ssS'output'
p8
(dp9
g4
(lp10
I41
aI261
aI1381
aI7
aI5743
aI3281
aI1102
aI868
aI34
aI271
aI3862
aI45
aI23960
aI73
aI1372
aI45
aI2240
aI117
aI905
aI2909
aI11270
aI45
aI2240
aI5
aI905
aI1301
aI206
aI17768
aI45
aI2240
aI63765
asg6
S'As well  although 2/3 of families live close enough for their children to bike or walk to school  only 1/3 report actually walking to school and 80% report never having cycled to school .'
p11
ss.