(dp1
S'input'
p2
(dp3
S'encoded'
p4
(lp5
I64
aI2179
aI43
aI63
aI187
aI417
aI99
aI16642
aI3
aI6449
aI7
aI3935
asS'ori'
p6
S'This house believes that states should not subsidize the growing of tobacco'
p7
ssS'output'
p8
(dp9
g4
(lp10
I3935
aI373
aI26225
aI92
aI2425
aI45
aI3
aI2546
aI3202
aI5346
aI24
aI626
aI187
aI2231
aI3
aI3935
aI10325
aI5346
aI2603
aI63765
asg6
S'Tobacco became stigmatized  which led to the largest civil settlement in United States history  the Tobacco Master Settlement Agreement (MSA) .'
p11
ss.