(dp1
S'input'
p2
(dp3
S'encoded'
p4
(lp5
I64
aI2179
aI43
aI223
aI2138
aI11
aI89
aI21
aI45
aI2185
aI372
asS'ori'
p6
S'This house believes all nations have a right to nuclear weapons'
p7
ssS'output'
p8
(dp9
g4
(lp10
I843
aI89
aI913
aI73
aI2185
aI2721
aI463
aI2723
aI397
aI51
aI862
aI2185
aI2223
aI24
aI92
aI3
aI475
aI7
aI2185
aI372
aI116
aI7117
aI17320
aI63765
asg6
S'Either a limited or full-scale nuclear exchange could occur during an accidental nuclear war  in which the use of nuclear weapons is triggered unintentionally .'
p11
ss.