(dp1
S'input'
p2
(dp3
S'encoded'
p4
(lp5
I64
aI2179
aI394
aI1499
aI177
aI1819
aI34
aI160
asS'ori'
p6
S'This house would build high rises for housing'
p7
ssS'output'
p8
(dp9
g4
(lp10
I3
aI16002
aI2234
aI2923
aI55
aI689
aI132
aI2145
aI63765
aI385
aI34
aI9048
aI16002
aI2234
aI63765
asg6
S'The Smart Growth Network has recognized these U .S . cities for implementing smart growth principles:  .'
p11
ss.