(dp1
S'input'
p2
(dp3
S'encoded'
p4
(lp5
I64
aI2179
aI394
aI16642
aI1376
aI5269
asS'ori'
p6
S'This house would subsidize poor communities'
p7
ssS'output'
p8
(dp9
g4
(lp10
I3136
aI139
aI3810
aI89
aI4229
aI968
aI7
aI271
aI3065
aI63765
asg6
S'Upper-income groups can save a significant portion of their incomes .'
p11
ss.