(dp1
S'input'
p2
(dp3
S'encoded'
p4
(lp5
I64
aI2179
aI394
aI3830
aI3
aI475
aI7
aI9441
aI13132
aI3102
aI24
aI276
aI381
asS'ori'
p6
S'This house would permit the use of performance enhancing drugs in professional sports'
p7
ssS'output'
p8
(dp9
g4
(lp10
I3
aI20780
aI116
aI9270
aI75
aI51
aI11875
aI7
aI2613
aI3353
aI2227
aI75
aI3
aI2164
aI7
aI3
aI626
aI187
aI5
aI2523
aI75
aI3
aI2145
aI63765
aI2211
aI63765
asg6
S'The DEA is headed by an Administrator of Drug Enforcement appointed by the President of the United States and confirmed by the U .S . Senate .'
p11
ss.