(dp1
S'input'
p2
(dp3
S'encoded'
p4
(lp5
I64
aI2179
aI394
aI4261
aI8667
aI3
aI9361
aI5
aI17069
asS'ori'
p6
S'This house would prohibit burning the stars and stripes'
p7
ssS'output'
p8
(dp9
g4
(lp10
I2871
aI122
aI89
aI1379
aI7
aI657
aI2223
aI8672
aI3550
aI75
aI3
aI52282
aI24
aI385
aI967
aI3
aI2145
aI63765
aI60
aI100
aI5262
aI1290
aI6955
aI63765
asg6
S'October 16  1967  was a day of widespread war protest organized by The Mobe in 30 cities across the U .S .  with some 1 400 draft cards burned  .'
p11
ss.