(dp1
S'input'
p2
(dp3
S'encoded'
p4
(lp5
I64
aI2179
aI43
aI63
aI3
aI4990
aI4991
aI116
aI4850
aI24
aI12166
aI3
aI475
aI7
aI3532
aI3290
aI7
aI4714
asS'ori'
p6
S'This house believes that the Catholic Church is justified in forbidding the use of barrier methods of contraception'
p7
ssS'output'
p8
(dp9
g4
(lp10
I3
aI17588
aI12632
aI145
aI2425
aI75
aI49769
aI493
aI9583
aI139
aI881
aI6241
aI7
aI9583
aI298
aI17846
aI14475
aI182
aI419
aI982
aI131
aI257
aI11841
aI60
aI248
aI38375
aI73
aI2594
aI9583
aI139
aI687
aI2126
aI63765
asg6
S'The innate immune system led by defensins against HIV can prevent transmission of HIV when viral counts are very low  but if busy with other viruses or overwhelmed  HIV can establish itself .'
p11
ss.