(dp1
S'input'
p2
(dp3
S'encoded'
p4
(lp5
I64
aI2179
aI43
aI63
aI3376
aI4938
aI417
aI316
aI3537
asS'ori'
p6
S'This house believes that endangered species should be protected'
p7
ssS'output'
p8
(dp9
g4
(lp10
I604
aI89
aI1718
aI1051
aI88
aI316
aI419
aI1445
aI9364
aI64
aI1798
aI116
aI330
aI5
aI116
aI162
aI3818
aI32655
aI63765
asg6
S"Because a species' potential range may be very large  determining this moment is difficult  and is usually done retrospectively ."
p11
ss.