(dp1
S'input'
p2
(dp3
S'encoded'
p4
(lp5
I64
aI2179
aI394
aI2773
aI12505
asS'ori'
p6
S'This house would embrace multiculturalism'
p7
ssS'output'
p8
(dp9
g4
(lp10
I22051
aI2509
aI12505
aI45
aI316
aI5501
aI45
aI3
aI3912
aI4809
aI24
aI25
aI452
aI407
aI10451
aI439
aI317
aI63
aI100
aI2812
aI61897
aI4259
aI60
aI177
aI2363
aI7
aI42878
aI5
aI61898
aI7070
aI302
aI45
aI6424
aI41
aI3136
aI938
aI736
aI3
aI13494
aI4849
aI15618
aI30525
aI7
aI2812
aI16032
aI75
aI100
aI3136
aI258
aI117
aI271
aI1996
aI5
aI61899
aI22208
aI5327
aI312
aI7
aI7798
aI63765
aI3
aI4849
aI768
aI675
aI3
aI1257
aI47
aI5385
aI316
aI89
aI22208
aI1458
aI24
aI92
aI12909
aI7768
aI89
aI419
aI1445
aI2210
asg6
S'MacDonald considers multiculturalism to be dangerous to the West  concluding in his Jack London Literary Prize acceptance speech:  [Given] that some ethnic groupsespecially ones with high levels of ethnocentrism and mobilizationwill undoubtedly continue to function as groups far into the foreseeable future  unilateral renunciation of ethnic loyalties by some groups means only their surrender and defeatthe Darwinian dead end of extinction . The future  then  like the past  will inevitably be a Darwinian competition in which ethnicity plays a very large role'
p11
ss.