(dp1
S'input'
p2
(dp3
S'encoded'
p4
(lp5
I64
aI2179
aI394
aI5284
aI150
aI3987
asS'ori'
p6
S'This house would reintroduce national service'
p7
ssS'output'
p8
(dp9
g4
(lp10
I2157
aI5666
aI5
aI5904
aI45
aI134
aI55
aI4284
aI12
aI89
aI4229
aI22
aI845
aI24
aI2624
aI7
aI3
aI169
aI370
aI63765
asg6
S'Military recruitment and resistance to it has historically been a significant political issue in colonies of the British Empire .'
p11
ss.