(dp1
S'input'
p2
(dp3
S'encoded'
p4
(lp5
I64
aI2179
aI394
aI117
aI7428
aI21151
aI34
aI11389
aI2042
aI24
aI4364
asS'ori'
p6
S'This house would only teach abstinence for sex education in schools'
p7
ssS'output'
p8
(dp9
g4
(lp10
I24
aI3
aI16562
aI2035
aI7
aI17089
aI8578
aI382
aI7445
aI60
aI34616
aI63765
asg6
S'In the CDC study  18% of teen girls were infected with HPV  .'
p11
ss.