(dp1
S'input'
p2
(dp3
S'encoded'
p4
(lp5
I64
aI2179
aI394
aI5370
aI3
aI5286
asS'ori'
p6
S'This house would abolish the monarchy'
p7
ssS'output'
p8
(dp9
g4
(lp10
I146
aI89
aI16889
aI957
aI34
aI6218
aI5
aI24107
aI186
aI63
aI89
aI2477
aI5301
aI60
aI913
aI2280
aI5
aI580
aI139
aI124
aI89
aI3108
aI34
aI150
aI6218
aI150
aI3239
aI5
aI5493
aI150
aI2825
aI5
aI5528
aI41
aI71
aI45
aI89
aI2164
aI10238
aI45
aI89
aI22
aI171
aI63765
asg6
S'Provides a focal point for unity and traditionMonarchists argue that a constitutional monarch with limited powers and non-partisan nature can provide a focus for national unity  national awards and honours  national institutions  and allegiance  as opposed to a president affiliated to a political party  .'
p11
ss.