(dp1
S'input'
p2
(dp3
S'encoded'
p4
(lp5
I64
aI2179
aI43
aI63
aI2659
aI417
aI1690
aI3
aI12048
aI7
aI19084
asS'ori'
p6
S'This house believes that Israel should lift the blockade of Gaza'
p7
ssS'output'
p8
(dp9
g4
(lp10
I29880
aI5496
aI7
aI2135
aI2181
aI5
aI1565
aI12997
aI2244
aI23005
aI289
aI3
aI852
aI7
aI4830
aI5
aI1442
aI29788
aI45
aI3
aI5743
aI7
aI3
aI6608
aI63765
asg6
S'Croatian Ministry of Foreign Affairs and European Integration expressed regret over the loss of lives and gave condolences to the families of the deceased .'
p11
ss.