(dp1
S'input'
p2
(dp3
S'encoded'
p4
(lp5
I64
aI2179
aI394
aI5284
aI150
aI3987
asS'ori'
p6
S'This house would reintroduce national service'
p7
ssS'output'
p8
(dp9
g4
(lp10
I6107
aI2477
aI5286
aI443
aI63765
asg6
S'|- Luxembourg 2 586 $52 430 $104 451 .69 503 302 constitutional monarchy No  .'
p11
ss.