(dp1
S'input'
p2
(dp3
S'encoded'
p4
(lp5
I64
aI2179
aI43
aI63
aI3
aI21
aI45
aI12715
aI417
aI99
aI316
aI2897
asS'ori'
p6
S'This house believes that the right to asylum should not be absolute'
p7
ssS'output'
p8
(dp9
g4
(lp10
I3
aI11558
aI5468
aI89
aI2136
aI7
aI1971
aI2610
aI45
aI501
aI136
aI78
aI45
aI2214
aI3
aI102
aI118
aI34
aI5
aI4324
aI9612
aI5
aI442
aI45
aI881
aI120
aI108
aI4272
aI63765
asg6
S'The document advocated a policy of managed immigration to allow more people to enter the UK legally  (especially for work)  and tougher mechanisms and rules to prevent those working illegally .'
p11
ss.