(dp1
S'input'
p2
(dp3
S'encoded'
p4
(lp5
I64
aI2179
aI43
aI63
aI187
aI417
aI99
aI16642
aI3
aI6449
aI7
aI3935
asS'ori'
p6
S'This house believes that states should not subsidize the growing of tobacco'
p7
ssS'output'
p8
(dp9
g4
(lp10
I24
aI100
aI3052
aI14439
aI88
aI6455
aI45
aI10077
aI93
aI1380
aI7
aI2410
aI73
aI2835
aI289
aI97
aI775
aI200
aI3
aI9049
aI73
aI16310
aI3
aI2891
aI7
aI1718
aI5651
aI63765
asg6
S'In some cases  subsidy may refer to favoring one type of production or consumption over another  effectively reducing the competitiveness or retarding the development of potential substitutes .'
p11
ss.