(dp1
S'input'
p2
(dp3
S'encoded'
p4
(lp5
I64
aI2179
aI394
aI2773
aI12505
asS'ori'
p6
S'This house would embrace multiculturalism'
p7
ssS'output'
p8
(dp9
g4
(lp10
I2437
aI5
aI2446
aI25758
aI45
aI2386
aI3136
aI88
aI6767
aI60
aI3
aI1068
aI45
aI687
aI89
aI28546
aI3914
asg6
S"recognition and rights accorded to specific groups may interfere with the state's need to establish a cohesive identity"
p11
ss.