(dp1
S'input'
p2
(dp3
S'encoded'
p4
(lp5
I64
aI2179
aI43
aI63
aI2659
aI417
aI1690
aI3
aI12048
aI7
aI19084
asS'ori'
p6
S'This house believes that Israel should lift the blockade of Gaza'
p7
ssS'output'
p8
(dp9
g4
(lp10
I155
aI382
aI5898
aI60
aI89
aI24945
aI7
aI14507
aI158
aI6500
aI1508
aI19
aI24946
aI5
aI9792
aI60
aI89
aI13265
aI7
aI19328
aI1854
aI3
aI7625
aI45
aI12060
aI611
aI375
aI63765
asg6
S'They were met with a barrage of objects  including iron balls from slingshots  and allegedly with a burst of gunfire  forcing the boats to pull back again .'
p11
ss.