(dp1
S'input'
p2
(dp3
S'encoded'
p4
(lp5
I64
aI2179
aI394
aI5284
aI150
aI3987
asS'ori'
p6
S'This house would reintroduce national service'
p7
ssS'output'
p8
(dp9
g4
(lp10
I24
aI100
aI3052
aI5259
aI122
aI3531
aI34
aI773
aI183
aI15685
aI159
aI41
aI298
aI42
aI7597
aI25
aI1597
aI14
aI35
aI2880
aI5259
aI729
aI63
aI42
aI500
aI87
aI24
aI2721
aI34
aI3
aI3113
aI7
aI89
aI667
aI2503
aI1444
aI24
aI15678
aI63765
asg6
S'In some cases Rangel was criticized for being too pragmatic  such as when he switched his position on natural gas deregulation; Rangel denied that he did so in exchange for the authorization of a new federal building in Harlem  .'
p11
ss.