(dp1
S'input'
p2
(dp3
S'encoded'
p4
(lp5
I64
aI2179
aI394
aI10662
aI626
aI187
aI2157
aI2697
aI19
aI2371
asS'ori'
p6
S'This house would remove United States military bases from Japan'
p7
ssS'output'
p8
(dp9
g4
(lp10
I38163
aI7
aI7878
aI7658
aI3884
aI122
aI1890
aI11201
aI45
aI2439
aI5
aI3131
aI24
aI12415
aI14
aI2871
aI63765
asg6
S'Gunn  of Ocean Springs  Mississippi  was eventually sentenced to 2 years and 8 months in jail on October 15  2010  .'
p11
ss.