(dp1
S'input'
p2
(dp3
S'encoded'
p4
(lp5
I64
aI2179
aI43
aI63
aI134
aI116
aI400
aI21
aI34
aI3
aI260
aI45
aI3439
aI57
aI7
aI2381
asS'ori'
p6
S'This house believes that it is sometimes right for the government to restrict freedom of speech'
p7
ssS'output'
p8
(dp9
g4
(lp10
I4290
aI8661
aI13550
aI427
aI89
aI2892
aI234
aI3399
aI24
aI3
aI6770
aI4999
aI5
aI183
aI725
aI6383
aI2393
aI3
aI9471
aI4
aI63
aI57
aI7
aI3
aI2961
aI116
aI4722
aI155
aI284
aI63765
aI63765
aI2346
aI3
aI1802
aI1557
aI116
aI3
aI33
aI63765
asg6
S'Senator Keith Davey took a supporting view  writing in the Toronto Globe and Mail: Too many publishers harbor the absurd notion that freedom of the press is something they own . . .of course the exact opposite is the case .'
p11
ss.