(dp1
S'input'
p2
(dp3
S'encoded'
p4
(lp5
I64
aI2179
aI394
aI2976
aI12243
aI24
aI954
aI126
aI1560
aI10723
asS'ori'
p6
S'This house would implement playoffs in collegiate level American football'
p7
ssS'output'
p8
(dp9
g4
(lp10
I6911
aI267
aI4144
aI19
aI14324
aI24
aI3
aI1643
aI20731
aI174
aI25719
aI3
aI3130
aI3705
aI63
aI4364
aI182
aI149
aI1856
aI45
aI6750
aI27477
aI604
aI3
aI21656
aI1385
aI3
aI1377
aI4797
aI546
aI7
aI3
aI5240
aI4364
aI5
aI271
aI2146
aI1109
aI35029
aI486
aI34957
aI11050
aI19
aI3
aI34949
aI3
aI3130
aI3569
aI24
aI1561
aI7
aI4235
aI10
aI63765
asg6
S"Placing two teams from non-AQ conferences in the same bowl also contradicted the previous assertion that non-AQ schools are less likely to receive at-large bids because the bowls prefer the superior drawing power of the big schools and their highly mobile fanbaseshence undefeated Boise State's omission from the BCS the previous year in favor of two-loss Ohio State ."
p11
ss.