(dp1
S'input'
p2
(dp3
S'encoded'
p4
(lp5
I64
aI2179
aI43
aI63
aI3
aI21
aI45
aI12715
aI417
aI99
aI316
aI2897
asS'ori'
p6
S'This house believes that the right to asylum should not be absolute'
p7
ssS'output'
p8
(dp9
g4
(lp10
I487
aI3
aI278
aI5307
aI2784
aI223
aI278
aI2144
aI463
aI2214
aI5
aI1223
aI24
aI3
aI626
aI2549
aI252
aI351
aI3890
aI63765
asg6
S'Until the Commonwealth Immigrants Act 1962  all Commonwealth citizens could enter and stay in the United Kingdom without any restriction .'
p11
ss.