(dp1
S'input'
p2
(dp3
S'encoded'
p4
(lp5
I64
aI2179
aI43
aI8629
aI116
aI3
aI117
aI998
asS'ori'
p6
S'This house believes atheism is the only way'
p7
ssS'output'
p8
(dp9
g4
(lp10
I7840
aI45
aI103
aI63
aI44
aI45
aI9900
aI2247
aI60
aI3707
aI5
aI1025
aI182
aI21282
aI45
aI807
aI5
aI4720
aI34685
aI7
aI3
aI7665
aI232
aI92
aI10642
aI440
aI51
aI878
aI24070
aI89
aI34686
aI63
aI10642
aI1020
aI34687
aI14593
aI14594
aI63765
asg6
S'Responding to Hitchens\'s claim that "all attempts to reconcile faith with science and reason are consigned to failure and ridicule"  Peter Berkowitz of the Hoover Institution (with which Hitchens had an official affiliation) quotes a paleontologist that Hitchens himself commendedStephen Jay Gould .'
p11
ss.