(dp1
S'input'
p2
(dp3
S'encoded'
p4
(lp5
I64
aI2179
aI394
aI190
aI3
aI21
aI45
aI3895
aI834
asS'ori'
p6
S'This house would limit the right to bear arms'
p7
ssS'output'
p8
(dp9
g4
(lp10
I1009
aI10
aI4201
aI1074
aI2386
aI2051
aI14
aI3
aI21
aI45
aI1576
aI5
aI3895
aI834
aI63765
asg6
S'Fifteen state constitutions include specific restrictions on the right to keep and bear arms .'
p11
ss.