(dp1
S'input'
p2
(dp3
S'encoded'
p4
(lp5
I64
aI2179
aI43
aI63
aI2203
aI60
aI51
aI997
aI2837
aI21716
aI1636
aI5349
aI417
aI2998
aI8532
aI45
aI3051
aI8578
asS'ori'
p6
S'This house believes that countries with an imbalanced male/female ratio skewed towards males should encourage parents to produce girls'
p7
ssS'output'
p8
(dp9
g4
(lp10
I3
aI17793
aI505
aI24
aI13874
aI458
aI24
aI3
aI751
aI93
aI3315
aI4386
aI3874
aI122
aI4544
aI24
aI63765
asg6
S'The steepest drop in fertility occurred in the 1970s before one child per family was implemented in 1979  .'
p11
ss.