(dp1
S'input'
p2
(dp3
S'encoded'
p4
(lp5
I64
aI2179
aI43
aI24
aI3
aI475
aI7
aI12436
aI3364
asS'ori'
p6
S'This house believes in the use of affirmative action'
p7
ssS'output'
p8
(dp9
g4
(lp10
I3
aI20
aI2032
aI63
aI9491
aI52633
aI417
aI443
aI593
aI316
aI547
aI45
aI28802
aI4358
aI81
aI1782
aI4729
aI87
aI63
aI3
aI4358
aI81
aI6335
aI89
aI16137
aI238
aI24
aI3
aI5930
aI11
aI89
aI569
aI1432
aI7
aI15748
aI19
aI63
aI2240
aI63765
asg6
S'The Left proposed that Berlin Gymnasien should no longer be allowed to expel students who perform poorly so that the students who won a Gymnasium place in the lottery have a fair chance of graduating from that school  .'
p11
ss.