(dp1
S'input'
p2
(dp3
S'encoded'
p4
(lp5
I64
aI2179
aI43
aI63
aI6670
aI546
aI417
aI316
aI89
aI1334
aI3108
aI7
aI4849
aI1886
aI2855
asS'ori'
p6
S'This house believes that wind power should be a primary focus of future energy supply'
p7
ssS'output'
p8
(dp9
g4
(lp10
I5107
aI5134
aI6859
aI73
aI622
aI6488
aI34
aI5148
aI546
aI2855
aI182
aI153
aI174
aI6421
aI45
aI3
aI150
aI5121
aI24
aI3
aI102
aI45
aI3709
aI250
aI60
aI1235
aI2497
aI3497
aI2855
aI32572
aI63765
asg6
S'Diesel generators  originally or primarily installed for emergency power supply are often also connected to the National Grid in the UK to help deal with short term demand supply mismatches  .'
p11
ss.