(dp1
S'input'
p2
(dp3
S'encoded'
p4
(lp5
I64
aI2179
aI394
aI5370
aI3
aI5286
asS'ori'
p6
S'This house would abolish the monarchy'
p7
ssS'output'
p8
(dp9
g4
(lp10
I24
aI2390
aI751
aI3
aI5455
aI7
aI3
aI5286
aI24
aI3
aI6465
aI7
aI2390
aI122
aI4377
aI1058
aI41
aI3
aI6416
aI7
aI459
aI63765
asg6
S'In China  before the abolition of the monarchy in 1912  the Emperor of China was traditionally regarded as the ruler of "All under heaven" .'
p11
ss.