(dp1
S'input'
p2
(dp3
S'encoded'
p4
(lp5
I64
aI2179
aI394
aI4261
aI8667
aI3
aI9361
aI5
aI17069
asS'ori'
p6
S'This house would prohibit burning the stars and stripes'
p7
ssS'output'
p8
(dp9
g4
(lp10
I257
aI3
aI667
aI2086
aI70
aI24
aI68
aI472
aI493
aI3
aI5449
aI3386
aI3470
aI3
aI70
aI394
aI14600
aI316
aI2481
aI87
aI46390
aI2481
aI24
aI68
aI63
aI273
aI394
aI316
aI443
aI1068
aI34
aI3
aI2483
aI45
aI1255
aI351
aI6528
aI3266
aI10
aI2444
aI493
aI3
aI57
aI7
aI2381
aI63765
asg6
S'If the New York law in fact prohibited "words" against the flag  Black wrote  the law would unquestionably be unconstitutional  so blatantly unconstitutional  in fact  that there would be no need for the Court to balance any purported legitimate state interests against the defendant\'s freedom of speech  .'
p11
ss.