(dp1
S'input'
p2
(dp3
S'encoded'
p4
(lp5
I64
aI2179
aI13605
aI2258
aI45
aI2194
asS'ori'
p6
S'This house prefers trade to aid'
p7
ssS'output'
p8
(dp9
g4
(lp10
I134
aI88
aI1944
aI51
aI4350
aI24
aI3
aI5229
aI7
aI3269
aI41
aI4359
aI75
aI3
aI78
aI3603
aI1546
aI63765
asg6
S'It may involve an improvement in the quality of life as perceived by the people undergoing change  .'
p11
ss.