(dp1
S'input'
p2
(dp3
S'encoded'
p4
(lp5
I64
aI2179
aI394
aI1499
aI3
aI8115
aI34564
aI17106
asS'ori'
p6
S'This house would build the Keystone XL pipeline'
p7
ssS'output'
p8
(dp9
g4
(lp10
I134
aI116
aI3
aI13214
aI1869
aI34
aI14211
aI10733
aI24
aI159
aI1445
aI19939
aI604
aI3
aI8835
aI11
aI45
aI1368
aI5240
aI3802
aI291
aI7161
aI397
aI380
aI6320
aI7
aI89
aI64
aI1735
aI86
aI45
aI316
aI5649
aI75
aI89
aI2609
aI10617
aI63765
asg6
S'It is the favourite method for distributing beer in such large stadiums  because the bars have to overcome big differences between demands during various stages of a match; this allows them to be supplied by a central tank .'
p11
ss.