(dp1
S'input'
p2
(dp3
S'encoded'
p4
(lp5
I64
aI2179
aI43
aI63
aI187
aI417
aI99
aI16642
aI3
aI6449
aI7
aI3935
asS'ori'
p6
S'This house believes that states should not subsidize the growing of tobacco'
p7
ssS'output'
p8
(dp9
g4
(lp10
I93
aI2035
aI353
aI63
aI3585
aI14833
aI14986
aI122
aI566
aI60
aI149
aI5027
aI14833
aI3375
aI298
aI3
aI248
aI13513
aI923
aI14836
aI63765
asg6
S'One study found that parental smoking cessation was associated with less adolescent smoking  except when the other parent currently smoked  .'
p11
ss.