(dp1
S'input'
p2
(dp3
S'encoded'
p4
(lp5
I64
aI2179
aI394
aI5370
aI3
aI5286
asS'ori'
p6
S'This house would abolish the monarchy'
p7
ssS'output'
p8
(dp9
g4
(lp10
I51
aI10477
aI2526
aI2167
aI3713
aI3714
aI24
aI2555
aI5047
aI63
aI3
aI2471
aI7
aI15283
aI2428
aI63
aI417
aI312
aI211
aI2488
aI2591
aI45
aI3
aI169
aI226
aI2428
aI3
aI4980
aI5
aI382
aI5015
aI63765
asg6
S'An Angus Reid Strategies poll conducted in September 2007 reported that the majority of Canadians  53%  thought that "Canada should end its formal ties to the British monarchy"  while 35% thought the contrary  and 12% were unsure  .'
p11
ss.