(dp1
S'input'
p2
(dp3
S'encoded'
p4
(lp5
I64
aI2179
aI43
aI63
aI2659
aI417
aI1690
aI3
aI12048
aI7
aI19084
asS'ori'
p6
S'This house believes that Israel should lift the blockade of Gaza'
p7
ssS'output'
p8
(dp9
g4
(lp10
I6859
aI134
aI122
aI2428
aI63
aI3
aI19191
aI10318
aI394
aI48
aI3
aI19096
aI131
aI24
aI24839
aI2791
aI63
aI3
aI15185
aI394
aI316
aI121
aI45
aI1958
aI1021
aI45
aI1022
aI214
aI63765
asg6
S'Originally it was thought that the Mavi Marmara would lead the flotilla  but in mid-June  IHH announced that the ship would be unable to sail due to technical issues  .'
p11
ss.