(dp1
S'input'
p2
(dp3
S'encoded'
p4
(lp5
I64
aI2179
aI43
aI63
aI6670
aI546
aI417
aI316
aI89
aI1334
aI3108
aI7
aI4849
aI1886
aI2855
asS'ori'
p6
S'This house believes that wind power should be a primary focus of future energy supply'
p7
ssS'output'
p8
(dp9
g4
(lp10
I5173
aI2882
aI5
aI5078
aI311
aI177
aI28671
aI138
aI3577
aI34
aI2761
aI60
aI177
aI2448
aI7
aI6670
aI397
aI3203
aI7
aI982
aI3497
aI88
aI316
aI534
aI63765
asg6
S'Storage  export and load management: at high penetrations (more than 30%)  solutions (described below) for dealing with high output of wind during periods of low demand may be required .'
p11
ss.