(dp1
S'input'
p2
(dp3
S'encoded'
p4
(lp5
I64
aI2179
aI43
aI63
aI134
aI116
aI400
aI21
aI34
aI3
aI260
aI45
aI3439
aI57
aI7
aI2381
asS'ori'
p6
S'This house believes that it is sometimes right for the government to restrict freedom of speech'
p7
ssS'output'
p8
(dp9
g4
(lp10
I24
aI3
aI102
aI260
aI2173
aI63
aI134
aI440
aI443
aI2969
aI45
aI16585
aI16643
aI604
aI7
aI5046
aI63
aI120
aI3567
aI463
aI316
aI788
aI41
aI5492
aI63
aI21
aI63765
asg6
S'In 2009  the UK government stated that it had no plans to ratify Protocol 4 because of concerns that those articles could be taken as conferring that right  .'
p11
ss.