(dp1
S'input'
p2
(dp3
S'encoded'
p4
(lp5
I64
aI2179
aI43
aI63
aI2157
aI2565
aI493
aI19084
aI382
aI4850
asS'ori'
p6
S"This house believes that Israel's 2008-2009 military operations against Gaza were justified"
p7
ssS'output'
p8
(dp9
g4
(lp10
I41
aI89
aI296
aI117
aI2900
aI7
aI2240
aI4358
aI5
aI2900
aI7
aI23510
aI3862
aI497
aI114
aI3
aI20227
aI440
aI297
aI45
aI1576
aI4364
aI820
aI63765
asg6
S'As a result  only 40 percent of school students and 60 percent of kindergarten children attended  though the municipality had decided to keep schools open  .'
p11
ss.