(dp1
S'input'
p2
(dp3
S'encoded'
p4
(lp5
I64
aI2179
aI394
aI2976
aI12243
aI24
aI954
aI126
aI1560
aI10723
asS'ori'
p6
S'This house would implement playoffs in collegiate level American football'
p7
ssS'output'
p8
(dp9
g4
(lp10
I24
aI421
aI45
aI5046
aI1191
aI3
aI13235
aI7
aI2333
aI4144
aI24
aI3
aI863
aI34949
aI21656
aI100
aI2985
aI11
aI418
aI3
aI15525
aI291
aI3
aI1183
aI3481
aI45
aI3
aI1530
aI34956
aI14324
aI5
aI271
aI5985
aI4364
aI41
aI71
aI45
aI248
aI14324
aI5
aI271
aI284
aI4364
aI63765
asg6
S'In addition to concerns about the inclusion of non-AQ (Automatic Qualifying) conference teams in the five BCS bowls  some critics have noted the disparities between the amounts paid to the six AQ conferences and their respective schools  as opposed to other conferences and their own schools .'
p11
ss.