(dp1
S'input'
p2
(dp3
S'encoded'
p4
(lp5
I64
aI2179
aI43
aI63
aI3
aI4991
aI7
aI180
aI417
aI316
aI5396
aI19
aI3
aI169
aI10
asS'ori'
p6
S'This house believes that the Church of England should be separated from the British state'
p7
ssS'output'
p8
(dp9
g4
(lp10
I233
aI45
aI64
aI4642
aI3
aI260
aI83
aI4998
aI19
aI1708
aI1589
aI14
aI2767
aI2860
aI5
aI117
aI358
aI2767
aI5332
aI34
aI271
aI6733
aI6203
aI14
aI4830
aI63765
asg6
S"According to this conception  the government must refrain from taking positions on religious doctrine and only consider religious subjects for their practical consequences on inhabitants' lives ."
p11
ss.