(dp1
S'input'
p2
(dp3
S'encoded'
p4
(lp5
I64
aI2179
aI43
aI63
aI2157
aI2565
aI493
aI19084
aI382
aI4850
asS'ori'
p6
S"This house believes that Israel's 2008-2009 military operations against Gaza were justified"
p7
ssS'output'
p8
(dp9
g4
(lp10
I24
aI51
aI3625
aI3714
aI75
aI1560
aI2999
aI7
aI70
aI5
aI809
aI432
aI20392
aI24
aI3
aI6056
aI720
aI2219
aI25146
aI4103
aI63765
aI53825
aI5
aI19088
aI5378
aI26390
aI29724
aI15
aI2173
aI63
aI155
aI5810
aI63
aI3
aI19389
aI905
aI394
aI11
aI7038
aI13020
aI34
aI3
aI626
aI187
aI5
aI248
aI2203
aI2686
aI24
aI2157
aI6006
aI63765
asg6
S'In an interview conducted by Al-Jazeera  American Professor of law and former Lieutenant Colonel in the Israeli Defense Forces Amos N . Guiora and Palestinian politician Mustafa Barghouti both stated that they believed that the Goldstone report would have massive ramifications for the United States and other countries involved in military conflicts .'
p11
ss.