(dp1
S'input'
p2
(dp3
S'encoded'
p4
(lp5
I64
aI2179
aI235
aI839
aI4168
aI7
aI4996
aI34759
asS'ori'
p6
S'This house supports direct election of city mayors'
p7
ssS'output'
p8
(dp9
g4
(lp10
I25480
aI7
aI61043
aI88
aI63765
asg6
S'|- Isle of Wight 5 May 2005 28 786 43 .7 37 097 56 .3 60 .4  .'
p11
ss.