(dp1
S'input'
p2
(dp3
S'encoded'
p4
(lp5
I64
aI2179
aI394
aI2773
aI12505
asS'ori'
p6
S'This house would embrace multiculturalism'
p7
ssS'output'
p8
(dp9
g4
(lp10
I136
aI138
aI64
aI155
aI182
aI18483
aI45
aI3709
aI13188
aI1462
aI1191
aI2604
aI5
aI51814
aI214
aI5
aI860
aI45
aI193
aI89
aI9100
aI5
aI12360
aI1849
aI63765
asg6
S'More than this  they are eager to help enhance understanding about complex and polarizing issues  and committed to providing a reliable and timely response .'
p11
ss.