(dp1
S'input'
p2
(dp3
S'encoded'
p4
(lp5
I64
aI2179
aI43
aI63
aI2157
aI2565
aI493
aI19084
aI382
aI4850
asS'ori'
p6
S"This house believes that Israel's 2008-2009 military operations against Gaza were justified"
p7
ssS'output'
p8
(dp9
g4
(lp10
I14
aI2555
aI89
aI4761
aI905
aI75
aI2800
aI5590
aI11276
aI122
aI5162
aI890
aI11612
aI2446
aI24
aI8452
aI5
aI248
aI6521
aI6048
aI905
aI7
aI3
aI626
aI2138
aI68
aI179
aI4160
aI14
aI3
aI19084
aI63765
asg6
S'On September 15  2009  a 574 page report by UN inquiry team was released  officially titled "Human Rights in Palestine and Other Occupied Arab Territories: Report of the United Nations Fact Finding Mission on the Gaza Conflict" .'
p11
ss.