(dp1
S'input'
p2
(dp3
S'encoded'
p4
(lp5
I64
aI2179
aI43
aI223
aI2138
aI11
aI89
aI21
aI45
aI2185
aI372
asS'ori'
p6
S'This house believes all nations have a right to nuclear weapons'
p7
ssS'output'
p8
(dp9
g4
(lp10
I24
aI2390
aI5
aI2265
aI2340
aI3
aI2268
aI3
aI1447
aI7
aI3
aI863
aI2185
aI2280
aI2273
aI24
aI3
aI2268
aI45
aI1453
aI87
aI63765
asg6
S'In 1992 China and France signed the treaty  the last of the five nuclear powers named in the treaty to do so .'
p11
ss.