(dp1
S'input'
p2
(dp3
S'encoded'
p4
(lp5
I64
aI2179
aI394
aI60
aI23587
asS'ori'
p6
S'This house would re-engage with Myanmar'
p7
ssS'output'
p8
(dp9
g4
(lp10
I9486
aI2250
aI439
aI9487
aI19105
aI19106
aI2820
aI45
aI2873
aI24
aI3
aI3889
aI7058
aI24
aI23587
aI63765
asg6
S'Nobel Peace Prize laureate Desmond Tutu urged to intervene in the ongoing protests in Myanmar .'
p11
ss.