(dp1
S'input'
p2
(dp3
S'encoded'
p4
(lp5
I64
aI2179
aI394
aI2017
aI3807
aI314
aI3433
asS'ori'
p6
S'This house would ban partial birth abortions'
p7
ssS'output'
p8
(dp9
g4
(lp10
I3
aI70
aI2126
aI4228
aI443
aI3871
aI45
aI16548
aI3485
aI73
aI3280
aI63765
asg6
S'The law itself contains no reference to gestational age or viability .'
p11
ss.