(dp1
S'input'
p2
(dp3
S'encoded'
p4
(lp5
I64
aI2179
aI43
aI63
aI3376
aI4938
aI417
aI316
aI3537
asS'ori'
p6
S'This house believes that endangered species should be protected'
p7
ssS'output'
p8
(dp9
g4
(lp10
I217
aI7
aI3
aI35
aI5166
aI14
aI6635
aI5
aI24
aI2506
aI7
aI177
aI2445
aI2598
aI11794
aI55
aI1719
aI12
aI3158
aI63765
asg6
S'Most of the natural habitat on islands and in areas of high human population density has already been destroyed (WRI  2003) .'
p11
ss.