(dp1
S'input'
p2
(dp3
S'encoded'
p4
(lp5
I64
aI2179
aI394
aI2773
aI12505
asS'ori'
p6
S'This house would embrace multiculturalism'
p7
ssS'output'
p8
(dp9
g4
(lp10
I3
aI2497
aI116
aI416
aI45
aI4506
aI3
aI4573
aI60
aI3
aI475
aI7
aI3
aI414
aI3716
aI63765
asg6
S'The term is used to address the controversy with the use of the word minority  .'
p11
ss.