(dp1
S'input'
p2
(dp3
S'encoded'
p4
(lp5
I64
aI2179
aI394
aI117
aI7428
aI21151
aI34
aI11389
aI2042
aI24
aI4364
asS'ori'
p6
S'This house would only teach abstinence for sex education in schools'
p7
ssS'output'
p8
(dp9
g4
(lp10
I100
aI3439
aI3757
aI45
aI2083
aI6049
aI5
aI1416
aI248
aI10252
aI4799
aI159
aI41
aI155
aI11
aI45
aI316
aI17814
aI2613
aI1517
aI131
aI246
aI24
aI323
aI155
aI13551
aI14709
aI81
aI6702
aI75
aI248
aI258
aI63765
asg6
S"Some restrict access to local residents and apply other admission criteria  such as they have to be injection drug users  but generally in Europe they don't exclude addicts who consume by other means ."
p11
ss.