(dp1
S'input'
p2
(dp3
S'encoded'
p4
(lp5
I64
aI2179
aI43
aI63
aI187
aI417
aI99
aI16642
aI3
aI6449
aI7
aI3935
asS'ori'
p6
S'This house believes that states should not subsidize the growing of tobacco'
p7
ssS'output'
p8
(dp9
g4
(lp10
I134
aI116
aI25231
aI19459
aI25232
aI24
aI3
aI2674
aI5101
aI366
aI9257
aI11
aI12
aI6950
aI5
aI139
aI521
aI89
aI1699
aI1051
aI7
aI7065
aI3217
aI4658
aI158
aI5057
aI19503
aI20270
aI5
aI14013
aI63765
asg6
S'It is involuntarily inhaled  lingers in the air hours after cigarettes have been extinguished  and can cause a wide range of adverse health effects  including cancer  respiratory infections and asthma  .'
p11
ss.