(dp1
S'input'
p2
(dp3
S'encoded'
p4
(lp5
I64
aI2179
aI43
aI24
aI3
aI475
aI7
aI12436
aI3364
asS'ori'
p6
S'This house believes in the use of affirmative action'
p7
ssS'output'
p8
(dp9
g4
(lp10
I3
aI9404
aI7
aI3
aI12938
aI417
aI316
aI24
aI5294
aI60
aI3
aI4913
aI7
aI3
aI34
aI1343
aI34
aI3
aI1028
aI5560
aI7
aI11065
aI5606
aI3
aI9404
aI88
aI707
aI10248
aI717
aI14
aI12951
aI6029
aI958
aI138
aI100
aI3471
aI3706
aI159
aI41
aI5860
aI12410
aI63765
asg6
S'The evaluation of the applicant should be in accord with the duties of the position; for example  for the job opening of choir director  the evaluation may judge applicants based on musical knowledge rather than some arbitrary criterion such as hair color  .'
p11
ss.