(dp1
S'input'
p2
(dp3
S'encoded'
p4
(lp5
I64
aI2179
aI43
aI63
aI134
aI116
aI400
aI21
aI34
aI3
aI260
aI45
aI3439
aI57
aI7
aI2381
asS'ori'
p6
S'This house believes that it is sometimes right for the government to restrict freedom of speech'
p7
ssS'output'
p8
(dp9
g4
(lp10
I3
aI3957
aI7
aI12717
aI70
aI24
aI217
aI1565
aI2203
aI10177
aI24
aI2997
aI75
aI3
aI369
aI4990
aI4991
aI5
aI220
aI45
aI686
aI5
aI708
aI3
aI2448
aI7
aI29184
aI63765
asg6
S'The origins of copyright law in most European countries lie in efforts by the Roman Catholic Church and governments to regulate and control the output of printers  .'
p11
ss.