(dp1
S'input'
p2
(dp3
S'encoded'
p4
(lp5
I64
aI2179
aI43
aI24
aI3
aI475
aI7
aI12436
aI3364
asS'ori'
p6
S'This house believes in the use of affirmative action'
p7
ssS'output'
p8
(dp9
g4
(lp10
I114
aI3
aI8502
aI443
aI10250
aI12379
aI159
aI12906
aI395
aI643
aI887
aI9876
aI34
aI89
aI157
aI7
aI271
aI2705
aI39890
aI5
aI5709
aI3
aI673
aI7
aI20584
aI7208
aI2230
aI67
aI92
aI100
aI5761
aI4718
aI5869
aI1636
aI57760
aI5
aI6561
aI5
aI3
aI673
aI7
aI7208
aI2230
aI445
aI887
aI18847
aI63765
asg6
S"Though the Qur'an expresses no racial prejudice  such prejudices later developed among Arabs for a variety of reasons: their extensive conquests and slave trade; the influence of Aristotelian ideas regarding slavery  which some Muslim philosophers directed towards Zanj (East African) and Turkic peoples; and the influence of Judeo-Christian ideas regarding divisions among humankind  ."
p11
ss.