(dp1
S'input'
p2
(dp3
S'encoded'
p4
(lp5
I64
aI2179
aI43
aI63
aI3
aI4990
aI4991
aI116
aI4850
aI24
aI12166
aI3
aI475
aI7
aI3532
aI3290
aI7
aI4714
asS'ori'
p6
S'This house believes that the Catholic Church is justified in forbidding the use of barrier methods of contraception'
p7
ssS'output'
p8
(dp9
g4
(lp10
I24
aI25
aI8649
aI34
aI3
aI3570
aI7
aI3
aI2543
aI7
aI3
aI282
aI2417
aI1886
aI2904
aI42
aI5781
aI1792
aI1518
aI12656
aI7
aI3
aI2028
aI55
aI12
aI89
aI2544
aI19
aI3
aI3565
aI5
aI2836
aI45
aI96
aI211
aI364
aI63765
asg6
S'In his message for the 50th anniversary of the founding of the International Atomic Energy Agency  he confirmed: "The Holy See  fully approving of the IAEA\'s goal  has been a member from the organisation\'s foundation and continues to support its activity .'
p11
ss.