(dp1
S'input'
p2
(dp3
S'encoded'
p4
(lp5
I64
aI2179
aI394
aI2976
aI12243
aI24
aI954
aI126
aI1560
aI10723
asS'ori'
p6
S'This house would implement playoffs in collegiate level American football'
p7
ssS'output'
p8
(dp9
g4
(lp10
I3
aI1592
aI5159
aI3
aI34949
aI1515
aI3
aI10
aI306
aI92
aI146
aI63
aI3
aI329
aI11276
aI329
aI11276
aI257
aI3
aI329
aI11276
aI55
aI1719
aI10984
aI41
aI89
aI2333
aI24
aI3
aI5563
aI34949
aI15338
aI116
aI2944
aI51
aI11023
aI45
aI89
aI34949
aI20731
aI319
aI63765
asg6
S'The following season  the BCS adopted the "Kansas State Rule " which provides that the 3rd ranked team (or 4th ranked team if the 3rd ranked team has already qualified as a conference champion) in the final BCS standings is assured an invitation to a BCS bowl game .'
p11
ss.