(dp1
S'input'
p2
(dp3
S'encoded'
p4
(lp5
I64
aI2179
aI394
aI2017
aI3807
aI314
aI3433
asS'ori'
p6
S'This house would ban partial birth abortions'
p7
ssS'output'
p8
(dp9
g4
(lp10
I24
aI3
aI626
aI2549
aI3
aI3257
aI2784
aI4427
aI3257
aI3375
aI24
aI4192
aI4581
aI63765
asg6
S'In the United Kingdom  the Abortion Act 1967 legalized abortion  except in Northern Ireland .'
p11
ss.