(dp1
S'input'
p2
(dp3
S'encoded'
p4
(lp5
I64
aI2179
aI43
aI24
aI3
aI475
aI7
aI12436
aI3364
asS'ori'
p6
S'This house believes in the use of affirmative action'
p7
ssS'output'
p8
(dp9
g4
(lp10
I2768
aI7
aI3657
aI116
aI3537
aI5
aI7650
aI75
aI217
aI2138
aI81
aI2755
aI2637
aI2768
aI63765
asg6
S'Diversity of language is protected and respected by most nations who value cultural diversity .'
p11
ss.