(dp1
S'input'
p2
(dp3
S'encoded'
p4
(lp5
I64
aI2179
aI394
aI2773
aI12505
asS'ori'
p6
S'This house would embrace multiculturalism'
p7
ssS'output'
p8
(dp9
g4
(lp10
I675
aI3409
aI12505
aI153
aI17363
aI214
aI7
aI17
aI5052
aI63765
asg6
S'Like liberal multiculturalism often ignores issues of social class .'
p11
ss.