(dp1
S'input'
p2
(dp3
S'encoded'
p4
(lp5
I64
aI2179
aI394
aI4325
aI2042
aI270
aI89
aI11605
aI3324
asS'ori'
p6
S'This house would fund education using a voucher scheme'
p7
ssS'output'
p8
(dp9
g4
(lp10
I3007
aI43
aI63
aI10805
aI24
aI658
aI4364
aI417
aI99
aI316
aI472
aI311
aI3
aI2503
aI73
aI10
aI126
aI3646
aI417
aI134
aI316
aI221
aI3557
aI45
aI268
aI24
aI63765
asg6
S'Paul believes that prayer in public schools should not be prohibited at the federal or state level  nor should it be made compulsory to engage in  .'
p11
ss.