(dp1
S'input'
p2
(dp3
S'encoded'
p4
(lp5
I64
aI2179
aI394
aI4325
aI2042
aI270
aI89
aI11605
aI3324
asS'ori'
p6
S'This house would fund education using a voucher scheme'
p7
ssS'output'
p8
(dp9
g4
(lp10
I17108
aI11
aI12
aI7267
aI5087
aI864
aI7
aI5207
aI7631
aI311
aI223
aI2363
aI63765
asg6
S'Latinos have been systematically shut out of educational opportunities at all levels .'
p11
ss.