(dp1
S'input'
p2
(dp3
S'encoded'
p4
(lp5
I64
aI2179
aI43
aI63
aI2659
aI417
aI1690
aI3
aI12048
aI7
aI19084
asS'ori'
p6
S'This house believes that Israel should lift the blockade of Gaza'
p7
ssS'output'
p8
(dp9
g4
(lp10
I24
aI425
aI366
aI3
aI237
aI11240
aI7
aI3
aI19084
aI2223
aI2659
aI742
aI134
aI394
aI501
aI24
aI100
aI2893
aI2194
aI131
aI47
aI302
aI211
aI16
aI12048
aI24
aI128
aI45
aI10009
aI3
aI546
aI7
aI16619
aI63765
asg6
S'In January 2009  after the first phase of the Gaza War  Israel said it would allow in some humanitarian aid  but will continue its economic blockade in order to weaken the power of Hamas  .'
p11
ss.