(dp1
S'input'
p2
(dp3
S'encoded'
p4
(lp5
I64
aI2179
aI394
aI5370
aI3
aI5286
asS'ori'
p6
S'This house would abolish the monarchy'
p7
ssS'output'
p8
(dp9
g4
(lp10
I3
aI5356
aI2784
aI56
aI3
aI254
aI45
aI6250
aI4679
aI63765
asg6
S"The Fixed-term Parliaments Act 2011 removed the monarch's authority to dissolve Parliament ."
p11
ss.