(dp1
S'input'
p2
(dp3
S'encoded'
p4
(lp5
I64
aI2179
aI394
aI5842
aI3569
aI446
aI13498
asS'ori'
p6
S'This house would introduce year round schooling'
p7
ssS'output'
p8
(dp9
g4
(lp10
I132
aI2397
aI24790
aI256
aI83
aI1074
aI5018
aI16855
aI5
aI3217
aI5
aI19279
aI4656
aI63765
asg6
S'These grants stipulate programs must include academic  enrichment  and health and nutrition components .'
p11
ss.