(dp1
S'input'
p2
(dp3
S'encoded'
p4
(lp5
I64
aI2179
aI394
aI2017
aI3807
aI314
aI3433
asS'ori'
p6
S'This house would ban partial birth abortions'
p7
ssS'output'
p8
(dp9
g4
(lp10
I64
aI16575
aI174
aI2425
aI45
aI5711
aI21
aI2142
aI675
aI5711
aI8641
aI5711
aI4317
aI5
aI3292
aI2471
aI206
aI51
aI2601
aI2369
aI2210
aI24
aI3
aI4408
aI171
aI63765
asg6
S'This divergence also led to Christian Right organizations like Christian Voice  Christian Coalition and Moral Majority having an increasingly strong role in the Republican Party .'
p11
ss.