(dp1
S'input'
p2
(dp3
S'encoded'
p4
(lp5
I64
aI2179
aI394
aI4261
aI8667
aI3
aI9361
aI5
aI17069
asS'ori'
p6
S'This house would prohibit burning the stars and stripes'
p7
ssS'output'
p8
(dp9
g4
(lp10
I42
aI122
aI768
aI13633
aI34
aI5986
aI5
aI4883
aI14
aI3516
aI24
aI3
aI2145
aI63765
aI3337
aI2483
aI34
aI3
aI3337
aI7
aI4393
aI63765
asg6
S'He was then indicted for violating  462(b)(3) and put on trial in the U .S . District Court for the District of Massachusetts  .'
p11
ss.