(dp1
S'input'
p2
(dp3
S'encoded'
p4
(lp5
I64
aI2179
aI43
aI63
aI3
aI4990
aI4991
aI116
aI4850
aI24
aI12166
aI3
aI475
aI7
aI3532
aI3290
aI7
aI4714
asS'ori'
p6
S'This house believes that the Catholic Church is justified in forbidding the use of barrier methods of contraception'
p7
ssS'output'
p8
(dp9
g4
(lp10
I89
aI4990
aI5116
aI3313
aI122
aI25892
aI45
aI3
aI21648
aI7
aI4044
aI63765
aI6632
aI1136
aI3007
aI5
aI2062
aI89
aI2767
aI2178
aI4071
aI45
aI3
aI85
aI7
aI3
aI3862
aI7
aI3
aI1376
aI3
aI237
aI8383
aI7
aI2767
aI4306
aI2062
aI24
aI3
aI2809
aI63765
asg6
S'A Catholic convert  she was attratced to the spirituality of St . Vincent de Paul and founded a religious community dedicated to the care of the children of the poor - the first congregation of religious sisters founded in the USA .'
p11
ss.