(dp1
S'input'
p2
(dp3
S'encoded'
p4
(lp5
I64
aI2179
aI43
aI63
aI3
aI4538
aI7
aI4434
aI7793
aI283
aI45
aI3586
aI417
aI316
aI577
asS'ori'
p6
S'This house believes that the sale of violent video games to minors should be banned'
p7
ssS'output'
p8
(dp9
g4
(lp10
I64
aI55
aI2425
aI100
aI2478
aI45
aI3307
aI5404
aI221
aI75
aI100
aI4741
aI3418
aI791
aI736
aI89
aI1351
aI7
aI3292
aI40194
aI63765
asg6
S'This has led some scholars to conclude statements made by some researchers merely fit into a cycle of media-based moral panics (e .g .'
p11
ss.