(dp1
S'input'
p2
(dp3
S'encoded'
p4
(lp5
I64
aI2179
aI394
aI1499
aI177
aI1819
aI34
aI160
asS'ori'
p6
S'This house would build high rises for housing'
p7
ssS'output'
p8
(dp9
g4
(lp10
I11279
aI1444
aI24
aI3
aI10194
aI4394
aI803
aI55
aI174
aI11556
aI60
aI3
aI4038
aI7
aI3
aI10194
aI2569
aI2136
aI63765
asg6
S'Apartment building in the Melbourne metropolitan area has also escalated with the advent of the Melbourne 2030 planning policy .'
p11
ss.