(dp1
S'input'
p2
(dp3
S'encoded'
p4
(lp5
I64
aI2179
aI43
aI223
aI2138
aI11
aI89
aI21
aI45
aI2185
aI372
asS'ori'
p6
S'This house believes all nations have a right to nuclear weapons'
p7
ssS'output'
p8
(dp9
g4
(lp10
I3
aI3024
aI7
aI3
aI267
aI2430
aI9930
aI12053
aI45
aI12053
aI7069
aI12054
aI289
aI3
aI12055
aI7
aI89
aI3059
aI285
aI2223
aI63765
asg6
S'The leaders of the two superpowers stood nose to nose  seemingly poised over the beginnings of a third world war .'
p11
ss.