(dp1
S'input'
p2
(dp3
S'encoded'
p4
(lp5
I64
aI2179
aI43
aI63
aI2659
aI417
aI1690
aI3
aI12048
aI7
aI19084
asS'ori'
p6
S'This house believes that Israel should lift the blockade of Gaza'
p7
ssS'output'
p8
(dp9
g4
(lp10
I134
aI31544
aI63
aI3
aI12048
aI122
aI300
aI1968
aI75
aI3
aI2800
aI63765
asg6
S'It forgot that the blockade was deemed illegal by the UN .'
p11
ss.