(dp1
S'input'
p2
(dp3
S'encoded'
p4
(lp5
I64
aI2179
aI43
aI63
aI187
aI417
aI99
aI16642
aI3
aI6449
aI7
aI3935
asS'ori'
p6
S'This house believes that states should not subsidize the growing of tobacco'
p7
ssS'output'
p8
(dp9
g4
(lp10
I526
aI134
aI55
aI12
aI353
aI63
aI13169
aI139
aI9210
aI572
aI2497
aI25420
aI24
aI19485
aI5
aI24
aI25421
aI63765
asg6
S'Furthermore  it has been found that nicotine can activate long term potentiation in vivo and in vitro .'
p11
ss.