(dp1
S'input'
p2
(dp3
S'encoded'
p4
(lp5
I64
aI2179
aI43
aI63
aI2659
aI417
aI1690
aI3
aI12048
aI7
aI19084
asS'ori'
p6
S'This house believes that Israel should lift the blockade of Gaza'
p7
ssS'output'
p8
(dp9
g4
(lp10
I3
aI27055
aI171
aI55
aI3
aI21
aI45
aI12999
aI3
aI2829
aI158
aI6898
aI311
aI89
aI7003
aI11571
aI459
aI92
aI4342
aI7
aI2893
aI7500
aI116
aI504
aI63765
asg6
S'The blockading party has the right to fashion the arrangements  including search at a nearby port  under which passage of humanitarian goods is permitted  .'
p11
ss.