(dp1
S'input'
p2
(dp3
S'encoded'
p4
(lp5
I64
aI2179
aI43
aI223
aI2138
aI11
aI89
aI21
aI45
aI2185
aI372
asS'ori'
p6
S'This house believes all nations have a right to nuclear weapons'
p7
ssS'output'
p8
(dp9
g4
(lp10
I13378
aI282
aI2997
aI45
aI3018
aI2185
aI2586
aI4319
aI366
aI285
aI2223
aI2236
aI298
aI3
aI2859
aI4445
aI2032
aI3
aI11845
aI7074
aI7
aI2273
aI366
aI1316
aI11845
aI237
aI4233
aI45
aI3
aI626
aI2138
aI2417
aI1886
aI2130
aI63765
asg6
S"Earnest international efforts to promote nuclear non-proliferation began soon after World War II  when the Truman Administration proposed the Baruch Plan of 1946  named after Bernard Baruch  America's first representative to the United Nations Atomic Energy Commission ."
p11
ss.