(dp1
S'input'
p2
(dp3
S'encoded'
p4
(lp5
I64
aI2179
aI394
aI4325
aI2042
aI270
aI89
aI11605
aI3324
asS'ori'
p6
S'This house would fund education using a voucher scheme'
p7
ssS'output'
p8
(dp9
g4
(lp10
I14
aI2959
aI2714
aI451
aI89
aI2029
aI24
aI3
aI2211
aI2490
aI14
aI2470
aI6015
aI2784
aI4692
aI63765
aI3584
aI658
aI6228
aI45
aI1985
aI6647
aI51
aI2097
aI32532
aI2490
aI14
aI2470
aI6015
aI5363
aI263
aI14
aI5878
asg6
S'On April 20  2007  Obama introduced a bill in the Senate (Shareholder Vote on Executive Compensation Act - S . 1181) requiring public companies to give shareholders an annual nonbinding vote on executive compensation  popularly called "Say on pay ."'
p11
ss.