(dp1
S'input'
p2
(dp3
S'encoded'
p4
(lp5
I64
aI2179
aI394
aI4261
aI8667
aI3
aI9361
aI5
aI17069
asS'ori'
p6
S'This house would prohibit burning the stars and stripes'
p7
ssS'output'
p8
(dp9
g4
(lp10
I2116
aI3
aI2211
aI116
aI93
aI2490
aI1235
aI7
aI6883
aI3
aI2477
aI3264
aI63765
asg6
S'2006 June 28  The Senate is one vote short of passing the Constitutional amendment (see above) .'
p11
ss.