(dp1
S'input'
p2
(dp3
S'encoded'
p4
(lp5
I64
aI2179
aI394
aI2741
aI3
aI1560
aI6025
aI2784
asS'ori'
p6
S'This house would pass the American Jobs Act'
p7
ssS'output'
p8
(dp9
g4
(lp10
I100
aI186
aI63
aI151
aI195
aI5
aI2131
aI364
aI1576
aI195
aI19
aI9073
aI92
aI258
aI183
aI725
aI78
aI2383
aI45
aI5656
aI271
aI5428
aI311
aI3
aI520
aI7494
aI131
aI1019
aI63765
asg6
S'Some argue that minimum wages and union activity keep wages from falling  which means too many people want to sell their labour at the going price but cannot .'
p11
ss.