(dp1
S'input'
p2
(dp3
S'encoded'
p4
(lp5
I64
aI2179
aI394
aI4325
aI2042
aI270
aI89
aI11605
aI3324
asS'ori'
p6
S'This house would fund education using a voucher scheme'
p7
ssS'output'
p8
(dp9
g4
(lp10
I3862
aI81
aI2118
aI19
aI1376
aI5743
aI952
aI64
aI4925
aI92
aI7393
aI86
aI311
aI89
aI1707
aI19
aI3
aI5099
aI63765
asg6
S'Children who come from poor families experience this inequality  which puts them at a disadvantage from the start .'
p11
ss.