(dp1
S'input'
p2
(dp3
S'encoded'
p4
(lp5
I64
aI2179
aI43
aI63
aI323
aI417
aI10009
aI211
aI9035
aI249
aI45
aI3426
aI211
aI2144
aI595
aI17
aI96
asS'ori'
p6
S'This house believes that Europe should weaken its austerity measures to guarantee its citizens greater social support'
p7
ssS'output'
p8
(dp9
g4
(lp10
I24
aI421
aI42
aI4246
aI63
aI327
aI500
aI99
aI4136
aI7
aI5806
aI7
aI211
aI6941
aI653
aI89
aI2838
aI24
aI2448
aI24
aI211
aI52
aI131
aI1016
aI3
aI696
aI7
aI108
aI5101
aI45
aI1576
aI86
aI1779
aI311
aI3
aI1643
aI413
aI41
aI2293
aI5
aI248
aI2203
aI182
aI773
aI9451
aI45
aI3442
aI249
aI45
aI163
aI134
aI1694
aI34
aI9452
aI45
aI6941
aI63765
asg6
S'In addition he notes that Germany did not lay-off hundreds of thousands of its workers despite a decline in output in its economy but reduced the number of working hours to keep them employed  at the same time as Spain and other countries are being pressured to adopt measures to make it easier for employers to lay-off workers  .'
p11
ss.