(dp1
S'input'
p2
(dp3
S'encoded'
p4
(lp5
I64
aI2179
aI394
aI15841
aI2736
asS'ori'
p6
S'This house would disband ASEAN'
p7
ssS'output'
p8
(dp9
g4
(lp10
I2736
aI544
aI3570
aI5475
aI5688
aI75
aI13385
aI20635
aI31841
aI75
aI31848
aI7004
aI63765
asg6
S"ASEAN Rise  ASEAN's 40th Anniversary song  composed by Dick Lee ; lyrics by Stefanie Sun  ."
p11
ss.