(dp1
S'input'
p2
(dp3
S'encoded'
p4
(lp5
I64
aI2179
aI43
aI17
aI4941
aI857
aI3211
asS'ori'
p6
S'This house believes social deprivation causes crime'
p7
ssS'output'
p8
(dp9
g4
(lp10
I17028
aI4453
aI63
aI19744
aI182
aI3250
aI120
aI81
aI11
aI12
aI9542
aI60
aI570
aI285
aI3293
aI45
aI32747
aI131
aI81
aI11
aI12
aI729
aI3
aI7631
aI155
aI1068
aI45
aI316
aI1031
aI45
aI4860
aI671
aI2170
aI63765
asg6
S"Merton claims that innovators are mostly those who have been socialised with similar world views to conformists  but who have been denied the opportunities they need to be able to legitimately achieve society's goals  ."
p11
ss.