(dp1
S'input'
p2
(dp3
S'encoded'
p4
(lp5
I64
aI2179
aI394
aI5370
aI7146
aI4585
aI2446
asS'ori'
p6
S'This house would abolish intellectual property rights'
p7
ssS'output'
p8
(dp9
g4
(lp10
I604
aI3
aI21
aI45
aI89
aI11704
aI116
aI15585
aI64
aI21
aI116
aI2378
aI45
aI8
aI11704
aI6417
aI63765
asg6
S'Because the right to a patent is intensely date-driven  this right is fundamental to modern patent usage .'
p11
ss.