(dp1
S'input'
p2
(dp3
S'encoded'
p4
(lp5
I64
aI2179
aI394
aI2998
aI3
aI4360
aI7
aI3249
aI6804
aI24
aI3
aI102
asS'ori'
p6
S'This house would encourage the creation of private universities in the UK'
p7
ssS'output'
p8
(dp9
g4
(lp10
I97
aI4370
aI353
aI89
aI570
aI1780
aI34
aI7984
aI5
aI248
aI17
aI4372
aI3672
aI63765
asg6
S'Another survey found a similar situation for humanities and other social sciences professors  .'
p11
ss.