(dp1
S'input'
p2
(dp3
S'encoded'
p4
(lp5
I64
aI2179
aI394
aI117
aI7428
aI21151
aI34
aI11389
aI2042
aI24
aI4364
asS'ori'
p6
S'This house would only teach abstinence for sex education in schools'
p7
ssS'output'
p8
(dp9
g4
(lp10
I217
aI3934
aI1517
aI182
aI2056
aI8681
aI7
aI132
aI9006
aI5
aI3456
aI12486
aI8008
aI675
aI5
aI1260
aI55937
aI8278
aI182
aI200
aI3
aI696
aI7
aI12120
aI63765
asg6
S"Most alcohol users are now aware of these dangers and safe ride techniques like 'designated drivers' and free taxicab programmes are reducing the number of drunk-driving accidents ."
p11
ss.