(dp1
S'input'
p2
(dp3
S'encoded'
p4
(lp5
I64
aI2179
aI43
aI223
aI2138
aI11
aI89
aI21
aI45
aI2185
aI372
asS'ori'
p6
S'This house believes all nations have a right to nuclear weapons'
p7
ssS'output'
p8
(dp9
g4
(lp10
I24
aI88
aI545
aI3286
aI7
aI2185
aI8811
aI2661
aI2791
aI63
aI134
aI440
aI3714
aI1530
aI7640
aI8811
aI24
aI3
aI41532
aI12973
aI863
aI14
aI3
aI5
aI93
aI14
aI3
aI7
aI63
aI4728
aI63765
asg6
S"In May 1998  within weeks of India's nuclear tests  Pakistan announced that it had conducted six underground tests in the Chagai Hills  five on the 28th and one on the 30th of that month ."
p11
ss.