(dp1
S'input'
p2
(dp3
S'encoded'
p4
(lp5
I64
aI2179
aI43
aI63
aI3
aI4990
aI4991
aI116
aI4850
aI24
aI12166
aI3
aI475
aI7
aI3532
aI3290
aI7
aI4714
asS'ori'
p6
S'This house believes that the Catholic Church is justified in forbidding the use of barrier methods of contraception'
p7
ssS'output'
p8
(dp9
g4
(lp10
I42633
aI227
aI41
aI51
aI1343
aI3
aI9643
aI221
aI75
aI2779
aI9475
aI42634
aI7
aI89
aI3868
aI75
aI6359
aI495
aI3007
aI2236
aI1460
aI45
aI25
aI63765
asg6
S'Mumford gives as an example the citation made by August Bernhard Hasler of a comment by Pope John Paul II prior to his papacy:  .'
p11
ss.