(dp1
S'input'
p2
(dp3
S'encoded'
p4
(lp5
I64
aI2179
aI43
aI63
aI134
aI116
aI400
aI21
aI34
aI3
aI260
aI45
aI3439
aI57
aI7
aI2381
asS'ori'
p6
S'This house believes that it is sometimes right for the government to restrict freedom of speech'
p7
ssS'output'
p8
(dp9
g4
(lp10
I42
aI742
aI3
aI260
aI174
aI3478
aI3
aI897
aI99
aI45
aI6332
aI10250
aI5
aI2767
aI2251
aI45
aI3
aI6
aI63
aI134
aI463
aI1992
aI150
aI2702
aI5
aI658
aI128
aI63765
asg6
S'He said the Government also wanted the media not to undermine racial and religious harmony to the extent that it could threaten national security and public order .'
p11
ss.