(dp1
S'input'
p2
(dp3
S'encoded'
p4
(lp5
I64
aI2179
aI394
aI16756
aI20435
asS'ori'
p6
S'This house would criminalize blasphemy'
p7
ssS'output'
p8
(dp9
g4
(lp10
I6859
aI134
aI3133
aI3871
aI45
aI20435
aI7171
aI89
aI3518
aI75
aI3
aI25469
aI2564
aI2180
aI14
aI3
aI2475
aI63765
asg6
S'Originally  it omitted reference to blasphemy  pending a review by the Oireachtas Joint Committee on the Constitution .'
p11
ss.