(dp1
S'input'
p2
(dp3
S'encoded'
p4
(lp5
I64
aI2179
aI43
aI63
aI187
aI417
aI99
aI16642
aI3
aI6449
aI7
aI3935
asS'ori'
p6
S'This house believes that states should not subsidize the growing of tobacco'
p7
ssS'output'
p8
(dp9
g4
(lp10
I25425
aI7
aI14833
aI2554
aI73
aI14953
aI14836
aI63765
asg6
S'Aespective of smoking status or quantity smoked  .'
p11
ss.