(dp1
S'input'
p2
(dp3
S'encoded'
p4
(lp5
I64
aI2179
aI43
aI63
aI2659
aI417
aI1690
aI3
aI12048
aI7
aI19084
asS'ori'
p6
S'This house believes that Israel should lift the blockade of Gaza'
p7
ssS'output'
p8
(dp9
g4
(lp10
I9121
aI657
aI897
aI2198
aI63
aI15024
aI3
aI2130
aI41
aI89
aI1623
aI45
aI2986
aI3
aI12048
aI7
aI19084
aI3
aI475
aI7
aI972
aI45
aI1049
aI134
aI5
aI3
aI19084
aI19096
aI19097
aI24864
aI24863
aI4001
aI3
aI6056
aI260
aI63
aI3
aI2130
aI463
aI99
aI1453
aI211
aI1028
aI252
aI135
aI15972
aI2280
aI63765
asg6
S'Amid widespread media criticism that painted the commission as a tool to justify the blockade of Gaza  the use of force to maintain it and the Gaza flotilla raid  Jacob Turkel told the Israeli government that the commission could not do its job without expanded investigative powers .'
p11
ss.