(dp1
S'input'
p2
(dp3
S'encoded'
p4
(lp5
I64
aI2179
aI394
aI16756
aI20435
asS'ori'
p6
S'This house would criminalize blasphemy'
p7
ssS'output'
p8
(dp9
g4
(lp10
I42
aI122
aI174
aI534
aI45
aI2214
aI736
aI89
aI20503
aI34
aI25
aI1228
aI10670
aI397
aI25
aI3269
aI1020
aI24
aI3
aI7779
aI7
aI5
aI75
aI80
aI24
aI3
aI7779
aI7
aI45
aI20504
aI1792
aI174
aI2473
aI63765
asg6
S'He was also required to enter into a recognizance for his good behaviour during his life  himself in the sum of 3000 and by others in the sum of 2000 (As to recognizances  see also binding over) .'
p11
ss.