(dp1
S'input'
p2
(dp3
S'encoded'
p4
(lp5
I64
aI2179
aI43
aI63
aI134
aI116
aI400
aI21
aI34
aI3
aI260
aI45
aI3439
aI57
aI7
aI2381
asS'ori'
p6
S'This house believes that it is sometimes right for the government to restrict freedom of speech'
p7
ssS'output'
p8
(dp9
g4
(lp10
I24
aI54900
aI646
aI2670
aI3
aI1565
aI2483
aI7
aI2445
aI2446
aI743
aI63
aI3370
aI7
aI2544
aI187
aI45
aI3
aI2533
aI1258
aI45
aI2506
aI459
aI63
aI1112
aI708
aI41
aI89
aI296
aI7
aI2157
aI3364
aI63765
asg6
S"In Loizidou v Turkey  the European Court of Human Rights ruled that jurisdiction of member states to the convention extended to areas under that state's effective control as a result of military action ."
p11
ss.