(dp1
S'input'
p2
(dp3
S'encoded'
p4
(lp5
I64
aI2179
aI43
aI63
aI1036
aI4828
aI33250
aI116
aI25073
aI45
aI3315
aI4562
asS'ori'
p6
S'This house believes that male infant circumcision is tantamount to child abuse'
p7
ssS'output'
p8
(dp9
g4
(lp10
I3348
aI4793
aI1191
aI40
aI64
aI1472
aI7077
aI92
aI88
aI296
aI24
aI1900
aI413
aI45
aI37764
aI4664
aI8803
aI3797
aI63765
asg6
S'Opinions differ about how this decreased sensitivity  which may result in prolonged time to orgasm  affects sexual satisfaction .'
p11
ss.