(dp1
S'input'
p2
(dp3
S'encoded'
p4
(lp5
I64
aI2179
aI43
aI63
aI134
aI116
aI400
aI21
aI34
aI3
aI260
aI45
aI3439
aI57
aI7
aI2381
asS'ori'
p6
S'This house believes that it is sometimes right for the government to restrict freedom of speech'
p7
ssS'output'
p8
(dp9
g4
(lp10
I24
aI459
aI14942
aI8384
aI1715
aI4692
aI63765
aI15153
aI89
aI7509
aI3343
aI81
aI440
aI5605
aI14
aI2869
aI2272
aI4276
aI705
aI24
aI5
aI3
aI14942
aI5162
aI89
aI905
aI2618
aI63
aI3
aI2860
aI8988
aI3
aI658
aI376
aI5
aI10048
aI1260
aI2381
aI2446
aI9161
aI75
aI3
aI237
aI3264
aI63765
asg6
S"In 1985  under FCC Chairman Mark S . Fowler  a communications attorney who had served on Ronald Reagan's presidential campaign staff in 1976 and 1980  the FCC released a report stating that the doctrine hurt the public interest and violated free speech rights guaranteed by the First Amendment ."
p11
ss.