(dp1
S'input'
p2
(dp3
S'encoded'
p4
(lp5
I64
aI2179
aI43
aI24
aI3
aI475
aI7
aI12436
aI3364
asS'ori'
p6
S'This house believes in the use of affirmative action'
p7
ssS'output'
p8
(dp9
g4
(lp10
I923
aI273
aI182
aI51
aI2845
aI2639
aI12466
aI73
aI2121
aI6245
aI1047
aI41
aI24
aI2450
aI63765
asg6
S'Currently  there are an estimated 160 million Dalits or Scheduled Castes (formerly known as "untouchables") in India  .'
p11
ss.