(dp1
S'input'
p2
(dp3
S'encoded'
p4
(lp5
I64
aI2179
aI43
aI17
aI4941
aI857
aI3211
asS'ori'
p6
S'This house believes social deprivation causes crime'
p7
ssS'output'
p8
(dp9
g4
(lp10
I1074
aI63
aI100
aI78
aI182
aI12193
aI45
aI5
aI63
aI10129
aI3269
aI4607
aI88
aI4466
aI691
aI273
aI116
aI443
aI3426
aI63
aI47
aI296
aI19
aI17
aI3364
aI63765
asg6
S'Counter-arguments include that some people are prone to conflict-avoidance  short-term-oriented  and that imminent life difficulties may arise since there is no guarantee that life-improvement will result from social action  .'
p11
ss.