(dp1
S'input'
p2
(dp3
S'encoded'
p4
(lp5
I64
aI2179
aI13605
aI2258
aI45
aI2194
asS'ori'
p6
S'This house prefers trade to aid'
p7
ssS'output'
p8
(dp9
g4
(lp10
I64
aI55
aI891
aI24
aI89
aI760
aI7
aI1059
aI3237
aI5
aI2747
aI63
aI139
aI316
aI1964
aI940
aI45
aI163
aI2194
aI79
aI1796
aI63765
asg6
S'This has resulted in a body of best practices and principles that can be applied globally to make aid work better .'
p11
ss.