(dp1
S'input'
p2
(dp3
S'encoded'
p4
(lp5
I64
aI2179
aI394
aI2017
aI628
asS'ori'
p6
S'This house would ban gambling'
p7
ssS'output'
p8
(dp9
g4
(lp10
I24
aI327
aI3
aI260
aI55
aI89
aI11844
aI14
aI3
aI5930
aI145
aI53
aI134
aI2729
aI89
aI864
aI7
aI145
aI63765
asg6
S'In Germany  the government has a monopoly on the lottery system  where it offers a "pick 6 out of 49" system .'
p11
ss.