(dp1
S'input'
p2
(dp3
S'encoded'
p4
(lp5
I64
aI2179
aI43
aI63
aI1036
aI4828
aI33250
aI116
aI25073
aI45
aI3315
aI4562
asS'ori'
p6
S'This house believes that male infant circumcision is tantamount to child abuse'
p7
ssS'output'
p8
(dp9
g4
(lp10
I25
aI2868
aI34821
aI8357
aI2484
aI3
aI6474
aI131
aI589
aI2100
aI51
aI6010
aI34
aI4307
aI81
aI33242
aI271
aI5745
aI114
aI99
aI271
aI8242
aI4218
aI73
aI10006
aI63765
asg6
S'His successor Antoninus Pius (138-161) upheld the decree  but around 140 included an exemption for Jews who circumcised their sons  though not their servants  slaves  or converts  .'
p11
ss.