(dp1
S'input'
p2
(dp3
S'encoded'
p4
(lp5
I64
aI2179
aI43
aI223
aI2138
aI11
aI89
aI21
aI45
aI2185
aI372
asS'ori'
p6
S'This house believes all nations have a right to nuclear weapons'
p7
ssS'output'
p8
(dp9
g4
(lp10
I2230
aI5035
aI24
aI2304
aI13642
aI97
aI1849
aI2173
aI63
aI3718
aI7075
aI7
aI2145
aI63765
aI2219
aI394
aI11
aI15024
aI89
aI3718
aI23075
aI63765
asg6
S'" Regarding reductions in Russian stockpiles  another response stated that "a similarly one-sided examination of [reductions in] U .S . forces would have painted a similarly dire portrait" .'
p11
ss.