(dp1
S'input'
p2
(dp3
S'encoded'
p4
(lp5
I64
aI2179
aI394
aI117
aI7428
aI21151
aI34
aI11389
aI2042
aI24
aI4364
asS'ori'
p6
S'This house would only teach abstinence for sex education in schools'
p7
ssS'output'
p8
(dp9
g4
(lp10
I357
aI11
aI174
aI1607
aI1191
aI89
aI2838
aI7
aI24
aI667
aI20270
aI7504
aI56098
aI56099
aI56100
aI56101
aI2161
aI7
aI3217
aI5
aI3874
aI9
aI63765
asg6
S'We have also brought about a decline of 50% in new infections annually .Shri Gulam Nabi Azad  Honble Minister of Health and Family Welfare  2011  .'
p11
ss.