(dp1
S'input'
p2
(dp3
S'encoded'
p4
(lp5
I64
aI2179
aI394
aI5370
aI3
aI5286
asS'ori'
p6
S'This house would abolish the monarchy'
p7
ssS'output'
p8
(dp9
g4
(lp10
I430
aI6554
aI6012
aI40977
aI26667
aI40972
aI273
aI182
aI1354
aI20
aI923
aI63765
asg6
S'|- Duke Duchess Duchy  Dukedom Ducal Dux There are none left currently .'
p11
ss.