(dp1
S'input'
p2
(dp3
S'encoded'
p4
(lp5
I64
aI2179
aI43
aI63
aI2157
aI2565
aI493
aI19084
aI382
aI4850
asS'ori'
p6
S"This house believes that Israel's 2008-2009 military operations against Gaza were justified"
p7
ssS'output'
p8
(dp9
g4
(lp10
I41
aI89
aI296
aI7
aI725
aI7058
aI2657
aI2098
aI588
aI3
aI19087
aI2581
aI1634
aI45
aI501
aI3
aI11166
aI736
aI338
aI3590
aI63765
asg6
S'As a result of many protests  Egypt opened up the Rafah Border Crossing to allow the wounded into Egyptian hospitals  .'
p11
ss.