(dp1
S'input'
p2
(dp3
S'encoded'
p4
(lp5
I64
aI2179
aI394
aI2976
aI12243
aI24
aI954
aI126
aI1560
aI10723
asS'ori'
p6
S'This house would implement playoffs in collegiate level American football'
p7
ssS'output'
p8
(dp9
g4
(lp10
I24
aI3303
aI6335
aI3
aI5240
aI2087
aI60
aI89
aI781
aI7
aI5
aI122
aI973
aI51
aI851
aI4464
aI45
aI3
aI34959
aI20731
aI653
aI99
aI773
aI329
aI24
aI3
aI1200
aI7
aI3
aI34949
aI15338
aI63765
asg6
S'In 2010  Connecticut won the Big East with a record of 8-4 and was awarded an automatic bid to the Fiesta Bowl despite not being ranked in the top 25 of the BCS standings  .'
p11
ss.