(dp1
S'input'
p2
(dp3
S'encoded'
p4
(lp5
I64
aI2179
aI43
aI63
aI1036
aI4828
aI33250
aI116
aI25073
aI45
aI3315
aI4562
asS'ori'
p6
S'This house believes that male infant circumcision is tantamount to child abuse'
p7
ssS'output'
p8
(dp9
g4
(lp10
I60322
aI805
aI1849
aI397
aI19586
aI45
aI3131
aI395
aI114
aI22728
aI41
aI2449
aI45
aI54648
aI63765
asg6
S'Taddio (1997)Stronger pain response during vaccination 4 to 6 months later  though attenuated as compared to placebo .'
p11
ss.