(dp1
S'input'
p2
(dp3
S'encoded'
p4
(lp5
I64
aI2179
aI43
aI63
aI2157
aI2565
aI493
aI19084
aI382
aI4850
asS'ori'
p6
S"This house believes that Israel's 2008-2009 military operations against Gaza were justified"
p7
ssS'output'
p8
(dp9
g4
(lp10
I14
aI425
aI3
aI6054
aI2951
aI3
aI3059
aI3517
aI7
aI3
aI3099
aI60
aI51
aI1274
aI14
aI3
aI13005
aI7
aI19084
aI4996
aI63765
asg6
S'On January 11  the IDF started the third stage of the operation with an attack on the suburbs of Gaza City .'
p11
ss.