(dp1
S'input'
p2
(dp3
S'encoded'
p4
(lp5
I64
aI2179
aI394
aI2773
aI12505
asS'ori'
p6
S'This house would embrace multiculturalism'
p7
ssS'output'
p8
(dp9
g4
(lp10
I15307
aI2042
aI12604
aI63
aI3
aI4849
aI7
aI2145
aI63765
aI2022
aI116
aI15324
aI63765
asg6
S'Multicultural education assumes that the future of U .S . society is pluralistic .'
p11
ss.