(dp1
S'input'
p2
(dp3
S'encoded'
p4
(lp5
I64
aI2179
aI394
aI2976
aI12243
aI24
aI954
aI126
aI1560
aI10723
asS'ori'
p6
S'This house would implement playoffs in collegiate level American football'
p7
ssS'output'
p8
(dp9
g4
(lp10
I3572
aI122
aI3382
aI1592
aI3
aI20731
aI5159
aI60
aI271
aI117
aI50269
aI89
aI481
aI5159
aI852
aI311
aI1403
aI13622
aI63765
asg6
S'Washington (111) was voted #2 following the bowl season with their only blemish a late season loss at Pac-10 champ USC .'
p11
ss.