(dp1
S'input'
p2
(dp3
S'encoded'
p4
(lp5
I64
aI2179
aI394
aI163
aI959
aI2042
aI3557
asS'ori'
p6
S'This house would make physical education compulsory'
p7
ssS'output'
p8
(dp9
g4
(lp10
I159
aI2438
aI182
aI246
aI7997
aI5
aI7993
aI257
aI155
aI2723
aI24
aI1849
aI45
aI5982
aI63765
asg6
S'Such changes are generally beneficial and healthy if they occur in response to exercise .'
p11
ss.