(dp1
S'input'
p2
(dp3
S'encoded'
p4
(lp5
I64
aI2179
aI394
aI2773
aI12505
asS'ori'
p6
S'This house would embrace multiculturalism'
p7
ssS'output'
p8
(dp9
g4
(lp10
I134
aI116
aI1966
aI63
aI2548
aI187
aI81
aI394
aI2623
aI11
aI12
aI16919
aI60
aI89
aI1496
aI2637
aI3914
aI7
aI271
aI284
aI523
aI864
aI45
aI6075
aI12505
aI5
aI63
aI64
aI990
aI20434
aI3
aI2671
aI1261
aI3905
aI63765
asg6
S"It is argued that Nation states  who would previously have been synonymous with a distinctive cultural identity of their own  lose out to enforced multiculturalism and that this ultimately erodes the host nations' distinct culture  ."
p11
ss.