(dp1
S'input'
p2
(dp3
S'encoded'
p4
(lp5
I64
aI2179
aI394
aI190
aI3
aI21
aI45
aI3895
aI834
asS'ori'
p6
S'This house would limit the right to bear arms'
p7
ssS'output'
p8
(dp9
g4
(lp10
I3
aI2322
aI2038
aI10497
aI289
aI223
aI4492
aI4946
aI1374
aI122
aI570
aI24
aI5933
aI45
aI63
aI14542
aI60
aI51
aI229
aI60
aI89
aI3135
aI781
aI3976
aI24
aI3
aI3900
aI131
aI1510
aI149
aI138
aI63
aI566
aI60
aI7932
aI1356
aI1047
aI45
aI316
aI4779
aI34
aI2617
aI159
aI41
aI15942
aI89
aI3900
aI1421
aI3930
aI73
aI3976
aI2487
aI1421
aI60
aI80
aI63765
asg6
S'The increased risk averaged over all homes containing guns was similar in size to that correlated with an individual with a criminal record living in the home  but substantially less than that associated with demographic factors known to be risks for violence  such as renting a home versus ownership  or living alone versus with others  .'
p11
ss.