(dp1
S'input'
p2
(dp3
S'encoded'
p4
(lp5
I64
aI2179
aI43
aI223
aI2138
aI11
aI89
aI21
aI45
aI2185
aI372
asS'ori'
p6
S'This house believes all nations have a right to nuclear weapons'
p7
ssS'output'
p8
(dp9
g4
(lp10
I2046
aI10048
aI3
aI2268
aI75
aI3812
aI24
aI8862
aI366
aI92
aI3
aI626
aI2138
aI2702
aI2132
aI6021
aI2046
aI45
aI991
aI223
aI63765
asg6
S'Iran violated the treaty by performing uranium-enrichment in secret  after which the United Nations Security Council ordered Iran to stop all uranium-enrichment  .'
p11
ss.