(dp1
S'input'
p2
(dp3
S'encoded'
p4
(lp5
I64
aI2179
aI394
aI2017
aI223
aI9058
aI23653
asS'ori'
p6
S'This house would ban all unsustainable logging'
p7
ssS'output'
p8
(dp9
g4
(lp10
I24
aI3
aI12751
aI122
aI2151
aI2639
aI6802
aI6803
aI92
aI116
aI117
aI7
aI3
aI50706
aI3851
aI10
aI63765
asg6
S'In 2001  the Amazon was approximately 5 .4 million square kilometres  which is only 87% of the Amazons original state  .'
p11
ss.