(dp1
S'input'
p2
(dp3
S'encoded'
p4
(lp5
I64
aI2179
aI43
aI63
aI3
aI28431
aI7
aI2157
aI4624
aI75
aI39939
aI27257
aI122
aI4850
asS'ori'
p6
S'This house believes that the leaking of military documents by Anat Kamm was justified'
p7
ssS'output'
p8
(dp9
g4
(lp10
I24
aI3
aI4290
aI12468
aI4135
aI15865
aI29156
aI3
aI7
aI221
aI748
aI75
aI3
aI2784
aI3848
aI3
aI1168
aI7
aI18994
aI45
aI9988
aI271
aI2280
aI75
aI1879
aI3
aI2283
aI7
aI61
aI116
aI557
aI63765
asg6
S'In the 1990s  Senator Daniel Patrick Moynihan deplored the "culture of secrecy" made possible by the Act  noting the tendency of bureaucracies to enlarge their powers by increasing the scope of what is held "secret"  .'
p11
ss.