(dp1
S'input'
p2
(dp3
S'encoded'
p4
(lp5
I64
aI2179
aI43
aI24
aI3
aI475
aI7
aI12436
aI3364
asS'ori'
p6
S'This house believes in the use of affirmative action'
p7
ssS'output'
p8
(dp9
g4
(lp10
I3
aI1447
aI2072
aI7
aI9719
aI3672
aI2814
aI45
aI316
aI570
aI136
aI153
aI138
aI4489
aI75
aI10503
aI1432
aI63765
asg6
S'The last names of Italian professors tended to be similar more often than predicted by random chance  .'
p11
ss.