(dp1
S'input'
p2
(dp3
S'encoded'
p4
(lp5
I64
aI2179
aI43
aI63
aI3
aI21
aI45
aI12715
aI417
aI99
aI316
aI2897
asS'ori'
p6
S'This house believes that the right to asylum should not be absolute'
p7
ssS'output'
p8
(dp9
g4
(lp10
I64
aI122
aI99
aI3
aI13129
aI2581
aI972
aI63
aI440
aI153
aI12
aI3017
aI5
aI440
aI12
aI3394
aI75
aI3
aI3900
aI2181
aI2180
aI24
aI63765
asg6
S'This was not the unified border force that had often been suggested and had been recommended by the Home Affairs Committee in 2001 .'
p11
ss.