(dp1
S'input'
p2
(dp3
S'encoded'
p4
(lp5
I64
aI2179
aI43
aI63
aI3376
aI4938
aI417
aI316
aI3537
asS'ori'
p6
S'This house believes that endangered species should be protected'
p7
ssS'output'
p8
(dp9
g4
(lp10
I89
aI1699
aI157
aI7
aI4975
aI3921
aI5
aI7902
aI182
aI416
aI41
aI1507
aI63765
asg6
S'A wide variety of plants  animals and fungi are used as medicine .'
p11
ss.