(dp1
S'input'
p2
(dp3
S'encoded'
p4
(lp5
I64
aI2179
aI394
aI2017
aI628
asS'ori'
p6
S'This house would ban gambling'
p7
ssS'output'
p8
(dp9
g4
(lp10
I14
aI2959
aI24
aI2145
aI63765
aI4692
aI63765
aI646
aI63765
aI61923
aI10845
aI4047
aI63765
asg6
S'On April 15  2011  in U . S . v . Scheinberg et al .'
p11
ss.