(dp1
S'input'
p2
(dp3
S'encoded'
p4
(lp5
I64
aI2179
aI43
aI63
aI134
aI116
aI400
aI21
aI34
aI3
aI260
aI45
aI3439
aI57
aI7
aI2381
asS'ori'
p6
S'This house believes that it is sometimes right for the government to restrict freedom of speech'
p7
ssS'output'
p8
(dp9
g4
(lp10
I2702
aI7
aI3
aI4509
aI2051
aI139
aI316
aI2052
aI14
aI3
aI57
aI7
aI2381
aI5
aI4640
aI24
aI3
aI376
aI7
aI3
aI2702
aI7
aI3
aI10
aI63765
asg6
S'Security of the State: Reasonable restrictions can be imposed on the freedom of speech and expression  in the interest of the security of the State .'
p11
ss.