(dp1
S'input'
p2
(dp3
S'encoded'
p4
(lp5
I64
aI2179
aI394
aI117
aI7428
aI21151
aI34
aI11389
aI2042
aI24
aI4364
asS'ori'
p6
S'This house would only teach abstinence for sex education in schools'
p7
ssS'output'
p8
(dp9
g4
(lp10
I24
aI2371
aI11389
aI2042
aI116
aI3990
aI19
aI3485
aI73
aI1155
aI899
aI7128
aI7836
aI159
aI41
aI13453
aI5
aI33271
aI63765
asg6
S'In Japan  sex education is mandatory from age 10 or 11  mainly covering biological topics such as menstruation and ejaculation  .'
p11
ss.