(dp1
S'input'
p2
(dp3
S'encoded'
p4
(lp5
I64
aI2179
aI235
aI3
aI2136
aI7
aI3
aI2306
aI7
aI2390
asS'ori'
p6
S'This house supports the one-child policy of the republic of China'
p7
ssS'output'
p8
(dp9
g4
(lp10
I3
aI4649
aI285
aI2333
aI14
aI3495
aI24
aI17790
aI24
aI211
aI2804
aI5
aI1164
aI34
aI3364
aI2031
aI3
aI7457
aI4462
aI7
aI3760
aI3217
aI131
aI685
aI89
aI2495
aI4659
aI7
aI3760
aI2445
aI2446
aI7
aI3495
aI1074
aI271
aI21
aI45
aI11
aI708
aI289
aI5
aI790
aI3465
aI5
aI13739
aI14
aI4114
aI3365
aI45
aI271
aI10953
aI158
aI8803
aI5
aI3760
aI3217
aI1260
aI7
aI10028
aI4933
aI5
aI2617
aI63765
asg6
S"The 1995 Fourth World Conference on Women in Beijing  in its non-binding Declaration and Platform for Action  supported the Cairo Programme's definition of reproductive health  but established a broader context of reproductive rights:The human rights of women include their right to have control over and decide freely and responsibly on matters related to their sexuality  including sexual and reproductive health  free of coercion  discrimination and violence ."
p11
ss.