(dp1
S'input'
p2
(dp3
S'encoded'
p4
(lp5
I64
aI2179
aI235
aI3
aI2136
aI7
aI3
aI2306
aI7
aI2390
asS'ori'
p6
S'This house supports the one-child policy of the republic of China'
p7
ssS'output'
p8
(dp9
g4
(lp10
I233
aI45
aI6359
aI9630
aI9631
aI3
aI4990
aI4991
aI24
aI1341
aI116
aI4415
aI41
aI89
aI2135
aI546
aI24
aI89
aI1780
aI6044
aI2160
aI45
aI63
aI24
aI180
aI5
aI87
aI3
aI878
aI4991
aI24
aI2390
aI116
aI63765
asg6
S'According to Pope Benedict XVI  the Catholic Church in particular is viewed as a foreign power in a situation somewhat analogous to that in Post-Reformation England  and so the official church in China is state-controlled;   .'
p11
ss.