(dp1
S'input'
p2
(dp3
S'encoded'
p4
(lp5
I64
aI2179
aI43
aI63
aI7382
aI116
aI400
aI4713
asS'ori'
p6
S'This house believes that bribery is sometimes acceptable'
p7
ssS'output'
p8
(dp9
g4
(lp10
I24
aI2450
aI3
aI19822
aI7170
aI3933
aI540
aI493
aI7170
aI5
aI89
aI667
aI27719
aI2029
aI263
aI9798
aI31923
aI2029
aI116
aI773
aI2974
aI63765
asg6
S'In India the anti corruption bureau Fights against corruption and a new ombudsman bill called jan lokpal bill is being prepared .'
p11
ss.