(dp1
S'input'
p2
(dp3
S'encoded'
p4
(lp5
I64
aI2179
aI43
aI24
aI3
aI475
aI7
aI12436
aI3364
asS'ori'
p6
S'This house believes in the use of affirmative action'
p7
ssS'output'
p8
(dp9
g4
(lp10
I134
aI116
aI174
aI17321
aI257
aI89
aI2007
aI12496
aI97
aI149
aI20597
aI604
aI3
aI248
aI55
aI2493
aI73
aI8771
aI45
aI3861
aI709
aI7
aI89
aI8803
aI580
aI63765
asg6
S'It is also harassment if a person treats another less favourably because the other has rejected or submitted to unwanted conduct of a sexual nature .'
p11
ss.