(dp1
S'input'
p2
(dp3
S'encoded'
p4
(lp5
I64
aI2179
aI394
aI2017
aI3807
aI314
aI3433
asS'ori'
p6
S'This house would ban partial birth abortions'
p7
ssS'output'
p8
(dp9
g4
(lp10
I29519
aI82
aI116
aI3450
aI12390
aI63765
aI63765
aI226
aI1597
aI14
aI3257
aI55
aI800
aI3
aI3292
aI126
aI7
aI368
aI10065
aI24
aI64
aI5004
aI5
aI55
aI2347
aI24
aI32376
aI7275
aI45
aI89
aI595
aI6536
aI34
aI3269
aI134
aI116
aI3451
aI5870
aI311
aI3
aI1643
aI413
aI7
aI6298
aI10096
aI92
aI3
aI8446
aI2178
aI139
aI99
aI2572
asg6
S'" Feldman  likewise  is emphatically comparative  saying: " . . while Christianity\'s position on abortion has raised the moral level of western civilization in this regard and has succeeded in sensitizing humanity to a greater reverence for life  it is obviously comprised  at the same time  of theological postulates which the Jewish community can not share ."'
p11
ss.