(dp1
S'input'
p2
(dp3
S'encoded'
p4
(lp5
I64
aI2179
aI43
aI63
aI6670
aI546
aI417
aI316
aI89
aI1334
aI3108
aI7
aI4849
aI1886
aI2855
asS'ori'
p6
S'This house believes that wind power should be a primary focus of future energy supply'
p7
ssS'output'
p8
(dp9
g4
(lp10
I3
aI5084
aI116
aI3
aI5084
aI7
aI1663
aI6784
aI6670
aI6738
aI75
aI3229
aI693
aI149
aI138
aI24
aI6391
aI45
aI3
aI7047
aI4491
aI6890
aI3968
aI957
aI63765
asg6
S"The 15b cost is the cost of connecting offshore wind farms by cables typically less than 12&nbsp;km in length  to the UK's nearest suitable onshore connection point ."
p11
ss.