(dp1
S'input'
p2
(dp3
S'encoded'
p4
(lp5
I64
aI2179
aI43
aI24
aI3
aI475
aI7
aI12436
aI3364
asS'ori'
p6
S'This house believes in the use of affirmative action'
p7
ssS'output'
p8
(dp9
g4
(lp10
I233
aI45
aI8696
aI7092
aI5
aI70
aI3353
aI8778
aI89
aI3786
aI4226
aI2223
aI291
aI3
aI1157
aI7643
aI5
aI3
aI3386
aI36282
aI3874
aI89
aI2261
aI5025
aI1560
aI7568
aI8696
aI55
aI2590
aI159
aI1224
aI10250
aI11095
aI887
aI1157
aI7643
aI3024
aI73
aI1108
aI30538
aI63
aI155
aI11
aI3435
aI89
aI14
aI223
aI5946
aI63765
asg6
S'According to gang experts and law enforcement agents  a longstanding race war between the Mexican Mafia and the Black Guerilla family  a rival African American prison gang  has generated such intense racial hatred among Mexican Mafia leaders or shot callers  that they have issued a "green light" on all blacks .'
p11
ss.