(dp1
S'input'
p2
(dp3
S'encoded'
p4
(lp5
I64
aI2179
aI394
aI2773
aI12505
asS'ori'
p6
S'This house would embrace multiculturalism'
p7
ssS'output'
p8
(dp9
g4
(lp10
I3
aI3905
aI7
aI2450
aI116
aI51
aI55320
aI7
aI132
aI4066
aI4155
aI223
aI289
aI3
aI7700
aI2680
aI5
aI3787
aI63
aI182
aI1237
aI20622
aI5545
aI63765
asg6
S'The culture of India is an amalgamation of these diverse sub-cultures spread all over the Indian subcontinent and traditions that are several millennia old  .'
p11
ss.