(dp1
S'input'
p2
(dp3
S'encoded'
p4
(lp5
I64
aI2179
aI394
aI190
aI3
aI21
aI45
aI3895
aI834
asS'ori'
p6
S'This house would limit the right to bear arms'
p7
ssS'output'
p8
(dp9
g4
(lp10
I292
aI442
aI182
aI575
aI4604
aI596
aI5
aI182
aI1047
aI41
aI3
aI2378
aI4283
aI442
aI34
aI3456
aI2611
aI1576
aI3
aI2611
aI6833
aI24
aI89
aI3456
aI1585
aI63765
asg6
S'Three rules are given special importance and are known as the fundamental NRA rules for safe gun handling:Always keep the gun pointed in a safe direction .'
p11
ss.