(dp1
S'input'
p2
(dp3
S'encoded'
p4
(lp5
I64
aI2179
aI394
aI2017
aI628
asS'ori'
p6
S'This house would ban gambling'
p7
ssS'output'
p8
(dp9
g4
(lp10
I3456
aI7709
aI373
aI12175
aI5
aI2425
aI45
aI3
aI237
aI5119
aI7604
aI24
aI63765
asg6
S'Safe transactions became viable and led to the first online casinos in 1994  .'
p11
ss.