(dp1
S'input'
p2
(dp3
S'encoded'
p4
(lp5
I64
aI2179
aI43
aI63
aI2659
aI417
aI1690
aI3
aI12048
aI7
aI19084
asS'ori'
p6
S'This house believes that Israel should lift the blockade of Gaza'
p7
ssS'output'
p8
(dp9
g4
(lp10
I14
aI492
aI3
aI1155
aI31458
aI19163
aI19
aI355
aI24
aI2521
aI7
aI3
aI2017
aI63765
asg6
S'On 4 July  the mainly Canadian-manned Tahrir sailed from Crete in violation of the ban .'
p11
ss.