(dp1
S'input'
p2
(dp3
S'encoded'
p4
(lp5
I64
aI2179
aI394
aI16756
aI20435
asS'ori'
p6
S'This house would criminalize blasphemy'
p7
ssS'output'
p8
(dp9
g4
(lp10
I3
aI11063
aI5
aI3
aI34653
aI1453
aI99
aI3785
aI20435
aI63765
asg6
S'The Quran and the hadith do not mention blasphemy  .'
p11
ss.