(dp1
S'input'
p2
(dp3
S'encoded'
p4
(lp5
I64
aI2179
aI43
aI63
aI820
aI12564
aI182
aI3
aI217
aI1112
aI1869
aI7
aI10656
aI4672
aI34
aI5276
asS'ori'
p6
S'This house believes that open primaries are the most effective method of selecting candidates for elections'
p7
ssS'output'
p8
(dp9
g4
(lp10
I24
aI68
aI70
aI187
aI63
aI64
aI90
aI7
aI5814
aI5334
aI2319
aI60
aI3
aI12172
aI782
aI92
aI139
aI4466
aI298
aI159
aI633
aI182
aI99
aI416
aI47
aI316
aI87
aI279
aI63
aI351
aI145
aI717
aI14
aI3074
aI47
aI1890
aI296
aI24
aI6493
aI63765
asg6
S"In fact  Duverger's law states that this kind of tactical voting  along with the spoiler effect which can arise when such tactics are not used  will be so common that any system based on plurality will eventually result in two-party domination ."
p11
ss.