(dp1
S'input'
p2
(dp3
S'encoded'
p4
(lp5
I64
aI2179
aI43
aI63
aI134
aI116
aI400
aI21
aI34
aI3
aI260
aI45
aI3439
aI57
aI7
aI2381
asS'ori'
p6
S'This house believes that it is sometimes right for the government to restrict freedom of speech'
p7
ssS'output'
p8
(dp9
g4
(lp10
I2326
aI2159
aI45
aI3
aI1405
aI2161
aI8844
aI63765
aI13550
aI2428
aI3
aI260
aI417
aI16846
aI14
aI869
aI57879
aI773
aI34
aI3
aI594
aI2565
aI1851
aI45
aI302
aI7249
aI3
aI897
aI19
aI3427
aI45
aI3427
aI63765
asg6
S'Program Secretary to the Prime Minister  J . Davey  thought the government should concentrate on four areasone being for the Strategic Operations Centre to continue monitoring the media from week to week  .'
p11
ss.