(dp1
S'input'
p2
(dp3
S'encoded'
p4
(lp5
I64
aI2179
aI394
aI16642
aI1376
aI5269
asS'ori'
p6
S'This house would subsidize poor communities'
p7
ssS'output'
p8
(dp9
g4
(lp10
I378
aI3
aI1387
aI291
aI7412
aI5
aI1376
aI12263
aI24
aI217
aI2138
aI63765
asg6
S'However  the gap between rich and poor widened in most nations .'
p11
ss.