(dp1
S'input'
p2
(dp3
S'encoded'
p4
(lp5
I64
aI2179
aI43
aI63
aI2659
aI417
aI1690
aI3
aI12048
aI7
aI19084
asS'ori'
p6
S'This house believes that Israel should lift the blockade of Gaza'
p7
ssS'output'
p8
(dp9
g4
(lp10
I1563
aI12168
aI282
aI62
aI45
aI11544
aI73
aI1690
aI271
aI12048
aI2657
aI5
aI2659
aI1743
aI3
aI2051
aI1696
aI24
aI2116
aI298
aI3
aI19087
aI2581
aI1634
aI19
aI2657
aI45
aI19084
aI55
aI12
aI2916
aI2098
aI75
aI2657
aI5
aI19202
aI2135
aI5496
aI55
aI221
aI134
aI2010
aI63
aI3
aI1634
aI47
aI2455
aI820
aI1155
aI34
aI78
aI131
aI99
aI34
aI7442
aI45
aI867
aI620
aI63765
asg6
S'Facing mounting international calls to ease or lift their blockade  Egypt and Israel lessened the restrictions starting in June 2010  when the Rafah border crossing from Egypt to Gaza has been partially opened by Egypt  and Egypts foreign ministry has made it clear that the crossing will remain open mainly for people  but not for supplies  to go through  .'
p11
ss.