(dp1
S'input'
p2
(dp3
S'encoded'
p4
(lp5
I64
aI2179
aI43
aI24
aI3
aI475
aI7
aI12436
aI3364
asS'ori'
p6
S'This house believes in the use of affirmative action'
p7
ssS'output'
p8
(dp9
g4
(lp10
I41
aI134
aI923
aI1519
aI12436
aI3364
aI620
aI2470
aI128
aI7177
aI45
aI12410
aI2382
aI11389
aI73
aI150
aI5304
asg6
S'As it currently stands  affirmative action through Executive Order 11246 applies to "race  color  religion  sex  or national origin ."'
p11
ss.