(dp1
S'input'
p2
(dp3
S'encoded'
p4
(lp5
I64
aI2179
aI43
aI63
aI2659
aI417
aI1690
aI3
aI12048
aI7
aI19084
asS'ori'
p6
S'This house believes that Israel should lift the blockade of Gaza'
p7
ssS'output'
p8
(dp9
g4
(lp10
I155
aI382
aI8709
aI75
aI3
aI6085
aI5738
aI1296
aI1607
aI611
aI45
aI6710
aI5
aI89
aI1896
aI3727
aI382
aI9249
aI63765
asg6
S'They were intercepted by the Greek coast guard  brought back to shore  and a few activists were arrested .'
p11
ss.