(dp1
S'input'
p2
(dp3
S'encoded'
p4
(lp5
I64
aI2179
aI43
aI63
aI2659
aI417
aI1690
aI3
aI12048
aI7
aI19084
asS'ori'
p6
S'This house believes that Israel should lift the blockade of Gaza'
p7
ssS'output'
p8
(dp9
g4
(lp10
I6056
aI3136
aI11
aI3017
aI45
aI1958
aI45
aI2670
aI92
aI394
aI4576
aI703
aI45
aI3326
aI2231
aI7
aI4922
aI24
aI25123
aI5
aI271
aI44
aI45
aI20304
aI2437
aI7
aI3
aI10921
aI8579
aI63765
asg6
S"Israeli groups have suggested 'reverse flotillas' to sail to Turkey  which would bring attention to Turkey's alleged history of oppression in Kurdistan and their attempts to suppress recognition of the Armenian Genocide  ."
p11
ss.