(dp1
S'input'
p2
(dp3
S'encoded'
p4
(lp5
I64
aI2179
aI43
aI63
aI6670
aI546
aI417
aI316
aI89
aI1334
aI3108
aI7
aI4849
aI1886
aI2855
asS'ori'
p6
S'This house believes that wind power should be a primary focus of future energy supply'
p7
ssS'output'
p8
(dp9
g4
(lp10
I3
aI2837
aI7
aI650
aI3223
aI24
aI89
aI3569
aI45
aI64
aI5507
aI5086
aI116
aI263
aI3
aI4204
aI5085
aI63765
asg6
S'The ratio of actual productivity in a year to this theoretical maximum is called the capacity factor .'
p11
ss.