(dp1
S'input'
p2
(dp3
S'encoded'
p4
(lp5
I64
aI2179
aI43
aI17
aI4941
aI857
aI3211
asS'ori'
p6
S'This house believes social deprivation causes crime'
p7
ssS'output'
p8
(dp9
g4
(lp10
I4720
aI39935
aI524
aI864
aI63
aI12405
aI1610
aI116
aI2794
aI75
aI17
aI2768
aI24
aI292
aI3708
aI63765
asg6
S'Peter Blau points out that intergroup contact is influenced by social diversity in three ways  .'
p11
ss.