(dp1
S'input'
p2
(dp3
S'encoded'
p4
(lp5
I64
aI2179
aI394
aI2976
aI12243
aI24
aI954
aI126
aI1560
aI10723
asS'ori'
p6
S'This house would implement playoffs in collegiate level American football'
p7
ssS'output'
p8
(dp9
g4
(lp10
I292
aI4799
aI382
aI12206
aI7
aI3
aI11276
aI12206
aI7
aI223
aI2333
aI4144
aI5
aI696
aI7
aI4144
aI24
aI3
aI1200
aI63765
asg6
S'Three criteria were used: Rank of the highest-ranked team  rank of all conference teams  and number of teams in the top 25 .'
p11
ss.