(dp1
S'input'
p2
(dp3
S'encoded'
p4
(lp5
I64
aI2179
aI43
aI223
aI2138
aI11
aI89
aI21
aI45
aI2185
aI372
asS'ori'
p6
S'This house believes all nations have a right to nuclear weapons'
p7
ssS'output'
p8
(dp9
g4
(lp10
I3
aI626
aI187
aI55
aI174
aI7674
aI725
aI5806
aI7
aI6036
aI7
aI11695
aI6117
aI24
aI943
aI2185
aI372
aI34
aI6937
aI736
aI5190
aI5092
aI63765
asg6
S"The United States has also purchased many thousands of weapons' worth of uranium formerly in Soviet nuclear weapons for conversion into reactor fuel  ."
p11
ss.