(dp1
S'input'
p2
(dp3
S'encoded'
p4
(lp5
I64
aI2179
aI394
aI3830
aI3
aI475
aI7
aI9441
aI13132
aI3102
aI24
aI276
aI381
asS'ori'
p6
S'This house would permit the use of performance enhancing drugs in professional sports'
p7
ssS'output'
p8
(dp9
g4
(lp10
I10723
aI55
aI378
aI12
aI13
aI34
aI99
aI683
aI12338
aI13448
aI24
aI9441
aI13132
aI2613
aI7194
aI63765
asg6
S'Football has however been criticised for not sanctioning players implicated in performance enhancing drug scandals .'
p11
ss.