(dp1
S'input'
p2
(dp3
S'encoded'
p4
(lp5
I64
aI2179
aI43
aI63
aI323
aI417
aI10009
aI211
aI9035
aI249
aI45
aI3426
aI211
aI2144
aI595
aI17
aI96
asS'ori'
p6
S'This house believes that Europe should weaken its austerity measures to guarantee its citizens greater social support'
p7
ssS'output'
p8
(dp9
g4
(lp10
I1920
aI3
aI3900
aI2159
aI24624
aI88
aI24625
aI3552
aI3
aI3518
aI75
aI5462
aI7
aI102
aI2459
aI70
aI45
aI1358
aI755
aI3
aI4394
aI631
aI139
aI118
aI4345
aI271
aI284
aI2280
aI7
aI11653
aI5
aI17082
aI270
aI120
aI3663
aI63765
asg6
S'Nevertheless  the Home Secretary Theresa May vociferously advocates the review by authorities of UK terrorism law to determine whether the Metropolitan Police can legally extend their own powers of arrest and detention using those provisions .'
p11
ss.