(dp1
S'input'
p2
(dp3
S'encoded'
p4
(lp5
I64
aI2179
aI43
aI63
aI17574
aI417
aI316
aI3481
aI34
aI271
aI79
asS'ori'
p6
S'This house believes that housewives should be paid for their work'
p7
ssS'output'
p8
(dp9
g4
(lp10
I223
aI3495
aI182
aI417
aI17574
aI1021
aI45
aI271
aI3760
aI4836
aI63765
asg6
S'All women are (and should be) housewives due to their reproductive capacities .'
p11
ss.