(dp1
S'input'
p2
(dp3
S'encoded'
p4
(lp5
I64
aI2179
aI43
aI63
aI3
aI4538
aI7
aI4434
aI7793
aI283
aI45
aI3586
aI417
aI316
aI577
asS'ori'
p6
S'This house believes that the sale of violent video games to minors should be banned'
p7
ssS'output'
p8
(dp9
g4
(lp10
I4741
aI475
aI10503
aI6018
aI45
aI1222
aI45
aI31518
aI3
aI4658
aI7
aI61
aI1480
aI182
aI4673
aI41
aI3059
aI7970
aI63765
asg6
S'Researchers use random assignment to attempt to neutralize the effects of what commonly are cited as third variables (i .e .'
p11
ss.