(dp1
S'input'
p2
(dp3
S'encoded'
p4
(lp5
I64
aI2179
aI394
aI2017
aI223
aI9058
aI23653
asS'ori'
p6
S'This house would ban all unsustainable logging'
p7
ssS'output'
p8
(dp9
g4
(lp10
I64
aI116
aI604
aI14
aI1478
aI5
aI149
aI7374
aI23638
aI6762
aI8123
aI183
aI1551
aI34
aI36930
aI45
aI316
aI16
aI1887
aI24
aI2506
aI60
aI89
aI2369
aI5158
aI5159
aI273
aI116
aI243
aI89
aI2038
aI7
aI8254
aI4121
aI15344
aI89
aI18859
aI17529
aI751
aI134
aI36932
aI63765
asg6
S'This is because on older and less fertile soils trees grow too slowly for silviculture to be economic  whilst in areas with a strong dry season there is always a risk of forest fires destroying a tree crop before it matures .'
p11
ss.