(dp1
S'input'
p2
(dp3
S'encoded'
p4
(lp5
I64
aI2179
aI43
aI8629
aI116
aI3
aI117
aI998
asS'ori'
p6
S'This house believes atheism is the only way'
p7
ssS'output'
p8
(dp9
g4
(lp10
I34
aI1343
aI89
aI1361
aI139
aI316
aI24
aI1035
aI45
aI2247
aI604
aI3
aI8843
aI7
aI3
aI1361
aI876
aI99
aI1781
aI134
aI60
aI89
aI4163
aI4927
aI7
aI773
aI77
aI134
aI116
aI3107
aI131
aI117
aI41
aI938
aI41
aI3
aI350
aI14577
aI45
aI3
aI1361
aI773
aI3107
aI63765
asg6
S'For example a belief can be in contrast to faith because the holder of the belief might not hold it with a complete degree of being certain it is true but only as far as the evidence pertains to the belief being true  .'
p11
ss.