(dp1
S'input'
p2
(dp3
S'encoded'
p4
(lp5
I64
aI2179
aI43
aI63
aI323
aI417
aI10009
aI211
aI9035
aI249
aI45
aI3426
aI211
aI2144
aI595
aI17
aI96
asS'ori'
p6
S'This house believes that Europe should weaken its austerity measures to guarantee its citizens greater social support'
p7
ssS'output'
p8
(dp9
g4
(lp10
I89
aI2369
aI52
aI5
aI9073
aI9022
aI9074
aI547
aI3
aI260
aI7
aI6095
aI45
aI5110
aI1445
aI8875
aI8877
aI63765
asg6
S'A strong economy and falling bond yields allowed the government of Greece to run large structural deficits .'
p11
ss.