(dp1
S'input'
p2
(dp3
S'encoded'
p4
(lp5
I64
aI2179
aI394
aI2017
aI628
asS'ori'
p6
S'This house would ban gambling'
p7
ssS'output'
p8
(dp9
g4
(lp10
I3
aI979
aI3884
aI5172
aI7620
aI373
aI89
aI7621
aI7
aI628
aI364
aI60
aI667
aI668
aI1756
aI41
aI3
aI2645
aI7607
aI1863
aI63765
asg6
S"The lower Mississippi River valley became a hotbed of gambling activity with New Orleans emerging as the nation's leading gaming center ."
p11
ss.