(dp1
S'input'
p2
(dp3
S'encoded'
p4
(lp5
I64
aI2179
aI43
aI63
aI134
aI116
aI400
aI21
aI34
aI3
aI260
aI45
aI3439
aI57
aI7
aI2381
asS'ori'
p6
S'This house believes that it is sometimes right for the government to restrict freedom of speech'
p7
ssS'output'
p8
(dp9
g4
(lp10
I32999
aI5
aI33000
aI8377
aI5257
aI7149
aI24
aI3
aI2935
aI7252
aI2190
aI2246
aI63
aI134
aI139
aI2723
aI41
aI63765
asg6
S'Croteau and Hoynes discuss corporate censorship in the news publishing business  observing that it can occur as self-censorship .'
p11
ss.