(dp1
S'input'
p2
(dp3
S'encoded'
p4
(lp5
I64
aI2179
aI43
aI63
aI3
aI21
aI45
aI12715
aI417
aI99
aI316
aI2897
asS'ori'
p6
S'This house believes that the right to asylum should not be absolute'
p7
ssS'output'
p8
(dp9
g4
(lp10
I3
aI4849
aI7
aI2610
aI3353
aI122
aI487
aI311
aI870
aI3
aI413
aI7
aI3399
aI24
aI45
aI316
aI51
aI19675
aI7
aI3
aI448
aI2610
aI6801
aI3665
aI958
aI138
aI206
aI89
aI9597
aI2136
aI5
aI28070
aI3665
aI7
aI211
aI284
aI63765
asg6
S'The future of immigration enforcement was  until at least the time of writing in 2011  to be an adjunct of the general in-country immigration management structure rather than having a coordinating policy and organisational structure of its own .'
p11
ss.