(dp1
S'input'
p2
(dp3
S'encoded'
p4
(lp5
I64
aI2179
aI43
aI63
aI6670
aI546
aI417
aI316
aI89
aI1334
aI3108
aI7
aI4849
aI1886
aI2855
asS'ori'
p6
S'This house believes that wind power should be a primary focus of future energy supply'
p7
ssS'output'
p8
(dp9
g4
(lp10
I4204
aI311
aI982
aI2363
aI7
aI1525
aI3
aI4204
aI8921
aI7
aI6670
aI116
aI1191
aI3
aI1643
aI41
aI3
aI4204
aI5085
aI63765
asg6
S'Capacity Credit: At low levels of penetration  the capacity credit of wind is about the same as the capacity factor .'
p11
ss.