(dp1
S'input'
p2
(dp3
S'encoded'
p4
(lp5
I64
aI2179
aI394
aI2741
aI3
aI1560
aI6025
aI2784
asS'ori'
p6
S'This house would pass the American Jobs Act'
p7
ssS'output'
p8
(dp9
g4
(lp10
I2211
aI1735
aI6228
aI45
aI475
aI136
aI7
aI271
aI7931
aI45
aI6792
aI3130
aI199
aI1879
aI3
aI5084
aI45
aI2155
aI63765
asg6
S'Senate  Allows companies to use more of their losses to offset previous profits  increasing the cost to $19 .5 billion .'
p11
ss.