(dp1
S'input'
p2
(dp3
S'encoded'
p4
(lp5
I64
aI2179
aI43
aI63
aI3376
aI4938
aI417
aI316
aI3537
asS'ori'
p6
S'This house believes that endangered species should be protected'
p7
ssS'output'
p8
(dp9
g4
(lp10
I1086
aI187
aI63765
aI7076
aI182
aI2789
aI7
aI89
aI2178
aI7
aI3269
aI2319
aI60
aI223
aI248
aI4938
aI5
aI14
aI5125
aI1809
aI63765
aI64
aI2178
aI694
aI7
aI89
aI145
aI7
aI7205
aI291
aI223
aI2789
aI15
aI12705
aI5
aI24
aI1809
aI7
aI2567
aI60
aI248
aI4938
aI1928
aI4622
aI116
aI89
aI1851
aI7
aI63
aI116
aI574
aI4622
aI55
aI89
aI3014
aI5
aI89
aI1025
aI34
aI773
aI92
aI116
aI11655
aI73
asg6
S'Taylor states that:  .   Humans are members of a community of life along with all other species  and on equal terms .  This community consists of a system of interdependence between all members  both physically  and in terms of relationships with other species  Every organism is a "teleological centre of life"  that is  each organism has a purpose and a reason for being  which is inherently "good" or "valuable'
p11
ss.