(dp1
S'input'
p2
(dp3
S'encoded'
p4
(lp5
I64
aI2179
aI394
aI2017
aI3807
aI314
aI3433
asS'ori'
p6
S'This house would ban partial birth abortions'
p7
ssS'output'
p8
(dp9
g4
(lp10
I233
aI45
aI16915
aI16916
aI3
aI3648
aI1989
aI34
aI3
aI3657
aI3
aI2497
aI122
aI643
aI24
aI320
aI24
aI89
aI7807
aI887
aI4880
aI1082
aI11745
aI63765
aI16914
aI5
aI150
aI21
aI45
aI3269
aI2180
aI16917
aI2631
aI1309
aI63765
asg6
S"According to Keri Folmar  the lawyer responsible for the bill's language  the term was developed in early 1995 in a meeting among herself  Charles T . Canady  and National Right to Life Committee lobbyist Douglas Johnson ."
p11
ss.