(dp1
S'input'
p2
(dp3
S'encoded'
p4
(lp5
I64
aI2179
aI394
aI4325
aI2042
aI270
aI89
aI11605
aI3324
asS'ori'
p6
S'This house would fund education using a voucher scheme'
p7
ssS'output'
p8
(dp9
g4
(lp10
I887
aI3
aI7090
aI382
aI11114
aI2211
aI8836
aI63
aI3
aI15885
aI260
aI5
aI3
aI35764
aI4117
aI134
aI2031
aI382
aI1989
aI34
aI8579
aI5
aI3
aI6999
aI63
aI725
aI2625
aI11241
aI8052
aI24
aI2135
aI6228
aI92
aI5274
aI161
aI3
aI15885
aI3081
aI24
aI46449
aI63765
asg6
S"Among the bill's findings were Colin Powell's Senate testimony that the Sudanese government and the Janjaweed militias it supported were responsible for genocide  and the observation that many Americans inadvertently invest in foreign companies which disproportionately benefit the Sudanese regime in Khartoum  ."
p11
ss.