(dp1
S'input'
p2
(dp3
S'encoded'
p4
(lp5
I64
aI2179
aI43
aI63
aI3
aI4538
aI7
aI4434
aI7793
aI283
aI45
aI3586
aI417
aI316
aI577
asS'ori'
p6
S'This house believes that the sale of violent video games to minors should be banned'
p7
ssS'output'
p8
(dp9
g4
(lp10
I11379
aI22460
aI89
aI319
aI60
aI2321
aI2125
aI89
aI15654
aI3
aI7740
aI83
aI40726
aI25
aI998
aI620
aI89
aI11379
aI24343
aI226
aI7254
aI21059
aI5
aI248
aI2321
aI1222
aI45
aI1105
aI1063
aI1295
aI73
aI2507
aI11955
aI1063
aI63765
asg6
S'Marble Madness - A game with enemies featuring a non-violent main-character wherein the player must navigate his way through a marble maze while enemy marbles and other enemies attempt to knock him off or otherwise destroy him .'
p11
ss.