(dp1
S'input'
p2
(dp3
S'encoded'
p4
(lp5
I64
aI2179
aI394
aI475
aI2135
aI2194
aI6198
aI45
aI2041
aI5
aI13926
aI8732
aI63
aI1735
aI12708
aI5
aI5599
aI24
aI2203
aI45
aI1397
aI7149
aI5
aI12311
aI271
aI5119
aI4948
asS'ori'
p6
S'This house would use foreign aid funds to research and distribute software that allows bloggers and journalists in non-democratic countries to evade censorship and conceal their online activities'
p7
ssS'output'
p8
(dp9
g4
(lp10
I3
aI31366
aI1809
aI7
aI3987
aI1074
aI3
aI2844
aI3
aI21
aI45
aI790
aI755
aI7151
aI5627
aI132
aI1809
aI7
aI3987
aI34
aI3398
aI248
aI138
aI12717
aI8794
aI159
aI41
aI131
aI99
aI913
aI45
aI7230
aI25590
aI73
aI7045
aI6391
aI63765
asg6
S'YouTube: The YouTube Terms of Service include the statements: "YouTube reserves the right to decide whether Content violates these Terms of Service for reasons other than copyright infringement  such as  but not limited to  pornography  obscenity  or excessive length .'
p11
ss.