(dp1
S'input'
p2
(dp3
S'encoded'
p4
(lp5
I64
aI2179
aI43
aI63
aI3
aI28431
aI7
aI2157
aI4624
aI75
aI39939
aI27257
aI122
aI4850
asS'ori'
p6
S'This house believes that the leaking of military documents by Anat Kamm was justified'
p7
ssS'output'
p8
(dp9
g4
(lp10
I217
aI7
aI3
aI2962
aI182
aI3840
aI1491
aI60
aI30968
aI8308
aI73
aI30969
aI10983
aI63765
asg6
S'Most of the reports are vague  filled with incongruent detail  or crudely fabricated .'
p11
ss.