(dp1
S'input'
p2
(dp3
S'encoded'
p4
(lp5
I64
aI2179
aI394
aI5284
aI150
aI3987
asS'ori'
p6
S'This house would reintroduce national service'
p7
ssS'output'
p8
(dp9
g4
(lp10
I89
aI2937
aI63
aI394
aI11
aI547
aI223
aI9375
aI45
aI99
aI5878
aI10426
aI5
aI376
aI14
aI611
aI6329
aI24
aI3871
aI45
aI5259
aI99
aI3503
aI206
aI3481
aI25
aI63765
asg6
S'735)  a tongue-in-cheek proposal that would have allowed all taxpayers to not pay penalties and interest on back taxes  in reference to Rangel not yet having paid his  .'
p11
ss.