(dp1
S'input'
p2
(dp3
S'encoded'
p4
(lp5
I64
aI2179
aI394
aI2017
aI223
aI9058
aI23653
asS'ori'
p6
S'This house would ban all unsustainable logging'
p7
ssS'output'
p8
(dp9
g4
(lp10
I4160
aI116
aI45
aI124
aI5277
aI5
aI2998
aI2574
aI24
aI15425
aI34
aI3
aI3216
aI75
aI8009
aI11870
aI5
aI3918
aI2138
aI5
aI78
aI45
aI3204
aI271
aI5229
aI7
aI3269
aI252
aI8172
aI63
aI7
aI4849
aI3994
aI63765
asg6
S"UNEP's mission is to provide leadership and encourage partnership in caring for the environment by inspiring  informing and enabling nations and people to improve their quality of life without compromising that of future generations ."
p11
ss.