(dp1
S'input'
p2
(dp3
S'encoded'
p4
(lp5
I64
aI2179
aI394
aI2773
aI12505
asS'ori'
p6
S'This house would embrace multiculturalism'
p7
ssS'output'
p8
(dp9
g4
(lp10
I3
aI2345
aI1048
aI45
aI51796
aI282
aI3364
aI493
aI14635
aI620
aI3
aI21038
aI7
aI282
aI21341
aI5
aI26840
aI2819
aI5
aI2568
aI63765
asg6
S'The initiative seeks to galvanize international action against extremism through the forging of international  intercultural and interreligious dialogue and cooperation .'
p11
ss.