(dp1
S'input'
p2
(dp3
S'encoded'
p4
(lp5
I64
aI2179
aI43
aI17
aI4941
aI857
aI3211
asS'ori'
p6
S'This house believes social deprivation causes crime'
p7
ssS'output'
p8
(dp9
g4
(lp10
I64
aI1380
aI7
aI3211
aI135
aI887
aI5307
aI81
aI353
aI63
aI2022
aI122
aI99
aI243
aI3775
aI45
aI2572
aI211
aI7631
aI60
aI86
aI63765
asg6
S'This type of crime expanded among immigrants  who found that society was not always willing to share its opportunities with them  .'
p11
ss.