(dp1
S'input'
p2
(dp3
S'encoded'
p4
(lp5
I64
aI2179
aI43
aI63
aI3
aI4990
aI4991
aI116
aI4850
aI24
aI12166
aI3
aI475
aI7
aI3532
aI3290
aI7
aI4714
asS'ori'
p6
S'This house believes that the Catholic Church is justified in forbidding the use of barrier methods of contraception'
p7
ssS'output'
p8
(dp9
g4
(lp10
I7332
aI182
aI416
aI41
aI89
aI28519
aI75
aI51974
aI298
aI3812
aI89
aI1536
aI16886
aI24
aI3
aI7834
aI63765
asg6
S'Condoms are used as a one-way valve by paramedics when performing a chest decompression in the field .'
p11
ss.