(dp1
S'input'
p2
(dp3
S'encoded'
p4
(lp5
I64
aI2179
aI43
aI8629
aI116
aI3
aI117
aI998
asS'ori'
p6
S'This house believes atheism is the only way'
p7
ssS'output'
p8
(dp9
g4
(lp10
I24
aI21739
aI1642
aI3
aI18544
aI3787
aI3
aI3524
aI7
aI5480
aI116
aI1729
aI24
aI570
aI1809
aI63765
asg6
S'In monotheisms outside the Abrahamic traditions  the existence of God is discussed in similar terms .'
p11
ss.