(dp1
S'input'
p2
(dp3
S'encoded'
p4
(lp5
I64
aI2179
aI394
aI5370
aI3
aI5286
asS'ori'
p6
S'This house would abolish the monarchy'
p7
ssS'output'
p8
(dp9
g4
(lp10
I5480
aI3810
aI3
aI5352
aI5480
aI3810
aI3
aI116
aI3
aI169
aI150
aI15315
aI5
aI3
aI5301
aI4962
aI14
aI27844
aI23067
aI27846
aI5
aI27847
aI63765
asg6
S'God Save the Queen (or God Save the King) is the British national anthem  and the monarch appears on postage stamps  coins  and banknotes  .'
p11
ss.