(dp1
S'input'
p2
(dp3
S'encoded'
p4
(lp5
I64
aI2179
aI43
aI3
aI626
aI187
aI116
aI1989
aI34
aI3102
aI2223
asS'ori'
p6
S"This house believes the United States is responsible for Mexico's drugs war"
p7
ssS'output'
p8
(dp9
g4
(lp10
I18425
aI58916
aI637
aI3772
aI45
aI28554
aI150
aI2565
aI41
aI42
aI383
aI1185
aI4747
aI131
aI42
aI394
aI443
aI593
aI708
aI223
aI8185
aI7
aI3
aI2190
aI63765
asg6
S'Felix Gallardo still planned to oversee national operations  as he maintained important connections  but he would no longer control all details of the business  .'
p11
ss.