(dp1
S'input'
p2
(dp3
S'encoded'
p4
(lp5
I64
aI2179
aI43
aI17
aI4941
aI857
aI3211
asS'ori'
p6
S'This house believes social deprivation causes crime'
p7
ssS'output'
p8
(dp9
g4
(lp10
I3
aI4471
aI693
aI416
aI24
aI12196
aI6362
aI501
aI17552
aI45
aI7817
aI40
aI1176
aI2083
aI13127
aI182
aI153
aI1031
aI45
aI19597
aI2148
aI6809
aI7
aI17
aI3665
aI63765
asg6
S'The models typically used in mathematical sociology allow sociologists to understand how predictable local interactions are often able to elicit global patterns of social structure  .'
p11
ss.