(dp1
S'input'
p2
(dp3
S'encoded'
p4
(lp5
I64
aI2179
aI394
aI60
aI23587
asS'ori'
p6
S'This house would re-engage with Myanmar'
p7
ssS'output'
p8
(dp9
g4
(lp10
I2767
aI60772
aI5
aI987
aI11
aI12
aI24
aI3524
aI34
aI725
aI2439
aI63765
asg6
S'Religious edifices and orders have been in existence for many years .'
p11
ss.