(dp1
S'input'
p2
(dp3
S'encoded'
p4
(lp5
I64
aI2179
aI43
aI63
aI3
aI4990
aI4991
aI116
aI4850
aI24
aI12166
aI3
aI475
aI7
aI3532
aI3290
aI7
aI4714
asS'ori'
p6
S'This house believes that the Catholic Church is justified in forbidding the use of barrier methods of contraception'
p7
ssS'output'
p8
(dp9
g4
(lp10
I3
aI1410
aI2038
aI7
aI30614
aI30615
aI116
aI63
aI3
aI460
aI88
aI99
aI1782
aI3
aI1232
aI1956
aI73
aI88
aI99
aI1782
aI3
aI1232
aI24
aI89
aI12360
aI2690
aI63765
asg6
S'The main risk of coitus interruptus is that the man may not perform the maneuver correctly  or may not perform the maneuver in a timely manner .'
p11
ss.