(dp1
S'input'
p2
(dp3
S'encoded'
p4
(lp5
I64
aI2179
aI394
aI16756
aI20435
asS'ori'
p6
S'This house would criminalize blasphemy'
p7
ssS'output'
p8
(dp9
g4
(lp10
I174
aI3172
aI63
aI63028
aI417
aI26591
aI19
aI25
aI1597
aI41
aI2018
aI7
aI3
aI883
aI63765
asg6
S'Ellemann-Jensen also argues that Juste should retire from his position as editor of the newspaper  .'
p11
ss.