(dp1
S'input'
p2
(dp3
S'encoded'
p4
(lp5
I64
aI2179
aI43
aI24
aI3
aI475
aI7
aI12436
aI3364
asS'ori'
p6
S'This house believes in the use of affirmative action'
p7
ssS'output'
p8
(dp9
g4
(lp10
I5
aI3
aI161
aI7
aI5969
aI7
aI511
aI116
aI45
aI4576
aI12359
aI45
aI3
aI4584
aI3262
aI34
aI12924
aI2864
aI24
aI2143
aI956
aI12925
aI6804
aI5
aI3221
aI63765
asg6
S'And the benefit of equality of opportunity is to bring fairness to the selection process for coveted roles in corporations  associations  nonprofits  universities  and elsewhere  .'
p11
ss.