(dp1
S'input'
p2
(dp3
S'encoded'
p4
(lp5
I64
aI2179
aI43
aI8629
aI116
aI3
aI117
aI998
asS'ori'
p6
S'This house believes atheism is the only way'
p7
ssS'output'
p8
(dp9
g4
(lp10
I9776
aI417
aI316
aI8392
aI99
aI22248
aI604
aI8629
aI116
aI350
aI7
aI89
aI7993
aI903
aI3777
aI63765
asg6
S'Atheists should be proud  not apologetic  because atheism is evidence of a healthy  independent mind  .'
p11
ss.