(dp1
S'input'
p2
(dp3
S'encoded'
p4
(lp5
I64
aI2179
aI394
aI9385
aI2497
aI447
aI14
aI3
aI3578
aI5721
aI7
aI260
asS'ori'
p6
S'This house would enforce term limits on the legislative branch of government'
p7
ssS'output'
p8
(dp9
g4
(lp10
I2625
aI34
aI913
aI260
aI23828
aI2899
aI2072
aI63765
asg6
S'Americans for Limited Government withholds donor names  .'
p11
ss.