(dp1
S'input'
p2
(dp3
S'encoded'
p4
(lp5
I64
aI2179
aI394
aI16642
aI1376
aI5269
asS'ori'
p6
S'This house would subsidize poor communities'
p7
ssS'output'
p8
(dp9
g4
(lp10
I18617
aI8227
aI24774
aI3409
aI642
aI7
aI5969
aI459
aI3
aI70
aI382
aI1518
aI8681
aI7
aI3
aI68
aI63
aI1980
aI182
aI4651
aI12426
aI5
aI63
aI134
aI116
aI4814
aI271
aI4925
aI63
aI14463
aI17
aI2568
aI5
aI10065
aI63765
asg6
S'Ludwig von Mises (1966) explains:The liberal champions of equality under the law were fully aware of the fact that men are born unequal and that it is precisely their inequality that generates social cooperation and civilization .'
p11
ss.