(dp1
S'input'
p2
(dp3
S'encoded'
p4
(lp5
I64
aI2179
aI394
aI4261
aI8667
aI3
aI9361
aI5
aI17069
asS'ori'
p6
S'This house would prohibit burning the stars and stripes'
p7
ssS'output'
p8
(dp9
g4
(lp10
I526
aI2217
aI2248
aI4196
aI7
aI3
aI3516
aI41901
aI122
aI63
aI3
aI8667
aI122
aI3
aI2609
aI845
aI7
aI3
aI33
aI3
aI720
aI3168
aI7
aI3
aI33
aI773
aI63
aI3
aI3341
aI3
aI5449
aI24
aI89
aI46389
aI2690
aI508
aI24
aI25
aI3357
aI3
aI3025
aI3108
aI14
aI3
aI20547
aI75
aI3
aI3341
aI5
aI472
aI75
aI3
aI10
aI70
aI122
aI1032
aI99
aI24
aI5294
aI60
aI3
aI7279
aI7
aI3
aI33
aI63765
asg6
S'Furthermore  Chief Justice Warren\'s reading of the trial transcript was that the burning was the central issue of the case  the defense theory of the case being that the defendant "burned the flag in a dignified manner " (emphasis added); thus  in his opinion  the narrow focus on the "words" uttered by the defendant and prohibited by the state law was simply not in accord with the facts of the case .'
p11
ss.