(dp1
S'input'
p2
(dp3
S'encoded'
p4
(lp5
I64
aI2179
aI43
aI24
aI3
aI475
aI7
aI12436
aI3364
asS'ori'
p6
S'This house believes in the use of affirmative action'
p7
ssS'output'
p8
(dp9
g4
(lp10
I12537
aI174
aI427
aI3
aI399
aI7
aI12376
aI3
aI1485
aI7
aI3555
aI73
aI1879
aI3
aI5084
aI7
aI3205
aI159
aI41
aI27669
aI197
aI3757
aI45
aI6025
aI3757
aI45
aI3217
aI85
aI73
aI113
aI12744
aI45
aI6049
aI24
aI77
aI153
aI15826
aI695
aI2506
aI63765
asg6
S'Segregation also took the form of redlining  the practice of denying or increasing the cost of services  such as banking  insurance  access to jobs  access to health care  or even supermarkets to residents in certain  often racially determined  areas .'
p11
ss.