(dp1
S'input'
p2
(dp3
S'encoded'
p4
(lp5
I64
aI2179
aI394
aI9385
aI2497
aI447
aI14
aI3
aI3578
aI5721
aI7
aI260
asS'ori'
p6
S'This house would enforce term limits on the legislative branch of government'
p7
ssS'output'
p8
(dp9
g4
(lp10
I24
aI7412
aI2062
aI3
aI3578
aI2042
aI3364
aI6729
aI73
aI48
aI92
aI2942
aI14
aI3733
aI2240
aI4662
aI2474
aI967
aI3
aI2696
aI63765
asg6
S'In 2000 Rich founded the Legislative Education Action Drive  or LEAD  which focused on enacting school choice legislation across the country  .'
p11
ss.