(dp1
S'input'
p2
(dp3
S'encoded'
p4
(lp5
I64
aI2179
aI394
aI4261
aI8667
aI3
aI9361
aI5
aI17069
asS'ori'
p6
S'This house would prohibit burning the stars and stripes'
p7
ssS'output'
p8
(dp9
g4
(lp10
I3866
aI2862
aI11294
aI34
aI2164
aI24
aI14
aI89
aI1164
aI717
aI5195
aI14
aI4300
aI51
aI312
aI45
aI3
aI5262
aI24
aI128
aI45
aI3145
aI14153
aI1609
aI475
aI7
aI3
aI6249
aI2784
aI63765
asg6
S'Richard Nixon ran for president in 1968 on a platform based partly on putting an end to the draft  in order to undercut protesters making use of the symbolic act .'
p11
ss.