(dp1
S'input'
p2
(dp3
S'encoded'
p4
(lp5
I64
aI2179
aI394
aI15841
aI2736
asS'ori'
p6
S'This house would disband ASEAN'
p7
ssS'output'
p8
(dp9
g4
(lp10
I2736
aI150
aI5462
aI11
aI174
aI12
aI4377
aI10581
aI45
aI2572
aI73
aI19083
aI6349
aI45
aI5462
aI19
aI248
aI2736
aI2789
aI2736
aI2258
aI9323
aI3937
aI163
aI8318
aI45
aI709
aI18134
aI24
aI63765
asg6
S'ASEAN national authorities have also been traditionally reluctant to share or cede sovereignty to authorities from other ASEAN members (although ASEAN trade ministries routinely make cross-border visits to conduct on-site inspections in anti-dumping investigations) .'
p11
ss.