(dp1
S'input'
p2
(dp3
S'encoded'
p4
(lp5
I64
aI2179
aI43
aI63
aI3
aI21
aI45
aI12715
aI417
aI99
aI316
aI2897
asS'ori'
p6
S'This house believes that the right to asylum should not be absolute'
p7
ssS'output'
p8
(dp9
g4
(lp10
I93
aI7
aI3
aI237
aI281
aI214
aI2442
aI75
aI3
aI667
aI3987
aI122
aI63
aI7
aI51
aI2615
aI3661
aI7
aI41625
aI63765
asg6
S'One of the first major issues confronted by the new service was that of an escalating problem of stowaways .'
p11
ss.