(dp1
S'input'
p2
(dp3
S'encoded'
p4
(lp5
I64
aI2179
aI394
aI4325
aI2042
aI270
aI89
aI11605
aI3324
asS'ori'
p6
S'This house would fund education using a voucher scheme'
p7
ssS'output'
p8
(dp9
g4
(lp10
I4980
aI45
aI63
aI4
aI378
aI17552
aI5
aI5019
aI11
aI3041
aI63
aI1381
aI5069
aI182
aI3391
aI7
aI17
aI1161
aI55
aI485
aI18458
aI5
aI113
aI1472
aI289
aI3
aI1257
aI6321
aI2439
aI63765
asg6
S'Contrary to that notion  however  sociologists and economists have concluded that  although exceptions are heard of  social mobility has remained stagnant and even decreased over the past thirty years  .'
p11
ss.