(dp1
S'input'
p2
(dp3
S'encoded'
p4
(lp5
I64
aI2179
aI394
aI15841
aI2736
asS'ori'
p6
S'This house would disband ASEAN'
p7
ssS'output'
p8
(dp9
g4
(lp10
I3
aI7807
aI116
aI51
aI3246
aI2819
aI3262
aI5425
aI24
aI60
aI3
aI2033
aI7
aI2798
aI2568
aI291
aI3
aI2203
aI7
aI323
aI5
aI2770
aI946
aI2789
aI7
aI3
aI1565
aI2131
aI5
aI2736
aI24
aI1341
aI63765
asg6
S'The Asia-Europe Meeting (ASEM) is an informal dialogue process initiated in 1996 with the intention of strengthening cooperation between the countries of Europe and Asia  especially members of the European Union and ASEAN in particular  .'
p11
ss.