(dp1
S'input'
p2
(dp3
S'encoded'
p4
(lp5
I64
aI2179
aI43
aI63
aI187
aI417
aI99
aI16642
aI3
aI6449
aI7
aI3935
asS'ori'
p6
S'This house believes that states should not subsidize the growing of tobacco'
p7
ssS'output'
p8
(dp9
g4
(lp10
I11809
aI61819
aI7
aI3
aI5834
aI61820
aI34010
aI7
aI10250
aI742
aI63
aI89
aI14833
aI4907
aI4908
aI423
aI13169
aI89
aI103
aI63
aI116
aI6282
aI45
aI316
aI2387
aI24
aI8
aI2041
aI63765
asg6
S"Werner Huttig of the Nazi Party's Rassenpolitisches Amt (Office of Racial Politics) said that a smoking mother's breast milk contained nicotine  a claim that is proved to be correct in modern research  ."
p11
ss.