(dp1
S'input'
p2
(dp3
S'encoded'
p4
(lp5
I64
aI2179
aI43
aI63
aI134
aI116
aI400
aI21
aI34
aI3
aI260
aI45
aI3439
aI57
aI7
aI2381
asS'ori'
p6
S'This house believes that it is sometimes right for the government to restrict freedom of speech'
p7
ssS'output'
p8
(dp9
g4
(lp10
I7150
aI43698
aI158
aI48183
aI11
aI2118
aI459
aI2198
aI34
aI9466
aI24
aI132
aI3237
aI158
aI3593
aI3
aI414
aI19
aI211
aI24
aI2390
aI63765
asg6
S'Web portals including Microsoft\'s MSN have come under criticism for aiding in these practices  including banning the word "democracy" from its chat-rooms in China .'
p11
ss.