(dp1
S'input'
p2
(dp3
S'encoded'
p4
(lp5
I64
aI2179
aI43
aI63
aI2659
aI417
aI1690
aI3
aI12048
aI7
aI19084
asS'ori'
p6
S'This house believes that Israel should lift the blockade of Gaza'
p7
ssS'output'
p8
(dp9
g4
(lp10
I3
aI8384
aI24864
aI24863
aI174
aI3531
aI3
aI3665
aI7
aI3
aI2130
aI5
aI2874
aI45
aI9324
aI257
aI211
aI2280
aI382
aI99
aI135
aI63765
asg6
S"The commission's chairman Jacob Turkel also criticized the structure of the commission and threatened to resign if its powers were not expanded ."
p11
ss.