(dp1
S'input'
p2
(dp3
S'encoded'
p4
(lp5
I64
aI2179
aI394
aI117
aI7428
aI21151
aI34
aI11389
aI2042
aI24
aI4364
asS'ori'
p6
S'This house would only teach abstinence for sex education in schools'
p7
ssS'output'
p8
(dp9
g4
(lp10
I89
aI2035
aI3714
aI75
aI3
aI30788
aI3874
aI3565
aI353
aI63
aI7
aI6954
aI2240
aI27602
aI3553
aI271
aI11389
aI2042
aI8508
aI41
aI7088
aI63765
asg6
S'A 2002 study conducted by the Kaiser Family Foundation found that 58% of secondary school principals describe their sex education curriculum as comprehensive  .'
p11
ss.