(dp1
S'input'
p2
(dp3
S'encoded'
p4
(lp5
I64
aI2179
aI394
aI16756
aI20435
asS'ori'
p6
S'This house would criminalize blasphemy'
p7
ssS'output'
p8
(dp9
g4
(lp10
I3
aI2482
aI2132
aI263
aI34
aI7058
aI63
aI4614
aI3
aI2021
aI3487
aI7
aI5714
aI5
aI3394
aI2819
aI60
aI3
aI3912
aI45
aI3
aI3107
aI18789
aI7
aI5714
aI5
aI23673
aI5958
aI14
aI3
aI3269
aI5
aI18814
aI7
aI9735
aI21484
asg6
S'The Supreme Council called for "peaceful protests that reflect the civilized aspect of Islam " and recommended dialogue with the West to "spread the true tenets of Islam and shed light on the life and precepts of prophet Mohammed ."'
p11
ss.