(dp1
S'input'
p2
(dp3
S'encoded'
p4
(lp5
I64
aI2179
aI394
aI5370
aI3
aI5286
asS'ori'
p6
S'This house would abolish the monarchy'
p7
ssS'output'
p8
(dp9
g4
(lp10
I378
aI2068
aI5003
aI342
aI63
aI589
aI7
aI3
aI169
aI658
aI96
aI3
aI15290
aI7
aI3
aI5286
aI63765
asg6
S'However  recent polls show that around 7080% of the British public support the continuation of the monarchy  .'
p11
ss.