(dp1
S'input'
p2
(dp3
S'encoded'
p4
(lp5
I64
aI2179
aI394
aI4325
aI2042
aI270
aI89
aI11605
aI3324
asS'ori'
p6
S'This house would fund education using a voucher scheme'
p7
ssS'output'
p8
(dp9
g4
(lp10
I3007
aI3435
aI89
aI3419
aI45
aI7596
aI2359
aI15785
aI3
aI2714
aI1597
aI3
aI2471
aI7
aI49028
aI2233
aI133
aI63
aI8559
aI116
aI291
aI93
aI460
aI5
aI93
aI3833
aI5
aI83
aI316
aI3537
aI63765
asg6
S'Paul issued a statement to Iowa Republicans criticizing the Obama administration\'s position  saying: "Like the majority of Iowans  I believe that marriage is between one man and one woman and must be protected .'
p11
ss.