(dp1
S'input'
p2
(dp3
S'encoded'
p4
(lp5
I64
aI2179
aI43
aI223
aI2138
aI11
aI89
aI21
aI45
aI2185
aI372
asS'ori'
p6
S'This house believes all nations have a right to nuclear weapons'
p7
ssS'output'
p8
(dp9
g4
(lp10
I2185
aI546
aI3
aI5938
aI4453
aI6672
aI443
aI73
aI6351
aI1183
aI7
aI6695
aI6696
aI63765
asg6
S'Nuclear power  the industry claims  emits no or negligible amounts of carbon dioxide .'
p11
ss.