(dp1
S'input'
p2
(dp3
S'encoded'
p4
(lp5
I64
aI2179
aI43
aI63
aI134
aI116
aI400
aI21
aI34
aI3
aI260
aI45
aI3439
aI57
aI7
aI2381
asS'ori'
p6
S'This house believes that it is sometimes right for the government to restrict freedom of speech'
p7
ssS'output'
p8
(dp9
g4
(lp10
I24
aI159
aI2203
aI5599
aI5157
aI14
aI3
aI39268
aI7
aI61
aI116
aI300
aI45
aI316
aI4713
aI47
aI419
aI153
aI154
aI777
aI3
aI2195
aI7
aI1793
aI18230
aI75
aI8778
aI7
aI3
aI10
aI63765
asg6
S'In such countries  journalists operating on the fringes of what is deemed to be acceptable will very often find themselves the subject of considerable intimidation by agents of the state .'
p11
ss.