(dp1
S'input'
p2
(dp3
S'encoded'
p4
(lp5
I64
aI2179
aI43
aI17
aI4941
aI857
aI3211
asS'ori'
p6
S'This house believes social deprivation causes crime'
p7
ssS'output'
p8
(dp9
g4
(lp10
I159
aI89
aI3445
aI122
aI45
aI316
aI1779
aI20573
aI41
aI89
aI16067
aI10
aI7
aI89
aI17
aI145
aI903
aI7
aI3446
aI4268
aI73
aI12642
aI63765
asg6
S'Such a concept was to be employed objectively as a measurable state of a social system  independent of personal approval or disapproval .'
p11
ss.