(dp1
S'input'
p2
(dp3
S'encoded'
p4
(lp5
I64
aI2179
aI394
aI5370
aI223
aI4013
aI10440
aI2446
aI4881
aI75
aI14482
aI11004
asS'ori'
p6
S'This house would abolish all collective bargaining rights claimed by trades unions'
p7
ssS'output'
p8
(dp9
g4
(lp10
I64
aI122
aI237
aI2133
aI7
aI1560
aI6941
aI92
aI1614
aI63
aI223
aI5428
aI917
aI7
aI14482
aI440
aI279
aI251
aI63
aI463
aI316
aI9450
aI117
aI75
aI626
aI2997
aI41
aI89
aI5052
aI63765
asg6
S'This was "the first city-wide federation of American workers  which recognised that all labour  regardless of trades  had common problems that could be solved only by united efforts as a class .'
p11
ss.