(dp1
S'input'
p2
(dp3
S'encoded'
p4
(lp5
I64
aI2179
aI43
aI223
aI2138
aI11
aI89
aI21
aI45
aI2185
aI372
asS'ori'
p6
S'This house believes all nations have a right to nuclear weapons'
p7
ssS'output'
p8
(dp9
g4
(lp10
I24
aI2546
aI546
aI6773
aI427
aI238
aI45
aI8672
aI493
aI3
aI47290
aI2185
aI546
aI1344
aI3912
aI7
aI100
aI78
aI415
aI619
aI45
aI619
aI60
aI631
aI3243
aI63765
asg6
S"In 1981  Germany's largest anti-nuclear power demonstration took place to protest against the Brokdorf Nuclear Power Plant west of Hamburg; some 100 000 people came face to face with 10 000 police officers ."
p11
ss.