(dp1
S'input'
p2
(dp3
S'encoded'
p4
(lp5
I64
aI2179
aI43
aI63
aI2659
aI417
aI1690
aI3
aI12048
aI7
aI19084
asS'ori'
p6
S'This house believes that Israel should lift the blockade of Gaza'
p7
ssS'output'
p8
(dp9
g4
(lp10
I89
aI2800
aI2035
aI55
aI353
aI63
aI19100
aI5743
aI182
aI11953
aI3179
aI16385
aI89
aI1379
aI5
aI1155
aI1697
aI14
aI19173
aI159
aI41
aI18187
aI5
aI19174
aI604
aI13980
aI16286
aI182
aI5132
aI73
aI6681
aI63765
aI19175
aI19176
aI11
aI2291
aI24
aI7494
aI1021
aI45
aI3
aI2945
aI7
aI19175
aI19177
aI397
aI3
aI19084
aI2223
asg6
S'A UN study has found that Gazan families are eating fewer meals a day and mainly relying on carbohydrates such as rice and flour because protein foods are expensive or unavailable . Chicken eggs have doubled in price due to the destruction of chicken coops during the Gaza War '
p11
ss.