(dp1
S'input'
p2
(dp3
S'encoded'
p4
(lp5
I64
aI2179
aI43
aI63
aI3
aI4990
aI4991
aI116
aI4850
aI24
aI12166
aI3
aI475
aI7
aI3532
aI3290
aI7
aI4714
asS'ori'
p6
S'This house believes that the Catholic Church is justified in forbidding the use of barrier methods of contraception'
p7
ssS'output'
p8
(dp9
g4
(lp10
I24
aI2555
aI495
aI3007
aI2236
aI10905
aI3
aI1488
aI2082
aI7
aI53355
aI24
aI4192
aI7410
aI5
aI1442
aI89
aI2381
aI63
aI725
aI133
aI1629
aI3
aI20713
aI34
aI3
aI7444
aI2979
aI24
aI2404
aI63765
aI773
aI31516
aI42
aI4001
aI25
aI10597
aI63
aI7332
aI382
aI89
aI8565
aI24
aI351
aI3717
asg6
S'In September 1990  John Paul II visited the small town of Mwanza  in northern Tanzania  and gave a speech that many believe set the tone for the AIDS crisis in Africa . Being unequivocal  he told his audience that condoms were a sin in any circumstances'
p11
ss.