(dp1
S'input'
p2
(dp3
S'encoded'
p4
(lp5
I64
aI2179
aI43
aI63
aI187
aI417
aI99
aI16642
aI3
aI6449
aI7
aI3935
asS'ori'
p6
S'This house believes that states should not subsidize the growing of tobacco'
p7
ssS'output'
p8
(dp9
g4
(lp10
I320
aI3303
aI4111
aI4595
aI19
aI3
aI3920
aI2625
aI3
aI14995
aI7
aI14833
aI3935
aI24
aI19269
aI5
aI2586
aI2249
aI3
aI1344
aI4034
aI113
aI114
aI3
aI9946
aI401
aI45
aI134
aI41
aI3
aI63765
asg6
S'Early Connecticut colonists acquired from the Native Americans the habit of smoking tobacco in pipes  and began cultivating the plant commercially  even though the Puritans referred to it as the "evil weed" .'
p11
ss.