(dp1
S'input'
p2
(dp3
S'encoded'
p4
(lp5
I64
aI2179
aI43
aI63
aI134
aI116
aI400
aI21
aI34
aI3
aI260
aI45
aI3439
aI57
aI7
aI2381
asS'ori'
p6
S'This house believes that it is sometimes right for the government to restrict freedom of speech'
p7
ssS'output'
p8
(dp9
g4
(lp10
I24
aI3
aI2096
aI7
aI2445
aI2446
aI134
aI3
aI658
aI13502
aI7
aI5617
aI2148
aI2022
aI139
aI316
aI742
aI45
aI11
aI89
aI279
aI3292
aI3657
aI134
aI116
aI63
aI7
aI2445
aI2446
asg6
S'In The idea of human rights it says: "if the public discourse of peacetime global society can be said to have a common moral language  it is that of human rights ."'
p11
ss.