(dp1
S'input'
p2
(dp3
S'encoded'
p4
(lp5
I64
aI2179
aI394
aI5370
aI223
aI4013
aI10440
aI2446
aI4881
aI75
aI14482
aI11004
asS'ori'
p6
S'This house would abolish all collective bargaining rights claimed by trades unions'
p7
ssS'output'
p8
(dp9
g4
(lp10
I132
aI11004
aI693
aI22211
aI777
aI19
aI100
aI7
aI3
aI10439
aI7
aI1524
aI14663
aI159
aI41
aI3
aI12179
aI7
aI8629
aI5
aI19
aI6311
aI3526
aI63
aI2444
aI243
aI182
aI24
aI2513
aI60
aI120
aI7
aI9452
aI63765
asg6
S"These unions typically distanced themselves from some of the doctrines of orthodox Marxism  such as the preference of atheism and from rhetoric suggesting that employees' interests always are in conflict with those of employers ."
p11
ss.