(dp1
S'input'
p2
(dp3
S'encoded'
p4
(lp5
I64
aI2179
aI43
aI63
aI2659
aI417
aI1690
aI3
aI12048
aI7
aI19084
asS'ori'
p6
S'This house believes that Israel should lift the blockade of Gaza'
p7
ssS'output'
p8
(dp9
g4
(lp10
I2250
aI7024
aI27250
aI25524
aI4453
aI3313
aI55
aI12
aI13702
aI5546
aI7
aI773
aI604
aI7
aI732
aI1597
aI324
aI732
aI2198
aI7
aI3
aI2659
aI4282
aI5
aI3089
aI1636
aI16618
aI63765
asg6
S"Peace activist Cindy Sheehan claims she has been improperly accused of being anti-Semitic because of her anti-war position  particularly her criticism of the Israel lobby and Israel's actions towards Palestinians ."
p11
ss.