(dp1
S'input'
p2
(dp3
S'encoded'
p4
(lp5
I64
aI2179
aI43
aI17
aI4941
aI857
aI3211
asS'ori'
p6
S'This house believes social deprivation causes crime'
p7
ssS'output'
p8
(dp9
g4
(lp10
I223
aI187
aI3582
aI2511
aI92
aI45
aI89
aI595
aI73
aI4270
aI6
aI454
aI4585
aI63765
asg6
S'All states enact laws which  to a greater or lesser extent  protect property .'
p11
ss.