(dp1
S'input'
p2
(dp3
S'encoded'
p4
(lp5
I64
aI2179
aI43
aI3
aI626
aI187
aI116
aI1989
aI34
aI3102
aI2223
asS'ori'
p6
S"This house believes the United States is responsible for Mexico's drugs war"
p7
ssS'output'
p8
(dp9
g4
(lp10
I23456
aI461
aI14
aI45
aI10274
aI3091
aI23458
aI24
aI3
aI10730
aI24
aI8836
aI45
aI89
aI2179
aI4330
aI2180
aI63765
asg6
S'Hitz went on to admit CIA improprieties in the affair in testimony to a House congressional committee .'
p11
ss.