(dp1
S'input'
p2
(dp3
S'encoded'
p4
(lp5
I64
aI2179
aI43
aI24
aI3
aI475
aI7
aI12436
aI3364
asS'ori'
p6
S'This house believes in the use of affirmative action'
p7
ssS'output'
p8
(dp9
g4
(lp10
I5
aI134
aI116
aI400
aI717
aI14
aI89
aI2437
aI63
aI12985
aI1967
aI12986
aI17
aI1161
aI4341
aI60
aI89
aI2498
aI63
aI3
aI12985
aI417
aI99
aI4532
aI73
aI417
aI316
aI1743
aI24
aI100
aI2690
aI63765
asg6
S'And it is sometimes based on a recognition that unfairness exists  hindering social mobility  combined with a sense that the unfairness should not exist or should be lessened in some manner  .'
p11
ss.