(dp1
S'input'
p2
(dp3
S'encoded'
p4
(lp5
I64
aI2179
aI394
aI2017
aI223
aI9058
aI23653
asS'ori'
p6
S'This house would ban all unsustainable logging'
p7
ssS'output'
p8
(dp9
g4
(lp10
I78
aI159
aI41
aI3
aI47050
aI7
aI3
aI12751
aI1244
aI6678
aI45
aI1368
aI132
aI4526
aI5
aI5643
aI86
aI45
aI1579
aI3791
aI736
aI61
aI382
aI2623
aI23577
aI7025
aI63765
asg6
S'People such as the Yanomamo of the Amazon  utilize slash-and-burn agriculture to overcome these limitations and enable them to push deep into what were previously rainforest environments .'
p11
ss.