(dp1
S'input'
p2
(dp3
S'encoded'
p4
(lp5
I64
aI2179
aI43
aI63
aI6670
aI546
aI417
aI316
aI89
aI1334
aI3108
aI7
aI4849
aI1886
aI2855
asS'ori'
p6
S'This house believes that wind power should be a primary focus of future energy supply'
p7
ssS'output'
p8
(dp9
g4
(lp10
I3
aI968
aI7
aI2590
aI546
aI2909
aI416
aI45
aI5110
aI3
aI6745
aI19293
aI5
aI1366
aI55
aI45
aI316
aI547
aI34
aI63765
asg6
S'the portion of generated power actually used to run the stations pumps and fans has to be allowed for .'
p11
ss.