(dp1
S'input'
p2
(dp3
S'encoded'
p4
(lp5
I64
aI2179
aI43
aI3
aI626
aI187
aI116
aI1989
aI34
aI3102
aI2223
asS'ori'
p6
S"This house believes the United States is responsible for Mexico's drugs war"
p7
ssS'output'
p8
(dp9
g4
(lp10
I378
aI691
aI311
aI870
aI2805
aI459
aI2762
aI8788
aI2565
aI5
aI7471
aI45
aI5
aI1544
aI28325
aI2941
aI182
aI3326
aI45
aI11
aI3818
aI3
aI1557
aI75
aI4336
aI9659
aI5
aI7165
aI3899
aI2612
aI45
aI8677
aI5
aI1443
aI3
aI1374
aI45
aI5
aI316
aI6707
aI45
aI2299
aI63765
asg6
S'However  since at least February 2008 under Project Gunrunner  Operations "Fast and Furious"  "Too Hot to Handle"  "Wide Receiver" and "White Gun" (all together satirically dubbed "Operation Gunwalker")  are alleged to have done the opposite by ATF permitting and facilitating \'straw purchase\' firearm sales to traffickers  and allowing the guns to \'walk\' and be transported to Mexico .'
p11
ss.