(dp1
S'input'
p2
(dp3
S'encoded'
p4
(lp5
I64
aI2179
aI394
aI16756
aI20435
asS'ori'
p6
S'This house would criminalize blasphemy'
p7
ssS'output'
p8
(dp9
g4
(lp10
I24
aI645
aI646
aI20491
aI3
aI3341
aI122
aI4546
aI7
aI3135
aI18231
aI34
aI7252
aI51
aI1274
aI14
aI89
aI369
aI4990
aI20492
aI63765
asg6
S'In R v Gathercole (1838)  the defendant was convicted of criminal libel for publishing an attack on a Roman Catholic nunnery .'
p11
ss.