(dp1
S'input'
p2
(dp3
S'encoded'
p4
(lp5
I64
aI2179
aI43
aI8629
aI116
aI3
aI117
aI998
asS'ori'
p6
S'This house believes atheism is the only way'
p7
ssS'output'
p8
(dp9
g4
(lp10
I5711
aI2247
aI870
aI4990
aI835
aI63
aI443
aI9280
aI3011
aI16583
aI88
aI316
aI4514
aI7
aI351
aI90
aI7
aI18571
aI63
aI182
aI18712
aI8495
aI5
aI18571
aI92
aI182
aI99
aI417
aI316
aI15
aI6679
aI691
aI155
aI15
aI6455
aI45
aI3
aI1643
aI6260
aI63765
asg6
S'Christian faith (at least catholic faith) holds that no irrational / contradictory assertions may be object of any kind of belief; truths that are rationally demonstrable and truths which are not should be both compatible since they both refer to the same reality .'
p11
ss.