(dp1
S'input'
p2
(dp3
S'encoded'
p4
(lp5
I64
aI2179
aI394
aI2017
aI262
asS'ori'
p6
S'This house would ban boxing'
p7
ssS'output'
p8
(dp9
g4
(lp10
I64
aI598
aI723
aI116
aI61
aI89
aI484
aI116
aI1578
aI45
aI1453
aI298
aI42
aI764
aI45
aI1807
aI366
aI42
aI1808
aI952
aI42
aI139
aI790
aI45
aI1546
aI73
aI1569
aI3
aI1296
aI63765
asg6
S'This defensive style is what a boxer is taught to do when he begins to box  after he gains experience he can decide to change or vary the guard .'
p11
ss.