(dp1
S'input'
p2
(dp3
S'encoded'
p4
(lp5
I64
aI2179
aI13605
aI2258
aI45
aI2194
asS'ori'
p6
S'This house prefers trade to aid'
p7
ssS'output'
p8
(dp9
g4
(lp10
I61
aI1445
aI7328
aI7
aI137
aI63
aI182
aI24
aI2404
aI182
aI153
aI416
aI45
aI949
aI298
aI3
aI1068
aI116
aI34
aI1932
aI6684
aI4949
aI63765
asg6
S'What large sums of money that are in Africa are often used to develop mega-projects when the need is for smaller scale projects .'
p11
ss.