(dp1
S'input'
p2
(dp3
S'encoded'
p4
(lp5
I64
aI2179
aI43
aI8629
aI116
aI3
aI117
aI998
asS'ori'
p6
S'This house believes atheism is the only way'
p7
ssS'output'
p8
(dp9
g4
(lp10
I3
aI143
aI19
aI1376
aI4537
aI343
aI3
aI2096
aI63
aI5480
aI123
aI3269
aI14
aI3
aI2259
aI63
aI21895
aI158
aI7076
aI9568
aI45
aI4805
aI1376
aI4537
aI63765
asg6
S'The argument from poor design contests the idea that God created life on the basis that lifeforms  including humans  seem to exhibit poor design .'
p11
ss.