(dp1
S'input'
p2
(dp3
S'encoded'
p4
(lp5
I64
aI2179
aI394
aI2017
aI628
asS'ori'
p6
S'This house would ban gambling'
p7
ssS'output'
p8
(dp9
g4
(lp10
I3
aI2029
aI1629
aI864
aI4295
aI6796
aI92
aI182
aI41
aI63765
asg6
S"The Bill set out it's licensing objectives  which are as follows:  ."
p11
ss.