(dp1
S'input'
p2
(dp3
S'encoded'
p4
(lp5
I64
aI2179
aI43
aI63
aI134
aI116
aI400
aI21
aI34
aI3
aI260
aI45
aI3439
aI57
aI7
aI2381
asS'ori'
p6
S'This house believes that it is sometimes right for the government to restrict freedom of speech'
p7
ssS'output'
p8
(dp9
g4
(lp10
I24
aI9812
aI3501
aI7
aI2265
aI4883
aI12862
aI63335
aI459
aI3
aI708
aI7
aI3
aI4750
aI7
aI2332
aI92
aI16353
aI11721
aI3955
aI45
aI17701
aI63
aI155
aI382
aI1956
aI5616
aI63765
asg6
S'In 1275 Philip III of France put Parisian scriptoria under the control of the University of Paris which inspected manuscript books to verify that they were correctly copied  .'
p11
ss.