(dp1
S'input'
p2
(dp3
S'encoded'
p4
(lp5
I64
aI2179
aI43
aI63
aI187
aI417
aI99
aI16642
aI3
aI6449
aI7
aI3935
asS'ori'
p6
S'This house believes that states should not subsidize the growing of tobacco'
p7
ssS'output'
p8
(dp9
g4
(lp10
I248
aI138
aI773
aI89
aI9983
aI759
aI7
aI1235
aI4027
aI5
aI4009
aI14833
aI55
aI29240
aI22907
aI58283
aI22480
aI211
aI16112
aI5
aI3279
aI3
aI3914
aI41
aI89
aI2993
aI14867
aI63765
asg6
S"Other than being a frequent part of short stories and novels  smoking has spawned endless eulogies  praising its qualities and affirming the author's identity as a devoted smoker ."
p11
ss.