(dp1
S'input'
p2
(dp3
S'encoded'
p4
(lp5
I64
aI2179
aI43
aI63
aI3
aI4990
aI4991
aI116
aI4850
aI24
aI12166
aI3
aI475
aI7
aI3532
aI3290
aI7
aI4714
asS'ori'
p6
S'This house believes that the Catholic Church is justified in forbidding the use of barrier methods of contraception'
p7
ssS'output'
p8
(dp9
g4
(lp10
I3
aI4758
aI7
aI4209
aI60
aI4895
aI3
aI10707
aI182
aI626
aI24
aI3
aI10754
aI32
aI3
aI4758
aI7
aI3
aI567
aI51
aI5
aI6260
aI487
aI738
aI63765
asg6
S"The college of bishops  with whom the priests are united in the priesthood  makes the college of the twelve an ever-present and ever-active reality until Christ's return ."
p11
ss.