(dp1
S'input'
p2
(dp3
S'encoded'
p4
(lp5
I64
aI2179
aI43
aI24
aI3
aI475
aI7
aI12436
aI3364
asS'ori'
p6
S'This house believes in the use of affirmative action'
p7
ssS'output'
p8
(dp9
g4
(lp10
I3
aI237
aI905
aI116
aI1021
aI545
aI89
aI3569
aI7
aI3
aI2533
aI3971
aI736
aI782
aI34
aI63
aI5505
aI2962
aI182
aI1021
aI1928
aI267
aI2439
aI73
aI4837
aI3
aI2180
aI7112
aI63765
asg6
S'The first report is due within a year of the Convention entering into effect for that state; thereafter reports are due every two years or whenever the Committee requests  .'
p11
ss.