(dp1
S'input'
p2
(dp3
S'encoded'
p4
(lp5
I64
aI2179
aI13605
aI2258
aI45
aI2194
asS'ori'
p6
S'This house prefers trade to aid'
p7
ssS'output'
p8
(dp9
g4
(lp10
I638
aI3
aI285
aI2219
aI63
aI725
aI8472
aI14
aI1260
aI2258
aI182
aI7811
aI3492
aI3708
aI7
aI3976
aI5
aI3945
aI8175
aI63765
asg6
S'Throughout the world  forces that many blame on free trade are eroding traditional ways of living and rural cultures .'
p11
ss.