(dp1
S'input'
p2
(dp3
S'encoded'
p4
(lp5
I64
aI2179
aI43
aI63
aI3376
aI4938
aI417
aI316
aI3537
asS'ori'
p6
S'This house believes that endangered species should be protected'
p7
ssS'output'
p8
(dp9
g4
(lp10
I378
aI24
aI639
aI19
aI620
aI7
aI7929
aI967
aI3
aI626
aI187
aI5047
aI7930
aI7931
aI24
aI588
aI45
aI7
aI271
aI2624
aI63765
asg6
S'However  in 16-month period from 2006 through 2007  29% of 577 beekeepers across the United States reported CCD losses in up to 76% of their colonies .'
p11
ss.