(dp1
S'input'
p2
(dp3
S'encoded'
p4
(lp5
I64
aI2179
aI43
aI63
aI134
aI116
aI400
aI21
aI34
aI3
aI260
aI45
aI3439
aI57
aI7
aI2381
asS'ori'
p6
S'This house believes that it is sometimes right for the government to restrict freedom of speech'
p7
ssS'output'
p8
(dp9
g4
(lp10
I3
aI5757
aI5378
aI48232
aI48233
aI122
aI17209
aI48234
aI34
aI3555
aI3
aI3524
aI7
aI3
aI8579
aI24
aI63765
asg6
S'The Turkish politician Dogu Perincek was fined CHF 12 000 for denying the existence of the Genocide in 2007 .'
p11
ss.