(dp1
S'input'
p2
(dp3
S'encoded'
p4
(lp5
I64
aI2179
aI43
aI63
aI3376
aI4938
aI417
aI316
aI3537
asS'ori'
p6
S'This house believes that endangered species should be protected'
p7
ssS'output'
p8
(dp9
g4
(lp10
I3
aI2533
aI29750
aI63
aI35
aI2635
aI182
aI99
aI13485
aI5
aI2139
aI864
aI89
aI7983
aI7
aI6806
aI475
aI63765
asg6
S'The convention reminds decision-makers that natural resources are not infinite and sets out a philosophy of sustainable use .'
p11
ss.