(dp1
S'input'
p2
(dp3
S'encoded'
p4
(lp5
I64
aI2179
aI394
aI2773
aI12505
asS'ori'
p6
S'This house would embrace multiculturalism'
p7
ssS'output'
p8
(dp9
g4
(lp10
I6404
aI42883
aI693
aI4309
aI45
aI73
aI116
aI3
aI296
aI7
aI2513
aI545
aI89
aI10
aI5
aI73
aI291
aI187
aI5
aI116
aI2840
aI41
aI89
aI3016
aI7
aI24
aI150
aI3296
aI63765
asg6
S'Prevalent ultranationalism typically leads to or is the result of conflict within a state  and or between states  and is identified as a condition of pre-war in national politics .'
p11
ss.