(dp1
S'input'
p2
(dp3
S'encoded'
p4
(lp5
I64
aI2179
aI43
aI223
aI2138
aI11
aI89
aI21
aI45
aI2185
aI372
asS'ori'
p6
S'This house believes all nations have a right to nuclear weapons'
p7
ssS'output'
p8
(dp9
g4
(lp10
I60
aI3
aI2206
aI30283
aI24
aI2790
aI3
aI2792
aI7
aI2206
aI2202
aI60
aI2390
aI5
aI3
aI746
aI3
aI2136
aI7
aI2431
aI122
aI5839
aI5
aI89
aI667
aI2136
aI7
aI30284
aI122
aI685
aI7579
aI2468
aI8135
aI122
aI2856
aI291
aI3
aI626
aI187
aI5
aI3
aI943
aI2131
aI63765
asg6
S'With the US pullout in Vietnam  the normalization of US relations with China  and the Sino-Soviet Split  the policy of Containment was abandoned and a new policy of detente was established  whereby peaceful coexistence was sought between the United States and the Soviet Union .'
p11
ss.