(dp1
S'input'
p2
(dp3
S'encoded'
p4
(lp5
I64
aI2179
aI43
aI63
aI187
aI417
aI99
aI16642
aI3
aI6449
aI7
aI3935
asS'ori'
p6
S'This house believes that states should not subsidize the growing of tobacco'
p7
ssS'output'
p8
(dp9
g4
(lp10
I89
aI281
aI11135
aI34
aI64
aI3226
aI24
aI14833
aI887
aI3495
aI116
aI18545
aI604
aI134
aI1735
aI34
aI3
aI3226
aI24
aI3
aI7693
aI7
aI3935
aI2885
aI45
aI2653
aI5
aI2506
aI63765
asg6
S'A major catalyst for this increase in smoking among women is globalization because it allows for the increase in the marketing of tobacco products to middle and low-income areas .'
p11
ss.