(dp1
S'input'
p2
(dp3
S'encoded'
p4
(lp5
I64
aI2179
aI43
aI63
aI1036
aI4828
aI33250
aI116
aI25073
aI45
aI3315
aI4562
asS'ori'
p6
S'This house believes that male infant circumcision is tantamount to child abuse'
p7
ssS'output'
p8
(dp9
g4
(lp10
I233
aI45
aI3
aI1643
aI4741
aI24
aI3
aI2644
aI398
aI8446
aI3024
aI451
aI89
aI8275
aI1869
aI7
aI33250
aI3
aI34832
aI63
aI20
aI3
aI33220
aI7486
aI9357
aI1609
aI134
aI49
aI6278
aI45
aI8731
aI3
aI33218
aI63765
asg6
S'According to the same researchers  in the mid 2nd century Jewish leaders introduced a radical method of circumcision  the periah  that left the glans totally uncovered  making it almost impossible to restore the foreskin  .'
p11
ss.