(dp1
S'input'
p2
(dp3
S'encoded'
p4
(lp5
I64
aI2179
aI43
aI63
aI134
aI116
aI400
aI21
aI34
aI3
aI260
aI45
aI3439
aI57
aI7
aI2381
asS'ori'
p6
S'This house believes that it is sometimes right for the government to restrict freedom of speech'
p7
ssS'output'
p8
(dp9
g4
(lp10
I8798
aI116
aI174
aI472
aI75
aI3
aI626
aI2138
aI2533
aI493
aI8798
aI92
aI55
aI12
aI2215
aI75
aI187
aI63765
asg6
S'Torture is also prohibited by the United Nations Convention Against Torture  which has been ratified by 147 states  .'
p11
ss.