(dp1
S'input'
p2
(dp3
S'encoded'
p4
(lp5
I64
aI2179
aI43
aI63
aI2203
aI60
aI51
aI997
aI2837
aI21716
aI1636
aI5349
aI417
aI2998
aI8532
aI45
aI3051
aI8578
asS'ori'
p6
S'This house believes that countries with an imbalanced male/female ratio skewed towards males should encourage parents to produce girls'
p7
ssS'output'
p8
(dp9
g4
(lp10
I3
aI1165
aI7
aI132
aI8811
aI5
aI3
aI2038
aI7
aI960
aI45
aI3
aI3486
aI5500
aI204
aI24
aI16501
aI73
aI28379
aI5013
aI298
aI3818
aI320
aI397
aI3
aI163
aI86
aI1483
aI6418
aI397
aI3
aI237
aI3276
aI63765
asg6
S'The difficulty of these tests and the risk of damage to the fetus  potentially resulting in miscarriage or congenital abnormalities (especially when done early during the pregnancy)  make them quite rare during the first trimester .'
p11
ss.