(dp1
S'input'
p2
(dp3
S'encoded'
p4
(lp5
I64
aI2179
aI13605
aI2258
aI45
aI2194
asS'ori'
p6
S'This house prefers trade to aid'
p7
ssS'output'
p8
(dp9
g4
(lp10
I3
aI260
aI13443
aI64
aI2290
aI75
aI2618
aI63
aI122
aI99
aI748
aI252
aI63765
asg6
S'The government defended this purchase by stating that "development was not possible without safety" .'
p11
ss.