(dp1
S'input'
p2
(dp3
S'encoded'
p4
(lp5
I64
aI2179
aI43
aI17
aI4941
aI857
aI3211
asS'ori'
p6
S'This house believes social deprivation causes crime'
p7
ssS'output'
p8
(dp9
g4
(lp10
I257
aI155
aI182
aI1336
aI12598
aI3
aI752
aI45
aI1746
aI3
aI70
aI83
aI316
aI7166
aI75
aI271
aI17
aI3016
aI73
aI248
aI1356
aI63
aI182
aI4825
aI45
aI86
aI63765
asg6
S'If they are truly rational  the decision to break the law must be informed by their social condition or other factors that are relevant to them .'
p11
ss.