(dp1
S'input'
p2
(dp3
S'encoded'
p4
(lp5
I64
aI2179
aI43
aI3
aI626
aI187
aI116
aI1989
aI34
aI3102
aI2223
asS'ori'
p6
S"This house believes the United States is responsible for Mexico's drugs war"
p7
ssS'output'
p8
(dp9
g4
(lp10
I14
aI2959
aI89
aI281
aI4148
aI427
aI238
aI291
aI2789
aI7
aI3
aI32711
aI5
aI28432
aI8679
aI24
aI3
aI4996
aI7
aI32711
aI8812
aI2300
aI63
aI20
aI78
aI5327
aI63765
asg6
S'On April 26  2008  a major battle took place between members of the Tijuana and Sinaloa cartels in the city of Tijuana  Baja California  that left 17 people dead  .'
p11
ss.