(dp1
S'input'
p2
(dp3
S'encoded'
p4
(lp5
I64
aI2179
aI394
aI2773
aI12505
asS'ori'
p6
S'This house would embrace multiculturalism'
p7
ssS'output'
p8
(dp9
g4
(lp10
I12505
aI122
aI1841
aI45
aI51
aI1462
aI24
aI3
aI2696
aI5
aI3
aI2096
aI122
aI6347
aI75
aI2478
aI81
aI3709
aI16273
aI64
aI3487
aI736
aI3
aI2023
aI2022
aI63765
asg6
S'Multiculturalism was coming to an understanding in the country and the idea was promoted by scholars who help integrate this aspect into the Canadian Society .'
p11
ss.