(dp1
S'input'
p2
(dp3
S'encoded'
p4
(lp5
I64
aI2179
aI43
aI63
aI2659
aI417
aI1690
aI3
aI12048
aI7
aI19084
asS'ori'
p6
S'This house believes that Israel should lift the blockade of Gaza'
p7
ssS'output'
p8
(dp9
g4
(lp10
I134
aI122
aI8709
aI366
aI1191
aI767
aI571
aI75
aI51
aI2218
aI10300
aI5738
aI1296
aI6918
aI5
aI267
aI31496
aI19189
aI63765
asg6
S'It was intercepted after about ten minutes by an armed Hellenic Coast Guard boat and two Zodiac speedboats .'
p11
ss.