(dp1
S'input'
p2
(dp3
S'encoded'
p4
(lp5
I64
aI2179
aI43
aI63
aI1036
aI4828
aI33250
aI116
aI25073
aI45
aI3315
aI4562
asS'ori'
p6
S'This house believes that male infant circumcision is tantamount to child abuse'
p7
ssS'output'
p8
(dp9
g4
(lp10
I24
aI425
aI3
aI1560
aI4371
aI7
aI3874
aI2039
aI2173
aI782
aI7
aI33250
aI14
aI33262
aI25282
aI73
aI8803
aI3797
aI116
aI6877
aI63765
asg6
S'In January 2007  The American Academy of Family Physicians (AAFP) stated "The effect of circumcision on penile sensation or sexual satisfaction is unknown .'
p11
ss.