(dp1
S'input'
p2
(dp3
S'encoded'
p4
(lp5
I64
aI2179
aI394
aI9385
aI2497
aI447
aI14
aI3
aI3578
aI5721
aI7
aI260
asS'ori'
p6
S'This house would enforce term limits on the legislative branch of government'
p7
ssS'output'
p8
(dp9
g4
(lp10
I3
aI4408
aI5277
aI1607
aI45
aI3
aI758
aI7
aI3
aI2179
aI89
aI2477
aI3264
aI63
aI394
aI190
aI2179
aI2789
aI45
aI1530
aI1809
aI5
aI2789
aI7
aI3
aI2145
aI63765
aI2211
aI45
aI267
aI1809
aI63765
asg6
S'The Republican leadership brought to the floor of the House a constitutional amendment that would limit House members to six two-year terms and members of the U .S . Senate to two six-year terms .'
p11
ss.