(dp1
S'input'
p2
(dp3
S'encoded'
p4
(lp5
I64
aI2179
aI43
aI24
aI3
aI475
aI7
aI12436
aI3364
asS'ori'
p6
S'This house believes in the use of affirmative action'
p7
ssS'output'
p8
(dp9
g4
(lp10
I30681
aI508
aI1966
aI63
aI3
aI237
aI6985
aI7
aI10535
aI41
aI89
aI17
aI13502
aI71
aI45
aI6030
aI26408
aI92
aI100
aI876
aI186
aI55
aI6570
aI24
aI223
aI1197
aI5
aI88
aI316
aI353
aI397
aI3
aI7564
aI2232
aI24
aI325
aI326
aI24
aI3695
aI52741
aI73
aI495
aI79
aI63765
asg6
S"Foucault thus argued that the first appearance of racism as a social discourse (as opposed to simple xenophobia  which some might argue has existed in all places and times) may be found during the 1688 Glorious Revolution in Great Britain  in Edward Coke or John Lilburne's work ."
p11
ss.