(dp1
S'input'
p2
(dp3
S'encoded'
p4
(lp5
I64
aI2179
aI43
aI63
aI187
aI417
aI99
aI16642
aI3
aI6449
aI7
aI3935
asS'ori'
p6
S'This house believes that states should not subsidize the growing of tobacco'
p7
ssS'output'
p8
(dp9
g4
(lp10
I134
aI116
aI217
aI1480
aI416
aI41
aI89
aI4498
aI2613
aI5
aI116
aI89
aI4943
aI3252
aI17529
aI34
aI2203
aI159
aI41
aI942
aI2390
aI5
aI3
aI626
aI187
aI63765
asg6
S'It is most commonly used as a recreational drug  and is a valuable cash crop for countries such as Cuba  China and the United States .'
p11
ss.