(dp1
S'input'
p2
(dp3
S'encoded'
p4
(lp5
I64
aI2179
aI394
aI4325
aI2042
aI270
aI89
aI11605
aI3324
asS'ori'
p6
S'This house would fund education using a voucher scheme'
p7
ssS'output'
p8
(dp9
g4
(lp10
I24
aI2714
aI417
aI316
aI5005
aI11101
aI61
aI5127
aI7
aI189
aI47
aI48
aI45
aI89
aI5324
aI1260
aI192
aI5
aI657
aI16
aI2702
aI29518
aI5826
aI5
aI9097
aI1161
aI63765
aI357
aI417
aI316
aI8182
aI75
aI61
aI95
aI63765
asg6
S'In 2006  Obama wrote: "We should be asking ourselves what mix of policies will lead to a dynamic free market and widespread economic security  entrepreneurial innovation and upward mobility [ . .] we should be guided by what works .'
p11
ss.