(dp1
S'input'
p2
(dp3
S'encoded'
p4
(lp5
I64
aI2179
aI394
aI2017
aI3807
aI314
aI3433
asS'ori'
p6
S'This house would ban partial birth abortions'
p7
ssS'output'
p8
(dp9
g4
(lp10
I3
aI10
aI7
aI3806
aI427
aI3
aI1597
aI63
aI3433
aI382
aI1301
aI13757
aI2867
aI1999
aI63
aI51
aI3461
aI122
aI99
aI1587
aI63765
asg6
S'The state of Nebraska took the position that D&X abortions were never medically necessary  meaning that an exception was not needed .'
p11
ss.