(dp1
S'input'
p2
(dp3
S'encoded'
p4
(lp5
I64
aI2179
aI394
aI5370
aI3
aI5286
asS'ori'
p6
S'This house would abolish the monarchy'
p7
ssS'output'
p8
(dp9
g4
(lp10
I3
aI5301
aI1040
aI207
aI839
aI759
aI24
aI260
aI63765
asg6
S'The Monarch takes little direct part in Government .'
p11
ss.