(dp1
S'input'
p2
(dp3
S'encoded'
p4
(lp5
I64
aI2179
aI43
aI63
aI2157
aI2565
aI493
aI19084
aI382
aI4850
asS'ori'
p6
S"This house believes that Israel's 2008-2009 military operations against Gaza were justified"
p7
ssS'output'
p8
(dp9
g4
(lp10
I3
aI2035
aI174
aI353
aI63
aI3269
aI459
aI11995
aI4477
aI400
aI2425
aI45
aI4764
aI19115
aI19
aI2731
aI63765
asg6
S'The study also found that life under rocket fire sometimes led to cognitive disengagement from threat .'
p11
ss.