(dp1
S'input'
p2
(dp3
S'encoded'
p4
(lp5
I64
aI2179
aI394
aI2017
aI262
asS'ori'
p6
S'This house would ban boxing'
p7
ssS'output'
p8
(dp9
g4
(lp10
I97
aI6330
aI7
aI89
aI28300
aI7985
aI1458
aI145
aI116
aI63
aI366
aI89
aI957
aI116
aI24347
aI3
aI10019
aI47
aI316
aI5396
aI5
aI1613
aI3
aI303
aI19
aI3456
aI830
aI131
aI153
aI134
aI116
aI748
aI45
aI186
aI257
aI100
aI28300
aI7985
aI381
aI4231
aI24
aI93
aI1610
aI94
aI73
aI97
aI63765
asg6
S'Another indicator of a semi-contact martial arts competition system is that after a point is rewarded the adversaries will be separated and resume the match from safe distance  but often it is possible to argue if some martial arts sports belong in one contact group or another .'
p11
ss.