(dp1
S'input'
p2
(dp3
S'encoded'
p4
(lp5
I64
aI2179
aI394
aI5370
aI7146
aI4585
aI2446
asS'ori'
p6
S'This house would abolish intellectual property rights'
p7
ssS'output'
p8
(dp9
g4
(lp10
I24
aI3
aI3520
aI52248
aI2856
aI45
aI41404
aI3
aI28
aI279
aI70
aI63765
asg6
S'In the 1760s  William Blackstone sought to codify the English common law .'
p11
ss.