(dp1
S'input'
p2
(dp3
S'encoded'
p4
(lp5
I64
aI2179
aI235
aI3
aI2136
aI7
aI3
aI2306
aI7
aI2390
asS'ori'
p6
S'This house supports the one-child policy of the republic of China'
p7
ssS'output'
p8
(dp9
g4
(lp10
I1920
aI14
aI3
aI2148
aI6684
aI3
aI285
aI2598
aI116
aI1879
aI41
aI116
aI3
aI2914
aI14953
aI7
aI2445
aI3964
aI104
aI89
aI1177
aI63
aI55
aI12
aI3107
aI34
aI4166
aI2439
aI691
aI3
aI2445
aI2891
aI7
aI6678
aI63765
asg6
S'Nevertheless  on the global scale the world population is increasing  as is the net quantity of human food produced  a pattern that has been true for roughly 10 000 years  since the human development of agriculture .'
p11
ss.