(dp1
S'input'
p2
(dp3
S'encoded'
p4
(lp5
I64
aI2179
aI43
aI8629
aI116
aI3
aI117
aI998
asS'ori'
p6
S'This house believes atheism is the only way'
p7
ssS'output'
p8
(dp9
g4
(lp10
I14530
aI139
aI316
aI16341
aI736
aI1237
aI2890
aI63765
asg6
S'Agnosticism can be subdivided into several categories .'
p11
ss.