(dp1
S'input'
p2
(dp3
S'encoded'
p4
(lp5
I64
aI2179
aI394
aI2017
aI262
asS'ori'
p6
S'This house would ban boxing'
p7
ssS'output'
p8
(dp9
g4
(lp10
I395
aI3
aI414
aI461
aI864
aI5
aI29024
aI1969
aI3
aI8649
aI864
aI63
aI357
aI2383
aI45
aI750
aI2716
aI257
aI357
aI2383
aI45
aI750
aI3236
aI357
aI11
aI45
aI750
aI63765
asg6
S'Later  the word went out and Deng sent the message out that "If we want to win friends  if we want to win respect  we have to win medals" .'
p11
ss.