(dp1
S'input'
p2
(dp3
S'encoded'
p4
(lp5
I64
aI2179
aI43
aI8629
aI116
aI3
aI117
aI998
asS'ori'
p6
S'This house believes atheism is the only way'
p7
ssS'output'
p8
(dp9
g4
(lp10
I2985
aI7
aI8296
aI4537
aI8412
aI34
aI1343
aI11
aI5546
aI4702
aI7
aI270
aI64
aI125
aI1380
aI7
aI143
aI63765
asg6
S'Critics of intelligent design creationism  for example  have accused proponents of using this basic type of argument  .'
p11
ss.