(dp1
S'input'
p2
(dp3
S'encoded'
p4
(lp5
I64
aI2179
aI43
aI8629
aI116
aI3
aI117
aI998
asS'ori'
p6
S'This house believes atheism is the only way'
p7
ssS'output'
p8
(dp9
g4
(lp10
I1710
aI45
aI14985
aI75
aI2767
aI147
aI122
aI166
aI63765
asg6
S'Giving to non-religious charities by religious individuals was $88 higher .'
p11
ss.