(dp1
S'input'
p2
(dp3
S'encoded'
p4
(lp5
I64
aI2179
aI43
aI63
aI2157
aI2565
aI493
aI19084
aI382
aI4850
asS'ori'
p6
S"This house believes that Israel's 2008-2009 military operations against Gaza were justified"
p7
ssS'output'
p8
(dp9
g4
(lp10
I56544
aI905
aI4246
aI63
aI2659
aI3772
aI211
aI2674
aI5
aI4331
aI24
aI3708
aI63
aI1972
aI12392
aI291
aI2157
aI5
aI2224
aI3811
aI5
aI63
aI382
aI1881
aI45
aI190
aI2224
aI6043
aI5
aI6606
aI960
aI75
aI5971
aI5
aI7088
aI475
aI7
aI211
aI1186
aI9174
aI8056
aI31120
aI1441
aI5
aI10371
aI19
aI8069
aI7092
aI19369
aI24
aI3
aI2511
aI5
aI13634
aI7
aI3
aI905
aI3083
aI63
aI64
aI3487
aI7
aI3
aI56547
aI3089
aI5898
aI3
aI1277
aI976
aI3274
aI63
aI3
aI5838
aI2157
aI502
aI500
aI99
aI5137
aI3
aI2038
aI45
aI3180
aI63765
asg6
S'CSIS report notes that Israel planned its air and air-land campaigns in ways that clearly discriminated between military and civilian targets and that were intended to limit civilian casualties and collateral damage  by systematic and comprehensive use of its IS&R assets  careful mapping  GPS abilities and guidance from targeting experts briefed in the laws and conventions of war; the report concludes that this aspect of the IDFs actions met the key legal test that the anticipated military advantage did not outweigh the risk to civilians  .'
p11
ss.