(dp1
S'input'
p2
(dp3
S'encoded'
p4
(lp5
I64
aI2179
aI43
aI8629
aI116
aI3
aI117
aI998
asS'ori'
p6
S'This house believes atheism is the only way'
p7
ssS'output'
p8
(dp9
g4
(lp10
I374
aI357
aI9056
aI3
aI12644
aI291
aI170
aI4983
aI5
aI29796
aI14880
aI4962
aI45
aI2463
aI357
aI139
aI3642
aI5711
aI3148
aI75
aI1685
aI11958
aI5545
aI42995
aI442
aI7
aI2328
asg6
S"Once we acknowledge the similarity between conservative Christians and fascists  Hedges appears to suggest  we can confront Christian evil by setting aside 'the old polite rules of democracy .'"
p11
ss.