(dp1
S'input'
p2
(dp3
S'encoded'
p4
(lp5
I64
aI2179
aI43
aI223
aI2138
aI11
aI89
aI21
aI45
aI2185
aI372
asS'ori'
p6
S'This house believes all nations have a right to nuclear weapons'
p7
ssS'output'
p8
(dp9
g4
(lp10
I114
aI64
aI250
aI8231
aI1521
aI34
aI100
aI413
aI1021
aI45
aI3
aI7723
aI9381
aI51
aI24
aI100
aI7
aI211
aI934
aI4815
aI2164
aI2982
aI29892
aI14
aI25
aI878
aI7409
aI45
aI667
aI9741
aI742
aI63
aI3
aI250
aI122
aI611
aI14
aI6903
aI5
aI63
aI11588
aI116
aI99
aI1191
aI8991
aI12033
aI736
aI4585
aI131
aI1191
aI271
aI12489
aI75
aI63765
asg6
S'Though this deal fell apart for some time due to the Indians demanding an upgrade/improvement in some of its safety features  Russia\'s President Dmitry Medvedev on his official trip to New Delhi said that the deal was back on track and that "The talk is not about selling submarines into India\'s property  but about their rent by India\'s navy"  .'
p11
ss.