(dp1
S'input'
p2
(dp3
S'encoded'
p4
(lp5
I64
aI2179
aI394
aI2773
aI12505
asS'ori'
p6
S'This house would embrace multiculturalism'
p7
ssS'output'
p8
(dp9
g4
(lp10
I1445
aI6401
aI5933
aI3
aI5556
aI5
aI3970
aI7
aI89
aI4229
aI696
aI7
aI10070
aI6619
aI3
aI9685
aI7
aI93
aI1565
aI19856
aI2598
aI75
aI97
aI5
aI1240
aI820
aI2610
aI2136
aI11
aI2425
aI45
aI51
aI449
aI4066
aI2022
aI63765
asg6
S"Canada's large geographic size  the presence and survival of a significant number of indigenous peoples  the conquest of one European linguistic population by another and relatively open immigration policy have led to an extremely diverse society ."
p11
ss.