(dp1
S'input'
p2
(dp3
S'encoded'
p4
(lp5
I64
aI2179
aI394
aI5370
aI3
aI5286
asS'ori'
p6
S'This house would abolish the monarchy'
p7
ssS'output'
p8
(dp9
g4
(lp10
I24
aI2477
aI5286
aI3
aI5301
aI116
aI689
aI41
aI3
aI536
aI7
aI10
aI536
aI7
aI3
aI2218
aI2219
aI26303
aI7
aI3
aI6655
aI2382
aI5
aI1883
aI7
aI3
aI2247
aI63765
asg6
S"In Thailand's constitutional monarchy  the monarch is recognized as the Head of State  Head of the Armed Forces  Upholder of the Buddhist Religion  and Defender of the Faith ."
p11
ss.