(dp1
S'input'
p2
(dp3
S'encoded'
p4
(lp5
I64
aI2179
aI394
aI2773
aI12505
asS'ori'
p6
S'This house would embrace multiculturalism'
p7
ssS'output'
p8
(dp9
g4
(lp10
I53616
aI5
aI1015
aI1032
aI10
aI63
aI807
aI45
aI13198
aI116
aI89
aI807
aI7
aI3
aI16090
aI45
aI316
aI45
aI3281
aI24
aI3
aI3098
aI7
aI63765
asg6
S'Gudykunst and Kim (2003) simply state that failure to conform is a failure of the newcomer to be "fit to live in the company of others" (p .&nbsp;358) .'
p11
ss.