(dp1
S'input'
p2
(dp3
S'encoded'
p4
(lp5
I64
aI2179
aI43
aI17
aI4941
aI857
aI3211
asS'ori'
p6
S'This house believes social deprivation causes crime'
p7
ssS'output'
p8
(dp9
g4
(lp10
I1946
aI20123
aI81
aI11
aI12
aI2493
aI75
aI15072
aI182
aI174
aI136
aI1856
aI45
aI11
aI89
aI12548
aI92
aI4309
aI78
aI45
aI3743
aI3
aI3089
aI7
aI80
aI155
aI316
aI3978
aI73
aI41
aI12076
aI3978
aI5
aI1946
aI1636
aI86
aI63765
asg6
S'Aggressive adolescents who have been rejected by peers are also more likely to have a "hostile attribution bias" which leads people to interpret the actions of others (whether they be hostile or not) as purposefully hostile and aggressive towards them .'
p11
ss.