(dp1
S'input'
p2
(dp3
S'encoded'
p4
(lp5
I64
aI2179
aI43
aI63
aI2659
aI417
aI1690
aI3
aI12048
aI7
aI19084
asS'ori'
p6
S'This house believes that Israel should lift the blockade of Gaza'
p7
ssS'output'
p8
(dp9
g4
(lp10
I3
aI267
aI282
aI9318
aI382
aI1210
aI25150
aI7
aI3
aI626
aI2549
aI5
aI31515
aI63765
asg6
S'The two international observers were David Trimble of the United Kingdom and Brig .-Gen .'
p11
ss.