(dp1
S'input'
p2
(dp3
S'encoded'
p4
(lp5
I64
aI2179
aI43
aI63
aI3
aI4538
aI7
aI4434
aI7793
aI283
aI45
aI3586
aI417
aI316
aI577
asS'ori'
p6
S'This house believes that the sale of violent video games to minors should be banned'
p7
ssS'output'
p8
(dp9
g4
(lp10
I42
aI187
aI63
aI3
aI319
aI2357
aI111
aI51
aI126
aI7
aI10651
aI5
aI4013
aI1306
aI45
aI9138
aI3
aI63765
asg6
S'He states that the game relied upon an "unprecedented level of corroboration and collective intelligence to solve the game"  .'
p11
ss.