(dp1
S'input'
p2
(dp3
S'encoded'
p4
(lp5
I64
aI2179
aI43
aI3
aI626
aI187
aI116
aI1989
aI34
aI3102
aI2223
asS'ori'
p6
S"This house believes the United States is responsible for Mexico's drugs war"
p7
ssS'output'
p8
(dp9
g4
(lp10
I24
aI2805
aI28316
aI2148
aI1306
aI9108
aI3
aI696
aI45
aI316
aI5239
aI291
aI5
aI5
aI5047
aI49
aI2900
aI7
aI3
aI1374
aI5768
aI24
aI2299
aI24
aI382
aI99
aI3958
aI611
aI45
aI3
aI626
aI187
aI63765
asg6
S'In February 2011  Stratfor Global Intelligence calculated the number to be situated between 12% and 48%  and reported almost 90 percent of the guns seized in Mexico in 2008 were not traced back to the United States  .'
p11
ss.