(dp1
S'input'
p2
(dp3
S'encoded'
p4
(lp5
I64
aI2179
aI394
aI4325
aI2042
aI270
aI89
aI11605
aI3324
asS'ori'
p6
S'This house would fund education using a voucher scheme'
p7
ssS'output'
p8
(dp9
g4
(lp10
I117
aI7
aI3862
aI19
aI3
aI490
aI3854
aI8680
aI89
aI4758
aI4927
aI226
aI7
aI3
aI1200
aI3854
aI8680
aI93
aI63765
asg6
S'Only 11% of children from the bottom fifth earn a college degree while 80% of the top fifth earn one  .'
p11
ss.