(dp1
S'input'
p2
(dp3
S'encoded'
p4
(lp5
I64
aI2179
aI43
aI63
aI187
aI417
aI99
aI16642
aI3
aI6449
aI7
aI3935
asS'ori'
p6
S'This house believes that states should not subsidize the growing of tobacco'
p7
ssS'output'
p8
(dp9
g4
(lp10
I1179
aI182
aI32331
aI41
aI155
aI49356
aI19
aI3
aI490
aI45
aI3
aI1200
aI7
aI3
aI1552
aI63765
asg6
S'Leaves are cropped as they ripen  from the bottom to the top of the stalk .'
p11
ss.