(dp1
S'input'
p2
(dp3
S'encoded'
p4
(lp5
I64
aI2179
aI394
aI4325
aI2042
aI270
aI89
aI11605
aI3324
asS'ori'
p6
S'This house would fund education using a voucher scheme'
p7
ssS'output'
p8
(dp9
g4
(lp10
I267
aI2439
aI395
aI89
aI4270
aI24
aI3
aI2116
aI4168
aI3
aI136
aI3377
aI1038
aI9005
aI122
aI871
aI63765
asg6
S'Two years later a lesser In the June 2008 election the more narrowly defined Proposition 99 was passed  .'
p11
ss.