(dp1
S'input'
p2
(dp3
S'encoded'
p4
(lp5
I64
aI2179
aI43
aI63
aI3
aI28431
aI7
aI2157
aI4624
aI75
aI39939
aI27257
aI122
aI4850
asS'ori'
p6
S'This house believes that the leaking of military documents by Anat Kamm was justified'
p7
ssS'output'
p8
(dp9
g4
(lp10
I63765
aI3
aI658
aI116
aI2056
aI136
aI18503
aI1191
aI3
aI1862
aI24
aI2678
aI138
aI155
aI382
aI1447
aI3427
aI5
aI63
aI32
aI134
aI212
aI63765
asg6
S"[ . .] The public is now more skeptical about the administration's strategy in Afghanistan than they were last week  and that makes it real ."
p11
ss.