(dp1
S'input'
p2
(dp3
S'encoded'
p4
(lp5
I64
aI2179
aI13605
aI2258
aI45
aI2194
asS'ori'
p6
S'This house prefers trade to aid'
p7
ssS'output'
p8
(dp9
g4
(lp10
I5917
aI2429
aI63304
aI2364
aI2366
aI394
aI3701
aI8472
aI3
aI325
aI2356
aI111
aI3
aI34052
aI189
aI9731
aI75
aI3
aI3130
aI4408
aI2164
aI10458
aI7665
aI63765
asg6
S"Woodrow Wilson's ideological understudy  Franklin Roosevelt  would essentially blame the Great Depression upon the protectionist policies exemplified by the previous Republican President  Herbert Hoover ."
p11
ss.