(dp1
S'input'
p2
(dp3
S'encoded'
p4
(lp5
I64
aI2179
aI43
aI63
aI3
aI4990
aI4991
aI116
aI4850
aI24
aI12166
aI3
aI475
aI7
aI3532
aI3290
aI7
aI4714
asS'ori'
p6
S'This house believes that the Catholic Church is justified in forbidding the use of barrier methods of contraception'
p7
ssS'output'
p8
(dp9
g4
(lp10
I3718
aI4254
aI17848
aI122
aI89
aI9937
aI5711
aI5
aI3459
aI7
aI4254
aI13772
aI7
aI25800
aI81
aI366
aI89
aI25801
aI9184
aI5788
aI45
aI8378
aI5
aI373
aI93
aI7
aI3
aI217
aI2147
aI5711
aI10078
aI7
aI223
aI2231
aI63765
asg6
S'Similarly  Saint Monica was a pious Christian and mother of Saint Augustine of Hippo  who after a wayward youth  converted to Christianity and became one of the most influential Christian Theologians of all history .'
p11
ss.