(dp1
S'input'
p2
(dp3
S'encoded'
p4
(lp5
I64
aI2179
aI43
aI63
aI323
aI417
aI10009
aI211
aI9035
aI249
aI45
aI3426
aI211
aI2144
aI595
aI17
aI96
asS'ori'
p6
S'This house believes that Europe should weaken its austerity measures to guarantee its citizens greater social support'
p7
ssS'output'
p8
(dp9
g4
(lp10
I2507
aI3
aI7337
aI8950
aI139
aI3226
aI3
aI126
aI7
aI658
aI7337
aI3249
aI7935
aI2914
aI6036
aI7337
aI3987
aI5
aI376
aI2722
aI63765
asg6
S'Otherwise the debt issuance can increase the level of (i) public debt  (ii) private sector net worth  (iii) debt service (interest payments) and (iv) interest rates (See: "crowding out" below) .'
p11
ss.