(dp1
S'input'
p2
(dp3
S'encoded'
p4
(lp5
I64
aI2179
aI394
aI2741
aI3
aI1560
aI6025
aI2784
asS'ori'
p6
S'This house would pass the American Jobs Act'
p7
ssS'output'
p8
(dp9
g4
(lp10
I3
aI475
aI7
aI314
aI708
aI1442
aI3495
aI3
aI3479
aI7
aI17318
aI45
aI8052
aI5
aI3220
aI271
aI945
aI226
aI2751
aI89
aI1362
aI63765
asg6
S'The use of birth control gave women the flexibility of opting to invest and advance their career while maintaining a relationship .'
p11
ss.