(dp1
S'input'
p2
(dp3
S'encoded'
p4
(lp5
I64
aI2179
aI43
aI17
aI4941
aI857
aI3211
asS'ori'
p6
S'This house believes social deprivation causes crime'
p7
ssS'output'
p8
(dp9
g4
(lp10
I725
aI7
aI3
aI12197
aI20936
aI3
aI94
aI580
aI7
aI30221
aI3
aI7210
aI7
aI211
aI2789
aI211
aI475
aI7
aI2617
aI73
aI7170
aI45
aI671
aI211
aI2170
aI5
aI211
aI5345
aI63765
aI63765
aI63765
aI88
aI2931
aI24
aI725
aI274
aI311
aI384
aI1727
aI5
aI24
aI384
aI1197
aI63765
asg6
S'Many of the definitions emphasise the group nature of OC  the organisation of its members  its use of violence or corruption to achieve its goals  and its extra-jurisdictional character . . . .OC may appear in many forms at different times and in different places .'
p11
ss.