(dp1
S'input'
p2
(dp3
S'encoded'
p4
(lp5
I64
aI2179
aI394
aI16756
aI20435
asS'ori'
p6
S'This house would criminalize blasphemy'
p7
ssS'output'
p8
(dp9
g4
(lp10
I3
aI863
aI237
aI38176
aI18726
aI182
aI3818
aI60
aI3
aI2033
aI24
aI3
aI3780
aI7
aI1609
aI38658
aI45
aI3
aI11377
aI3459
aI34
aI20441
aI493
aI732
aI732
aI565
aI5
aI732
aI5781
aI5597
aI63765
asg6
S'The Five First Saturdays devotions are done with the intention in the heart of making reparation to the Blessed Mother for blasphemies against her  her name and her holy initiatives .'
p11
ss.