(dp1
S'input'
p2
(dp3
S'encoded'
p4
(lp5
I64
aI2179
aI394
aI2017
aI223
aI9058
aI23653
asS'ori'
p6
S'This house would ban all unsustainable logging'
p7
ssS'output'
p8
(dp9
g4
(lp10
I21454
aI1039
aI2509
aI3
aI6369
aI12348
aI7
aI7809
aI5
aI7992
aI92
aI153
aI10177
aI1642
aI3
aI18848
aI2219
aI159
aI41
aI6678
aI2667
aI2891
aI2258
aI5
aI2573
aI189
aI5
aI70
aI3353
aI63765
asg6
S"CIFOR's multidisciplinary approach considers the underlying drivers of deforestation and degradation  which often lie outside the forestry sector: forces such as agriculture  infrastructure development  trade and investment policies and law enforcement ."
p11
ss.