(dp1
S'input'
p2
(dp3
S'encoded'
p4
(lp5
I64
aI2179
aI235
aI3
aI2136
aI7
aI3
aI2306
aI7
aI2390
asS'ori'
p6
S'This house supports the one-child policy of the republic of China'
p7
ssS'output'
p8
(dp9
g4
(lp10
I3
aI2035
aI353
aI443
aI350
aI7
aI351
aI33909
aI24
aI117
aI3862
aI63765
asg6
S'The study found no evidence of any maladjustment in only children .'
p11
ss.