(dp1
S'input'
p2
(dp3
S'encoded'
p4
(lp5
I64
aI2179
aI43
aI223
aI2138
aI11
aI89
aI21
aI45
aI2185
aI372
asS'ori'
p6
S'This house believes all nations have a right to nuclear weapons'
p7
ssS'output'
p8
(dp9
g4
(lp10
I3
aI626
aI187
aI394
aI99
aI7246
aI3
aI7600
aI7
aI2046
aI5
aI874
aI2047
aI5
aI132
aI5597
aI11
aI41454
aI63765
asg6
S'The United States would not accept the participation of Iran and North Korea and these initiatives have lapsed .'
p11
ss.