(dp1
S'input'
p2
(dp3
S'encoded'
p4
(lp5
I64
aI2179
aI394
aI60
aI23587
asS'ori'
p6
S'This house would re-engage with Myanmar'
p7
ssS'output'
p8
(dp9
g4
(lp10
I378
aI3
aI4127
aI382
aI1224
aI60
aI165
aI7
aI3118
aI13860
aI5152
aI75
aI3
aI332
aI63765
asg6
S'However  the battles were intense with much of Burma laid waste by the fighting .'
p11
ss.