(dp1
S'input'
p2
(dp3
S'encoded'
p4
(lp5
I64
aI2179
aI394
aI5370
aI223
aI4013
aI10440
aI2446
aI4881
aI75
aI14482
aI11004
asS'ori'
p6
S'This house would abolish all collective bargaining rights claimed by trades unions'
p7
ssS'output'
p8
(dp9
g4
(lp10
I691
aI3
aI367
aI7
aI3
aI6500
aI11147
aI24
aI28017
aI24
aI725
aI2793
aI1565
aI187
aI55
aI1435
aI311
aI51
aI113
aI136
aI5495
aI2994
aI63765
asg6
S'Since the fall of the Iron Curtain in 1989  unionisation in many eastern European states has collapsed at an even more dramatic rate .'
p11
ss.