(dp1
S'input'
p2
(dp3
S'encoded'
p4
(lp5
I64
aI2179
aI394
aI16642
aI1376
aI5269
asS'ori'
p6
S'This house would subsidize poor communities'
p7
ssS'output'
p8
(dp9
g4
(lp10
I89
aI145
aI60
aI443
aI7399
aI7
aI3064
aI92
aI2535
aI100
aI3728
aI7
aI7399
aI88
aI2909
aI952
aI89
aI14454
aI4350
aI1999
aI63
aI443
aI4224
aI545
aI3
aI145
aI182
aI3150
aI1295
aI5
aI311
aI870
aI93
aI2007
aI116
aI1796
aI1295
aI63765
asg6
S'A system with no redistribution of wealth which adds some measure of redistribution may actually experience a Pareto Improvement  meaning that no persons within the system are worse off and at least one person is better off .'
p11
ss.