(dp1
S'input'
p2
(dp3
S'encoded'
p4
(lp5
I64
aI2179
aI43
aI8629
aI116
aI3
aI117
aI998
asS'ori'
p6
S'This house believes atheism is the only way'
p7
ssS'output'
p8
(dp9
g4
(lp10
I75
aI495
aI1131
aI29632
aI8301
aI5699
aI63764
aI75
aI8643
aI8644
aI5
aI6511
aI14585
aI8644
aI63765
asg6
S'by John Lennox (Oxford: Lion  2009)The Dawkins Delusion ?  by Alister McGrath and Joanna Collicutt McGrath  .'
p11
ss.