(dp1
S'input'
p2
(dp3
S'encoded'
p4
(lp5
I64
aI2179
aI394
aI1499
aI177
aI1819
aI34
aI160
asS'ori'
p6
S'This house would build high rises for housing'
p7
ssS'output'
p8
(dp9
g4
(lp10
I24
aI3
aI398
aI1545
aI86
aI41
aI12386
aI39222
aI5
aI2173
aI63
aI3
aI2471
aI7
aI2598
aI3940
aI24
aI132
aI11279
aI6766
aI574
aI93
aI160
aI289
aI78
aI63765
asg6
S"In the 10th century  Al-Muqaddasi described them as resembling minarets  and stated that the majority of Fustat's population lived in these multi-storey apartment buildings  each one housing over 200 people  ."
p11
ss.