(dp1
S'input'
p2
(dp3
S'encoded'
p4
(lp5
I64
aI2179
aI43
aI63
aI2157
aI2565
aI493
aI19084
aI382
aI4850
asS'ori'
p6
S"This house believes that Israel's 2008-2009 military operations against Gaza were justified"
p7
ssS'output'
p8
(dp9
g4
(lp10
I51
aI25058
aI4087
aI4384
aI60
aI5
aI5717
aI75
aI3
aI19088
aI4156
aI19203
aI2022
aI2822
aI7
aI2997
aI45
aI3
aI31268
aI736
aI3
aI3780
aI7
aI89
aI4148
aI45
aI6676
aI455
aI45
aI5
aI3
aI20096
aI7
aI3
aI2700
aI7
aI31268
aI63765
asg6
S'An ambulance driver registered with and trained by the Palestinian Red Crescent Society spoke of Hamas\' efforts to "lure the ambulances into the heart of a battle to transport fighters to safety" and the hijacking of the al-Quds Hospital\'s fleet of ambulances  .'
p11
ss.