(dp1
S'input'
p2
(dp3
S'encoded'
p4
(lp5
I64
aI2179
aI235
aI3
aI2136
aI7
aI3
aI2306
aI7
aI2390
asS'ori'
p6
S'This house supports the one-child policy of the republic of China'
p7
ssS'output'
p8
(dp9
g4
(lp10
I3858
aI89
aI3315
aI534
aI89
aI4229
aI968
aI7
aI3874
aI112
aI5
aI24
aI3
aI385
aI89
aI3315
aI500
aI99
aI1199
aI51
aI16
aI9003
aI487
aI42
aI73
aI3313
aI4012
aI3
aI79
aI972
aI311
aI3485
aI6516
aI63765
asg6
S'Raising a child required a significant portion of family income  and in the cities a child did not become an economic asset until he or she entered the work force at age sixteen .'
p11
ss.