(dp1
S'input'
p2
(dp3
S'encoded'
p4
(lp5
I64
aI2179
aI394
aI2017
aI628
asS'ori'
p6
S'This house would ban gambling'
p7
ssS'output'
p8
(dp9
g4
(lp10
I45
aI972
aI7604
aI45
aI905
aI1445
aI3252
aI7709
aI2503
aI70
aI122
aI579
aI45
aI3781
aI41
aI158
aI1445
aI628
aI3224
aI63765
asg6
S'To force casinos to report large cash transactions  federal law was changed to define "financial institution" as including large gambling businesses .'
p11
ss.