(dp1
S'input'
p2
(dp3
S'encoded'
p4
(lp5
I64
aI2179
aI394
aI2017
aI262
asS'ori'
p6
S'This house would ban boxing'
p7
ssS'output'
p8
(dp9
g4
(lp10
I4573
aI1967
aI1191
aI755
aI3
aI4462
aI7
aI2008
aI417
aI1074
aI117
aI120
aI772
aI24
aI92
aI852
aI7
aI4803
aI985
aI63765
asg6
S'Controversy exists about whether the definition of concussion should include only those injuries in which loss of consciousness occurs  .'
p11
ss.