(dp1
S'input'
p2
(dp3
S'encoded'
p4
(lp5
I64
aI2179
aI394
aI2976
aI12243
aI24
aI954
aI126
aI1560
aI10723
asS'ori'
p6
S'This house would implement playoffs in collegiate level American football'
p7
ssS'output'
p8
(dp9
g4
(lp10
I990
aI3
aI34949
aI150
aI1011
aI122
aI89
aI7807
aI291
aI4235
aI10
aI5
aI2296
aI63765
asg6
S'Ultimately  the BCS National Championship was a meeting between Ohio State and Florida .'
p11
ss.