(dp1
S'input'
p2
(dp3
S'encoded'
p4
(lp5
I64
aI2179
aI394
aI5370
aI7146
aI4585
aI2446
asS'ori'
p6
S'This house would abolish intellectual property rights'
p7
ssS'output'
p8
(dp9
g4
(lp10
I1237
aI2508
aI2446
aI693
aI18971
aI45
aI3
aI8843
aI7
aI89
aI63765
asg6
S'Several exclusive rights typically attach to the holder of a copyright:  .'
p11
ss.