(dp1
S'input'
p2
(dp3
S'encoded'
p4
(lp5
I64
aI2179
aI394
aI1499
aI177
aI1819
aI34
aI160
asS'ori'
p6
S'This house would build high rises for housing'
p7
ssS'output'
p8
(dp9
g4
(lp10
I33028
aI159
aI41
aI13015
aI5
aI20094
aI182
aI162
aI3132
aI1375
aI2676
aI311
aI3249
aI7383
aI73
aI257
aI89
aI4431
aI23555
aI116
aI119
aI63765
asg6
S'Amenities such as pools and playgrounds are usually absent  unless built at private expense  or if a municipal playground is available .'
p11
ss.