(dp1
S'input'
p2
(dp3
S'encoded'
p4
(lp5
I64
aI2179
aI394
aI190
aI3
aI21
aI45
aI3895
aI834
asS'ori'
p6
S'This house would limit the right to bear arms'
p7
ssS'output'
p8
(dp9
g4
(lp10
I725
aI2611
aI2446
aI3552
aI133
aI63
aI3
aI1950
aI3264
aI236
aI3
aI21
aI45
aI284
aI1374
aI34
aI229
aI1201
aI720
aI3923
aI5
aI1409
aI3969
aI63765
asg6
S'Many gun rights advocates believe that the Second Amendment protects the right to own guns for individual self defense  hunting  and target shooting .'
p11
ss.