(dp1
S'input'
p2
(dp3
S'encoded'
p4
(lp5
I64
aI2179
aI43
aI63
aI2157
aI2565
aI493
aI19084
aI382
aI4850
asS'ori'
p6
S"This house believes that Israel's 2008-2009 military operations against Gaza were justified"
p7
ssS'output'
p8
(dp9
g4
(lp10
I12901
aI7
aI844
aI2230
aI282
aI2893
aI70
aI92
aI28281
aI3
aI3089
aI75
aI27078
aI397
aI51
aI2218
aI2513
aI11
aI12
aI5869
aI311
aI15
aI2659
aI5
aI16619
aI34
aI271
aI3089
aI397
aI3
aI19084
aI2223
aI63765
asg6
S'Accusations of violations regarding international humanitarian law  which governs the actions by belligerents during an armed conflict  have been directed at both Israel and Hamas for their actions during the Gaza War .'
p11
ss.