(dp1
S'input'
p2
(dp3
S'encoded'
p4
(lp5
I64
aI2179
aI43
aI17
aI4941
aI857
aI3211
asS'ori'
p6
S'This house believes social deprivation causes crime'
p7
ssS'output'
p8
(dp9
g4
(lp10
I6269
aI3
aI24209
aI1760
aI9417
aI19
aI4212
aI159
aI41
aI7196
aI7300
aI5
aI1968
aI2613
aI2761
aI45
aI3757
aI2593
aI1038
aI2170
aI63765
asg6
S'Consequently  the innovator uses proceeds from crimes such as fraud  theft  and illegal drug dealing to access culturally defined goals .'
p11
ss.