(dp1
S'input'
p2
(dp3
S'encoded'
p4
(lp5
I64
aI2179
aI394
aI5370
aI3
aI5286
asS'ori'
p6
S'This house would abolish the monarchy'
p7
ssS'output'
p8
(dp9
g4
(lp10
I3
aI278
aI4679
aI7691
aI2126
aI41
aI89
aI2306
aI14
aI3
aI363
aI2823
aI60
aI495
aI12952
aI3399
aI3010
aI16523
aI34
aI475
aI41
aI9564
aI14
aI5884
aI323
aI63765
asg6
S'The Commonwealth Parliament represented itself as a Republic on the classical model  with John Milton writing Latin justifications for use as propaganda on Continental Europe .'
p11
ss.