(dp1
S'input'
p2
(dp3
S'encoded'
p4
(lp5
I64
aI2179
aI43
aI8629
aI116
aI3
aI117
aI998
asS'ori'
p6
S'This house believes atheism is the only way'
p7
ssS'output'
p8
(dp9
g4
(lp10
I64
aI122
aI4292
aI24
aI298
aI42
aI14342
aI34
aI3
aI18779
aI7
aI89
aI18780
aI8556
aI89
aI8189
aI5480
aI24
aI89
aI13862
aI11649
aI5
aI221
aI18781
aI5404
aI63765
asg6
S'This was highlighted in 1956 when he arranged for the erection of a statue depicting a Hindu god in a humble representation and made antitheistic statements  .'
p11
ss.