(dp1
S'input'
p2
(dp3
S'encoded'
p4
(lp5
I64
aI2179
aI394
aI3830
aI3
aI475
aI7
aI9441
aI13132
aI3102
aI24
aI276
aI381
asS'ori'
p6
S'This house would permit the use of performance enhancing drugs in professional sports'
p7
ssS'output'
p8
(dp9
g4
(lp10
I100
aI12349
aI957
aI45
aI3
aI1719
aI5501
aI3216
aI24
aI381
aI675
aI10723
aI5
aI28300
aI7985
aI5
aI13444
aI257
aI273
aI116
aI89
aI4915
aI3440
aI53
aI3217
aI5046
aI1607
aI75
aI3
aI1946
aI580
aI7
aI132
aI381
aI116
aI4415
aI4713
aI131
aI99
aI50264
asg6
S'some athletes point to the already dangerous environment in sports like football and martial arts and wonder if there is a double standard where health concerns brought by the aggressive nature of these sports is viewed acceptable but not PEDs'
p11
ss.