(dp1
S'input'
p2
(dp3
S'encoded'
p4
(lp5
I64
aI2179
aI43
aI63
aI1036
aI4828
aI33250
aI116
aI25073
aI45
aI3315
aI4562
asS'ori'
p6
S'This house believes that male infant circumcision is tantamount to child abuse'
p7
ssS'output'
p8
(dp9
g4
(lp10
I155
aI10
aI63
aI5404
aI3435
aI75
aI276
aI5989
aI3344
aI926
aI2023
aI5
aI1560
aI39826
aI1453
aI99
aI8958
aI16412
aI33250
aI7
aI1036
aI18559
aI63765
asg6
S'They state that "policy statements issued by professional societies representing Australian  Canadian  and American pediatricians do not recommend routine circumcision of male newborns .'
p11
ss.