(dp1
S'input'
p2
(dp3
S'encoded'
p4
(lp5
I64
aI2179
aI394
aI5370
aI3
aI5286
asS'ori'
p6
S'This house would abolish the monarchy'
p7
ssS'output'
p8
(dp9
g4
(lp10
I3
aI6359
aI116
aI3
aI4213
aI7
aI6429
aI21237
aI5354
aI243
aI2043
aI45
aI24
aI28
aI378
aI2962
aI7
aI4015
aI10886
aI159
aI41
aI6455
aI45
aI86
aI41
aI6359
aI5
aI40985
aI116
aI416
aI887
aI248
aI194
aI34
aI3
aI1950
aI15919
aI24
aI3
aI40986
aI100
aI1565
aI7423
aI174
aI11
aI89
aI15463
aI399
aI7
aI3
aI414
aI6359
aI159
aI41
aI3
aI9719
aI40987
aI3
aI4169
aI40988
aI5
aI3
aI2330
aI40989
aI63765
asg6
S'The pope is the Bishop of Rome (a celibate office always forbidden to women)  in English however  reports of female popes such as (Pope Joan) refer to them as pope and Popess is used  among other things  for the second trump in the Tarot deck; some European languages also have a feminine form of the word pope  such as the Italian papessa  the French papesse  and the German Papstin .'
p11
ss.