(dp1
S'input'
p2
(dp3
S'encoded'
p4
(lp5
I64
aI2179
aI43
aI63
aI3
aI21
aI45
aI12715
aI417
aI99
aI316
aI2897
asS'ori'
p6
S'This house believes that the right to asylum should not be absolute'
p7
ssS'output'
p8
(dp9
g4
(lp10
I24
aI285
aI2223
aI2233
aI2023
aI16541
aI2144
aI7
aI2330
aI73
aI8902
aI3957
aI382
aI18050
aI7
aI271
aI21
aI45
aI2490
aI5
aI5805
aI7
aI5806
aI7
aI28941
aI382
aI4651
aI24
aI3
aI382
aI1111
aI588
aI5
aI4883
aI24
aI28918
aI2424
aI63765
asg6
S'In World War I  Canadian naturalized citizens of German or Austrian origins were stripped of their right to vote  and tens of thousands of Ukrainians (who were born in the Austro-Hungarian Empire) were rounded up and put in internment camps  .'
p11
ss.