(dp1
S'input'
p2
(dp3
S'encoded'
p4
(lp5
I64
aI2179
aI394
aI117
aI7428
aI21151
aI34
aI11389
aI2042
aI24
aI4364
asS'ori'
p6
S'This house would only teach abstinence for sex education in schools'
p7
ssS'output'
p8
(dp9
g4
(lp10
I24
aI643
aI2203
aI11390
aI16513
aI182
aI566
aI60
aI725
aI17
aI214
aI158
aI979
aI5207
aI2363
aI166
aI2722
aI7
aI130
aI5
aI248
aI11606
aI3269
aI6609
aI24
aI3862
aI7
aI11390
aI3534
aI63765
asg6
S'In developed countries  teenage pregnancies are associated with many social issues  including lower educational levels  higher rates of poverty  and other poorer life outcomes in children of teenage mothers .'
p11
ss.