(dp1
S'input'
p2
(dp3
S'encoded'
p4
(lp5
I64
aI2179
aI43
aI63
aI3
aI21
aI45
aI12715
aI417
aI99
aI316
aI2897
asS'ori'
p6
S'This house believes that the right to asylum should not be absolute'
p7
ssS'output'
p8
(dp9
g4
(lp10
I4384
aI30985
aI182
aI3976
aI24
aI2046
aI92
aI174
aI1074
aI3
aI4259
aI4651
aI822
aI2046
aI63765
asg6
S'935 600 registered Afghans are living in Iran  which also include the ones born inside Iran  .'
p11
ss.