(dp1
S'input'
p2
(dp3
S'encoded'
p4
(lp5
I64
aI2179
aI43
aI17
aI4941
aI857
aI3211
asS'ori'
p6
S'This house believes social deprivation causes crime'
p7
ssS'output'
p8
(dp9
g4
(lp10
I1706
aI273
aI116
aI400
aI51
aI8087
aI6032
aI7
aI5049
aI6348
aI7
aI3965
aI41
aI89
aI2259
aI34
aI5506
aI351
aI521
aI7
aI3211
aI63765
asg6
S'Further  there is sometimes an apparent rejection of utilitarian theories of deterrence as a basis for eliminating any cause of crime .'
p11
ss.