(dp1
S'input'
p2
(dp3
S'encoded'
p4
(lp5
I64
aI2179
aI394
aI2017
aI262
asS'ori'
p6
S'This house would ban boxing'
p7
ssS'output'
p8
(dp9
g4
(lp10
I89
aI41330
aI116
aI89
aI484
aI81
aI55
aI99
aI907
aI24
aI351
aI3517
aI7
aI51
aI820
aI5520
aI1011
aI63765
asg6
S'A Novice is a boxer who has not competed in any stage of an Open Senior Championship .'
p11
ss.