(dp1
S'input'
p2
(dp3
S'encoded'
p4
(lp5
I64
aI2179
aI43
aI24
aI3
aI475
aI7
aI12436
aI3364
asS'ori'
p6
S'This house believes in the use of affirmative action'
p7
ssS'output'
p8
(dp9
g4
(lp10
I34
aI3
aI23930
aI2935
aI3518
aI1314
aI20036
aI7029
aI63
aI4584
aI7
aI2203
aI34
aI6836
aI45
aI3
aI626
aI187
aI5
aI25
aI475
aI7
aI350
aI122
aI21716
aI45
aI1069
aI51
aI877
aI63765
asg6
S'" For the Sacramento News & Review  Chris Springer asserts that Sowell\'s selection of countries for comparison to the United States and his use of evidence was skewed to reach an anti-affirmative-action conclusion .'
p11
ss.