(dp1
S'input'
p2
(dp3
S'encoded'
p4
(lp5
I64
aI2179
aI394
aI2773
aI12505
asS'ori'
p6
S'This house would embrace multiculturalism'
p7
ssS'output'
p8
(dp9
g4
(lp10
I24
aI3
aI22
aI11647
aI24
aI3
aI2145
aI63765
aI3402
aI63
aI574
aI2812
aI5
aI150
aI94
aI55
aI3
aI21
aI45
aI1049
aI5
aI10008
aI211
aI2637
aI4798
aI5
aI4657
aI5
aI63
aI93
aI98
aI99
aI1068
aI45
aI18453
aI73
aI2968
aI3910
aI24
aI128
aI45
aI22882
aI24
aI73
aI20970
aI736
aI3
aI2471
aI2022
aI63765
asg6
S"In the 1990s  political correctness in the U .S . emphasized that each ethnic and national group has the right to maintain and preserve its cultural distinction and integrity  and that one does not need to assimilate or abandon one's heritage in order to blend in or merge into the majority Anglo-American society ."
p11
ss.