(dp1
S'input'
p2
(dp3
S'encoded'
p4
(lp5
I64
aI2179
aI394
aI5284
aI150
aI3987
asS'ori'
p6
S'This house would reintroduce national service'
p7
ssS'output'
p8
(dp9
g4
(lp10
I1890
aI3
aI4706
aI2180
aI394
aI99
aI163
aI89
aI2386
aI10293
aI289
aI64
aI829
aI131
aI500
aI1074
aI134
aI24
aI3
aI2892
aI11364
aI34
aI3
aI164
aI10293
aI63
aI5259
aI440
aI15949
aI5259
aI1863
aI12732
aI19
aI120
aI60
aI2190
aI751
aI25
aI2180
aI63765
asg6
S'Eventually the Ethics Committee would not make a specific charge over this matter but did include it in the supporting documentation for the overall charge that Rangel had solicited Rangel Center donations from those with business before his committee  .'
p11
ss.