(dp1
S'input'
p2
(dp3
S'encoded'
p4
(lp5
I64
aI2179
aI43
aI63
aI3376
aI4938
aI417
aI316
aI3537
asS'ori'
p6
S'This house believes that endangered species should be protected'
p7
ssS'output'
p8
(dp9
g4
(lp10
I3664
aI3024
aI1068
aI45
aI84
aI3364
aI75
aI8070
aI3
aI6369
aI15081
aI2219
aI958
aI138
aI3418
aI3267
aI3
aI8141
aI857
aI63765
asg6
S'Governmental leaders need to take action by addressing the underlying driving forces  rather than merely regulating the proximate causes .'
p11
ss.