(dp1
S'input'
p2
(dp3
S'encoded'
p4
(lp5
I64
aI2179
aI394
aI2017
aI223
aI9058
aI23653
asS'ori'
p6
S'This house would ban all unsustainable logging'
p7
ssS'output'
p8
(dp9
g4
(lp10
I3
aI36938
aI1379
aI3565
aI768
aI236
aI3
aI1413
aI19
aI7809
aI63765
asg6
S'The Arbor Day Foundation then protects the land from deforestation .'
p11
ss.