(dp1
S'input'
p2
(dp3
S'encoded'
p4
(lp5
I64
aI2179
aI43
aI17
aI4941
aI857
aI3211
asS'ori'
p6
S'This house believes social deprivation causes crime'
p7
ssS'output'
p8
(dp9
g4
(lp10
I3
aI24293
aI5
aI2485
aI7
aI165
aI2038
aI5085
aI2041
aI116
aI3531
aI63765
asg6
S'The robustness and validity of much risk factor research is criticized for:  .'
p11
ss.