(dp1
S'input'
p2
(dp3
S'encoded'
p4
(lp5
I64
aI2179
aI43
aI63
aI187
aI417
aI99
aI16642
aI3
aI6449
aI7
aI3935
asS'ori'
p6
S'This house believes that states should not subsidize the growing of tobacco'
p7
ssS'output'
p8
(dp9
g4
(lp10
I2962
aI19
aI3
aI237
aI1565
aI28790
aI5
aI58239
aI45
aI1069
aI3
aI8868
aI4749
aI7
aI8186
aI53
aI3920
aI10707
aI14836
aI777
aI736
aI159
aI177
aI1603
aI7
aI19611
aI63
aI134
aI116
aI1722
aI63
aI3
aI8186
aI382
aI913
aI45
aI1640
aI3935
aI63765
asg6
S'Reports from the first European explorers and conquistadors to reach the Americas tell of rituals where native priests smoked themselves into such high degrees of intoxication that it is unlikely that the rituals were limited to just tobacco .'
p11
ss.