(dp1
S'input'
p2
(dp3
S'encoded'
p4
(lp5
I64
aI2179
aI394
aI475
aI2135
aI2194
aI6198
aI45
aI2041
aI5
aI13926
aI8732
aI63
aI1735
aI12708
aI5
aI5599
aI24
aI2203
aI45
aI1397
aI7149
aI5
aI12311
aI271
aI5119
aI4948
asS'ori'
p6
S'This house would use foreign aid funds to research and distribute software that allows bloggers and journalists in non-democratic countries to evade censorship and conceal their online activities'
p7
ssS'output'
p8
(dp9
g4
(lp10
I1252
aI73
aI24314
aI139
aI316
aI3818
aI311
aI89
aI8782
aI150
aI126
aI311
aI89
aI17733
aI126
aI73
aI311
aI51
aI8890
aI126
aI34
aI1343
aI24
aI10181
aI6804
aI73
aI7147
aI27547
aI63765
asg6
S'Blocking or filtering can be done at a centralized national level  at a decentralized sub-national level  or at an institutional level  for example in libraries  universities or Internet cafes .'
p11
ss.