(dp1
S'input'
p2
(dp3
S'encoded'
p4
(lp5
I64
aI2179
aI394
aI4325
aI2042
aI270
aI89
aI11605
aI3324
asS'ori'
p6
S'This house would fund education using a voucher scheme'
p7
ssS'output'
p8
(dp9
g4
(lp10
I1560
aI5556
aI15
aI15375
aI5
aI5
aI55
aI5084
aI7
aI7961
aI7
aI2145
aI63765
aI9523
aI2666
asg6
S'American presence "emboldens both insurgents and terrorists"  and has cost "hundreds of billions of U .S . taxpayer dollars ."'
p11
ss.