(dp1
S'input'
p2
(dp3
S'encoded'
p4
(lp5
I64
aI2179
aI394
aI16756
aI20435
asS'ori'
p6
S'This house would criminalize blasphemy'
p7
ssS'output'
p8
(dp9
g4
(lp10
I20435
aI5
aI20436
aI18231
aI302
aI45
aI316
aI9696
aI459
aI3
aI279
aI70
aI7
aI4192
aI4581
aI63765
asg6
S'Blasphemy and blasphemous libel continue to be offences under the common law of Northern Ireland .'
p11
ss.