(dp1
S'input'
p2
(dp3
S'encoded'
p4
(lp5
I64
aI2179
aI394
aI117
aI7428
aI21151
aI34
aI11389
aI2042
aI24
aI4364
asS'ori'
p6
S'This house would only teach abstinence for sex education in schools'
p7
ssS'output'
p8
(dp9
g4
(lp10
I24
aI100
aI8313
aI100
aI3136
aI7
aI78
aI182
aI4666
aI45
aI2455
aI5865
aI5
aI45
aI21236
aI19
aI11389
aI3191
aI63765
asg6
S'In some religions  some groups of people are expected to remain unmarried and to abstain from sex completely .'
p11
ss.