(dp1
S'input'
p2
(dp3
S'encoded'
p4
(lp5
I64
aI2179
aI13605
aI2258
aI45
aI2194
asS'ori'
p6
S'This house prefers trade to aid'
p7
ssS'output'
p8
(dp9
g4
(lp10
I1022
aI115
aI34
aI2952
aI116
aI174
aI1587
aI45
aI1706
aI2444
aI24
aI2587
aI5
aI2560
aI19801
aI5
aI975
aI3
aI1350
aI7
aI4849
aI2952
aI5
aI2361
aI63765
asg6
S'Technical Assistance for negotiations is also needed to further developing-country interests in multilateral and bilateral arenas and ensure the success of future negotiations and agreements .'
p11
ss.