(dp1
S'input'
p2
(dp3
S'encoded'
p4
(lp5
I64
aI2179
aI43
aI63
aI134
aI116
aI400
aI21
aI34
aI3
aI260
aI45
aI3439
aI57
aI7
aI2381
asS'ori'
p6
S'This house believes that it is sometimes right for the government to restrict freedom of speech'
p7
ssS'output'
p8
(dp9
g4
(lp10
I3
aI7983
aI7
aI2445
aI2446
aI44
aI45
aI7114
aI3
aI6369
aI2259
aI7
aI3
aI3445
aI7
aI2445
aI2446
aI5
aI11165
aI8039
aI311
aI211
aI7151
aI5
aI3566
aI63765
asg6
S'The philosophy of human rights attempts to examine the underlying basis of the concept of human rights and critically looks at its content and justification .'
p11
ss.