(dp1
S'input'
p2
(dp3
S'encoded'
p4
(lp5
I64
aI2179
aI394
aI2017
aI628
asS'ori'
p6
S'This house would ban gambling'
p7
ssS'output'
p8
(dp9
g4
(lp10
I3693
aI2364
aI3550
aI89
aI5930
aI45
aI5918
aI137
aI45
aI2290
aI4124
aI34
aI3
aI720
aI7
aI9923
asg6
S'Benjamin Franklin organized a lottery to raise money to purchase cannon for the defense of Philadelphia'
p11
ss.