(dp1
S'input'
p2
(dp3
S'encoded'
p4
(lp5
I64
aI2179
aI394
aI5370
aI7146
aI4585
aI2446
asS'ori'
p6
S'This house would abolish intellectual property rights'
p7
ssS'output'
p8
(dp9
g4
(lp10
I100
aI2203
aI88
aI11
aI1526
aI4433
aI2051
aI63
aI501
aI3
aI12717
aI8843
aI45
aI708
aI3
aI29210
aI63765
asg6
S'Some countries may have parallel importation restrictions that allow the copyright holder to control the aftermarket .'
p11
ss.