(dp1
S'input'
p2
(dp3
S'encoded'
p4
(lp5
I64
aI2179
aI394
aI2998
aI3
aI4360
aI7
aI3249
aI6804
aI24
aI3
aI102
asS'ori'
p6
S'This house would encourage the creation of private universities in the UK'
p7
ssS'output'
p8
(dp9
g4
(lp10
I4750
aI7
aI21429
aI21430
aI2390
aI24
aI21430
aI21431
aI626
aI282
aI4758
aI24
aI21432
aI17792
aI4750
aI24
aI21433
aI21434
aI63765
asg6
S"University of Nottingham Ningbo  China (UNNC) in Ningbo  Zhejiang United International College (UIC) in Zhuhai  Guangdong Xi'an Jiaotong-Liverpool University (XJTLU) in Suzhou  Jiangsu  ."
p11
ss.