(dp1
S'input'
p2
(dp3
S'encoded'
p4
(lp5
I64
aI2179
aI43
aI63
aI7382
aI116
aI400
aI4713
asS'ori'
p6
S'This house believes that bribery is sometimes acceptable'
p7
ssS'output'
p8
(dp9
g4
(lp10
I459
aI8219
aI6285
aI7
aI3
aI16834
aI187
aI4615
aI182
aI5676
aI45
aI2677
aI93
aI97
aI24
aI1928
aI3487
aI7
aI3
aI405
aI493
aI7170
aI158
aI2466
aI9359
aI5
aI3
aI7795
aI7
aI7582
aI63765
asg6
S'Under Chapter IV of the UNCAC  States Parties are obliged to assist one another in every aspect of the fight against corruption  including prevention  investigation  and the prosecution of offenders .'
p11
ss.