(dp1
S'input'
p2
(dp3
S'encoded'
p4
(lp5
I64
aI2179
aI43
aI223
aI2138
aI11
aI89
aI21
aI45
aI2185
aI372
asS'ori'
p6
S'This house believes all nations have a right to nuclear weapons'
p7
ssS'output'
p8
(dp9
g4
(lp10
I6834
aI24
aI3
aI626
aI187
aI19
aI3
aI11685
aI2762
aI440
aI2973
aI63
aI24
aI413
aI3
aI943
aI2131
aI394
aI4807
aI949
aI2185
aI7832
aI7
aI211
aI284
aI63765
asg6
S'Scientists in the United States from the Manhattan Project had warned that  in time  the Soviet Union would certainly develop nuclear capabilities of its own .'
p11
ss.