(dp1
S'input'
p2
(dp3
S'encoded'
p4
(lp5
I64
aI2179
aI43
aI24
aI3
aI475
aI7
aI12436
aI3364
asS'ori'
p6
S'This house believes in the use of affirmative action'
p7
ssS'output'
p8
(dp9
g4
(lp10
I41
aI7
aI6426
aI78
aI11
aI12
aI48302
aI41
aI366
aI3
aI6426
aI2016
aI7
aI2318
aI2404
aI427
aI3
aI2318
aI5025
aI260
aI45
aI2483
aI5
aI6335
aI63765
asg6
S'As of 2008  Chinese people have been reclassified as "black" after The Chinese Association of South Africa took the South African government to court and won  .'
p11
ss.