(dp1
S'input'
p2
(dp3
S'encoded'
p4
(lp5
I64
aI2179
aI394
aI4325
aI2042
aI270
aI89
aI11605
aI3324
asS'ori'
p6
S'This house would fund education using a voucher scheme'
p7
ssS'output'
p8
(dp9
g4
(lp10
I53
aI4364
aI382
aI7464
aI3
aI2240
aI3337
aI122
aI174
aI534
aI45
aI9036
aI89
aI10245
aI3351
aI45
aI351
aI30111
aI81
aI14037
aI45
aI773
aI7482
aI24
aI51
aI7464
aI2240
aI63765
asg6
S'Where schools were integrated  the school district was also required to offer a tuition grant to any pupil who objected to being educated in an integrated school  .'
p11
ss.