(dp1
S'input'
p2
(dp3
S'encoded'
p4
(lp5
I64
aI2179
aI43
aI63
aI3
aI28431
aI7
aI2157
aI4624
aI75
aI39939
aI27257
aI122
aI4850
asS'ori'
p6
S'This house believes that the leaking of military documents by Anat Kamm was justified'
p7
ssS'output'
p8
(dp9
g4
(lp10
I3373
aI4750
aI4358
aI11
aI12
aI2973
aI75
aI271
aI5354
aI7
aI945
aI3205
aI63
aI3
aI2145
aI63765
aI10
aI2176
aI440
aI28430
aI3
aI5354
aI24
aI51
aI10586
aI3270
aI63
aI3
aI2436
aI3229
aI92
aI382
aI5162
aI75
aI2201
aI382
aI513
aI5
aI63
aI13502
aI1191
aI3
aI4624
aI4918
aI736
aI2802
aI828
aI710
aI45
aI250
aI60
aI9192
aI5224
aI63765
asg6
S'Columbia University students have been warned by their Office of Career Services that the U .S . State Department had contacted the office in an email saying that the diplomatic cables which were released by WikiLeaks were "still considered classified" and that "online discourse about the documents \'would call into question your ability to deal with confidential information .'
p11
ss.