(dp1
S'input'
p2
(dp3
S'encoded'
p4
(lp5
I64
aI2179
aI394
aI163
aI959
aI2042
aI3557
asS'ori'
p6
S'This house would make physical education compulsory'
p7
ssS'output'
p8
(dp9
g4
(lp10
I3
aI246
aI1348
aI234
aI116
aI63
aI773
aI25313
aI857
aI570
aI3217
aI251
aI45
aI16329
aI131
aI45
aI89
aI4270
aI4927
aI63765
asg6
S'The generally accepted view is that being overweight causes similar health problems to obesity  but to a lesser degree .'
p11
ss.