(dp1
S'input'
p2
(dp3
S'encoded'
p4
(lp5
I64
aI2179
aI43
aI223
aI2138
aI11
aI89
aI21
aI45
aI2185
aI372
asS'ori'
p6
S'This house believes all nations have a right to nuclear weapons'
p7
ssS'output'
p8
(dp9
g4
(lp10
I7188
aI1760
aI7
aI972
aI5
aI248
aI13000
aI9160
aI41
aI16
aI83
aI316
aI11584
aI14330
aI24
aI128
aI45
aI5918
aI3
aI1889
aI4359
aI5136
aI7
aI27944
aI63765
asg6
S"Threats  uses of force  and other coercive instruments (such as economic sanctions) must be sufficiently credible in order to raise the attacking state's perceived costs of noncompliance ."
p11
ss.