(dp1
S'input'
p2
(dp3
S'encoded'
p4
(lp5
I64
aI2179
aI43
aI63
aI2157
aI2565
aI493
aI19084
aI382
aI4850
asS'ori'
p6
S"This house believes that Israel's 2008-2009 military operations against Gaza were justified"
p7
ssS'output'
p8
(dp9
g4
(lp10
I14
aI425
aI6056
aI13656
aI2951
aI51
aI1224
aI11741
aI7
aI3
aI4996
aI226
aI332
aI122
aI637
aI520
aI14
aI24
aI3
aI8686
aI63765
asg6
S'On January 15  Israeli artillery started an intense bombardment of the city while fighting was still going on in the streets .'
p11
ss.