(dp1
S'input'
p2
(dp3
S'encoded'
p4
(lp5
I64
aI2179
aI43
aI3
aI626
aI187
aI116
aI1989
aI34
aI3102
aI2223
asS'ori'
p6
S"This house believes the United States is responsible for Mexico's drugs war"
p7
ssS'output'
p8
(dp9
g4
(lp10
I97
aI1932
aI1626
aI458
aI24
aI459
aI3
aI1643
aI4336
aI8509
aI7834
aI1239
aI63765
asg6
S'Another  smaller probe occurred in 2007 under the same ATF Phoenix field division .'
p11
ss.