(dp1
S'input'
p2
(dp3
S'encoded'
p4
(lp5
I64
aI2179
aI394
aI5284
aI150
aI3987
asS'ori'
p6
S'This house would reintroduce national service'
p7
ssS'output'
p8
(dp9
g4
(lp10
I3
aI4445
aI7029
aI3
aI21
aI45
aI5751
aI3
aI2912
aI7
aI3
aI1949
aI202
aI75
aI27867
aI63765
aI63765
aI116
aI64
aI5548
aI3843
aI60
aI3
aI5345
aI7
aI89
aI1260
aI260
aI63764
aI116
aI64
aI3202
aI3447
aI63764
aI116
aI64
aI3
aI212
aI5345
aI7
aI3218
aI2475
aI63764
aI443
aI5548
aI5267
aI134
aI116
aI99
aI63765
aI63765
aI53
aI116
aI134
aI441
aI24
aI3
aI2475
aI24
aI61
aI3500
aI73
aI4185
aI116
aI134
aI423
aI63
aI1198
aI88
aI84
aI3862
aI19
aI271
aI8532
aI5
aI8532
aI19
aI271
aI3862
aI5
aI6183
aI86
aI45
aI405
aI3
aI4127
aI7
aI351
aI2223
aI24
aI92
aI3
aI27449
aI73
aI3
aI21171
aI7
aI260
aI88
aI268
aI134
aI63764
aI459
aI61
aI16854
aI55
aI64
aI546
aI27868
aI11006
aI92
aI2056
aI34
aI3
aI237
aI413
aI3610
aI4884
aI60
aI89
aI1425
aI5
aI27869
aI3487
aI45
aI20823
aI462
aI5
aI11955
aI3
aI27870
aI2446
aI7
aI3446
aI3447
aI63764
aI63765
aI12468
aI3759
aI2179
aI7
aI5260
aI4506
asg6
S'The administration asserts the right to fill the ranks of the regular army by compulsion . . Is this  sir  consistent with the character of a free government ? Is this civil liberty ? Is this the real character of our Constitution ? No  sir  indeed it is not . . Where is it written in the Constitution  in what article or section is it contained  that you may take children from their parents  and parents from their children  and compel them to fight the battles of any war  in which the folly or the wickedness of government may engage it ? Under what concealment has this power lain hidden  which now for the first time comes forth  with a tremendous and baleful aspect  to trample down and destroy the dearest rights of personal liberty ?  . |- Daniel Webster (December 9  1814 House of Representatives Address'
p11
ss.