(dp1
S'input'
p2
(dp3
S'encoded'
p4
(lp5
I64
aI2179
aI394
aI2741
aI3
aI1560
aI6025
aI2784
asS'ori'
p6
S'This house would pass the American Jobs Act'
p7
ssS'output'
p8
(dp9
g4
(lp10
I132
aI78
aI182
aI6941
aI120
aI81
aI182
aI7531
aI5076
aI63765
aI89
aI5226
aI16237
aI81
aI116
aI108
aI24
aI89
aI14971
aI7955
aI487
aI42
aI139
aI154
aI89
aI1994
aI1028
aI6163
aI3534
aI81
aI394
aI1385
aI45
aI79
aI5
aI10438
aI5
aI276
aI2240
aI4358
aI81
aI382
aI121
aI45
aI154
aI6184
aI6025
aI366
aI155
aI10416
aI60
aI271
aI1603
aI63765
asg6
S'These people are "involuntary part-time" workers  those who are underemployed  e .g .  a computer programmer who is working in a retail store until he can find a permanent job  involuntary stay-at-home mothers who would prefer to work  and graduate and Professional school students who were unable to find worthwhile jobs after they graduated with their Bachelor\'s degrees .'
p11
ss.