(dp1
S'input'
p2
(dp3
S'encoded'
p4
(lp5
I64
aI2179
aI43
aI24
aI3
aI475
aI7
aI12436
aI3364
asS'ori'
p6
S'This house believes in the use of affirmative action'
p7
ssS'output'
p8
(dp9
g4
(lp10
I298
aI3
aI2482
aI2483
aI297
aI11192
aI646
aI63765
aI2128
aI7
aI2042
aI3
aI260
aI1966
aI63
aI3
aI2482
aI2483
aI417
aI306
aI493
aI10250
aI12537
aI45
aI1180
aI3151
aI9564
aI5
aI3204
aI1189
aI8273
aI63765
asg6
S"When the Supreme Court decided Brown v . Board of Education  the government argued that the Supreme Court should rule against racial segregation to counter Communist propaganda and improve America's image overseas  ."
p11
ss.