(dp1
S'input'
p2
(dp3
S'encoded'
p4
(lp5
I64
aI2179
aI394
aI16756
aI20435
asS'ori'
p6
S'This house would criminalize blasphemy'
p7
ssS'output'
p8
(dp9
g4
(lp10
I64
aI116
aI3
aI39807
aI7
aI3
aI9735
aI5
aI3
aI13297
aI7
aI5714
aI111
aI159
aI78
aI93
aI63
aI351
aI5761
aI116
aI1031
aI1835
aI63765
asg6
S'This is the sunnah of the prophet and the verdict of Islam upon such people  one that any Muslim is able execute .'
p11
ss.