(dp1
S'input'
p2
(dp3
S'encoded'
p4
(lp5
I64
aI2179
aI43
aI63
aI3
aI21
aI45
aI12715
aI417
aI99
aI316
aI2897
asS'ori'
p6
S'This house believes that the right to asylum should not be absolute'
p7
ssS'output'
p8
(dp9
g4
(lp10
I3
aI5428
aI260
aI7
aI383
aI89
aI2136
aI7
aI4287
aI2372
aI2610
aI2183
aI24
aI1170
aI7
aI4300
aI136
aI7801
aI736
aI3
aI2581
aI708
aI5
aI17491
aI3079
aI2192
aI63765
asg6
S'The Labour government of 1974-79 maintained a policy of opposing internal immigration controls in favour of putting more resource into the border control and visa offices abroad .'
p11
ss.