(dp1
S'input'
p2
(dp3
S'encoded'
p4
(lp5
I64
aI2179
aI43
aI223
aI2138
aI11
aI89
aI21
aI45
aI2185
aI372
asS'ori'
p6
S'This house believes all nations have a right to nuclear weapons'
p7
ssS'output'
p8
(dp9
g4
(lp10
I14
aI492
aI2206
aI2164
aI1206
aI2839
aI63765
aI2813
aI440
aI5898
aI7700
aI1405
aI2161
aI41529
aI35169
aI5
aI551
aI63
aI42
aI394
aI79
aI45
aI1546
aI2206
aI70
aI5
aI282
aI442
aI45
aI3830
aI2258
aI24
aI2206
aI2224
aI2185
aI2186
aI60
aI2450
aI63765
asg6
S'On 18 July 2005  US President George W . Bush had met Indian Prime Minister Manmohan Singh and declared that he would work to change US law and international rules to permit trade in US civilian nuclear technology with India  .'
p11
ss.