(dp1
S'input'
p2
(dp3
S'encoded'
p4
(lp5
I64
aI2179
aI394
aI5370
aI223
aI4013
aI10440
aI2446
aI4881
aI75
aI14482
aI11004
asS'ori'
p6
S'This house would abolish all collective bargaining rights claimed by trades unions'
p7
ssS'output'
p8
(dp9
g4
(lp10
I93
aI7
aI3
aI4229
aI150
aI12616
aI11004
aI45
aI316
aI4316
aI397
aI64
aI413
aI122
aI3
aI150
aI203
aI2131
aI63765
asg6
S'" One of the significant national craft unions to be formed during this time was the National Labor Union (NLU) .'
p11
ss.