(dp1
S'input'
p2
(dp3
S'encoded'
p4
(lp5
I64
aI2179
aI43
aI63
aI187
aI417
aI99
aI16642
aI3
aI6449
aI7
aI3935
asS'ori'
p6
S'This house believes that states should not subsidize the growing of tobacco'
p7
ssS'output'
p8
(dp9
g4
(lp10
I41
aI320
aI41
aI411
aI2233
aI3470
aI89
aI25453
aI45
aI3935
aI24
aI92
aI42
aI742
aI63
aI3935
aI1517
aI382
aI828
aI25454
aI15
aI24
aI4224
aI5
aI5
aI3
aI414
aI7
aI16952
aI7
aI3
aI4991
aI7
aI8440
aI10039
aI7
aI10041
aI441
aI24
aI4542
aI3
aI20257
aI7
aI3935
aI63765
aI116
aI99
aI34
aI3
aI760
aI880
aI34
aI3
aI1832
aI5
aI116
aI99
aI1228
aI34
aI460
aI131
aI116
aI51
aI25455
aI34
aI25456
aI5
aI223
aI4897
aI6755
aI45
aI316
aI416
aI60
aI3670
aI5
aI1065
asg6
S'As early as 1604 James I wrote A Counterblaste to Tobacco  in which he said that tobacco users were "harming your selves both in persons and goods" and the Word of Wisdom of The Church of Jesus Christ of Latter-day Saints  written in 1833  prohibits the ingestion of tobacco thus: " . .tobacco is not for the body  neither for the belly  and is not good for man  but is an herb for bruises and all sick cattle  to be used with judgment and skill ."'
p11
ss.