(dp1
S'input'
p2
(dp3
S'encoded'
p4
(lp5
I64
aI2179
aI394
aI5284
aI150
aI3987
asS'ori'
p6
S'This house would reintroduce national service'
p7
ssS'output'
p8
(dp9
g4
(lp10
I725
aI78
aI71
aI45
aI5
aI1563
aI5610
aI6016
aI45
aI843
aI1416
aI34
aI6017
aI5
aI6018
aI45
aI2224
aI4834
aI3987
aI73
aI6019
aI3987
aI545
aI3
aI2157
aI41
aI5623
aI5850
aI73
aI45
aI1397
aI3
aI5262
aI75
aI6020
aI45
aI89
aI842
aI2696
aI63765
asg6
S'Many people opposed to and facing conscription chose to either apply for classification and assignment to civilian alternative service or noncombatant service within the military as conscientious objectors  or to evade the draft by fleeing to a neutral country .'
p11
ss.