(dp1
S'input'
p2
(dp3
S'encoded'
p4
(lp5
I64
aI2179
aI43
aI8629
aI116
aI3
aI117
aI998
asS'ori'
p6
S'This house believes atheism is the only way'
p7
ssS'output'
p8
(dp9
g4
(lp10
I8378
aI5
aI8499
aI3319
aI63
aI5480
aI2918
aI24
aI1277
aI2386
aI1974
aI24
aI2231
aI946
aI311
aI3
aI9920
aI5
aI3
aI1710
aI7
aI3
aI767
aI14544
aI24
aI1523
aI7
aI223
aI3
aI7704
aI7
aI2659
aI4756
aI51
aI143
aI19
aI3177
aI350
aI7440
aI19
aI1154
aI696
aI7
aI6002
aI508
aI10093
aI25
aI3524
aI63765
asg6
S'Christianity and Judaism assert that God intervened in key specific moments in history  especially at the Exodus and the giving of the Ten Commandments in front of all the tribes of Israel  positing an argument from empirical evidence stemming from sheer number of witnesses  thus demonstrating his existence .'
p11
ss.