(dp1
S'input'
p2
(dp3
S'encoded'
p4
(lp5
I64
aI2179
aI394
aI5370
aI7146
aI4585
aI2446
asS'ori'
p6
S'This house would abolish intellectual property rights'
p7
ssS'output'
p8
(dp9
g4
(lp10
I134
aI116
aI51
aI7146
aI4585
aI399
aI3
aI11704
aI3
aI10801
aI5
aI3
aI2258
aI4531
aI45
aI351
aI29177
aI399
aI7
aI51
aI2096
aI73
aI5224
aI63
aI116
aI3669
aI5
aI29178
aI63765
asg6
S'It is an intellectual property form (like the patent  the trademark  and the trade secret) applicable to any expressible form of an idea or information that is substantive and discrete .'
p11
ss.