(dp1
S'input'
p2
(dp3
S'encoded'
p4
(lp5
I64
aI2179
aI43
aI63
aI3376
aI4938
aI417
aI316
aI3537
asS'ori'
p6
S'This house believes that endangered species should be protected'
p7
ssS'output'
p8
(dp9
g4
(lp10
I7808
aI18865
aI11
aI2933
aI217
aI7
aI3
aI703
aI2286
aI3
aI2945
aI7
aI5166
aI63765
asg6
S'Tropical rainforests have received most of the attention concerning the destruction of habitat .'
p11
ss.