(dp1
S'input'
p2
(dp3
S'encoded'
p4
(lp5
I64
aI2179
aI43
aI63
aI3
aI21
aI45
aI12715
aI417
aI99
aI316
aI2897
asS'ori'
p6
S'This house believes that the right to asylum should not be absolute'
p7
ssS'output'
p8
(dp9
g4
(lp10
I257
aI3
aI37710
aI7
aI12715
aI3610
aI19
aI159
aI89
aI2696
aI3
aI8734
aI116
aI794
aI24
aI873
aI5
aI1762
aI443
aI17
aI115
aI1795
aI63765
asg6
S'If the demander of asylum comes from such a country  the request is treated in 15 days  and receives no social assistance protection .'
p11
ss.