(dp1
S'input'
p2
(dp3
S'encoded'
p4
(lp5
I64
aI2179
aI43
aI63
aI3
aI4990
aI4991
aI116
aI4850
aI24
aI12166
aI3
aI475
aI7
aI3532
aI3290
aI7
aI4714
asS'ori'
p6
S'This house believes that the Catholic Church is justified in forbidding the use of barrier methods of contraception'
p7
ssS'output'
p8
(dp9
g4
(lp10
I60
aI9867
aI2327
aI45
aI3
aI667
aI285
aI2422
aI7
aI25889
aI3
aI237
aI4990
aI4254
aI7
aI3
aI8868
aI122
aI4651
aI24
aI3126
aI24
aI5
aI373
aI1047
aI34
aI732
aI25890
aI63765
asg6
S'With Catholicism spreading to the New World  Rose of Lima  the first Catholic saint of the Americas was born in Peru in 1586  and became known for her piety .'
p11
ss.