(dp1
S'input'
p2
(dp3
S'encoded'
p4
(lp5
I64
aI2179
aI394
aI60
aI23587
asS'ori'
p6
S'This house would re-engage with Myanmar'
p7
ssS'output'
p8
(dp9
g4
(lp10
I6124
aI923
aI795
aI3
aI14083
aI7
aI2736
aI5162
aI89
aI3419
aI24
aI89
aI4464
aI45
aI2998
aI89
aI2468
aI9596
aI45
aI3
aI12800
aI2120
aI4481
aI63
aI116
aI2853
aI289
aI3
aI7854
aI6782
aI24
aI23587
aI5
aI116
aI7249
aI3
aI1780
aI2398
aI63765
asg6
S'- Singapore  currently holding the chair of ASEAN  released a statement in a bid to encourage a peaceful resolution to the Burmese events  mentioning that "Singapore is concerned over the latest developments in Myanmar and is monitoring the situation closely "  .'
p11
ss.