(dp1
S'input'
p2
(dp3
S'encoded'
p4
(lp5
I64
aI2179
aI394
aI2017
aI3807
aI314
aI3433
asS'ori'
p6
S'This house would ban partial birth abortions'
p7
ssS'output'
p8
(dp9
g4
(lp10
I3
aI2497
aI122
aI237
aI3505
aI75
aI2631
aI1309
aI7
aI3
aI150
aI21
aI45
aI3269
aI2180
aI63765
asg6
S'The term "partial-birth abortion" was first coined by Douglas Johnson of the National Right to Life Committee  .'
p11
ss.