(dp1
S'input'
p2
(dp3
S'encoded'
p4
(lp5
I64
aI2179
aI394
aI60
aI23587
asS'ori'
p6
S'This house would re-engage with Myanmar'
p7
ssS'output'
p8
(dp9
g4
(lp10
I3
aI2157
aI6073
aI17121
aI784
aI78
aI14
aI10613
aI2959
aI81
aI427
aI759
aI24
aI89
aI6418
aI6773
aI24
aI89
aI31858
aI17397
aI9121
aI89
aI6449
aI2157
aI8870
aI14
aI14153
aI63765
asg6
S'The military junta detained eight people on Sunday  22 April 2007 who took part in a rare demonstration in a Yangon suburb amid a growing military crackdown on protesters .'
p11
ss.