(dp1
S'input'
p2
(dp3
S'encoded'
p4
(lp5
I64
aI2179
aI394
aI5284
aI150
aI3987
asS'ori'
p6
S'This house would reintroduce national service'
p7
ssS'output'
p8
(dp9
g4
(lp10
I3495
aI382
aI99
aI2195
aI45
aI5610
aI63765
asg6
S'Women were not subject to conscription .'
p11
ss.