(dp1
S'input'
p2
(dp3
S'encoded'
p4
(lp5
I64
aI2179
aI235
aI3
aI2136
aI7
aI3
aI2306
aI7
aI2390
asS'ori'
p6
S'This house supports the one-child policy of the republic of China'
p7
ssS'output'
p8
(dp9
g4
(lp10
I2598
aI122
aI89
aI281
aI2136
aI829
aI34
aI211
aI3024
aI24
aI3
aI398
aI87
aI63
aI24
aI3
aI320
aI3
aI260
aI4544
aI3
aI4280
aI2136
aI2791
aI24
aI63765
asg6
S"China's fast-growing population was a major policy matter for its leaders in the mid-twentieth century  so that in the early 1970s  the government implemented the stringent one-child policy (publicly announced in 1979) ."
p11
ss.