(dp1
S'input'
p2
(dp3
S'encoded'
p4
(lp5
I64
aI2179
aI394
aI2773
aI12505
asS'ori'
p6
S'This house would embrace multiculturalism'
p7
ssS'output'
p8
(dp9
g4
(lp10
I60855
aI2840
aI3011
aI5404
aI75
aI22
aI3024
aI63
aI3017
aI3
aI414
aI122
aI89
aI14623
aI3445
aI63765
asg6
S'Hirst identified contradictory statements by political leaders that suggested the word was a nonsense concept .'
p11
ss.