(dp1
S'input'
p2
(dp3
S'encoded'
p4
(lp5
I64
aI2179
aI394
aI4325
aI2042
aI270
aI89
aI11605
aI3324
asS'ori'
p6
S'This house would fund education using a voucher scheme'
p7
ssS'output'
p8
(dp9
g4
(lp10
I2714
aI174
aI418
aI63
aI1260
aI2258
aI3610
aI60
aI211
aI284
aI42
aI43
aI3
aI16649
aI7
aI1157
aI5677
aI75
aI136
aI5117
aI1560
aI1484
aI55
aI2425
aI45
aI2322
aI2610
aI45
aI3
aI626
aI187
aI19
aI63
aI2696
aI63765
asg6
S'Obama also noted that free trade comes with its own costs: he believes the displacement of Mexican farmers by more efficient American counterparts has led to increased immigration to the United States from that country  .'
p11
ss.