(dp1
S'input'
p2
(dp3
S'encoded'
p4
(lp5
I64
aI2179
aI394
aI1499
aI177
aI1819
aI34
aI160
asS'ori'
p6
S'This house would build high rises for housing'
p7
ssS'output'
p8
(dp9
g4
(lp10
I6040
aI3
aI350
aI14
aI3926
aI19356
aI16002
aI2234
aI5
aI271
aI4658
aI14
aI4564
aI10670
aI36023
aI10845
aI4047
aI63765
asg6
S'Reviewing the evidence on urban intensification  smart growth and their effects on travel behaviour  Melia et al .'
p11
ss.