(dp1
S'input'
p2
(dp3
S'encoded'
p4
(lp5
I64
aI2179
aI394
aI60
aI23587
asS'ori'
p6
S'This house would re-engage with Myanmar'
p7
ssS'output'
p8
(dp9
g4
(lp10
I378
aI3
aI593
aI3
aI6073
aI1735
aI3
aI7058
aI45
aI302
aI3
aI1056
aI3
aI3081
aI8039
aI63765
asg6
S'However  the longer the junta allows the protests to continue  the weaker the regime looks .'
p11
ss.