(dp1
S'input'
p2
(dp3
S'encoded'
p4
(lp5
I64
aI2179
aI394
aI5370
aI3
aI5286
asS'ori'
p6
S'This house would abolish the monarchy'
p7
ssS'output'
p8
(dp9
g4
(lp10
I378
aI53
aI89
aI5301
aI27863
aI459
aI10128
aI63765
aI1216
aI2233
aI7
aI134
aI116
aI6584
aI45
aI1792
aI3
aI6523
aI41
aI16942
aI5
aI45
aI1029
aI86
aI41
aI6287
aI6243
aI3234
aI45
aI475
aI271
aI6237
aI723
aI34
aI271
aI6444
aI63765
asg6
S'However where a monarch abdicated under duress (e .g .  Michael I of Romania)  it is customary to see the abdication as invalid and to treat them as deposed monarchs entitled to use their monarchical style for their lifetime .'
p11
ss.