(dp1
S'input'
p2
(dp3
S'encoded'
p4
(lp5
I64
aI2179
aI394
aI2017
aI262
asS'ori'
p6
S'This house would ban boxing'
p7
ssS'output'
p8
(dp9
g4
(lp10
I257
aI89
aI484
aI1032
aI1033
aI332
aI73
aI257
aI25
aI731
aI1034
aI3
aI405
aI768
aI3
aI438
aI484
aI116
aI174
aI973
aI89
aI1022
aI770
aI730
aI63765
asg6
S'If a boxer simply quits fighting  or if his corner stops the fight  then the winning boxer is also awarded a technical knockout victory .'
p11
ss.