(dp1
S'input'
p2
(dp3
S'encoded'
p4
(lp5
I64
aI2179
aI394
aI10662
aI626
aI187
aI2157
aI2697
aI19
aI2371
asS'ori'
p6
S'This house would remove United States military bases from Japan'
p7
ssS'output'
p8
(dp9
g4
(lp10
I3
aI481
aI5
aI320
aI3026
aI3
aI10147
aI34
aI132
aI6238
aI63765
asg6
S'The late 1980s and early 1990s saw the high-water marks for these exercises .'
p11
ss.