(dp1
S'input'
p2
(dp3
S'encoded'
p4
(lp5
I64
aI2179
aI43
aI63
aI3
aI4990
aI4991
aI116
aI4850
aI24
aI12166
aI3
aI475
aI7
aI3532
aI3290
aI7
aI4714
asS'ori'
p6
S'This house believes that the Catholic Church is justified in forbidding the use of barrier methods of contraception'
p7
ssS'output'
p8
(dp9
g4
(lp10
I273
aI382
aI4229
aI13084
aI291
aI3
aI4991
aI5
aI3
aI3151
aI6309
aI7
aI2953
aI81
aI6347
aI3257
aI5
aI314
aI708
aI63765
asg6
S'There were significant struggles between the Church and the communist rulers of Poland  who promoted abortion and birth control .'
p11
ss.