(dp1
S'input'
p2
(dp3
S'encoded'
p4
(lp5
I64
aI2179
aI394
aI1499
aI3
aI8115
aI34564
aI17106
asS'ori'
p6
S'This house would build the Keystone XL pipeline'
p7
ssS'output'
p8
(dp9
g4
(lp10
I64
aI116
aI3
aI217
aI11976
aI5182
aI5
aI3816
aI17106
aI1978
aI2032
asg6
S'this is the most technologically advanced and safest pipeline ever proposed'
p11
ss.