(dp1
S'input'
p2
(dp3
S'encoded'
p4
(lp5
I64
aI2179
aI43
aI63
aI6670
aI546
aI417
aI316
aI89
aI1334
aI3108
aI7
aI4849
aI1886
aI2855
asS'ori'
p6
S'This house believes that wind power should be a primary focus of future energy supply'
p7
ssS'output'
p8
(dp9
g4
(lp10
I311
aI982
aI2363
aI7
aI6670
aI1525
aI7358
aI24
aI5078
aI5
aI11603
aI34
aI807
aI7
aI1445
aI5122
aI2693
aI1298
aI201
aI4204
aI63
aI139
aI174
aI686
aI34
aI5124
aI7
aI6670
aI105
aI63765
asg6
S'At low levels of wind penetration  fluctuations in load and allowance for failure of large generating units requires reserve capacity that can also regulate for variability of wind generation .'
p11
ss.