(dp1
S'input'
p2
(dp3
S'encoded'
p4
(lp5
I64
aI2179
aI394
aI15841
aI2736
asS'ori'
p6
S'This house would disband ASEAN'
p7
ssS'output'
p8
(dp9
g4
(lp10
I134
aI373
aI1518
aI1112
aI14
aI2116
aI366
aI3
aI2308
aI2215
aI134
aI775
aI3593
aI223
aI2185
aI372
aI24
aI3
aI2654
aI63765
asg6
S'It became fully effective on 21 June 2001  after the Philippines ratified it  effectively banning all nuclear weapons in the region  .'
p11
ss.