(dp1
S'input'
p2
(dp3
S'encoded'
p4
(lp5
I64
aI2179
aI394
aI16756
aI20435
asS'ori'
p6
S'This house would criminalize blasphemy'
p7
ssS'output'
p8
(dp9
g4
(lp10
I3
aI8612
aI4991
aI7
aI4581
aI122
aI3
aI685
aI4991
aI19
aI45
aI63765
asg6
S'The Anglican Church of Ireland was the established church from 1536 to 1871 .'
p11
ss.