(dp1
S'input'
p2
(dp3
S'encoded'
p4
(lp5
I64
aI2179
aI394
aI5370
aI223
aI4013
aI10440
aI2446
aI4881
aI75
aI14482
aI11004
asS'ori'
p6
S'This house would abolish all collective bargaining rights claimed by trades unions'
p7
ssS'output'
p8
(dp9
g4
(lp10
I3
aI23834
aI5
aI45
aI89
aI4270
aI6
aI3
aI23843
aI122
aI1719
aI136
aI23919
aI777
aI7
aI8275
aI2789
aI5
aI3243
aI24
aI3
aI2439
aI751
aI155
aI2602
aI41
aI759
aI7
aI61
aI415
aI45
aI316
aI1047
aI41
aI3
aI4156
aI23920
aI63765
asg6
S'The CIO and to a lesser extent  the AFL (which was already more conservative) purged themselves of radical members and officers in the years before they merged  as part of what came to be known as the (second) red scare .'
p11
ss.