(dp1
S'input'
p2
(dp3
S'encoded'
p4
(lp5
I64
aI2179
aI394
aI2017
aI628
asS'ori'
p6
S'This house would ban gambling'
p7
ssS'output'
p8
(dp9
g4
(lp10
I298
aI273
aI116
aI443
aI438
aI7769
aI34
aI89
aI5930
aI768
aI3
aI439
aI116
aI742
aI45
aI34186
aI45
aI3
aI1592
aI3427
aI2645
aI45
aI641
aI4696
aI24
aI439
aI6198
aI63765
asg6
S'When there is no winning ticket for a lottery then the prize is said to Rollover to the following week leading to notable increases in prize funds .'
p11
ss.