(dp1
S'input'
p2
(dp3
S'encoded'
p4
(lp5
I64
aI2179
aI43
aI63
aI6670
aI546
aI417
aI316
aI89
aI1334
aI3108
aI7
aI4849
aI1886
aI2855
asS'ori'
p6
S'This house believes that wind power should be a primary focus of future energy supply'
p7
ssS'output'
p8
(dp9
g4
(lp10
I853
aI14
aI3
aI1341
aI6674
aI5092
aI5
aI3
aI1869
aI7
aI8667
aI248
aI6694
aI88
aI316
aI104
aI41
aI261
aI63765
asg6
S'Depending on the particular fossil fuel and the method of burning  other emissions may be produced as well .'
p11
ss.