(dp1
S'input'
p2
(dp3
S'encoded'
p4
(lp5
I64
aI2179
aI43
aI63
aI3
aI4538
aI7
aI4434
aI7793
aI283
aI45
aI3586
aI417
aI316
aI577
asS'ori'
p6
S'This house believes that the sale of violent video games to minors should be banned'
p7
ssS'output'
p8
(dp9
g4
(lp10
I100
aI2478
aI3563
aI63
aI897
aI2617
aI2992
aI5654
aI4976
aI45
aI404
aI34
aI248
aI7970
aI159
aI41
aI7986
aI14656
aI5
aI1571
aI45
aI3874
aI2617
aI63
aI88
aI6365
aI15
aI6668
aI100
aI78
aI1199
aI4434
aI5
aI6668
aI120
aI1643
aI78
aI88
aI4574
aI45
aI17928
aI777
aI45
aI4434
aI897
aI63765
asg6
S'Some scholars contend that media violence studies regularly fail to account for other variables such as genetics  personality and exposure to family violence that may explain both why some people become violent and why those same people may choose to expose themselves to violent media .'
p11
ss.