(dp1
S'input'
p2
(dp3
S'encoded'
p4
(lp5
I64
aI2179
aI394
aI2017
aI3807
aI314
aI3433
asS'ori'
p6
S'This house would ban partial birth abortions'
p7
ssS'output'
p8
(dp9
g4
(lp10
I24
aI3
aI25527
aI10119
aI4991
aI871
aI89
aI9596
aI63
aI551
aI63765
aI63765
aI21
aI45
aI4662
aI14
aI4714
aI5
aI3257
aI182
aI1185
aI2738
aI7
aI3
aI21
aI7
aI3261
aI3236
aI34
aI2445
aI3269
aI5
aI57
aI7
aI4930
aI7
aI3495
aI5
aI271
aI5743
aI63765
asg6
S'In 1978  the Unitarian Universalist Church passed a resolution that declared  " . . [the] right to choice on contraception and abortion are important aspects of the right of privacy  respect for human life and freedom of conscience of women and their families .'
p11
ss.