(dp1
S'input'
p2
(dp3
S'encoded'
p4
(lp5
I64
aI2179
aI394
aI1499
aI177
aI1819
aI34
aI160
asS'ori'
p6
S'This house would build high rises for housing'
p7
ssS'output'
p8
(dp9
g4
(lp10
I14
aI73
aI589
aI3
aI1528
aI758
aI7
aI3
aI11279
aI1444
aI89
aI290
aI7
aI39482
aI182
aI693
aI1537
aI24
aI89
aI1860
aI12757
aI45
aI3
aI658
aI5
aI508
aI45
aI3
aI14865
aI16440
aI183
aI63765
asg6
S'On or around the ground floor of the apartment building  a series of mailboxes are typically kept in a location accessible to the public and  thus  to the mail carrier too .'
p11
ss.