(dp1
S'input'
p2
(dp3
S'encoded'
p4
(lp5
I64
aI2179
aI394
aI4325
aI2042
aI270
aI89
aI11605
aI3324
asS'ori'
p6
S'This house would fund education using a voucher scheme'
p7
ssS'output'
p8
(dp9
g4
(lp10
I3313
aI55
aI3382
aI493
aI10001
aI63
aI394
aI163
aI1012
aI12472
aI3368
aI4787
aI5
aI3
aI7795
aI5
aI7556
aI7
aI17076
aI13537
aI63765
asg6
S'She has voted against bills that would make death penalty appeals harder and the prosecution and sentencing of juvenile delinquency .'
p11
ss.