(dp1
S'input'
p2
(dp3
S'encoded'
p4
(lp5
I64
aI2179
aI394
aI2741
aI3
aI1560
aI6025
aI2784
asS'ori'
p6
S'This house would pass the American Jobs Act'
p7
ssS'output'
p8
(dp9
g4
(lp10
I3
aI7561
aI7
aI10032
aI139
aI316
aI1483
aI177
aI1353
aI45
aI3
aI650
aI196
aI2994
aI1609
aI134
aI1273
aI45
aI475
aI3
aI37219
aI24
aI63765
asg6
S'The margin of error can be quite high relative to the actual unemployment rate  making it hard to use the NAIRU in policy-making .'
p11
ss.