(dp1
S'input'
p2
(dp3
S'encoded'
p4
(lp5
I64
aI2179
aI394
aI5370
aI7146
aI4585
aI2446
asS'ori'
p6
S'This house would abolish intellectual property rights'
p7
ssS'output'
p8
(dp9
g4
(lp10
I13119
aI1950
aI21770
aI14
aI3202
aI63765
asg6
S'(John Locke  Second Treatise on Civil Government)  .'
p11
ss.