(dp1
S'input'
p2
(dp3
S'encoded'
p4
(lp5
I64
aI2179
aI394
aI5370
aI223
aI4013
aI10440
aI2446
aI4881
aI75
aI14482
aI11004
asS'ori'
p6
S'This house would abolish all collective bargaining rights claimed by trades unions'
p7
ssS'output'
p8
(dp9
g4
(lp10
I107
aI7
aI8063
aI3
aI445
aI887
aI3
aI6941
aI5
aI14606
aI89
aI3025
aI376
aI24
aI3
aI2181
aI7
aI3
aI12616
aI917
aI7
aI120
aI7
aI3
aI5938
aI41
aI89
aI3730
aI134
aI17944
aI7071
aI14
aI3
aI2943
aI231
aI7
aI3
aI7483
aI5
aI3
aI18478
aI5
aI3
aI74
aI7
aI23815
aI3
aI2444
aI7
aI89
aI1488
aI94
aI45
aI120
aI7
aI3
aI3730
aI760
aI7
aI6941
aI63765
asg6
S'Instead of emphasizing the divisions among the workers and fostering a narrow interest in the affairs of the craft regardless of those of the industry as a whole  it lays stress on the mutual dependence of the skilled and the unskilled and the necessity of subordinating the interests of a small group to those of the whole body of workers .'
p11
ss.