(dp1
S'input'
p2
(dp3
S'encoded'
p4
(lp5
I64
aI2179
aI43
aI63
aI187
aI417
aI99
aI16642
aI3
aI6449
aI7
aI3935
asS'ori'
p6
S'This house believes that states should not subsidize the growing of tobacco'
p7
ssS'output'
p8
(dp9
g4
(lp10
I41
aI34
aI10873
aI3
aI25248
aI2035
aI524
aI45
aI3
aI1445
aI532
aI7
aI10873
aI2590
aI75
aI93
aI14857
aI3270
aI139
aI7747
aI1182
aI1183
aI7
aI3935
aI10873
aI45
aI3
aI21701
aI5
aI298
aI1445
aI2711
aI7
aI14857
aI14832
aI25249
aI1544
aI24
aI89
aI14857
aI14833
aI2117
aI3
aI532
aI7
aI25250
aI63765
asg6
S'As for second-hand smoke  the NIH study points to the large amount of smoke generated by one cigar  saying "cigars can contribute substantial amounts of tobacco smoke to the indoor environment; and  when large numbers of cigar smokers congregate together in a cigar smoking event  the amount of ETS [i .e .'
p11
ss.