(dp1
S'input'
p2
(dp3
S'encoded'
p4
(lp5
I64
aI2179
aI394
aI4325
aI2042
aI270
aI89
aI11605
aI3324
asS'ori'
p6
S'This house would fund education using a voucher scheme'
p7
ssS'output'
p8
(dp9
g4
(lp10
I233
aI45
aI51
aI2871
aI3500
aI24
aI3
aI667
aI2086
aI1727
aI2714
aI116
aI7960
aI89
aI667
aI8969
aI4262
aI14
aI1445
aI5
aI7152
aI9452
aI81
aI1453
aI99
aI1719
aI124
aI271
aI3936
aI60
aI3217
aI197
aI5
aI64
aI4262
aI394
aI316
aI416
aI45
aI5878
aI34
aI3217
aI85
aI34
aI45823
aI78
aI131
aI2714
aI55
aI99
aI4673
aI3
aI2386
aI4442
aI7
aI8969
aI63
aI3
aI4262
aI394
aI316
aI73
aI40
aI1488
aI89
aI696
aI7
aI3936
aI3
aI12342
aI394
aI11
aI45
aI11
aI24
aI128
aI45
aI316
aI4570
aI19
aI3
aI4262
aI63765
asg6
S'According to an October 26  2008 article in the New York Times  Obama is considering a new payroll tax on large and medium employers who do not already provide their employees with health insurance  and this tax would be used to pay for health care for uninsured people  but Obama has not cited the specific percentage of payroll that the tax would be  or how small a number of employees the employer would have to have in order to be exempt from the tax  .'
p11
ss.