(dp1
S'input'
p2
(dp3
S'encoded'
p4
(lp5
I64
aI2179
aI43
aI63
aI188
aI220
aI417
aI1619
aI4275
aI45
aI713
aI14799
aI7533
aI311
aI3
aI3721
aI5145
asS'ori'
p6
S'This house believes that democratic governments should require voters to present photo identification at the polling station'
p7
ssS'output'
p8
(dp9
g4
(lp10
I705
aI7
aI3
aI63287
aI47
aI961
aI7
aI311
aI870
aI51
aI2470
aI5606
aI5
aI89
aI448
aI5519
aI63765
asg6
S'Staff of the EAC will consist of at least an Executive Director and a General Counsel .'
p11
ss.