(dp1
S'input'
p2
(dp3
S'encoded'
p4
(lp5
I64
aI2179
aI394
aI4325
aI2042
aI270
aI89
aI11605
aI3324
asS'ori'
p6
S'This house would fund education using a voucher scheme'
p7
ssS'output'
p8
(dp9
g4
(lp10
I226
aI35062
aI122
aI5204
aI3313
aI5898
aI12892
aI51359
aI81
aI122
aI174
aI89
aI2544
aI7
aI7428
aI34
aI875
aI5
aI395
aI373
aI536
aI7
aI658
aI2181
aI7
aI3
aI2134
aI63765
asg6
S'While Rhee was teaching  she met Kevin Huffman  who was also a member of Teach for America and later became head of public affairs of the organization  .'
p11
ss.