(dp1
S'input'
p2
(dp3
S'encoded'
p4
(lp5
I64
aI2179
aI43
aI63
aI1036
aI4828
aI33250
aI116
aI25073
aI45
aI3315
aI4562
asS'ori'
p6
S'This house believes that male infant circumcision is tantamount to child abuse'
p7
ssS'output'
p8
(dp9
g4
(lp10
I89
aI7
aI3073
aI19
aI1009
aI39835
aI2992
aI7
aI1980
aI81
aI11
aI11389
aI60
aI1980
aI353
aI350
aI63
aI1036
aI33250
aI236
aI493
aI9583
aI7446
aI73
aI248
aI39860
aI63765
asg6
S'A meta-analysis of data from fifteen observational studies of men who have sex with men found "insufficient evidence that male circumcision protects against HIV infection or other STIs .'
p11
ss.