(dp1
S'input'
p2
(dp3
S'encoded'
p4
(lp5
I64
aI2179
aI394
aI1499
aI177
aI1819
aI34
aI160
asS'ori'
p6
S'This house would build high rises for housing'
p7
ssS'output'
p8
(dp9
g4
(lp10
I1460
aI45
aI3
aI2223
aI725
aI17
aI160
aI4949
aI159
aI41
aI3
aI1313
aI3856
aI35842
aI382
aI2676
aI63765
asg6
S'Prior to the war many social housing projects  such as the Quarry Hill Flats (pictured) were built .'
p11
ss.