(dp1
S'input'
p2
(dp3
S'encoded'
p4
(lp5
I64
aI2179
aI394
aI2998
aI3
aI4360
aI7
aI3249
aI6804
aI24
aI3
aI102
asS'ori'
p6
S'This house would encourage the creation of private universities in the UK'
p7
ssS'output'
p8
(dp9
g4
(lp10
I9022
aI4750
aI237
aI3249
aI4750
aI5613
aI19
aI63765
asg6
S"Bond University  Australia's first private university  dates from 1987  ."
p11
ss.