(dp1
S'input'
p2
(dp3
S'encoded'
p4
(lp5
I64
aI2179
aI394
aI2741
aI3
aI1560
aI6025
aI2784
asS'ori'
p6
S'This house would pass the American Jobs Act'
p7
ssS'output'
p8
(dp9
g4
(lp10
I3
aI667
aI2086
aI1727
aI480
aI17938
aI19
aI34062
aI2148
aI10611
aI52
aI5
aI14471
aI16173
aI92
aI3725
aI63
aI3
aI52
aI88
aI11
aI12
aI3150
aI252
aI3
aI34001
aI63765
asg6
S"The New York Times published projections from IHS Global Insight  Moody's .com  Economy .com and Macroeconomic Advisers which indicated that the economy may have been worse without the ARRA  ."
p11
ss.