(dp1
S'input'
p2
(dp3
S'encoded'
p4
(lp5
I64
aI2179
aI394
aI190
aI3
aI21
aI45
aI3895
aI834
asS'ori'
p6
S'This house would limit the right to bear arms'
p7
ssS'output'
p8
(dp9
g4
(lp10
I1715
aI18386
aI3470
aI63
aI1521
aI19
aI9364
aI3
aI1692
aI3
aI28
aI2029
aI7
aI2446
aI500
aI136
aI138
aI1629
aI4884
aI77
aI524
aI7
aI3904
aI2511
aI5
aI1032
aI4216
aI45
aI41606
aI3
aI2446
aI7
aI92
aI155
aI382
aI1719
aI62347
aI63765
asg6
S'Mark Thompson wrote that  apart from determining the succession  the English Bill of Rights did "little more than set forth certain points of existing laws and simply secured to Englishmen the rights of which they were already posessed [sic] .'
p11
ss.