(dp1
S'input'
p2
(dp3
S'encoded'
p4
(lp5
I64
aI2179
aI394
aI117
aI7428
aI21151
aI34
aI11389
aI2042
aI24
aI4364
asS'ori'
p6
S'This house would only teach abstinence for sex education in schools'
p7
ssS'output'
p8
(dp9
g4
(lp10
I2985
aI6833
aI864
aI63
aI3
aI21151
aI2326
aI416
aI24
aI3
aI2035
aI122
aI99
aI4233
aI7
aI217
aI21151
aI134
aI500
aI99
aI84
aI89
aI8521
aI20713
aI474
aI3862
aI45
aI9139
aI11389
aI487
aI4147
aI107
aI7
aI487
aI6603
aI500
aI99
aI27260
aI36489
aI11389
aI41
aI5289
aI5
aI500
aI99
aI30539
aI13778
aI63765
asg6
S'Critics pointed out that the abstinence program used in the study was not representative of most abstinence programs; it did not take a moralistic tone  encouraged children to delay sex until ready instead of until married  did not portray extramarital sex as inappropriate  and did not disparage contraceptives .'
p11
ss.