(dp1
S'input'
p2
(dp3
S'encoded'
p4
(lp5
I64
aI2179
aI43
aI63
aI3
aI4538
aI7
aI4434
aI7793
aI283
aI45
aI3586
aI417
aI316
aI577
asS'ori'
p6
S'This house believes that the sale of violent video games to minors should be banned'
p7
ssS'output'
p8
(dp9
g4
(lp10
I3
aI2477
aI2446
aI3565
aI4446
aI1571
aI45
aI2611
aI2617
aI3585
aI14696
aI2287
aI2617
aI959
aI4562
aI7
aI3
aI3315
aI5
aI3315
aI8803
aI4562
aI13738
aI3862
aI63
aI3135
aI5
aI4434
aI4948
aI182
aI4713
aI63765
asg6
S'The Constitutional Rights Foundation suggests long-term exposure to gun violence  parental alcoholism  domestic violence  physical abuse of the child  and child sexual abuse teaches children that criminal and violent activities are acceptable  .'
p11
ss.