(dp1
S'input'
p2
(dp3
S'encoded'
p4
(lp5
I64
aI2179
aI394
aI2773
aI12505
asS'ori'
p6
S'This house would embrace multiculturalism'
p7
ssS'output'
p8
(dp9
g4
(lp10
I3
aI2488
aI1999
aI7
aI2768
aI2637
aI5981
aI61895
aI35353
aI5
aI87
aI14
aI116
aI89
aI2022
aI24
aI92
aI725
aI384
aI8175
aI47
aI3281
aI1544
aI24
aI1839
aI5969
aI5
aI2250
aI63765
aI89
aI2022
aI63
aI55
aI1301
aI6570
aI5
aI1301
aI47
aI3
aI212
aI1999
aI7
aI132
aI10492
aI116
aI63
aI3
aI546
aI7
aI3
aI3904
aI8277
aI2022
aI45
aI1358
aI211
aI284
aI5483
aI4197
aI316
aI16570
aI1016
aI226
aI3
aI546
aI7
aI248
aI3136
aI6117
aI9267
aI73
aI8489
aI45
aI63
aI2022
aI47
aI316
aI2322
aI63765
asg6
S'The formal meaning of diversity  cultural equity  gorgeous mosaic and so on is a society in which many different cultures will live together in perfect equality and peace (i .e .  a society that has never existed and never will exist); the real meaning of these slogans is that the power of the existing mainstream society to determine its own destiny shall be drastically reduced while the power of other groups  formerly marginal or external to that society  will be increased .'
p11
ss.