(dp1
S'input'
p2
(dp3
S'encoded'
p4
(lp5
I64
aI2179
aI43
aI8629
aI116
aI3
aI117
aI998
asS'ori'
p6
S'This house believes atheism is the only way'
p7
ssS'output'
p8
(dp9
g4
(lp10
I24
aI3
aI398
aI3
aI369
aI4990
aI6423
aI5
aI6165
aI5812
aI55998
aI2993
aI165
aI7
aI25
aI95
aI45
aI1518
aI8529
aI5
aI6358
aI14
aI4853
aI863
aI3708
aI63765
asg6
S'In the 20th century  the Roman Catholic priest and philosopher Frederick Copleston  devoted much of his works to fully explaining and expanding on Aquinas five ways .'
p11
ss.