(dp1
S'input'
p2
(dp3
S'encoded'
p4
(lp5
I64
aI2179
aI43
aI17
aI4941
aI857
aI3211
asS'ori'
p6
S'This house believes social deprivation causes crime'
p7
ssS'output'
p8
(dp9
g4
(lp10
I3
aI1950
aI126
aI3185
aI14
aI1102
aI2567
aI159
aI41
aI120
aI60
aI3874
aI5
aI2716
aI63765
asg6
S'The second level focuses on close relationships  such as those with family and friends .'
p11
ss.