(dp1
S'input'
p2
(dp3
S'encoded'
p4
(lp5
I64
aI2179
aI394
aI5370
aI7146
aI4585
aI2446
asS'ori'
p6
S'This house would abolish intellectual property rights'
p7
ssS'output'
p8
(dp9
g4
(lp10
I97
aI1039
aI13639
aI3
aI27636
aI7
aI351
aI4707
aI3566
aI34
aI3904
aI12717
aI70
aI8632
aI134
aI1032
aI41
aI89
aI296
aI3472
aI51
aI224
aI7
aI22
aI3539
aI63765
asg6
S'Another approach denies the meaningfulness of any ethical justification for existing copyright law  viewing it simply as a result (and perhaps an undesirable result) of political processes .'
p11
ss.