(dp1
S'input'
p2
(dp3
S'encoded'
p4
(lp5
I64
aI2179
aI43
aI63
aI3
aI21
aI45
aI12715
aI417
aI99
aI316
aI2897
asS'ori'
p6
S'This house believes that the right to asylum should not be absolute'
p7
ssS'output'
p8
(dp9
g4
(lp10
I41593
aI182
aI120
aI81
aI1223
aI3515
aI3
aI413
aI190
aI2052
aI14
aI86
aI298
aI155
aI2214
aI3
aI2696
aI63765
asg6
S'Overstayers are those who stay beyond the time limit imposed on them when they enter the country .'
p11
ss.