(dp1
S'input'
p2
(dp3
S'encoded'
p4
(lp5
I64
aI2179
aI43
aI63
aI6670
aI546
aI417
aI316
aI89
aI1334
aI3108
aI7
aI4849
aI1886
aI2855
asS'ori'
p6
S'This house believes that wind power should be a primary focus of future energy supply'
p7
ssS'output'
p8
(dp9
g4
(lp10
I24
aI2068
aI2439
aI273
aI55
aI12
aI89
aI2229
aI1636
aI3
aI2322
aI18063
aI7
aI380
aI6844
aI1886
aI2879
aI63765
asg6
S'In recent years there has been a trend towards the increased commercialization of various renewable energy sources .'
p11
ss.