(dp1
S'input'
p2
(dp3
S'encoded'
p4
(lp5
I64
aI2179
aI394
aI163
aI959
aI2042
aI3557
asS'ori'
p6
S'This house would make physical education compulsory'
p7
ssS'output'
p8
(dp9
g4
(lp10
I2015
aI17085
aI63
aI3226
aI16329
aI2038
aI1074
aI1237
aI6418
aI4839
aI20258
aI41
aI261
aI41
aI100
aI28379
aI73
aI4595
aI37348
aI5077
aI2234
aI12270
aI13951
aI5
aI3
aI11953
aI37351
aI11953
aI7928
aI5
aI4150
aI11953
aI5077
aI63765
asg6
S"Medical illnesses that increase obesity risk include several rare genetic syndromes (listed above) as well as some congenital or acquired conditions: hypothyroidism  Cushing's syndrome  growth hormone deficiency  and the eating disorders: binge eating disorder and night eating syndrome  ."
p11
ss.