(dp1
S'input'
p2
(dp3
S'encoded'
p4
(lp5
I64
aI2179
aI394
aI16642
aI1376
aI5269
asS'ori'
p6
S'This house would subsidize poor communities'
p7
ssS'output'
p8
(dp9
g4
(lp10
I64
aI116
aI1021
aI45
aI725
aI194
aI158
aI3
aI2146
aI722
aI580
aI7
aI130
aI5
aI214
aI2286
aI3
aI3991
aI2784
aI7
aI29547
aI117
aI100
aI5026
aI78
aI41
aI15728
aI24
aI3
aI3905
aI63765
asg6
S'This is due to many things including the highly subjective nature of poverty and issues concerning the universal act of classifying only some impoverished people as trapped in the culture .'
p11
ss.