(dp1
S'input'
p2
(dp3
S'encoded'
p4
(lp5
I64
aI2179
aI394
aI16642
aI1376
aI5269
asS'ori'
p6
S'This house would subsidize poor communities'
p7
ssS'output'
p8
(dp9
g4
(lp10
I691
aI17
aI73
aI22
aI36
aI4359
aI394
aI4716
aI89
aI2731
aI45
aI3
aI16
aI2574
aI3
aI2884
aI394
aI7747
aI45
aI89
aI2762
aI63765
asg6
S'Since social or political instability (or perceived instability) would pose a threat to the economic partnership  the EU would contribute to a counter-insurgency project .'
p11
ss.