(dp1
S'input'
p2
(dp3
S'encoded'
p4
(lp5
I64
aI2179
aI43
aI63
aI3
aI4538
aI7
aI4434
aI7793
aI283
aI45
aI3586
aI417
aI316
aI577
asS'ori'
p6
S'This house believes that the sale of violent video games to minors should be banned'
p7
ssS'output'
p8
(dp9
g4
(lp10
I77
aI3136
aI1057
aI45
aI186
aI34
aI897
aI4658
aI24
aI51
aI2419
aI45
aI3018
aI89
aI22
aI521
aI63765
asg6
S'Certain groups tend to argue for media effects in an effort to promote a political cause .'
p11
ss.