(dp1
S'input'
p2
(dp3
S'encoded'
p4
(lp5
I64
aI2179
aI394
aI2773
aI12505
asS'ori'
p6
S'This house would embrace multiculturalism'
p7
ssS'output'
p8
(dp9
g4
(lp10
I40
aI51
aI229
aI53640
aI116
aI89
aI419
aI229
aI5
aI3446
aI3262
aI63765
asg6
S'How an individual acculturates is a very individual and personal process .'
p11
ss.