(dp1
S'input'
p2
(dp3
S'encoded'
p4
(lp5
I64
aI2179
aI394
aI190
aI3
aI21
aI45
aI3895
aI834
asS'ori'
p6
S'This house would limit the right to bear arms'
p7
ssS'output'
p8
(dp9
g4
(lp10
I3
aI70
aI7177
aI45
aI3980
aI158
aI631
aI3243
aI5
aI2157
aI2640
aI5
aI139
aI521
aI4607
aI75
aI4190
aI2758
aI3938
aI2157
aI5
aI631
aI19
aI3982
aI1374
aI1021
aI45
aI1460
aI2224
aI4554
aI10160
aI63765
asg6
S'The law applies to everyone  including police officers and military personnel  and can cause difficulties by prohibiting active duty military and police from carrying guns  due to prior civilian misdemeanor convictions  .'
p11
ss.