(dp1
S'input'
p2
(dp3
S'encoded'
p4
(lp5
I64
aI2179
aI43
aI63
aI2157
aI2565
aI493
aI19084
aI382
aI4850
asS'ori'
p6
S"This house believes that Israel's 2008-2009 military operations against Gaza were justified"
p7
ssS'output'
p8
(dp9
g4
(lp10
I24
aI89
aI3419
aI3
aI5496
aI7
aI2135
aI2181
aI7
aI3
aI46444
aI2306
aI24082
aI3
aI4048
aI7
aI3
aI2617
aI291
aI2659
aI5
aI16619
aI24
aI19084
aI966
aI366
aI3
aI15618
aI15619
aI7
aI3
aI31095
aI75
aI3
aI19088
aI8642
asg6
S'In a statement  the Ministry of Foreign Affairs of the Slovak Republic condemns the escalation of the violence between Israel and Hamas in Gaza Strip after the unilateral dismissal of the truce by the Palestinian extremists'
p11
ss.