(dp1
S'input'
p2
(dp3
S'encoded'
p4
(lp5
I64
aI2179
aI394
aI2773
aI12505
asS'ori'
p6
S'This house would embrace multiculturalism'
p7
ssS'output'
p8
(dp9
g4
(lp10
I3
aI1362
aI291
aI12505
aI5
aI5714
aI116
aI51
aI1185
aI3487
aI24
aI3
aI164
aI2196
aI14
aI3
aI24513
aI7
aI3
aI8
aI2860
aI7
aI12505
aI63765
asg6
S'The relationship between multiculturalism and Islam is an important aspect in the overall debate on the soundness of the modern doctrine of multiculturalism .'
p11
ss.