(dp1
S'input'
p2
(dp3
S'encoded'
p4
(lp5
I64
aI2179
aI43
aI63
aI134
aI116
aI400
aI21
aI34
aI3
aI260
aI45
aI3439
aI57
aI7
aI2381
asS'ori'
p6
S'This house believes that it is sometimes right for the government to restrict freedom of speech'
p7
ssS'output'
p8
(dp9
g4
(lp10
I3
aI437
aI70
aI116
aI99
aI19856
aI7149
aI604
aI134
aI7177
aI45
aI3953
aI256
aI63
aI182
aI2941
aI736
aI958
aI134
aI116
aI89
aI3890
aI7
aI2637
aI7151
aI63765
asg6
S'The latter law is not linguistic censorship because it applies to television programs that are dubbed into French; rather it is a restriction of foreign-produced cultural content .'
p11
ss.