(dp1
S'input'
p2
(dp3
S'encoded'
p4
(lp5
I64
aI2179
aI43
aI63
aI3
aI21
aI45
aI12715
aI417
aI99
aI316
aI2897
asS'ori'
p6
S'This house believes that the right to asylum should not be absolute'
p7
ssS'output'
p8
(dp9
g4
(lp10
I24
aI1849
aI45
aI5046
aI5
aI897
aI3183
aI7
aI3
aI845
aI3
aI260
aI685
aI89
aI8559
aI8791
aI24
aI92
aI2100
aI5260
aI19
aI3
aI2610
aI3987
aI2083
aI260
aI3
aI4294
aI3987
aI5
aI22772
aI2136
aI5726
aI63765
asg6
S'In response to registrars\' concerns and media coverage of the issue  the Government established a "Bogus Marriage Task Force" in 2004 which included representatives from the Immigration Service  local government  the registration service and IND policy officials .'
p11
ss.