(dp1
S'input'
p2
(dp3
S'encoded'
p4
(lp5
I64
aI2179
aI43
aI63
aI323
aI417
aI10009
aI211
aI9035
aI249
aI45
aI3426
aI211
aI2144
aI595
aI17
aI96
asS'ori'
p6
S'This house believes that Europe should weaken its austerity measures to guarantee its citizens greater social support'
p7
ssS'output'
p8
(dp9
g4
(lp10
I3
aI1643
aI3713
aI3017
aI63
aI9555
aI116
aI3
aI870
aI939
aI22
aI5409
aI60
aI89
aI4268
aI9103
aI226
aI7
aI318
aI1453
aI99
aI2207
aI9181
aI41
aI1405
aI2161
aI63765
asg6
S'The same poll suggested that Papanderou is the least popular political leader with a 9% approval rating  while 71% of Greeks do not trust Papademos as prime minister  .'
p11
ss.