(dp1
S'input'
p2
(dp3
S'encoded'
p4
(lp5
I64
aI2179
aI394
aI4325
aI2042
aI270
aI89
aI11605
aI3324
asS'ori'
p6
S'This house would fund education using a voucher scheme'
p7
ssS'output'
p8
(dp9
g4
(lp10
I433
aI12018
aI2340
aI3
aI2240
aI12537
aI5
aI976
aI2190
aI10001
aI736
aI70
aI14
aI2555
aI63765
asg6
S'Governor Stanley signed the school segregation and legal business bills into law on September 29  1956  .'
p11
ss.