(dp1
S'input'
p2
(dp3
S'encoded'
p4
(lp5
I64
aI2179
aI394
aI5370
aI3
aI5286
asS'ori'
p6
S'This house would abolish the monarchy'
p7
ssS'output'
p8
(dp9
g4
(lp10
I41055
aI116
aI3
aI5489
aI416
aI24
aI15055
aI34
aI5352
aI5405
aI2236
aI7
aI3
aI626
aI2549
aI63765
asg6
S'Brenhines is the title used in Welsh for Queen Elizabeth II of the United Kingdom .'
p11
ss.