(dp1
S'input'
p2
(dp3
S'encoded'
p4
(lp5
I64
aI2179
aI394
aI2017
aI223
aI9058
aI23653
asS'ori'
p6
S'This house would ban all unsustainable logging'
p7
ssS'output'
p8
(dp9
g4
(lp10
I18859
aI8236
aI9304
aI8100
aI1544
aI5
aI257
aI3
aI8100
aI116
aI11584
aI5386
aI155
aI2784
aI45
aI1576
aI3
aI8100
aI24
aI238
aI75
aI174
aI2473
aI60
aI6369
aI20655
aI63765
asg6
S'Tree roots bind soil together  and if the soil is sufficiently shallow they act to keep the soil in place by also binding with underlying bedrock .'
p11
ss.