(dp1
S'input'
p2
(dp3
S'encoded'
p4
(lp5
I64
aI2179
aI394
aI5370
aI223
aI4013
aI10440
aI2446
aI4881
aI75
aI14482
aI11004
asS'ori'
p6
S'This house would abolish all collective bargaining rights claimed by trades unions'
p7
ssS'output'
p8
(dp9
g4
(lp10
I3
aI3168
aI5
aI1485
aI7
aI2409
aI23799
aI116
aI99
aI8062
aI45
aI3
aI368
aI28
aI1769
aI285
aI63765
asg6
S'The theory and practice of industrial unionism is not confined to the western  English speaking world .'
p11
ss.