(dp1
S'input'
p2
(dp3
S'encoded'
p4
(lp5
I64
aI2179
aI394
aI2998
aI3
aI4360
aI7
aI3249
aI6804
aI24
aI3
aI102
asS'ori'
p6
S'This house would encourage the creation of private universities in the UK'
p7
ssS'output'
p8
(dp9
g4
(lp10
I24
aI3
aI21583
aI260
aI7
aI6095
aI3382
aI89
aI70
aI63
aI47
aI972
aI223
aI5244
aI7
aI3409
aI2992
aI45
aI5641
aI60
aI3
aI6085
aI5496
aI7
aI2042
aI5
aI2767
aI2181
aI41
aI10275
aI75
aI2779
aI63765
asg6
S'In 2008 the Nea Demokratia-led government of Greece voted a law that will force all laboratories of liberal studies to register with the Greek Ministry of Education and Religious Affairs as colleges (  kollegia) by August 2009 .'
p11
ss.