(dp1
S'input'
p2
(dp3
S'encoded'
p4
(lp5
I64
aI2179
aI13605
aI2258
aI45
aI2194
asS'ori'
p6
S'This house prefers trade to aid'
p7
ssS'output'
p8
(dp9
g4
(lp10
I246
aI9381
aI13857
aI24
aI738
aI34
aI115
aI92
aI258
aI3275
aI2194
aI45
aI3
aI16142
aI7
aI7500
aI5
aI3205
aI155
aI182
aI15780
aI3492
aI2891
aI2194
aI2140
aI63765
asg6
S'Generally demanding conditionality in return for assistance  which means tying aid to the procurement of goods and services  they are challenging traditional development aid standards  .'
p11
ss.