(dp1
S'input'
p2
(dp3
S'encoded'
p4
(lp5
I64
aI2179
aI43
aI63
aI134
aI116
aI400
aI21
aI34
aI3
aI260
aI45
aI3439
aI57
aI7
aI2381
asS'ori'
p6
S'This house believes that it is sometimes right for the government to restrict freedom of speech'
p7
ssS'output'
p8
(dp9
g4
(lp10
I3399
aI24
aI3
aI237
aI845
aI7
aI88
aI10660
aI15447
aI273
aI116
aI3
aI2038
aI7
aI89
aI10649
aI7
aI64
aI90
aI1604
aI89
aI5469
aI7
aI11636
aI63765
asg6
S'Writing in the first issue of May 1972 Stephen Spender wrote:Obviously there is the risk of a magazine of this kind becoming a bulletin of frustration .'
p11
ss.