(dp1
S'input'
p2
(dp3
S'encoded'
p4
(lp5
I64
aI2179
aI43
aI63
aI134
aI116
aI400
aI21
aI34
aI3
aI260
aI45
aI3439
aI57
aI7
aI2381
asS'ori'
p6
S'This house believes that it is sometimes right for the government to restrict freedom of speech'
p7
ssS'output'
p8
(dp9
g4
(lp10
I3
aI217
aI2068
aI10
aI564
aI9196
aI182
aI1047
aI45
aI11
aI2215
aI64
aI2937
aI116
aI3883
aI24
aI397
aI63
aI237
aI4728
aI7
aI12587
aI63765
asg6
S"The most recent state whose lawmakers are known to have ratified this proposal is Kentucky in 1792  during that commonwealth's first month of statehood ."
p11
ss.