(dp1
S'input'
p2
(dp3
S'encoded'
p4
(lp5
I64
aI2179
aI43
aI3
aI626
aI187
aI116
aI1989
aI34
aI3102
aI2223
asS'ori'
p6
S"This house believes the United States is responsible for Mexico's drugs war"
p7
ssS'output'
p8
(dp9
g4
(lp10
I3
aI26
aI3172
aI6347
aI3
aI2223
aI14
aI3
aI3034
aI2218
aI2219
aI7
aI2932
aI202
aI226
aI134
aI2919
aI4216
aI20039
aI2410
aI34
aI63765
asg6
S'The book argues "Plan Colombia" promoted the war on the Revolutionary Armed Forces of Colombia - People\'s Army (FARC-EP) while it militarily secured coca production for Colombia\'s "narco-bourgeoisie" .'
p11
ss.