(dp1
S'input'
p2
(dp3
S'encoded'
p4
(lp5
I64
aI2179
aI43
aI63
aI3
aI28431
aI7
aI2157
aI4624
aI75
aI39939
aI27257
aI122
aI4850
asS'ori'
p6
S'This house believes that the leaking of military documents by Anat Kamm was justified'
p7
ssS'output'
p8
(dp9
g4
(lp10
I34
aI1343
aI3
aI492
aI5765
aI20352
aI75
aI2206
aI20353
aI20354
aI92
aI3178
aI267
aI11005
aI5599
aI2319
aI60
aI1237
aI1980
aI2428
aI45
aI316
aI2218
aI11267
aI45
aI316
aI15375
aI63765
asg6
S'For example  the July 12  2007  Baghdad airstrike by US helicopter gunships which killed two Reuters journalists along with several men thought to be armed suspected to be insurgents .'
p11
ss.