(dp1
S'input'
p2
(dp3
S'encoded'
p4
(lp5
I64
aI2179
aI13605
aI2258
aI45
aI2194
asS'ori'
p6
S'This house prefers trade to aid'
p7
ssS'output'
p8
(dp9
g4
(lp10
I41
aI3
aI3210
aI20970
aI736
aI89
aI1107
aI2148
aI192
aI3
aI696
aI7
aI6228
aI3048
aI1676
aI60
aI24894
aI7
aI1932
aI2083
aI2143
aI75
aI2597
aI7396
aI2143
aI63765
asg6
S"As the world's markets merge into a single global market the number of market-leading companies worldwide drops  with takeovers of smaller local corporations by larger multinational corporations ."
p11
ss.