(dp1
S'input'
p2
(dp3
S'encoded'
p4
(lp5
I64
aI2179
aI43
aI8629
aI116
aI3
aI117
aI998
asS'ori'
p6
S'This house believes atheism is the only way'
p7
ssS'output'
p8
(dp9
g4
(lp10
I378
aI64
aI94
aI55
aI89
aI1240
aI982
aI15657
aI2994
aI298
aI2449
aI45
aI248
aI3136
aI63765
asg6
S'However  this group has a relatively low retention rate (46%) when compared to other groups .'
p11
ss.