(dp1
S'input'
p2
(dp3
S'encoded'
p4
(lp5
I64
aI2179
aI394
aI4325
aI2042
aI270
aI89
aI11605
aI3324
asS'ori'
p6
S'This house would fund education using a voucher scheme'
p7
ssS'output'
p8
(dp9
g4
(lp10
I12208
aI2807
aI89
aI31907
aI145
aI63
aI394
aI3423
aI17719
aI60
aI51
aI6075
aI63765
asg6
S'" Nader opposes a privatized system that would replace "systemic tranquility with an enforced anxiety" .'
p11
ss.