(dp1
S'input'
p2
(dp3
S'encoded'
p4
(lp5
I64
aI2179
aI43
aI24
aI3
aI475
aI7
aI12436
aI3364
asS'ori'
p6
S'This house believes in the use of affirmative action'
p7
ssS'output'
p8
(dp9
g4
(lp10
I1309
aI378
aI461
aI14
aI45
aI750
aI3
aI4168
aI75
aI93
aI7
aI3
aI7786
aI36829
aI24
aI1560
aI2231
aI63765
asg6
S'" Johnson  however  went on to win the 1964 election by one of the biggest landslides in American history .'
p11
ss.