(dp1
S'input'
p2
(dp3
S'encoded'
p4
(lp5
I64
aI2179
aI394
aI5370
aI7146
aI4585
aI2446
asS'ori'
p6
S'This house would abolish intellectual property rights'
p7
ssS'output'
p8
(dp9
g4
(lp10
I378
aI226
aI4294
aI1587
aI45
aI5982
aI12717
aI24
aI778
aI53
aI3
aI2511
aI124
aI34
aI4294
aI134
aI948
aI41
aI21847
aI21848
aI350
aI7
aI89
aI3564
aI12717
aI5
aI11472
aI3
aI12717
aI8843
aI45
aI3742
aI4211
aI12414
aI5
aI9017
aI63765
asg6
S"However  while registration isn't needed to exercise copyright  in jurisdictions where the laws provide for registration  it serves as prima facie evidence of a valid copyright and enables the copyright holder to seek statutory damages and attorney's fees ."
p11
ss.