(dp1
S'input'
p2
(dp3
S'encoded'
p4
(lp5
I64
aI2179
aI43
aI63
aI7382
aI116
aI400
aI4713
asS'ori'
p6
S'This house believes that bribery is sometimes acceptable'
p7
ssS'output'
p8
(dp9
g4
(lp10
I20862
aI3052
aI1074
aI2397
aI34
aI1635
aI45
aI2015
aI13634
aI63
aI4915
aI41
aI6996
aI10808
aI63765
asg6
S'Doubtful cases include grants for traveling to medical conventions that double as tourist trips .'
p11
ss.