(dp1
S'input'
p2
(dp3
S'encoded'
p4
(lp5
I64
aI2179
aI43
aI63
aI134
aI116
aI400
aI21
aI34
aI3
aI260
aI45
aI3439
aI57
aI7
aI2381
asS'ori'
p6
S'This house believes that it is sometimes right for the government to restrict freedom of speech'
p7
ssS'output'
p8
(dp9
g4
(lp10
I3
aI901
aI3197
aI63
aI116
aI2601
aI1178
aI132
aI682
aI382
aI1629
aI588
aI7478
aI45
aI979
aI3
aI3440
aI7
aI4981
aI5
aI1192
aI589
aI442
aI7
aI35
aI2248
aI58
aI13216
aI78
aI81
aI394
aI1301
aI316
aI4546
aI24
aI2483
aI182
aI13336
aI45
aI3
aI3797
aI7
aI3
aI3727
aI5
aI4604
aI376
aI3136
aI63
aI34399
aI589
aI3
aI23989
aI63765
asg6
S'The Post writes that "It is increasingly obvious these commissions were set up deliberately to lower the standard of proof and get around rules of natural justice  thereby ensuring people who would never be convicted in court are punished to the satisfaction of the activists and special interest groups that hover around the tribunals .'
p11
ss.