(dp1
S'input'
p2
(dp3
S'encoded'
p4
(lp5
I64
aI2179
aI43
aI17
aI4941
aI857
aI3211
asS'ori'
p6
S'This house believes social deprivation causes crime'
p7
ssS'output'
p8
(dp9
g4
(lp10
I17354
aI4617
aI89
aI5049
aI234
aI7
aI2022
aI2319
aI60
aI89
aI17
aI12855
aI3168
aI7
aI3
aI10
aI63765
asg6
S'Beccaria assumed a utilitarian view of society along with a social contract theory of the state .'
p11
ss.