(dp1
S'input'
p2
(dp3
S'encoded'
p4
(lp5
I64
aI2179
aI43
aI63
aI2659
aI417
aI1690
aI3
aI12048
aI7
aI19084
asS'ori'
p6
S'This house believes that Israel should lift the blockade of Gaza'
p7
ssS'output'
p8
(dp9
g4
(lp10
I19386
aI45
aI3
aI102
aI6160
aI29703
aI742
aI1178
aI5
aI2233
aI6540
aI1846
aI589
aI3
aI2813
aI14
aI64
aI63
aI64
aI29704
aI482
aI5
aI2233
aI1190
aI134
aI1972
aI427
aI588
aI51
aI845
aI63
aI417
aI11
aI12
aI9450
aI12481
asg6
S'Ambassador to the UK  Ron Prosor  said "Its obvious  and I wont beat around the bush on this  that this wasnt successful and I think it clearly took up an issue that should have been solved differently ."'
p11
ss.