(dp1
S'input'
p2
(dp3
S'encoded'
p4
(lp5
I64
aI2179
aI43
aI63
aI3
aI4990
aI4991
aI116
aI4850
aI24
aI12166
aI3
aI475
aI7
aI3532
aI3290
aI7
aI4714
asS'ori'
p6
S'This house believes that the Catholic Church is justified in forbidding the use of barrier methods of contraception'
p7
ssS'output'
p8
(dp9
g4
(lp10
I226
aI89
aI8
aI3620
aI8239
aI643
aI3
aI572
aI6458
aI6359
aI495
aI3007
aI2236
aI3402
aI3492
aI2864
aI34
aI3495
aI545
aI3
aI4991
aI5
aI24
aI25
aI21253
aI21254
aI7
aI551
aI63
aI3
aI4991
aI443
aI254
aI8349
aI45
aI4816
aI10977
aI10697
aI14
aI3495
aI5
aI63
aI64
aI3670
aI116
aI45
aI316
aI4762
aI557
aI75
aI223
aI3
aI5527
aI63765
asg6
S'While a modern feminist theology developed  the long reigning Pope John Paul II emphasized traditional roles for women within the church and in his Ordinatio Sacerdotalis of 1994  declared that the Church "has no authority whatsoever to confer priestly ordination on women and that this judgment is to be definitively held by all the Church\'s faithful  .'
p11
ss.