(dp1
S'input'
p2
(dp3
S'encoded'
p4
(lp5
I64
aI2179
aI235
aI3
aI2136
aI7
aI3
aI2306
aI7
aI2390
asS'ori'
p6
S'This house supports the one-child policy of the republic of China'
p7
ssS'output'
p8
(dp9
g4
(lp10
I10865
aI37427
aI51
aI9719
aI6423
aI5
aI24961
aI3402
aI63
aI25952
aI7
aI89
aI4996
aI1834
aI14
aI3
aI7969
aI7
aI211
aI5329
aI5
aI271
aI546
asg6
S'Giovanni Botero  an Italian priest and diplomat (15401617)  emphasized that  "the greatness of a city rests on the multitude of its inhabitants and their power'
p11
ss.