(dp1
S'input'
p2
(dp3
S'encoded'
p4
(lp5
I64
aI2179
aI394
aI5842
aI3569
aI446
aI13498
asS'ori'
p6
S'This house would introduce year round schooling'
p7
ssS'output'
p8
(dp9
g4
(lp10
I41
aI132
aI3073
aI342
aI1825
aI3
aI1263
aI3240
aI1387
aI7011
aI3802
aI291
aI5
aI4358
aI3900
aI7025
aI60
aI4764
aI1808
aI397
aI3
aI2240
aI3569
aI773
aI1240
aI5125
aI291
aI15
aI3136
aI63765
asg6
S'As these data show  virtually the entire achievement gap reflects differences between low-SES and high-SES students home environments  with cognitive gains during the school year being relatively equal between both groups .'
p11
ss.