(dp1
S'input'
p2
(dp3
S'encoded'
p4
(lp5
I64
aI2179
aI43
aI63
aI1036
aI4828
aI33250
aI116
aI25073
aI45
aI3315
aI4562
asS'ori'
p6
S'This house believes that male infant circumcision is tantamount to child abuse'
p7
ssS'output'
p8
(dp9
g4
(lp10
I4439
aI3
aI33268
aI3364
aI2618
aI63
aI134
aI6714
aI23698
aI397
aI8803
aI2189
aI5
aI3526
aI63
aI134
aI2535
aI45
aI3
aI8224
aI5
aI15620
aI7
aI15
aI63765
asg6
S'O\'Hara (2002) describes the gliding action  stating that it reduces friction during sexual intercourse  and suggesting that it adds "immeasurably to the comfort and pleasure of both parties"  .'
p11
ss.