(dp1
S'input'
p2
(dp3
S'encoded'
p4
(lp5
I64
aI2179
aI394
aI16642
aI1376
aI5269
asS'ori'
p6
S'This house would subsidize poor communities'
p7
ssS'output'
p8
(dp9
g4
(lp10
I3905
aI5
aI2382
aI182
aI2428
aI45
aI6372
aI89
aI2210
aI24
aI1655
aI4925
aI75
aI843
aI1987
aI73
aI24679
aI8935
aI5
aI75
aI193
aI89
aI2259
aI34
aI4933
aI63765
asg6
S'Culture and religion are thought to play a role in creating inequality by either encouraging or discouraging wealth-acquiring behavior  and by providing a basis for discrimination .'
p11
ss.