(dp1
S'input'
p2
(dp3
S'encoded'
p4
(lp5
I64
aI2179
aI43
aI3
aI626
aI187
aI116
aI1989
aI34
aI3102
aI2223
asS'ori'
p6
S"This house believes the United States is responsible for Mexico's drugs war"
p7
ssS'output'
p8
(dp9
g4
(lp10
I41
aI7
aI1906
aI4694
aI493
aI93
aI3341
aI440
aI12
aI863
aI7
aI86
aI440
aI28408
aI12344
aI5
aI93
aI440
aI12
aI11201
aI45
aI93
aI3569
aI5
aI93
aI1379
aI24
aI7568
aI63765
asg6
S'As of November  charges against one defendant had been dropped; five of them had pled guilty  and one had been sentenced to one year and one day in prison .'
p11
ss.