(dp1
S'input'
p2
(dp3
S'encoded'
p4
(lp5
I64
aI2179
aI394
aI2017
aI3807
aI314
aI3433
asS'ori'
p6
S'This house would ban partial birth abortions'
p7
ssS'output'
p8
(dp9
g4
(lp10
I378
aI3
aI3854
aI3855
aI297
aI63
aI732
aI33
aI122
aI3511
aI24
aI3311
aI646
aI63765
aI3856
aI63765
asg6
S'However  the Fifth Circuit decided that her case was moot  in McCorvey v . Hill  .'
p11
ss.