(dp1
S'input'
p2
(dp3
S'encoded'
p4
(lp5
I64
aI2179
aI43
aI63
aI2659
aI417
aI1690
aI3
aI12048
aI7
aI19084
asS'ori'
p6
S'This house believes that Israel should lift the blockade of Gaza'
p7
ssS'output'
p8
(dp9
g4
(lp10
I27278
aI16924
aI64
aI60
aI3
aI4134
aI53
aI6056
aI1405
aI2161
aI17226
aI17227
aI122
aI1545
aI75
aI5036
aI8446
aI17225
aI41
aI15806
aI60
aI3
aI10782
aI5
aI333
aI371
aI51
aI27279
aI6022
aI63765
asg6
S'Igansky illustrates this with the incident where Israeli prime minister Yitzhak Rabin was described by fellow Jewish Israelis as cooperating with the Nazis  and depicted wearing an SS uniform .'
p11
ss.