(dp1
S'input'
p2
(dp3
S'encoded'
p4
(lp5
I64
aI2179
aI394
aI10662
aI626
aI187
aI2157
aI2697
aI19
aI2371
asS'ori'
p6
S'This house would remove United States military bases from Japan'
p7
ssS'output'
p8
(dp9
g4
(lp10
I134
aI122
aI395
aI22922
aI24
aI26431
aI53
aI134
aI373
aI1047
aI4465
aI41
aI26431
aI19227
aI63765
asg6
S'It was later planted in Satsuma where it became known nationally as "the Satsuma potato .'
p11
ss.