(dp1
S'input'
p2
(dp3
S'encoded'
p4
(lp5
I64
aI2179
aI43
aI223
aI2138
aI11
aI89
aI21
aI45
aI2185
aI372
asS'ori'
p6
S'This house believes all nations have a right to nuclear weapons'
p7
ssS'output'
p8
(dp9
g4
(lp10
I38851
aI3172
aI63
aI47
aI316
aI691
aI667
aI2185
aI187
aI153
aI1160
aI7184
aI14478
aI2183
aI289
aI271
aI667
aI372
aI92
aI32
aI34
aI89
aI177
aI2038
aI7
aI843
aI4951
aI73
aI862
aI2185
aI2223
aI73
aI2185
aI7300
aI75
aI23274
asg6
S'Sagan argues that "more will be worse"  since new nuclear states often lack adequate organizational controls over their new weapons  which makes for a high risk of either deliberate or accidental nuclear war  or nuclear theft by terrorists'
p11
ss.