(dp1
S'input'
p2
(dp3
S'encoded'
p4
(lp5
I64
aI2179
aI43
aI63
aI2659
aI417
aI1690
aI3
aI12048
aI7
aI19084
asS'ori'
p6
S'This house believes that Israel should lift the blockade of Gaza'
p7
ssS'output'
p8
(dp9
g4
(lp10
I89
aI696
aI7
aI18471
aI14
aI3
aI19096
aI742
aI155
aI440
aI12
aI31487
aI14
aI3
aI8686
aI5156
aI3
aI11571
aI5
aI440
aI1109
aI10557
aI8765
aI5
aI63
aI3414
aI440
aI12
aI12956
aI5156
aI3
aI2414
aI31488
aI252
aI31489
aI73
aI31490
aI75
aI2743
aI63
aI182
aI1047
aI45
aI316
aI11943
aI63765
asg6
S'A number of passengers on the flotilla said they had been mugged on the streets near the port and had mobile phones stolen  and that suspicious "fishermen" had been sighted near the ships  loitering without bait or buckets  by waters that are known to be contaminated  .'
p11
ss.