(dp1
S'input'
p2
(dp3
S'encoded'
p4
(lp5
I64
aI2179
aI394
aI60
aI23587
asS'ori'
p6
S'This house would re-engage with Myanmar'
p7
ssS'output'
p8
(dp9
g4
(lp10
I100
aI14153
aI182
aI5047
aI45
aI11
aI928
aI9765
aI24
aI50573
aI226
aI2377
aI382
aI12056
aI311
aI2652
aI1277
aI1197
aI158
aI260
aI6766
aI50574
aI8442
aI5
aI50575
aI38002
aI5522
aI8442
aI63765
asg6
S'Some 50 000 protesters are reported to have demonstrated peacefully in Akyab while soldiers were stationed at seven key places  including government buildings  Lawkanada temple  and Akyi Tong Kong temple  .'
p11
ss.