(dp1
S'input'
p2
(dp3
S'encoded'
p4
(lp5
I64
aI2179
aI43
aI63
aI134
aI116
aI400
aI21
aI34
aI3
aI260
aI45
aI3439
aI57
aI7
aI2381
asS'ori'
p6
S'This house believes that it is sometimes right for the government to restrict freedom of speech'
p7
ssS'output'
p8
(dp9
g4
(lp10
I34
aI2386
aI2696
aI1202
aI1792
aI57
aI7
aI2381
aI75
aI2696
aI5
aI3135
aI2381
aI63765
asg6
S'For specific country examples see Freedom of speech by country  and Criminal speech .'
p11
ss.