(dp1
S'input'
p2
(dp3
S'encoded'
p4
(lp5
I64
aI2179
aI43
aI63
aI2157
aI2565
aI493
aI19084
aI382
aI4850
asS'ori'
p6
S"This house believes that Israel's 2008-2009 military operations against Gaza were justified"
p7
ssS'output'
p8
(dp9
g4
(lp10
I3
aI4160
aI3041
aI63
aI3
aI8444
aI440
aI12
aI801
aI75
aI51
aI2950
aI11520
aI60
aI89
aI15730
aI7949
aI43828
aI17377
aI19
aI51
aI6837
aI63765
asg6
S'The Mission concluded that the mosque had been hit by an air-to-ground missile fitted with a shrapnel fragmentation sleeve  fired from an aircraft .'
p11
ss.