(dp1
S'input'
p2
(dp3
S'encoded'
p4
(lp5
I64
aI2179
aI394
aI2976
aI12243
aI24
aI954
aI126
aI1560
aI10723
asS'ori'
p6
S'This house would implement playoffs in collegiate level American football'
p7
ssS'output'
p8
(dp9
g4
(lp10
I2985
aI8037
aI63
aI248
aI381
aI5
aI445
aI7
aI4758
aI10723
aI4163
aI28152
aI252
aI2580
aI150
aI642
aI92
aI2985
aI3947
aI45
aI3
aI475
aI7
aI3
aI12247
aI7789
aI63765
asg6
S'Critics note that other sports and divisions of college football complete seasons without disputed national champions which critics attribute to the use of the playoff format .'
p11
ss.