(dp1
S'input'
p2
(dp3
S'encoded'
p4
(lp5
I64
aI2179
aI235
aI3
aI2136
aI7
aI3
aI2306
aI7
aI2390
asS'ori'
p6
S'This house supports the one-child policy of the republic of China'
p7
ssS'output'
p8
(dp9
g4
(lp10
I5521
aI2598
aI4696
aI604
aI7
aI2610
aI19
aI3
aI9882
aI5
aI89
aI1445
aI40781
aI2598
aI5935
aI1191
aI63765
asg6
S"Hong Kong's population increases because of immigration from the mainland and a large expatriate population comprising about 4% ."
p11
ss.