(dp1
S'input'
p2
(dp3
S'encoded'
p4
(lp5
I64
aI2179
aI43
aI63
aI3376
aI4938
aI417
aI316
aI3537
asS'ori'
p6
S'This house believes that endangered species should be protected'
p7
ssS'output'
p8
(dp9
g4
(lp10
I923
aI6669
aI3136
aI5
aI100
aI220
aI182
aI2853
aI60
aI3
aI7798
aI7
aI4938
aI1404
aI75
aI7275
aI5
aI182
aI3438
aI45
aI265
aI1706
aI7831
aI620
aI89
aI157
aI7
aI6793
aI256
aI63765
asg6
S'Currently  environmental groups and some governments are concerned with the extinction of species caused by humanity  and are attempting to combat further extinctions through a variety of conservation programs  .'
p11
ss.