(dp1
S'input'
p2
(dp3
S'encoded'
p4
(lp5
I64
aI2179
aI43
aI223
aI2138
aI11
aI89
aI21
aI45
aI2185
aI372
asS'ori'
p6
S'This house believes all nations have a right to nuclear weapons'
p7
ssS'output'
p8
(dp9
g4
(lp10
I902
aI7
aI11504
aI14153
aI3
aI6828
aI7
aI40723
aI7
aI2185
aI5152
aI8095
aI14
aI271
aI47413
aI2730
aI63765
asg6
S'Scores of aboriginal protesters "demanded the removal of 100 000 barrels of nuclear waste stored on their Orchid Island  .'
p11
ss.