(dp1
S'input'
p2
(dp3
S'encoded'
p4
(lp5
I64
aI2179
aI394
aI3830
aI3
aI475
aI7
aI9441
aI13132
aI3102
aI24
aI276
aI381
asS'ori'
p6
S'This house would permit the use of performance enhancing drugs in professional sports'
p7
ssS'output'
p8
(dp9
g4
(lp10
I11
aI1198
aI1978
aI2754
aI6965
aI30089
aI1278
aI1050
aI298
aI1708
aI13922
aI12269
aI63764
asg6
S'|- Have you ever gained localised muscular endurance faster when taking anabolic steroids ?'
p11
ss.