(dp1
S'input'
p2
(dp3
S'encoded'
p4
(lp5
I64
aI2179
aI394
aI2017
aI223
aI9058
aI23653
asS'ori'
p6
S'This house would ban all unsustainable logging'
p7
ssS'output'
p8
(dp9
g4
(lp10
I298
aI4493
aI1404
aI7145
aI8134
aI3162
aI45
aI2838
aI51
aI6685
aI4515
aI7
aI7145
aI8129
aI3162
aI458
aI63765
asg6
S'When hunters caused sea otter populations to decline  an ecological release of sea urchin populations occurred .'
p11
ss.