(dp1
S'input'
p2
(dp3
S'encoded'
p4
(lp5
I64
aI2179
aI43
aI223
aI2138
aI11
aI89
aI21
aI45
aI2185
aI372
asS'ori'
p6
S'This house believes all nations have a right to nuclear weapons'
p7
ssS'output'
p8
(dp9
g4
(lp10
I366
aI2452
aI16837
aI45
aI3
aI11570
aI24
aI3
aI117
aI1188
aI10
aI92
aI440
aI99
aI2340
aI122
aI942
aI92
aI2343
aI11570
aI3
aI2268
aI7
aI37054
aI24
aI63765
asg6
S'After Brazil acceded to the NPT in 1998 the only remaining non-nuclear-weapons state which had not signed was Cuba  which joined NPT (and the Treaty of Tlatelolco NWFZ) in 2002 .'
p11
ss.