(dp1
S'input'
p2
(dp3
S'encoded'
p4
(lp5
I64
aI2179
aI43
aI223
aI2138
aI11
aI89
aI21
aI45
aI2185
aI372
asS'ori'
p6
S'This house believes all nations have a right to nuclear weapons'
p7
ssS'output'
p8
(dp9
g4
(lp10
I47293
aI3
aI285
aI7
aI2185
aI372
aI55
aI12
aI89
aI521
aI7
aI3
aI5880
aI20
aI34
aI89
aI572
aI413
aI63765
asg6
S'Ridding the world of nuclear weapons has been a cause of the pacifist left for a long time .'
p11
ss.