(dp1
S'input'
p2
(dp3
S'encoded'
p4
(lp5
I64
aI2179
aI43
aI63
aI820
aI12564
aI182
aI3
aI217
aI1112
aI1869
aI7
aI10656
aI4672
aI34
aI5276
asS'ori'
p6
S'This house believes that open primaries are the most effective method of selecting candidates for elections'
p7
ssS'output'
p8
(dp9
g4
(lp10
I263
aI12559
aI116
aI89
aI1380
aI7
aI5814
aI5334
aI24
aI92
aI89
aI7532
aI2912
aI89
aI4359
aI1622
aI4834
aI166
aI131
aI99
aI24
aI3
aI8863
aI7
aI8992
aI134
aI2990
aI63765
asg6
S'Push-over (also called mischief voting) is a type of tactical voting in which a voter ranks a perceived weak alternative higher  but not in the hopes of getting it elected .'
p11
ss.