(dp1
S'input'
p2
(dp3
S'encoded'
p4
(lp5
I64
aI2179
aI43
aI63
aI6670
aI546
aI417
aI316
aI89
aI1334
aI3108
aI7
aI4849
aI1886
aI2855
asS'ori'
p6
S'This house believes that wind power should be a primary focus of future energy supply'
p7
ssS'output'
p8
(dp9
g4
(lp10
I6670
aI546
aI24
aI3
aI2145
aI63765
aI146
aI868
aI2881
aI45
aI546
aI3
aI4968
aI7
aI4374
aI2639
aI4492
aI2284
aI3
aI6694
aI7
aI2639
aI8688
aI7
aI6695
aI574
aI3569
aI5
aI200
aI4666
aI6695
aI6694
aI19
aI3
aI2881
aI7935
aI75
asg6
S'Wind power in the U .S . provides enough electricity to power the equivalent of nearly 9 million homes  avoiding the emissions of 57 million tons of carbon each year and reducing expected carbon emissions from the electricity sector by 2 .5% '
p11
ss.