(dp1
S'input'
p2
(dp3
S'encoded'
p4
(lp5
I64
aI2179
aI43
aI17
aI4941
aI857
aI3211
asS'ori'
p6
S'This house believes social deprivation causes crime'
p7
ssS'output'
p8
(dp9
g4
(lp10
I273
aI182
aI89
aI696
aI7
aI251
aI24
aI11344
aI5
aI79
aI63765
asg6
S"There are a number of problems in Shaw and McKay's work ."
p11
ss.