(dp1
S'input'
p2
(dp3
S'encoded'
p4
(lp5
I64
aI2179
aI43
aI63
aI7382
aI116
aI400
aI4713
asS'ori'
p6
S'This house believes that bribery is sometimes acceptable'
p7
ssS'output'
p8
(dp9
g4
(lp10
I24
aI100
aI3052
aI260
aI5726
aI11
aI2220
aI73
aI2280
aI92
aI163
aI134
aI330
aI45
aI1670
aI291
aI976
aI5
aI1968
aI3089
aI63765
asg6
S'In some cases  government officials have broad or ill-defined powers  which make it difficult to distinguish between legal and illegal actions .'
p11
ss.