(dp1
S'input'
p2
(dp3
S'encoded'
p4
(lp5
I64
aI2179
aI43
aI63
aI187
aI417
aI99
aI16642
aI3
aI6449
aI7
aI3935
asS'ori'
p6
S'This house believes that states should not subsidize the growing of tobacco'
p7
ssS'output'
p8
(dp9
g4
(lp10
I3935
aI475
aI116
aI89
aI4229
aI5085
aI24
aI25208
aI887
aI3314
aI14832
aI134
aI8083
aI45
aI89
aI696
aI7
aI248
aI7188
aI45
aI3
aI3217
aI7
aI3
aI3486
aI159
aI41
aI3710
aI13843
aI5
aI982
aI314
aI444
aI5
aI4696
aI75
aI45
aI1727
aI3
aI1432
aI34
aI1650
aI4828
aI1012
aI5077
aI63765
asg6
S'Tobacco use is a significant factor in miscarriages among pregnant smokers  it contributes to a number of other threats to the health of the fetus such as premature births and low birth weight and increases by 1 .4 to 3 times the chance for Sudden Infant Death Syndrome (SIDS)  .'
p11
ss.