(dp1
S'input'
p2
(dp3
S'encoded'
p4
(lp5
I64
aI2179
aI43
aI63
aI3376
aI4938
aI417
aI316
aI3537
asS'ori'
p6
S'This house believes that endangered species should be protected'
p7
ssS'output'
p8
(dp9
g4
(lp10
I51
aI502
aI7
aI64
aI4462
aI116
aI63
aI134
aI1721
aI45
aI3553
aI217
aI3717
aI5
aI4931
aI89
aI13129
aI234
aI7
aI3
aI3492
aI292
aI2363
aI311
aI92
aI7128
aI157
aI55
aI12
aI63765
asg6
S'An advantage of this definition is that it seems to describe most circumstances and presents a unified view of the traditional three levels at which biological variety has been identified:  .'
p11
ss.