(dp1
S'input'
p2
(dp3
S'encoded'
p4
(lp5
I64
aI2179
aI394
aI190
aI3
aI21
aI45
aI3895
aI834
asS'ori'
p6
S'This house would limit the right to bear arms'
p7
ssS'output'
p8
(dp9
g4
(lp10
I89
aI4229
aI696
aI7
aI2611
aI3365
aI457
aI2723
aI620
aI4435
aI63765
asg6
S'A significant number of gun related deaths occur through suicide .'
p11
ss.