(dp1
S'input'
p2
(dp3
S'encoded'
p4
(lp5
I64
aI2179
aI394
aI4325
aI2042
aI270
aI89
aI11605
aI3324
asS'ori'
p6
S'This house would fund education using a voucher scheme'
p7
ssS'output'
p8
(dp9
g4
(lp10
I22
aI96
aI34
aI2240
aI11604
aI24
aI3
aI626
aI187
aI116
aI1801
aI63765
asg6
S'Political support for school vouchers in the United States is mixed .'
p11
ss.