(dp1
S'input'
p2
(dp3
S'encoded'
p4
(lp5
I64
aI2179
aI43
aI63
aI2659
aI417
aI1690
aI3
aI12048
aI7
aI19084
asS'ori'
p6
S'This house believes that Israel should lift the blockade of Gaza'
p7
ssS'output'
p8
(dp9
g4
(lp10
I260
aI9322
aI382
aI5511
aI24
aI75
aI19122
aI10608
aI3
aI8384
aI14
aI3
aI19088
aI254
aI24
aI89
aI2115
aI557
aI1754
aI24
aI19084
aI5
aI19123
aI63765
asg6
S'Government ministers were sworn in by Mahmoud Abbas  the chairman on the Palestinian Authority  in a ceremony held simultaneously in Gaza and Ramallah .'
p11
ss.