(dp1
S'input'
p2
(dp3
S'encoded'
p4
(lp5
I64
aI2179
aI43
aI24
aI3
aI475
aI7
aI12436
aI3364
asS'ori'
p6
S'This house believes in the use of affirmative action'
p7
ssS'output'
p8
(dp9
g4
(lp10
I366
aI3
aI367
aI7
aI3
aI17679
aI5770
aI3
aI145
aI122
aI685
aI397
aI3
aI292
aI6509
aI639
aI63765
asg6
S'After the fall of the Han Dynasty  the nine-rank system was established during the Three Kingdoms period .'
p11
ss.