(dp1
S'input'
p2
(dp3
S'encoded'
p4
(lp5
I64
aI2179
aI43
aI63
aI134
aI116
aI400
aI21
aI34
aI3
aI260
aI45
aI3439
aI57
aI7
aI2381
asS'ori'
p6
S'This house believes that it is sometimes right for the government to restrict freedom of speech'
p7
ssS'output'
p8
(dp9
g4
(lp10
I273
aI83
aI316
aI89
aI658
aI5148
aI3097
aI3
aI3269
aI7
aI3
aI249
aI788
aI24
aI1849
aI83
aI316
aI534
aI75
aI3
aI54915
aI7
aI3
aI5
aI3
aI249
aI788
aI24
aI1849
aI45
aI134
aI83
aI316
aI24
aI3235
aI60
aI89
aI248
aI2975
aI459
aI282
aI70
aI63765
asg6
S'there must be a public emergency threatening the life of the nation;any measures taken in response must be "strictly required by the exigencies of the situation"  and the measures taken in response to it  must be in compliance with a state\'s other obligations under international law  .'
p11
ss.