(dp1
S'input'
p2
(dp3
S'encoded'
p4
(lp5
I64
aI2179
aI43
aI223
aI2138
aI11
aI89
aI21
aI45
aI2185
aI372
asS'ori'
p6
S'This house believes all nations have a right to nuclear weapons'
p7
ssS'output'
p8
(dp9
g4
(lp10
I24
aI41
aI1852
aI75
aI3
aI2145
aI63765
aI131
aI366
aI165
aI11566
aI5
aI60
aI100
aI1277
aI11567
aI2371
aI2340
aI3
aI5
aI24
aI11568
aI7
aI2145
aI63765
aI2185
aI372
aI11542
aI11569
aI45
aI2692
aI306
aI63765
asg6
S'In 1970  as desired by the U .S . but after much hesitation and with some key stipulations  Japan signed the NPT; and in 1972  relieved of U .S . nuclear weapons  Okinawa reverted to Japanese rule .'
p11
ss.