(dp1
S'input'
p2
(dp3
S'encoded'
p4
(lp5
I64
aI2179
aI43
aI63
aI3
aI4538
aI7
aI4434
aI7793
aI283
aI45
aI3586
aI417
aI316
aI577
asS'ori'
p6
S'This house believes that the sale of violent video games to minors should be banned'
p7
ssS'output'
p8
(dp9
g4
(lp10
I34
aI1343
aI153
aI29321
aI12338
aI394
aI4726
aI588
aI24
aI45
aI790
aI298
aI155
aI394
aI24205
aI24
aI45
aI4726
aI588
aI5119
aI45
aI2258
aI372
aI8104
aI5
aI80
aI194
aI155
aI1068
aI63765
asg6
S'For example  often Ragnarok players would meet up in chat-rooms to decide when they would log in to meet up online to trade weapons  medicines and others things they need in-game .'
p11
ss.