(dp1
S'input'
p2
(dp3
S'encoded'
p4
(lp5
I64
aI2179
aI43
aI63
aI3
aI21
aI45
aI12715
aI417
aI99
aI316
aI2897
asS'ori'
p6
S'This house believes that the right to asylum should not be absolute'
p7
ssS'output'
p8
(dp9
g4
(lp10
I7
aI86
aI382
aI19
aI2404
aI19
aI2770
aI19
aI22871
aI19
aI626
aI2549
aI19
aI2318
aI875
aI5
aI19
aI3
aI573
aI7
aI323
aI63765
asg6
S'Of them  17 736 were from Africa  54 804 from Asia  21 131 from Oceania  18 220 from United Kingdom  1 506 from South America  and 2 369 from the rest of Europe  .'
p11
ss.