(dp1
S'input'
p2
(dp3
S'encoded'
p4
(lp5
I64
aI2179
aI394
aI2017
aI3807
aI314
aI3433
asS'ori'
p6
S'This house would ban partial birth abortions'
p7
ssS'output'
p8
(dp9
g4
(lp10
I273
aI116
aI443
aI1107
aI6655
aI234
aI2286
aI3257
aI63765
asg6
S'There is no single Buddhist view concerning abortion  .'
p11
ss.