(dp1
S'input'
p2
(dp3
S'encoded'
p4
(lp5
I64
aI2179
aI43
aI63
aI3
aI21
aI45
aI12715
aI417
aI99
aI316
aI2897
asS'ori'
p6
S'This house believes that the right to asylum should not be absolute'
p7
ssS'output'
p8
(dp9
g4
(lp10
I3718
aI41
aI326
aI373
aI136
aI87
aI500
aI3
aI3987
aI131
aI41
aI64
aI5029
aI60
aI51
aI2282
aI7
aI3
aI3987
aI5
aI51
aI7380
aI7
aI5615
aI1991
aI64
aI122
aI51
aI1694
aI257
aI183
aI572
aI3363
aI3060
aI63765
asg6
S'Similarly  as Britain became more multi-cultural so did the service but  as this coincided with an expansion of the service and an influx of young blood this was an easier  if too long delayed  transition .'
p11
ss.