(dp1
S'input'
p2
(dp3
S'encoded'
p4
(lp5
I64
aI2179
aI43
aI63
aI6670
aI546
aI417
aI316
aI89
aI1334
aI3108
aI7
aI4849
aI1886
aI2855
asS'ori'
p6
S'This house believes that wind power should be a primary focus of future energy supply'
p7
ssS'output'
p8
(dp9
g4
(lp10
I2992
aI11
aI3725
aI63
aI7
aI3
aI697
aI5120
aI1886
aI2835
aI88
aI316
aI5427
aI60
aI6743
aI1165
aI63765
asg6
S'Studies have indicated that 20% of the total electrical energy consumption may be incorporated with minimal difficulty  .'
p11
ss.