(dp1
S'input'
p2
(dp3
S'encoded'
p4
(lp5
I64
aI2179
aI43
aI63
aI3
aI4990
aI4991
aI116
aI4850
aI24
aI12166
aI3
aI475
aI7
aI3532
aI3290
aI7
aI4714
asS'ori'
p6
S'This house believes that the Catholic Church is justified in forbidding the use of barrier methods of contraception'
p7
ssS'output'
p8
(dp9
g4
(lp10
I298
aI5084
aI7
aI807
aI116
aI2100
aI46854
aI5
aI38623
aI182
aI165
aI149
aI5118
aI138
aI248
aI3290
aI63765
asg6
S'When cost of failure is included  IUDs and vasectomy are much less costly than other methods .'
p11
ss.