(dp1
S'input'
p2
(dp3
S'encoded'
p4
(lp5
I64
aI2179
aI43
aI3
aI2206
aI116
aI4850
aI24
aI270
aI972
aI45
aI881
aI187
aI19
aI10443
aI2185
aI372
asS'ori'
p6
S'This house believes the US is justified in using force to prevent states from acquiring nuclear weapons'
p7
ssS'output'
p8
(dp9
g4
(lp10
I11599
aI2204
aI12089
aI10684
aI2221
aI55
aI12
aI7212
aI19
aI2135
aI2136
aI752
aI1609
aI5
aI63
aI64
aI116
aI14729
aI63765
asg6
S'Critic Robert McMahon thinks Congress has been excluded from foreign policy decision making  and that this is detrimental  .'
p11
ss.