(dp1
S'input'
p2
(dp3
S'encoded'
p4
(lp5
I64
aI2179
aI394
aI2976
aI12243
aI24
aI954
aI126
aI1560
aI10723
asS'ori'
p6
S'This house would implement playoffs in collegiate level American football'
p7
ssS'output'
p8
(dp9
g4
(lp10
I267
aI136
aI187
aI3330
aI448
aI182
aI742
aI45
aI316
aI7960
aI35038
aI3
aI4400
aI3831
aI5
aI3
aI9359
aI75
aI3
aI2248
aI2176
aI47
aI6847
aI1074
aI89
aI293
aI5
aI2705
aI7075
aI7
aI3
aI34959
aI20731
aI7191
aI41
aI261
aI41
aI2703
aI4163
aI17970
aI7
aI3
aI248
aI34949
aI21656
aI3
aI34949
aI2126
aI5
aI7973
aI113
aI3
aI4364
aI7
aI3
aI34949
aI851
aI12244
aI14324
aI63765
asg6
S'Two more states Attorneys General are said to be considering joing the Utah lawsuit  and the investigation by the Justice Department will probably include a minute and extensive examination of the Fiesta Bowl Scandal as well as conducting complete audits of the other BCS Bowls  the BCS itself and possibly even the schools of the 6 BCS Automatic Qualification Conferences .'
p11
ss.