(dp1
S'input'
p2
(dp3
S'encoded'
p4
(lp5
I64
aI2179
aI43
aI24
aI3
aI475
aI7
aI12436
aI3364
asS'ori'
p6
S'This house believes in the use of affirmative action'
p7
ssS'output'
p8
(dp9
g4
(lp10
I626
aI2549
aI7517
aI5969
aI70
aI116
aI89
aI760
aI7
aI70
aI92
aI54697
aI493
aI3089
aI24
aI3
aI9998
aI63765
asg6
S'United Kingdom employment equality law is a body of law which legislates against prejudice-based actions in the workplace .'
p11
ss.