(dp1
S'input'
p2
(dp3
S'encoded'
p4
(lp5
I64
aI2179
aI394
aI16642
aI1376
aI5269
asS'ori'
p6
S'This house would subsidize poor communities'
p7
ssS'output'
p8
(dp9
g4
(lp10
I100
aI1190
aI2415
aI5
aI7238
aI11
aI1966
aI63
aI368
aI2896
aI2194
aI153
aI117
aI948
aI45
aI3226
aI130
aI5
aI17
aI4925
aI843
aI604
aI134
aI116
aI1845
aI60
aI3
aI2877
aI7
aI11968
aI16
aI189
aI24
aI3
aI2936
aI2203
aI73
aI604
aI2915
aI60
aI3
aI15652
aI7
aI2885
aI19
aI3
aI2899
aI2696
aI289
aI9467
aI3149
asg6
S"Some think tanks and NGOs have argued that Western monetary aid often only serves to increase poverty and social inequality  either because it is conditioned with the implementation of harmful economic policies in the recipient countries  or because it's tied with the importing of products from the donor country over cheaper alternatives "
p11
ss.