(dp1
S'input'
p2
(dp3
S'encoded'
p4
(lp5
I64
aI2179
aI43
aI63
aI11083
aI10046
aI417
aI316
aI89
aI3135
aI4603
asS'ori'
p6
S'This house believes that Holocaust denial should be a criminal offence'
p7
ssS'output'
p8
(dp9
g4
(lp10
I132
aI1074
aI2879
aI92
aI14632
aI3984
aI45
aI14642
aI32230
aI5
aI63
aI3
aI128
aI45
aI1453
aI64
aI298
aI42
aI13053
aI546
aI500
aI5267
aI22517
aI19
aI1063
aI63765
asg6
S"These include sources which reveal Hitler's desire to eradicate Jewry  and that the order to do this when he attained power did indeed originate from him  ."
p11
ss.