(dp1
S'input'
p2
(dp3
S'encoded'
p4
(lp5
I64
aI2179
aI43
aI8629
aI116
aI3
aI117
aI998
asS'ori'
p6
S'This house believes atheism is the only way'
p7
ssS'output'
p8
(dp9
g4
(lp10
I93
aI1039
aI3017
aI75
aI1367
aI159
aI41
aI10660
aI2365
aI63765
aI21766
aI116
aI45
aI1029
aI4430
aI14523
aI5
aI18580
aI41
aI114
aI155
aI382
aI267
aI14578
aI24
aI3
aI21767
aI2498
aI45
aI2924
aI77
aI3073
aI3326
aI1191
aI3
aI285
aI5
aI45
aI2463
aI63
aI3
aI21768
aI7
aI132
aI3073
aI182
aI994
aI166
aI459
aI93
aI5058
aI138
aI3
aI248
aI63765
asg6
S'One approach  suggested by writers such as Stephen D . Unwin  is to treat (particular versions of) theism and naturalism as though they were two hypotheses in the Bayesian sense  to list certain data (or alleged data)  about the world  and to suggest that the likelihoods of these data are significantly higher under one hypothesis than the other  .'
p11
ss.