(dp1
S'input'
p2
(dp3
S'encoded'
p4
(lp5
I64
aI2179
aI43
aI63
aI3
aI4990
aI4991
aI116
aI4850
aI24
aI12166
aI3
aI475
aI7
aI3532
aI3290
aI7
aI4714
asS'ori'
p6
S'This house believes that the Catholic Church is justified in forbidding the use of barrier methods of contraception'
p7
ssS'output'
p8
(dp9
g4
(lp10
I1381
aI913
aI5
aI2146
aI706
aI2612
aI41
aI4368
aI39748
aI382
aI637
aI547
aI273
aI122
aI89
aI23972
aI3386
aI192
aI2258
aI24
aI7332
aI41
aI314
aI708
aI63765
asg6
S'Although limited and highly controlled sales as disease preventatives were still allowed  there was a brisk black market trade in condoms as birth control  .'
p11
ss.