(dp1
S'input'
p2
(dp3
S'encoded'
p4
(lp5
I64
aI2179
aI394
aI190
aI3
aI21
aI45
aI3895
aI834
asS'ori'
p6
S'This house would limit the right to bear arms'
p7
ssS'output'
p8
(dp9
g4
(lp10
I3
aI70
aI174
aI2499
aI4433
aI7
aI11282
aI4150
aI14889
aI5
aI248
aI1486
aI7
aI1374
aI5
aI913
aI3
aI4538
aI7
aI851
aI372
aI5
aI372
aI6937
aI14368
aI63765
asg6
S'The law also restricted importation of Saturday night specials and other types of guns  and limited the sale of automatic weapons and semi-automatic weapons conversion kits  .'
p11
ss.