(dp1
S'input'
p2
(dp3
S'encoded'
p4
(lp5
I64
aI2179
aI394
aI2017
aI628
asS'ori'
p6
S'This house would ban gambling'
p7
ssS'output'
p8
(dp9
g4
(lp10
I6329
aI440
aI1301
aI12
aI1348
aI41
aI89
aI998
aI45
aI5918
aI658
aI3592
aI34
aI4949
aI5
aI64
aI2425
aI45
aI3
aI939
aI1361
aI63
aI7618
aI382
aI89
aI399
aI7
aI11006
aI4262
aI63765
asg6
S'Taxes had never been accepted as a way to raise public funding for projects  and this led to the popular belief that lotteries were a form of hidden tax .'
p11
ss.