(dp1
S'input'
p2
(dp3
S'encoded'
p4
(lp5
I64
aI2179
aI235
aI3
aI2136
aI7
aI3
aI2306
aI7
aI2390
asS'ori'
p6
S'This house supports the one-child policy of the republic of China'
p7
ssS'output'
p8
(dp9
g4
(lp10
I675
aI3130
aI256
aI7
aI3
aI5
aI3
aI2136
aI1779
aI89
aI1103
aI7
aI658
aI2042
aI17
aI1347
aI5
aI24
aI100
aI3052
aI10028
aI63765
asg6
S'Like previous programs of the 1960s and 1970s  the one-child policy employed a combination of public education  social pressure  and in some cases coercion .'
p11
ss.