(dp1
S'input'
p2
(dp3
S'encoded'
p4
(lp5
I64
aI2179
aI394
aI4325
aI2042
aI270
aI89
aI11605
aI3324
asS'ori'
p6
S'This house would fund education using a voucher scheme'
p7
ssS'output'
p8
(dp9
g4
(lp10
I41
aI89
aI829
aI7
aI399
aI2240
aI4662
aI98
aI99
aI1985
aI12179
aI45
aI93
aI399
aI7
aI13498
aI73
aI97
aI958
aI13499
aI2126
aI4837
aI89
aI10185
aI8426
aI2240
aI1642
aI7
aI3
aI93
aI155
aI394
aI11
aI12
aI699
aI45
aI75
aI6401
aI9025
aI63765
asg6
S'As a matter of form  school choice does not give preference to one form of schooling or another  rather manifests itself whenever a student attends school outside of the one they would have been assigned to by geographic default .'
p11
ss.