(dp1
S'input'
p2
(dp3
S'encoded'
p4
(lp5
I64
aI2179
aI43
aI63
aI2659
aI417
aI1690
aI3
aI12048
aI7
aI19084
asS'ori'
p6
S'This house believes that Israel should lift the blockade of Gaza'
p7
ssS'output'
p8
(dp9
g4
(lp10
I3
aI19096
aI122
aI3867
aI71
aI75
aI3
aI626
aI187
aI2265
aI3
aI626
aI2549
aI2670
aI2547
aI3
aI2653
aI2087
aI19089
aI7
aI3
aI1565
aI2131
aI2451
aI3
aI626
aI2138
aI5
aI3
aI626
aI5
aI626
aI2138
aI2159
aI448
aI2017
aI63765
asg6
S'The flotilla was publicly opposed by the United States  France  the United Kingdom  Turkey  Canada  the Middle East Quartet (consisting of the European Union  Russia  the United Nations  and the United States)  and United Nations Secretary General Ban Ki-moon .'
p11
ss.