(dp1
S'input'
p2
(dp3
S'encoded'
p4
(lp5
I64
aI2179
aI394
aI16756
aI20435
asS'ori'
p6
S'This house would criminalize blasphemy'
p7
ssS'output'
p8
(dp9
g4
(lp10
I42
aI2822
aI7
aI25
aI2592
aI63
aI3
aI5851
aI631
aI394
aI316
aI121
aI45
aI4833
aI454
aI25
aI934
aI5
aI7
aI3
aI7454
aI7
aI89
aI12165
aI6466
aI34
aI25
aI1012
aI773
aI3435
aI75
aI2046
aI63765
asg6
S'He spoke of his fears that the Dutch police would be unable to adequately protect his safety  and of the possibility of a Fatwa calling for his death being issued by Iran  .'
p11
ss.