(dp1
S'input'
p2
(dp3
S'encoded'
p4
(lp5
I64
aI2179
aI394
aI16756
aI20435
asS'ori'
p6
S'This house would criminalize blasphemy'
p7
ssS'output'
p8
(dp9
g4
(lp10
I3
aI20516
aI33
aI2707
aI2196
aI14
aI64
aI4740
aI60
aI100
aI3683
aI3
aI1643
aI1795
aI417
aI316
aI1258
aI45
aI223
aI8313
aI226
aI80
aI4881
aI3
aI66
aI20435
aI2511
aI382
aI51
aI20517
aI5
aI417
aI316
aI5639
aI63765
asg6
S"The Rushdie case stimulated debate on this topic  with some arguing the same protection should be extended to all religions  while others claimed the UK's ancient blasphemy laws were an anachronism and should be abolished ."
p11
ss.