(dp1
S'input'
p2
(dp3
S'encoded'
p4
(lp5
I64
aI2179
aI43
aI63
aI3
aI4990
aI4991
aI116
aI4850
aI24
aI12166
aI3
aI475
aI7
aI3532
aI3290
aI7
aI4714
asS'ori'
p6
S'This house believes that the Catholic Church is justified in forbidding the use of barrier methods of contraception'
p7
ssS'output'
p8
(dp9
g4
(lp10
I3
aI6359
aI5898
aI60
aI2164
aI21524
aI27009
aI27010
aI14
aI2394
aI63765
asg6
S'The Pope met with President Nguyen Minh Triet on 11 December 2009 .'
p11
ss.