(dp1
S'input'
p2
(dp3
S'encoded'
p4
(lp5
I64
aI2179
aI43
aI63
aI2659
aI417
aI1690
aI3
aI12048
aI7
aI19084
asS'ori'
p6
S'This house believes that Israel should lift the blockade of Gaza'
p7
ssS'output'
p8
(dp9
g4
(lp10
I19088
aI7477
aI1019
aI1416
aI34
aI738
aI73
aI6056
aI4223
aI459
aI3
aI70
aI691
aI155
aI182
aI99
aI8446
aI63765
asg6
S'Palestinian refugees cannot apply for return or Israeli citizenship under the law since they are not Jewish .'
p11
ss.