(dp1
S'input'
p2
(dp3
S'encoded'
p4
(lp5
I64
aI2179
aI394
aI117
aI7428
aI21151
aI34
aI11389
aI2042
aI24
aI4364
asS'ori'
p6
S'This house would only teach abstinence for sex education in schools'
p7
ssS'output'
p8
(dp9
g4
(lp10
I14680
aI2497
aI34
aI1631
aI19
aI8803
aI952
aI45
aI8803
aI952
aI252
aI1978
aI773
aI8908
aI116
aI6404
aI63765
asg6
S"'Sexual addiction ' [the medical] term for moving from sexual experience to sexual experience without ever being satisfied  is prevalent ."
p11
ss.