(dp1
S'input'
p2
(dp3
S'encoded'
p4
(lp5
I64
aI2179
aI43
aI223
aI2138
aI11
aI89
aI21
aI45
aI2185
aI372
asS'ori'
p6
S'This house believes all nations have a right to nuclear weapons'
p7
ssS'output'
p8
(dp9
g4
(lp10
I3
aI2268
aI7
aI37054
aI472
aI351
aI2410
aI73
aI11523
aI7
aI2185
aI372
aI24
aI3010
aI875
aI5
aI3
aI8738
aI5
aI3
aI2268
aI7
aI37055
aI4542
aI2185
aI372
aI24
aI725
aI5025
aI2203
aI63765
asg6
S'The Treaty of Tlatelolco (1967) prohibited any production or deployment of nuclear weapons in Latin America and the Caribbean  and the Treaty of Pelindaba (1964) prohibits nuclear weapons in many African countries .'
p11
ss.