(dp1
S'input'
p2
(dp3
S'encoded'
p4
(lp5
I64
aI2179
aI43
aI63
aI2659
aI417
aI1690
aI3
aI12048
aI7
aI19084
asS'ori'
p6
S'This house believes that Israel should lift the blockade of Gaza'
p7
ssS'output'
p8
(dp9
g4
(lp10
I257
aI1198
aI4576
aI828
aI2377
aI9730
aI357
aI47
aI1393
aI1198
aI1295
aI3
aI15185
aI5
aI316
aI8584
aI24
aI1523
aI7
aI3
aI3730
aI285
asg6
S'If you bring your soldiers here  we will throw you off the ship and you\'ll be humiliated in front of the whole world ."'
p11
ss.