(dp1
S'input'
p2
(dp3
S'encoded'
p4
(lp5
I64
aI2179
aI394
aI5370
aI3
aI5286
asS'ori'
p6
S'This house would abolish the monarchy'
p7
ssS'output'
p8
(dp9
g4
(lp10
I298
aI3
aI7303
aI4373
aI155
aI401
aI45
aI132
aI6646
aI7
aI1413
aI545
aI5555
aI7
aI384
aI11504
aI3136
aI45
aI316
aI6509
aI5
aI3
aI3024
aI7
aI132
aI3136
aI382
aI153
aI401
aI45
aI75
aI3
aI7303
aI41
aI6297
aI324
aI5337
aI3024
aI63765
asg6
S'When the Europeans arrived they referred to these tracts of land within territories of different aboriginal groups to be kingdoms  and the leaders of these groups were often referred to by the Europeans as Kings  particularly hereditary leaders  .'
p11
ss.