(dp1
S'input'
p2
(dp3
S'encoded'
p4
(lp5
I64
aI2179
aI43
aI8629
aI116
aI3
aI117
aI998
asS'ori'
p6
S'This house believes atheism is the only way'
p7
ssS'output'
p8
(dp9
g4
(lp10
I388
aI395
aI3
aI2763
aI6165
aI21790
aI63765
aI22987
aI736
aI3
aI2802
aI7
aI773
aI24
aI92
aI42
aI5722
aI291
aI208
aI5
aI3524
aI63765
asg6
S'Centuries later  the Islamic philosopher Avicenna (c . 9801037) inquired into the question of being  in which he distinguished between essence (Mahiat) and existence (Wujud) .'
p11
ss.