(dp1
S'input'
p2
(dp3
S'encoded'
p4
(lp5
I64
aI2179
aI43
aI24
aI3
aI475
aI7
aI12436
aI3364
asS'ori'
p6
S'This house believes in the use of affirmative action'
p7
ssS'output'
p8
(dp9
g4
(lp10
I14
aI3
aI248
aI1070
aI100
aI2478
aI133
aI63
aI3
aI626
aI187
aI55
aI14319
aI10250
aI2051
aI717
aI14
aI2135
aI2136
aI5046
aI63765
asg6
S'On the other hand  some scholars believe that the United States has softened racial restrictions based on foreign policy concerns .'
p11
ss.