(dp1
S'input'
p2
(dp3
S'encoded'
p4
(lp5
I64
aI2179
aI43
aI63
aI134
aI116
aI400
aI21
aI34
aI3
aI260
aI45
aI3439
aI57
aI7
aI2381
asS'ori'
p6
S'This house believes that it is sometimes right for the government to restrict freedom of speech'
p7
ssS'output'
p8
(dp9
g4
(lp10
I884
aI252
aI2288
aI2962
aI63
aI24
aI5599
aI6196
aI271
aI4830
aI1166
aI271
aI7837
aI5
aI63
aI24
aI3
aI1643
aI3569
aI311
aI870
aI5599
aI382
aI24
aI7568
aI41
aI89
aI296
aI7
aI271
aI5954
aI4948
aI63765
asg6
S'Reporters Without Borders reports that  in 2003  42 journalists lost their lives pursuing their profession and that  in the same year  at least 130 journalists were in prison as a result of their occupational activities .'
p11
ss.