(dp1
S'input'
p2
(dp3
S'encoded'
p4
(lp5
I64
aI2179
aI394
aI60
aI23587
asS'ori'
p6
S'This house would re-engage with Myanmar'
p7
ssS'output'
p8
(dp9
g4
(lp10
I2274
aI134
aI1653
aI45
aI6750
aI29645
aI206
aI1803
aI63
aI89
aI667
aI1409
aI7
aI55
aI12
aI1629
aI63765
asg6
S'Initially it aimed to receive 500 000 signatures  having achieved that  a new target of 1 000 000 has been set  .'
p11
ss.