(dp1
S'input'
p2
(dp3
S'encoded'
p4
(lp5
I64
aI2179
aI43
aI63
aI1036
aI4828
aI33250
aI116
aI25073
aI45
aI3315
aI4562
asS'ori'
p6
S'This house believes that male infant circumcision is tantamount to child abuse'
p7
ssS'output'
p8
(dp9
g4
(lp10
I100
aI7
aI3
aI2992
aI3818
aI45
aI12352
aI3
aI782
aI33250
aI55
aI14
aI4697
aI7
aI36976
aI11
aI12
aI3468
aI3531
aI34
aI271
aI5039
aI63765
asg6
S'Some of the studies done to investigate the effect circumcision has on incidence of UTI have been extensively criticized for their methodology .'
p11
ss.