(dp1
S'input'
p2
(dp3
S'encoded'
p4
(lp5
I64
aI2179
aI394
aI2976
aI12243
aI24
aI954
aI126
aI1560
aI10723
asS'ori'
p6
S'This house would implement playoffs in collegiate level American football'
p7
ssS'output'
p8
(dp9
g4
(lp10
I233
aI45
aI38941
aI7707
aI2962
aI5
aI5224
aI4867
aI75
aI3
aI566
aI2961
aI4290
aI16544
aI16545
aI2933
aI89
aI4772
aI19
aI3
aI2248
aI2176
aI2286
aI3
aI7454
aI7
aI89
aI976
aI3518
aI7
aI3
aI34949
aI63765
asg6
S'According to CBSSports .com wire reports and information obtained by the Associated Press  Senator Orrin Hatch received a letter from the justice department concerning the possibility of a legal review of the BCS .'
p11
ss.