(dp1
S'input'
p2
(dp3
S'encoded'
p4
(lp5
I64
aI2179
aI394
aI2773
aI12505
asS'ori'
p6
S'This house would embrace multiculturalism'
p7
ssS'output'
p8
(dp9
g4
(lp10
I1928
aI10070
aI229
aI55
aI3
aI21
aI45
aI89
aI12420
aI63765
asg6
S'Every indigenous individual has the right to a nationality .'
p11
ss.