(dp1
S'input'
p2
(dp3
S'encoded'
p4
(lp5
I64
aI2179
aI43
aI63
aI134
aI116
aI400
aI21
aI34
aI3
aI260
aI45
aI3439
aI57
aI7
aI2381
asS'ori'
p6
S'This house believes that it is sometimes right for the government to restrict freedom of speech'
p7
ssS'output'
p8
(dp9
g4
(lp10
I131
aI712
aI1453
aI99
aI11
aI351
aI448
aI6484
aI19
aI2198
aI7
aI271
aI3347
aI709
aI2396
aI63
aI134
aI116
aI221
aI24
aI1228
aI2247
aI5
aI116
aI3087
aI2198
aI5
aI99
aI351
aI1222
aI45
aI20308
aI3
aI4445
aI7
aI2248
aI63765
asg6
S'But judges do not have any general immunity from criticism of their judicial conduct  provided that it is made in good faith and is genuine criticism  and not any attempt to impair the administration of justice .'
p11
ss.