(dp1
S'input'
p2
(dp3
S'encoded'
p4
(lp5
I64
aI2179
aI43
aI63
aI11083
aI10046
aI417
aI316
aI89
aI3135
aI4603
asS'ori'
p6
S'This house believes that Holocaust denial should be a criminal offence'
p7
ssS'output'
p8
(dp9
g4
(lp10
I24
aI3
aI285
aI7
aI1210
aI18382
aI273
aI382
aI443
aI2880
aI556
aI5
aI443
aI7074
aI45
aI4257
aI3
aI4307
aI63765
asg6
S'In the world of David Irving there were no gas chambers and no plan to murder the Jews .'
p11
ss.