(dp1
S'input'
p2
(dp3
S'encoded'
p4
(lp5
I64
aI2179
aI394
aI16756
aI20435
asS'ori'
p6
S'This house would criminalize blasphemy'
p7
ssS'output'
p8
(dp9
g4
(lp10
I14
aI2805
aI267
aI78
aI382
aI3178
aI24
aI21499
aI2661
aI63765
asg6
S'On February 13  2006 two people were killed in Lahore  Pakistan .'
p11
ss.