(dp1
S'input'
p2
(dp3
S'encoded'
p4
(lp5
I64
aI2179
aI43
aI63
aI820
aI12564
aI182
aI3
aI217
aI1112
aI1869
aI7
aI10656
aI4672
aI34
aI5276
asS'ori'
p6
S'This house believes that open primaries are the most effective method of selecting candidates for elections'
p7
ssS'output'
p8
(dp9
g4
(lp10
I89
aI570
aI145
aI1047
aI41
aI89
aI31307
aI14907
aI1334
aI55
aI12
aI416
aI24
aI2289
aI34
aI10
aI5
aI2083
aI5276
aI691
aI5
aI2586
aI45
aI316
aI416
aI24
aI3572
aI366
aI1872
aI2483
aI2441
aI24
aI63765
asg6
S'A similar system known as a nonpartisan blanket primary has been used in Louisiana for state and local elections since 1976  and began to be used in Washington  after numerous court challenges  in 2008 .'
p11
ss.