(dp1
S'input'
p2
(dp3
S'encoded'
p4
(lp5
I64
aI2179
aI43
aI3
aI2206
aI116
aI4850
aI24
aI270
aI972
aI45
aI881
aI187
aI19
aI10443
aI2185
aI372
asS'ori'
p6
S'This house believes the US is justified in using force to prevent states from acquiring nuclear weapons'
p7
ssS'output'
p8
(dp9
g4
(lp10
I3
aI2135
aI2136
aI7
aI1206
aI3521
aI63765
aI2839
aI63765
aI2813
aI122
aI13097
aI5
aI226
aI42
aI122
aI89
aI2979
aI12760
aI42
aI3
aI511
aI45
aI4680
aI89
aI9676
aI6731
aI14
aI2145
aI63765
aI2135
aI2136
aI604
aI42
aI122
aI99
aI89
aI594
aI14503
aI233
aI45
aI16595
aI63765
asg6
S'The foreign policy of George H . W . Bush was lackluster  and while he was a "superb crisis manager " he "missed the opportunity to leave a lasting imprint on U .S . foreign policy because he was not a strategic visionary " according to Brzezinski  .'
p11
ss.