(dp1
S'input'
p2
(dp3
S'encoded'
p4
(lp5
I64
aI2179
aI394
aI16756
aI20435
asS'ori'
p6
S'This house would criminalize blasphemy'
p7
ssS'output'
p8
(dp9
g4
(lp10
I3500
aI2286
aI93
aI81
aI3867
aI5
aI31877
aI5
aI75
aI351
aI258
aI20882
aI3
aI6085
aI1524
aI4991
aI73
aI351
aI248
aI2382
aI24583
aI24
aI6095
aI4197
aI316
aI13336
aI75
aI11202
aI34
aI99
aI136
aI138
aI267
aI2439
aI63765
asg6
S'Article 199 "Blasphemy Concerning Religions" states: One who publicly and maliciously and by any means blasphemes the Greek Orthodox Church or any other religion tolerable in Greece shall be punished by imprisonment for not more than two years  .'
p11
ss.