(dp1
S'input'
p2
(dp3
S'encoded'
p4
(lp5
I64
aI2179
aI13605
aI2258
aI45
aI2194
asS'ori'
p6
S'This house prefers trade to aid'
p7
ssS'output'
p8
(dp9
g4
(lp10
I24
aI725
aI3052
aI64
aI122
aI575
aI41
aI3
aI870
aI1185
aI1025
aI34
aI1260
aI2258
aI63765
asg6
S'In many cases this was given as the least important reason for free trade .'
p11
ss.