(dp1
S'input'
p2
(dp3
S'encoded'
p4
(lp5
I64
aI2179
aI394
aI2017
aI628
asS'ori'
p6
S'This house would ban gambling'
p7
ssS'output'
p8
(dp9
g4
(lp10
I351
aI399
aI7
aI628
aI116
aI1820
aI45
aI7196
asg6
S'any form of gambling  is susceptible to fraud'
p11
ss.