(dp1
S'input'
p2
(dp3
S'encoded'
p4
(lp5
I64
aI2179
aI394
aI5370
aI223
aI4013
aI10440
aI2446
aI4881
aI75
aI14482
aI11004
asS'ori'
p6
S'This house would abolish all collective bargaining rights claimed by trades unions'
p7
ssS'output'
p8
(dp9
g4
(lp10
I3
aI4642
aI7
aI40
aI64
aI122
aI45
aI316
aI1607
aI1191
aI5
aI5267
aI113
aI3
aI6
aI45
aI92
aI159
aI7208
aI382
aI713
aI24
aI51
aI2409
aI2131
aI122
aI1483
aI5194
aI19
aI93
aI2131
aI45
aI97
aI41
aI261
aI41
aI19
aI93
aI2696
aI45
aI97
aI5
aI19
aI93
aI413
aI45
aI97
aI63765
asg6
S'The conception of how this was to be brought about  and indeed even the extent to which such ideas were present in an industrial union  was quite variable from one union to another  as well as from one country to another  and from one time to another .'
p11
ss.