(dp1
S'input'
p2
(dp3
S'encoded'
p4
(lp5
I64
aI2179
aI43
aI8629
aI116
aI3
aI117
aI998
asS'ori'
p6
S'This house believes atheism is the only way'
p7
ssS'output'
p8
(dp9
g4
(lp10
I24
aI25
aI26
aI4772
aI45
aI89
aI5711
aI2548
aI1115
aI3366
aI24
aI68
aI116
aI89
aI2497
aI63
aI417
aI99
aI113
aI4532
aI63765
aI443
aI93
aI1978
aI1227
aI45
aI3114
aI1020
aI41
aI89
aI73
aI89
aI357
aI1453
aI99
aI11
aI4199
aI34
aI78
aI81
aI13787
aI63
aI18546
aI116
aI637
aI3826
aI73
aI63
aI16761
aI11
aI18547
aI3
aI2077
aI117
aI45
aI18548
aI18549
aI5
aI271
aI6755
aI63765
aI8629
aI116
aI3819
aI136
aI138
aI3
aI18550
aI4509
aI78
aI163
aI24
aI3
aI5556
aI7
aI4952
aI2767
aI4859
asg6
S'In his book Letter to a Christian Nation  Sam Harris wrote: In fact  "atheism" is a term that should not even exist . No one ever needs to identify himself as a "non-astrologer" or a "non-alchemist ." We do not have words for people who doubt that Elvis is still alive or that aliens have traversed the galaxy only to molest ranchers and their cattle . Atheism is nothing more than the noises reasonable people make in the presence of unjustified religious beliefs '
p11
ss.