(dp1
S'input'
p2
(dp3
S'encoded'
p4
(lp5
I64
aI2179
aI43
aI63
aI7382
aI116
aI400
aI4713
asS'ori'
p6
S'This house believes that bribery is sometimes acceptable'
p7
ssS'output'
p8
(dp9
g4
(lp10
I260
aI16282
aI1587
aI45
aI709
aI2190
aI5076
aI63765
aI4422
aI16282
aI2998
aI29465
aI5
aI31866
aI63765
asg6
S'Government licenses needed to conduct business  e .g .  import licenses  encourage bribing and kickbacks .'
p11
ss.