(dp1
S'input'
p2
(dp3
S'encoded'
p4
(lp5
I64
aI2179
aI43
aI63
aI3
aI4990
aI4991
aI116
aI4850
aI24
aI12166
aI3
aI475
aI7
aI3532
aI3290
aI7
aI4714
asS'ori'
p6
S'This house believes that the Catholic Church is justified in forbidding the use of barrier methods of contraception'
p7
ssS'output'
p8
(dp9
g4
(lp10
I3313
aI2200
aI3
aI2083
aI6423
aI45
aI1499
aI89
aI2083
aI10428
aI24
aI8320
aI604
aI3
aI11015
aI60
aI3
aI25917
aI25918
aI440
aI7266
aI134
aI63765
asg6
S'She asked the local priest to build a local chapel in Lourdes because the Lady with the Rosary beads had requested it .'
p11
ss.