(dp1
S'input'
p2
(dp3
S'encoded'
p4
(lp5
I64
aI2179
aI43
aI63
aI6670
aI546
aI417
aI316
aI89
aI1334
aI3108
aI7
aI4849
aI1886
aI2855
asS'ori'
p6
S'This house believes that wind power should be a primary focus of future energy supply'
p7
ssS'output'
p8
(dp9
g4
(lp10
I24
aI492
aI89
aI6778
aI5018
aI2999
aI411
aI24243
aI11980
aI6670
aI546
aI16809
aI63
aI9841
aI24
aI89
aI102
aI11704
aI24
aI63765
asg6
S'In July 1887  a Scottish academic  Professor James Blyth  undertook wind power experiments that culminated in a UK patent in 1891  .'
p11
ss.