(dp1
S'input'
p2
(dp3
S'encoded'
p4
(lp5
I64
aI2179
aI43
aI63
aI134
aI116
aI400
aI21
aI34
aI3
aI260
aI45
aI3439
aI57
aI7
aI2381
asS'ori'
p6
S'This house believes that it is sometimes right for the government to restrict freedom of speech'
p7
ssS'output'
p8
(dp9
g4
(lp10
I14
aI2959
aI742
aI134
aI500
aI99
aI154
aI3
aI2136
aI14
aI32939
aI32940
aI843
aI73
aI508
aI2761
aI89
aI1701
aI45
aI3
aI7276
aI24
aI271
aI2997
aI45
aI32941
aI3
aI2136
aI63765
asg6
S'07-582  on April 28  2009  said it did not find the FCC\'s policy on so-called fleeting expletives either "arbitrary or capricious"  thus dealing a blow to the networks in their efforts to scuttle the policy .'
p11
ss.