(dp1
S'input'
p2
(dp3
S'encoded'
p4
(lp5
I64
aI2179
aI394
aI2773
aI12505
asS'ori'
p6
S'This house would embrace multiculturalism'
p7
ssS'output'
p8
(dp9
g4
(lp10
I3358
aI1097
aI2538
aI3
aI2223
aI221
aI3150
aI34
aI3
aI3920
aI41
aI155
aI6196
aI2157
aI5
aI22
aI546
aI63765
asg6
S'" Arthur Ray says the war made "matters worse for the native people" as they lost military and political power  .'
p11
ss.