(dp1
S'input'
p2
(dp3
S'encoded'
p4
(lp5
I64
aI2179
aI43
aI63
aI3376
aI4938
aI417
aI316
aI3537
asS'ori'
p6
S'This house believes that endangered species should be protected'
p7
ssS'output'
p8
(dp9
g4
(lp10
I155
aI79
aI60
aI2203
aI589
aI3
aI285
aI45
aI454
aI7910
aI5172
aI2938
aI7886
aI28311
aI5
aI29575
aI63765
asg6
S'They work with countries around the world to protect forests  river systems  oceans  deserts and grasslands .'
p11
ss.