(dp1
S'input'
p2
(dp3
S'encoded'
p4
(lp5
I64
aI2179
aI394
aI16756
aI20435
asS'ori'
p6
S'This house would criminalize blasphemy'
p7
ssS'output'
p8
(dp9
g4
(lp10
I3
aI2180
aI440
aI1729
aI3
aI33
aI7
aI24543
aI41351
aI61526
aI564
aI16412
aI14
aI3
aI481
aI481
aI342
aI45766
aI3
aI10055
aI849
aI725
aI20058
aI63765
asg6
S'The Committee had discussed the case of comedian Tommy Tiernan  whose stand-up routine on The Late Late Show parodied the Gospels  offending many viewers  .'
p11
ss.