(dp1
S'input'
p2
(dp3
S'encoded'
p4
(lp5
I64
aI2179
aI394
aI2017
aI262
asS'ori'
p6
S'This house would ban boxing'
p7
ssS'output'
p8
(dp9
g4
(lp10
I262
aI893
aI400
aI475
aI132
aI894
aI883
aI747
aI24
aI895
aI405
aI362
aI34
aI896
aI792
aI117
aI63765
asg6
S'Boxing historians sometimes use these unofficial newspaper decisions in compiling fight records for illustrative purposes only .'
p11
ss.