(dp1
S'input'
p2
(dp3
S'encoded'
p4
(lp5
I64
aI2179
aI394
aI1499
aI3
aI8115
aI34564
aI17106
asS'ori'
p6
S'This house would build the Keystone XL pipeline'
p7
ssS'output'
p8
(dp9
g4
(lp10
I3
aI285
aI1886
aI2132
aI3012
aI35
aI19268
aI41
aI206
aI89
aI23233
aI595
aI138
aI459
aI5161
aI3020
aI5
aI51
aI51652
aI13249
aI7
aI149
aI138
aI63765
asg6
S'The World Energy Council (WEC) defines natural bitumen as "oil having a viscosity greater than 10 000&nbsp;centipoises under reservoir conditions and an API gravity of less than 10 API"  .'
p11
ss.