(dp1
S'input'
p2
(dp3
S'encoded'
p4
(lp5
I64
aI2179
aI394
aI117
aI7428
aI21151
aI34
aI11389
aI2042
aI24
aI4364
asS'ori'
p6
S'This house would only teach abstinence for sex education in schools'
p7
ssS'output'
p8
(dp9
g4
(lp10
I3
aI55924
aI3518
aI418
aI63
aI2041
aI736
aI3
aI4658
aI7
aI3
aI4678
aI9069
aI2441
aI24
aI1708
aI404
aI7
aI3
aI4658
aI7
aI2495
aI2083
aI2136
aI73
aI6685
aI637
aI155
aI3041
aI3
aI4678
aI1069
aI271
aI1409
aI2598
aI5
aI124
aI6460
aI6794
aI620
aI1796
aI19247
aI5
aI934
aI3020
aI34
aI55925
asg6
S'The EMCDDA review noted that research into the effects of the facilities "faces methodological challenges in taking account of the effects of broader local policy or ecological changes"  still they concluded "that the facilities reach their target population and provide immediate improvements through better hygiene and safety conditions for injectors ."'
p11
ss.