(dp1
S'input'
p2
(dp3
S'encoded'
p4
(lp5
I64
aI2179
aI394
aI5370
aI7146
aI4585
aI2446
asS'ori'
p6
S'This house would abolish intellectual property rights'
p7
ssS'output'
p8
(dp9
g4
(lp10
I3135
aI9991
aI182
aI246
aI1653
aI311
aI2034
aI29200
aI364
aI131
aI182
aI2056
aI1604
aI136
aI13314
aI41
aI12717
aI23358
aI159
aI41
aI3
aI29201
aI182
aI2601
aI8069
aI3
aI14174
aI2571
aI3900
aI7147
aI11674
aI63765
asg6
S'Criminal sanctions are generally aimed at serious counterfeiting activity  but are now becoming more commonplace as copyright collectives such as the RIAA are increasingly targeting the file sharing home Internet user .'
p11
ss.