(dp1
S'input'
p2
(dp3
S'encoded'
p4
(lp5
I64
aI2179
aI43
aI63
aI3376
aI4938
aI417
aI316
aI3537
asS'ori'
p6
S'This house believes that endangered species should be protected'
p7
ssS'output'
p8
(dp9
g4
(lp10
I3
aI696
aI7
aI4938
aI2686
aI24
aI159
aI27921
aI116
aI24
aI3
aI5805
aI7
aI5806
aI114
aI3
aI2471
aI1453
aI99
aI2214
aI2228
aI63765
asg6
S'The number of species involved in such pursuits is in the tens of thousands  though the majority do not enter commerce .'
p11
ss.