(dp1
S'input'
p2
(dp3
S'encoded'
p4
(lp5
I64
aI2179
aI43
aI17
aI4941
aI857
aI3211
asS'ori'
p6
S'This house believes social deprivation causes crime'
p7
ssS'output'
p8
(dp9
g4
(lp10
I3406
aI17656
aI2586
aI45
aI11925
aI397
aI3
aI4681
aI681
aI19
aI3
aI22645
aI5
aI3
aI12080
aI3300
aI63765
asg6
S'Additionally  feminism began to emerge during the progressive era from the revolutions  and the abolitionist movements .'
p11
ss.