(dp1
S'input'
p2
(dp3
S'encoded'
p4
(lp5
I64
aI2179
aI43
aI24
aI3
aI475
aI7
aI12436
aI3364
asS'ori'
p6
S'This house believes in the use of affirmative action'
p7
ssS'output'
p8
(dp9
g4
(lp10
I155
aI4363
aI131
aI2554
aI34
aI3386
aI2625
aI63765
asg6
S'They mandated "separate but equal" status for black Americans .'
p11
ss.