(dp1
S'input'
p2
(dp3
S'encoded'
p4
(lp5
I64
aI2179
aI43
aI63
aI3
aI21
aI45
aI12715
aI417
aI99
aI316
aI2897
asS'ori'
p6
S'This house believes that the right to asylum should not be absolute'
p7
ssS'output'
p8
(dp9
g4
(lp10
I24
aI421
aI45
aI1160
aI7
aI2610
aI70
aI3353
aI3
aI1718
aI34
aI89
aI4849
aI1968
aI2610
aI16631
aI5
aI314
aI21
aI4223
aI34
aI4849
aI3862
aI182
aI4229
aI14395
aI45
aI3
aI752
aI7
aI89
aI2007
aI45
aI4272
aI18477
aI5
aI45
aI2455
aI24
aI89
aI2696
aI41
aI51
aI1968
aI15871
aI63765
asg6
S'In addition to lack of immigration law enforcement the potential for a future illegal immigration amnesty and birth right citizenship for future children are significant contributors to the decision of a person to illegally immigrate and to remain in a country as an illegal immigrant .'
p11
ss.