(dp1
S'input'
p2
(dp3
S'encoded'
p4
(lp5
I64
aI2179
aI43
aI63
aI3
aI4990
aI4991
aI116
aI4850
aI24
aI12166
aI3
aI475
aI7
aI3532
aI3290
aI7
aI4714
asS'ori'
p6
S'This house believes that the Catholic Church is justified in forbidding the use of barrier methods of contraception'
p7
ssS'output'
p8
(dp9
g4
(lp10
I34
aI7687
aI5480
aI123
aI116
aI1228
aI5
aI3819
aI116
aI45
aI316
aI2493
aI257
aI134
aI116
aI2933
aI60
aI21175
aI63765
asg6
S'For everything God created is good  and nothing is to be rejected if it is received with thanksgiving .'
p11
ss.