(dp1
S'input'
p2
(dp3
S'encoded'
p4
(lp5
I64
aI2179
aI394
aI2773
aI12505
asS'ori'
p6
S'This house would embrace multiculturalism'
p7
ssS'output'
p8
(dp9
g4
(lp10
I3
aI217
aI5
aI78
aI182
aI19744
aI24
aI223
aI194
aI19
aI3
aI7985
aI5
aI4372
aI45
aI5938
aI5
aI7129
aI63765
asg6
S'The most "competent" and "successful" people are innovators in all things from the arts and sciences to industry and engineering .'
p11
ss.