(dp1
S'input'
p2
(dp3
S'encoded'
p4
(lp5
I64
aI2179
aI43
aI63
aI2659
aI417
aI1690
aI3
aI12048
aI7
aI19084
asS'ori'
p6
S'This house believes that Israel should lift the blockade of Gaza'
p7
ssS'output'
p8
(dp9
g4
(lp10
I97
aI782
aI55
aI12
aI1106
aI7
aI1043
aI4562
aI5
aI959
aI1687
aI14
aI17225
aI5
aI4307
aI24
aI1237
aI2203
aI63765
asg6
S'Another effect has been instances of mental abuse and physical attacks on Israelis and Jews in several countries .'
p11
ss.