(dp1
S'input'
p2
(dp3
S'encoded'
p4
(lp5
I64
aI2179
aI394
aI4325
aI2042
aI270
aI89
aI11605
aI3324
asS'ori'
p6
S'This house would fund education using a voucher scheme'
p7
ssS'output'
p8
(dp9
g4
(lp10
I42
aI55
aI742
aI7
aI3
aI437
aI2937
aI2042
aI4350
aI4262
aI1024
aI2784
aI12615
aI14
aI3
aI2715
aI7712
aI972
aI24
aI2231
aI45
aI3204
aI3
aI2042
aI7
aI3862
aI19
aI3
aI19752
aI7
aI3
aI1560
aI78
aI63765
asg6
S'He has said of the latter proposal  "The Education Improvement Tax Cut Act relies on the greatest charitable force in history to improve the education of children from low-income families: the generosity of the American people .'
p11
ss.