(dp1
S'input'
p2
(dp3
S'encoded'
p4
(lp5
I64
aI2179
aI43
aI223
aI2138
aI11
aI89
aI21
aI45
aI2185
aI372
asS'ori'
p6
S'This house believes all nations have a right to nuclear weapons'
p7
ssS'output'
p8
(dp9
g4
(lp10
I2185
aI7497
aI1862
aI116
aI89
aI1629
aI7
aI189
aI63
aI250
aI60
aI5377
aI73
aI332
aI89
aI2185
aI2223
aI63765
asg6
S'Nuclear warfare strategy is a set of policies that deal with preventing or fighting a nuclear war .'
p11
ss.