(dp1
S'input'
p2
(dp3
S'encoded'
p4
(lp5
I64
aI2179
aI394
aI2773
aI12505
asS'ori'
p6
S'This house would embrace multiculturalism'
p7
ssS'output'
p8
(dp9
g4
(lp10
I53613
aI194
aI5
aI1197
aI159
aI41
aI3
aI8442
aI8366
aI73
aI3
aI8445
aI7
aI3
aI8395
aI24
aI8434
aI182
aI99
aI3471
aI63765
asg6
S'Idolic things and places  such as the Temple Mount or the Dome of the Rock in Jerusalem are not arbitrary .'
p11
ss.