(dp1
S'input'
p2
(dp3
S'encoded'
p4
(lp5
I64
aI2179
aI394
aI2998
aI3
aI4360
aI7
aI3249
aI6804
aI24
aI3
aI102
asS'ori'
p6
S'This house would encourage the creation of private universities in the UK'
p7
ssS'output'
p8
(dp9
g4
(lp10
I134
aI174
aI353
aI63
aI89
aI177
aI4442
aI7
aI4358
aI81
aI3363
aI13052
aI24
aI4758
aI497
aI177
aI4364
aI63
aI440
aI89
aI177
aI126
aI7
aI7600
aI24
aI3
aI1260
aI5
aI1016
aI23103
aI2326
aI63765
asg6
S'It also found that a high percentage of students who delayed enrollment in college attended high schools that had a high level of participation in the free and reduced lunch program .'
p11
ss.