(dp1
S'input'
p2
(dp3
S'encoded'
p4
(lp5
I64
aI2179
aI394
aI163
aI959
aI2042
aI3557
asS'ori'
p6
S'This house would make physical education compulsory'
p7
ssS'output'
p8
(dp9
g4
(lp10
I14954
aI116
aI246
aI297
aI311
aI3
aI734
aI7
aI2497
aI75
aI3
aI6459
aI24
aI3168
aI233
aI45
aI3485
aI63765
asg6
S'Placement is generally decided at the beginning of term by the Principal  in theory according to age .'
p11
ss.