(dp1
S'input'
p2
(dp3
S'encoded'
p4
(lp5
I64
aI2179
aI394
aI1499
aI3
aI8115
aI34564
aI17106
asS'ori'
p6
S'This house would build the Keystone XL pipeline'
p7
ssS'output'
p8
(dp9
g4
(lp10
I3
aI4666
aI1160
aI7
aI2588
aI4341
aI60
aI2705
aI2955
aI5084
aI13252
aI55
aI3288
aI1237
aI2849
aI27562
aI6228
aI45
aI4601
aI42305
aI63765
asg6
S'The expected lack of volume combined with extensive construction cost overruns has prompted several petroleum refining companies to sue TransCanada .'
p11
ss.