(dp1
S'input'
p2
(dp3
S'encoded'
p4
(lp5
I64
aI2179
aI394
aI2998
aI3
aI4360
aI7
aI3249
aI6804
aI24
aI3
aI102
asS'ori'
p6
S'This house would encourage the creation of private universities in the UK'
p7
ssS'output'
p8
(dp9
g4
(lp10
I14029
aI122
aI237
aI2273
aI14027
aI2058
aI5427
aI24
aI492
aI5
aI4384
aI311
aI51
aI4506
aI24
aI14048
aI2318
aI407
aI63765
asg6
S'NCH was first named Grayling Hall  incorporated in July 2010 and registered at an address in Peckham  south London .'
p11
ss.