(dp1
S'input'
p2
(dp3
S'encoded'
p4
(lp5
I64
aI2179
aI13605
aI2258
aI45
aI2194
asS'ori'
p6
S'This house prefers trade to aid'
p7
ssS'output'
p8
(dp9
g4
(lp10
I93
aI281
aI143
aI493
aI3452
aI3251
aI2135
aI2194
aI116
aI63
aI3
aI137
aI116
aI153
aI6196
aI45
aI3664
aI7170
aI24
aI3
aI2138
aI134
aI122
aI2966
aI45
aI3709
aI63765
asg6
S'One major argument against federally funded foreign aid is that the money is often lost to governmental corruption in the nations it was supposed to help .'
p11
ss.