(dp1
S'input'
p2
(dp3
S'encoded'
p4
(lp5
I64
aI2179
aI43
aI8629
aI116
aI3
aI117
aI998
asS'ori'
p6
S'This house believes atheism is the only way'
p7
ssS'output'
p8
(dp9
g4
(lp10
I18627
aI73
aI16844
aI8629
aI5577
aI3
aI3524
aI7
aI6427
aI24
aI1561
aI7
aI89
aI159
aI41
aI7275
aI63765
aI64
aI399
aI7
aI8629
aI4847
aI7275
aI41
aI3
aI2897
aI2878
aI7
aI4706
aI5
aI3527
aI5
aI1256
aI147
aI45
aI14387
aI3292
aI251
aI252
aI14558
aI45
aI5480
aI63765
aI17584
aI5
aI18620
aI416
aI64
aI143
aI45
aI7107
aI10491
aI7
aI5667
aI5
aI6276
aI13181
asg6
S'Axiological  or constructive  atheism rejects the existence of gods in favor of a "higher absolute"  such as humanity . This form of atheism favors humanity as the absolute source of ethics and values  and permits individuals to resolve moral problems without resorting to God . Marx and Freud used this argument to convey messages of liberation  full-development  and unfettered happiness '
p11
ss.