(dp1
S'input'
p2
(dp3
S'encoded'
p4
(lp5
I64
aI2179
aI43
aI63
aI3
aI4990
aI4991
aI116
aI4850
aI24
aI12166
aI3
aI475
aI7
aI3532
aI3290
aI7
aI4714
asS'ori'
p6
S'This house believes that the Catholic Church is justified in forbidding the use of barrier methods of contraception'
p7
ssS'output'
p8
(dp9
g4
(lp10
I273
aI382
aI637
aI89
aI1896
aI10
aI2511
aI493
aI8866
aI5
aI8991
aI13778
aI5
aI5583
aI7332
aI41
aI314
aI708
aI5254
aI485
aI1968
aI24
aI289
aI6321
aI187
aI63765
asg6
S'There were still a few state laws against buying and selling contraceptives  and advertising condoms as birth control devices remained illegal in over thirty states  .'
p11
ss.