(dp1
S'input'
p2
(dp3
S'encoded'
p4
(lp5
I64
aI2179
aI43
aI17
aI4941
aI857
aI3211
asS'ori'
p6
S'This house believes social deprivation causes crime'
p7
ssS'output'
p8
(dp9
g4
(lp10
I41
aI134
aI116
aI3
aI2240
aI1721
aI45
aI5114
aI14
aI3
aI59042
aI7
aI3292
aI14568
aI92
aI182
aI788
aI45
aI316
aI3
aI1059
aI213
aI45
aI3
aI3661
aI7
aI3211
aI63765
asg6
S'As it is  the School seems to depend on the inculcation of moral imperatives which are taken to be self-evidently the best solution to the problem of crime .'
p11
ss.