(dp1
S'input'
p2
(dp3
S'encoded'
p4
(lp5
I64
aI2179
aI43
aI63
aI3
aI4538
aI7
aI4434
aI7793
aI283
aI45
aI3586
aI417
aI316
aI577
asS'ori'
p6
S'This house believes that the sale of violent video games to minors should be banned'
p7
ssS'output'
p8
(dp9
g4
(lp10
I3313
aI4439
aI63
aI24
aI51
aI5938
aI4293
aI2035
aI7147
aI475
aI221
aI3874
aI2789
aI7743
aI5
aI17634
aI5
aI2909
aI1472
aI3
aI5933
aI7
aI271
aI17
aI7276
aI10845
aI4047
aI63765
aI63765
asg6
S'She describes that in an industry sponsored study  internet use made family members isolated and depressed  and actually decreased the size of their social networks (Kraut et al .  1998) .'
p11
ss.