(dp1
S'input'
p2
(dp3
S'encoded'
p4
(lp5
I64
aI2179
aI394
aI2976
aI12243
aI24
aI954
aI126
aI1560
aI10723
asS'ori'
p6
S'This house would implement playoffs in collegiate level American football'
p7
ssS'output'
p8
(dp9
g4
(lp10
I2980
aI97
aI34971
aI11276
aI122
aI1950
aI24
aI3
aI3713
aI5
aI2933
aI292
aI5561
aI63765
asg6
S'Georgia  another SEC team  was second in the poll and received three first-place votes .'
p11
ss.