(dp1
S'input'
p2
(dp3
S'encoded'
p4
(lp5
I64
aI2179
aI394
aI2017
aI223
aI9058
aI23653
asS'ori'
p6
S'This house would ban all unsustainable logging'
p7
ssS'output'
p8
(dp9
g4
(lp10
I6798
aI3
aI2186
aI7
aI10199
aI20987
aI47
aI316
aI946
aI1112
aI34
aI3124
aI92
aI923
aI55
aI725
aI3941
aI63
aI1619
aI5092
aI15896
aI34
aI271
aI14162
aI3290
aI63765
asg6
S'Improving the technology of cook stoves will be especially effective for Nigeria which currently has many households that require fuel wood for their cooking methods .'
p11
ss.