(dp1
S'input'
p2
(dp3
S'encoded'
p4
(lp5
I64
aI2179
aI394
aI9385
aI2497
aI447
aI14
aI3
aI3578
aI5721
aI7
aI260
asS'ori'
p6
S'This house would enforce term limits on the legislative branch of government'
p7
ssS'output'
p8
(dp9
g4
(lp10
I3
aI433
aI7
aI4400
aI122
aI6117
aI913
aI45
aI5833
aI292
aI1809
aI131
aI223
aI2497
aI190
aI2511
aI382
aI395
aI9975
aI75
aI3
aI5508
aI63765
asg6
S'The Governor of Utah was formerly limited to serving three terms  but all term limit laws were later repealed by the legislature .'
p11
ss.