(dp1
S'input'
p2
(dp3
S'encoded'
p4
(lp5
I64
aI2179
aI43
aI63
aI3
aI4990
aI4991
aI116
aI4850
aI24
aI12166
aI3
aI475
aI7
aI3532
aI3290
aI7
aI4714
asS'ori'
p6
S'This house believes that the Catholic Church is justified in forbidding the use of barrier methods of contraception'
p7
ssS'output'
p8
(dp9
g4
(lp10
I64
aI13751
aI116
aI24
aI3
aI3777
aI7
aI3
aI3698
aI7
aI3
aI35270
aI298
aI42
aI29780
aI6603
aI11003
aI45
aI45
aI93
aI97
aI864
aI7
aI6536
aI34
aI63765
asg6
S'This gift is in the mind of the author of the Ephesians when he exhorts married couples to "defer to one another out of reverence for Christ" (Eph 5:21) .'
p11
ss.