(dp1
S'input'
p2
(dp3
S'encoded'
p4
(lp5
I64
aI2179
aI43
aI63
aI6670
aI546
aI417
aI316
aI89
aI1334
aI3108
aI7
aI4849
aI1886
aI2855
asS'ori'
p6
S'This house believes that wind power should be a primary focus of future energy supply'
p7
ssS'output'
p8
(dp9
g4
(lp10
I29532
aI6715
aI182
aI89
aI6844
aI1886
aI5
aI139
aI316
aI6806
aI24
aI1809
aI7
aI17153
aI2880
aI6694
aI691
aI155
aI182
aI24
aI3
aI6695
aI1351
aI34
aI3
aI1235
aI2497
aI63765
asg6
S'Bio fuels are a renewable energy and can be sustainable (carbon neutral) in terms of greenhouse gas emissions since they are in the carbon cycle for the short term .'
p11
ss.