(dp1
S'input'
p2
(dp3
S'encoded'
p4
(lp5
I64
aI2179
aI394
aI2773
aI12505
asS'ori'
p6
S'This house would embrace multiculturalism'
p7
ssS'output'
p8
(dp9
g4
(lp10
I14360
aI17836
aI7
aI3
aI4116
aI2812
aI5232
aI637
aI1967
aI131
aI160
aI24
aI6124
aI116
aI3207
aI75
aI3
aI2812
aI12997
aI2136
aI63765
asg6
S'Presently (2010)  remnants of the colonial ethnic concentration still exists but housing in Singapore is governed by the Ethnic Integration Policy  .'
p11
ss.