(dp1
S'input'
p2
(dp3
S'encoded'
p4
(lp5
I64
aI2179
aI43
aI63
aI188
aI220
aI417
aI1619
aI4275
aI45
aI713
aI14799
aI7533
aI311
aI3
aI3721
aI5145
asS'ori'
p6
S'This house believes that democratic governments should require voters to present photo identification at the polling station'
p7
ssS'output'
p8
(dp9
g4
(lp10
I134
aI116
aI5722
aI19
aI22
aI6780
aI24
aI63
aI6780
aI44
aI45
aI1546
aI1856
aI5334
aI8935
aI75
aI5373
aI3
aI3348
aI7
aI1718
aI4275
aI620
aI52108
aI5
aI2134
aI63765
asg6
S'It is distinguished from political campaigning in that campaigning attempts to change likely voting behavior by changing the opinions of potential voters through persuasion and organization .'
p11
ss.