(dp1
S'input'
p2
(dp3
S'encoded'
p4
(lp5
I64
aI2179
aI43
aI63
aI6670
aI546
aI417
aI316
aI89
aI1334
aI3108
aI7
aI4849
aI1886
aI2855
asS'ori'
p6
S'This house believes that wind power should be a primary focus of future energy supply'
p7
ssS'output'
p8
(dp9
g4
(lp10
I384
aI1486
aI7
aI6670
aI5105
aI5134
aI14476
aI12481
aI397
aI6241
aI5121
aI6007
aI87
aI2705
aI17540
aI7
aI3
aI5324
aI24269
aI4935
aI7
aI89
aI667
aI6670
aI6677
aI116
aI534
aI75
aI6241
aI145
aI16416
aI45
aI975
aI1176
aI1163
aI10670
aI397
aI145
aI22401
aI982
aI15143
aI12486
aI63765
asg6
S'Different types of wind turbine generators behave differently during transmission grid disturbances  so extensive modelling of the dynamic electromechanical characteristics of a new wind farm is required by transmission system operators to ensure predictable stable behaviour during system faults (see: Low voltage ride through) .'
p11
ss.