(dp1
S'input'
p2
(dp3
S'encoded'
p4
(lp5
I64
aI2179
aI394
aI1499
aI177
aI1819
aI34
aI160
asS'ori'
p6
S'This house would build high rises for housing'
p7
ssS'output'
p8
(dp9
g4
(lp10
I289
aI3
aI12975
aI2439
aI132
aI3811
aI382
aI1510
aI2834
aI60
aI3
aI36011
aI5973
aI7950
aI75
aI5
aI582
aI20976
aI35858
aI4386
aI18116
aI63765
asg6
S'Over the succeeding years  these targets were substantially exceeded  with the brownfield proportion reaching 80% by 2009  and average densities 43 dwellings per hectare  .'
p11
ss.