(dp1
S'input'
p2
(dp3
S'encoded'
p4
(lp5
I64
aI2179
aI43
aI24
aI3
aI475
aI7
aI12436
aI3364
asS'ori'
p6
S'This house believes in the use of affirmative action'
p7
ssS'output'
p8
(dp9
g4
(lp10
I3
aI5052
aI2233
aI3936
aI84
aI588
aI7
aI3
aI658
aI7935
aI6194
aI3
aI5052
aI2236
aI3936
aI84
aI588
aI7
aI3
aI658
aI7935
aI6194
aI3
aI5052
aI3501
aI3936
aI84
aI588
aI7
aI3
aI658
aI7935
aI6194
aI5
aI3
aI5052
aI6285
aI3936
aI84
aI588
aI7
aI3
aI658
aI7935
aI6194
aI63765
asg6
S'The Class I employees take up 2 .2% of the public sector workforce  the Class II employees take up 3 .3% of the public sector workforce the Class III employees take up 66 .8% of the public sector workforce  and the Class IV employees take up 27 .2% of the public sector workforce  .'
p11
ss.