(dp1
S'input'
p2
(dp3
S'encoded'
p4
(lp5
I64
aI2179
aI235
aI3
aI2136
aI7
aI3
aI2306
aI7
aI2390
asS'ori'
p6
S'This house supports the one-child policy of the republic of China'
p7
ssS'output'
p8
(dp9
g4
(lp10
I24
aI3
aI39660
aI42
aI2200
aI5407
aI45
aI1706
aI2445
aI7798
aI75
aI99
aI48656
aI63765
asg6
S'In the newsletter  he asked readers to further human extinction by not procreating  .'
p11
ss.