(dp1
S'input'
p2
(dp3
S'encoded'
p4
(lp5
I64
aI2179
aI394
aI5370
aI3
aI5286
asS'ori'
p6
S'This house would abolish the monarchy'
p7
ssS'output'
p8
(dp9
g4
(lp10
I42
aI55
aI2757
aI51
aI2147
aI2210
aI24
aI574
aI4134
aI153
aI6407
aI41
aI25819
aI291
aI24767
aI22
aI833
aI63765
asg6
S'He has played an influential role in each incident  often acting as mediator between disputing political opponents .'
p11
ss.