(dp1
S'input'
p2
(dp3
S'encoded'
p4
(lp5
I64
aI2179
aI394
aI16756
aI20435
asS'ori'
p6
S'This house would criminalize blasphemy'
p7
ssS'output'
p8
(dp9
g4
(lp10
I24
aI1906
aI89
aI22756
aI63
aI122
aI8060
aI45
aI3862
aI5844
aI2439
aI2449
aI61639
aI45
aI36093
aI36094
aI2618
aI63
aI57516
aI4035
aI61639
aI5
aI6286
aI30941
aI36093
aI36094
aI182
aI717
aI111
aI63765
asg6
S'In November 2008  a pamphlet that was distributed to children aged 1012 years compared Fitna to Mein Kampf  stating that "Geert Wilders film Fitna and Adolf Hitlers Mein Kampf are based upon one-sided points-of-view .'
p11
ss.