(dp1
S'input'
p2
(dp3
S'encoded'
p4
(lp5
I64
aI2179
aI43
aI63
aI3
aI4991
aI7
aI180
aI417
aI316
aI5396
aI19
aI3
aI169
aI10
asS'ori'
p6
S'This house believes that the Church of England should be separated from the British state'
p7
ssS'output'
p8
(dp9
g4
(lp10
I24
aI1565
aI26355
aI134
aI55
aI12
aI1966
aI63
aI26350
aI116
aI89
aI910
aI2368
aI2709
aI5
aI1931
aI19
aI3492
aI2767
aI3527
aI1047
aI41
aI63765
asg6
S'In European laicism  it has been argued that secularism is a movement toward modernization  and away from traditional religious values (also known as secularization) .'
p11
ss.