(dp1
S'input'
p2
(dp3
S'encoded'
p4
(lp5
I64
aI2179
aI394
aI4325
aI2042
aI270
aI89
aI11605
aI3324
asS'ori'
p6
S'This house would fund education using a voucher scheme'
p7
ssS'output'
p8
(dp9
g4
(lp10
I3
aI2068
aI5
aI7875
aI3226
aI7
aI17099
aI5307
aI55
aI123
aI97
aI281
aI5085
aI24
aI5207
aI4925
aI63765
asg6
S'The recent and drastic increase of Latino immigrants has created another major factor in educational inequality .'
p11
ss.