(dp1
S'input'
p2
(dp3
S'encoded'
p4
(lp5
I64
aI2179
aI43
aI63
aI187
aI417
aI99
aI16642
aI3
aI6449
aI7
aI3935
asS'ori'
p6
S'This house believes that states should not subsidize the growing of tobacco'
p7
ssS'output'
p8
(dp9
g4
(lp10
I24
aI100
aI2203
aI60
aI2322
aI6329
aI2051
aI14
aI53
aI45
aI10873
aI5
aI5583
aI273
aI55
aI12
aI89
aI3623
aI620
aI14833
aI720
aI3136
aI691
aI3
aI63765
asg6
S'In some countries with increased taxes  restrictions on where to smoke and anti-smoking advertising there has been a reaction through smoking defense groups since the 1990s .'
p11
ss.