(dp1
S'input'
p2
(dp3
S'encoded'
p4
(lp5
I64
aI2179
aI394
aI5370
aI3
aI5286
asS'ori'
p6
S'This house would abolish the monarchy'
p7
ssS'output'
p8
(dp9
g4
(lp10
I5369
aI134
aI55
aI12
aI2032
aI45
aI5370
aI3
aI2864
aI7
aI3
aI5
aI3
aI5286
aI5
aI11
aI271
aI5371
aI2531
aI75
aI248
aI2477
aI3243
aI159
aI41
aI3
aI5280
aI63765
asg6
S'Alternatively it has been proposed to abolish the roles of the Governor-General and the monarchy and have their functions exercised by other constitutional officers such as the Speaker  .'
p11
ss.