(dp1
S'input'
p2
(dp3
S'encoded'
p4
(lp5
I64
aI2179
aI394
aI9385
aI2497
aI447
aI14
aI3
aI3578
aI5721
aI7
aI260
asS'ori'
p6
S'This house would enforce term limits on the legislative branch of government'
p7
ssS'output'
p8
(dp9
g4
(lp10
I725
aI7
aI3
aI12688
aI7
aI3
aI626
aI187
aI382
aI7482
aI24
aI3
aI4033
aI5
aI1483
aI7724
aI60
aI1600
aI24
aI5354
aI397
aI5614
aI63765
asg6
S'Many of the founders of the United States were educated in the classics  and quite familiar with rotation in office during antiquity .'
p11
ss.