(dp1
S'input'
p2
(dp3
S'encoded'
p4
(lp5
I64
aI2179
aI235
aI3
aI2136
aI7
aI3
aI2306
aI7
aI2390
asS'ori'
p6
S'This house supports the one-child policy of the republic of China'
p7
ssS'output'
p8
(dp9
g4
(lp10
I132
aI4741
aI8037
aI1706
aI63
aI2390
aI463
aI11
aI4666
aI89
aI634
aI1811
aI24
aI211
aI13874
aI2994
aI1640
aI19
aI634
aI16
aI2891
aI440
aI134
aI1537
aI45
aI3
aI3130
aI2136
asg6
S'These researchers note further that China could have expected a continued reduction in its fertility rate just from continued economic development  had it kept to the previous policy'
p11
ss.