(dp1
S'input'
p2
(dp3
S'encoded'
p4
(lp5
I64
aI2179
aI43
aI63
aI2157
aI2565
aI493
aI19084
aI382
aI4850
asS'ori'
p6
S"This house believes that Israel's 2008-2009 military operations against Gaza were justified"
p7
ssS'output'
p8
(dp9
g4
(lp10
I2164
aI29476
aI1076
aI29817
aI1405
aI2161
aI29818
aI29819
aI29820
aI5
aI2135
aI2161
aI6556
aI46427
aI29815
aI11
aI5523
aI3
aI6056
aI1687
aI24
aI19084
aI63
aI3178
aI289
aI78
asg6
S'President Asif Ali Zardari  Prime Minister Yousuf Raza Gilani and Foreign Minister Shah Mehmood Qureshi have condemned the Israeli attacks in Gaza that killed over 200 people'
p11
ss.