(dp1
S'input'
p2
(dp3
S'encoded'
p4
(lp5
I64
aI2179
aI43
aI63
aI6670
aI546
aI417
aI316
aI89
aI1334
aI3108
aI7
aI4849
aI1886
aI2855
asS'ori'
p6
S'This house believes that wind power should be a primary focus of future energy supply'
p7
ssS'output'
p8
(dp9
g4
(lp10
I47203
aI985
aI298
aI93
aI2605
aI19
aI1876
aI1347
aI45
aI982
aI1347
aI419
aI1612
aI850
aI3
aI2674
aI24
aI3
aI11040
aI45
aI3209
aI7521
aI86
aI24
aI3
aI3262
aI63765
asg6
S'Barotrauma occurs when one goes from normal pressure to low pressure very quickly causing the air in the lungs to expand  damaging them in the process .'
p11
ss.