(dp1
S'input'
p2
(dp3
S'encoded'
p4
(lp5
I64
aI2179
aI394
aI4325
aI2042
aI270
aI89
aI11605
aI3324
asS'ori'
p6
S'This house would fund education using a voucher scheme'
p7
ssS'output'
p8
(dp9
g4
(lp10
I3007
aI62
aI34
aI3
aI10000
aI7
aI3
aI2503
aI5148
aI6801
aI2904
aI92
aI116
aI13041
aI60
aI9597
aI18369
aI5
aI335
aI34
aI35
aI12119
aI63765
asg6
S'Paul calls for the elimination of the Federal Emergency Management Agency (FEMA)  which is tasked with coordinating preparedness and relief for natural disasters .'
p11
ss.