(dp1
S'input'
p2
(dp3
S'encoded'
p4
(lp5
I64
aI2179
aI43
aI17
aI4941
aI857
aI3211
asS'ori'
p6
S'This house believes social deprivation causes crime'
p7
ssS'output'
p8
(dp9
g4
(lp10
I226
aI273
aI116
aI207
aI5224
aI2230
aI3
aI6
aI7
aI25624
aI24
aI15429
aI3162
aI946
aI24
aI2760
aI2203
aI134
aI116
aI2845
aI63
aI7
aI15429
aI78
aI24
aI2203
aI11
aI1004
aI100
aI399
aI7
aI25624
aI311
aI3900
aI378
aI1478
aI78
aI182
aI153
aI10882
aI45
aI905
aI3052
aI7
aI25624
aI45
aI3874
aI2716
aI73
aI45
aI3
aI5462
aI63765
asg6
S'While there is little information regarding the extent of maltreatment in elderly populations  especially in developing countries  it is estimated that 4-6% of elderly people in high-income countries have experienced some form of maltreatment at home However  older people are often afraid to report cases of maltreatment to family  friends  or to the authorities .'
p11
ss.