(dp1
S'input'
p2
(dp3
S'encoded'
p4
(lp5
I64
aI2179
aI43
aI63
aI2659
aI417
aI1690
aI3
aI12048
aI7
aI19084
asS'ori'
p6
S'This house believes that Israel should lift the blockade of Gaza'
p7
ssS'output'
p8
(dp9
g4
(lp10
I100
aI382
aI19327
aI5
aI5175
aI45
aI10794
aI34
aI5101
aI63765
asg6
S'Some were handcuffed and forced to kneel for hours .'
p11
ss.