(dp1
S'input'
p2
(dp3
S'encoded'
p4
(lp5
I64
aI2179
aI394
aI190
aI3
aI21
aI45
aI3895
aI834
asS'ori'
p6
S'This house would limit the right to bear arms'
p7
ssS'output'
p8
(dp9
g4
(lp10
I134
aI122
aI871
aI24
aI5
aI373
aI1112
aI24
aI63765
asg6
S'It was passed in 1996  and became effective in 1997 .'
p11
ss.