(dp1
S'input'
p2
(dp3
S'encoded'
p4
(lp5
I64
aI2179
aI394
aI16642
aI1376
aI5269
asS'ori'
p6
S'This house would subsidize poor communities'
p7
ssS'output'
p8
(dp9
g4
(lp10
I24
aI7800
aI5
aI6362
aI51
aI191
aI116
aI351
aI5085
aI73
aI63
aI11472
aI73
aI14474
aI89
aI1341
aI2346
aI7
aI3364
aI73
aI14475
aI41
aI89
aI1025
aI34
aI1162
aI93
aI4662
aI45
aI3
aI3149
aI63765
asg6
S'In economics and sociology  an incentive is any factor (financial or non-financial) that enables or motivates a particular course of action  or counts as a reason for preferring one choice to the alternatives .'
p11
ss.