(dp1
S'input'
p2
(dp3
S'encoded'
p4
(lp5
I64
aI2179
aI394
aI60
aI23587
asS'ori'
p6
S'This house would re-engage with Myanmar'
p7
ssS'output'
p8
(dp9
g4
(lp10
I419
aI68
aI7
aI3
aI2702
aI2132
aI8070
aI3
aI845
aI7
aI3118
aI116
aI1185
aI604
aI134
aI3206
aI45
aI124
aI9620
aI34
aI282
aI96
aI34
aI46
aI24
aI3118
aI5
aI64
aI511
aI55
aI45
aI316
aI416
aI34
aI63
aI63765
asg6
S'"The very fact of the Security Council addressing the issue of Burma is important because it helps to provide momentum for international support for reform in Burma and this opportunity has to be used for that .'
p11
ss.