(dp1
S'input'
p2
(dp3
S'encoded'
p4
(lp5
I64
aI2179
aI394
aI5284
aI150
aI3987
asS'ori'
p6
S'This house would reintroduce national service'
p7
ssS'output'
p8
(dp9
g4
(lp10
I725
aI5615
aI1980
aI1032
aI6675
aI3102
aI45
aI1292
aI5610
aI41
aI64
aI6867
aI547
aI86
aI45
aI316
aI5657
aI19
aI3987
aI63765
asg6
S'Many young men simply consumed drugs to avoid conscription  as this automatically allowed them to be exempted from service .'
p11
ss.