(dp1
S'input'
p2
(dp3
S'encoded'
p4
(lp5
I64
aI2179
aI394
aI4325
aI2042
aI270
aI89
aI11605
aI3324
asS'ori'
p6
S'This house would fund education using a voucher scheme'
p7
ssS'output'
p8
(dp9
g4
(lp10
I42
aI394
aI1255
aI3
aI150
aI2154
aI75
aI8817
aI2157
aI2158
aI75
aI2155
aI73
aI1191
aI89
aI3854
aI5
aI620
aI1732
aI4681
aI4107
aI63765
asg6
S'He would balance the national budget by cutting military spending by $100 billion  or about a fifth  and through sharply progressive taxation  .'
p11
ss.