(dp1
S'input'
p2
(dp3
S'encoded'
p4
(lp5
I64
aI2179
aI43
aI63
aI1036
aI4828
aI33250
aI116
aI25073
aI45
aI3315
aI4562
asS'ori'
p6
S'This house believes that male infant circumcision is tantamount to child abuse'
p7
ssS'output'
p8
(dp9
g4
(lp10
I6474
aI906
aI3
aI34812
aI5446
aI92
aI34813
aI24
aI3
aI34814
aI7
aI51
aI903
aI8446
aI2549
aI63765
asg6
S"Antiochus's decree motivated the Maccabees Revolt  which ultimated in the reestablishment of an independent Jewish kingdom ."
p11
ss.