(dp1
S'input'
p2
(dp3
S'encoded'
p4
(lp5
I64
aI2179
aI394
aI2998
aI3
aI4360
aI7
aI3249
aI6804
aI24
aI3
aI102
asS'ori'
p6
S'This house would encourage the creation of private universities in the UK'
p7
ssS'output'
p8
(dp9
g4
(lp10
I273
aI182
aI8512
aI8399
aI34
aI4358
aI81
aI47
aI7246
aI89
aI416
aI2537
aI311
aI89
aI979
aI7494
aI63765
asg6
S'There are textbook exchanges for students who will accept a used text at a lower price .'
p11
ss.