(dp1
S'input'
p2
(dp3
S'encoded'
p4
(lp5
I64
aI2179
aI235
aI839
aI4168
aI7
aI4996
aI34759
asS'ori'
p6
S'This house supports direct election of city mayors'
p7
ssS'output'
p8
(dp9
g4
(lp10
I271
aI2280
aI2455
aI6758
aI75
aI3
aI578
aI7
aI2990
aI8828
aI63765
asg6
S'Their powers remain unaffected by the introduction of elected mayor .'
p11
ss.