(dp1
S'input'
p2
(dp3
S'encoded'
p4
(lp5
I64
aI2179
aI43
aI63
aI2659
aI417
aI1690
aI3
aI12048
aI7
aI19084
asS'ori'
p6
S'This house believes that Israel should lift the blockade of Gaza'
p7
ssS'output'
p8
(dp9
g4
(lp10
I3
aI3500
aI2552
aI19322
aI24
aI3270
aI25
aI45
aI1893
aI3
aI4134
aI3610
aI117
aI89
aI5100
aI7
aI3286
aI366
aI42
aI2343
aI2164
aI24
aI16229
aI834
aI60
aI420
aI63765
aI29801
aI4895
aI42
aI116
aI12413
aI24
aI51
aI2419
aI45
aI591
aI667
aI2800
aI9991
asg6
S'The article attacked Erdogan in saying his "attempt to exploit the incident comes only a couple of weeks after he joined Brazil\'s president in linking arms with Mr . Ahmadinejad  whom he is assisting in an effort to block new UN sanctions ."'
p11
ss.