(dp1
S'input'
p2
(dp3
S'encoded'
p4
(lp5
I64
aI2179
aI394
aI5370
aI7146
aI4585
aI2446
asS'ori'
p6
S'This house would abolish intellectual property rights'
p7
ssS'output'
p8
(dp9
g4
(lp10
I182
aI99
aI89
aI3266
aI2195
aI7
aI4585
aI2446
asg6
S'are not a legitimate subject of property rights'
p11
ss.