(dp1
S'input'
p2
(dp3
S'encoded'
p4
(lp5
I64
aI2179
aI394
aI2773
aI12505
asS'ori'
p6
S'This house would embrace multiculturalism'
p7
ssS'output'
p8
(dp9
g4
(lp10
I3
aI3445
aI7
aI2637
aI9689
aI237
aI5461
aI24
aI3
aI5
aI887
aI7146
aI15594
aI864
aI7
aI3
aI4592
aI24
aI3
aI626
aI187
aI289
aI40
aI45
aI1039
aI214
aI7
aI2610
aI5
aI150
aI3914
aI63765
asg6
S'The concept of cultural pluralism first emerged in the 1910s and 1920s among intellectual circles out of the debates in the United States over how to approach issues of immigration and national identity .'
p11
ss.