(dp1
S'input'
p2
(dp3
S'encoded'
p4
(lp5
I64
aI2179
aI394
aI2976
aI12243
aI24
aI954
aI126
aI1560
aI10723
asS'ori'
p6
S'This house would implement playoffs in collegiate level American football'
p7
ssS'output'
p8
(dp9
g4
(lp10
I24
aI3
aI5159
aI7714
aI89
aI3492
aI34968
aI546
aI63
aI116
aI1934
aI887
aI3
aI5856
aI3024
aI10497
aI34
aI211
aI3900
aI283
aI63765
asg6
S"In the 2010 season  Delaware  a traditional FCS power that is consistently among the division's attendance leaders  averaged 20 684 for its regular-season home games ."
p11
ss.