(dp1
S'input'
p2
(dp3
S'encoded'
p4
(lp5
I64
aI2179
aI43
aI63
aI323
aI417
aI10009
aI211
aI9035
aI249
aI45
aI3426
aI211
aI2144
aI595
aI17
aI96
asS'ori'
p6
S'This house believes that Europe should weaken its austerity measures to guarantee its citizens greater social support'
p7
ssS'output'
p8
(dp9
g4
(lp10
I3777
aI1198
aI1483
aI40
aI9570
aI45
aI2467
aI7
aI9571
aI459
aI2330
aI9572
aI1735
aI318
aI45
aI1781
aI271
aI6408
aI177
aI9573
aI8316
aI63765
asg6
S'Mind you  quite how agreeing to decades of misery under German subjugation allows Greeks to hold their heads high defeats me .'
p11
ss.