(dp1
S'input'
p2
(dp3
S'encoded'
p4
(lp5
I64
aI2179
aI394
aI16756
aI20435
asS'ori'
p6
S'This house would criminalize blasphemy'
p7
ssS'output'
p8
(dp9
g4
(lp10
I61696
aI122
aI1108
aI5327
aI14
aI2927
aI75
aI19404
aI13668
aI24
aI45839
aI63765
asg6
S'Bhatti was shot dead on 2 March 2011  by Taliban militants in Islamabad .'
p11
ss.