(dp1
S'input'
p2
(dp3
S'encoded'
p4
(lp5
I64
aI2179
aI394
aI5370
aI3
aI5286
asS'ori'
p6
S'This house would abolish the monarchy'
p7
ssS'output'
p8
(dp9
g4
(lp10
I24
aI2477
aI5286
aI3
aI6445
aI6446
aI2482
aI4138
aI7
aI3
aI116
aI1136
aI2733
aI1644
aI1928
aI863
aI2439
aI887
aI3
aI2596
aI6309
aI7
aI3
aI6621
aI187
aI7
aI5964
aI2596
aI7
aI3
aI8747
aI187
aI7
aI5964
aI63
aI11
aI5337
aI4137
aI2990
aI75
aI40948
aI7
aI63765
asg6
S"In Malaysia's constitutional monarchy  the Yang di-Pertuan Agong (The Supreme Lord of the Federation) is de facto rotated every five years among the nine Rulers of the Malay states of Malaysia (those nine of the thirteen states of Malaysia that have hereditary royal rulers)  elected by Majlis Raja-Raja (Conference of Rulers) ."
p11
ss.