(dp1
S'input'
p2
(dp3
S'encoded'
p4
(lp5
I64
aI2179
aI394
aI163
aI959
aI2042
aI3557
asS'ori'
p6
S'This house would make physical education compulsory'
p7
ssS'output'
p8
(dp9
g4
(lp10
I16329
aI116
aI89
aI2645
aI7437
aI521
aI7
aI1012
aI3048
aI60
aI1879
aI7443
aI24
aI3939
aI5
aI3862
aI5
aI5462
aI234
aI134
aI41
aI93
aI7
aI3
aI217
aI2034
aI658
aI3217
aI251
aI7
aI3
aI63765
asg6
S'Obesity is a leading preventable cause of death worldwide  with increasing prevalence in adults and children  and authorities view it as one of the most serious public health problems of the 21st&nbsp;century  .'
p11
ss.