(dp1
S'input'
p2
(dp3
S'encoded'
p4
(lp5
I64
aI2179
aI394
aI2017
aI262
asS'ori'
p6
S'This house would ban boxing'
p7
ssS'output'
p8
(dp9
g4
(lp10
I24
aI93
aI2035
aI7
aI275
aI518
aI2036
aI63
aI920
aI921
aI500
aI99
aI881
aI2009
aI960
aI5
aI97
aI353
aI63
aI275
aI518
aI2037
aI89
aI177
aI2038
aI7
aI2009
aI960
asg6
S'In 2007  one study of amateur boxers showed that protective headgear did not prevent brain damage  and another found that amateur boxers faced a high risk of brain damage '
p11
ss.