(dp1
S'input'
p2
(dp3
S'encoded'
p4
(lp5
I64
aI2179
aI43
aI63
aI3376
aI4938
aI417
aI316
aI3537
asS'ori'
p6
S'This house believes that endangered species should be protected'
p7
ssS'output'
p8
(dp9
g4
(lp10
I2533
aI14
aI3
aI6793
aI7
aI6810
aI4938
aI7
aI1702
aI3921
aI26673
aI63765
asg6
S'|- 1983 Convention on the Conservation of Migratory Species of Wild Animals  1979  Bonn  .'
p11
ss.