(dp1
S'input'
p2
(dp3
S'encoded'
p4
(lp5
I64
aI2179
aI394
aI2017
aI223
aI9058
aI23653
asS'ori'
p6
S'This house would ban all unsustainable logging'
p7
ssS'output'
p8
(dp9
g4
(lp10
I24
aI22087
aI36815
aI22088
aI35
aI31759
aI7
aI8254
aI1519
aI153
aI47
aI99
aI2723
aI24
aI3
aI3579
aI7
aI6742
aI755
aI35
aI73
aI17183
aI63765
asg6
S'In temperate mesic climates  natural regeneration of forest stands often will not occur in the absence of disturbance  whether natural or anthropogenic  .'
p11
ss.