(dp1
S'input'
p2
(dp3
S'encoded'
p4
(lp5
I64
aI2179
aI394
aI5370
aI3
aI5286
asS'ori'
p6
S'This house would abolish the monarchy'
p7
ssS'output'
p8
(dp9
g4
(lp10
I24
aI2161
aI34
aI15647
aI2181
aI15648
aI15649
aI2244
aI25
aI3357
aI63
aI134
aI122
aI6278
aI63
aI357
aI876
aI11
aI45
aI3764
aI3
aI2210
aI7
aI3
aI5301
aI3
aI432
aI433
aI5
aI3
aI433
aI448
aI63765
aI63765
asg6
S'In 2007  Quebec\'s Minister for Intergovernmental Affairs  Benoit Pelletier  expressed his opinion that it was "not impossible that we might have to reconsider the role of the monarch  the lieutenant governor  and the governor general . .'
p11
ss.