(dp1
S'input'
p2
(dp3
S'encoded'
p4
(lp5
I64
aI2179
aI43
aI223
aI2138
aI11
aI89
aI21
aI45
aI2185
aI372
asS'ori'
p6
S'This house believes all nations have a right to nuclear weapons'
p7
ssS'output'
p8
(dp9
g4
(lp10
I25448
aI116
aI89
aI1405
aI521
aI7
aI2560
aI8447
aI211
aI6349
aI773
aI24
aI6037
aI691
aI63765
asg6
S'Kashmir is a prime cause of bilateral tension  its sovereignty being in dispute since 1948 .'
p11
ss.