(dp1
S'input'
p2
(dp3
S'encoded'
p4
(lp5
I64
aI2179
aI43
aI63
aI1036
aI4828
aI33250
aI116
aI25073
aI45
aI3315
aI4562
asS'ori'
p6
S'This house believes that male infant circumcision is tantamount to child abuse'
p7
ssS'output'
p8
(dp9
g4
(lp10
I43753
aI5
aI43753
aI5007
aI5615
aI3495
aI24
aI2980
aI2206
aI3182
aI63
aI7
aI3724
aI3476
aI3
aI33242
aI33221
aI7484
aI3476
aI3
aI33239
aI63765
asg6
S'Wildman and Wildman (1976) surveyed 55 young women in Georgia  US  reporting that 47 (89%) of respondents preferred the circumcised penis (the remainder preferred the uncircumcised penis)  .'
p11
ss.