(dp1
S'input'
p2
(dp3
S'encoded'
p4
(lp5
I64
aI2179
aI394
aI3830
aI3
aI475
aI7
aI9441
aI13132
aI3102
aI24
aI276
aI381
asS'ori'
p6
S'This house would permit the use of performance enhancing drugs in professional sports'
p7
ssS'output'
p8
(dp9
g4
(lp10
I34
aI1343
aI45
aI6829
aI3
aI7568
aI9055
aI24
aI89
aI575
aI2696
aI267
aI6543
aI394
aI316
aI3
aI164
aI7568
aI9055
aI24
aI3
aI2696
aI34
aI89
aI575
aI8818
aI3569
aI5
aI3
aI9461
aI5973
aI7
aI18252
aI1021
aI45
aI214
aI63765
asg6
S'For example  to estimate the prison drug-related expenditures in a given country  two elements would be necessary: the overall prison expenditures in the country for a given fiscal year  and the attributable proportion of inmates due to drug-related issues .'
p11
ss.