(dp1
S'input'
p2
(dp3
S'encoded'
p4
(lp5
I64
aI2179
aI43
aI63
aI3
aI4990
aI4991
aI116
aI4850
aI24
aI12166
aI3
aI475
aI7
aI3532
aI3290
aI7
aI4714
asS'ori'
p6
S'This house believes that the Catholic Church is justified in forbidding the use of barrier methods of contraception'
p7
ssS'output'
p8
(dp9
g4
(lp10
I174
aI226
aI24
aI667
aI2086
aI3
aI6359
aI8939
aI4256
aI311
aI4044
aI63765
aI9862
aI5898
aI60
aI4829
aI3862
aI5
aI271
aI5743
aI5
aI497
aI51
aI2117
aI34
aI4990
aI9184
aI53
aI42
aI4669
aI100
aI5615
aI78
aI24
aI5856
aI63765
asg6
S"Also while in New York  the pope celebrated Mass at St . Patrick's Cathedral  met with disabled children and their families  and attended an event for Catholic youth  where he addressed some 25 000 young people in attendance  ."
p11
ss.