(dp1
S'input'
p2
(dp3
S'encoded'
p4
(lp5
I64
aI2179
aI394
aI190
aI3
aI21
aI45
aI3895
aI834
asS'ori'
p6
S'This house would limit the right to bear arms'
p7
ssS'output'
p8
(dp9
g4
(lp10
I4328
aI24
aI2666
aI4329
aI45
aI4330
aI4331
aI4323
aI4329
aI63765
asg6
S'Measured in dollars contributed to congressional campaigns  HCI contributed $75 000 .'
p11
ss.