(dp1
S'input'
p2
(dp3
S'encoded'
p4
(lp5
I64
aI2179
aI43
aI223
aI2138
aI11
aI89
aI21
aI45
aI2185
aI372
asS'ori'
p6
S'This house believes all nations have a right to nuclear weapons'
p7
ssS'output'
p8
(dp9
g4
(lp10
I34745
aI116
aI174
aI344
aI75
aI100
aI159
aI41
aI3
aI6778
aI150
aI171
aI41
aI89
aI23892
aI957
aI24
aI2202
aI291
aI3
aI6778
aI4679
aI5
aI5292
aI691
aI3
aI12033
aI92
aI1378
aI3
aI2940
aI182
aI717
aI311
aI42678
aI4076
aI24
aI181
aI63765
asg6
S'Trident is also seen by some  such as the Scottish National Party  as a sticking point in relations between the Scottish Parliament and Westminster  since the submarines which carry the missiles are based at HMNB Clyde in Scotland .'
p11
ss.