(dp1
S'input'
p2
(dp3
S'encoded'
p4
(lp5
I64
aI2179
aI394
aI4325
aI2042
aI270
aI89
aI11605
aI3324
asS'ori'
p6
S'This house would fund education using a voucher scheme'
p7
ssS'output'
p8
(dp9
g4
(lp10
I24
aI2714
aI3531
aI2159
aI7
aI10
aI19117
aI18187
aI34
aI12073
aI626
aI187
aI19386
aI45
aI7173
aI495
aI15753
aI366
aI42
aI416
aI3
aI2497
aI45
aI3553
aI3188
aI7
aI4136
aI7
aI5806
aI7
aI26392
aI63765
asg6
S'In 2006  Obama criticized Secretary of State Condoleezza Rice for firing United States Ambassador to Armenia  John Evans  after he used the term "genocide" to describe Turkey\'s killing of hundreds of thousands of Armenians  .'
p11
ss.