(dp1
S'input'
p2
(dp3
S'encoded'
p4
(lp5
I64
aI2179
aI394
aI2976
aI12243
aI24
aI954
aI126
aI1560
aI10723
asS'ori'
p6
S'This house would implement playoffs in collegiate level American football'
p7
ssS'output'
p8
(dp9
g4
(lp10
I13622
aI661
aI7683
aI24
aI3
aI2422
aI20731
aI5
aI3
aI30734
aI2848
aI3
aI34983
aI150
aI642
aI63765
asg6
S'USC defeated Michigan in the Rose Bowl  and the AP proclaimed the Trojans national champions .'
p11
ss.