(dp1
S'input'
p2
(dp3
S'encoded'
p4
(lp5
I64
aI2179
aI394
aI475
aI2135
aI2194
aI6198
aI45
aI2041
aI5
aI13926
aI8732
aI63
aI1735
aI12708
aI5
aI5599
aI24
aI2203
aI45
aI1397
aI7149
aI5
aI12311
aI271
aI5119
aI4948
asS'ori'
p6
S'This house would use foreign aid funds to research and distribute software that allows bloggers and journalists in non-democratic countries to evade censorship and conceal their online activities'
p7
ssS'output'
p8
(dp9
g4
(lp10
I3
aI657
aI282
aI14
aI5119
aI7371
aI45
aI316
aI11664
aI5392
aI3315
aI7230
aI5
aI58786
aI3
aI3500
aI742
aI63765
asg6
S'The "only widespread international consensus" on online material to be censored regards child pornography and cyberterrorism  the article said .'
p11
ss.