(dp1
S'input'
p2
(dp3
S'encoded'
p4
(lp5
I64
aI2179
aI43
aI223
aI2138
aI11
aI89
aI21
aI45
aI2185
aI372
asS'ori'
p6
S'This house believes all nations have a right to nuclear weapons'
p7
ssS'output'
p8
(dp9
g4
(lp10
I2859
aI122
aI5809
aI311
aI1160
aI7
aI376
aI63765
asg6
S"Truman was shocked at Stalin's lack of interest ."
p11
ss.