(dp1
S'input'
p2
(dp3
S'encoded'
p4
(lp5
I64
aI2179
aI43
aI63
aI3
aI4991
aI7
aI180
aI417
aI316
aI5396
aI19
aI3
aI169
aI10
asS'ori'
p6
S'This house believes that the Church of England should be separated from the British state'
p7
ssS'output'
p8
(dp9
g4
(lp10
I42
aI513
aI3
aI2206
aI2823
aI7
aI63
aI413
aI45
aI316
aI136
aI17590
aI604
aI134
aI440
aI15
aI4798
aI5
aI650
aI291
aI4991
aI5
aI10
aI61
aI42
aI263
aI1420
aI5
aI26398
aI3
aI626
aI187
aI45
aI5480
aI63
aI1198
aI1576
aI134
aI5919
aI5
aI1453
aI99
aI8196
aI828
aI3445
aI7
aI6080
aI26399
aI446
aI45
aI3
aI1565
aI93
aI63765
asg6
S'He considered the US model of that time to be more amicable because it had both "sharp distinction and actual cooperation" between church and state  what he called "an historical treasure" and admonished the United States  "Please to God that you keep it carefully  and do not let your concept of separation veer round to the European one .'
p11
ss.