(dp1
S'input'
p2
(dp3
S'encoded'
p4
(lp5
I64
aI2179
aI43
aI63
aI6670
aI546
aI417
aI316
aI89
aI1334
aI3108
aI7
aI4849
aI1886
aI2855
asS'ori'
p6
S'This house believes that wind power should be a primary focus of future energy supply'
p7
ssS'output'
p8
(dp9
g4
(lp10
I378
aI3290
aI5
aI7631
aI4532
aI45
aI2970
aI132
aI6844
aI2947
aI5115
aI5
aI5547
aI16423
aI4425
aI139
aI4915
aI41
aI6693
aI12905
aI2319
aI18091
aI5
aI2705
aI7355
aI15930
aI1391
aI5
aI803
aI116
aI923
aI18092
aI16444
aI5067
aI139
aI174
aI316
aI416
aI45
aI18093
aI6823
aI5
aI3051
aI1886
aI63765
asg6
S'However  methods and opportunities exist to deploy these renewable technologies efficiently and unobtrusively: fixed solar collectors can double as noise barriers along highways  and extensive roadway  parking lot  and roof-top area is currently available; amorphous photovoltaic cells can also be used to tint windows and produce energy  .'
p11
ss.