(dp1
S'input'
p2
(dp3
S'encoded'
p4
(lp5
I64
aI2179
aI43
aI63
aI2659
aI417
aI1690
aI3
aI12048
aI7
aI19084
asS'ori'
p6
S'This house believes that Israel should lift the blockade of Gaza'
p7
ssS'output'
p8
(dp9
g4
(lp10
I638
aI88
aI12081
aI5697
aI24
aI3
aI2653
aI2087
aI323
aI874
aI875
aI5
aI2318
aI2770
aI1592
aI3
aI1274
aI63765
asg6
S'Throughout 31 May  demonstrators gathered in the Middle East  Europe  North America and South Asia following the attack  .'
p11
ss.