(dp1
S'input'
p2
(dp3
S'encoded'
p4
(lp5
I64
aI2179
aI43
aI63
aI2659
aI417
aI1690
aI3
aI12048
aI7
aI19084
asS'ori'
p6
S'This house believes that Israel should lift the blockade of Gaza'
p7
ssS'output'
p8
(dp9
g4
(lp10
I31491
aI31492
aI89
aI2030
aI34
aI3
aI5757
aI2135
aI5496
aI742
aI63
aI51
aI9359
aI75
aI5757
aI5462
aI695
aI63
aI273
aI122
aI443
aI2784
aI7
aI18118
aI14
aI3
aI1156
aI15185
aI92
aI440
aI12
aI19165
aI24
aI3
aI5757
aI11571
aI7
aI31493
aI63765
asg6
S'Selcuk Unal  a spokesman for the Turkish Foreign Ministry  said that an investigation by Turkish authorities determined that there was no act of sabotage on the Irish ship  which had been docked in the Turkish port of Gocek  .'
p11
ss.