(dp1
S'input'
p2
(dp3
S'encoded'
p4
(lp5
I64
aI2179
aI394
aI5370
aI3
aI5286
asS'ori'
p6
S'This house would abolish the monarchy'
p7
ssS'output'
p8
(dp9
g4
(lp10
I3
aI667
aI6113
aI5286
aI378
aI116
aI17593
aI638
aI223
aI778
aI24
aI3
aI2696
aI60
aI3
aI27824
aI7
aI10
aI773
aI89
aI759
aI7
aI223
aI3475
aI63765
asg6
S'The New Zealand monarchy  however  is unitary throughout all jurisdictions in the country  with the headship of state being a part of all equally .'
p11
ss.