(dp1
S'input'
p2
(dp3
S'encoded'
p4
(lp5
I64
aI2179
aI43
aI24
aI3
aI475
aI7
aI12436
aI3364
asS'ori'
p6
S'This house believes in the use of affirmative action'
p7
ssS'output'
p8
(dp9
g4
(lp10
I839
aI2987
aI24
aI3
aI5200
aI7
aI1186
aI5
aI7631
aI122
aI1587
aI45
aI14387
aI3
aI16
aI15525
asg6
S'direct intervention in the distribution of assets and opportunities was needed to resolve the economic disparities'
p11
ss.