(dp1
S'input'
p2
(dp3
S'encoded'
p4
(lp5
I64
aI2179
aI43
aI223
aI2138
aI11
aI89
aI21
aI45
aI2185
aI372
asS'ori'
p6
S'This house believes all nations have a right to nuclear weapons'
p7
ssS'output'
p8
(dp9
g4
(lp10
I874
aI2047
aI2215
aI3
aI2268
aI14
aI2394
aI131
aI1442
aI4149
aI7
aI4628
aI19
aI3
aI2268
aI14
aI425
aI1592
aI2145
aI63765
aI13410
aI63
aI134
aI440
aI2951
aI51
aI1968
aI22077
aI11695
aI372
aI2326
aI5
aI3
aI2145
aI63765
aI2494
aI255
aI5092
aI2579
aI12049
aI459
aI3
aI244
aI3278
aI92
aI440
aI3272
aI11778
aI372
aI214
aI24
aI63765
asg6
S'North Korea ratified the treaty on December 12  1985  but gave notice of withdrawal from the treaty on January 10  2003 following U .S . allegations that it had started an illegal enriched uranium weapons program  and the U .S . subsequently stopping fuel oil shipments under the Agreed Framework which had resolved plutonium weapons issues in 1994  .'
p11
ss.