(dp1
S'input'
p2
(dp3
S'encoded'
p4
(lp5
I64
aI2179
aI394
aI163
aI959
aI2042
aI3557
asS'ori'
p6
S'This house would make physical education compulsory'
p7
ssS'output'
p8
(dp9
g4
(lp10
I1102
aI45
aI3
aI3900
aI73
aI9998
aI11270
aI21056
aI5
aI23960
aI23961
aI34
aI5440
aI174
aI2998
aI89
aI136
aI2758
aI7996
aI63765
asg6
S'close to the home or workplace  walking trails and bike lanes for transportation also encourage a more active lifestyle .'
p11
ss.