(dp1
S'input'
p2
(dp3
S'encoded'
p4
(lp5
I64
aI2179
aI394
aI9385
aI2497
aI447
aI14
aI3
aI3578
aI5721
aI7
aI260
asS'ori'
p6
S'This house would enforce term limits on the legislative branch of government'
p7
ssS'output'
p8
(dp9
g4
(lp10
I15
aI12927
aI3136
aI159
aI41
aI4914
aI875
aI5
aI3552
aI159
aI41
aI7412
aI382
aI3531
aI34
aI45
aI46333
aI1260
aI60
aI2997
aI45
aI9911
aI9642
aI45
aI22
aI857
aI63765
asg6
S'" Both liberals left-wing groups such as Accountable America and advocates such as Rich were criticized for "trying to chill free speech" with efforts to intimidate donors to political causes  .'
p11
ss.