(dp1
S'input'
p2
(dp3
S'encoded'
p4
(lp5
I64
aI2179
aI43
aI3
aI626
aI187
aI116
aI1989
aI34
aI3102
aI2223
asS'ori'
p6
S"This house believes the United States is responsible for Mexico's drugs war"
p7
ssS'output'
p8
(dp9
g4
(lp10
I3
aI2206
aI55
aI508
aI938
aI5162
aI2639
aI7
aI3
aI2639
aI8867
aI34
aI2299
aI63765
asg6
S'The US has thus far released $300 million of the $400 million appropriated for Mexico  .'
p11
ss.