(dp1
S'input'
p2
(dp3
S'encoded'
p4
(lp5
I64
aI2179
aI43
aI223
aI2138
aI11
aI89
aI21
aI45
aI2185
aI372
asS'ori'
p6
S'This house believes all nations have a right to nuclear weapons'
p7
ssS'output'
p8
(dp9
g4
(lp10
I89
aI37044
aI2418
aI116
aI89
aI1794
aI7
aI89
aI2185
aI1942
aI3075
aI45
aI3051
aI9344
aI2412
aI7
aI6700
aI11877
aI13269
aI89
aI1445
aI803
aI42467
aI63765
asg6
S'A salted bomb is a variation of a nuclear weapon designed to produce enhanced quantities of radioactive fallout  rendering a large area uninhabitable  .'
p11
ss.