(dp1
S'input'
p2
(dp3
S'encoded'
p4
(lp5
I64
aI2179
aI394
aI4261
aI8667
aI3
aI9361
aI5
aI17069
asS'ori'
p6
S'This house would prohibit burning the stars and stripes'
p7
ssS'output'
p8
(dp9
g4
(lp10
I41
aI7
aI3
aI626
aI187
aI122
aI329
aI7
aI2203
aI24
aI2097
aI3048
aI2961
aI57
aI2910
aI75
aI884
aI252
aI2288
aI63765
asg6
S'As of 2002  the United States was ranked 17th of 167 countries in annual Worldwide Press Freedom Index by Reporters Without Borders .'
p11
ss.