(dp1
S'input'
p2
(dp3
S'encoded'
p4
(lp5
I64
aI2179
aI394
aI10662
aI626
aI187
aI2157
aI2697
aI19
aI2371
asS'ori'
p6
S'This house would remove United States military bases from Japan'
p7
ssS'output'
p8
(dp9
g4
(lp10
I24
aI89
aI6958
aI468
aI20751
aI736
aI89
aI2240
aI14
aI3
aI2730
aI3188
aI3862
aI5
aI24977
aI63765
asg6
S'In 1959 a jet fighter crashed into a school on the island  killing 17 children and injuring 121 .'
p11
ss.