(dp1
S'input'
p2
(dp3
S'encoded'
p4
(lp5
I64
aI2179
aI13605
aI2258
aI45
aI2194
asS'ori'
p6
S'This house prefers trade to aid'
p7
ssS'output'
p8
(dp9
g4
(lp10
I64
aI3715
aI63
aI75
aI2576
aI3
aI2897
aI14953
aI7
aI7500
aI119
aI34
aI2835
aI116
aI166
aI138
aI3
aI14953
aI119
aI459
aI61966
aI63765
asg6
S'This indicates that by trading  the absolute quantity of goods available for consumption is higher than the quantity available under autarky .'
p11
ss.