(dp1
S'input'
p2
(dp3
S'encoded'
p4
(lp5
I64
aI2179
aI43
aI223
aI2138
aI11
aI89
aI21
aI45
aI2185
aI372
asS'ori'
p6
S'This house believes all nations have a right to nuclear weapons'
p7
ssS'output'
p8
(dp9
g4
(lp10
I3741
aI9518
aI75
aI223
aI258
aI1198
aI139
aI11
aI134
aI131
aI1198
aI83
aI163
aI134
aI1806
aI63765
asg6
S'My answer was: By all means you can have it but you must make it yourself .'
p11
ss.