(dp1
S'input'
p2
(dp3
S'encoded'
p4
(lp5
I64
aI2179
aI394
aI16756
aI20435
asS'ori'
p6
S'This house would criminalize blasphemy'
p7
ssS'output'
p8
(dp9
g4
(lp10
I24
aI3
aI398
aI20435
aI122
aI551
aI89
aI279
aI70
aI4603
aI75
aI3
aI2483
aI7
aI3734
aI13293
aI75
aI3
aI279
aI70
aI3744
aI63765
asg6
S"In the 17th century  blasphemy was declared a common law offence by the Court of King's Bench  punishable by the common law courts ."
p11
ss.