(dp1
S'input'
p2
(dp3
S'encoded'
p4
(lp5
I64
aI2179
aI13605
aI2258
aI45
aI2194
asS'ori'
p6
S'This house prefers trade to aid'
p7
ssS'output'
p8
(dp9
g4
(lp10
I2194
aI324
aI24
aI2015
aI5
aI3863
aI2506
aI116
aI2888
aI24
aI193
aI1796
aI4830
aI159
aI41
aI3
aI14137
aI2232
aI5
aI3
aI19040
aI7
aI22241
aI63765
asg6
S'Aid  particularly in medical and scientific areas  is essential in providing better lives  such as the Green Revolution and the eradication of smallpox  .'
p11
ss.