(dp1
S'input'
p2
(dp3
S'encoded'
p4
(lp5
I64
aI2179
aI43
aI63
aI3
aI28431
aI7
aI2157
aI4624
aI75
aI39939
aI27257
aI122
aI4850
asS'ori'
p6
S'This house believes that the leaking of military documents by Anat Kamm was justified'
p7
ssS'output'
p8
(dp9
g4
(lp10
I3
aI6770
aI7004
aI55
aI401
aI45
aI5404
aI63
aI7371
aI18068
aI5958
aI14
aI3
aI4858
aI24593
aI5
aI30957
aI7
aI5
aI20766
aI47
aI1546
aI658
aI3357
aI5
aI134
aI47
aI1546
aI3
aI3357
aI7
aI78
aI24
aI1589
aI7
aI22
aI5
aI2436
aI41
aI350
aI63
aI42
aI55
aI51
aI4160
aI63765
asg6
S'" The Toronto Sun has referred to Assange\'s statements that "This material shines light on the everyday brutality and squalor of war" and "The archive will change public opinion and it will change the opinion of people in positions of political and diplomatic influence" as evidence that he has an anti-war mission  .'
p11
ss.