(dp1
S'input'
p2
(dp3
S'encoded'
p4
(lp5
I64
aI2179
aI43
aI63
aI3376
aI4938
aI417
aI316
aI3537
asS'ori'
p6
S'This house believes that endangered species should be protected'
p7
ssS'output'
p8
(dp9
g4
(lp10
I2148
aI6850
aI116
aI174
aI513
aI45
aI316
aI89
aI281
aI2731
aI45
aI2148
aI7797
aI63765
asg6
S'Global warming is also considered to be a major threat to global biodiversity .'
p11
ss.