(dp1
S'input'
p2
(dp3
S'encoded'
p4
(lp5
I64
aI2179
aI394
aI117
aI7428
aI21151
aI34
aI11389
aI2042
aI24
aI4364
asS'ori'
p6
S'This house would only teach abstinence for sex education in schools'
p7
ssS'output'
p8
(dp9
g4
(lp10
I14
aI582
aI45
aI316
aI2642
aI41
aI1856
aI45
aI316
aI8796
aI23962
aI3939
aI17
aI4304
aI1356
aI382
aI174
aI788
aI736
aI404
aI5
aI15183
aI34
aI24
aI9166
aI7872
aI2510
aI63765
asg6
S'On average  to be half as likely to be happier healthier adults Social background factors were also taken into account and compensated for in indications listed above .'
p11
ss.