(dp1
S'input'
p2
(dp3
S'encoded'
p4
(lp5
I64
aI2179
aI394
aI16642
aI1376
aI5269
asS'ori'
p6
S'This house would subsidize poor communities'
p7
ssS'output'
p8
(dp9
g4
(lp10
I7337
aI8885
aI116
aI4620
aI298
aI256
aI161
aI4849
aI3994
aI75
aI3858
aI271
aI3223
aI5
aI6269
aI1879
aI4849
aI4262
aI7601
aI73
aI397
aI9002
aI63765
asg6
S'Debt finance is appropriate when programs benefit future generations by raising their productivity and consequently increasing future tax revenues  or during recessions .'
p11
ss.