(dp1
S'input'
p2
(dp3
S'encoded'
p4
(lp5
I64
aI2179
aI43
aI63
aI3
aI4990
aI4991
aI116
aI4850
aI24
aI12166
aI3
aI475
aI7
aI3532
aI3290
aI7
aI4714
asS'ori'
p6
S'This house believes that the Catholic Church is justified in forbidding the use of barrier methods of contraception'
p7
ssS'output'
p8
(dp9
g4
(lp10
I248
aI4975
aI1480
aI416
aI34
aI314
aI708
aI24
aI66
aI6095
aI1074
aI5352
aI46871
aI41134
aI3109
aI1930
aI46872
aI46873
aI46874
aI46875
aI5
aI23016
aI63765
asg6
S"Other plants commonly used for birth control in ancient Greece include Queen Anne's lace (Daucus carota)  willow  date palm  pomegranate  pennyroyal  artemisia  myrrh  and rue ."
p11
ss.