(dp1
S'input'
p2
(dp3
S'encoded'
p4
(lp5
I64
aI2179
aI43
aI63
aI3
aI4990
aI4991
aI116
aI4850
aI24
aI12166
aI3
aI475
aI7
aI3532
aI3290
aI7
aI4714
asS'ori'
p6
S'This house believes that the Catholic Church is justified in forbidding the use of barrier methods of contraception'
p7
ssS'output'
p8
(dp9
g4
(lp10
I217
aI7332
aI11
aI89
aI5161
aI12155
aI73
aI51926
aI312
aI1609
aI134
aI1694
aI45
aI5629
aI3
aI37768
aI63765
asg6
S"Most condoms have a reservoir tip or teat end  making it easier to accommodate the man's ejaculate ."
p11
ss.