(dp1
S'input'
p2
(dp3
S'encoded'
p4
(lp5
I64
aI2179
aI43
aI63
aI3
aI4538
aI7
aI4434
aI7793
aI283
aI45
aI3586
aI417
aI316
aI577
asS'ori'
p6
S'This house believes that the sale of violent video games to minors should be banned'
p7
ssS'output'
p8
(dp9
g4
(lp10
I64
aI1298
aI89
aI2369
aI17983
aI710
aI41
aI261
aI41
aI3479
aI5
aI8084
aI63765
asg6
S'This requires a strong analytical ability  as well as flexibility and adaptability .'
p11
ss.