(dp1
S'input'
p2
(dp3
S'encoded'
p4
(lp5
I64
aI2179
aI394
aI2773
aI12505
asS'ori'
p6
S'This house would embrace multiculturalism'
p7
ssS'output'
p8
(dp9
g4
(lp10
I7233
aI24
aI2959
aI3
aI13121
aI5205
aI1191
aI3
aI4066
aI8313
aI5
aI4859
aI41
aI261
aI41
aI4706
aI2811
aI5
aI16111
aI2042
aI63765
asg6
S"Launched in April 2009  the  encompasses learning about the world's diverse religions and beliefs as well as ethics  tolerance  and civic education ."
p11
ss.