(dp1
S'input'
p2
(dp3
S'encoded'
p4
(lp5
I64
aI2179
aI43
aI63
aI3357
aI5003
aI652
aI3
aI188
aI3262
asS'ori'
p6
S'This house believes that opinion polls harm the democratic process'
p7
ssS'output'
p8
(dp9
g4
(lp10
I4358
aI81
aI4359
aI63
aI271
aI26217
aI5
aI248
aI10726
aI10688
aI24
aI22
aI3293
aI440
aI89
aI595
aI1432
aI63
aI155
aI394
aI316
aI26218
aI63765
asg6
S'Students who perceived that their instructors and other classmates differed in political views had a greater chance that they would be silenced .'
p11
ss.