(dp1
S'input'
p2
(dp3
S'encoded'
p4
(lp5
I64
aI2179
aI394
aI2017
aI3807
aI314
aI3433
asS'ori'
p6
S'This house would ban partial birth abortions'
p7
ssS'output'
p8
(dp9
g4
(lp10
I64
aI752
aI417
aI99
aI316
aI788
aI19330
aI417
aI1301
aI316
aI416
aI34
aI314
aI708
aI5
aI139
aI11
aI13020
aI63765
asg6
S'This decision should not be taken lightly (abortion should never be used for birth control purposes) and can have life-long ramifications .'
p11
ss.