(dp1
S'input'
p2
(dp3
S'encoded'
p4
(lp5
I64
aI2179
aI43
aI63
aI6670
aI546
aI417
aI316
aI89
aI1334
aI3108
aI7
aI4849
aI1886
aI2855
asS'ori'
p6
S'This house believes that wind power should be a primary focus of future energy supply'
p7
ssS'output'
p8
(dp9
g4
(lp10
I2185
aI546
aI2836
aI45
aI316
aI513
aI41
aI51
aI4834
aI45
aI546
aI2879
aI982
aI6695
aI546
aI5
aI24
aI298
aI3
aI237
aI5031
aI2579
aI479
aI122
aI1340
aI2185
aI1886
aI122
aI1340
aI41
aI3
aI215
aI34
aI6674
aI6715
aI63765
asg6
S'Nuclear power continues to be considered as an alternative to fossil-fuel power sources (see Low carbon power generation)  and in 1956  when the first peak oil paper was presented  nuclear energy was presented as the replacement for fossil fuels  .'
p11
ss.