(dp1
S'input'
p2
(dp3
S'encoded'
p4
(lp5
I64
aI2179
aI394
aI163
aI959
aI2042
aI3557
asS'ori'
p6
S'This house would make physical education compulsory'
p7
ssS'output'
p8
(dp9
g4
(lp10
I2992
aI342
aI63
aI4358
aI1453
aI154
aI64
aI136
aI1112
aI138
aI206
aI4736
aI1640
aI8414
aI86
aI61
aI155
aI182
aI1864
aI1986
aI5
aI1370
aI45
aI2387
aI134
aI63765
asg6
S'Studies show that students do find this more effective than having someone just telling them what they are doing wrong and trying to correct it .'
p11
ss.