(dp1
S'input'
p2
(dp3
S'encoded'
p4
(lp5
I64
aI2179
aI43
aI63
aI2659
aI417
aI1690
aI3
aI12048
aI7
aI19084
asS'ori'
p6
S'This house believes that Israel should lift the blockade of Gaza'
p7
ssS'output'
p8
(dp9
g4
(lp10
I64
aI116
aI89
aI8649
aI45
aI3
aI6048
aI2203
aI63
aI2056
aI619
aI3
aI1798
aI7
aI10933
asg6
S'This is a message to the Arab countries that now face the moment of truth ."'
p11
ss.