(dp1
S'input'
p2
(dp3
S'encoded'
p4
(lp5
I64
aI2179
aI43
aI17
aI4941
aI857
aI3211
asS'ori'
p6
S'This house believes social deprivation causes crime'
p7
ssS'output'
p8
(dp9
g4
(lp10
I631
aI475
aI3446
aI6394
aI24
aI4929
aI755
aI5
aI40
aI45
aI9559
aI89
aI1780
aI63765
asg6
S'Police use personal discretion in deciding whether and how to handle a situation .'
p11
ss.