(dp1
S'input'
p2
(dp3
S'encoded'
p4
(lp5
I64
aI2179
aI394
aI5370
aI3
aI5286
asS'ori'
p6
S'This house would abolish the monarchy'
p7
ssS'output'
p8
(dp9
g4
(lp10
I41028
aI2787
aI1643
aI1999
aI41
aI22743
aI63765
asg6
S'|- Racha Thailand same meaning as Raja .'
p11
ss.