(dp1
S'input'
p2
(dp3
S'encoded'
p4
(lp5
I64
aI2179
aI394
aI3830
aI3
aI475
aI7
aI9441
aI13132
aI3102
aI24
aI276
aI381
asS'ori'
p6
S'This house would permit the use of performance enhancing drugs in professional sports'
p7
ssS'output'
p8
(dp9
g4
(lp10
I13456
aI122
aI1031
aI45
aI1456
aI2568
aI620
aI4347
aI4348
aI2300
aI2145
aI63765
aI3343
aI4220
aI4364
aI63765
asg6
S"Mitchell was able to secure Radomski's cooperation through San Francisco  California  U .S . Attorney Scott Schools ."
p11
ss.