(dp1
S'input'
p2
(dp3
S'encoded'
p4
(lp5
I64
aI2179
aI43
aI8629
aI116
aI3
aI117
aI998
asS'ori'
p6
S'This house believes atheism is the only way'
p7
ssS'output'
p8
(dp9
g4
(lp10
I3
aI369
aI6165
aI18686
aI18687
aI557
aI63
aI93
aI417
aI18688
aI3670
aI1191
aI1825
aI223
aI18689
aI399
aI7
aI13321
aI1047
aI41
aI18690
aI3819
aI122
aI11655
aI3148
aI5
aI63
aI18691
aI7
aI116
aI18692
aI75
aI16740
aI3670
aI63765
asg6
S'The Roman philosopher Sextus Empiricus held that one should suspend judgment about virtually all beliefsa form of skepticism known as Pyrrhonismthat nothing was inherently evil  and that ataraxia ("peace of mind") is attainable by withholding one\'s judgment .'
p11
ss.