(dp1
S'input'
p2
(dp3
S'encoded'
p4
(lp5
I64
aI2179
aI43
aI63
aI3
aI21
aI45
aI12715
aI417
aI99
aI316
aI2897
asS'ori'
p6
S'This house believes that the right to asylum should not be absolute'
p7
ssS'output'
p8
(dp9
g4
(lp10
I7
aI132
aI1191
aI2639
aI11
aI7480
aI2669
aI5
aI9072
aI248
aI2203
aI5
aI2639
aI182
aI2845
aI45
aI316
aI7477
aI822
aI2669
aI60
aI4374
aI12474
aI6020
aI45
aI6129
aI5
aI2658
aI574
aI4728
aI63765
asg6
S'Of these  about 2 million have fled Iraq and flooded other countries  and 2 .7 million are estimated to be refugees inside Iraq  with nearly 100 000 Iraqis fleeing to Syria and Jordan each month  .'
p11
ss.