(dp1
S'input'
p2
(dp3
S'encoded'
p4
(lp5
I64
aI2179
aI394
aI5370
aI7146
aI4585
aI2446
asS'ori'
p6
S'This house would abolish intellectual property rights'
p7
ssS'output'
p8
(dp9
g4
(lp10
I11958
aI19
aI3
aI2210
aI7
aI220
aI5
aI3
aI4991
aI3
aI2231
aI7
aI12717
aI70
aI116
aI24
aI2888
aI3708
aI174
aI6421
aI45
aI3
aI544
aI7
aI38
aI5
aI3
aI29187
aI1606
aI7
aI2191
aI2202
aI45
aI3
aI5686
aI7
aI16251
aI2445
aI4948
aI159
aI41
aI10451
aI5
aI8214
aI2410
aI63765
asg6
S'Aside from the role of governments and the church  the history of copyright law is in essential ways also connected to the rise of capitalism and the attendant extension of commodity relations to the realm of creative human activities  such as literary and artistic production .'
p11
ss.