(dp1
S'input'
p2
(dp3
S'encoded'
p4
(lp5
I64
aI2179
aI394
aI9385
aI2497
aI447
aI14
aI3
aI3578
aI5721
aI7
aI260
asS'ori'
p6
S'This house would enforce term limits on the legislative branch of government'
p7
ssS'output'
p8
(dp9
g4
(lp10
I41
aI89
aI296
aI24
aI725
aI187
aI324
aI24
aI3
aI3912
aI4883
aI5597
aI14
aI3
aI10472
aI3756
aI14436
aI11673
aI63765
asg6
S'As a result  in 2006 many states particularly in the west put initiatives on the ballot restricting eminent domain .'
p11
ss.