(dp1
S'input'
p2
(dp3
S'encoded'
p4
(lp5
I64
aI2179
aI394
aI3830
aI3
aI475
aI7
aI9441
aI13132
aI3102
aI24
aI276
aI381
asS'ori'
p6
S'This house would permit the use of performance enhancing drugs in professional sports'
p7
ssS'output'
p8
(dp9
g4
(lp10
I809
aI12349
aI3895
aI3
aI959
aI5
aI1043
aI50237
aI7
aI2439
aI7
aI2613
aI4562
asg6
S'former athletes bear the physical and mental scars of years of drug abuse'
p11
ss.