(dp1
S'input'
p2
(dp3
S'encoded'
p4
(lp5
I64
aI2179
aI43
aI63
aI3357
aI5003
aI652
aI3
aI188
aI3262
asS'ori'
p6
S'This house believes that opinion polls harm the democratic process'
p7
ssS'output'
p8
(dp9
g4
(lp10
I4370
aI727
aI88
aI316
aI3493
aI75
aI1849
aI7518
aI53
aI3
aI10520
aI575
aI75
aI3724
aI1453
aI99
aI4614
aI271
aI3107
aI4859
aI63765
asg6
S'Survey results may be affected by response bias  where the answers given by respondents do not reflect their true beliefs .'
p11
ss.