(dp1
S'input'
p2
(dp3
S'encoded'
p4
(lp5
I64
aI2179
aI43
aI63
aI3
aI28431
aI7
aI2157
aI4624
aI75
aI39939
aI27257
aI122
aI4850
asS'ori'
p6
S'This house believes that the leaking of military documents by Anat Kamm was justified'
p7
ssS'output'
p8
(dp9
g4
(lp10
I97
aI2035
aI75
aI3
aI285
aI3217
aI2134
aI263
aI3
aI2669
aI3874
aI3217
aI4370
aI2845
aI457
aI1021
aI45
aI2617
aI4967
aI1051
aI45
aI19
aI2927
aI620
aI2116
aI63765
asg6
S'Another study by the World Health Organization called the Iraq Family Health Survey estimated 151 000 deaths due to violence (95% uncertainty range  104 000 to 223 000) from March 2003 through June 2006  .'
p11
ss.