(dp1
S'input'
p2
(dp3
S'encoded'
p4
(lp5
I64
aI2179
aI43
aI63
aI3
aI4990
aI4991
aI116
aI4850
aI24
aI12166
aI3
aI475
aI7
aI3532
aI3290
aI7
aI4714
asS'ori'
p6
S'This house believes that the Catholic Church is justified in forbidding the use of barrier methods of contraception'
p7
ssS'output'
p8
(dp9
g4
(lp10
I226
aI3
aI6253
aI221
aI14409
aI211
aI12642
aI7
aI25930
aI60
aI211
aI10857
aI13063
aI25931
aI25932
aI24
aI2330
aI1999
aI60
aI8667
aI75
aI5834
aI2375
aI5
aI271
aI2370
aI6521
aI223
aI323
aI63765
asg6
S'While the Vatican made plain its disapproval of Nazism with its 1937 encyclical Mit brennender Sorge (written in German  meaning With burning concern)  by 1941  Nazi armies and their allies occupied all Europe .'
p11
ss.