(dp1
S'input'
p2
(dp3
S'encoded'
p4
(lp5
I64
aI2179
aI394
aI2017
aI223
aI9058
aI23653
asS'ori'
p6
S'This house would ban all unsustainable logging'
p7
ssS'output'
p8
(dp9
g4
(lp10
I3
aI6828
aI7
aI3
aI12751
aI8254
aI34
aI6755
aI6754
aI24
aI2452
aI122
aI174
aI344
aI75
aI14184
aI41
aI51
aI16
aI2573
aI397
aI3203
aI7
aI177
aI7528
aI53
aI3
aI15282
aI7
aI6755
aI4423
aI193
aI89
aI998
aI7
aI36994
aI3
aI376
aI2994
aI7284
aI14
aI137
aI20
aI24
aI3
aI2895
aI63765
asg6
S'The removal of the Amazon forest for cattle farming in Brazil was also seen by developers as an economic investment during periods of high inflation where the appreciation of cattle prices providing a way of outpacing the interest rate earned on money left in the bank .'
p11
ss.