(dp1
S'input'
p2
(dp3
S'encoded'
p4
(lp5
I64
aI2179
aI43
aI3
aI626
aI187
aI116
aI1989
aI34
aI3102
aI2223
asS'ori'
p6
S"This house believes the United States is responsible for Mexico's drugs war"
p7
ssS'output'
p8
(dp9
g4
(lp10
I24
aI3091
aI8770
aI448
aI5812
aI23456
aI480
aI89
aI905
aI63
aI226
aI7069
aI23457
aI4453
aI7
aI6029
aI5
aI2585
aI24
aI211
aI4376
aI500
aI99
aI4934
aI86
aI24
aI211
aI760
aI63765
asg6
S"In 1998  CIA Inspector General Frederick Hitz published a two-volume report that while seemingly refuting Webb's claims of knowledge and collaboration in its conclusions did not deny them in its body  ."
p11
ss.