(dp1
S'input'
p2
(dp3
S'encoded'
p4
(lp5
I64
aI2179
aI43
aI24
aI3
aI475
aI7
aI12436
aI3364
asS'ori'
p6
S'This house believes in the use of affirmative action'
p7
ssS'output'
p8
(dp9
g4
(lp10
I134
aI122
aI71
aI45
aI3409
aI9750
aI7691
aI75
aI12716
aI159
aI41
aI11894
aI42877
aI81
aI11071
aI7
aI3
aI2548
aI41
aI89
aI2178
aI92
aI107
aI7
aI773
aI717
aI14
aI3
aI57694
aI2812
aI94
aI5
aI14
aI89
aI2386
aI279
aI3657
aI122
aI2062
aI14
aI3
aI722
aI47
aI45
aI3281
aI1544
aI2548
aI116
aI89
aI3993
aI73
aI174
aI495
aI16490
aI23887
aI63765
asg6
S'It was opposed to liberal nationalism  represented by authors such as Ernest Renan (18231892)  who conceived of the nation as a community  which  instead of being based on the Volk ethnic group and on a specific  common language  was founded on the subjective will to live together ("the nation is a daily plebiscite"  1882) or also John Stuart Mill (18061873)  .'
p11
ss.