(dp1
S'input'
p2
(dp3
S'encoded'
p4
(lp5
I64
aI2179
aI43
aI8629
aI116
aI3
aI117
aI998
asS'ori'
p6
S'This house believes atheism is the only way'
p7
ssS'output'
p8
(dp9
g4
(lp10
I1210
aI2865
aI7
aI3
aI3661
aI7
aI3148
aI24
aI25853
aI2286
aI35
aI42
aI3775
aI45
aI881
aI3148
aI131
aI99
aI1031
aI63764
aI768
aI116
aI42
aI35520
aI63765
aI116
aI42
aI1031
aI131
aI99
aI3775
aI63764
aI768
aI116
aI42
aI25499
aI63765
aI116
aI42
aI15
aI1031
aI5
aI3775
aI63764
aI24739
aI768
aI116
aI3148
asg6
S'David Hume\'s formulation of the problem of evil in Dialogues Concerning Natural Religion: "Is he willing to prevent evil  but not able ? Then is he impotent . Is he able  but not willing ? Then is he malevolent . Is he both able and willing ? Whence then is evil ?"'
p11
ss.