(dp1
S'input'
p2
(dp3
S'encoded'
p4
(lp5
I64
aI2179
aI43
aI63
aI3
aI4538
aI7
aI4434
aI7793
aI283
aI45
aI3586
aI417
aI316
aI577
asS'ori'
p6
S'This house believes that the sale of violent video games to minors should be banned'
p7
ssS'output'
p8
(dp9
g4
(lp10
I2134
aI1629
aI864
aI45
aI3051
aI1237
aI283
aI4797
aI11133
aI19
aI89
aI4881
aI2603
aI291
aI1237
aI8313
aI459
aI3
aI2267
aI7
aI9691
aI5714
aI6656
aI18558
aI8499
aI5
aI80
aI604
aI638
aI223
aI7
aI86
aI139
aI316
aI353
aI89
aI279
aI32293
aI7
aI31653
aI7367
aI45
aI12118
aI2206
aI2368
aI6268
aI63765
asg6
S'Non-profit organization \'  \' set out to produce several non-violent games  drawing inspiration from a claimed agreement between several religions under the sign of nonviolence: "Christianity  Hinduism  Islam  Buddhism  Taoism  Judaism and others  - because throughout all of them can be found a common thread of decency meant to propel us toward spiritual enlightenment"  .'
p11
ss.