(dp1
S'input'
p2
(dp3
S'encoded'
p4
(lp5
I64
aI2179
aI394
aI10662
aI626
aI187
aI2157
aI2697
aI19
aI2371
asS'ori'
p6
S'This house would remove United States military bases from Japan'
p7
ssS'output'
p8
(dp9
g4
(lp10
I1237
aI4256
aI457
aI458
aI159
aI41
aI24
aI3
aI7
aI3
aI53
aI725
aI26432
aI2240
aI8578
aI860
aI4435
aI75
aI15112
aI1295
aI41961
aI34
aI2384
aI7
aI3323
aI63765
asg6
S'Several mass deaths occurred  such as in the "Cave of the Virgins"  where many Okinawan school girls committed suicide by jumping off cliffs for fear of rape .'
p11
ss.