(dp1
S'input'
p2
(dp3
S'encoded'
p4
(lp5
I64
aI2179
aI43
aI8629
aI116
aI3
aI117
aI998
asS'ori'
p6
S'This house believes atheism is the only way'
p7
ssS'output'
p8
(dp9
g4
(lp10
I508
aI61
aI4962
aI45
aI316
aI116
aI117
aI3148
aI19
aI913
aI957
aI7
aI234
aI131
aI116
aI99
aI1336
aI3148
aI63765
asg6
S'Thus  what appears to be "evil" is only evil from humanity\'s limited point of view  but is not truly evil .'
p11
ss.