(dp1
S'input'
p2
(dp3
S'encoded'
p4
(lp5
I64
aI2179
aI43
aI3
aI626
aI187
aI116
aI1989
aI34
aI3102
aI2223
asS'ori'
p6
S"This house believes the United States is responsible for Mexico's drugs war"
p7
ssS'output'
p8
(dp9
g4
(lp10
I1157
aI5726
aI2173
aI24
aI2555
aI63
aI3
aI2206
aI260
aI637
aI440
aI99
aI19369
aI86
aI14
aI61
aI461
aI1986
aI3646
aI440
aI155
aI15882
aI63765
asg6
S'Mexican officials stated in September that the US government still had not briefed them on what went wrong nor had they apologized  .'
p11
ss.