(dp1
S'input'
p2
(dp3
S'encoded'
p4
(lp5
I64
aI2179
aI13605
aI2258
aI45
aI2194
asS'ori'
p6
S'This house prefers trade to aid'
p7
ssS'output'
p8
(dp9
g4
(lp10
I42
aI116
aI174
aI3
aI2696
aI5606
aI34
aI4358
aI24
aI1260
aI6225
aI5
aI2217
aI2470
aI4769
aI7
aI51
aI5119
aI2190
aI10649
aI3
aI5025
aI2470
aI63
aI116
aI480
aI8386
aI75
aI15095
aI63765
asg6
S'He is also the Country Director for Students In Free Enterprise [SIFE Kenya] and Chief Executive Officer (CEO) of an online business magazine The African Executive that is published weekly by IREN .'
p11
ss.