(dp1
S'input'
p2
(dp3
S'encoded'
p4
(lp5
I64
aI2179
aI43
aI63
aI3
aI21
aI45
aI12715
aI417
aI99
aI316
aI2897
asS'ori'
p6
S'This house believes that the right to asylum should not be absolute'
p7
ssS'output'
p8
(dp9
g4
(lp10
I2233
aI11
aI344
aI6035
aI13786
aI63
aI2287
aI8242
aI417
aI316
aI1607
aI289
aI19
aI327
aI5
aI2044
aI53
aI419
aI2695
aI2287
aI8242
aI182
aI45
aI316
aI353
aI63765
asg6
S'I have seen letters proposing that domestic servants should be brought over from Germany and Norway  where very excellent domestic servants are to be found .'
p11
ss.