(dp1
S'input'
p2
(dp3
S'encoded'
p4
(lp5
I64
aI2179
aI43
aI63
aI187
aI417
aI99
aI16642
aI3
aI6449
aI7
aI3935
asS'ori'
p6
S'This house believes that states should not subsidize the growing of tobacco'
p7
ssS'output'
p8
(dp9
g4
(lp10
I41
aI18187
aI5677
aI670
aI45
aI12304
aI725
aI18486
aI19
aI3945
aI45
aI3926
aI2506
aI24
aI6898
aI7
aI4834
aI16
aI7631
aI63765
asg6
S'As rice farmers struggled to compete  many migrated from rural to urban areas in search of alternative economic opportunities  .'
p11
ss.