(dp1
S'input'
p2
(dp3
S'encoded'
p4
(lp5
I64
aI2179
aI43
aI63
aI3
aI21
aI45
aI12715
aI417
aI99
aI316
aI2897
asS'ori'
p6
S'This house believes that the right to asylum should not be absolute'
p7
ssS'output'
p8
(dp9
g4
(lp10
I378
aI691
aI3
aI312
aI7
aI7238
aI11
aI12
aI3848
aI63
aI3
aI631
aI2341
aI30985
aI19
aI248
aI15575
aI397
aI2584
aI5
aI28802
aI24
aI10424
aI120
aI81
aI11
aI1640
aI4373
aI311
aI37711
aI1136
aI75
aI1454
aI5
aI440
aI413
aI45
aI163
aI3
aI3497
aI34
aI12715
aI88
aI6474
aI1298
aI86
aI45
aI5878
aI34
aI89
aI18635
aI34
aI7277
aI86
aI24
aI878
aI63765
asg6
S"However  since the end of 2005  NGOs have been noting that the police separate Afghans from other migrants during raids  and expel in charters those who have just arrived at Gare de l'Est by train and haven't had time to make the demand for asylum (a May 30  2005 decree requires them to pay for a translator for helping them in official formalities)  ."
p11
ss.