(dp1
S'input'
p2
(dp3
S'encoded'
p4
(lp5
I64
aI2179
aI13605
aI2258
aI45
aI2194
asS'ori'
p6
S'This house prefers trade to aid'
p7
ssS'output'
p8
(dp9
g4
(lp10
I42
aI55
aI2630
aI24
aI725
aI2506
aI7
aI3
aI2760
aI285
aI5
aI100
aI3060
aI2600
aI217
aI4258
aI24
aI2404
aI3010
aI875
aI5
aI2451
aI63765
asg6
S'He has worked in many areas of the developing world and some transition economies  most heavily in Africa  Latin America  and Russia .'
p11
ss.