(dp1
S'input'
p2
(dp3
S'encoded'
p4
(lp5
I64
aI2179
aI43
aI63
aI3357
aI5003
aI652
aI3
aI188
aI3262
asS'ori'
p6
S'This house believes that opinion polls harm the democratic process'
p7
ssS'output'
p8
(dp9
g4
(lp10
I3
aI2096
aI63
aI17
aI26253
aI1019
aI4532
aI14
aI3
aI7147
aI83
aI99
aI316
aI4419
aI60
aI3
aI4658
aI63
aI3
aI7147
aI55
aI14
aI5249
aI147
aI545
aI2022
aI63765
asg6
S'The idea that social isolations cannot exist on the internet must not be confused with the effects that the Internet has on isolating individuals within society .'
p11
ss.