(dp1
S'input'
p2
(dp3
S'encoded'
p4
(lp5
I64
aI2179
aI394
aI117
aI7428
aI21151
aI34
aI11389
aI2042
aI24
aI4364
asS'ori'
p6
S'This house would only teach abstinence for sex education in schools'
p7
ssS'output'
p8
(dp9
g4
(lp10
I357
aI4406
aI2167
aI41
aI55947
aI63
aI3018
aI3
aI3166
aI4
aI63
aI273
aI182
aI3456
aI73
aI1989
aI3708
aI45
aI475
aI3102
aI63765
asg6
S"We oppose so-called 'harm reduction' strategies as endpoints that promote the false notion that there are safe or responsible ways to use drugs ."
p11
ss.