(dp1
S'input'
p2
(dp3
S'encoded'
p4
(lp5
I64
aI2179
aI394
aI2741
aI3
aI1560
aI6025
aI2784
asS'ori'
p6
S'This house would pass the American Jobs Act'
p7
ssS'output'
p8
(dp9
g4
(lp10
I14956
aI5047
aI63
aI725
aI7
aI3
aI4408
aI12362
aI81
aI3867
aI1966
aI63
aI3
aI8887
aI394
aI99
aI836
aI6025
aI382
aI3399
aI6035
aI3820
aI8887
aI256
aI34
aI271
aI11617
aI14
aI3
aI18
aI63
aI3
aI2158
aI394
aI836
aI6025
aI63765
asg6
S'Newsweek reported that many of the Republican legislators who publicly argued that the stimulus would not create jobs were writing letters seeking stimulus programs for their districts on the grounds that the spending would create jobs  .'
p11
ss.