(dp1
S'input'
p2
(dp3
S'encoded'
p4
(lp5
I64
aI2179
aI394
aI1499
aI177
aI1819
aI34
aI160
asS'ori'
p6
S'This house would build high rises for housing'
p7
ssS'output'
p8
(dp9
g4
(lp10
I3
aI237
aI6811
aI6819
aI2586
aI45
aI316
aI2676
aI366
aI3
aI2706
aI2223
aI63765
asg6
S'The first residential towers began to be built after the Korean War .'
p11
ss.