(dp1
S'input'
p2
(dp3
S'encoded'
p4
(lp5
I64
aI2179
aI43
aI8629
aI116
aI3
aI117
aI998
asS'ori'
p6
S'This house believes atheism is the only way'
p7
ssS'output'
p8
(dp9
g4
(lp10
I34
aI725
aI14574
aI159
aI41
aI4257
aI3323
aI73
aI7300
aI134
aI4962
aI63
aI3
aI1260
aI47
aI5
aI4662
aI7
aI3
aI4944
aI182
aI13648
aI75
aI3
aI1260
aI47
aI747
aI7
aI3
aI4553
aI63765
asg6
S'For many evils such as murder  rape  or theft it appears that the free will and choice of the victim are diminished by the free will decisions of the offender .'
p11
ss.