(dp1
S'input'
p2
(dp3
S'encoded'
p4
(lp5
I64
aI2179
aI394
aI2017
aI628
asS'ori'
p6
S'This house would ban gambling'
p7
ssS'output'
p8
(dp9
g4
(lp10
I378
aI24
aI628
aI122
aI4427
aI638
aI3
aI10
aI7
aI2129
aI2319
aI60
aI7666
aI7667
aI5
aI46246
aI63765
asg6
S'However  in 1931  gambling was legalized throughout the state of Nevada  along with Las Vegas and Reno .'
p11
ss.