(dp1
S'input'
p2
(dp3
S'encoded'
p4
(lp5
I64
aI2179
aI43
aI63
aI2659
aI417
aI1690
aI3
aI12048
aI7
aI19084
asS'ori'
p6
S'This house believes that Israel should lift the blockade of Gaza'
p7
ssS'output'
p8
(dp9
g4
(lp10
I226
aI64
aI2326
aI88
aI3810
aI78
aI19
aI7827
aI134
aI116
aI89
aI6327
aI63
aI98
aI99
aI881
aI3
aI2810
aI126
aI7
aI19277
aI24
aI3
aI2654
aI60
aI9095
aI2722
aI7
aI8544
aI19278
aI1021
aI45
aI3407
aI19279
aI63765
asg6
S'While this program may save people from starvation  it is a diet that does not prevent the highest level of anemia in the region  with alarming rates of childhood stunting due to inadequate nutrition .'
p11
ss.