(dp1
S'input'
p2
(dp3
S'encoded'
p4
(lp5
I64
aI2179
aI394
aI1499
aI177
aI1819
aI34
aI160
asS'ori'
p6
S'This house would build high rises for housing'
p7
ssS'output'
p8
(dp9
g4
(lp10
I233
aI45
aI3073
aI24
aI5
aI12249
aI75
aI16724
aI5
aI39059
aI33840
aI803
aI2598
aI7931
aI458
aI226
aI273
aI122
aI51
aI2282
aI7
aI36002
aI291
aI5
aI24
aI9175
aI18334
aI24483
aI19940
aI5
aI21575
aI5
aI9834
aI4281
aI3283
aI252
aI3
aI13346
aI28393
aI7
aI658
aI3115
aI2938
aI63
aI458
aI24
aI3
aI626
aI187
aI63765
asg6
S'According to data in "Cities and Automobile Dependence" by Kenworthy and Laube (1999)  urbanized area population losses occurred while there was an expansion of sprawl between 1970 and 1990 in Brussels  Belgium; Copenhagen  Denmark; Frankfurt  Hamburg  and Munich  Germany; and Zurich  Switzerland  albeit without the wholesale dismantling of public transit systems that occurred in the United States .'
p11
ss.