(dp1
S'input'
p2
(dp3
S'encoded'
p4
(lp5
I64
aI2179
aI394
aI5284
aI150
aI3987
asS'ori'
p6
S'This house would reintroduce national service'
p7
ssS'output'
p8
(dp9
g4
(lp10
I6941
aI3812
aI15422
aI24
aI2506
aI7
aI1185
aI658
aI376
aI463
aI316
aI5657
aI19
aI2157
aI3987
aI14
aI8734
aI63765
asg6
S'Workers performing tasks in areas of important public interest could be exempted from military service on request .'
p11
ss.