(dp1
S'input'
p2
(dp3
S'encoded'
p4
(lp5
I64
aI2179
aI394
aI2017
aI3807
aI314
aI3433
asS'ori'
p6
S'This house would ban partial birth abortions'
p7
ssS'output'
p8
(dp9
g4
(lp10
I3862
aI182
aI99
aI513
aI4224
aI487
aI155
aI1069
aI3
aI3485
aI7
aI2471
aI5
aI182
aI1031
aI45
aI2214
aI736
aI118
aI2473
aI4600
aI5
aI4601
aI73
aI316
aI4602
aI63765
asg6
S'Children are not considered persons until they reach the age of majority and are able to enter into legally binding contracts and sue or be sued .'
p11
ss.