(dp1
S'input'
p2
(dp3
S'encoded'
p4
(lp5
I64
aI2179
aI394
aI3830
aI3
aI475
aI7
aI9441
aI13132
aI3102
aI24
aI276
aI381
asS'ori'
p6
S'This house would permit the use of performance enhancing drugs in professional sports'
p7
ssS'output'
p8
(dp9
g4
(lp10
I378
aI448
aI13247
aI2529
aI695
aI63
aI3
aI15946
aI440
aI45
aI316
aI4648
aI24
aI1102
aI6450
aI45
aI3
aI3343
aI5354
aI63765
asg6
S"However  then-Attorney General Edwin Meese determined that the headquarters had to be located in close proximity to the Attorney General's office ."
p11
ss.