(dp1
S'input'
p2
(dp3
S'encoded'
p4
(lp5
I64
aI2179
aI43
aI63
aI187
aI417
aI99
aI16642
aI3
aI6449
aI7
aI3935
asS'ori'
p6
S'This house believes that states should not subsidize the growing of tobacco'
p7
ssS'output'
p8
(dp9
g4
(lp10
I64
aI116
aI622
aI27640
aI41
aI89
aI6031
aI7
aI4445
aI34
aI4498
aI2613
aI475
aI41
aI23719
aI5169
aI3
aI2758
aI10141
aI24
aI3102
aI159
aI41
aI13169
aI5
aI32
aI86
aI119
aI34
aI15378
aI620
aI3
aI11040
aI63765
asg6
S'This is primarily practised as a route of administration for recreational drug use  as combustion releases the active substances in drugs such as nicotine and makes them available for absorption through the lungs .'
p11
ss.