(dp1
S'input'
p2
(dp3
S'encoded'
p4
(lp5
I64
aI2179
aI43
aI63
aI3
aI4990
aI4991
aI116
aI4850
aI24
aI12166
aI3
aI475
aI7
aI3532
aI3290
aI7
aI4714
asS'ori'
p6
S'This house believes that the Catholic Church is justified in forbidding the use of barrier methods of contraception'
p7
ssS'output'
p8
(dp9
g4
(lp10
I42
aI2586
aI270
aI51
aI6549
aI8420
aI3270
aI63
aI42
aI3478
aI45
aI316
aI618
aI45
aI3
aI78
aI63765
asg6
S'He began using an open-topped papal car  saying that he wanted to be closer to the people .'
p11
ss.