(dp1
S'input'
p2
(dp3
S'encoded'
p4
(lp5
I64
aI2179
aI394
aI16756
aI20435
asS'ori'
p6
S'This house would criminalize blasphemy'
p7
ssS'output'
p8
(dp9
g4
(lp10
I2161
aI7
aI62920
aI28547
aI1075
aI62921
aI55
aI871
aI89
aI2029
aI63
aI2219
aI24
aI2756
aI45
aI591
aI3757
aI45
aI31366
aI14
aI10571
aI63765
asg6
S"Minister of Menkon Info Muhammad Nuh has passed a bill that forces 146 ISP's in Indonesia to block access to YouTube on Monday ."
p11
ss.