(dp1
S'input'
p2
(dp3
S'encoded'
p4
(lp5
I64
aI2179
aI43
aI63
aI3
aI4538
aI7
aI4434
aI7793
aI283
aI45
aI3586
aI417
aI316
aI577
asS'ori'
p6
S'This house believes that the sale of violent video games to minors should be banned'
p7
ssS'output'
p8
(dp9
g4
(lp10
I60
aI3
aI4038
aI7
aI11939
aI7607
aI283
aI139
aI2056
aI316
aI2757
aI19
aI2816
aI2938
aI5
aI113
aI5217
aI63765
asg6
S'With the advent of Cloud Gaming high-performance games can now be played from low-end client systems and even TVs  .'
p11
ss.