(dp1
S'input'
p2
(dp3
S'encoded'
p4
(lp5
I64
aI2179
aI43
aI24
aI3
aI475
aI7
aI12436
aI3364
asS'ori'
p6
S'This house believes in the use of affirmative action'
p7
ssS'output'
p8
(dp9
g4
(lp10
I100
aI189
aI1515
aI41
aI12436
aI3364
aI159
aI41
aI10250
aI5896
aI73
aI4583
aI5896
aI34
aI954
aI10252
aI11
aI12
aI3531
aI41
aI89
aI399
aI7
aI63765
asg6
S'Some policies adopted as affirmative action  such as racial quotas or gender quotas for collegiate admission  have been criticized as a form of "reverse discrimination"  .'
p11
ss.