(dp1
S'input'
p2
(dp3
S'encoded'
p4
(lp5
I64
aI2179
aI394
aI2017
aI223
aI9058
aI23653
asS'ori'
p6
S'This house would ban all unsustainable logging'
p7
ssS'output'
p8
(dp9
g4
(lp10
I3
aI9071
aI1978
aI426
aI7798
aI7
aI29555
aI458
aI24
aI667
aI6113
aI53
aI75
aI2827
aI1640
aI2439
aI366
aI3925
aI3
aI6635
aI767
aI4938
aI7
aI3
aI8158
aI38365
aI6797
aI382
aI8233
aI45
aI7798
aI75
aI3
aI12417
aI63765
asg6
S'The fastest ever recorded extinction of megafauna occurred in New Zealand  where by 1500 AD  just 200 years after settling the islands  ten species of the giant moa birds were hunted to extinction by the Maori  .'
p11
ss.