(dp1
S'input'
p2
(dp3
S'encoded'
p4
(lp5
I64
aI2179
aI394
aI5370
aI223
aI4013
aI10440
aI2446
aI4881
aI75
aI14482
aI11004
asS'ori'
p6
S'This house would abolish all collective bargaining rights claimed by trades unions'
p7
ssS'output'
p8
(dp9
g4
(lp10
I1381
aI5947
aI382
aI99
aI5309
aI24
aI3
aI2131
aI3386
aI6941
aI81
aI2343
aI3
aI2131
aI1607
aI89
aI1445
aI696
aI7
aI5946
aI736
aI3
aI965
aI5428
aI910
aI63765
asg6
S'Although Asians were not welcomed in the union  black workers who joined the union brought a large number of blacks into the white labour movement .'
p11
ss.