(dp1
S'input'
p2
(dp3
S'encoded'
p4
(lp5
I64
aI2179
aI43
aI63
aI3
aI4990
aI4991
aI116
aI4850
aI24
aI12166
aI3
aI475
aI7
aI3532
aI3290
aI7
aI4714
asS'ori'
p6
S'This house believes that the Catholic Church is justified in forbidding the use of barrier methods of contraception'
p7
ssS'output'
p8
(dp9
g4
(lp10
I5319
aI4302
aI3
aI4990
aI4991
aI604
aI134
aI547
aI3
aI3492
aI369
aI21109
aI5
aI6530
aI7
aI16423
aI21110
aI159
aI41
aI21111
aI5
aI21112
aI21113
aI5
aI21114
aI8379
aI611
aI736
aI3
aI4991
aI63765
asg6
S'Protestants criticize the Catholic Church because it allowed the traditional Roman mysteries and deities of solar monism such as Mithras and Sol Invictus and idol worship back into the church  .'
p11
ss.