(dp1
S'input'
p2
(dp3
S'encoded'
p4
(lp5
I64
aI2179
aI394
aI5370
aI7146
aI4585
aI2446
asS'ori'
p6
S'This house would abolish intellectual property rights'
p7
ssS'output'
p8
(dp9
g4
(lp10
I252
aI89
aI16306
aI998
aI45
aI24228
aI7243
aI7
aI16251
aI413
aI620
aI12717
aI273
aI394
aI316
aI207
aI16
aI191
aI45
aI3051
aI5
aI95
aI394
aI1068
aI45
aI316
aI906
aI75
aI89
aI3984
aI34
aI2059
aI19
aI1719
aI10459
aI12716
aI73
aI120
aI1031
aI45
aI3322
aI563
aI566
aI8987
aI14
aI63765
asg6
S'Without a feasible way to recoup investments of creative time through copyright  there would be little economic incentive to produce and works would need to be motivated by a desire for fame from already affluent authors or those able to obtain patronage (with associated constraints on independence) .'
p11
ss.