(dp1
S'input'
p2
(dp3
S'encoded'
p4
(lp5
I64
aI2179
aI43
aI3
aI626
aI187
aI116
aI1989
aI34
aI3102
aI2223
asS'ori'
p6
S"This house believes the United States is responsible for Mexico's drugs war"
p7
ssS'output'
p8
(dp9
g4
(lp10
I311
aI870
aI2596
aI1157
aI5
aI8793
aI2613
aI8679
aI11
aI685
aI2697
aI24
aI3912
aI5025
aI2138
aI63765
asg6
S'At least nine Mexican and Colombian drug cartels have established bases in 11 West African nations  .'
p11
ss.