(dp1
S'input'
p2
(dp3
S'encoded'
p4
(lp5
I64
aI2179
aI43
aI223
aI2138
aI11
aI89
aI21
aI45
aI2185
aI372
asS'ori'
p6
S'This house believes all nations have a right to nuclear weapons'
p7
ssS'output'
p8
(dp9
g4
(lp10
I155
aI3
aI260
aI45
aI42353
aI89
aI7074
aI45
aI1233
aI89
aI2453
aI5660
aI2185
aI546
aI1344
aI3
aI4649
aI24
aI4568
aI4569
aI63765
asg6
S'They "want the government to scrap a plan to operate a newly constructed nuclear power plant - the fourth in densely populated Taiwan" .'
p11
ss.