(dp1
S'input'
p2
(dp3
S'encoded'
p4
(lp5
I64
aI2179
aI43
aI63
aI3376
aI4938
aI417
aI316
aI3537
asS'ori'
p6
S'This house believes that endangered species should be protected'
p7
ssS'output'
p8
(dp9
g4
(lp10
I217
aI1032
aI351
aI4938
aI63
aI116
aI121
aI45
aI3514
aI73
aI22182
aI24
aI211
aI3216
aI5
aI121
aI45
aI831
aI45
aI89
aI667
aI3216
aI53
aI134
aI139
aI1453
aI87
aI3821
aI864
aI5
aI1577
aI7862
aI63765
asg6
S'Most simply  any species that is unable to survive or reproduce in its environment  and unable to move to a new environment where it can do so  dies out and becomes extinct .'
p11
ss.