(dp1
S'input'
p2
(dp3
S'encoded'
p4
(lp5
I64
aI2179
aI43
aI24
aI3
aI475
aI7
aI12436
aI3364
asS'ori'
p6
S'This house believes in the use of affirmative action'
p7
ssS'output'
p8
(dp9
g4
(lp10
I13246
aI19858
aI12395
aI5
aI12511
aI3136
aI637
aI1233
aI24
aI3
aI626
aI187
aI63765
asg6
S'Supremacist  separatist  racist  and hate groups still operate in the United States .'
p11
ss.