(dp1
S'input'
p2
(dp3
S'encoded'
p4
(lp5
I64
aI2179
aI394
aI16756
aI20435
asS'ori'
p6
S'This house would criminalize blasphemy'
p7
ssS'output'
p8
(dp9
g4
(lp10
I51
aI2784
aI7
aI3695
aI10852
aI10971
aI2784
aI1629
aI89
aI1184
aI7
aI11202
aI34
aI20535
aI3
aI10971
aI7
aI3
aI1447
aI20536
aI63765
asg6
S'An Act of Edward VI (the Sacrament Act 1547) set a punishment of imprisonment for reviling the sacrament of the Last Supper .'
p11
ss.