(dp1
S'input'
p2
(dp3
S'encoded'
p4
(lp5
I64
aI2179
aI394
aI16756
aI20435
asS'ori'
p6
S'This house would criminalize blasphemy'
p7
ssS'output'
p8
(dp9
g4
(lp10
I2763
aI2022
aI20532
aI21484
aI25116
aI55
aI5953
aI63
aI6048
aI3024
aI84
aI182
aI31462
aI75
aI3
aI10540
aI7
aI3
aI6048
aI3024
aI63765
asg6
S'Al-Menbar Islamic Society MP Mohammed Khaled has demanded that Arab leaders take action: "We are stunned by the silence of the Arab leaders .'
p11
ss.