(dp1
S'input'
p2
(dp3
S'encoded'
p4
(lp5
I64
aI2179
aI43
aI63
aI2659
aI417
aI1690
aI3
aI12048
aI7
aI19084
asS'ori'
p6
S'This house believes that Israel should lift the blockade of Gaza'
p7
ssS'output'
p8
(dp9
g4
(lp10
I3
aI6056
aI2789
aI7
aI3
aI2130
aI382
aI41
aI63765
asg6
S'The Israeli members of the commission were as follows:  .'
p11
ss.