(dp1
S'input'
p2
(dp3
S'encoded'
p4
(lp5
I64
aI2179
aI43
aI63
aI187
aI417
aI99
aI16642
aI3
aI6449
aI7
aI3935
asS'ori'
p6
S'This house believes that states should not subsidize the growing of tobacco'
p7
ssS'output'
p8
(dp9
g4
(lp10
I4697
aI7
aI25211
aI116
aI2151
aI2900
aI166
aI24
aI1036
aI14832
aI2449
aI45
aI5
aI116
aI89
aI1277
aI5085
aI850
aI14987
aI14988
aI63765
asg6
S'Incidence of impotence is approximately 85 percent higher in male smokers compared to non-smokers  and is a key factor causing erectile dysfunction (ED)  .'
p11
ss.