(dp1
S'input'
p2
(dp3
S'encoded'
p4
(lp5
I64
aI2179
aI43
aI63
aI2157
aI2565
aI493
aI19084
aI382
aI4850
asS'ori'
p6
S"This house believes that Israel's 2008-2009 military operations against Gaza were justified"
p7
ssS'output'
p8
(dp9
g4
(lp10
I3
aI5496
aI7
aI2135
aI2181
aI742
aI24
aI89
aI2961
aI4515
aI260
aI7
aI6112
aI116
aI2853
aI289
aI3
aI2157
aI3099
aI24
aI3
aI19084
aI966
aI63
aI55
aI1404
aI1793
aI6043
aI5
aI7371
aI960
aI60
aI29187
aI4779
aI7
aI89
aI1993
aI2893
aI63765
asg6
S'|- The Ministry of Foreign Affairs said in a press release "The Government of Nepal is concerned over the military operation in the Gaza Strip that has caused considerable casualties and material damage with attendant risks of a grave humanitarian catastrophe" .'
p11
ss.