(dp1
S'input'
p2
(dp3
S'encoded'
p4
(lp5
I64
aI2179
aI43
aI63
aI3
aI4538
aI7
aI4434
aI7793
aI283
aI45
aI3586
aI417
aI316
aI577
asS'ori'
p6
S'This house believes that the sale of violent video games to minors should be banned'
p7
ssS'output'
p8
(dp9
g4
(lp10
I685
aI24
aI3
aI145
aI122
aI1881
aI45
aI1616
aI223
aI2145
aI63765
aI5169
aI7
aI283
aI34
aI3
aI29335
aI4988
aI319
aI29328
aI5
aI29335
aI29209
aI63765
asg6
S'Established in 1993  the system was intended to cover all U .S . releases of games for the Sega Genesis  Game Gear and Sega CD .'
p11
ss.