(dp1
S'input'
p2
(dp3
S'encoded'
p4
(lp5
I64
aI2179
aI394
aI2017
aI628
asS'ori'
p6
S'This house would ban gambling'
p7
ssS'output'
p8
(dp9
g4
(lp10
I24
aI89
aI667
aI2891
aI3
aI667
aI102
aI628
aI2784
aI55
aI504
aI3
aI4538
aI7
aI14086
aI5930
aI7782
aI19
aI1504
aI34
aI3
aI237
aI413
aI63765
asg6
S'In a new development  the new UK Gambling Act has permitted the sale of charity lottery tickets from machines for the first time .'
p11
ss.