(dp1
S'input'
p2
(dp3
S'encoded'
p4
(lp5
I64
aI2179
aI13605
aI2258
aI45
aI2194
asS'ori'
p6
S'This house prefers trade to aid'
p7
ssS'output'
p8
(dp9
g4
(lp10
I28375
aI3384
aI493
aI1260
aI2258
aI3143
aI17
aI5
aI22
aI4658
aI63
aI16
aI3384
aI1453
aI99
aI4180
aI159
aI41
aI22
aI2465
aI150
aI2702
aI2445
aI2446
aI5
aI6669
aI1795
aI63765
asg6
S'Sociopolitical arguments against free trade cite social and political effects that economic arguments do not capture  such as political stability  national security  human rights and environmental protection .'
p11
ss.