(dp1
S'input'
p2
(dp3
S'encoded'
p4
(lp5
I64
aI2179
aI394
aI4325
aI2042
aI270
aI89
aI11605
aI3324
asS'ori'
p6
S'This house would fund education using a voucher scheme'
p7
ssS'output'
p8
(dp9
g4
(lp10
I24560
aI235
aI13538
aI3
aI11639
aI3264
aI5
aI8514
aI3
aI569
aI4262
aI41
aI89
aI748
aI4834
aI63765
asg6
S'" Barr supports repealing the Sixteenth Amendment and mentions the Fair Tax as a possible alternative .'
p11
ss.