(dp1
S'input'
p2
(dp3
S'encoded'
p4
(lp5
I64
aI2179
aI394
aI190
aI3
aI21
aI45
aI3895
aI834
asS'ori'
p6
S'This house would limit the right to bear arms'
p7
ssS'output'
p8
(dp9
g4
(lp10
I89
aI12974
aI143
aI221
aI75
aI3
aI13650
aI122
aI45
aI2802
aI3
aI4588
aI7
aI3
aI260
aI5359
aI89
aI21
aI19
aI211
aI2144
aI204
aI24
aI89
aI2369
aI6210
aI887
aI4275
aI63
aI443
aI2446
aI417
aI1978
aI316
aI547
aI45
aI316
aI788
aI1931
aI75
aI3
aI260
aI63765
asg6
S'A decisive argument made by the pro-gun campaigners was to question the morality of the government removing a right from its citizens  resulting in a strong feeling among voters that no rights should ever be allowed to be taken away by the government  .'
p11
ss.