(dp1
S'input'
p2
(dp3
S'encoded'
p4
(lp5
I64
aI2179
aI394
aI2773
aI12505
asS'ori'
p6
S'This house would embrace multiculturalism'
p7
ssS'output'
p8
(dp9
g4
(lp10
I378
aI41
aI3616
aI435
aI3369
aI61
aI5084
aI1453
aI2233
aI687
aI3
aI7724
aI41
aI3
aI34
aI12480
aI80
aI63764
asg6
S'However  as Judith Butler questions  "at what cost do I establish the familiar as the criterion" for valuing others ?'
p11
ss.