(dp1
S'input'
p2
(dp3
S'encoded'
p4
(lp5
I64
aI2179
aI394
aI2773
aI12505
asS'ori'
p6
S'This house would embrace multiculturalism'
p7
ssS'output'
p8
(dp9
g4
(lp10
I1920
aI93
aI3854
aI7
aI912
aI8446
aI2598
aI11
aI32234
aI19
aI809
aI943
aI2131
aI24
aI3
aI1447
aI267
aI3
aI8446
aI2598
aI1501
aI248
aI5275
aI159
aI41
aI37983
aI526
aI7
aI2598
aI116
aI6048
aI63765
asg6
S"Nevertheless  one fifth of current Israel's Jewish population have immigrated from former Soviet Union in the last two decades; The Jewish population includes other minorities such as Haredi Jews; Furthermore  20% of Israel's population is Arab ."
p11
ss.