(dp1
S'input'
p2
(dp3
S'encoded'
p4
(lp5
I64
aI2179
aI43
aI63
aI2157
aI2565
aI493
aI19084
aI382
aI4850
asS'ori'
p6
S"This house believes that Israel's 2008-2009 military operations against Gaza were justified"
p7
ssS'output'
p8
(dp9
g4
(lp10
I34
aI3
aI237
aI413
aI3
aI31163
aI31164
aI29333
aI3073
aI8056
aI5
aI145
aI6212
aI3
aI13656
aI5737
aI736
aI3
aI164
aI2923
aI63765
asg6
S"For the first time  the Sheder Ham digitized data  mapping  and command-and-control system linked the Artillery Corps into the Army's overall C4I network  ."
p11
ss.