(dp1
S'input'
p2
(dp3
S'encoded'
p4
(lp5
I64
aI2179
aI235
aI3858
aI3
aI2240
aI4527
aI3485
aI45
asS'ori'
p6
S'This house supports raising the school leaving age to 18'
p7
ssS'output'
p8
(dp9
g4
(lp10
I24
aI217
aI3950
aI5207
aI2938
aI7
aI3
aI285
aI6954
aI2042
aI17979
aI3
aI2488
aI2042
aI63
aI985
aI397
aI5030
aI63765
asg6
S'In most contemporary educational systems of the world  secondary education comprises the formal education that occurs during adolescence .'
p11
ss.