(dp1
S'input'
p2
(dp3
S'encoded'
p4
(lp5
I64
aI2179
aI394
aI2998
aI3
aI4360
aI7
aI3249
aI6804
aI24
aI3
aI102
asS'ori'
p6
S'This house would encourage the creation of private universities in the UK'
p7
ssS'output'
p8
(dp9
g4
(lp10
I14054
aI5
aI11192
aI182
aI14054
aI116
aI3
aI809
aI7693
aI2217
aI7
aI3
aI8928
aI94
aI5
aI89
aI12857
aI7
aI14062
aI51
aI903
aI6954
aI2240
aI5
aI11192
aI116
aI3
aI8893
aI7
aI14063
aI6801
aI2938
aI63765
asg6
S'Batstone and Brown are non-executive directors; Batstone is the former marketing chief of the Economist Group and a trustee of Bedales  an independent secondary school  and Brown is the founder of Metier Management Systems  .'
p11
ss.