(dp1
S'input'
p2
(dp3
S'encoded'
p4
(lp5
I64
aI2179
aI235
aI3
aI2136
aI7
aI3
aI2306
aI7
aI2390
asS'ori'
p6
S'This house supports the one-child policy of the republic of China'
p7
ssS'output'
p8
(dp9
g4
(lp10
I3
aI2445
aI2446
aI7
aI3495
aI1074
aI271
aI21
aI45
aI11
aI708
aI289
aI5
aI790
aI3465
aI5
aI13739
aI14
aI4114
aI3365
aI45
aI271
aI10953
asg6
S'The human rights of women include their right to have control over and decide freely and responsibly on matters related to their sexuality'
p11
ss.