(dp1
S'input'
p2
(dp3
S'encoded'
p4
(lp5
I64
aI2179
aI394
aI2017
aI223
aI9058
aI23653
asS'ori'
p6
S'This house would ban all unsustainable logging'
p7
ssS'output'
p8
(dp9
g4
(lp10
I18865
aI182
aI2801
aI736
aI384
aI24693
aI73
aI23593
aI60
aI6741
aI3550
aI736
aI89
aI1673
aI1177
aI19
aI3
aI1200
aI7
aI3
aI8100
aI45
aI3
aI19924
aI574
aI20286
aI116
aI89
aI2556
aI7864
aI2178
aI4946
aI384
aI4975
aI5
aI3921
aI10797
aI34
aI3269
aI24
aI63
aI1341
aI24693
aI63765
asg6
S'Rainforests are divided into different strata  or layers  with vegetation organized into a vertical pattern from the top of the soil to the canopy Each layer is a unique biotic community containing different plants and animals adapted for life in that particular strata .'
p11
ss.