(dp1
S'input'
p2
(dp3
S'encoded'
p4
(lp5
I64
aI2179
aI43
aI63
aI187
aI417
aI99
aI16642
aI3
aI6449
aI7
aI3935
asS'ori'
p6
S'This house believes that states should not subsidize the growing of tobacco'
p7
ssS'output'
p8
(dp9
g4
(lp10
I89
aI5797
aI2273
aI6206
aI19438
aI564
aI565
aI3
aI414
aI13169
aI116
aI451
aI3935
aI45
aI2265
aI24
aI63765
asg6
S'A Frenchman named Jean Nicot (from whose name the word nicotine is derived) introduced tobacco to France in 1560 .'
p11
ss.