(dp1
S'input'
p2
(dp3
S'encoded'
p4
(lp5
I64
aI2179
aI43
aI63
aI1036
aI4828
aI33250
aI116
aI25073
aI45
aI3315
aI4562
asS'ori'
p6
S'This house believes that male infant circumcision is tantamount to child abuse'
p7
ssS'output'
p8
(dp9
g4
(lp10
I155
aI174
aI186
aI63
aI5404
aI2230
aI29213
aI5
aI37790
aI24
aI3
aI34
aI651
aI14612
aI182
aI221
aI545
aI3
aI4659
aI7
aI8833
aI14792
aI1708
aI73
aI8798
aI5
aI63
aI257
aI33250
aI116
aI1038
aI41
aI51
aI37790
aI351
aI6828
aI7
aI20247
aI73
aI38052
aI917
aI7
aI211
aI782
aI14
aI4795
aI4657
aI463
aI316
aI513
aI89
aI2521
aI7
aI3292
aI70
aI63765
asg6
S'They also argue that statements regarding mutilation and amputation in the "Respect for bodily integrity" paragraph are made within the context of kidnapping  hostage taking or torture  and that if circumcision is defined as an amputation  any removal of tissue or follicle  regardless of its effect on functional integrity  could be considered a violation of moral law  .'
p11
ss.