(dp1
S'input'
p2
(dp3
S'encoded'
p4
(lp5
I64
aI2179
aI43
aI63
aI2659
aI417
aI1690
aI3
aI12048
aI7
aI19084
asS'ori'
p6
S'This house believes that Israel should lift the blockade of Gaza'
p7
ssS'output'
p8
(dp9
g4
(lp10
I3
aI5757
aI20193
aI6837
aI12268
aI86
aI916
aI311
aI89
aI5757
aI2674
aI972
aI1548
aI366
aI92
aI3
aI993
aI382
aI788
aI75
aI25058
aI45
aI3644
aI63765
asg6
S'The Turkish Airlines aircraft transporting them landed at a Turkish Air Force base  after which the injured were taken by ambulance to hospital  .'
p11
ss.