(dp1
S'input'
p2
(dp3
S'encoded'
p4
(lp5
I64
aI2179
aI43
aI3
aI626
aI187
aI116
aI1989
aI34
aI3102
aI2223
asS'ori'
p6
S"This house believes the United States is responsible for Mexico's drugs war"
p7
ssS'output'
p8
(dp9
g4
(lp10
I24
aI3069
aI23448
aI221
aI89
aI250
aI60
aI2616
aI5723
aI3
aI6590
aI5
aI691
aI768
aI373
aI8697
aI7
aI271
aI809
aI3
aI2847
aI2616
aI63765
asg6
S'In 2010  Los Zetas made a deal with ex-Sinaloa cartel commanders  the Beltran-Leyva brothers and since then  became rivals of their former employer/partner  the Gulf Cartel  .'
p11
ss.