(dp1
S'input'
p2
(dp3
S'encoded'
p4
(lp5
I64
aI2179
aI235
aI839
aI4168
aI7
aI4996
aI34759
asS'ori'
p6
S'This house supports direct election of city mayors'
p7
ssS'output'
p8
(dp9
g4
(lp10
I14
aI2805
aI35848
aI4996
aI2132
aI3382
aI75
aI45
aI3442
aI89
aI8828
aI252
aI89
aI5325
aI5
aI3
aI2032
aI5325
aI14
aI88
aI47
aI2056
aI316
aI59
aI60
aI3
aI237
aI15778
aI4168
aI63765
asg6
S"On 7 February 2012  Liverpool City Council voted by 62-3 to adopt a directly-elected mayor without a referendum  and the proposed referendum on 3 May will now be replaced with the city's first mayoral election  ."
p11
ss.