(dp1
S'input'
p2
(dp3
S'encoded'
p4
(lp5
I64
aI2179
aI43
aI63
aI187
aI417
aI99
aI16642
aI3
aI6449
aI7
aI3935
asS'ori'
p6
S'This house believes that states should not subsidize the growing of tobacco'
p7
ssS'output'
p8
(dp9
g4
(lp10
I311
aI3
aI1643
aI413
aI49577
aI19
aI2662
aI1607
aI3935
aI45
aI3
aI2506
aI589
aI16961
aI5
aI3
aI10066
aI1607
aI3
aI2191
aI3
aI45
aI4232
aI2404
aI4717
aI3
aI678
aI7
aI3935
aI638
aI223
aI7
aI2404
aI75
aI3
aI63765
asg6
S'At the same time caravans from Morocco brought tobacco to the areas around Timbuktu and the Portuguese brought the commodity (and the plant) to southern Africa  establishing the popularity of tobacco throughout all of Africa by the 1650s .'
p11
ss.