(dp1
S'input'
p2
(dp3
S'encoded'
p4
(lp5
I64
aI2179
aI43
aI63
aI3
aI4990
aI4991
aI116
aI4850
aI24
aI12166
aI3
aI475
aI7
aI3532
aI3290
aI7
aI4714
asS'ori'
p6
S'This house believes that the Catholic Church is justified in forbidding the use of barrier methods of contraception'
p7
ssS'output'
p8
(dp9
g4
(lp10
I751
aI14959
aI8803
aI4948
aI9247
aI88
aI8377
aI61
aI4948
aI155
aI47
aI5
aI47
aI99
aI268
aI24
aI5
aI61
aI1450
aI155
aI47
aI84
aI63765
asg6
S'Before initiating sexual activities  partners may discuss what activities they will and will not engage in  and what precautions they will take .'
p11
ss.