(dp1
S'input'
p2
(dp3
S'encoded'
p4
(lp5
I64
aI2179
aI394
aI163
aI959
aI2042
aI3557
asS'ori'
p6
S'This house would make physical education compulsory'
p7
ssS'output'
p8
(dp9
g4
(lp10
I24
aI188
aI4364
aI4358
aI182
aI575
aI3896
aI34
aI271
aI284
aI2042
aI63765
asg6
S'In democratic schools  students are given responsibility for their own education .'
p11
ss.