(dp1
S'input'
p2
(dp3
S'encoded'
p4
(lp5
I64
aI2179
aI43
aI63
aI134
aI116
aI400
aI21
aI34
aI3
aI260
aI45
aI3439
aI57
aI7
aI2381
asS'ori'
p6
S'This house believes that it is sometimes right for the government to restrict freedom of speech'
p7
ssS'output'
p8
(dp9
g4
(lp10
I3
aI14942
aI297
aI45
aI6726
aI3
aI2860
aI24
aI5
aI24
aI2779
aI3
aI14942
aI2435
aI56
aI3
aI3657
aI63
aI4544
aI3
aI2860
aI63765
asg6
S'The FCC decided to eliminate the Doctrine in 1987  and in August 2011 the FCC formally removed the language that implemented the Doctrine  .'
p11
ss.