(dp1
S'input'
p2
(dp3
S'encoded'
p4
(lp5
I64
aI2179
aI43
aI223
aI2138
aI11
aI89
aI21
aI45
aI2185
aI372
asS'ori'
p6
S'This house believes all nations have a right to nuclear weapons'
p7
ssS'output'
p8
(dp9
g4
(lp10
I257
aI3
aI2128
aI23335
aI4268
aI5
aI3
aI448
aI2333
aI16373
aI3
aI3393
aI34
aI3834
aI3
aI10
aI83
aI768
aI5744
aI211
aI2889
aI7
aI317
aI7
aI3
aI27120
aI3304
aI45
aI3
aI626
aI187
aI92
aI5371
aI41
aI3
aI59893
aI260
aI34
aI3
aI27120
aI3304
aI63765
asg6
S'If the Board recommends approval  and the General Conference approves the application for membership  the State must then submit its instrument of acceptance of the IAEA Statute to the United States  which functions as the depositary Government for the IAEA Statute .'
p11
ss.