(dp1
S'input'
p2
(dp3
S'encoded'
p4
(lp5
I64
aI2179
aI394
aI2741
aI3
aI1560
aI6025
aI2784
asS'ori'
p6
S'This house would pass the American Jobs Act'
p7
ssS'output'
p8
(dp9
g4
(lp10
I691
aI3
aI5099
aI7
aI3
aI325
aI8959
aI196
aI5
aI30544
aI2363
aI24
aI3
aI2145
aI63765
aI11
aI485
aI30545
aI177
aI63765
asg6
S'Since the start of the great recession  unemployment and underemployment levels in the U .S . have remained stubbornly high .'
p11
ss.