(dp1
S'input'
p2
(dp3
S'encoded'
p4
(lp5
I64
aI2179
aI394
aI163
aI959
aI2042
aI3557
asS'ori'
p6
S'This house would make physical education compulsory'
p7
ssS'output'
p8
(dp9
g4
(lp10
I10596
aI5
aI248
aI2186
aI88
aI316
aI1445
aI1356
aI7
aI12705
aI6227
aI3862
aI63765
asg6
S'TV and other technology may be large factors of physically inactive children .'
p11
ss.