(dp1
S'input'
p2
(dp3
S'encoded'
p4
(lp5
I64
aI2179
aI43
aI17
aI4941
aI857
aI3211
asS'ori'
p6
S'This house believes social deprivation causes crime'
p7
ssS'output'
p8
(dp9
g4
(lp10
I24
aI2223
aI751
aI10065
aI11895
aI3521
aI63765
aI57944
aI89
aI2999
aI311
aI3
aI4750
aI7
aI3882
aI22557
aI63
aI7
aI6419
aI5989
aI382
aI311
aI2223
aI136
aI138
aI374
aI4386
aI3569
aI5
aI100
aI7
aI86
aI382
aI332
aI14673
aI63765
asg6
S'In War Before Civilization  Lawrence H . Keeley  a professor at the University of Illinois  calculates that 87% of tribal societies were at war more than once per year  and some 65% of them were fighting continuously .'
p11
ss.