(dp1
S'input'
p2
(dp3
S'encoded'
p4
(lp5
I64
aI2179
aI394
aI2773
aI12505
asS'ori'
p6
S'This house would embrace multiculturalism'
p7
ssS'output'
p8
(dp9
g4
(lp10
I10070
aI78
aI11
aI3
aI21
aI45
aI1049
aI5
aI3253
aI271
aI1261
aI22
aI976
aI16
aI17
aI5
aI2637
aI2825
aI226
aI5360
aI271
aI21
aI45
aI6004
aI1518
aI257
aI155
aI87
aI4574
aI24
aI3
aI22
aI16
aI17
aI5
aI2637
aI3269
aI7
aI3
aI10
aI63765
asg6
S'Indigenous people have the right to maintain and strengthen their distinct political  legal  economic  social and cultural institutions  while retaining their right to participate fully  if they so choose  in the political  economic  social and cultural life of the State .'
p11
ss.