(dp1
S'input'
p2
(dp3
S'encoded'
p4
(lp5
I64
aI2179
aI43
aI3
aI626
aI187
aI116
aI1989
aI34
aI3102
aI2223
asS'ori'
p6
S"This house believes the United States is responsible for Mexico's drugs war"
p7
ssS'output'
p8
(dp9
g4
(lp10
I1237
aI2478
aI11
aI4881
aI63
aI3
aI2028
aI122
aI45
aI11955
aI3
aI23373
aI5938
aI4024
aI41
aI51
aI2419
aI7
aI23374
aI4167
aI10190
aI4247
aI20204
aI5
aI3
aI12738
aI23375
aI3874
aI63765
asg6
S'Several scholars have claimed that the goal was to destroy the hemp industry  largely as an effort of businessmen Andrew Mellon  Randolph Hearst  and the Du Pont family  .'
p11
ss.