(dp1
S'input'
p2
(dp3
S'encoded'
p4
(lp5
I64
aI2179
aI43
aI17
aI4941
aI857
aI3211
asS'ori'
p6
S'This house believes social deprivation causes crime'
p7
ssS'output'
p8
(dp9
g4
(lp10
I3718
aI147
aI268
aI24
aI27623
aI12375
aI298
aI271
aI258
aI1453
aI99
aI303
aI271
aI2170
aI63765
asg6
S'Similarly  individuals engage in deviant behaviors when their means do not match their goals  .'
p11
ss.