(dp1
S'input'
p2
(dp3
S'encoded'
p4
(lp5
I64
aI2179
aI43
aI63
aI3376
aI4938
aI417
aI316
aI3537
asS'ori'
p6
S'This house believes that endangered species should be protected'
p7
ssS'output'
p8
(dp9
g4
(lp10
I136
aI994
aI3
aI2994
aI7
aI4938
aI7831
aI311
aI713
aI116
aI2845
aI311
aI45
aI1727
aI73
aI582
aI7798
aI2722
aI24
aI3
aI7824
aI413
aI6684
aI7
aI7375
aI6267
aI63765
asg6
S'More significantly the rate of species extinctions at present is estimated at 100 to 1000 times "background" or average extinction rates in the evolutionary time scale of planet Earth  .'
p11
ss.