(dp1
S'input'
p2
(dp3
S'encoded'
p4
(lp5
I64
aI2179
aI394
aI60
aI23587
asS'ori'
p6
S'This house would re-engage with Myanmar'
p7
ssS'output'
p8
(dp9
g4
(lp10
I378
aI3
aI2157
aI6073
aI3763
aI45
aI19083
aI546
aI5
aI634
aI45
aI306
aI3
aI2548
aI41
aI60704
aI487
aI5
aI768
aI41
aI3
aI10
aI2250
aI5
aI2891
aI2132
aI487
aI211
aI24031
aI24
aI2927
aI63765
asg6
S'However  the military junta refused to cede power and continued to rule the nation as SLORC until 1997  and then as the State Peace and Development Council (SPDC) until its dissolution in March 2011 .'
p11
ss.