(dp1
S'input'
p2
(dp3
S'encoded'
p4
(lp5
I64
aI2179
aI394
aI16756
aI20435
asS'ori'
p6
S'This house would criminalize blasphemy'
p7
ssS'output'
p8
(dp9
g4
(lp10
I3
aI117
aI3009
aI7795
aI691
aI122
aI24
aI298
aI495
aI61522
aI1607
aI89
aI3249
aI7795
aI493
aI903
aI10591
aI5
aI1156
aI903
aI2018
aI29843
aI48048
aI34
aI51
aI7066
aI10648
aI480
aI397
aI3
aI9853
aI5325
aI92
aI333
aI3
aI260
aI3024
aI61523
aI89
aI4990
aI6423
aI81
aI122
aI795
aI864
aI89
aI10695
aI50852
aI63765
asg6
S"The only attempted prosecution since 1855 was in 1999  when John Corway brought a private prosecution against Independent Newspapers and Irish Independent editor Aengus Fanning for an editorial cartoon published during the 1995 divorce referendum  which depicted the government parties' leaders snubbing a Catholic priest who was holding out a Communion wafer  ."
p11
ss.