(dp1
S'input'
p2
(dp3
S'encoded'
p4
(lp5
I64
aI2179
aI43
aI24
aI3
aI475
aI7
aI12436
aI3364
asS'ori'
p6
S'This house believes in the use of affirmative action'
p7
ssS'output'
p8
(dp9
g4
(lp10
I5756
aI78
aI3498
aI89
aI384
aI12909
aI138
aI41
aI261
aI41
aI2318
aI5947
aI7
aI384
aI4067
aI5786
aI5
aI11
aI12
aI33900
aI41
aI63765
asg6
S'Iranian people (who constitute a different ethnicity than Arabs)  as well as South Asians of different ethnic/religious backgrounds (Hindus  Muslims and Sikhs) have been stereotyped as "Arabs" .'
p11
ss.