(dp1
S'input'
p2
(dp3
S'encoded'
p4
(lp5
I64
aI2179
aI394
aI16756
aI20435
asS'ori'
p6
S'This house would criminalize blasphemy'
p7
ssS'output'
p8
(dp9
g4
(lp10
I4138
aI20479
aI742
aI63
aI24
aI25
aI4605
aI3
aI8
aI70
aI7
aI20435
aI122
aI1956
aI18459
aI24
aI3500
aI7
aI10452
aI7
aI3
aI3135
aI70
aI3355
aI13859
aI92
aI63765
asg6
S"Lord Scarman said that in his judgement the modern law of blasphemy was correctly formulated in article 214 of Stephen's Digest of the Criminal Law  Ninth Edition  1950  which reads:  ."
p11
ss.