(dp1
S'input'
p2
(dp3
S'encoded'
p4
(lp5
I64
aI2179
aI43
aI63
aI3
aI21
aI45
aI12715
aI417
aI99
aI316
aI2897
asS'ori'
p6
S'This house believes that the right to asylum should not be absolute'
p7
ssS'output'
p8
(dp9
g4
(lp10
I3082
aI273
aI394
aI316
aI117
aI16761
aI1841
aI24
aI620
aI120
aI7731
aI8856
aI45
aI2986
aI3
aI1685
aI588
aI7
aI223
aI64
aI5892
aI5
aI5118
aI5893
aI60
aI211
aI29187
aI29037
aI45
aI223
aI3
aI248
aI4224
aI81
aI4564
aI45
aI3218
aI15207
aI63765
asg6
S'Therefore  there would be only 1 139 aliens coming in through those eighty ports to justify the setting up of all this elaborate and costly machinery  with its attendant inconvenience to all the other persons who travel to our shores .'
p11
ss.