(dp1
S'input'
p2
(dp3
S'encoded'
p4
(lp5
I64
aI2179
aI394
aI4325
aI2042
aI270
aI89
aI11605
aI3324
asS'ori'
p6
S'This house would fund education using a voucher scheme'
p7
ssS'output'
p8
(dp9
g4
(lp10
I89
aI570
aI145
aI139
aI316
aI353
aI24
aI2265
aI53
aI1260
aI3315
aI85
aI4367
aI1047
aI41
aI5876
aI1102
aI45
aI7
aI4169
aI3862
aI5755
aI2439
aI5545
aI63765
asg6
S'A similar system can be found in France  where free  full-day child care centers known as "ecoles maternelles" enroll close to 100% of French children ages 35 years old .'
p11
ss.