(dp1
S'input'
p2
(dp3
S'encoded'
p4
(lp5
I64
aI2179
aI43
aI63
aI3
aI21
aI45
aI12715
aI417
aI99
aI316
aI2897
asS'ori'
p6
S'This house believes that the right to asylum should not be absolute'
p7
ssS'output'
p8
(dp9
g4
(lp10
I2223
aI1607
aI60
aI134
aI667
aI5148
aI2280
aI92
aI7367
aI63
aI3
aI2610
aI3987
aI2056
aI41
aI261
aI41
aI859
aI45
aI708
aI3
aI9107
aI7
aI89
aI7622
aI7
aI7479
aI78
aI440
aI45
aI9385
aI442
aI14
aI9189
aI1256
aI34
aI223
aI78
aI4527
aI3
aI102
aI5
aI45
aI84
aI14
aI3
aI516
aI79
aI7
aI40703
aI100
aI7254
aI16761
aI63765
asg6
S'War brought with it new emergency powers which meant that the Immigration Service now  as well as continuing to control the entry of a wave of displaced people  had to enforce rules on exit permits for all people leaving the UK and to take on the additional work of repatriating some enemy aliens .'
p11
ss.