(dp1
S'input'
p2
(dp3
S'encoded'
p4
(lp5
I64
aI2179
aI43
aI63
aI134
aI116
aI400
aI21
aI34
aI3
aI260
aI45
aI3439
aI57
aI7
aI2381
asS'ori'
p6
S'This house believes that it is sometimes right for the government to restrict freedom of speech'
p7
ssS'output'
p8
(dp9
g4
(lp10
I233
aI45
aI3
aI2268
aI7
aI21592
aI3
aI1565
aI2131
aI48189
aI45
aI3
aI1565
aI2533
aI41
aI51
aI4661
aI24
aI211
aI284
aI21
aI1609
aI3
aI2533
aI2473
aI99
aI117
aI14
aI3
aI220
aI7
aI3
aI2544
aI187
aI131
aI174
aI14
aI3
aI38294
aI2825
aI7
aI3
aI2884
aI63765
asg6
S'According to the Treaty of Lisbon  the European Union accedes to the European Convention as an entity in its own right  making the Convention binding not only on the governments of the member states but also on the supranational institutions of the EU .'
p11
ss.