(dp1
S'input'
p2
(dp3
S'encoded'
p4
(lp5
I64
aI2179
aI43
aI63
aI187
aI417
aI99
aI16642
aI3
aI6449
aI7
aI3935
asS'ori'
p6
S'This house believes that states should not subsidize the growing of tobacco'
p7
ssS'output'
p8
(dp9
g4
(lp10
I3
aI2038
aI7
aI206
aI25227
aI116
aI2322
aI60
aI532
aI5
aI5102
aI5
aI14833
aI2156
aI34
aI2900
aI7
aI25227
aI25342
aI63765
asg6
S'The risk of having COPD is increased with amount and duration and smoking accounts for 90 percent of COPD mortalities  .'
p11
ss.