(dp1
S'input'
p2
(dp3
S'encoded'
p4
(lp5
I64
aI2179
aI394
aI190
aI3
aI21
aI45
aI3895
aI834
asS'ori'
p6
S'This house would limit the right to bear arms'
p7
ssS'output'
p8
(dp9
g4
(lp10
I3
aI380
aI1497
aI7
aI2474
aI5
aI2446
aI10001
aI691
aI3
aI17196
aI17197
aI5
aI3
aI28
aI2029
aI7
aI2446
aI124
aI15283
aI60
aI913
aI3757
aI45
aI3892
aI63765
asg6
S'The various pieces of legislation and Rights bills since the Magna Carta and the 1689 English Bill of Rights provide Canadians with limited access to firearms .'
p11
ss.