(dp1
S'input'
p2
(dp3
S'encoded'
p4
(lp5
I64
aI2179
aI43
aI63
aI1036
aI4828
aI33250
aI116
aI25073
aI45
aI3315
aI4562
asS'ori'
p6
S'This house believes that male infant circumcision is tantamount to child abuse'
p7
ssS'output'
p8
(dp9
g4
(lp10
I64
aI55
aI12
aI5022
aI24
aI759
aI45
aI1879
aI13843
aI887
aI3010
aI2625
aI81
aI162
aI1453
aI99
aI34796
aI63765
asg6
S'This has been attributed in part to increasing births among Latin Americans  who usually do not circumcise  .'
p11
ss.