(dp1
S'input'
p2
(dp3
S'encoded'
p4
(lp5
I64
aI2179
aI394
aI15841
aI2736
asS'ori'
p6
S'This house would disband ASEAN'
p7
ssS'output'
p8
(dp9
g4
(lp10
I653
aI2148
aI7576
aI311
aI3
aI2157
aI14
aI2468
aI14153
aI24
aI31858
aI2736
aI55
aI3763
aI45
aI18688
aI3118
aI41
aI89
aI2544
aI5
aI174
aI5577
aI6787
aI34
aI16
aI9991
aI63765
asg6
S'Despite global outrage at the military crack-down on peaceful protesters in Yangon  ASEAN has refused to suspend Burma as a member and also rejects proposals for economic sanctions  .'
p11
ss.