(dp1
S'input'
p2
(dp3
S'encoded'
p4
(lp5
I64
aI2179
aI43
aI63
aI3
aI28431
aI7
aI2157
aI4624
aI75
aI39939
aI27257
aI122
aI4850
asS'ori'
p6
S'This house believes that the leaking of military documents by Anat Kamm was justified'
p7
ssS'output'
p8
(dp9
g4
(lp10
I14
aI2779
aI2201
aI5162
aI89
aI692
aI3234
aI30405
aI30404
aI2569
aI4624
aI92
aI5870
aI2372
aI4624
aI2230
aI3
aI10729
aI2124
aI63765
asg6
S'On 20 August 2010  WikiLeaks released a publication entitled Loveparade 2010 Duisburg planning documents  20072010  which comprised 43 internal documents regarding the Love Parade 2010  .'
p11
ss.