(dp1
S'input'
p2
(dp3
S'encoded'
p4
(lp5
I64
aI2179
aI394
aI16642
aI1376
aI5269
asS'ori'
p6
S'This house would subsidize poor communities'
p7
ssS'output'
p8
(dp9
g4
(lp10
I10400
aI34
aI1886
aI5
aI12623
aI217
aI153
aI1074
aI14166
aI5
aI5107
aI416
aI34
aI6676
aI5
aI34
aI2881
aI23116
aI34
aI5233
aI5
aI5
aI23117
aI2849
aI2880
aI34
aI14162
aI63765
asg6
S'Subsidies for energy and utilities most often include gasoline and diesel used for transport and for electricity generation; kerosene for lighting and heating; and liquefied petroleum gas for cooking .'
p11
ss.