(dp1
S'input'
p2
(dp3
S'encoded'
p4
(lp5
I64
aI2179
aI43
aI63
aI2659
aI417
aI1690
aI3
aI12048
aI7
aI19084
asS'ori'
p6
S'This house believes that Israel should lift the blockade of Gaza'
p7
ssS'output'
p8
(dp9
g4
(lp10
I16619
aI5
aI248
aI11169
aI3136
aI634
aI45
aI4477
aI19357
aI11994
aI967
aI3
aI2581
aI736
aI2659
aI63765
asg6
S'Hamas and other militant groups continued to fire Qassam rockets across the border into Israel .'
p11
ss.