(dp1
S'input'
p2
(dp3
S'encoded'
p4
(lp5
I64
aI2179
aI394
aI117
aI7428
aI21151
aI34
aI11389
aI2042
aI24
aI4364
asS'ori'
p6
S'This house would only teach abstinence for sex education in schools'
p7
ssS'output'
p8
(dp9
g4
(lp10
I2042
aI14
aI21152
aI475
aI6714
aI12375
aI63
aI3226
aI3
aI2038
aI7
aI45876
aI5
aI45877
asg6
S'education on condom use reduces behaviors that increase the risk of breakage and slippage'
p11
ss.