(dp1
S'input'
p2
(dp3
S'encoded'
p4
(lp5
I64
aI2179
aI43
aI24
aI3
aI475
aI7
aI12436
aI3364
asS'ori'
p6
S'This house believes in the use of affirmative action'
p7
ssS'output'
p8
(dp9
g4
(lp10
I78
aI440
aI12024
aI44461
aI14
aI271
aI6408
aI5
aI113
aI6955
aI9257
aI14
aI86
aI63765
asg6
S'People had poured ketchup on their heads  and even burned cigarettes on them .'
p11
ss.