(dp1
S'input'
p2
(dp3
S'encoded'
p4
(lp5
I64
aI2179
aI394
aI5284
aI150
aI3987
asS'ori'
p6
S'This house would reintroduce national service'
p7
ssS'output'
p8
(dp9
g4
(lp10
I6111
aI2306
aI5585
aI63765
asg6
S'|- Moldova 33 371 $5 357 $978 .36 4 314 377 republic Yes  .'
p11
ss.