(dp1
S'input'
p2
(dp3
S'encoded'
p4
(lp5
I64
aI2179
aI394
aI5284
aI150
aI3987
asS'ori'
p6
S'This house would reintroduce national service'
p7
ssS'output'
p8
(dp9
g4
(lp10
I6269
aI273
aI122
aI100
aI3609
aI45
aI3
aI5262
aI113
aI751
aI3
aI281
aI2145
aI63765
aI3186
aI24
aI3
aI2790
aI2223
aI2586
aI63765
asg6
S'Consequently  there was some opposition to the draft even before the major U .S . involvement in the Vietnam War began .'
p11
ss.