(dp1
S'input'
p2
(dp3
S'encoded'
p4
(lp5
I64
aI2179
aI394
aI2773
aI12505
asS'ori'
p6
S'This house would embrace multiculturalism'
p7
ssS'output'
p8
(dp9
g4
(lp10
I2178
aI116
aI99
aI2676
aI1032
aI14
aI886
aI131
aI14
aI41
aI10234
aI26093
aI4883
aI134
aI6218
aI24
aI2768
aI63765
asg6
S'Community is not built simply on consensus but on  as Paulo Freire put it  unity in diversity .'
p11
ss.