(dp1
S'input'
p2
(dp3
S'encoded'
p4
(lp5
I64
aI2179
aI43
aI63
aI3376
aI4938
aI417
aI316
aI3537
asS'ori'
p6
S'This house believes that endangered species should be protected'
p7
ssS'output'
p8
(dp9
g4
(lp10
I7826
aI3205
aI675
aI19921
aI708
aI8099
aI708
aI15522
aI1795
aI63765
asg6
S'ecosystem services like flood control  pest control  erosion protection  .'
p11
ss.