(dp1
S'input'
p2
(dp3
S'encoded'
p4
(lp5
I64
aI2179
aI43
aI63
aI187
aI417
aI99
aI16642
aI3
aI6449
aI7
aI3935
asS'ori'
p6
S'This house believes that states should not subsidize the growing of tobacco'
p7
ssS'output'
p8
(dp9
g4
(lp10
I4004
aI60
aI13679
aI3
aI2211
aI9368
aI7
aI3
aI6677
aI2029
aI63765
asg6
S'Credited with prioritizing the Senate version of the farm bill .'
p11
ss.