(dp1
S'input'
p2
(dp3
S'encoded'
p4
(lp5
I64
aI2179
aI43
aI63
aI3
aI21
aI45
aI12715
aI417
aI99
aI316
aI2897
asS'ori'
p6
S'This house believes that the right to asylum should not be absolute'
p7
ssS'output'
p8
(dp9
g4
(lp10
I3
aI237
aI2924
aI3581
aI24
aI492
aI2100
aI41
aI5960
aI10403
aI32243
aI6574
aI16962
aI25482
aI2730
aI2450
aI13203
aI23789
aI2980
aI10614
aI6070
aI5
aI6078
aI63765
asg6
S'The first list  enacted in July 2005  included as "safe countries" Benin  Cape Verde  Ghana  Mali  Mauritius Island  India  Senegal  Mongolia  Georgia  Ukraine  Bosnia and Croatia .'
p11
ss.