(dp1
S'input'
p2
(dp3
S'encoded'
p4
(lp5
I64
aI2179
aI43
aI63
aI3376
aI4938
aI417
aI316
aI3537
asS'ori'
p6
S'This house believes that endangered species should be protected'
p7
ssS'output'
p8
(dp9
g4
(lp10
I41
aI159
aI3791
aI7812
aI394
aI96
aI3
aI234
aI7
aI8013
aI8014
aI24
aI25
aI26
aI89
aI1492
aI3342
aI21998
aI63
aI7076
aI182
aI2789
aI7
aI3
aI7864
aI63765
asg6
S'As such Deep Ecology would support the view of Aldo Leopold in his book  A Sand County Almanac that humans are "plain members of the biotic community" .'
p11
ss.