(dp1
S'input'
p2
(dp3
S'encoded'
p4
(lp5
I64
aI2179
aI394
aI5370
aI3
aI5286
asS'ori'
p6
S'This house would abolish the monarchy'
p7
ssS'output'
p8
(dp9
g4
(lp10
I7
aI15283
aI174
aI2383
aI2789
aI7
aI3
aI4137
aI3874
aI45
aI991
aI5478
aI2547
aI63765
asg6
S'31% of Canadians also want members of the Royal Family to stop visiting Canada  .'
p11
ss.