(dp1
S'input'
p2
(dp3
S'encoded'
p4
(lp5
I64
aI2179
aI43
aI63
aI3
aI21
aI45
aI12715
aI417
aI99
aI316
aI2897
asS'ori'
p6
S'This house believes that the right to asylum should not be absolute'
p7
ssS'output'
p8
(dp9
g4
(lp10
I3
aI2304
aI13388
aI70
aI14
aI7477
aI3012
aI81
aI116
aI89
aI3215
aI34
aI792
aI7
aI4286
aI12715
aI24
aI3
aI2696
aI63765
asg6
S'The Russian Federations Law on Refugees defines who is a refugee for purposes of obtaining asylum in the country  .'
p11
ss.