(dp1
S'input'
p2
(dp3
S'encoded'
p4
(lp5
I64
aI2179
aI394
aI4325
aI2042
aI270
aI89
aI11605
aI3324
asS'ori'
p6
S'This house would fund education using a voucher scheme'
p7
ssS'output'
p8
(dp9
g4
(lp10
I42
aI5577
aI3
aI4
aI7
aI7
aI4991
aI5
aI107
aI6216
aI3
aI845
aI41
aI5982
aI7
aI5
aI2426
aI7
aI63765
asg6
S'He rejects the notion of "separation of Church and state"  instead seeing the issue as "free exercise of religion" and "no establishment of religion" .'
p11
ss.