(dp1
S'input'
p2
(dp3
S'encoded'
p4
(lp5
I64
aI2179
aI394
aI2773
aI12505
asS'ori'
p6
S'This house would embrace multiculturalism'
p7
ssS'output'
p8
(dp9
g4
(lp10
I9750
aI136
aI32603
aI116
aI42898
aI75
asg6
S'Nationalism  more abstractly  is "power-hunger tempered by self-deception ."'
p11
ss.