(dp1
S'input'
p2
(dp3
S'encoded'
p4
(lp5
I64
aI2179
aI43
aI63
aI187
aI417
aI99
aI16642
aI3
aI6449
aI7
aI3935
asS'ori'
p6
S'This house believes that states should not subsidize the growing of tobacco'
p7
ssS'output'
p8
(dp9
g4
(lp10
I2358
aI14
aI1096
aI11
aI174
aI1404
aI1445
aI59609
aI24
aI3
aI2809
aI45
aI9898
aI45
aI2547
aI5
aI2299
aI53
aI1096
aI116
aI153
aI2642
aI45
aI89
aI3059
aI3
aI7494
aI63765
asg6
S'Tariffs on sugar have also caused large candymakers in the USA to relocate to Canada and Mexico  where sugar is often half to a third the price  .'
p11
ss.