(dp1
S'input'
p2
(dp3
S'encoded'
p4
(lp5
I64
aI2179
aI394
aI2773
aI12505
asS'ori'
p6
S'This house would embrace multiculturalism'
p7
ssS'output'
p8
(dp9
g4
(lp10
I2056
aI60
aI3
aI3220
aI7
aI18545
aI5
aI3
aI2322
aI5140
aI7
aI4564
aI5
aI4279
aI100
aI8237
aI358
aI63
aI3
aI22
aI145
aI717
aI14
aI3
aI55
aI1199
aI6301
aI5
aI63
aI134
aI116
aI413
aI45
aI4537
aI89
aI1796
aI5
aI136
aI5117
aI4834
aI63765
asg6
S'Now  with the advance of globalization and the increased facility of travel and communication  some thinkers consider that the political system based on the nation-state has become obsolete and that it is time to design a better and more efficient alternative .'
p11
ss.