(dp1
S'input'
p2
(dp3
S'encoded'
p4
(lp5
I64
aI2179
aI43
aI223
aI2138
aI11
aI89
aI21
aI45
aI2185
aI372
asS'ori'
p6
S'This house believes all nations have a right to nuclear weapons'
p7
ssS'output'
p8
(dp9
g4
(lp10
I4652
aI7
aI3
aI2860
aI139
aI316
aI353
aI24
aI3
aI237
aI11558
aI92
aI7206
aI40
aI3
aI2417
aI2418
aI122
aI89
aI6733
aI9005
aI63765
asg6
S'Echoes of the doctrine can be found in the first document which outlined how the atomic bomb was a practical proposition .'
p11
ss.