(dp1
S'input'
p2
(dp3
S'encoded'
p4
(lp5
I64
aI2179
aI394
aI16756
aI20435
asS'ori'
p6
S'This house would criminalize blasphemy'
p7
ssS'output'
p8
(dp9
g4
(lp10
I64
aI11898
aI1629
aI89
aI696
aI7
aI7051
aI34
aI2544
aI187
aI7
aI3
aI2132
aI7
aI323
aI24
aI234
aI7
aI3567
aI7
aI5
aI7
aI2428
aI4930
aI5
aI7
aI3
aI1565
aI2533
aI14
aI2445
aI2446
aI63765
asg6
S'This Recommendation set a number of guidelines for member states of the Council of Europe in view of Articles 10 (freedom of expression) and 9 (freedom of thought  conscience and religion) of the European Convention on Human Rights .'
p11
ss.