(dp1
S'input'
p2
(dp3
S'encoded'
p4
(lp5
I64
aI2179
aI43
aI63
aI3
aI28431
aI7
aI2157
aI4624
aI75
aI39939
aI27257
aI122
aI4850
asS'ori'
p6
S'This house believes that the leaking of military documents by Anat Kamm was justified'
p7
ssS'output'
p8
(dp9
g4
(lp10
I132
aI2511
aI5
aI3
aI7137
aI75
aI30327
aI163
aI134
aI330
aI34
aI351
aI5462
aI45
aI84
aI2201
aI155
aI238
aI51
aI30329
aI7
aI4981
aI111
aI351
aI30330
aI564
aI3336
aI394
aI30331
aI3447
aI5076
aI63765
asg6
S"These laws  and the hosting by PRQ  make it difficult for any authorities to take WikiLeaks offline; they place an onus of proof upon any complainant whose suit would circumscribe WikiLeaks' liberty  e .g ."
p11
ss.