(dp1
S'input'
p2
(dp3
S'encoded'
p4
(lp5
I64
aI2179
aI43
aI223
aI2138
aI11
aI89
aI21
aI45
aI2185
aI372
asS'ori'
p6
S'This house believes all nations have a right to nuclear weapons'
p7
ssS'output'
p8
(dp9
g4
(lp10
I89
aI667
aI399
aI7
aI2198
aI5461
aI24
aI3
aI481
aI60
aI379
aI17994
aI7
aI3
aI3089
aI7
aI229
aI3024
aI5
aI3136
aI7
aI3024
aI24
aI2979
aI6398
aI5
aI63765
asg6
S'A new form of criticism emerged in the late 1980s with detailed analyses of the actions of individual leaders and groups of leaders in crisis situations (historical and theoretical) .'
p11
ss.