(dp1
S'input'
p2
(dp3
S'encoded'
p4
(lp5
I64
aI2179
aI43
aI63
aI3
aI4538
aI7
aI4434
aI7793
aI283
aI45
aI3586
aI417
aI316
aI577
asS'ori'
p6
S'This house believes that the sale of violent video games to minors should be banned'
p7
ssS'output'
p8
(dp9
g4
(lp10
I3459
aI2173
aI1190
aI3
aI998
aI3
aI319
aI116
aI441
aI116
aI63
aI298
aI1198
aI237
aI5099
aI5600
aI134
aI134
aI116
aI22527
aI5
aI1198
aI163
aI325
aI17718
aI63765
asg6
S'Woolley\'s mother stated  "I think the way the game is written is that when you first start playing it  it is fun  and you make great accomplishments .'
p11
ss.