(dp1
S'input'
p2
(dp3
S'encoded'
p4
(lp5
I64
aI2179
aI394
aI5284
aI150
aI3987
asS'ori'
p6
S'This house would reintroduce national service'
p7
ssS'output'
p8
(dp9
g4
(lp10
I134
aI695
aI63
aI5259
aI440
aI10048
aI2179
aI13751
aI442
aI75
aI5914
aI15965
aI34
aI25
aI4564
aI45
aI3
aI14324
aI63765
asg6
S'It determined that Rangel had violated House gift rules  by accepting reimbursement for his travel to the conferences  .'
p11
ss.