(dp1
S'input'
p2
(dp3
S'encoded'
p4
(lp5
I64
aI2179
aI394
aI163
aI959
aI2042
aI3557
asS'ori'
p6
S'This house would make physical education compulsory'
p7
ssS'output'
p8
(dp9
g4
(lp10
I3
aI727
aI182
aI223
aI3
aI477
aI4658
aI7
aI1949
aI2322
aI30089
aI1500
aI1278
aI20260
aI11794
aI5
aI33987
aI20247
aI1898
aI63765
asg6
S'The results are all the training effects of regular exercise: increased muscular strength  endurance  bone density  and connective tissue toughness .'
p11
ss.