(dp1
S'input'
p2
(dp3
S'encoded'
p4
(lp5
I64
aI2179
aI43
aI63
aI1036
aI4828
aI33250
aI116
aI25073
aI45
aI3315
aI4562
asS'ori'
p6
S'This house believes that male infant circumcision is tantamount to child abuse'
p7
ssS'output'
p8
(dp9
g4
(lp10
I353
aI63
aI3
aI4979
aI14681
aI2994
aI7
aI3
aI237
aI36976
aI24
aI3862
aI459
aI2439
aI7
aI3485
aI122
aI3
aI4979
aI4697
aI122
aI5
aI3
aI6734
aI4697
aI311
aI2439
aI7
aI3485
aI122
aI2845
aI311
aI63765
asg6
S'(1999) found that the mean diagnostic rate of the first UTI in children under 2 years of age was 1 .5%; the mean incidence was 1 .0%; and the cumulative incidence at 2 years of age was estimated at 2 .2%  .'
p11
ss.