(dp1
S'input'
p2
(dp3
S'encoded'
p4
(lp5
I64
aI2179
aI394
aI5370
aI3
aI5286
asS'ori'
p6
S'This house would abolish the monarchy'
p7
ssS'output'
p8
(dp9
g4
(lp10
I2359
aI234
aI3
aI2023
aI5286
aI41
aI5
aI4771
aI5
aI51
aI2917
aI232
aI604
aI3
aI12238
aI4634
aI116
aI880
aI2990
aI5
aI3646
aI89
aI4278
aI374
aI14
aI3
aI2359
aI47
aI1998
aI64
aI143
aI41
aI2023
aI4278
aI139
aI1199
aI536
aI7
aI10
asg6
S'Republicans view the Canadian monarchy as "outdated and irrelevant " and an undemocratic institution because the incumbent sovereign is neither elected and nor a citizen once on the throne; republicans will phrase this argument as "no Canadian citizen can become head of state ."'
p11
ss.