(dp1
S'input'
p2
(dp3
S'encoded'
p4
(lp5
I64
aI2179
aI13605
aI2258
aI45
aI2194
asS'ori'
p6
S'This house prefers trade to aid'
p7
ssS'output'
p8
(dp9
g4
(lp10
I14
aI492
aI420
aI63765
aI411
aI15079
aI122
aI2273
aI887
aI1200
aI217
aI2147
aI15096
aI24
aI89
aI2035
aI63
aI122
aI3714
aI75
aI3
aI3440
aI94
aI93
aI7
aI3
aI15097
aI2645
aI897
aI2472
aI42
aI122
aI1545
aI41
aI93
aI2007
aI564
aI747
aI5
aI3089
aI182
aI99
aI906
aI75
aI3
aI2070
aI155
aI7397
aI131
aI75
aI3961
aI34
aI61
aI155
aI1453
aI63765
asg6
S'On 6 July 2007  Mr . James Shikwati was named among top 100 most influential Kenyans in a study that was conducted by The Standard Group  one of the Kenyas leading media houses  he was described as one person whose decisions and actions are not motivated by the publicity they attract but by passion for what they do .'
p11
ss.