(dp1
S'input'
p2
(dp3
S'encoded'
p4
(lp5
I64
aI2179
aI43
aI223
aI2138
aI11
aI89
aI21
aI45
aI2185
aI372
asS'ori'
p6
S'This house believes all nations have a right to nuclear weapons'
p7
ssS'output'
p8
(dp9
g4
(lp10
I24
aI238
aI7
aI363
aI3965
aI12598
aI4662
aI2478
aI11
aI1966
aI34
aI3965
aI92
aI12604
aI63
aI187
aI88
aI1569
aI24
aI271
aI2372
aI4935
aI5
aI946
aI24
aI3
aI9068
aI7
aI271
aI7188
aI7
aI8692
aI63765
asg6
S'In place of classical deterrence  rational choice scholars have argued for "perfect deterrence " which assumes that states may vary in their internal characteristics and especially in the credibility of their threats of retaliation  .'
p11
ss.