(dp1
S'input'
p2
(dp3
S'encoded'
p4
(lp5
I64
aI2179
aI43
aI63
aI3
aI21
aI45
aI12715
aI417
aI99
aI316
aI2897
asS'ori'
p6
S'This house believes that the right to asylum should not be absolute'
p7
ssS'output'
p8
(dp9
g4
(lp10
I1198
aI88
aI312
aI588
aI60
aI419
aI419
aI4229
aI251
aI24
aI3
aI1362
aI291
aI3
aI667
aI2581
aI631
aI5
aI211
aI79
aI60
aI3
aI809
aI13513
aI779
aI6373
aI8754
aI2610
aI3987
aI5
aI3
aI631
aI63765
aI63765
aI63765
aI63765
aI79
aI1544
aI131
aI45
aI975
aI63
aI155
aI637
aI440
aI276
aI5
aI6733
aI3477
aI611
aI736
aI271
aI5985
aI1198
aI1192
aI78
aI45
aI165
aI136
aI775
aI14
aI3
aI131
aI3895
aI24
aI3777
aI3
aI212
aI596
aI7
aI120
aI5342
aI611
aI45
aI3
aI13513
aI63765
asg6
S'you may end up with very  very significant problems in the relationship between the new border police and its work with the former parent agencies  namely Customs  immigration service and the police . . . . "to work together  but to ensure that they still had professional and practical lines back into their respective agencies. you get people to co-operate much more effectively on the ground. but bear in mind the real importance of those links back to the parent agencies" .'
p11
ss.