(dp1
S'input'
p2
(dp3
S'encoded'
p4
(lp5
I64
aI2179
aI394
aI1499
aI3
aI8115
aI34564
aI17106
asS'ori'
p6
S'This house would build the Keystone XL pipeline'
p7
ssS'output'
p8
(dp9
g4
(lp10
I217
aI281
aI2023
aI2579
aI6228
aI2056
aI11
aI55410
aI4949
aI24
aI2410
aI73
aI459
aI2955
aI24
aI2579
aI15177
aI2506
aI5
aI24
aI7720
aI63765
asg6
S"Most major Canadian oil companies now have SAGD projects in production or under construction in Alberta's oil sands areas and in Wyoming ."
p11
ss.