(dp1
S'input'
p2
(dp3
S'encoded'
p4
(lp5
I64
aI2179
aI394
aI5370
aI3
aI5286
asS'ori'
p6
S'This house would abolish the monarchy'
p7
ssS'output'
p8
(dp9
g4
(lp10
I24
aI2306
aI221
aI2935
aI75
aI3182
aI498
aI17415
aI14086
aI45
aI3
aI14086
aI2130
aI2130
aI3350
aI45
aI84
aI3
aI829
aI5
aI55
aI2623
aI630
aI4027
aI1191
aI15663
aI270
aI3
aI57
aI7
aI5224
aI2784
aI63765
asg6
S"In 2009 Republic made news by reporting Prince Charles's architecture charity to the Charity Commission (the Commission declined to take the matter further) and has previously broken stories about royals using the Freedom of Information Act ."
p11
ss.