(dp1
S'input'
p2
(dp3
S'encoded'
p4
(lp5
I64
aI2179
aI43
aI63
aI3
aI4538
aI7
aI4434
aI7793
aI283
aI45
aI3586
aI417
aI316
aI577
asS'ori'
p6
S'This house believes that the sale of violent video games to minors should be banned'
p7
ssS'output'
p8
(dp9
g4
(lp10
I89
aI2188
aI59371
aI3
aI7447
aI17592
aI1685
aI5
aI24318
aI239
aI221
aI134
aI89
aI16889
aI957
aI7
aI4330
aI5593
aI14
aI20031
aI32050
aI7151
aI63765
asg6
S"A commercial flop  the game's sexually exploitative setting and gameplay nonetheless made it a focal point of Congressional hearings on offensive videogame content ."
p11
ss.