(dp1
S'input'
p2
(dp3
S'encoded'
p4
(lp5
I64
aI2179
aI43
aI63
aI2157
aI2565
aI493
aI19084
aI382
aI4850
asS'ori'
p6
S"This house believes that Israel's 2008-2009 military operations against Gaza were justified"
p7
ssS'output'
p8
(dp9
g4
(lp10
I1687
aI1653
aI311
aI3180
aI182
aI4992
aI5
aI1968
aI5
aI3
aI856
aI3188
aI7
aI3180
aI116
aI89
aI1993
aI19135
aI459
aI3
aI4649
aI9590
aI2533
aI89
aI2223
aI3211
aI5
aI1019
aI316
aI4850
aI1431
aI3
aI3717
aI63765
asg6
S'Attacks aimed at civilians are immoral and illegal  and the intentional killing of civilians is a grave breach under the Fourth Geneva Convention  a war crime  and cannot be justified  whatever the circumstances .'
p11
ss.