(dp1
S'input'
p2
(dp3
S'encoded'
p4
(lp5
I64
aI2179
aI394
aI163
aI959
aI2042
aI3557
asS'ori'
p6
S'This house would make physical education compulsory'
p7
ssS'output'
p8
(dp9
g4
(lp10
I378
aI5373
aI2722
aI7
aI14833
aI11
aI440
aI207
aI782
aI14
aI3
aI164
aI2722
aI7
aI16329
aI63765
asg6
S'However  changing rates of smoking have had little effect on the overall rates of obesity  .'
p11
ss.