(dp1
S'input'
p2
(dp3
S'encoded'
p4
(lp5
I64
aI2179
aI43
aI63
aI7382
aI116
aI400
aI4713
asS'ori'
p6
S'This house believes that bribery is sometimes acceptable'
p7
ssS'output'
p8
(dp9
g4
(lp10
I5726
aI777
aI182
aI2601
aI4091
aI7
aI878
aI7170
aI298
aI155
aI1409
aI574
aI248
aI864
aI7
aI17551
aI19366
aI34
aI273
aI11
aI12
aI3052
aI7
aI9882
aI25156
aI1246
aI801
aI1980
aI73
aI19708
aI18128
aI1687
aI14
aI8697
aI63765
asg6
S'Officials themselves are increasingly victims of official corruption when they target each other out of jealousy  hunger for promotion: there have been high-profile cases of mainland bureaucrats employing hit men or launching acid attacks on rivals .'
p11
ss.