(dp1
S'input'
p2
(dp3
S'encoded'
p4
(lp5
I64
aI2179
aI43
aI63
aI3
aI4990
aI4991
aI116
aI4850
aI24
aI12166
aI3
aI475
aI7
aI3532
aI3290
aI7
aI4714
asS'ori'
p6
S'This house believes that the Catholic Church is justified in forbidding the use of barrier methods of contraception'
p7
ssS'output'
p8
(dp9
g4
(lp10
I42624
aI42625
aI60
aI2767
aI10004
aI116
aI89
aI14322
aI1623
aI717
aI14
aI3
aI3440
aI873
aI1869
aI63765
asg6
S'CycleBeads  unaffiliated with religious teachings  is a visual tool based on the Standard Days method .'
p11
ss.