(dp1
S'input'
p2
(dp3
S'encoded'
p4
(lp5
I64
aI2179
aI43
aI63
aI188
aI220
aI417
aI1619
aI4275
aI45
aI713
aI14799
aI7533
aI311
aI3
aI3721
aI5145
asS'ori'
p6
S'This house believes that democratic governments should require voters to present photo identification at the polling station'
p7
ssS'output'
p8
(dp9
g4
(lp10
I18361
aI1706
aI1298
aI63
aI351
aI534
aI3587
aI10008
aI3
aI3261
aI7
aI3
aI7532
aI5
aI3
aI7197
aI7
aI3
aI5
aI63
aI12932
aI316
aI119
aI4184
aI45
aI3
aI4352
aI7
aI4185
aI7
aI3
aI5334
aI2446
aI2784
aI63765
asg6
S'HAVA further requires that any required notification preserve the privacy of the voter and the secrecy of the ballot; and that alternative-language accessibility be available pursuant to the requirements of section 203 of the Voting Rights Act  .'
p11
ss.