(dp1
S'input'
p2
(dp3
S'encoded'
p4
(lp5
I64
aI2179
aI13605
aI2258
aI45
aI2194
asS'ori'
p6
S'This house prefers trade to aid'
p7
ssS'output'
p8
(dp9
g4
(lp10
I100
aI2194
aI55
aI12
aI2843
aI45
aI3709
aI2138
aI949
aI24
aI3
aI1257
asg6
S'some aid has been proven to help nations develop in the past'
p11
ss.