(dp1
S'input'
p2
(dp3
S'encoded'
p4
(lp5
I64
aI2179
aI394
aI16642
aI1376
aI5269
asS'ori'
p6
S'This house would subsidize poor communities'
p7
ssS'output'
p8
(dp9
g4
(lp10
I934
aI19023
aI45
aI9619
aI3157
aI139
aI3709
aI8878
aI3
aI1376
aI34
aI351
aI7931
aI3860
aI41
aI89
aI296
aI7
aI3157
aI159
aI41
aI259
aI10400
aI63765
asg6
S'Safety nets to facilitate reforms can help compensate the poor for any losses suffered as a result of reforms such as abolishing subsidies .'
p11
ss.