(dp1
S'input'
p2
(dp3
S'encoded'
p4
(lp5
I64
aI2179
aI394
aI190
aI3
aI21
aI45
aI3895
aI834
asS'ori'
p6
S'This house would limit the right to bear arms'
p7
ssS'output'
p8
(dp9
g4
(lp10
I3
aI1950
aI3264
aI45
aI3
aI626
aI187
aI2475
aI187
aI3988
aI773
aI2867
aI45
aI3
aI2702
aI7
aI89
aI1260
aI10
aI3
aI21
aI7
aI3
aI78
aI45
aI1576
aI5
aI3895
aI834
aI4197
aI99
aI316
aI4299
aI63765
asg6
S'The Second Amendment to the United States Constitution states "A well-regulated Militia  being necessary to the security of a free State  the right of the people to keep and bear Arms  shall not be infringed .'
p11
ss.