(dp1
S'input'
p2
(dp3
S'encoded'
p4
(lp5
I64
aI2179
aI43
aI63
aI323
aI417
aI10009
aI211
aI9035
aI249
aI45
aI3426
aI211
aI2144
aI595
aI17
aI96
asS'ori'
p6
S'This house believes that Europe should weaken its austerity measures to guarantee its citizens greater social support'
p7
ssS'output'
p8
(dp9
g4
(lp10
I327
aI55
aI2757
aI89
aI281
aI2210
aI24
aI1928
aI1593
aI45
aI1453
aI60
aI3
aI6085
aI7337
aI2979
aI63765
asg6
S'Germany has played a major role in every discussion to do with the Greek debt crisis .'
p11
ss.