(dp1
S'input'
p2
(dp3
S'encoded'
p4
(lp5
I64
aI2179
aI394
aI117
aI7428
aI21151
aI34
aI11389
aI2042
aI24
aI4364
asS'ori'
p6
S'This house would only teach abstinence for sex education in schools'
p7
ssS'output'
p8
(dp9
g4
(lp10
I2330
aI2477
aI2483
aI5
aI24
aI3
aI1565
aI2483
aI7
aI2445
aI2446
aI2493
aI7008
aI19
aI1237
aI10038
aI493
aI327
aI2286
aI3990
aI11389
aI2042
aI63765
asg6
S'German Constitutional Court and  in 2011  the European Court of Human Rights rejected complaints from several Baptists against Germany concerning mandatory sex education  .'
p11
ss.