(dp1
S'input'
p2
(dp3
S'encoded'
p4
(lp5
I64
aI2179
aI394
aI2017
aI628
asS'ori'
p6
S'This house would ban gambling'
p7
ssS'output'
p8
(dp9
g4
(lp10
I3
aI7196
aI13990
aI60
aI19899
aI11103
aI3
aI2936
aI14
aI271
aI2068
aI5930
aI750
aI63765
asg6
S'The fraud starts with spam congratulating the recipient on their recent lottery win .'
p11
ss.