(dp1
S'input'
p2
(dp3
S'encoded'
p4
(lp5
I64
aI2179
aI394
aI16756
aI20435
asS'ori'
p6
S'This house would criminalize blasphemy'
p7
ssS'output'
p8
(dp9
g4
(lp10
I1405
aI2161
aI19320
aI19321
aI19322
aI116
aI3507
aI24
aI3
aI5757
aI2961
aI7
aI9735
aI1075
aI182
aI51
aI1274
aI493
aI3218
aI6268
aI3527
aI63765
asg6
S'Prime Minister Recep Tayyip Erdogan  is quoted in the Turkish press saying: "Caricatures of prophet Muhammad are an attack against our spiritual values .'
p11
ss.