(dp1
S'input'
p2
(dp3
S'encoded'
p4
(lp5
I64
aI2179
aI394
aI60
aI23587
asS'ori'
p6
S'This house would re-engage with Myanmar'
p7
ssS'output'
p8
(dp9
g4
(lp10
I233
aI45
aI13430
aI35849
aI24
aI25
aI3500
aI2173
aI63
aI5
aI2384
aI182
aI50526
aI89
aI78
aI81
aI50527
aI34
aI89
aI1796
aI3269
aI5
aI11
aI23846
aI14693
aI165
aI34
aI89
aI1796
aI260
asg6
S'According to Jeff Kingston  in his article "Burma\'s Despair" stated that "Despair and fear are immobilizing a people who yearn for a better life and have fruitlessly risked much for a better government ."'
p11
ss.