(dp1
S'input'
p2
(dp3
S'encoded'
p4
(lp5
I64
aI2179
aI235
aI3
aI2136
aI7
aI3
aI2306
aI7
aI2390
asS'ori'
p6
S'This house supports the one-child policy of the republic of China'
p7
ssS'output'
p8
(dp9
g4
(lp10
I134
aI116
aI136
aI330
aI34
aI117
aI3862
aI45
aI16861
aI24
aI89
aI1671
aI3874
aI3216
asg6
S'it is more difficult for only children to cooperate in a conventional family environment'
p11
ss.