(dp1
S'input'
p2
(dp3
S'encoded'
p4
(lp5
I64
aI2179
aI394
aI5284
aI150
aI3987
asS'ori'
p6
S'This house would reintroduce national service'
p7
ssS'output'
p8
(dp9
g4
(lp10
I2862
aI174
aI3026
aI865
aI3
aI5262
aI41
aI51
aI1112
aI998
aI45
aI6332
aI3
aI2223
aI910
aI691
aI42
aI5810
aI10459
aI17119
aI394
aI991
aI12769
aI3
aI2223
aI374
aI271
aI284
aI1880
aI7
aI206
aI45
aI405
aI24
aI134
aI122
aI7861
aI63765
asg6
S'Nixon also saw ending the draft as an effective way to undermine the anti-Vietnam war movement  since he believed affluent youths would stop protesting the war once their own probability of having to fight in it was gone  .'
p11
ss.