(dp1
S'input'
p2
(dp3
S'encoded'
p4
(lp5
I64
aI2179
aI43
aI63
aI134
aI116
aI400
aI21
aI34
aI3
aI260
aI45
aI3439
aI57
aI7
aI2381
asS'ori'
p6
S'This house believes that it is sometimes right for the government to restrict freedom of speech'
p7
ssS'output'
p8
(dp9
g4
(lp10
I60
aI3
aI3461
aI7
aI2445
aI2446
aI13634
aI5052
aI3
aI21
aI45
aI3269
aI3
aI21
aI45
aI316
aI1260
aI19
aI67
aI3
aI21
aI45
aI316
aI1260
aI19
aI8798
aI5
aI3
aI21
aI45
aI316
aI1260
aI19
aI9206
aI3393
aI7
aI5436
aI2511
aI41
aI3
aI2800
aI7224
aI63
aI2445
aI2446
aI139
aI316
aI913
aI73
aI113
aI3432
aI11958
aI397
aI1727
aI7
aI150
aI5148
aI1381
aI63765
asg6
S'With the exception of non-derogable human rights (international conventions class the right to life  the right to be free from slavery  the right to be free from torture and the right to be free from retroactive application of penal laws as non-derogable)  the UN recognises that human rights can be limited or even pushed aside during times of national emergency  although  .'
p11
ss.