(dp1
S'input'
p2
(dp3
S'encoded'
p4
(lp5
I64
aI2179
aI394
aI2017
aI628
asS'ori'
p6
S'This house would ban gambling'
p7
ssS'output'
p8
(dp9
g4
(lp10
I19
aI3
aI6426
aI26
aI7
aI337
aI10507
asg6
S'From the Chinese "The Book of Songs" (second millennium B .C .)'
p11
ss.