(dp1
S'input'
p2
(dp3
S'encoded'
p4
(lp5
I64
aI2179
aI43
aI24
aI3
aI475
aI7
aI12436
aI3364
asS'ori'
p6
S'This house believes in the use of affirmative action'
p7
ssS'output'
p8
(dp9
g4
(lp10
I1025
aI5
aI15753
aI4918
aI34
aI3
aI965
aI78
aI45
aI1199
aI63
aI116
aI155
aI1068
aI45
aI9056
aI3
aI2210
aI63
aI4226
aI7768
aI24
aI271
aI4858
aI4830
aI63765
asg6
S'Reason and Evans call for the white people to become "racially cognizant"  that is they need to acknowledge the role that race plays in their everyday lives .'
p11
ss.