(dp1
S'input'
p2
(dp3
S'encoded'
p4
(lp5
I64
aI2179
aI394
aI2998
aI3
aI4360
aI7
aI3249
aI6804
aI24
aI3
aI102
asS'ori'
p6
S'This house would encourage the creation of private universities in the UK'
p7
ssS'output'
p8
(dp9
g4
(lp10
I4702
aI186
aI3
aI1557
aI8063
aI63
aI1710
aI3
aI3327
aI5307
aI51
aI511
aI311
aI166
aI2042
aI258
aI155
aI47
aI316
aI136
aI24
aI3
aI4849
aI6197
aI136
aI45
aI6329
aI5
aI1697
aI149
aI14
aI10
aI2635
aI63765
asg6
S'Proponents argue the opposite  emphasizing that giving the unauthorized immigrants an opportunity at higher education means they will be more self-sufficient in the future  contributing more to taxes and relying less on state resources .'
p11
ss.