(dp1
S'input'
p2
(dp3
S'encoded'
p4
(lp5
I64
aI2179
aI43
aI63
aI1036
aI4828
aI33250
aI116
aI25073
aI45
aI3315
aI4562
asS'ori'
p6
S'This house believes that male infant circumcision is tantamount to child abuse'
p7
ssS'output'
p8
(dp9
g4
(lp10
I134
aI122
aI34
aI51
aI44563
aI45
aI316
aI33239
aI3
aI565
aI44564
aI373
aI51
aI59163
aI2497
aI946
aI89
aI18500
aI565
aI34
aI3
aI44566
aI81
aI876
aI11
aI12
aI7
aI6085
aI5304
aI24
aI3
aI4659
aI7
aI3
aI20224
aI2285
aI41360
aI24
aI3
aI26
aI7
aI3836
aI63765
asg6
S'It was "a reproach" for an Israelite to be uncircumcised () The name arelim (uncircumcised) became an opprobrious term  especially a pejorative name for the Philistines  who might have been of Greek origin  in the context of the fierce wars recounted in the Book of Samuel (   .'
p11
ss.