(dp1
S'input'
p2
(dp3
S'encoded'
p4
(lp5
I64
aI2179
aI43
aI63
aI3
aI4538
aI7
aI4434
aI7793
aI283
aI45
aI3586
aI417
aI316
aI577
asS'ori'
p6
S'This house believes that the sale of violent video games to minors should be banned'
p7
ssS'output'
p8
(dp9
g4
(lp10
I29335
aI7
aI875
aI2425
aI3
aI10293
aI60
aI3
aI32050
aI9103
aI2132
aI63765
asg6
S'Sega of America led the charge with the short-lived Videogame Rating Council .'
p11
ss.