(dp1
S'input'
p2
(dp3
S'encoded'
p4
(lp5
I64
aI2179
aI13605
aI2258
aI45
aI2194
asS'ori'
p6
S'This house prefers trade to aid'
p7
ssS'output'
p8
(dp9
g4
(lp10
I3
aI214
aI367
aI736
aI292
aI1410
aI237
aI120
aI4955
aI45
aI7478
aI2052
aI12905
aI45
aI2258
aI159
aI41
aI2358
aI5896
aI5
aI16295
aI4048
aI63765
asg6
S'The issues fall into three main groups: first  those relating to deliberately imposed barriers to trade  such as tariffs  quotas  and tariff escalation .'
p11
ss.