(dp1
S'input'
p2
(dp3
S'encoded'
p4
(lp5
I64
aI2179
aI43
aI63
aI134
aI116
aI400
aI21
aI34
aI3
aI260
aI45
aI3439
aI57
aI7
aI2381
asS'ori'
p6
S'This house believes that it is sometimes right for the government to restrict freedom of speech'
p7
ssS'output'
p8
(dp9
g4
(lp10
I24
aI2116
aI3
aI8384
aI5
aI89
aI5261
aI8384
aI7
aI3
aI2179
aI1886
aI5
aI2228
aI2180
aI15
aI2359
aI742
aI63
aI3
aI14942
aI24
aI1849
aI45
aI271
aI7112
aI440
aI1629
aI89
aI1409
aI3109
aI7
aI2779
aI34
aI5359
aI3
aI12359
aI2860
aI5
aI248
aI3645
aI19
aI3
aI59475
aI63765
asg6
S'In June 2011  the Chairman and a subcommittee chairman of the House Energy and Commerce Committee  both Republicans  said that the FCC  in response to their requests  had set a target date of August 2011 for removing the Fairness Doctrine and other "outdated" regulations from the FCC\'s rulebook  .'
p11
ss.