(dp1
S'input'
p2
(dp3
S'encoded'
p4
(lp5
I64
aI2179
aI394
aI3830
aI3
aI475
aI7
aI9441
aI13132
aI3102
aI24
aI276
aI381
asS'ori'
p6
S'This house would permit the use of performance enhancing drugs in professional sports'
p7
ssS'output'
p8
(dp9
g4
(lp10
I24
aI1906
aI3
aI9719
aI19894
aI44013
aI44014
aI427
aI14876
aI7
aI45
aI1846
aI3
aI285
aI315
aI781
aI14
aI3
aI6903
aI63765
asg6
S'In November 1942  the Italian cyclist Fausto Coppi took "seven packets of amphetamine" to beat the world hour record on the track  .'
p11
ss.