(dp1
S'input'
p2
(dp3
S'encoded'
p4
(lp5
I64
aI2179
aI43
aI17
aI4941
aI857
aI3211
asS'ori'
p6
S'This house believes social deprivation causes crime'
p7
ssS'output'
p8
(dp9
g4
(lp10
I24
aI395
aI95
aI42
aI7597
aI19
aI3
aI3445
aI7
aI17
aI57589
aI45
aI13913
aI17
aI2134
aI45
aI7107
aI3
aI5853
aI7
aI16920
aI5
aI17010
aI2363
aI7
aI2134
aI24
aI89
aI2022
aI63765
asg6
S'In later works  he switched from the concept of social disorganization to differential social organization to convey the complexity of overlapping and conflicting levels of organization in a society .'
p11
ss.