(dp1
S'input'
p2
(dp3
S'encoded'
p4
(lp5
I64
aI2179
aI394
aI9385
aI2497
aI447
aI14
aI3
aI3578
aI5721
aI7
aI260
asS'ori'
p6
S'This house would enforce term limits on the legislative branch of government'
p7
ssS'output'
p8
(dp9
g4
(lp10
I41
aI2215
aI24
aI3
aI3264
aI187
aI63
aI2007
aI4197
aI316
aI2990
aI45
aI3
aI5354
aI7
aI2164
aI136
aI138
aI63765
asg6
S'As ratified in 1951  the Twenty-Second Amendment states that "no person shall be elected to the office of President more than twice" .'
p11
ss.