(dp1
S'input'
p2
(dp3
S'encoded'
p4
(lp5
I64
aI2179
aI394
aI163
aI959
aI2042
aI3557
asS'ori'
p6
S'This house would make physical education compulsory'
p7
ssS'output'
p8
(dp9
g4
(lp10
I6951
aI5
aI444
aI508
aI15
aI2322
aI620
aI3
aI24
aI3
aI643
aI285
aI63765
asg6
S'Height and weight thus both increased through the 19th&nbsp;century in the developed world .'
p11
ss.