(dp1
S'input'
p2
(dp3
S'encoded'
p4
(lp5
I64
aI2179
aI43
aI63
aI3
aI4990
aI4991
aI116
aI4850
aI24
aI12166
aI3
aI475
aI7
aI3532
aI3290
aI7
aI4714
asS'ori'
p6
S'This house believes that the Catholic Church is justified in forbidding the use of barrier methods of contraception'
p7
ssS'output'
p8
(dp9
g4
(lp10
I100
aI8189
aI8566
aI1074
aI702
aI14
aI61
aI89
aI5100
aI417
aI1453
aI45
aI3018
aI30610
aI193
aI13788
aI702
aI45
aI120
aI81
aI2383
aI134
aI63765
asg6
S'Some Hindu scriptures include advice on what a couple should do to promote conceptionthus providing contraceptive advice to those who want it .'
p11
ss.