(dp1
S'input'
p2
(dp3
S'encoded'
p4
(lp5
I64
aI2179
aI235
aI3
aI2136
aI7
aI3
aI2306
aI7
aI2390
asS'ori'
p6
S'This house supports the one-child policy of the republic of China'
p7
ssS'output'
p8
(dp9
g4
(lp10
I3760
aI2446
aI2586
aI45
aI2931
aI41
aI89
aI10559
aI7
aI2445
aI2446
aI24
aI3
aI22735
aI7
aI16689
aI92
aI11
aI89
aI125
aI21
aI45
aI790
aI3465
aI5
aI13739
aI14
aI3
aI696
aI5
aI17785
aI7
aI271
aI3862
aI5
aI89
aI21
aI45
aI7184
aI2042
aI5
aI5224
aI24
aI64
aI63765
asg6
S'Reproductive rights began to appear as a subset of human rights in the 1968 Proclamation of Teheran  which states: "Parents have a basic right to decide freely and responsibly on the number and spacing of their children and a right to adequate education and information in this respect"  .'
p11
ss.