(dp1
S'input'
p2
(dp3
S'encoded'
p4
(lp5
I64
aI2179
aI43
aI63
aI2157
aI2565
aI493
aI19084
aI382
aI4850
asS'ori'
p6
S"This house believes that Israel's 2008-2009 military operations against Gaza were justified"
p7
ssS'output'
p8
(dp9
g4
(lp10
I2659
aI440
aI174
aI2274
aI729
aI3
aI475
aI7
aI965
aI31277
aI397
aI3
aI2223
aI131
aI395
aI3345
aI63
aI5267
aI134
aI440
aI416
aI965
aI31277
aI45
aI1616
aI5144
aI3300
aI63765
asg6
S'Israel had also initially denied the use of white phosphorus during the war  but later acknowledged that indeed it had used white phosphorus to cover troop movements  .'
p11
ss.