(dp1
S'input'
p2
(dp3
S'encoded'
p4
(lp5
I64
aI2179
aI43
aI63
aI1036
aI4828
aI33250
aI116
aI25073
aI45
aI3315
aI4562
asS'ori'
p6
S'This house believes that male infant circumcision is tantamount to child abuse'
p7
ssS'output'
p8
(dp9
g4
(lp10
I60
aI3
aI37817
aI3
aI33218
aI5
aI3
aI37816
aI2118
aI1931
aI24
aI292
aI45
aI2652
aI873
aI63765
asg6
S'With the Plastibell  the foreskin and the clamp come away in three to seven days .'
p11
ss.