(dp1
S'input'
p2
(dp3
S'encoded'
p4
(lp5
I64
aI2179
aI13605
aI2258
aI45
aI2194
asS'ori'
p6
S'This house prefers trade to aid'
p7
ssS'output'
p8
(dp9
g4
(lp10
I64
aI143
aI116
aI153
aI1607
aI588
aI24
aI3
aI4659
aI7
aI626
aI2258
aI257
aI3
aI6426
aI52
aI382
aI45
aI949
aI3
aI1643
aI2410
aI4386
aI7282
aI41
aI3
aI626
aI187
aI2390
aI394
aI316
aI1031
aI45
aI7755
aI16
aI2635
aI25284
aI61
aI3
aI626
aI187
aI52
aI463
aI5
aI24
aI3168
aI6737
aI2157
aI2635
aI63765
asg6
S'This argument is often brought up in the context of United States-China trade relations; if the Chinese economy were to develop the same production per capita as the United States  China would be able to harness economic resources fourfold what the United States economy could  and  in theory  proportional military resources .'
p11
ss.