(dp1
S'input'
p2
(dp3
S'encoded'
p4
(lp5
I64
aI2179
aI43
aI223
aI2138
aI11
aI89
aI21
aI45
aI2185
aI372
asS'ori'
p6
S'This house believes all nations have a right to nuclear weapons'
p7
ssS'output'
p8
(dp9
g4
(lp10
I3
aI2979
aI122
aI395
aI344
aI41
aI3
aI2651
aI3
aI2145
aI63765
aI5
aI3
aI5970
aI1978
aI415
aI45
aI2185
aI2223
aI5
aI440
aI12
aI3377
aI12070
aI75
aI4308
aI75
aI15
aI2430
aI63765
asg6
S'The Crisis was later seen as the closest the U .S . and the USSR ever came to nuclear war and had been narrowly averted by last-minute compromise by both superpowers .'
p11
ss.