(dp1
S'input'
p2
(dp3
S'encoded'
p4
(lp5
I64
aI2179
aI235
aI3
aI2136
aI7
aI3
aI2306
aI7
aI2390
asS'ori'
p6
S'This house supports the one-child policy of the republic of China'
p7
ssS'output'
p8
(dp9
g4
(lp10
I4319
aI366
aI3
aI626
aI187
aI260
aI871
aI70
aI92
aI221
aI13759
aI976
aI34
aI248
aI138
aI4407
aI2015
aI3398
aI5
aI5468
aI28035
aI864
aI3
aI63765
asg6
S'Soon after  the United States government passed Law #136 which made sterilization legal for other than strictly medical reasons and advocated picking out the "unfit"  .'
p11
ss.