(dp1
S'input'
p2
(dp3
S'encoded'
p4
(lp5
I64
aI2179
aI394
aI3830
aI3
aI475
aI7
aI9441
aI13132
aI3102
aI24
aI276
aI381
asS'ori'
p6
S'This house would permit the use of performance enhancing drugs in professional sports'
p7
ssS'output'
p8
(dp9
g4
(lp10
I75
aI2696
aI3
aI582
aI2572
aI7
aI2153
aI122
aI34
aI3217
aI5
aI34
aI57497
aI63765
asg6
S'By country  the average share of GDP was 0 .023% for Health  and 0 .013% for POS .'
p11
ss.