(dp1
S'input'
p2
(dp3
S'encoded'
p4
(lp5
I64
aI2179
aI43
aI8629
aI116
aI3
aI117
aI998
asS'ori'
p6
S'This house believes atheism is the only way'
p7
ssS'output'
p8
(dp9
g4
(lp10
I42
aI4881
aI63
aI14624
aI14586
aI2425
aI45
aI6398
aI159
aI41
aI14625
aI6466
aI9233
aI4364
aI5999
aI45
aI4883
aI14
aI14626
aI7768
aI5
aI1556
aI56
aI19
aI14627
aI114
aI80
aI11
aI2580
aI64
aI63765
asg6
S'" He claimed that atheistic fundamentalism led to situations such as councils calling Christmas "Winterval"  schools refusing to put on nativity plays and crosses removed from chapels  though others have disputed this  .'
p11
ss.