(dp1
S'input'
p2
(dp3
S'encoded'
p4
(lp5
I64
aI2179
aI394
aI2998
aI3
aI4360
aI7
aI3249
aI6804
aI24
aI3
aI102
asS'ori'
p6
S'This house would encourage the creation of private universities in the UK'
p7
ssS'output'
p8
(dp9
g4
(lp10
I1460
aI45
aI132
aI5491
aI382
aI21626
aI75
aI4137
aI2550
aI63765
asg6
S'Prior to 1992  these titles were conferred by Royal Charter .'
p11
ss.