(dp1
S'input'
p2
(dp3
S'encoded'
p4
(lp5
I64
aI2179
aI13605
aI2258
aI45
aI2194
asS'ori'
p6
S'This house prefers trade to aid'
p7
ssS'output'
p8
(dp9
g4
(lp10
I3
aI2210
aI7
aI2194
aI24
aI3932
aI2891
aI122
aI7659
aI1879
aI658
aI3441
aI24
aI3
aI45
aI3
aI24
aI17939
aI181
aI5
aI3
aI2148
aI4331
aI159
aI41
aI63765
asg6
S'The role of aid in promoting development was attracting increasing public scrutiny in the run-up to the  in Gleneagles  Scotland  and the global campaigns such as  .'
p11
ss.