(dp1
S'input'
p2
(dp3
S'encoded'
p4
(lp5
I64
aI2179
aI43
aI63
aI3
aI21
aI45
aI12715
aI417
aI99
aI316
aI2897
asS'ori'
p6
S'This house believes that the right to asylum should not be absolute'
p7
ssS'output'
p8
(dp9
g4
(lp10
I3
aI260
aI7
aI2659
aI3619
aI89
aI43514
aI8464
aI60
aI2161
aI7
aI15378
aI1210
aI5680
aI43515
aI100
aI4199
aI7
aI20050
aI45
aI3
aI573
aI7
aI3
aI86
aI1453
aI41
aI357
aI11
aI63765
asg6
S'The government of Israel offered a ceremonious welcome  with Minister of Absorption David Levy uttering some words of rebuke to the rest of the world: "Let them do as we have .'
p11
ss.