(dp1
S'input'
p2
(dp3
S'encoded'
p4
(lp5
I64
aI2179
aI13605
aI2258
aI45
aI2194
asS'ori'
p6
S'This house prefers trade to aid'
p7
ssS'output'
p8
(dp9
g4
(lp10
I53
aI132
aI2938
aI182
aI99
aI2369
aI868
aI45
aI9041
aI2194
aI775
aI9642
aI5541
aI45
aI3709
aI3253
aI86
aI63765
asg6
S'Where these systems are not strong enough to manage aid effectively  donors promised to help strengthen them .'
p11
ss.