(dp1
S'input'
p2
(dp3
S'encoded'
p4
(lp5
I64
aI2179
aI43
aI24
aI3
aI475
aI7
aI12436
aI3364
asS'ori'
p6
S'This house believes in the use of affirmative action'
p7
ssS'output'
p8
(dp9
g4
(lp10
I3
aI47868
aI417
aI1192
aI89
aI595
aI2572
aI24
aI6375
aI1589
aI604
aI22
aI546
aI13503
aI24
aI27411
aI6375
aI1589
aI63765
asg6
S'The OBCs should get a greater share in administrative positions because political power resides in Indias administrative positions .'
p11
ss.