(dp1
S'input'
p2
(dp3
S'encoded'
p4
(lp5
I64
aI2179
aI43
aI223
aI2138
aI11
aI89
aI21
aI45
aI2185
aI372
asS'ori'
p6
S'This house believes all nations have a right to nuclear weapons'
p7
ssS'output'
p8
(dp9
g4
(lp10
I14652
aI23467
aI3151
aI5409
aI1442
aI3
aI3167
aI63
aI42
aI394
aI8464
aI89
aI2185
aI2223
aI60
aI3
aI205
aI604
aI134
aI394
aI46477
aI271
aI46907
aI145
aI63765
asg6
S"Mao Zedong  China's communist leader  gave the impression that he would welcome a nuclear war with the capitalists because it would annihilate their imperialist system  ."
p11
ss.