(dp1
S'input'
p2
(dp3
S'encoded'
p4
(lp5
I64
aI2179
aI394
aI16642
aI1376
aI5269
asS'ori'
p6
S'This house would subsidize poor communities'
p7
ssS'output'
p8
(dp9
g4
(lp10
I3
aI2992
aI9503
aI311
aI3
aI384
aI2203
aI19
aI45
aI5
aI19
aI45
aI10845
aI4047
aI63765
asg6
S'The studies look at the different countries from 1960 to 1991 (Kentworthy) and from 1970 to 1997 (Bradley et al .) .'
p11
ss.