(dp1
S'input'
p2
(dp3
S'encoded'
p4
(lp5
I64
aI2179
aI43
aI63
aI3
aI4990
aI4991
aI116
aI4850
aI24
aI12166
aI3
aI475
aI7
aI3532
aI3290
aI7
aI4714
asS'ori'
p6
S'This house believes that the Catholic Church is justified in forbidding the use of barrier methods of contraception'
p7
ssS'output'
p8
(dp9
g4
(lp10
I3
aI1268
aI3459
aI25768
aI7
aI25946
aI685
aI3
aI11505
aI7
aI14086
aI24
aI3
aI7530
aI7
aI25946
aI24
aI45
aI79
aI887
aI7419
aI7
aI3
aI63765
asg6
S'The famous Mother Teresa of Calcutta established the Missionaries of Charity in the slums of Calcutta in 1948 to work among "the poorest of the poor" .'
p11
ss.