(dp1
S'input'
p2
(dp3
S'encoded'
p4
(lp5
I64
aI2179
aI43
aI63
aI6670
aI546
aI417
aI316
aI89
aI1334
aI3108
aI7
aI4849
aI1886
aI2855
asS'ori'
p6
S'This house believes that wind power should be a primary focus of future energy supply'
p7
ssS'output'
p8
(dp9
g4
(lp10
I41
aI7
aI2871
aI6670
aI546
aI9445
aI34
aI2151
aI864
aI7
aI89
aI697
aI7
aI7
aI2881
aI416
aI4386
aI3569
aI868
aI2881
aI45
aI546
aI136
aI138
aI4492
aI5
aI10312
aI45
aI1191
aI267
aI2900
aI7
aI697
aI2881
aI2835
aI63765
asg6
S"As of October 2010  wind power accounted for approximately 5&nbsp;TWh out of a total of 251&nbsp;TWh of electricity used per year  enough electricity to power more than 700 000 homes  and amounting to about two percent of Australia's total electricity consumption  ."
p11
ss.