(dp1
S'input'
p2
(dp3
S'encoded'
p4
(lp5
I64
aI2179
aI394
aI2773
aI12505
asS'ori'
p6
S'This house would embrace multiculturalism'
p7
ssS'output'
p8
(dp9
g4
(lp10
I311
aI3
aI94
aI126
aI21330
aI153
aI727
aI24
aI2438
aI45
aI3905
aI8754
aI5
aI17
aI2825
aI63765
asg6
S'At the group level  acculturation often results in changes to culture  customs  and social institutions .'
p11
ss.