(dp1
S'input'
p2
(dp3
S'encoded'
p4
(lp5
I64
aI2179
aI394
aI16756
aI20435
asS'ori'
p6
S'This house would criminalize blasphemy'
p7
ssS'output'
p8
(dp9
g4
(lp10
I248
aI385
aI11
aI174
aI1004
aI325
aI9163
aI159
aI41
aI21499
aI53
aI2135
aI4443
aI3224
aI159
aI41
aI52199
aI22479
aI62837
aI5
aI20213
aI11
aI12
aI45839
aI53
aI3
aI27170
aI7
aI326
aI2265
aI5
aI2450
aI382
aI5
aI10617
aI89
aI2082
aI6862
aI19
aI62836
aI53
aI30001
aI6955
aI462
aI9421
aI8991
aI7335
aI5
aI22234
aI63765
asg6
S'Other cities have also experienced great unrest such as Lahore where foreign owned businesses such as Pizza Hut  KFC  and McDonalds have been burned; Islamabad where the embassies of Britain  France  and India were targeted; and Tank  a town 142 miles from Peshawar  where protestors burned down shops selling CDs and DVDs .'
p11
ss.