(dp1
S'input'
p2
(dp3
S'encoded'
p4
(lp5
I64
aI2179
aI43
aI63
aI187
aI417
aI99
aI16642
aI3
aI6449
aI7
aI3935
asS'ori'
p6
S'This house believes that states should not subsidize the growing of tobacco'
p7
ssS'output'
p8
(dp9
g4
(lp10
I14604
aI4517
aI4012
aI3
aI11448
aI192
aI24
aI60
aI211
aI14838
aI443
aI63765
asg6
S'RJ Reynolds entered the womens market in 2007  with its Camel No .'
p11
ss.