(dp1
S'input'
p2
(dp3
S'encoded'
p4
(lp5
I64
aI2179
aI394
aI16642
aI1376
aI5269
asS'ori'
p6
S'This house would subsidize poor communities'
p7
ssS'output'
p8
(dp9
g4
(lp10
I132
aI6609
aI3420
aI51
aI3226
aI24
aI3
aI2573
aI7
aI2445
aI2352
aI508
aI1604
aI89
aI419
aI1185
aI1623
aI34
aI200
aI3
aI6241
aI7
aI4925
aI63765
asg6
S'These outcomes represent an increase in the investment of human capital  thus becoming a very important tool for reducing the inter-generational transmission of inequality .'
p11
ss.