(dp1
S'input'
p2
(dp3
S'encoded'
p4
(lp5
I64
aI2179
aI394
aI2741
aI3
aI1560
aI6025
aI2784
asS'ori'
p6
S'This house would pass the American Jobs Act'
p7
ssS'output'
p8
(dp9
g4
(lp10
I2961
aI2962
aI3526
aI63
aI3
aI9449
aI2784
aI698
aI2639
aI45
aI7771
aI13273
aI7
aI182
aI1986
aI63765
asg6
S'Press reports suggesting that the Recovery Act spent $1 .191 million to buy "2 pounds of ham" are wrong .'
p11
ss.