(dp1
S'input'
p2
(dp3
S'encoded'
p4
(lp5
I64
aI2179
aI394
aI2741
aI3
aI1560
aI6025
aI2784
asS'ori'
p6
S'This house would pass the American Jobs Act'
p7
ssS'output'
p8
(dp9
g4
(lp10
I93
aI5085
aI88
aI316
aI63
aI136
aI5
aI136
aI1980
aI3363
aI3
aI3485
aI7
aI8559
aI1443
aI3495
aI45
aI9701
aI395
aI24
aI3269
aI252
aI8504
aI1191
aI3
aI5229
aI7
aI1478
aI1980
aI63765
asg6
S'One factor may be that more and more men delayed the age of marriage  allowing women to marry later in life without worrying about the quality of older men .'
p11
ss.