(dp1
S'input'
p2
(dp3
S'encoded'
p4
(lp5
I64
aI2179
aI394
aI2017
aI628
asS'ori'
p6
S'This house would ban gambling'
p7
ssS'output'
p8
(dp9
g4
(lp10
I2304
aI2474
aI3581
aI24
aI2394
aI4542
aI5119
aI628
aI6024
aI261
aI41
aI351
aI628
aI1697
aI14
aI5997
aI63765
asg6
S'Russian legislation  enacted in December 2006  prohibits online gambling altogether (as well as any gambling relying on telecommunications technology)  .'
p11
ss.