(dp1
S'input'
p2
(dp3
S'encoded'
p4
(lp5
I64
aI2179
aI394
aI190
aI3
aI21
aI45
aI3895
aI834
asS'ori'
p6
S'This house would limit the right to bear arms'
p7
ssS'output'
p8
(dp9
g4
(lp10
I9067
aI19
aI3
aI4367
aI34
aI4368
aI708
aI5
aI2466
aI2036
aI63
aI14
aI582
aI93
aI3315
aI2013
aI1928
aI292
aI873
aI24
aI862
aI4122
aI24
aI3
aI626
aI187
aI19
aI45
aI63765
asg6
S'Statistics from the Centers for Disease Control and Prevention showed that  on average  one child died every three days in accidental incidents in the United States from 2000 to 2005  .'
p11
ss.