(dp1
S'input'
p2
(dp3
S'encoded'
p4
(lp5
I64
aI2179
aI394
aI4325
aI2042
aI270
aI89
aI11605
aI3324
asS'ori'
p6
S'This house would fund education using a voucher scheme'
p7
ssS'output'
p8
(dp9
g4
(lp10
I311
aI869
aI248
aI4364
aI3
aI4442
aI7
aI5206
aI24
aI63
aI4417
aI15392
aI19
aI45
aI63765
asg6
S'At four other schools  the percentage of classrooms in that category ranged from 17% to 58% .'
p11
ss.