(dp1
S'input'
p2
(dp3
S'encoded'
p4
(lp5
I64
aI2179
aI394
aI5370
aI3
aI5286
asS'ori'
p6
S'This house would abolish the monarchy'
p7
ssS'output'
p8
(dp9
g4
(lp10
I6445
aI6446
aI5301
aI7
aI5964
aI81
aI116
aI2990
aI1928
aI863
aI2439
aI75
aI3
aI6458
aI6297
aI7
aI3
aI14895
aI10359
aI187
aI223
aI7
aI4895
aI174
aI2830
aI41
aI3
aI117
aI4288
aI4672
aI24
aI574
aI7
aI3
aI5276
aI63765
asg6
S'|- Yang di-Pertuan Agong Monarch of Malaysia who is elected every five years by the reigning kings of the Malaysian constituent states  all of whom also serve as the only electoral candidates in each of the elections .'
p11
ss.