(dp1
S'input'
p2
(dp3
S'encoded'
p4
(lp5
I64
aI2179
aI394
aI5370
aI3
aI5286
asS'ori'
p6
S'This house would abolish the monarchy'
p7
ssS'output'
p8
(dp9
g4
(lp10
I400
aI5491
aI182
aI416
aI45
aI6564
aI4453
aI45
aI5555
aI63
aI182
aI99
aI557
aI24
aI68
aI1343
aI28
aI4453
aI45
aI3
aI4169
aI73
aI5491
aI99
aI689
aI63765
asg6
S'Sometimes titles are used to express claims to territories that are not held in fact (for example  English claims to the French throne) or titles not recognized (antipopes) .'
p11
ss.