(dp1
S'input'
p2
(dp3
S'encoded'
p4
(lp5
I64
aI2179
aI394
aI2017
aI223
aI9058
aI23653
asS'ori'
p6
S'This house would ban all unsustainable logging'
p7
ssS'output'
p8
(dp9
g4
(lp10
I223
aI3976
aI5179
aI1619
aI2635
aI45
aI3514
aI63765
asg6
S'All living organisms require resources to survive .'
p11
ss.