(dp1
S'input'
p2
(dp3
S'encoded'
p4
(lp5
I64
aI2179
aI43
aI63
aI3
aI4990
aI4991
aI116
aI4850
aI24
aI12166
aI3
aI475
aI7
aI3532
aI3290
aI7
aI4714
asS'ori'
p6
S'This house believes that the Catholic Church is justified in forbidding the use of barrier methods of contraception'
p7
ssS'output'
p8
(dp9
g4
(lp10
I24
aI3
aI2132
aI7
aI11044
aI2848
aI63
aI3313
aI122
aI25962
aI89
aI7721
aI63765
asg6
S'In 533  the Council of Constantinople  proclaimed that she was perpetually a virgin .'
p11
ss.