(dp1
S'input'
p2
(dp3
S'encoded'
p4
(lp5
I64
aI2179
aI235
aI3
aI2136
aI7
aI3
aI2306
aI7
aI2390
asS'ori'
p6
S'This house supports the one-child policy of the republic of China'
p7
ssS'output'
p8
(dp9
g4
(lp10
I7035
aI174
aI4881
aI63
aI257
aI1198
aI513
aI89
aI2924
aI7
aI2203
aI329
aI24
aI128
aI75
aI2598
aI11794
aI273
aI116
aI443
aI4704
aI291
aI2598
aI11794
aI5
aI130
aI5
aI7827
aI5
aI107
aI257
aI1198
aI513
aI89
aI2924
aI7
aI2203
aI329
aI24
aI128
aI75
aI7170
aI545
aI271
aI5985
aI220
aI273
aI116
aI89
aI4229
aI4704
aI291
aI260
aI7170
aI5
aI130
aI5
aI7389
aI63765
asg6
S'Simon also claimed that if you considered a list of countries ranked in order by population density  there is no correlation between population density and poverty and starvation  and instead  if you considered a list of countries ranked in order by corruption within their respective governments  there is a significant correlation between government corruption and poverty and famine  .'
p11
ss.