(dp1
S'input'
p2
(dp3
S'encoded'
p4
(lp5
I64
aI2179
aI43
aI63
aI1036
aI4828
aI33250
aI116
aI25073
aI45
aI3315
aI4562
asS'ori'
p6
S'This house believes that male infant circumcision is tantamount to child abuse'
p7
ssS'output'
p8
(dp9
g4
(lp10
I3
aI2445
aI33221
aI116
aI221
aI588
aI7
aI292
aI15354
aI7
aI267
aI37732
aI37733
aI10177
aI1608
aI45
aI574
aI248
aI14
aI3
aI37728
aI823
aI5
aI93
aI4639
aI37734
aI8441
aI291
aI86
aI14
aI3
aI19524
aI823
aI63765
asg6
S'The human penis is made up of three columns of tissue: two corpora cavernosa lie next to each other on the dorsal side and one corpus spongiosum lies between them on the ventral side .'
p11
ss.