(dp1
S'input'
p2
(dp3
S'encoded'
p4
(lp5
I64
aI2179
aI394
aI16756
aI20435
asS'ori'
p6
S'This house would criminalize blasphemy'
p7
ssS'output'
p8
(dp9
g4
(lp10
I24
aI93
aI3357
aI3713
aI7
aI5851
aI78
aI637
aI5810
aI63
aI3
aI4035
aI417
aI316
aI5162
aI653
aI351
aI748
aI4099
aI4658
aI63765
asg6
S'In one opinion poll  54% of Dutch people still believed that the film should be released  despite any possible negative effects  .'
p11
ss.