(dp1
S'input'
p2
(dp3
S'encoded'
p4
(lp5
I64
aI2179
aI394
aI2017
aI3807
aI314
aI3433
asS'ori'
p6
S'This house would ban partial birth abortions'
p7
ssS'output'
p8
(dp9
g4
(lp10
I1968
aI3433
aI382
aI153
aI4456
aI400
aI204
aI24
aI1012
aI41
aI24
aI3
aI33
aI7
aI16515
aI16516
aI7
aI3303
aI24
aI63765
asg6
S'Illegal abortions were often unsafe  sometimes resulting in death  as in the case of Gerri Santoro of Connecticut in 1964 .'
p11
ss.