(dp1
S'input'
p2
(dp3
S'encoded'
p4
(lp5
I64
aI2179
aI43
aI63
aI11083
aI10046
aI417
aI316
aI89
aI3135
aI4603
asS'ori'
p6
S'This house believes that Holocaust denial should be a criminal offence'
p7
ssS'output'
p8
(dp9
g4
(lp10
I11320
aI3521
aI63765
aI35786
aI6117
aI7
aI3
aI2206
aI10
aI2176
aI5
aI3
aI8893
aI7
aI8579
aI3601
aI4812
aI10046
aI41
aI3
aI5563
aI3517
aI7
aI89
aI8579
aI116
aI3
aI10370
aI3517
aI63
aI243
aI4953
aI89
aI8579
aI63765
asg6
S'Gregory H . Stanton  formerly of the US State Department and the founder of Genocide Watch  lists denial as the final stage of a genocide development: "Denial is the eighth stage that always follows a genocide .'
p11
ss.