(dp1
S'input'
p2
(dp3
S'encoded'
p4
(lp5
I64
aI2179
aI43
aI63
aI3
aI4990
aI4991
aI116
aI4850
aI24
aI12166
aI3
aI475
aI7
aI3532
aI3290
aI7
aI4714
asS'ori'
p6
S'This house believes that the Catholic Church is justified in forbidding the use of barrier methods of contraception'
p7
ssS'output'
p8
(dp9
g4
(lp10
I3
aI475
aI7
aI3
aI21152
aI7686
aI24
aI3
aI5
aI60
aI3
aI17022
aI7
aI3
aI8481
aI131
aI248
aI3290
aI7
aI3532
aI4714
aI8231
aI736
aI89
aI2838
aI60
aI7065
aI2962
aI19
aI3
aI81
aI2230
aI51083
aI92
aI6269
aI28319
aI271
aI475
asg6
S'The use of the condom exploded in the 1980s and 1990s with the discovery of the HIV/AIDS virus but other methods of barrier contraception fell into a decline with adverse reports from the WHO regarding Nonoxynol-9-based spermicides which consequently hindered their use ."'
p11
ss.