(dp1
S'input'
p2
(dp3
S'encoded'
p4
(lp5
I64
aI2179
aI13605
aI2258
aI45
aI2194
asS'ori'
p6
S'This house prefers trade to aid'
p7
ssS'output'
p8
(dp9
g4
(lp10
I1987
aI136
aI16
aI5
aI22
aI7600
aI75
aI3495
aI4696
aI2351
aI2776
aI19
aI5
aI17
aI2573
aI24
aI3
aI260
aI15
aI7
aI92
aI182
aI3057
aI45
aI12305
aI2022
aI864
aI7
aI130
aI63765
asg6
S'Encouraging more economic and political participation by women increases financial independence from and social investment in the government  both of which are critical to pulling society out of poverty  .'
p11
ss.