(dp1
S'input'
p2
(dp3
S'encoded'
p4
(lp5
I64
aI2179
aI43
aI24
aI3
aI475
aI7
aI12436
aI3364
asS'ori'
p6
S'This house believes in the use of affirmative action'
p7
ssS'output'
p8
(dp9
g4
(lp10
I9534
aI485
aI9168
aI24
aI3
aI2272
aI4276
aI7
aI495
aI4380
aI63765
aI3755
aI81
aI1920
aI461
aI14
aI45
aI1199
aI3
aI237
aI4990
aI5267
aI2164
aI63765
asg6
S"Anti-Catholic sentiment remained evident in the presidential campaign of John F . Kennedy  who nevertheless went on to become the US's first Catholic (and indeed non-Protestant) president ."
p11
ss.