(dp1
S'input'
p2
(dp3
S'encoded'
p4
(lp5
I64
aI2179
aI394
aI60
aI23587
asS'ori'
p6
S'This house would re-engage with Myanmar'
p7
ssS'output'
p8
(dp9
g4
(lp10
I2317
aI182
aI3184
aI60673
aI116
aI1155
aI18676
aI75
aI3
aI941
aI2812
aI63765
asg6
S'Regions are predominantly Bamar (that is  mainly inhabited by the dominant ethnic group) .'
p11
ss.