(dp1
S'input'
p2
(dp3
S'encoded'
p4
(lp5
I64
aI2179
aI394
aI10662
aI626
aI187
aI2157
aI2697
aI19
aI2371
asS'ori'
p6
S'This house would remove United States military bases from Japan'
p7
ssS'output'
p8
(dp9
g4
(lp10
I653
aI2369
aI26432
aI3609
aI45
aI3
aI2206
aI2157
aI5556
aI14
aI3
aI2730
aI273
aI116
aI174
aI2369
aI96
aI34
aI3
aI2603
aI63765
asg6
S'Despite strong Okinawan opposition to the US military presence on the island  there is also strong support for the agreement .'
p11
ss.