(dp1
S'input'
p2
(dp3
S'encoded'
p4
(lp5
I64
aI2179
aI13605
aI2258
aI45
aI2194
asS'ori'
p6
S'This house prefers trade to aid'
p7
ssS'output'
p8
(dp9
g4
(lp10
I3709
aI717
aI14
aI839
aI27731
aI230
aI2710
aI5
aI7170
asg6
S'help based on direct donation creates dependency and corruption'
p11
ss.