(dp1
S'input'
p2
(dp3
S'encoded'
p4
(lp5
I64
aI2179
aI394
aI4325
aI2042
aI270
aI89
aI11605
aI3324
asS'ori'
p6
S'This house would fund education using a voucher scheme'
p7
ssS'output'
p8
(dp9
g4
(lp10
I3
aI41207
aI2762
aI146
aI3863
aI350
aI63
aI320
aI8544
aI2042
aI994
aI933
aI3
aI13002
aI1350
aI5
aI5207
aI41209
aI7
aI1376
aI3862
aI113
aI736
aI320
aI63765
asg6
S'The Abecedarian project provides scientific evidence that early childhood education significantly improves the scholastic success and educational attainments of poor children even into early adulthood"  .'
p11
ss.