(dp1
S'input'
p2
(dp3
S'encoded'
p4
(lp5
I64
aI2179
aI43
aI63
aI3
aI4538
aI7
aI4434
aI7793
aI283
aI45
aI3586
aI417
aI316
aI577
asS'ori'
p6
S'This house believes that the sale of violent video games to minors should be banned'
p7
ssS'output'
p8
(dp9
g4
(lp10
I64
aI9994
aI13678
aI75
aI3
aI29389
aI7
aI3
aI20364
aI939
aI24392
aI15104
aI879
aI3
aI59373
aI145
aI223
aI131
aI4771
aI5
aI24
aI134
aI21709
aI871
aI14
aI63765
asg6
S'This limitation  exacerbated by the 1995 debut of the explosively popular PlayStation console  rendered the RSAC system all but irrelevant  and in 1999 it quietly passed on .'
p11
ss.