(dp1
S'input'
p2
(dp3
S'encoded'
p4
(lp5
I64
aI2179
aI394
aI5370
aI3
aI5286
asS'ori'
p6
S'This house would abolish the monarchy'
p7
ssS'output'
p8
(dp9
g4
(lp10
I34
aI1343
aI1381
aI6553
aI6292
aI2236
aI7
aI2451
aI1748
aI2493
aI3
aI3445
aI7
aI3
aI17
aI12855
aI3313
aI427
aI588
aI725
aI7208
aI7
aI3
aI6480
aI773
aI89
aI325
aI25576
aI7
aI3
aI7985
aI24
aI5450
aI2451
aI5
aI4461
aI725
aI7208
aI7
aI6478
aI43543
aI946
aI43544
aI24
aI732
aI43545
aI92
aI122
aI7367
aI45
aI15757
aI2304
aI70
aI63765
asg6
S'For example  although Empress Catherine II of Russia entirely rejected the concept of the social contract  she took up many ideas of the Enlightenment  being a great patron of the arts in Imperial Russia and incorporating many ideas of enlightened philosophes  especially Montesquieu  in her Nakaz  which was meant to revise Russian law .'
p11
ss.