(dp1
S'input'
p2
(dp3
S'encoded'
p4
(lp5
I64
aI2179
aI43
aI63
aI3
aI21
aI45
aI12715
aI417
aI99
aI316
aI2897
asS'ori'
p6
S'This house believes that the right to asylum should not be absolute'
p7
ssS'output'
p8
(dp9
g4
(lp10
I3
aI57
aI7
aI910
aI15
aI545
aI5
aI291
aI2203
aI116
aI89
aI125
aI2445
aI21
asg6
S'the freedom of movement both within and between countries is a basic human right'
p11
ss.