(dp1
S'input'
p2
(dp3
S'encoded'
p4
(lp5
I64
aI2179
aI394
aI4325
aI2042
aI270
aI89
aI11605
aI3324
asS'ori'
p6
S'This house would fund education using a voucher scheme'
p7
ssS'output'
p8
(dp9
g4
(lp10
I63
aI394
aI316
aI89
aI2482
aI2483
aI63
aI3241
aI63
aI34
aI223
aI3135
aI2511
aI3
aI1237
aI187
aI4593
aI3370
aI63765
asg6
S'That would be a Supreme Court that recognizes that for all criminal laws  the several states retain jurisdiction .'
p11
ss.