(dp1
S'input'
p2
(dp3
S'encoded'
p4
(lp5
I64
aI2179
aI394
aI16756
aI20435
asS'ori'
p6
S'This house would criminalize blasphemy'
p7
ssS'output'
p8
(dp9
g4
(lp10
I3
aI4603
aI7
aI20435
aI116
aI89
aI5327
aI4772
asg6
S'the offence of blasphemy is a dead letter'
p11
ss.