(dp1
S'input'
p2
(dp3
S'encoded'
p4
(lp5
I64
aI2179
aI43
aI63
aI3357
aI5003
aI652
aI3
aI188
aI3262
asS'ori'
p6
S'This house believes that opinion polls harm the democratic process'
p7
ssS'output'
p8
(dp9
g4
(lp10
I604
aI7
aI413
aI4361
aI4168
aI727
aI182
aI8302
aI24
aI3
aI2793
aI1948
aI7
aI3
aI626
aI187
aI226
aI5003
aI182
aI637
aI820
aI24
aI3
aI3912
aI63765
asg6
S'Because of time zones  election results are broadcast in the eastern parts of the United States while polls are still open in the west .'
p11
ss.