(dp1
S'input'
p2
(dp3
S'encoded'
p4
(lp5
I64
aI2179
aI43
aI8629
aI116
aI3
aI117
aI998
asS'ori'
p6
S'This house believes atheism is the only way'
p7
ssS'output'
p8
(dp9
g4
(lp10
I42
aI1590
aI1268
aI9529
aI63
aI257
aI5480
aI500
aI99
aI4532
aI134
aI394
aI316
aI2867
aI45
aI14552
aI1063
aI3399
aI107
aI63
aI5480
aI2628
aI6570
aI134
aI394
aI316
aI2867
aI45
aI5370
aI1063
aI63765
asg6
S'He reversed Voltaire\'s famous aphorism that if God did not exist  it would be necessary to invent him  writing instead that "if God really existed  it would be necessary to abolish him .'
p11
ss.