(dp1
S'input'
p2
(dp3
S'encoded'
p4
(lp5
I64
aI2179
aI43
aI63
aI1036
aI4828
aI33250
aI116
aI25073
aI45
aI3315
aI4562
asS'ori'
p6
S'This house believes that male infant circumcision is tantamount to child abuse'
p7
ssS'output'
p8
(dp9
g4
(lp10
I100
aI358
aI33284
aI39809
aI39810
aI45
aI316
aI89
aI399
aI7
aI60412
aI63
aI4646
aI45
aI316
aI14
aI3
aI33218
aI53
aI134
aI88
aI521
aI14676
aI33288
aI63765
asg6
S'Some consider balanitis xerotica obliterans to be a form of LSA that happens to be on the foreskin  where it may cause pathological phimosis .'
p11
ss.