(dp1
S'input'
p2
(dp3
S'encoded'
p4
(lp5
I64
aI2179
aI394
aI10662
aI626
aI187
aI2157
aI2697
aI19
aI2371
asS'ori'
p6
S'This house would remove United States military bases from Japan'
p7
ssS'output'
p8
(dp9
g4
(lp10
I1460
aI45
aI3
aI32862
aI7
aI11542
aI45
aI2692
aI4445
aI24
aI134
aI116
aI7863
aI131
aI1301
aI2523
aI63
aI2185
aI372
aI382
aI2946
aI45
aI2145
aI63765
aI2697
aI24
aI11542
aI63765
asg6
S'Prior to the reversion of Okinawa to Japanese administration in 1972  it is speculated  but never confirmed  that 1200 nuclear weapons were deployed to U .S . bases in Okinawa  .'
p11
ss.