(dp1
S'input'
p2
(dp3
S'encoded'
p4
(lp5
I64
aI2179
aI43
aI63
aI6670
aI546
aI417
aI316
aI89
aI1334
aI3108
aI7
aI4849
aI1886
aI2855
asS'ori'
p6
S'This house believes that wind power should be a primary focus of future energy supply'
p7
ssS'output'
p8
(dp9
g4
(lp10
I1240
aI1896
aI2438
aI45
aI1445
aI15230
aI182
aI3508
aI534
aI5
aI3
aI566
aI145
aI5136
aI182
aI8905
aI63765
asg6
S'Relatively few changes to large grids are normally required and the associated system costs are moderate .'
p11
ss.