(dp1
S'input'
p2
(dp3
S'encoded'
p4
(lp5
I64
aI2179
aI394
aI2741
aI3
aI1560
aI6025
aI2784
asS'ori'
p6
S'This house would pass the American Jobs Act'
p7
ssS'output'
p8
(dp9
g4
(lp10
I260
aI8733
aI2179
aI2518
aI89
aI70
aI63
aI1040
aI782
aI24
aI3584
aI260
aI779
aI45
aI9293
aI292
aI2900
aI7
aI6751
aI45
aI8733
aI45
aI3709
aI975
aI155
aI5878
aI271
aI4262
aI10001
aI63765
asg6
S'Government contractors House  Repeal a law that takes effect in 2011  requiring government agencies to withhold three percent of payments to contractors to help ensure they pay their tax bills .'
p11
ss.