(dp1
S'input'
p2
(dp3
S'encoded'
p4
(lp5
I64
aI2179
aI43
aI63
aI1036
aI4828
aI33250
aI116
aI25073
aI45
aI3315
aI4562
asS'ori'
p6
S'This house believes that male infant circumcision is tantamount to child abuse'
p7
ssS'output'
p8
(dp9
g4
(lp10
I3
aI32336
aI298
aI7322
aI3
aI596
aI7
aI34886
aI8432
aI134
aI45
aI773
aI5125
aI45
aI223
aI248
aI44574
aI717
aI14
aI3
aI44575
aI34
aI34885
aI7
aI44576
aI63765
asg6
S'The Talmud  when discussing the importance of Milah  compares it to being equal to all other mitzvot based on the gematria for brit of 612 (Tractate Nedarim 32a) .'
p11
ss.