(dp1
S'input'
p2
(dp3
S'encoded'
p4
(lp5
I64
aI2179
aI394
aI3830
aI3
aI475
aI7
aI9441
aI13132
aI3102
aI24
aI276
aI381
asS'ori'
p6
S'This house would permit the use of performance enhancing drugs in professional sports'
p7
ssS'output'
p8
(dp9
g4
(lp10
I113
aI8905
aI3934
aI7915
aI475
aI88
aI3226
aI7019
aI5
aI2356
aI2363
aI24
aI100
aI147
aI63765
asg6
S'Even moderate alcohol sustained use may increase anxiety and depression levels in some individuals .'
p11
ss.