(dp1
S'input'
p2
(dp3
S'encoded'
p4
(lp5
I64
aI2179
aI394
aI2017
aI223
aI9058
aI23653
asS'ori'
p6
S'This house would ban all unsustainable logging'
p7
ssS'output'
p8
(dp9
g4
(lp10
I3
aI19059
aI84
aI89
aI281
aI2210
aI24
aI200
aI6930
aI6695
aI6696
aI63765
asg6
S'The tropics take a major role in reducing atmospheric carbon dioxide .'
p11
ss.