(dp1
S'input'
p2
(dp3
S'encoded'
p4
(lp5
I64
aI2179
aI43
aI63
aI2659
aI417
aI1690
aI3
aI12048
aI7
aI19084
asS'ori'
p6
S'This house believes that Israel should lift the blockade of Gaza'
p7
ssS'output'
p8
(dp9
g4
(lp10
I273
aI11
aI12
aI1237
aI2962
aI5
aI2992
aI17427
aI3
aI782
aI7
aI3
aI12048
aI14
aI19084
aI63765
asg6
S'There have been several reports and studies analysing the effect of the blockade on Gaza .'
p11
ss.