(dp1
S'input'
p2
(dp3
S'encoded'
p4
(lp5
I64
aI2179
aI235
aI3
aI2136
aI7
aI3
aI2306
aI7
aI2390
asS'ori'
p6
S'This house supports the one-child policy of the republic of China'
p7
ssS'output'
p8
(dp9
g4
(lp10
I3
aI1376
aI6269
aI83
aI3281
aI165
aI3150
aI5
aI725
aI7
aI86
aI316
aI1016
aI45
aI5012
aI16933
aI63765
asg6
S'The poor consequently must live much worse  and many of them be reduced to severe distress  .'
p11
ss.