(dp1
S'input'
p2
(dp3
S'encoded'
p4
(lp5
I64
aI2179
aI43
aI63
aI3
aI21
aI45
aI12715
aI417
aI99
aI316
aI2897
asS'ori'
p6
S'This house believes that the right to asylum should not be absolute'
p7
ssS'output'
p8
(dp9
g4
(lp10
I64
aI1380
aI7
aI9688
aI5
aI2610
aI116
aI99
aI3508
aI976
aI257
aI89
aI3211
aI116
aI1010
aI689
aI1381
aI4285
aI88
aI25809
aI271
aI19686
aI73
aI154
aI248
aI26607
aI45
aI1397
aI13996
aI63765
asg6
S'This type of emigration and immigration is not normally legal  if a crime is internationally recognized  although criminals may disguise their identities or find other loopholes to evade detection .'
p11
ss.