(dp1
S'input'
p2
(dp3
S'encoded'
p4
(lp5
I64
aI2179
aI394
aI5842
aI3569
aI446
aI13498
asS'ori'
p6
S'This house would introduce year round schooling'
p7
ssS'output'
p8
(dp9
g4
(lp10
I3
aI3569
aI446
aI13004
aI146
aI136
aI7631
aI34
aI3874
aI31740
aI63765
asg6
S'The year round schedule provides more opportunities for family vacations .'
p11
ss.