(dp1
S'input'
p2
(dp3
S'encoded'
p4
(lp5
I64
aI2179
aI43
aI63
aI3
aI4538
aI7
aI4434
aI7793
aI283
aI45
aI3586
aI417
aI316
aI577
asS'ori'
p6
S'This house believes that the sale of violent video games to minors should be banned'
p7
ssS'output'
p8
(dp9
g4
(lp10
I3
aI17194
aI2994
aI24
aI3
aI626
aI187
aI55
aI1301
aI12
aI166
aI138
aI397
aI3
aI63765
asg6
S'The homicide rate in the United States has never been higher than during the 1930s .'
p11
ss.