(dp1
S'input'
p2
(dp3
S'encoded'
p4
(lp5
I64
aI2179
aI394
aI1499
aI3
aI8115
aI34564
aI17106
asS'ori'
p6
S'This house would build the Keystone XL pipeline'
p7
ssS'output'
p8
(dp9
g4
(lp10
I41
aI51
aI1343
aI24
aI3
aI10
aI7
aI3572
aI134
aI116
aI3990
aI34
aI17106
aI16416
aI45
aI316
aI1031
aI45
aI6861
aI5
aI24948
aI20398
aI7
aI2900
aI7
aI5086
aI3142
aI545
aI73
aI149
aI63765
asg6
S'As an example  in the State of Washington  it is mandatory for pipeline operators to be able to detect and locate leaks of 8 percent of maximum flow within 15&nbsp;minutes or less .'
p11
ss.