(dp1
S'input'
p2
(dp3
S'encoded'
p4
(lp5
I64
aI2179
aI235
aI3
aI2136
aI7
aI3
aI2306
aI7
aI2390
asS'ori'
p6
S'This house supports the one-child policy of the republic of China'
p7
ssS'output'
p8
(dp9
g4
(lp10
I3
aI2598
aI55
aI12
aI6449
aI14673
aI691
aI3
aI312
aI7
aI3
aI3386
aI1012
aI589
aI3
aI3569
aI1381
aI3
aI217
aI4229
aI3226
aI55
aI12
aI24
aI3
aI1447
aI2439
aI1155
aI1021
aI45
aI2015
aI13368
aI5
aI4696
aI24
aI7408
aI3223
aI63765
asg6
S'The population has been growing continuously since the end of the Black Death  around the year 1400  although the most significant increase has been in the last 50 years  mainly due to medical advancements and increases in agricultural productivity .'
p11
ss.