(dp1
S'input'
p2
(dp3
S'encoded'
p4
(lp5
I64
aI2179
aI43
aI63
aI3376
aI4938
aI417
aI316
aI3537
asS'ori'
p6
S'This house believes that endangered species should be protected'
p7
ssS'output'
p8
(dp9
g4
(lp10
I3
aI7836
aI182
aI4066
aI604
aI64
aI116
aI51
aI7799
aI2923
aI60
aI276
aI2256
aI24
aI3
aI7128
aI41
aI261
aI41
aI17
aI4372
aI63765
asg6
S'The topics are diverse  because this is an interdisciplinary network with professional alliances in the biological as well as social sciences .'
p11
ss.