(dp1
S'input'
p2
(dp3
S'encoded'
p4
(lp5
I64
aI2179
aI43
aI63
aI3
aI21
aI45
aI12715
aI417
aI99
aI316
aI2897
asS'ori'
p6
S'This house believes that the right to asylum should not be absolute'
p7
ssS'output'
p8
(dp9
g4
(lp10
I257
aI155
aI382
aI300
aI45
aI316
aI5647
aI45
aI316
aI24
aI3
aI2206
aI45
aI4799
aI63
aI3
aI2206
aI260
aI440
aI155
aI394
aI316
aI547
aI45
aI18477
aI63765
asg6
S'If they were deemed to be eligible to be re-settled in the US (according to criteria that the US government had established)  they would be allowed to immigrate .'
p11
ss.