(dp1
S'input'
p2
(dp3
S'encoded'
p4
(lp5
I64
aI2179
aI43
aI8629
aI116
aI3
aI117
aI998
asS'ori'
p6
S'This house believes atheism is the only way'
p7
ssS'output'
p8
(dp9
g4
(lp10
I12285
aI174
aI353
aI3
aI2497
aI22217
aI416
aI24
aI22218
aI3
aI3269
aI7
aI3
aI965
aI22219
aI5
aI55
aI4292
aI3
aI8792
aI45
aI3445
aI63765
asg6
S"Laurent also found the term mneme used in Maurice Maeterlinck's The Life of the White Ant (1926)  and has highlighted the similarities to Dawkins' concept  ."
p11
ss.