(dp1
S'input'
p2
(dp3
S'encoded'
p4
(lp5
I64
aI2179
aI43
aI63
aI2157
aI2565
aI493
aI19084
aI382
aI4850
asS'ori'
p6
S"This house believes that Israel's 2008-2009 military operations against Gaza were justified"
p7
ssS'output'
p8
(dp9
g4
(lp10
I42
aI263
aI3
aI6056
aI1687
aI5
aI5953
aI4641
aI63
aI134
aI394
aI1301
aI1195
aI375
aI63765
asg6
S'He called the Israeli attacks "outrageous" and demanded guarantees that it would never happen again .'
p11
ss.