(dp1
S'input'
p2
(dp3
S'encoded'
p4
(lp5
I64
aI2179
aI43
aI17
aI4941
aI857
aI3211
asS'ori'
p6
S'This house believes social deprivation causes crime'
p7
ssS'output'
p8
(dp9
g4
(lp10
I18467
aI4881
aI63
aI226
aI7076
aI41
aI89
aI94
aI182
aI14
aI3
aI12605
aI823
aI7
aI3
aI3760
aI1862
aI23
aI273
aI182
aI5041
aI545
aI3
aI2445
aI2598
aI60
aI100
aI12629
aI1636
aI645
aI5
aI80
aI12629
aI1636
aI12605
aI63765
asg6
S'Ellis claimed that  while humans as a group are on the K side of the reproductive strategy spectrum  there are variations within the human population  with some tending towards r and others tending towards K  .'
p11
ss.