(dp1
S'input'
p2
(dp3
S'encoded'
p4
(lp5
I64
aI2179
aI394
aI2017
aI3807
aI314
aI3433
asS'ori'
p6
S'This house would ban partial birth abortions'
p7
ssS'output'
p8
(dp9
g4
(lp10
I89
aI88
aI16717
aI3713
aI353
aI63
aI133
aI3257
aI24
aI3
aI2954
aI2306
aI417
aI316
aI547
aI3
aI8734
aI7
aI3
aI3833
asg6
S'A May 2007 CVVM poll found that 72% believe abortion in the Czech Republic should be allowed "at the request of the woman'
p11
ss.