(dp1
S'input'
p2
(dp3
S'encoded'
p4
(lp5
I64
aI2179
aI43
aI63
aI3
aI21
aI45
aI12715
aI417
aI99
aI316
aI2897
asS'ori'
p6
S'This house believes that the right to asylum should not be absolute'
p7
ssS'output'
p8
(dp9
g4
(lp10
I24
aI3
aI3393
aI3
aI12715
aI20601
aI83
aI3553
aI24
aI8308
aI3
aI1780
aI24
aI25
aI3900
aI2696
aI5
aI3
aI1025
aI6668
aI3
aI44830
aI417
aI3351
aI1063
aI3215
aI2554
aI63765
asg6
S'In the application  the asylum seeker must describe in detail the situation in his home country and the reason why the FMS should grant him refugee status .'
p11
ss.