(dp1
S'input'
p2
(dp3
S'encoded'
p4
(lp5
I64
aI2179
aI43
aI63
aI3
aI28431
aI7
aI2157
aI4624
aI75
aI39939
aI27257
aI122
aI4850
asS'ori'
p6
S'This house believes that the leaking of military documents by Anat Kamm was justified'
p7
ssS'output'
p8
(dp9
g4
(lp10
I24
aI2779
aI30394
aI2895
aI4216
aI89
aI2483
aI128
aI5377
aI150
aI12765
aI30435
aI19
aI13200
aI89
aI2038
aI3068
aI905
aI6909
aI3
aI1182
aI1571
aI45
aI7337
aI9025
aI2038
aI63765
asg6
S"In August 2009  Kaupthing Bank secured a court order preventing Iceland's national broadcaster  RUV  from broadcasting a risk analysis report showing the bank's substantial exposure to debt default risk ."
p11
ss.