(dp1
S'input'
p2
(dp3
S'encoded'
p4
(lp5
I64
aI2179
aI43
aI63
aI187
aI417
aI99
aI16642
aI3
aI6449
aI7
aI3935
asS'ori'
p6
S'This house believes that states should not subsidize the growing of tobacco'
p7
ssS'output'
p8
(dp9
g4
(lp10
I11946
aI1767
aI2856
aI45
aI1985
aI3495
aI3
aI3398
aI155
aI417
aI316
aI14833
aI27361
aI63765
asg6
S'Lucky Strike sought to give women the reasons they should be smoking Luckies .'
p11
ss.