(dp1
S'input'
p2
(dp3
S'encoded'
p4
(lp5
I64
aI2179
aI43
aI63
aI188
aI220
aI417
aI1619
aI4275
aI45
aI713
aI14799
aI7533
aI311
aI3
aI3721
aI5145
asS'ori'
p6
S'This house believes that democratic governments should require voters to present photo identification at the polling station'
p7
ssS'output'
p8
(dp9
g4
(lp10
I725
aI2203
aI158
aI6091
aI2265
aI327
aI2659
aI2371
aI10348
aI2044
aI3126
aI2048
aI5
aI7305
aI501
aI12418
aI45
aI2490
aI4546
aI7
aI4212
aI493
aI3
aI4288
aI63765
asg6
S'Many countries including Denmark  France  Germany  Israel  Japan  Kenya  Norway  Peru  Sweden  and Zimbabwe allow prisoners to vote (unless convicted of crimes against the electoral system)  .'
p11
ss.