(dp1
S'input'
p2
(dp3
S'encoded'
p4
(lp5
I64
aI2179
aI13605
aI2258
aI45
aI2194
asS'ori'
p6
S'This house prefers trade to aid'
p7
ssS'output'
p8
(dp9
g4
(lp10
I41
aI55
aI12
aI2174
aI2042
aI34
aI3495
aI47
aI501
aI34
aI1016
aI3874
aI58705
aI1185
aI130
aI1811
aI2117
aI24
aI211
aI284
aI21
aI63765
asg6
S'As has been mentioned  education for women will allow for reduced family sizean important poverty reduction event in its own right .'
p11
ss.