(dp1
S'input'
p2
(dp3
S'encoded'
p4
(lp5
I64
aI2179
aI13605
aI2258
aI45
aI2194
asS'ori'
p6
S'This house prefers trade to aid'
p7
ssS'output'
p8
(dp9
g4
(lp10
I23746
aI3
aI285
aI2895
aI174
aI123
aI6796
aI45
aI4506
aI130
aI60
aI3236
aI45
aI3
aI384
aI4658
aI14
aI3495
aI63765
asg6
S'Correspondingly  the World Bank also created objectives to address poverty with respect to the different effects on women  .'
p11
ss.