(dp1
S'input'
p2
(dp3
S'encoded'
p4
(lp5
I64
aI2179
aI43
aI63
aI3
aI4990
aI4991
aI116
aI4850
aI24
aI12166
aI3
aI475
aI7
aI3532
aI3290
aI7
aI4714
asS'ori'
p6
S'This house believes that the Catholic Church is justified in forbidding the use of barrier methods of contraception'
p7
ssS'output'
p8
(dp9
g4
(lp10
I93
aI978
aI89
aI4163
aI39805
aI7
aI14971
aI21152
aI14822
aI15683
aI39806
aI16279
aI14821
aI9618
aI21152
aI39759
aI5
aI9618
aI7693
aI256
aI63765
asg6
S'One represents a complete reinvention of retail condom brands  combining sleek metal packaging  innovative condom wrappers and innovative marketing programs .'
p11
ss.