(dp1
S'input'
p2
(dp3
S'encoded'
p4
(lp5
I64
aI2179
aI43
aI17
aI4941
aI857
aI3211
asS'ori'
p6
S'This house believes social deprivation causes crime'
p7
ssS'output'
p8
(dp9
g4
(lp10
I3851
aI7208
aI634
aI45
aI316
aI643
aI638
aI3
aI398
aI217
aI1052
aI75
aI1206
aI57586
aI24
aI3
aI5
aI22094
aI25184
aI24
aI3
aI5
aI302
aI45
aI673
aI3
aI3950
aI2196
aI63765
asg6
S"Sellin's original ideas continued to be developed throughout the 20th century  most notably by George Vold in the 1950s and Austin Turk in the 1960s  and continue to influence the contemporary debate  ."
p11
ss.