(dp1
S'input'
p2
(dp3
S'encoded'
p4
(lp5
I64
aI2179
aI43
aI8629
aI116
aI3
aI117
aI998
asS'ori'
p6
S'This house believes atheism is the only way'
p7
ssS'output'
p8
(dp9
g4
(lp10
I8301
aI39
aI61
aI42
aI2509
aI41
aI3
aI8317
aI673
aI7
aI5316
aI2042
aI60
aI3862
aI8486
aI5
aI8430
aI75
aI271
aI2382
aI63765
aI42
aI4439
aI3
aI8487
aI8446
aI2178
aI7
aI874
aI407
aI41
aI8488
aI1931
aI19
aI8489
aI8490
aI159
aI41
aI3953
aI60
aI3862
aI8491
aI2508
aI2767
aI4364
asg6
S'Dawkins discusses what he considers as the divisive influence of sectarian education  with children segregated and labelled by their religion . He describes the Hasidic Jewish community of North London as cloistered away from external influences such as television  with children attending exclusive religious schools'
p11
ss.