(dp1
S'input'
p2
(dp3
S'encoded'
p4
(lp5
I64
aI2179
aI235
aI3
aI2136
aI7
aI3
aI2306
aI7
aI2390
asS'ori'
p6
S'This house supports the one-child policy of the republic of China'
p7
ssS'output'
p8
(dp9
g4
(lp10
I3718
aI1381
aI3
aI5973
aI7
aI78
aI24
aI2404
aI55
aI1472
aI3
aI2897
aI696
aI7
aI23445
aI78
aI55
aI2322
aI1021
aI45
aI2598
aI2234
aI63765
asg6
S'Similarly  although the proportion of "starving" people in sub-Saharan Africa has decreased  the absolute number of starving people has increased due to population growth .'
p11
ss.