(dp1
S'input'
p2
(dp3
S'encoded'
p4
(lp5
I64
aI2179
aI43
aI63
aI6670
aI546
aI417
aI316
aI89
aI1334
aI3108
aI7
aI4849
aI1886
aI2855
asS'ori'
p6
S'This house believes that wind power should be a primary focus of future energy supply'
p7
ssS'output'
p8
(dp9
g4
(lp10
I5105
aI7010
aI79
aI45
aI6789
aI6693
aI41
aI6693
aI7011
aI6196
aI1886
aI5
aI2448
aI63765
asg6
S'Turbine designers work to minimise noise  as noise reflects lost energy and output .'
p11
ss.