(dp1
S'input'
p2
(dp3
S'encoded'
p4
(lp5
I64
aI2179
aI394
aI5370
aI3
aI5286
asS'ori'
p6
S'This house would abolish the monarchy'
p7
ssS'output'
p8
(dp9
g4
(lp10
I155
aI2814
aI45
aI501
aI2767
aI9422
aI57
aI7
aI2381
aI5
aI3
aI2961
aI5
aI3
aI21
aI45
aI1781
aI3249
aI4585
aI63765
asg6
S'They tended to allow religious toleration  freedom of speech and the press  and the right to hold private property .'
p11
ss.