(dp1
S'input'
p2
(dp3
S'encoded'
p4
(lp5
I64
aI2179
aI43
aI223
aI2138
aI11
aI89
aI21
aI45
aI2185
aI372
asS'ori'
p6
S'This house believes all nations have a right to nuclear weapons'
p7
ssS'output'
p8
(dp9
g4
(lp10
I8351
aI122
aI416
aI41
aI89
aI2267
aI7
aI15
aI150
aI5
aI8114
aI1500
aI131
aI174
aI800
aI3369
aI1191
aI3
aI934
aI7
aI3
aI8811
aI92
aI5162
aI2185
aI11877
aI736
aI3
aI7954
aI7884
aI60
aI3
aI11983
aI11966
aI3274
aI24
aI131
aI24
aI136
aI913
aI1183
aI60
aI49
aI223
aI6930
aI2185
aI63765
asg6
S'Testing was used as a sign of both national and technological strength  but also raised questions about the safety of the tests  which released nuclear fallout into the atmosphere (most dramatically with the Castle Bravo test in 1954  but in more limited amounts with almost all atmospheric nuclear testing) .'
p11
ss.