(dp1
S'input'
p2
(dp3
S'encoded'
p4
(lp5
I64
aI2179
aI43
aI63
aI3
aI4990
aI4991
aI116
aI4850
aI24
aI12166
aI3
aI475
aI7
aI3532
aI3290
aI7
aI4714
asS'ori'
p6
S'This house believes that the Catholic Church is justified in forbidding the use of barrier methods of contraception'
p7
ssS'output'
p8
(dp9
g4
(lp10
I1381
aI13759
aI116
aI513
aI89
aI1994
aI3378
aI134
aI116
aI748
aI45
aI1222
aI89
aI38624
aI21073
aI45
aI46825
aI3
aI38700
aI21027
aI24
aI5350
aI73
aI89
aI38623
aI21073
aI45
aI46825
aI3
aI40302
aI46826
aI24
aI5349
aI63765
asg6
S'Although sterilization is considered a permanent procedure  it is possible to attempt a tubal reversal to reconnect the Fallopian tubes in females or a vasectomy reversal to reconnect the vasa deferentia in males .'
p11
ss.