(dp1
S'input'
p2
(dp3
S'encoded'
p4
(lp5
I64
aI2179
aI394
aI16642
aI1376
aI5269
asS'ori'
p6
S'This house would subsidize poor communities'
p7
ssS'output'
p8
(dp9
g4
(lp10
I23106
aI256
aI11
aI572
aI12
aI416
aI45
aI454
aI3941
aI493
aI3
aI2838
aI24
aI9147
aI546
aI63
aI153
aI23107
aI5683
aI196
aI7525
aI5
aI248
aI2718
aI7524
aI63765
asg6
S'FFW programs have long been used to protect households against the decline in purchasing power that often accompanies seasonal unemployment  drought  and other periodic disruptions .'
p11
ss.