(dp1
S'input'
p2
(dp3
S'encoded'
p4
(lp5
I64
aI2179
aI394
aI5370
aI7146
aI4585
aI2446
asS'ori'
p6
S'This house would abolish intellectual property rights'
p7
ssS'output'
p8
(dp9
g4
(lp10
I5019
aI6829
aI63
aI7
aI3
aI2755
aI7
aI1445
aI3224
aI24
aI3
aI2145
aI63765
aI139
aI316
aI3958
aI45
aI18046
aI1186
aI63765
asg6
S'Economists estimate that two-thirds of the value of large businesses in the U .S . can be traced to intangible assets  .'
p11
ss.