(dp1
S'input'
p2
(dp3
S'encoded'
p4
(lp5
I64
aI2179
aI43
aI63
aI1036
aI4828
aI33250
aI116
aI25073
aI45
aI3315
aI4562
asS'ori'
p6
S'This house believes that male infant circumcision is tantamount to child abuse'
p7
ssS'output'
p8
(dp9
g4
(lp10
I3
aI2032
aI2029
aI55
aI99
aI12
aI3092
aI75
aI351
aI2544
aI7
aI2221
aI63765
asg6
S'The proposed bill has not been endorsed by any member of Congress  .'
p11
ss.