(dp1
S'input'
p2
(dp3
S'encoded'
p4
(lp5
I64
aI2179
aI13605
aI2258
aI45
aI2194
asS'ori'
p6
S'This house prefers trade to aid'
p7
ssS'output'
p8
(dp9
g4
(lp10
I131
aI357
aI182
aI99
aI2966
aI45
aI1640
aI1985
aI5025
aI137
aI5
aI3964
aI131
aI958
aI1710
aI7631
aI63765
asg6
S'But we are not supposed to just give African money and food but rather giving opportunities .'
p11
ss.