(dp1
S'input'
p2
(dp3
S'encoded'
p4
(lp5
I64
aI2179
aI43
aI63
aI187
aI417
aI99
aI16642
aI3
aI6449
aI7
aI3935
asS'ori'
p6
S'This house believes that states should not subsidize the growing of tobacco'
p7
ssS'output'
p8
(dp9
g4
(lp10
I24
aI5010
aI7
aI3
aI3495
aI10873
aI226
aI24
aI248
aI2203
aI159
aI41
aI16665
aI3
aI4442
aI116
aI2900
aI63765
asg6
S'In Argentina  22 .6% of the women smoke  while in other countries such as Uruguay the percentage is 25 .1 percent  .'
p11
ss.