(dp1
S'input'
p2
(dp3
S'encoded'
p4
(lp5
I64
aI2179
aI394
aI2773
aI12505
asS'ori'
p6
S'This house would embrace multiculturalism'
p7
ssS'output'
p8
(dp9
g4
(lp10
I3
aI1950
aI759
aI7
aI3
aI7074
aI62
aI34
aI3089
aI45
aI705
aI3
aI5354
aI7
aI3
aI9595
aI75
aI3424
aI5
aI45
aI2976
aI3
aI13839
aI685
aI24
aI3
aI237
aI759
aI7
aI3
aI11558
aI63765
asg6
S'The second part of the plan calls for actions to staff the office of the Secretariat by Summer 2007  and to implement the directives established in the first part of the document .'
p11
ss.