(dp1
S'input'
p2
(dp3
S'encoded'
p4
(lp5
I64
aI2179
aI43
aI63
aI2157
aI2565
aI493
aI19084
aI382
aI4850
asS'ori'
p6
S"This house believes that Israel's 2008-2009 military operations against Gaza were justified"
p7
ssS'output'
p8
(dp9
g4
(lp10
I131
aI14
aI2871
aI19088
aI254
aI2164
aI19122
aI10608
aI263
aI14
aI3
aI2800
aI2445
aI2446
aI2132
aI45
aI1781
aI89
aI4604
aI9621
aI45
aI15914
aI3
aI19389
aI905
aI63765
asg6
S'But on 11 October  Palestinian Authority President Mahmoud Abbas called on the UN Human Rights Council to hold a special session to endorse the Goldstone Report  .'
p11
ss.