(dp1
S'input'
p2
(dp3
S'encoded'
p4
(lp5
I64
aI2179
aI394
aI163
aI959
aI2042
aI3557
asS'ori'
p6
S'This house would make physical education compulsory'
p7
ssS'output'
p8
(dp9
g4
(lp10
I4284
aI3
aI2240
aI55
aI12
aI311
aI1059
aI9652
aI75
aI3
aI169
aI260
aI1381
aI89
aI2068
aI69
aI6978
aI905
aI88
aI4753
aI63
aI3
aI1362
aI116
aI2056
aI6798
aI63765
asg6
S'Historically  the school has been at best tolerated by the British Government  although a recent positive inspection report may indicate that the relationship is now improving  .'
p11
ss.