(dp1
S'input'
p2
(dp3
S'encoded'
p4
(lp5
I64
aI2179
aI43
aI63
aI3
aI21
aI45
aI12715
aI417
aI99
aI316
aI2897
asS'ori'
p6
S'This house believes that the right to asylum should not be absolute'
p7
ssS'output'
p8
(dp9
g4
(lp10
I2610
aI3987
aI116
aI311
aI713
aI759
aI7
aI3
aI2610
aI5
aI12420
aI16163
aI63765
asg6
S'"The Immigration Service is at present part of the Immigration and Nationality Directorate .'
p11
ss.