(dp1
S'input'
p2
(dp3
S'encoded'
p4
(lp5
I64
aI2179
aI394
aI4261
aI8667
aI3
aI9361
aI5
aI17069
asS'ori'
p6
S'This house would prohibit burning the stars and stripes'
p7
ssS'output'
p8
(dp9
g4
(lp10
I116
aI6278
aI45
aI3943
aI459
aI92
aI2489
aI7
aI3
aI3304
aI3
aI8865
aI122
aI4867
aI63765
asg6
S'[I]t is impossible to say under which clause of the statute the conviction was obtained .'
p11
ss.