(dp1
S'input'
p2
(dp3
S'encoded'
p4
(lp5
I64
aI2179
aI43
aI63
aI17574
aI417
aI316
aI3481
aI34
aI271
aI79
asS'ori'
p6
S'This house believes that housewives should be paid for their work'
p7
ssS'output'
p8
(dp9
g4
(lp10
I574
aI7
aI132
aI6348
aI12969
aI85
aI79
aI24
aI4645
aI45
aI3
aI192
aI63765
asg6
S'Each of these theories examines care work in relation to the market .'
p11
ss.