(dp1
S'input'
p2
(dp3
S'encoded'
p4
(lp5
I64
aI2179
aI394
aI16756
aI20435
asS'ori'
p6
S'This house would criminalize blasphemy'
p7
ssS'output'
p8
(dp9
g4
(lp10
I24
aI3220
aI7
aI2927
aI136
aI138
aI3202
aI2022
aI2142
aI19
aI2203
aI158
aI5761
aI5711
aI8446
aI5344
aI14158
aI5
aI8636
aI3136
aI2820
aI3
aI24858
aI75
aI89
aI2564
aI17286
aI45
aI4796
aI351
aI9596
aI493
aI3
aI20787
aI7
aI2382
aI63765
asg6
S'In advance of 26 March 2009  more than 200 civil society organizations from 46 countries  including Muslim  Christian  Jewish  Secular  Humanist and Atheist groups  urged the UNHRC by a joint petition to reject any resolution against the defamation of religion  .'
p11
ss.