(dp1
S'input'
p2
(dp3
S'encoded'
p4
(lp5
I64
aI2179
aI394
aI2017
aI628
asS'ori'
p6
S'This house would ban gambling'
p7
ssS'output'
p8
(dp9
g4
(lp10
I378
aI628
aI116
aI165
aI149
aI657
aI63765
asg6
S'However  casino-style gambling is much less widespread .'
p11
ss.