(dp1
S'input'
p2
(dp3
S'encoded'
p4
(lp5
I64
aI2179
aI43
aI63
aI2659
aI417
aI1690
aI3
aI12048
aI7
aI19084
asS'ori'
p6
S'This house believes that Israel should lift the blockade of Gaza'
p7
ssS'output'
p8
(dp9
g4
(lp10
I3
aI19096
aI440
aI3350
aI51
aI6056
aI8734
aI45
aI1546
aI2346
aI45
aI3
aI11571
aI7
aI19185
aI53
aI3
aI6056
aI260
aI440
aI742
aI134
aI394
aI14424
aI3
aI2194
aI5
aI1709
aI8196
aI2893
aI2142
aI2930
aI45
aI19084
aI63765
asg6
S'The flotilla had declined an Israeli request to change course to the port of Ashdod  where the Israeli government had said it would inspect the aid and deliver (or let humanitarian organizations deliver) Israeli-approved items to Gaza  .'
p11
ss.