(dp1
S'input'
p2
(dp3
S'encoded'
p4
(lp5
I64
aI2179
aI394
aI5370
aI223
aI4013
aI10440
aI2446
aI4881
aI75
aI14482
aI11004
asS'ori'
p6
S'This house would abolish all collective bargaining rights claimed by trades unions'
p7
ssS'output'
p8
(dp9
g4
(lp10
I89
aI667
aI2131
aI910
aI63
aI122
aI5052
aI10813
aI5
aI13294
aI2586
aI45
aI15508
aI18478
aI6941
aI24
aI63765
asg6
S'A new union movement that was "distinctly class conscious and vaguely Socialistic" began to organize unskilled workers in 1889  .'
p11
ss.