(dp1
S'input'
p2
(dp3
S'encoded'
p4
(lp5
I64
aI2179
aI394
aI2017
aI628
asS'ori'
p6
S'This house would ban gambling'
p7
ssS'output'
p8
(dp9
g4
(lp10
I3
aI54
aI98
aI99
aI3781
aI7147
aI628
aI63765
asg6
S'The regulation does not define "unlawful Internet gambling .'
p11
ss.