(dp1
S'input'
p2
(dp3
S'encoded'
p4
(lp5
I64
aI2179
aI43
aI63
aI3
aI4990
aI4991
aI116
aI4850
aI24
aI12166
aI3
aI475
aI7
aI3532
aI3290
aI7
aI4714
asS'ori'
p6
S'This house believes that the Catholic Church is justified in forbidding the use of barrier methods of contraception'
p7
ssS'output'
p8
(dp9
g4
(lp10
I93
aI7
aI136
aI641
aI256
aI116
aI211
aI79
aI24
aI7384
aI53
aI2377
aI182
aI534
aI45
aI1378
aI89
aI21152
aI1928
aI413
aI155
aI4680
aI1548
aI63765
asg6
S"One of DKT's more notable programs is its work in Ethiopia  where soldiers are required to carry a condom every time they leave base ."
p11
ss.