(dp1
S'input'
p2
(dp3
S'encoded'
p4
(lp5
I64
aI2179
aI13605
aI2258
aI45
aI2194
asS'ori'
p6
S'This house prefers trade to aid'
p7
ssS'output'
p8
(dp9
g4
(lp10
I41
aI3007
aI21928
aI3835
aI4933
aI7
aI2206
aI116
aI5665
aI75
aI3
aI2206
aI4262
aI145
aI92
aI19288
aI443
aI22186
aI4262
aI4912
aI14
aI2135
aI7500
aI5
aI3205
aI7783
aI24
aI3
aI2206
aI131
aI19288
aI89
aI528
aI4262
aI4912
aI14
aI2206
aI8306
aI7
aI7500
aI5
aI3205
aI917
aI7
aI755
aI155
aI182
aI7783
aI545
aI3
aI2206
aI73
aI6722
aI45
aI248
aI2203
aI63765
asg6
S'As Paul Craig Roberts notes: "[Foreign discrimination of US products] is reinforced by the US tax system  which imposes no appreciable tax burden on foreign goods and services sold in the US but imposes a heavy tax burden on US producers of goods and services regardless of whether they are sold within the US or exported to other countries .'
p11
ss.