(dp1
S'input'
p2
(dp3
S'encoded'
p4
(lp5
I64
aI2179
aI13605
aI2258
aI45
aI2194
asS'ori'
p6
S'This house prefers trade to aid'
p7
ssS'output'
p8
(dp9
g4
(lp10
I1260
aI2258
aI139
aI13188
aI150
aI2702
aI14
aI3
aI3016
aI63
aI89
aI2548
aI98
aI99
aI2258
aI60
aI211
aI2321
aI63765
asg6
S'Free trade can enhance national security  on the condition that a nation does not trade with its enemies .'
p11
ss.