(dp1
S'input'
p2
(dp3
S'encoded'
p4
(lp5
I64
aI2179
aI43
aI17
aI4941
aI857
aI3211
asS'ori'
p6
S'This house believes social deprivation causes crime'
p7
ssS'output'
p8
(dp9
g4
(lp10
I78
aI11
aI3
aI4204
aI45
aI268
aI24
aI89
aI1699
aI1051
aI7
aI8935
aI63765
asg6
S'People have the capacity to engage in a wide range of behavior .'
p11
ss.