(dp1
S'input'
p2
(dp3
S'encoded'
p4
(lp5
I64
aI2179
aI43
aI8629
aI116
aI3
aI117
aI998
asS'ori'
p6
S'This house believes atheism is the only way'
p7
ssS'output'
p8
(dp9
g4
(lp10
I1215
aI768
aI27147
aI89
aI5699
aI41
aI89
aI3166
aI3357
aI946
aI41
aI89
aI19391
aI7
aI89
aI1043
aI11232
aI51
aI63
aI116
aI3451
aI3166
aI63
aI223
aI4509
aI78
aI394
aI1792
aI134
aI41
aI4977
asg6
S'Ward then characterizes a delusion as a "clearly false opinion  especially as a symptom of a mental illness " an "irrational belief" that is "so obviously false that all reasonable people would see it as mistaken ."'
p11
ss.