(dp1
S'input'
p2
(dp3
S'encoded'
p4
(lp5
I64
aI2179
aI394
aI5370
aI3
aI5286
asS'ori'
p6
S'This house would abolish the monarchy'
p7
ssS'output'
p8
(dp9
g4
(lp10
I146
aI89
aI2169
aI493
aI260
aI24097
aI186
aI63
aI3
aI2477
aI1597
aI3
aI546
aI45
aI6250
aI73
aI4898
aI89
aI463
aI2169
aI493
aI326
aI1978
aI1604
aI89
aI6099
aI63765
asg6
S"Provides a safeguard against government instabilitySome argue that the Monarch's constitutional position (with the little-used power to dissolve or refuse a government) could safeguard against Britain ever becoming a dictatorship ."
p11
ss.