(dp1
S'input'
p2
(dp3
S'encoded'
p4
(lp5
I64
aI2179
aI394
aI2017
aI628
asS'ori'
p6
S'This house would ban gambling'
p7
ssS'output'
p8
(dp9
g4
(lp10
I7618
aI5
aI248
aI274
aI7
aI628
aI394
aI316
aI911
aI6972
aI24
aI3
aI2318
aI397
aI4240
aI5
aI24
aI248
aI2506
aI131
aI75
aI3
aI320
aI398
aI628
aI122
aI49
aI7641
aI625
aI638
aI3
aI2145
aI63765
aI628
aI373
aI89
aI4024
aI1968
aI364
aI7277
aI45
aI7642
aI3
aI2234
aI7
aI3
aI7643
aI5
aI248
aI3550
aI3211
aI63765
asg6
S'Lotteries and other forms of gambling would be revived temporarily in the South during Reconstruction  and in other areas  but by the early 20th century gambling was almost uniformly outlawed throughout the U .S . Gambling became a largely illegal activity helping to spur the growth of the mafia and other organized crime  .'
p11
ss.