(dp1
S'input'
p2
(dp3
S'encoded'
p4
(lp5
I64
aI2179
aI43
aI63
aI187
aI417
aI99
aI16642
aI3
aI6449
aI7
aI3935
asS'ori'
p6
S'This house believes that states should not subsidize the growing of tobacco'
p7
ssS'output'
p8
(dp9
g4
(lp10
I298
aI411
aI2233
aI7
aI180
aI89
aI26302
aI5
aI3
aI3698
aI7
aI89
aI89
aI25453
aI45
aI3935
aI5841
aI45
aI8814
aI3
aI667
aI2229
aI75
aI12463
aI89
aI4262
aI3226
aI14
aI3935
aI24
aI134
aI122
aI15787
aI41
aI3017
aI75
aI3
aI5556
aI7
aI589
aI3935
aI898
aI24
aI407
aI75
aI3
aI320
aI398
aI63765
asg6
S'When James I of England  a staunch anti-smoker and the author of a A Counterblaste to Tobacco  tried to curb the new trend by enforcing a 4000% tax increase on tobacco in 1604 it was unsuccessful  as suggested by the presence of around 7 000 tobacco outlets in London by the early 17th century .'
p11
ss.