(dp1
S'input'
p2
(dp3
S'encoded'
p4
(lp5
I64
aI2179
aI13605
aI2258
aI45
aI2194
asS'ori'
p6
S'This house prefers trade to aid'
p7
ssS'output'
p8
(dp9
g4
(lp10
I24
aI100
aI4949
aI3
aI2891
aI2194
aI6941
aI1453
aI99
aI3236
aI3
aI2083
aI4674
aI7
aI709
aI63765
asg6
S'In some projects  the development aid workers do not respect the local code of conduct .'
p11
ss.