(dp1
S'input'
p2
(dp3
S'encoded'
p4
(lp5
I64
aI2179
aI43
aI8629
aI116
aI3
aI117
aI998
asS'ori'
p6
S'This house believes atheism is the only way'
p7
ssS'output'
p8
(dp9
g4
(lp10
I3
aI2498
aI7
aI2514
aI24
aI4588
aI1967
aI604
aI7
aI35
aI3539
aI958
aI138
aI4588
aI257
aI7824
aI18580
aI63765
asg6
S'The sense of obligation in morality exists because of natural processes  rather than morality  if evolutionary naturalism  .'
p11
ss.