(dp1
S'input'
p2
(dp3
S'encoded'
p4
(lp5
I64
aI2179
aI43
aI63
aI1036
aI4828
aI33250
aI116
aI25073
aI45
aI3315
aI4562
asS'ori'
p6
S'This house believes that male infant circumcision is tantamount to child abuse'
p7
ssS'output'
p8
(dp9
g4
(lp10
I5047
aI63
aI3822
aI33250
aI406
aI45
aI296
aI24
aI3006
aI3797
aI24
aI3052
aI3939
aI773
aI3
aI2016
aI122
aI5043
aI4229
aI63765
asg6
S'reported that adult circumcision appeared to result in improved satisfaction in 34 cases (of 95 adults being circumcised)  the association was statistically significant  .'
p11
ss.