(dp1
S'input'
p2
(dp3
S'encoded'
p4
(lp5
I64
aI2179
aI43
aI63
aI1036
aI4828
aI33250
aI116
aI25073
aI45
aI3315
aI4562
asS'ori'
p6
S'This house believes that male infant circumcision is tantamount to child abuse'
p7
ssS'output'
p8
(dp9
g4
(lp10
I24
aI3
aI320
aI398
aI1075
aI23942
aI1544
aI725
aI34612
aI7704
aI7
aI3
aI29756
aI6622
aI736
aI3
aI14223
aI7
aI89
aI7456
aI6358
aI5761
aI910
aI63765
asg6
S'In the early 7th century  Muhammad welded together many Semitic tribes of the Arabian peninsula into the kernel of a rapidly expanding Muslim movement .'
p11
ss.