(dp1
S'input'
p2
(dp3
S'encoded'
p4
(lp5
I64
aI2179
aI43
aI24
aI3
aI475
aI7
aI12436
aI3364
asS'ori'
p6
S'This house believes in the use of affirmative action'
p7
ssS'output'
p8
(dp9
g4
(lp10
I24
aI271
aI234
aI132
aI189
aI12940
aI51
aI5903
aI12179
aI34
aI10248
aI19
aI1341
aI4067
aI289
aI4672
aI19
aI248
aI4067
aI63765
asg6
S'In their view  these policies demonstrate an overt preference for applicants from particular backgrounds over better-qualified (or equally-qualified) candidates from other backgrounds .'
p11
ss.