(dp1
S'input'
p2
(dp3
S'encoded'
p4
(lp5
I64
aI2179
aI43
aI63
aI11083
aI10046
aI417
aI316
aI89
aI3135
aI4603
asS'ori'
p6
S'This house believes that Holocaust denial should be a criminal offence'
p7
ssS'output'
p8
(dp9
g4
(lp10
I653
aI3
aI1165
aI7
aI179
aI8471
aI7
aI64
aI7371
aI2439
aI395
aI24
aI2805
aI2999
aI9798
aI54801
aI5606
aI7
aI3
aI927
aI7
aI14335
aI2041
aI24
aI10736
aI54802
aI3
aI3068
aI63765
asg6
S'Despite the difficulty of finding traces of this material 50 years later  in February  1990  Professor Jan Markiewicz  Director of the Institute of Forensic Research in Krakow  redid the analysis  .'
p11
ss.