(dp1
S'input'
p2
(dp3
S'encoded'
p4
(lp5
I64
aI2179
aI43
aI63
aI17574
aI417
aI316
aI3481
aI34
aI271
aI79
asS'ori'
p6
S'This house believes that housewives should be paid for their work'
p7
ssS'output'
p8
(dp9
g4
(lp10
I85
aI79
aI41
aI2609
aI45
aI16
aI2891
aI5
aI2445
asg6
S'care work as central to economic development and human well-being'
p11
ss.