(dp1
S'input'
p2
(dp3
S'encoded'
p4
(lp5
I64
aI2179
aI43
aI17
aI4941
aI857
aI3211
asS'ori'
p6
S'This house believes social deprivation causes crime'
p7
ssS'output'
p8
(dp9
g4
(lp10
I271
aI5966
aI7970
aI24
aI3
aI13537
aI2722
aI382
aI4328
aI75
aI10104
aI2483
aI14323
aI5
aI2483
aI59022
aI7
aI8890
aI1620
aI63765
asg6
S'Their dependent variables in the delinquency rates were measured by arrests  court appearances  and court adjudications of institutional commitment .'
p11
ss.