(dp1
S'input'
p2
(dp3
S'encoded'
p4
(lp5
I64
aI2179
aI43
aI63
aI3
aI4538
aI7
aI4434
aI7793
aI283
aI45
aI3586
aI417
aI316
aI577
asS'ori'
p6
S'This house believes that the sale of violent video games to minors should be banned'
p7
ssS'output'
p8
(dp9
g4
(lp10
I24
aI14
aI89
aI2240
aI22271
aI24
aI15768
aI3342
aI3887
aI51
aI5545
aI10731
aI122
aI2552
aI75
aI89
aI94
aI7
aI1237
aI1478
aI5716
aI81
aI3
aI10731
aI742
aI11739
aI732
aI20710
aI5
aI27625
aI11389
aI1647
aI63765
asg6
S'In 2005 on a school bus in Montgomery County  Maryland  an 11-year old girl was attacked by a group of several older boys who  the girl said  grabbed her breasts and feigned sex acts .'
p11
ss.