(dp1
S'input'
p2
(dp3
S'encoded'
p4
(lp5
I64
aI2179
aI235
aI3
aI2136
aI7
aI3
aI2306
aI7
aI2390
asS'ori'
p6
S'This house supports the one-child policy of the republic of China'
p7
ssS'output'
p8
(dp9
g4
(lp10
I13759
aI2722
aI967
aI3
aI2696
aI382
aI1240
aI982
aI773
aI3
aI2486
aI487
aI3
aI2482
aI2483
aI33
aI15100
aI646
aI63765
aI8748
aI92
aI17692
aI3
aI5175
aI13759
aI7
aI4821
aI311
aI89
aI4132
aI3900
aI34
aI3
aI4730
aI13263
aI63765
asg6
S'Sterilization rates across the country were relatively low (California being the sole exception) until the 1927 Supreme Court case Buck v . Bell which legitimized the forced sterilization of patients at a Virginia home for the mentally retarded .'
p11
ss.