(dp1
S'input'
p2
(dp3
S'encoded'
p4
(lp5
I64
aI2179
aI394
aI2017
aI3807
aI314
aI3433
asS'ori'
p6
S'This house would ban partial birth abortions'
p7
ssS'output'
p8
(dp9
g4
(lp10
I100
aI10022
aI96
aI3257
aI24
aI3052
aI53
aI3
aI3269
aI116
aI311
aI10129
aI2038
aI73
aI298
aI3
aI3486
aI55
aI89
aI3269
aI3097
aI4743
aI5302
aI63765
asg6
S"Some Hindus support abortion in cases where the mother's life is at imminent risk or when the fetus has a life threatening developmental anomaly ."
p11
ss.