(dp1
S'input'
p2
(dp3
S'encoded'
p4
(lp5
I64
aI2179
aI394
aI5370
aI3
aI5286
asS'ori'
p6
S'This house would abolish the monarchy'
p7
ssS'output'
p8
(dp9
g4
(lp10
I2025
aI7
aI3
aI5286
aI186
aI134
aI5136
aI667
aI6113
aI9375
aI117
aI89
aI1488
aI8944
aI34
aI4137
aI18406
aI5
aI14891
aI5
aI3
aI9062
aI7
aI3
aI2426
aI63765
asg6
S"Supporters of the monarchy argue it costs New Zealand taxpayers only a small outlay for royal engagements and tours  and the expenses of the Governor-General's establishment ."
p11
ss.