(dp1
S'input'
p2
(dp3
S'encoded'
p4
(lp5
I64
aI2179
aI43
aI63
aI2659
aI417
aI1690
aI3
aI12048
aI7
aI19084
asS'ori'
p6
S'This house believes that Israel should lift the blockade of Gaza'
p7
ssS'output'
p8
(dp9
g4
(lp10
I42
aI174
aI3531
aI3
aI897
aI34
aI7
aI3
aI10730
aI3526
aI63
aI6833
aI3369
aI417
aI11
aI12
aI2200
aI7
aI3
aI19096
aI655
aI5
aI63
aI3
aI5489
aI122
aI51
aI15983
aI5
aI29929
aI69
aI14276
aI34
aI3
aI655
aI63765
asg6
S'He also criticized the media for "soft-centred coverage" of the affair  suggesting that pointed questions should have been asked of the flotilla participants and that the title "activists" was an inaccurate and gratuitously positive label for the participants  .'
p11
ss.