(dp1
S'input'
p2
(dp3
S'encoded'
p4
(lp5
I64
aI2179
aI394
aI2976
aI12243
aI24
aI954
aI126
aI1560
aI10723
asS'ori'
p6
S'This house would implement playoffs in collegiate level American football'
p7
ssS'output'
p8
(dp9
g4
(lp10
I3
aI34960
aI6335
aI24
aI9230
aI24
aI61
aI725
aI1366
aI8851
aI5
aI80
aI358
aI45
aI316
aI93
aI7
aI3
aI1059
aI20731
aI283
aI24
aI2231
aI63765
asg6
S'The Broncos won 4342 in overtime in what many fans  pundits and others consider to be one of the best Bowl games in history .'
p11
ss.