(dp1
S'input'
p2
(dp3
S'encoded'
p4
(lp5
I64
aI2179
aI43
aI63
aI3
aI4538
aI7
aI4434
aI7793
aI283
aI45
aI3586
aI417
aI316
aI577
asS'ori'
p6
S'This house believes that the sale of violent video games to minors should be banned'
p7
ssS'output'
p8
(dp9
g4
(lp10
I990
aI3
aI877
aI753
aI24
aI6011
aI7300
aI8544
aI122
aI63
aI14
aI159
aI1408
aI131
aI2583
aI3811
aI41
aI4434
aI7793
aI283
aI857
aI8532
aI17
aI3727
aI5
aI9126
aI45
aI1169
aI3
aI165
aI136
aI1173
aI5
aI4229
aI857
aI7
aI9184
aI2617
aI63
aI11
aI1719
aI12
aI261
aI685
aI158
aI89
aI1051
aI7
aI17
aI14761
aI16
aI7128
aI5
aI1356
aI63765
asg6
S'Ultimately  the conclusion reached in Grand Theft Childhood was that "focusing on such easy but minor targets as violent video games causes parents  social activists and public-policy makers to ignore the much more powerful and significant causes of youth violence that have already been well established  including a range of [non-gender-linked] social  behavioral  economic  biological and mental-health factors .'
p11
ss.