(dp1
S'input'
p2
(dp3
S'encoded'
p4
(lp5
I64
aI2179
aI43
aI24
aI3
aI475
aI7
aI12436
aI3364
asS'ori'
p6
S'This house believes in the use of affirmative action'
p7
ssS'output'
p8
(dp9
g4
(lp10
I89
aI2503
aI2483
aI16577
aI51
aI4235
aI10
aI70
aI63
aI5333
aI3495
aI19
aI4286
aI6025
aI92
aI534
aI3
aI710
aI45
aI1690
aI13273
aI5
aI534
aI3495
aI45
aI84
aI23103
aI3873
aI298
aI1980
aI382
aI99
aI534
aI45
aI63765
asg6
S'A federal court overruled an Ohio state law that barred women from obtaining jobs which required the ability to lift 25 pounds and required women to take lunch breaks when men were not required to  .'
p11
ss.