(dp1
S'input'
p2
(dp3
S'encoded'
p4
(lp5
I64
aI2179
aI43
aI63
aI2203
aI60
aI51
aI997
aI2837
aI21716
aI1636
aI5349
aI417
aI2998
aI8532
aI45
aI3051
aI8578
asS'ori'
p6
S'This house believes that countries with an imbalanced male/female ratio skewed towards males should encourage parents to produce girls'
p7
ssS'output'
p8
(dp9
g4
(lp10
I3
aI1485
aI116
aI217
aI279
aI887
aI7482
aI5
aI6374
aI6049
aI81
aI182
aI217
aI1856
aI45
aI141
aI3
aI3378
aI63765
asg6
S'The practice is most common among educated and wealthy residents  who are most likely to afford the procedure  .'
p11
ss.