(dp1
S'input'
p2
(dp3
S'encoded'
p4
(lp5
I64
aI2179
aI43
aI63
aI134
aI116
aI400
aI21
aI34
aI3
aI260
aI45
aI3439
aI57
aI7
aI2381
asS'ori'
p6
S'This house believes that it is sometimes right for the government to restrict freedom of speech'
p7
ssS'output'
p8
(dp9
g4
(lp10
I4167
aI10366
aI13443
aI1063
aI5
aI122
aI221
aI1268
aI34
aI25
aI2381
aI865
aI24
aI63765
aI5
aI3
aI2511
aI7
aI3218
aI2696
aI11
aI575
aI2206
aI89
aI21
aI45
aI3447
aI7
aI15
aI18311
aI5
aI4287
aI3471
aI546
aI63765
aI75
aI1769
aI5
aI3399
aI10933
aI63765
asg6
S'Andrew Hamilton defended him and was made famous for his speech  ending in  " . .nature and the laws of our country have given us a right to liberty of both exposing and opposing arbitrary power [ . .] by speaking and writing truth .'
p11
ss.