(dp1
S'input'
p2
(dp3
S'encoded'
p4
(lp5
I64
aI2179
aI394
aI2998
aI3
aI4360
aI7
aI3249
aI6804
aI24
aI3
aI102
asS'ori'
p6
S'This house would encourage the creation of private universities in the UK'
p7
ssS'output'
p8
(dp9
g4
(lp10
I4229
aI9178
aI7
aI10
aI4443
aI7762
aI24
aI2793
aI5
aI2609
aI323
aI5
aI3
aI809
aI943
aI2131
aI122
aI3227
aI24
aI3
aI60
aI115
aI19
aI3
aI285
aI2895
aI3
aI2145
aI63765
aI2904
aI34
aI282
aI2891
aI3
aI2330
aI35600
aI5
aI248
aI3664
aI5
aI9598
aI2142
aI63765
asg6
S'Significant privatization of state owned enterprises in Eastern and Central Europe and the former Soviet Union was undertaken in the 1990s with assistance from the World Bank  the U .S . Agency for International Development  the German Treuhand  and other governmental and nongovernmental organizations .'
p11
ss.