(dp1
S'input'
p2
(dp3
S'encoded'
p4
(lp5
I64
aI2179
aI43
aI3
aI626
aI187
aI116
aI1989
aI34
aI3102
aI2223
asS'ori'
p6
S"This house believes the United States is responsible for Mexico's drugs war"
p7
ssS'output'
p8
(dp9
g4
(lp10
I3
aI4949
aI2170
aI182
aI45
aI3209
aI4204
aI96
aI2816
aI4662
aI5
aI3226
aI3
aI13136
aI7
aI5
aI2178
aI717
aI4748
aI34
aI7119
aI4902
aI5
aI9449
aI96
aI3205
aI63765
asg6
S'The projects goals are to expand capacity  support client choice  and increase the array of faith-based and community based providers for clinical treatment and recovery support services  .'
p11
ss.