(dp1
S'input'
p2
(dp3
S'encoded'
p4
(lp5
I64
aI2179
aI394
aI2017
aI223
aI9058
aI23653
asS'ori'
p6
S'This house would ban all unsustainable logging'
p7
ssS'output'
p8
(dp9
g4
(lp10
I41
aI60
aI725
aI2730
aI4938
aI134
aI122
aI15856
aI1191
aI77
aI3967
aI1443
aI7076
aI45
aI1039
aI5
aI2011
aI134
aI60
aI11544
aI63765
asg6
S'As with many island species  it was naive about certain predators  allowing humans to approach and kill it with ease  .'
p11
ss.