(dp1
S'input'
p2
(dp3
S'encoded'
p4
(lp5
I64
aI2179
aI394
aI5370
aI3
aI5286
asS'ori'
p6
S'This house would abolish the monarchy'
p7
ssS'output'
p8
(dp9
g4
(lp10
I2767
aI31829
aI5
aI17029
aI60
aI3
aI6359
aI2425
aI3
aI5301
aI45
aI1746
aI19
aI3
aI369
aI4990
aI4991
aI5
aI45
aI687
aI3
aI4991
aI7
aI180
aI8612
aI63765
asg6
S'Religious upheaval and disputes with the Pope led the monarch to break from the Roman Catholic Church and to establish the Church of England (the Anglican Church)  .'
p11
ss.