(dp1
S'input'
p2
(dp3
S'encoded'
p4
(lp5
I64
aI2179
aI13605
aI2258
aI45
aI2194
asS'ori'
p6
S'This house prefers trade to aid'
p7
ssS'output'
p8
(dp9
g4
(lp10
I751
aI701
aI3592
aI3
aI2134
aI394
aI10
aI271
aI2170
aI5
aI40
aI155
aI7590
aI45
aI3728
aI5
aI671
aI86
aI63765
asg6
S'Before receiving funding  the organization would state their goals and how they expect to measure and achieve them .'
p11
ss.