(dp1
S'input'
p2
(dp3
S'encoded'
p4
(lp5
I64
aI2179
aI43
aI3
aI626
aI187
aI116
aI1989
aI34
aI3102
aI2223
asS'ori'
p6
S"This house believes the United States is responsible for Mexico's drugs war"
p7
ssS'output'
p8
(dp9
g4
(lp10
I24
aI421
aI8778
aI475
aI97
aI5226
aI145
aI60
aI51
aI930
aI17504
aI45
aI73
aI136
aI14170
aI28332
aI5
aI17372
aI63765
asg6
S'In addition  agents use another computer system (Access 2000) with an automated interface to 100 or more manufacturers  importers and distributors  .'
p11
ss.