(dp1
S'input'
p2
(dp3
S'encoded'
p4
(lp5
I64
aI2179
aI394
aI2773
aI12505
asS'ori'
p6
S'This house would embrace multiculturalism'
p7
ssS'output'
p8
(dp9
g4
(lp10
I15390
aI237
aI8656
aI7
aI2474
aI14
aI12505
aI122
aI3
aI15390
aI21341
aI2132
aI2784
aI24
aI63765
asg6
S"Manitoba Manitoba's first piece of legislation on multiculturalism was the Manitoba Intercultural Council Act in 1984  ."
p11
ss.