(dp1
S'input'
p2
(dp3
S'encoded'
p4
(lp5
I64
aI2179
aI394
aI2017
aI3807
aI314
aI3433
asS'ori'
p6
S'This house would ban partial birth abortions'
p7
ssS'output'
p8
(dp9
g4
(lp10
I257
aI3
aI10
aI116
aI5283
aI24
aI1771
aI3460
aI3269
aI366
aI3280
aI134
aI88
aI867
aI87
aI938
aI41
aI45
aI16524
aI3257
aI397
aI63
aI639
aI3375
aI298
aI134
aI116
aI2867
aI45
aI10008
aI3
aI3269
aI73
aI3217
aI7
aI3
aI3459
aI63765
asg6
S'If the State is interested in protecting fetal life after viability  it may go so far as to proscribe abortion during that period  except when it is necessary to preserve the life or health of the mother  .'
p11
ss.