(dp1
S'input'
p2
(dp3
S'encoded'
p4
(lp5
I64
aI2179
aI43
aI8629
aI116
aI3
aI117
aI998
asS'ori'
p6
S'This house believes atheism is the only way'
p7
ssS'output'
p8
(dp9
g4
(lp10
I64
aI213
aI55
aI12
aI3531
aI75
aI3683
aI63
aI174
aI3
aI20163
aI7
aI3148
aI182
aI6200
aI159
aI41
aI3
aI27583
aI7
aI805
aI5
aI63
aI134
aI1227
aI45
aI316
aI12955
aI6668
aI5480
aI1735
aI3
aI20163
aI7
aI3148
aI45
aI8972
aI63765
asg6
S'This solution has been criticized by arguing that also the illusions of evil are problematic  such as the illusion of pain  and that it needs to be explained why God allows the illusions of evil to persist  .'
p11
ss.