(dp1
S'input'
p2
(dp3
S'encoded'
p4
(lp5
I64
aI2179
aI394
aI2976
aI12243
aI24
aI954
aI126
aI1560
aI10723
asS'ori'
p6
S'This house would implement playoffs in collegiate level American football'
p7
ssS'output'
p8
(dp9
g4
(lp10
I3806
aI1846
aI7713
aI34
aI3
aI11052
aI24
aI3
aI34949
aI3713
aI75
aI524
aI63765
asg6
S'Nebraska beat Colorado for the #2 spot in the BCS poll by  .05 points .'
p11
ss.