(dp1
S'input'
p2
(dp3
S'encoded'
p4
(lp5
I64
aI2179
aI43
aI63
aI3
aI28431
aI7
aI2157
aI4624
aI75
aI39939
aI27257
aI122
aI4850
asS'ori'
p6
S'This house believes that the leaking of military documents by Anat Kamm was justified'
p7
ssS'output'
p8
(dp9
g4
(lp10
I51
aI3500
aI24
aI3
aI667
aI15894
aI7
aI3
aI2201
aI3727
aI4443
aI89
aI14263
aI63
aI122
aI773
aI416
aI41
aI89
aI30423
aI34
aI3
aI30337
aI2923
aI63765
asg6
S'An article in The New Yorker said:One of the WikiLeaks activists owned a server that was being used as a node for the Tor network .'
p11
ss.