(dp1
S'input'
p2
(dp3
S'encoded'
p4
(lp5
I64
aI2179
aI43
aI3
aI626
aI187
aI116
aI1989
aI34
aI3102
aI2223
asS'ori'
p6
S"This house believes the United States is responsible for Mexico's drugs war"
p7
ssS'output'
p8
(dp9
g4
(lp10
I24
aI443
aI998
aI394
aI357
aI11
aI547
aI134
aI604
aI134
aI116
aI51
aI1274
aI14
aI3
aI934
aI7
aI28307
asg6
S'In no way would we have allowed it  because it is an attack on the safety of Mexicans ."'
p11
ss.