(dp1
S'input'
p2
(dp3
S'encoded'
p4
(lp5
I64
aI2179
aI43
aI17
aI4941
aI857
aI3211
asS'ori'
p6
S'This house believes social deprivation causes crime'
p7
ssS'output'
p8
(dp9
g4
(lp10
I6599
aI611
aI45
aI3
aI5
aI388
aI2231
aI7
aI134
aI116
aI2398
aI2915
aI45
aI89
aI165
aI1478
aI7834
aI7
aI17
aI4372
aI17
aI24
aI448
aI63765
asg6
S'Dating back to the 18th and 19th centuries (see history of sociology)  it is closely tied to a much older field of social sciences (and social theory) in general  .'
p11
ss.