(dp1
S'input'
p2
(dp3
S'encoded'
p4
(lp5
I64
aI2179
aI235
aI839
aI4168
aI7
aI4996
aI34759
asS'ori'
p6
S'This house supports direct election of city mayors'
p7
ssS'output'
p8
(dp9
g4
(lp10
I14
aI2805
aI35848
aI4996
aI2132
aI297
aI45
aI45
aI11
aI89
aI2818
aI2990
aI8828
aI60
aI782
aI19
aI88
aI63765
asg6
S'On 7 February 2012  Liverpool City Council decided to to have a directly elected mayor with effect from May 2012  .'
p11
ss.