(dp1
S'input'
p2
(dp3
S'encoded'
p4
(lp5
I64
aI2179
aI394
aI4325
aI2042
aI270
aI89
aI11605
aI3324
asS'ori'
p6
S'This house would fund education using a voucher scheme'
p7
ssS'output'
p8
(dp9
g4
(lp10
I2365
aI63765
aI8828
aI8510
aI51345
aI1612
aI3619
aI35062
aI3
aI1028
aI7
aI3313
aI1348
aI366
aI773
aI5541
aI15778
aI9281
aI34
aI1431
aI2438
aI3313
aI3478
aI45
aI163
aI63765
asg6
S'Newly-elected D .C . Mayor Adrian Fenty quickly offered Rhee the job of chancellor; she accepted after being promised mayoral backing for whatever changes she wanted to make  .'
p11
ss.