(dp1
S'input'
p2
(dp3
S'encoded'
p4
(lp5
I64
aI2179
aI394
aI2017
aI3807
aI314
aI3433
asS'ori'
p6
S'This house would ban partial birth abortions'
p7
ssS'output'
p8
(dp9
g4
(lp10
I89
aI2927
aI3713
aI2230
aI3
aI3257
aI70
aI24
aI2452
aI353
aI63
aI7
aI5014
aI133
aI63
aI134
aI99
aI316
aI63
aI134
aI417
aI316
aI135
aI501
aI3257
aI24
aI248
aI63
aI3257
aI417
aI316
aI5
aI382
aI63765
asg6
S'A March 2007 poll regarding the abortion law in Brazil found that 65% of Brazilians believe that it "should not be modified"  16% that it should be expanded "to allow abortion in other cases"  10% that abortion should be "decriminalized"  and 5% were "not sure"  .'
p11
ss.