(dp1
S'input'
p2
(dp3
S'encoded'
p4
(lp5
I64
aI2179
aI394
aI2773
aI12505
asS'ori'
p6
S'This house would embrace multiculturalism'
p7
ssS'output'
p8
(dp9
g4
(lp10
I6537
aI2794
aI3
aI2891
aI7
aI4233
aI2328
aI24
aI2203
aI159
aI41
aI3
aI626
aI187
aI5
aI2265
aI3
aI626
aI187
aI2804
aI7
aI2776
aI7
aI5
aI3
aI2804
aI7
aI3
aI2446
aI7
aI460
aI5
aI7
aI3
aI4278
aI7
aI63765
asg6
S'Civic-national ideals influenced the development of representative democracy in countries such as the United States and France (see the United States Declaration of Independence of 1776  and the Declaration of the Rights of Man and of the Citizen of 1789) .'
p11
ss.