(dp1
S'input'
p2
(dp3
S'encoded'
p4
(lp5
I64
aI2179
aI394
aI4325
aI2042
aI270
aI89
aI11605
aI3324
asS'ori'
p6
S'This house would fund education using a voucher scheme'
p7
ssS'output'
p8
(dp9
g4
(lp10
I42
aI55
aI5468
aI63
aI3
aI1811
aI7
aI260
aI47
aI163
aI51
aI112
aI4262
aI225
aI63765
asg6
S'He has advocated that the reduction of government will make an income tax unnecessary  .'
p11
ss.