(dp1
S'input'
p2
(dp3
S'encoded'
p4
(lp5
I64
aI2179
aI394
aI2017
aI628
asS'ori'
p6
S'This house would ban gambling'
p7
ssS'output'
p8
(dp9
g4
(lp10
I41
aI976
aI7630
aI2586
aI45
aI544
aI24
aI725
aI187
aI4046
aI24
aI667
aI2086
aI5
aI248
aI187
aI5789
aI2368
aI2298
aI2300
aI5
aI248
aI136
aI7661
aI7662
aI45
aI7663
aI63765
asg6
S'As legal pressures began to rise in many states  gangsters in New York and other states looked toward Texas  California  and other more tolerant locales to prosper  .'
p11
ss.