(dp1
S'input'
p2
(dp3
S'encoded'
p4
(lp5
I64
aI2179
aI394
aI2017
aI223
aI9058
aI23653
asS'ori'
p6
S'This house would ban all unsustainable logging'
p7
ssS'output'
p8
(dp9
g4
(lp10
I18865
aI182
aI3900
aI45
aI2642
aI7
aI223
aI3
aI3976
aI3966
aI5
aI1344
aI4938
aI14
aI3
aI7375
asg6
S'Rainforests are home to half of all the living animal and plant species on the planet '
p11
ss.