(dp1
S'input'
p2
(dp3
S'encoded'
p4
(lp5
I64
aI2179
aI394
aI60
aI23587
asS'ori'
p6
S'This house would re-engage with Myanmar'
p7
ssS'output'
p8
(dp9
g4
(lp10
I24
aI3
aI5
aI388
aI3
aI8199
aI370
aI5
aI3
aI6651
aI370
aI382
aI267
aI1410
aI2280
aI24
aI9882
aI2769
aI2770
aI63765
asg6
S'In the 12th and 13th centuries  the Pagan Empire and the Khmer Empire were two main powers in mainland Southeast Asia  .'
p11
ss.