(dp1
S'input'
p2
(dp3
S'encoded'
p4
(lp5
I64
aI2179
aI394
aI60
aI23587
asS'ori'
p6
S'This house would re-engage with Myanmar'
p7
ssS'output'
p8
(dp9
g4
(lp10
I75
aI2927
aI545
aI3131
aI366
aI155
aI4012
aI3
aI2223
aI2692
aI2634
aI440
aI5182
aI14
aI50525
aI5
aI3
aI169
aI4445
aI440
aI1435
aI63765
asg6
S'By March 1942  within months after they entered the war  Japanese troops had advanced on Rangoon and the British administration had collapsed .'
p11
ss.