(dp1
S'input'
p2
(dp3
S'encoded'
p4
(lp5
I64
aI2179
aI43
aI63
aI2157
aI2565
aI493
aI19084
aI382
aI4850
asS'ori'
p6
S"This house believes that Israel's 2008-2009 military operations against Gaza were justified"
p7
ssS'output'
p8
(dp9
g4
(lp10
I897
aI4678
aI24
aI19084
aI15
aI2135
aI5
aI2287
aI415
aI459
aI6056
aI4477
aI24
aI3
aI2157
aI4276
aI63765
asg6
S'Media facilities in Gaza  both foreign and domestic  came under Israeli fire in the military campaign  .'
p11
ss.