(dp1
S'input'
p2
(dp3
S'encoded'
p4
(lp5
I64
aI2179
aI394
aI5370
aI3
aI5286
asS'ori'
p6
S'This house would abolish the monarchy'
p7
ssS'output'
p8
(dp9
g4
(lp10
I24
aI3
aI481
aI5
aI320
aI388
aI3
aI2497
aI55
aI12
aI514
aI416
aI24
aI22
aI2196
aI946
aI75
aI17
aI5
aI2767
aI101
aI81
aI133
aI63
aI3
aI285
aI55
aI344
aI89
aI2838
aI24
aI3874
aI3527
aI691
aI3
aI312
aI7
aI3
aI1950
aI285
aI2223
aI63765
asg6
S'In the late 20th- and early 21st Centuries  the term has been frequently used in political debate  especially by social and religious conservatives  who believe that the world has seen a decline in family values since the end of the Second World War  .'
p11
ss.