(dp1
S'input'
p2
(dp3
S'encoded'
p4
(lp5
I64
aI2179
aI394
aI117
aI7428
aI21151
aI34
aI11389
aI2042
aI24
aI4364
asS'ori'
p6
S'This house would only teach abstinence for sex education in schools'
p7
ssS'output'
p8
(dp9
g4
(lp10
I273
aI116
aI443
aI9100
aI2878
aI63
aI7332
aI24
aI2404
aI182
aI5815
aI63765
asg6
S'" There is no reliable source that condoms in Africa are inferior  .'
p11
ss.