(dp1
S'input'
p2
(dp3
S'encoded'
p4
(lp5
I64
aI2179
aI13605
aI2258
aI45
aI2194
asS'ori'
p6
S'This house prefers trade to aid'
p7
ssS'output'
p8
(dp9
g4
(lp10
I82
aI93
aI7
aI3
aI863
aI11548
aI7
aI5714
aI263
aI3
aI9682
aI116
aI3
aI3847
aI7
aI89
aI4442
aI7
aI4259
aI112
aI63765
asg6
S'Likewise  one of the five pillars of Islam  called the Zakat  is the offering of a percentage of ones income .'
p11
ss.