(dp1
S'input'
p2
(dp3
S'encoded'
p4
(lp5
I64
aI2179
aI43
aI63
aI6670
aI546
aI417
aI316
aI89
aI1334
aI3108
aI7
aI4849
aI1886
aI2855
asS'ori'
p6
S'This house believes that wind power should be a primary focus of future energy supply'
p7
ssS'output'
p8
(dp9
g4
(lp10
I15226
aI6670
aI6677
aI5156
aI15227
aI181
aI116
aI2546
aI15228
aI60
aI89
aI697
aI4204
aI7
aI6775
aI63765
asg6
S"Whitelee Wind Farm near Glasgow  Scotland is Europe's largest windfarm with a total capacity of 322 MW ."
p11
ss.