(dp1
S'input'
p2
(dp3
S'encoded'
p4
(lp5
I64
aI2179
aI43
aI24
aI3
aI475
aI7
aI12436
aI3364
asS'ori'
p6
S'This house believes in the use of affirmative action'
p7
ssS'output'
p8
(dp9
g4
(lp10
I24
aI89
aI21073
aI7
aI3527
aI116
aI773
aI20775
aI75
aI47507
aI24
aI3
aI3987
aI7
aI57689
aI5
aI3
aI7251
aI7
aI3495
aI63765
asg6
S'In a reversal of values  anti-racism is being propagated by despots in the service of obscurantism and the suppression of women .'
p11
ss.