(dp1
S'input'
p2
(dp3
S'encoded'
p4
(lp5
I64
aI2179
aI394
aI16642
aI1376
aI5269
asS'ori'
p6
S'This house would subsidize poor communities'
p7
ssS'output'
p8
(dp9
g4
(lp10
I132
aI382
aI1038
aI75
aI8258
aI34
aI1341
aI9636
aI45
aI17
aI5
aI16
aI2891
aI5
aI2100
aI28690
aI57772
aI59486
aI59487
aI12834
aI59488
aI59489
aI1136
aI7666
aI8868
aI2091
aI59490
aI59491
aI59492
aI59493
aI4348
aI2233
aI59494
aI59495
aI59496
aI59497
aI1136
aI59498
aI33035
aI8858
aI4348
aI8822
aI8858
aI59499
aI10243
aI59500
aI5
aI21508
aI52407
aI63765
asg6
S'These "micro-regions" were defined by suitability for particular approaches to social and economic development and included Agua Azul  Avellanal  Amador Hernandez  Betania  Benemerito de las Americas  Carmen Villaflores  Comunidad Lacandona  Damasco  Francisco I Madero  Maravilla Tenejapa  Marques de Comillas  Naha  Nuevo Francisco Leon  Nuevo Huixtan  Rio Blanco  and Santo Domingo .'
p11
ss.