(dp1
S'input'
p2
(dp3
S'encoded'
p4
(lp5
I64
aI2179
aI43
aI63
aI3
aI4990
aI4991
aI116
aI4850
aI24
aI12166
aI3
aI475
aI7
aI3532
aI3290
aI7
aI4714
asS'ori'
p6
S'This house believes that the Catholic Church is justified in forbidding the use of barrier methods of contraception'
p7
ssS'output'
p8
(dp9
g4
(lp10
I34
aI1343
aI24
aI3
aI927
aI34
aI3760
aI3217
aI311
aI37486
aI4750
aI643
aI3
aI3440
aI873
aI1869
aI92
aI116
aI136
aI1112
aI138
aI3
aI13995
aI1869
aI63765
asg6
S'For example  in 1999 the Institute for Reproductive Health at Georgetown University developed the Standard Days Method (SDM)  which is more effective than the rhythm method .'
p11
ss.