(dp1
S'input'
p2
(dp3
S'encoded'
p4
(lp5
I64
aI2179
aI43
aI63
aI187
aI417
aI99
aI16642
aI3
aI6449
aI7
aI3935
asS'ori'
p6
S'This house believes that states should not subsidize the growing of tobacco'
p7
ssS'output'
p8
(dp9
g4
(lp10
I10166
aI243
aI3888
aI45
aI3
aI6828
aI7
aI3
aI3935
aI35677
aI751
aI3
aI1179
aI182
aI7267
aI56
aI5
aI1890
aI1748
aI18896
aI63765
asg6
S'Topping always refers to the removal of the tobacco flower before the leaves are systematically removed and  eventually  entirely harvested .'
p11
ss.