(dp1
S'input'
p2
(dp3
S'encoded'
p4
(lp5
I64
aI2179
aI43
aI63
aI3
aI28431
aI7
aI2157
aI4624
aI75
aI39939
aI27257
aI122
aI4850
asS'ori'
p6
S'This house believes that the leaking of military documents by Anat Kamm was justified'
p7
ssS'output'
p8
(dp9
g4
(lp10
I134
aI116
aI443
aI593
aI748
aI34
aI9910
aI45
aI901
aI45
aI134
aI73
aI14416
aI134
aI24
aI351
aI2696
aI41
aI3
aI3851
aI30349
aI5541
aI63765
asg6
S'" It is no longer possible for anybody to post to it or edit it  in any country  as the original FAQ promised .'
p11
ss.