(dp1
S'input'
p2
(dp3
S'encoded'
p4
(lp5
I64
aI2179
aI394
aI1499
aI3
aI8115
aI34564
aI17106
asS'ori'
p6
S'This house would build the Keystone XL pipeline'
p7
ssS'output'
p8
(dp9
g4
(lp10
I24
aI2959
aI292
aI1932
aI28713
aI4602
aI42305
aI45
aI1746
aI8115
aI5440
aI4600
aI3270
aI3
aI667
aI17106
aI55
aI12
aI37005
aI60
aI5084
aI13252
asg6
S'In April 2010  three smaller refineries sued TransCanada to break Keystone transportation contracts  saying the new pipeline has been beset with cost overruns '
p11
ss.