(dp1
S'input'
p2
(dp3
S'encoded'
p4
(lp5
I64
aI2179
aI43
aI63
aI3376
aI4938
aI417
aI316
aI3537
asS'ori'
p6
S'This house believes that endangered species should be protected'
p7
ssS'output'
p8
(dp9
g4
(lp10
I2445
aI3162
aI88
aI777
aI2784
aI41
aI16456
aI3967
aI63765
asg6
S'Human populations may themselves act as invasive predators .'
p11
ss.