(dp1
S'input'
p2
(dp3
S'encoded'
p4
(lp5
I64
aI2179
aI394
aI15841
aI2736
asS'ori'
p6
S'This house would disband ASEAN'
p7
ssS'output'
p8
(dp9
g4
(lp10
I4445
aI7
aI31716
aI116
aI10681
aI75
aI3
aI150
aI8754
aI5
aI2258
aI5462
aI24
aI574
aI2736
aI2544
aI63765
asg6
S'Administration of AFTA is handled by the national customs and trade authorities in each ASEAN member .'
p11
ss.