(dp1
S'input'
p2
(dp3
S'encoded'
p4
(lp5
I64
aI2179
aI394
aI2017
aI223
aI9058
aI23653
asS'ori'
p6
S'This house would ban all unsustainable logging'
p7
ssS'output'
p8
(dp9
g4
(lp10
I7809
aI55
aI221
aI134
aI87
aI63
aI3
aI1413
aI116
aI301
aI7
aI41
aI165
aI7408
aI2410
aI92
aI116
aI759
aI7
aI725
aI6619
aI3970
asg6
S'deforestation has made it so that the land is incapable of as much agricultural production which is part of many peoples survival'
p11
ss.