(dp1
S'input'
p2
(dp3
S'encoded'
p4
(lp5
I64
aI2179
aI43
aI17
aI4941
aI857
aI3211
asS'ori'
p6
S'This house believes social deprivation causes crime'
p7
ssS'output'
p8
(dp9
g4
(lp10
I1887
aI3
aI1394
aI7
aI2617
aI116
aI5966
aI14
aI3
aI1486
aI7
aI3211
aI3
aI7210
aI116
aI2686
aI24
aI261
aI41
aI271
aI28070
aI3665
aI73
aI2637
aI1946
aI1647
aI1051
aI14
aI89
aI23
aI19
aI959
aI9752
aI45
aI4257
aI63765
asg6
S'Whilst the intensity of violence is dependent on the types of crime the organisation is involved in (as well as their organisational structure or cultural tradition) aggressive acts range on a spectrum from low-grade physical assaults to murder .'
p11
ss.