(dp1
S'input'
p2
(dp3
S'encoded'
p4
(lp5
I64
aI2179
aI43
aI63
aI3
aI4538
aI7
aI4434
aI7793
aI283
aI45
aI3586
aI417
aI316
aI577
asS'ori'
p6
S'This house believes that the sale of violent video games to minors should be banned'
p7
ssS'output'
p8
(dp9
g4
(lp10
I14
aI2555
aI2145
aI63765
aI2164
aI2713
aI2714
aI7233
aI89
aI4276
aI263
aI45
aI1653
aI311
aI6798
aI3
aI8114
aI12196
aI3863
aI5
aI7129
aI1441
aI7
aI1560
aI4358
aI63765
asg6
S'On September 23  2009  U .S . President Barack Obama launched a campaign called "Educate to Innovate" aimed at improving the technological  mathematical  scientific and engineering abilities of American students .'
p11
ss.