(dp1
S'input'
p2
(dp3
S'encoded'
p4
(lp5
I64
aI2179
aI394
aI5284
aI150
aI3987
asS'ori'
p6
S'This house would reintroduce national service'
p7
ssS'output'
p8
(dp9
g4
(lp10
I3131
aI73
aI2439
aI7
aI3987
aI1365
aI3
aI217
aI791
aI5
aI3981
aI6185
aI19
aI3
aI3223
aI7
aI3
aI52
asg6
S'Months or years of service amongst the most fit and capable subtracts from the productivity of the economy'
p11
ss.