(dp1
S'input'
p2
(dp3
S'encoded'
p4
(lp5
I64
aI2179
aI43
aI63
aI6670
aI546
aI417
aI316
aI89
aI1334
aI3108
aI7
aI4849
aI1886
aI2855
asS'ori'
p6
S'This house believes that wind power should be a primary focus of future energy supply'
p7
ssS'output'
p8
(dp9
g4
(lp10
I6807
aI9636
aI9036
aI3708
aI45
aI10525
aI4066
aI2167
aI5
aI41548
aI154
aI89
aI4566
aI45
aI1691
aI5
aI6806
aI2891
aI7
aI7275
aI63765
asg6
S'Modeling approaches offer ways to analyze diverse strategies  and hopefully find a road to rapid and sustainable development of humanity .'
p11
ss.