(dp1
S'input'
p2
(dp3
S'encoded'
p4
(lp5
I64
aI2179
aI394
aI5284
aI150
aI3987
asS'ori'
p6
S'This house would reintroduce national service'
p7
ssS'output'
p8
(dp9
g4
(lp10
I3
aI8
aI145
aI7
aI150
aI5610
aI34
aI5615
aI1980
aI5613
aI45
aI3
aI4169
aI2232
aI24
aI3
aI53
aI134
aI373
aI3
aI2259
aI7
aI89
aI419
aI1445
aI5
aI1173
aI2157
aI63765
asg6
S'The modern system of near-universal national conscription for young men dates to the French Revolution in the 1790s  where it became the basis of a very large and powerful military .'
p11
ss.