(dp1
S'input'
p2
(dp3
S'encoded'
p4
(lp5
I64
aI2179
aI43
aI17
aI4941
aI857
aI3211
asS'ori'
p6
S'This house believes social deprivation causes crime'
p7
ssS'output'
p8
(dp9
g4
(lp10
I3266
aI5
aI16187
aI12375
aI15
aI6564
aI3
aI1643
aI448
aI1227
aI5
aI2888
aI3527
aI63765
asg6
S'Legitimate and illegitimate behaviors both express the same general needs and essential values .'
p11
ss.