(dp1
S'input'
p2
(dp3
S'encoded'
p4
(lp5
I64
aI2179
aI394
aI2017
aI628
asS'ori'
p6
S'This house would ban gambling'
p7
ssS'output'
p8
(dp9
g4
(lp10
I7703
aI7746
aI3884
aI63765
asg6
S'Tunica Resorts  Mississippi $997 .02 million8 .'
p11
ss.