(dp1
S'input'
p2
(dp3
S'encoded'
p4
(lp5
I64
aI2179
aI43
aI63
aI3
aI4991
aI7
aI180
aI417
aI316
aI5396
aI19
aI3
aI169
aI10
asS'ori'
p6
S'This house believes that the Church of England should be separated from the British state'
p7
ssS'output'
p8
(dp9
g4
(lp10
I14
aI3
aI248
aI1070
aI2767
aI3136
aI5
aI80
aI11
aI12
aI2853
aI63
aI10
aI220
aI182
aI3756
aI86
aI19
aI8795
aI271
aI2382
aI75
aI5377
aI86
aI19
aI20431
aI248
aI3136
aI5
aI1854
aI86
aI45
aI1453
aI23473
aI1647
aI63765
asg6
S'On the other hand  religious groups and others have been concerned that state governments are restricting them from exercising their religion by preventing them from criticising other groups and forcing them to do unconscionable acts  .'
p11
ss.