(dp1
S'input'
p2
(dp3
S'encoded'
p4
(lp5
I64
aI2179
aI394
aI16756
aI20435
asS'ori'
p6
S'This house would criminalize blasphemy'
p7
ssS'output'
p8
(dp9
g4
(lp10
I174
aI14
aI2805
aI31078
aI382
aI8060
aI24
aI62874
aI2669
aI75
aI3
aI11169
aI94
aI2157
aI11406
aI34
aI3
aI202
aI7
aI9381
aI4983
aI45
aI271
aI2767
aI8186
aI24
aI6001
aI5
aI248
aI8379
aI1197
aI604
aI155
aI25612
aI5714
aI5
aI5786
aI63765
asg6
S'Also on February 6  leaflets were distributed in Ramadi  Iraq by the militant group "The Military Wing for the Army of Justice" demanding Christians to "halt their religious rituals in churches and other worship places because they insulted Islam and Muslims .'
p11
ss.