(dp1
S'input'
p2
(dp3
S'encoded'
p4
(lp5
I64
aI2179
aI394
aI190
aI3
aI21
aI45
aI3895
aI834
asS'ori'
p6
S'This house would limit the right to bear arms'
p7
ssS'output'
p8
(dp9
g4
(lp10
I3
aI2196
aI24
aI3
aI2221
aI14
aI3
aI3263
aI3264
aI366
aI3
aI3202
aI2223
aI174
aI4238
aI14
aI61
aI3
aI4232
aI187
aI382
aI1864
aI45
aI652
aI3
aI2453
aI4230
aI4218
aI63765
asg6
S'The debate in the Congress on the Fourteenth Amendment after the Civil War also concentrated on what the Southern States were doing to harm the newly freed slaves .'
p11
ss.