(dp1
S'input'
p2
(dp3
S'encoded'
p4
(lp5
I64
aI2179
aI394
aI2773
aI12505
asS'ori'
p6
S'This house would embrace multiculturalism'
p7
ssS'output'
p8
(dp9
g4
(lp10
I273
aI116
aI174
aI89
aI1160
aI7
aI7184
aI2041
aI736
aI40
aI4226
aI5
aI12909
aI4664
aI2789
aI7
aI89
aI94
aI63765
asg6
S'There is also a lack of adequate research into how race and ethnicity affects members of a group .'
p11
ss.