(dp1
S'input'
p2
(dp3
S'encoded'
p4
(lp5
I64
aI2179
aI43
aI24
aI3
aI475
aI7
aI12436
aI3364
asS'ori'
p6
S'This house believes in the use of affirmative action'
p7
ssS'output'
p8
(dp9
g4
(lp10
I1381
aI1790
aI1031
aI45
aI2490
aI3713
aI6329
aI1647
aI7
aI2928
aI7407
aI75
aI3136
aI159
aI41
aI3
aI28932
aI28933
aI28934
aI2062
aI24
aI3
aI4240
aI5
aI5050
aI2511
aI159
aI41
aI15700
aI24791
aI1537
aI3386
aI2625
aI7558
aI324
aI24
aI3
aI2318
aI131
aI174
aI4534
aI1592
aI3
aI12222
aI4168
aI311
aI3
aI312
aI7
aI3
aI4240
aI681
aI24
aI63765
asg6
S'Although technically able to vote  poll taxes  acts of terror (often perpetuated by groups such as the Ku Klux Klan  founded in the Reconstruction South)  and discriminatory laws such as grandfather clauses kept black Americans disenfranchised particularly in the South but also nationwide following the Hayes election at the end of the Reconstruction era in 1877 .'
p11
ss.