(dp1
S'input'
p2
(dp3
S'encoded'
p4
(lp5
I64
aI2179
aI43
aI63
aI134
aI116
aI400
aI21
aI34
aI3
aI260
aI45
aI3439
aI57
aI7
aI2381
asS'ori'
p6
S'This house believes that it is sometimes right for the government to restrict freedom of speech'
p7
ssS'output'
p8
(dp9
g4
(lp10
I226
aI3
aI10415
aI10
aI2729
aI253
aI24
aI3
aI3744
aI45
aI3322
aI3797
aI366
aI3
aI68
aI10415
aI5462
aI7238
aI5
aI80
aI246
aI9036
aI207
aI73
aI443
aI1795
aI24
aI5377
aI12511
aI2381
aI63765
asg6
S'While the Thai State offers recourse in the courts to obtain satisfaction after the fact  Thai authorities  NGOs and others generally offer little or no protection in preventing hate speech .'
p11
ss.