(dp1
S'input'
p2
(dp3
S'encoded'
p4
(lp5
I64
aI2179
aI13605
aI2258
aI45
aI2194
asS'ori'
p6
S'This house prefers trade to aid'
p7
ssS'output'
p8
(dp9
g4
(lp10
I41
aI51
aI4834
aI2898
aI4889
aI63
aI2194
aI316
aI19054
aI136
aI1636
aI2203
aI60
aI1228
aI2136
aI5
aI149
aI138
aI7313
aI1183
aI7
aI2194
aI34
aI271
aI7038
aI1183
aI7
aI130
aI63765
asg6
S'As an alternative  Dollar proposes that aid be funneled more towards countries with good policy and less than optimal amounts of aid for their massive amounts of poverty .'
p11
ss.