(dp1
S'input'
p2
(dp3
S'encoded'
p4
(lp5
I64
aI2179
aI43
aI63
aI3
aI21
aI45
aI12715
aI417
aI99
aI316
aI2897
asS'ori'
p6
S'This house believes that the right to asylum should not be absolute'
p7
ssS'output'
p8
(dp9
g4
(lp10
I14
aI2871
aI2935
aI779
aI5047
aI63
aI6129
aI42214
aI2051
aI14
aI10471
aI7477
aI41
aI2173
aI75
aI89
aI5430
aI34
aI3
aI626
aI2138
aI177
aI9579
aI34
aI7477
aI63765
asg6
S'On October 1  2007  news agencies reported that Syria reimposed restrictions on Iraqi refugees  as stated by a spokesperson for the United Nations High Commissioner for Refugees .'
p11
ss.