(dp1
S'input'
p2
(dp3
S'encoded'
p4
(lp5
I64
aI2179
aI43
aI223
aI2138
aI11
aI89
aI21
aI45
aI2185
aI372
asS'ori'
p6
S'This house believes all nations have a right to nuclear weapons'
p7
ssS'output'
p8
(dp9
g4
(lp10
I667
aI2185
aI187
aI153
aI1160
aI7184
aI14478
aI2183
aI289
aI271
aI667
aI372
asg6
S'new nuclear states often lack adequate organizational controls over their new weapons'
p11
ss.