(dp1
S'input'
p2
(dp3
S'encoded'
p4
(lp5
I64
aI2179
aI43
aI63
aI3
aI4990
aI4991
aI116
aI4850
aI24
aI12166
aI3
aI475
aI7
aI3532
aI3290
aI7
aI4714
asS'ori'
p6
S'This house believes that the Catholic Church is justified in forbidding the use of barrier methods of contraception'
p7
ssS'output'
p8
(dp9
g4
(lp10
I3
aI1447
aI11558
aI3435
aI75
aI3
aI2132
aI10845
aI423
aI89
aI419
aI1185
aI4185
aI11612
aI3
aI5690
aI7
aI13781
aI63765
asg6
S'The last document issued by the council (Gaudium et spes) contained a very important section titled "Fostering the Nobility of Marriage" (1965  nos .'
p11
ss.