(dp1
S'input'
p2
(dp3
S'encoded'
p4
(lp5
I64
aI2179
aI394
aI16756
aI20435
asS'ori'
p6
S'This house would criminalize blasphemy'
p7
ssS'output'
p8
(dp9
g4
(lp10
I155
aI1852
aI134
aI876
aI316
aI788
aI4149
aI7
aI63
aI155
aI13860
aI271
aI7071
aI111
aI3
aI414
aI448
aI5
aI500
aI99
aI3548
aI45
aI1074
aI17029
aI291
aI10744
aI1980
aI14
aI1341
aI20454
aI524
aI63765
asg6
S'They desired it might be taken notice of  that they laid their stress upon the word general  and did not intend to include disputes between learned men on particular controverted points .'
p11
ss.