(dp1
S'input'
p2
(dp3
S'encoded'
p4
(lp5
I64
aI2179
aI43
aI223
aI2138
aI11
aI89
aI21
aI45
aI2185
aI372
asS'ori'
p6
S'This house believes all nations have a right to nuclear weapons'
p7
ssS'output'
p8
(dp9
g4
(lp10
I311
aI3
aI237
aI281
aI5507
aI2333
aI14
aI3
aI2891
aI7
aI51
aI2417
aI2418
aI7732
aI75
aI8844
aI63765
aI2204
aI11759
aI311
aI3
aI4750
aI7
aI2300
aI10172
aI1018
aI3695
aI11886
aI5869
aI3
aI2471
aI7
aI3
aI1593
aI1636
aI11714
aI2096
aI7
aI89
aI2418
aI63
aI394
aI475
aI3
aI1643
aI3621
aI63
aI11887
aI3
aI7004
aI2126
aI63765
asg6
S'At the first major theoretical conference on the development of an atomic bomb hosted by J . Robert Oppenheimer at the University of California  Berkeley  participant Edward Teller directed the majority of the discussion towards Enrico Fermi\'s idea of a "Super" bomb that would use the same reactions that powered the Sun itself .'
p11
ss.