(dp1
S'input'
p2
(dp3
S'encoded'
p4
(lp5
I64
aI2179
aI43
aI63
aI3
aI4990
aI4991
aI116
aI4850
aI24
aI12166
aI3
aI475
aI7
aI3532
aI3290
aI7
aI4714
asS'ori'
p6
S'This house believes that the Catholic Church is justified in forbidding the use of barrier methods of contraception'
p7
ssS'output'
p8
(dp9
g4
(lp10
I3
aI3440
aI873
aI1869
aI122
aI643
aI5
aI2843
aI75
aI3
aI4741
aI311
aI3
aI927
aI34
aI3760
aI3217
aI7
aI37486
aI4750
aI63765
asg6
S'The Standard Days method was developed and proven by the researchers at the Institute for Reproductive Health of Georgetown University .'
p11
ss.