(dp1
S'input'
p2
(dp3
S'encoded'
p4
(lp5
I64
aI2179
aI43
aI63
aI134
aI116
aI400
aI21
aI34
aI3
aI260
aI45
aI3439
aI57
aI7
aI2381
asS'ori'
p6
S'This house believes that it is sometimes right for the government to restrict freedom of speech'
p7
ssS'output'
p8
(dp9
g4
(lp10
I2959
aI3303
aI116
aI10
aI45
aI16585
aI3
aI2029
aI7
aI2446
aI63765
asg6
S'April 19  1792  Connecticut is 14th state to ratify the Bill of Rights .'
p11
ss.