(dp1
S'input'
p2
(dp3
S'encoded'
p4
(lp5
I64
aI2179
aI394
aI15841
aI2736
asS'ori'
p6
S'This house would disband ASEAN'
p7
ssS'output'
p8
(dp9
g4
(lp10
I3
aI2736
aI998
aI3
aI878
aI2742
aI15315
aI7
aI2736
aI3954
aI75
aI31837
aI31838
aI5
aI31839
aI31840
aI31841
aI75
aI31842
aI31843
aI63765
asg6
S'The ASEAN Way  the official regional anthem of ASEAN  music by Kittikhun Sodprasert and Sampow Triudom ; Lyrics by Payom Valaiphatchra  .'
p11
ss.