(dp1
S'input'
p2
(dp3
S'encoded'
p4
(lp5
I64
aI2179
aI43
aI63
aI7382
aI116
aI400
aI4713
asS'ori'
p6
S'This house believes that bribery is sometimes acceptable'
p7
ssS'output'
p8
(dp9
g4
(lp10
I11955
aI64
aI15527
aI260
aI45
aI6250
aI3
aI29598
aI2266
aI291
aI7330
aI2190
aI5
aI7330
aI3296
aI116
aI3
aI237
aI8791
aI7
aI3
aI31886
aI7
aI3
aI1379
asg6
S'"To destroy this invisible Government  to dissolve the unholy alliance between corrupt business and corrupt politics is the first task of the statesmanship of the day ."'
p11
ss.