(dp1
S'input'
p2
(dp3
S'encoded'
p4
(lp5
I64
aI2179
aI394
aI2773
aI12505
asS'ori'
p6
S'This house would embrace multiculturalism'
p7
ssS'output'
p8
(dp9
g4
(lp10
I875
aI14
aI3
aI248
aI1070
aI116
aI89
aI5027
aI5
aI1005
aI116
aI63765
asg6
S'America  on the other hand  is a "belligerent adolescent boy" and Australia is "Jack Nicholson" .'
p11
ss.