(dp1
S'input'
p2
(dp3
S'encoded'
p4
(lp5
I64
aI2179
aI394
aI60
aI23587
asS'ori'
p6
S'This house would re-engage with Myanmar'
p7
ssS'output'
p8
(dp9
g4
(lp10
I6826
aI1569
aI1360
aI604
aI7
aI11893
aI2721
aI2722
aI131
aI2157
aI2158
aI116
aI419
aI177
aI63765
asg6
S'Estimates vary widely because of uncertain exchange rates  but military spending is very high  .'
p11
ss.