(dp1
S'input'
p2
(dp3
S'encoded'
p4
(lp5
I64
aI2179
aI43
aI63
aI3
aI4538
aI7
aI4434
aI7793
aI283
aI45
aI3586
aI417
aI316
aI577
asS'ori'
p6
S'This house believes that the sale of violent video games to minors should be banned'
p7
ssS'output'
p8
(dp9
g4
(lp10
I24
aI64
aI1780
aI298
aI89
aI77
aI5345
aI3141
aI42393
aI89
aI42394
aI3313
aI2200
aI1063
aI736
aI732
aI2179
aI34
asg6
S'In this situation  when a certain character successfully courted a girlfriend  she asked him into her house for "coffee ."'
p11
ss.