(dp1
S'input'
p2
(dp3
S'encoded'
p4
(lp5
I64
aI2179
aI394
aI2773
aI12505
asS'ori'
p6
S'This house would embrace multiculturalism'
p7
ssS'output'
p8
(dp9
g4
(lp10
I1021
aI45
aI211
aI6044
aI4187
aI131
aI419
aI13323
aI580
aI64
aI11590
aI2096
aI116
aI1545
aI75
aI100
aI7092
aI41
aI2313
asg6
S'Due to its somewhat concealed  but very potent nature  this hypothetical idea is described by some experts as "banal imperialism ."'
p11
ss.