(dp1
S'input'
p2
(dp3
S'encoded'
p4
(lp5
I64
aI2179
aI394
aI4261
aI8667
aI3
aI9361
aI5
aI17069
asS'ori'
p6
S'This house would prohibit burning the stars and stripes'
p7
ssS'output'
p8
(dp9
g4
(lp10
I526
aI10
aI1301
aI2791
aI63
aI134
aI122
aI1697
aI9358
aI111
aI3
aI8667
aI63765
asg6
S'Furthermore  "[t]he State never announced that it was relying exclusively upon the burning .'
p11
ss.