(dp1
S'input'
p2
(dp3
S'encoded'
p4
(lp5
I64
aI2179
aI394
aI3830
aI3
aI475
aI7
aI9441
aI13132
aI3102
aI24
aI276
aI381
asS'ori'
p6
S'This house would permit the use of performance enhancing drugs in professional sports'
p7
ssS'output'
p8
(dp9
g4
(lp10
I132
aI381
aI1074
aI14016
aI13991
aI1108
aI4883
aI5
aI248
aI6903
aI5
aI7834
aI7964
aI12246
aI576
aI1801
aI28300
aI7985
aI262
aI10723
aI5
aI15059
aI63765
asg6
S'These sports include bodybuilding  weightlifting  shot put and other track and field  cycling  baseball  wrestling  mixed martial arts  boxing  football  and cricket .'
p11
ss.