(dp1
S'input'
p2
(dp3
S'encoded'
p4
(lp5
I64
aI2179
aI394
aI163
aI959
aI2042
aI3557
asS'ori'
p6
S'This house would make physical education compulsory'
p7
ssS'output'
p8
(dp9
g4
(lp10
I5326
aI2900
aI7
aI3862
aI9012
aI271
aI8532
aI45
aI84
aI86
aI45
aI1167
aI3964
aI14904
aI14
aI89
aI3993
aI2259
aI63765
asg6
S'Forty percent of children ask their parents to take them to fast food restaurants on a daily basis .'
p11
ss.