(dp1
S'input'
p2
(dp3
S'encoded'
p4
(lp5
I64
aI2179
aI394
aI2017
aI223
aI9058
aI23653
asS'ori'
p6
S'This house would ban all unsustainable logging'
p7
ssS'output'
p8
(dp9
g4
(lp10
I42
aI263
aI132
aI13381
aI7
aI23577
aI2506
aI15584
aI5
aI545
aI132
aI13381
aI47039
aI38344
aI458
aI63765
asg6
S'He called these patches of rainforest areas refuges and within these patches allopatric speciation occurred .'
p11
ss.