(dp1
S'input'
p2
(dp3
S'encoded'
p4
(lp5
I64
aI2179
aI43
aI63
aI3
aI4990
aI4991
aI116
aI4850
aI24
aI12166
aI3
aI475
aI7
aI3532
aI3290
aI7
aI4714
asS'ori'
p6
S'This house believes that the Catholic Church is justified in forbidding the use of barrier methods of contraception'
p7
ssS'output'
p8
(dp9
g4
(lp10
I31629
aI7332
aI174
aI3589
aI1796
aI34
aI3
aI155
aI382
aI1352
aI5
aI19368
aI138
aI18884
aI7332
aI5
aI440
aI89
aI29553
aI3269
aI7
aI863
aI2439
aI45
aI292
aI3131
aI34
aI63765
asg6
S'Latex condoms also performed better for the consumer: they were stronger and thinner than rubber condoms  and had a shelf life of five years (compared to three months for rubber) .'
p11
ss.