(dp1
S'input'
p2
(dp3
S'encoded'
p4
(lp5
I64
aI2179
aI235
aI3
aI2136
aI7
aI3
aI2306
aI7
aI2390
asS'ori'
p6
S'This house supports the one-child policy of the republic of China'
p7
ssS'output'
p8
(dp9
g4
(lp10
I282
aI277
aI2180
aI2164
aI6207
aI37380
aI2173
aI311
aI3
aI312
aI7
aI3
aI277
aI283
aI63
aI3645
aI876
aI99
aI316
aI1839
aI131
aI155
aI182
aI89
aI2449
aI45
aI3
aI1780
aI751
aI63765
asg6
S'International Olympic Committee president Jacques Rogge stated at the end of the 2008 Olympic Games that "The regulations might not be perfect but they are a sea-change compared to the situation before .'
p11
ss.