(dp1
S'input'
p2
(dp3
S'encoded'
p4
(lp5
I64
aI2179
aI394
aI5370
aI7146
aI4585
aI2446
asS'ori'
p6
S'This house would abolish intellectual property rights'
p7
ssS'output'
p8
(dp9
g4
(lp10
I7896
aI289
aI6763
aI7644
aI158
aI63
aI7732
aI3
aI24831
aI60
aI100
aI14153
aI2618
aI63
aI3
aI4733
aI24831
aI16924
aI89
aI1068
aI34
aI9164
aI24
aI12717
aI70
aI45
aI501
aI10505
aI459
aI569
aI475
aI7
aI20849
aI7371
aI73
aI13786
aI89
aI145
aI7
aI569
aI6015
aI45
aI501
aI34
aI10505
aI63765
asg6
S'Reportedly over 400 sites participated including 170 that hosted the album with some protesters stating that The Grey Album illustrates a need for revisions in copyright law to allow sampling under fair use of copyrighted material  or proposing a system of fair compensation to allow for sampling  .'
p11
ss.