(dp1
S'input'
p2
(dp3
S'encoded'
p4
(lp5
I64
aI2179
aI394
aI2976
aI12243
aI24
aI954
aI126
aI1560
aI10723
asS'ori'
p6
S'This house would implement playoffs in collegiate level American football'
p7
ssS'output'
p8
(dp9
g4
(lp10
I45
aI3018
aI96
aI34
aI271
aI21656
aI5
aI3
aI34949
aI145
aI132
aI20019
aI9792
aI1985
aI7648
aI9532
aI45
aI8850
aI954
aI381
aI20019
aI5
aI4750
aI665
aI7190
aI63765
asg6
S'To promote support for their bowls and the BCS system  these highly-paid executives allegedly give lavish gifts to politicians  collegiate sports executives  and university athletic directors  .'
p11
ss.