(dp1
S'input'
p2
(dp3
S'encoded'
p4
(lp5
I64
aI2179
aI43
aI223
aI2138
aI11
aI89
aI21
aI45
aI2185
aI372
asS'ori'
p6
S'This house believes all nations have a right to nuclear weapons'
p7
ssS'output'
p8
(dp9
g4
(lp10
I64
aI139
aI2118
aI1191
aI19
aI3
aI951
aI7
aI12974
aI237
aI1767
aI5201
aI73
aI3
aI4360
aI7
aI89
aI2185
aI2950
aI2956
aI63765
asg6
S'This can come about from the gain of decisive first strike capability or the creation of a nuclear missile shield .'
p11
ss.