(dp1
S'input'
p2
(dp3
S'encoded'
p4
(lp5
I64
aI2179
aI43
aI63
aI187
aI417
aI99
aI16642
aI3
aI6449
aI7
aI3935
asS'ori'
p6
S'This house believes that states should not subsidize the growing of tobacco'
p7
ssS'output'
p8
(dp9
g4
(lp10
I14439
aI55
aI12
aI416
aI75
aI5019
aI60
aI384
aI4596
aI5
aI14290
aI24
aI384
aI12423
aI63765
asg6
S'Subsidy has been used by economists with different meanings and connotations in different contexts .'
p11
ss.