(dp1
S'input'
p2
(dp3
S'encoded'
p4
(lp5
I64
aI2179
aI394
aI163
aI959
aI2042
aI3557
asS'ori'
p6
S'This house would make physical education compulsory'
p7
ssS'output'
p8
(dp9
g4
(lp10
I89
aI444
aI88
aI316
aI2794
aI298
aI116
aI117
aI51
aI4828
aI63765
asg6
S"A child's weight may be influenced when he/she is only an infant ."
p11
ss.