(dp1
S'input'
p2
(dp3
S'encoded'
p4
(lp5
I64
aI2179
aI43
aI63
aI2157
aI2565
aI493
aI19084
aI382
aI4850
asS'ori'
p6
S"This house believes that Israel's 2008-2009 military operations against Gaza were justified"
p7
ssS'output'
p8
(dp9
g4
(lp10
I24
aI1906
aI3
aI16619
aI7354
aI2161
aI3345
aI63
aI589
aI13668
aI759
aI7
aI16619
aI5
aI10238
aI9303
aI382
aI3178
aI24
aI3
aI2223
aI63765
asg6
S'" In November 2010  the Hamas Interior Minister acknowledged that around 700 militants part of Hamas and affiliated factions were killed in the war  .'
p11
ss.