(dp1
S'input'
p2
(dp3
S'encoded'
p4
(lp5
I64
aI2179
aI394
aI5284
aI150
aI3987
asS'ori'
p6
S'This house would reintroduce national service'
p7
ssS'output'
p8
(dp9
g4
(lp10
I24
aI3
aI2482
aI2483
aI743
aI63
aI3
aI285
aI2223
aI2233
aI5262
aI500
aI99
aI3559
aI3
aI626
aI187
aI2475
aI24
aI3
aI5642
aI5262
aI70
aI3052
aI63765
asg6
S'In 1918  the Supreme Court ruled that the World War I draft did not violate the United States Constitution in the Selective Draft Law Cases .'
p11
ss.