(dp1
S'input'
p2
(dp3
S'encoded'
p4
(lp5
I64
aI2179
aI43
aI63
aI6670
aI546
aI417
aI316
aI89
aI1334
aI3108
aI7
aI4849
aI1886
aI2855
asS'ori'
p6
S'This house believes that wind power should be a primary focus of future energy supply'
p7
ssS'output'
p8
(dp9
g4
(lp10
I233
aI45
aI93
aI2035
aI47203
aI139
aI404
aI34
aI41
aI165
aI41
aI7
aI6683
aI6688
aI1404
aI75
aI6670
aI15960
aI63765
asg6
S'According to one study  barotrauma can account for as much as 50% of bat fatalities caused by wind mills  .'
p11
ss.