(dp1
S'input'
p2
(dp3
S'encoded'
p4
(lp5
I64
aI2179
aI43
aI63
aI1036
aI4828
aI33250
aI116
aI25073
aI45
aI3315
aI4562
asS'ori'
p6
S'This house believes that male infant circumcision is tantamount to child abuse'
p7
ssS'output'
p8
(dp9
g4
(lp10
I24
aI3
aI4679
aI7
aI2048
aI3581
aI89
aI70
aI1443
aI117
aI4224
aI4682
aI75
aI3
aI150
aI2128
aI7
aI3217
aI45
aI34796
aI4822
aI63765
asg6
S'In 2001  the Parliament of Sweden enacted a law allowing only persons certified by the National Board of Health to circumcise infants .'
p11
ss.