(dp1
S'input'
p2
(dp3
S'encoded'
p4
(lp5
I64
aI2179
aI394
aI2741
aI3
aI1560
aI6025
aI2784
asS'ori'
p6
S'This house would pass the American Jobs Act'
p7
ssS'output'
p8
(dp9
g4
(lp10
I14
aI425
aI34004
aI4445
aI5162
aI89
aI905
aI63
aI2396
aI89
aI3401
aI3068
aI7
aI3
aI918
aI45
aI6025
aI7
aI100
aI7
aI3
aI34005
aI9449
aI9120
aI63
aI382
aI773
aI513
aI63765
asg6
S'On January 10  2009  President-Elect Obamas administration released a report  that provided a preliminary analysis of the impact to jobs of some of the prototypical recovery packages that were being considered .'
p11
ss.