(dp1
S'input'
p2
(dp3
S'encoded'
p4
(lp5
I64
aI2179
aI394
aI190
aI3
aI21
aI45
aI3895
aI834
asS'ori'
p6
S'This house would limit the right to bear arms'
p7
ssS'output'
p8
(dp9
g4
(lp10
I17194
aI2722
aI24
aI385
aI159
aI41
aI9923
aI382
aI994
aI979
aI138
aI24
aI8
aI1727
aI63765
asg6
S'Homicide rates in cities such as Philadelphia were significantly lower than in modern times  .'
p11
ss.