(dp1
S'input'
p2
(dp3
S'encoded'
p4
(lp5
I64
aI2179
aI43
aI24
aI3
aI475
aI7
aI12436
aI3364
asS'ori'
p6
S'This house believes in the use of affirmative action'
p7
ssS'output'
p8
(dp9
g4
(lp10
I34
aI2467
aI5025
aI1560
aI5677
aI742
aI155
aI382
aI30722
aI773
aI729
aI6677
aI2395
aI73
aI10103
aI45
aI593
aI19259
aI34
aI7180
aI4268
aI604
aI7
aI10535
aI5
aI5546
aI3
aI2145
aI63765
aI2176
aI7
aI6678
aI7
aI99
aI7840
aI45
aI271
aI7008
aI63765
asg6
S'For decades  African American farmers said they were unjustly being denied farm loans or subjected to longer waits for loan approval because of racism  and accused the U .S . Department of Agriculture (USDA) of not responding to their complaints  .'
p11
ss.