(dp1
S'input'
p2
(dp3
S'encoded'
p4
(lp5
I64
aI2179
aI394
aI2773
aI12505
asS'ori'
p6
S'This house would embrace multiculturalism'
p7
ssS'output'
p8
(dp9
g4
(lp10
I3
aI26087
aI63
aI2118
aI19
aI64
aI4936
aI1032
aI26088
aI3492
aI15457
aI5
aI10933
aI4453
aI63765
asg6
S'The curricula that come from this assumption simply invert traditional stereotypes and truth claims .'
p11
ss.