(dp1
S'input'
p2
(dp3
S'encoded'
p4
(lp5
I64
aI2179
aI394
aI4325
aI2042
aI270
aI89
aI11605
aI3324
asS'ori'
p6
S'This house would fund education using a voucher scheme'
p7
ssS'output'
p8
(dp9
g4
(lp10
I14
aI2394
aI3
aI2145
aI63765
aI2176
aI7
aI2042
aI5162
aI63
aI2240
aI11617
aI182
aI24248
aI14211
aI6198
aI92
aI182
aI5274
aI19286
aI4358
aI63765
asg6
S'On December 2nd  2011  the U .S . Department of Education released that school districts are unevenly distributing funds  which are disproportionately underfunding low-income students  .'
p11
ss.