(dp1
S'input'
p2
(dp3
S'encoded'
p4
(lp5
I64
aI2179
aI394
aI2976
aI12243
aI24
aI954
aI126
aI1560
aI10723
asS'ori'
p6
S'This house would implement playoffs in collegiate level American football'
p7
ssS'output'
p8
(dp9
g4
(lp10
I3
aI1592
aI9092
aI2981
aI223
aI4144
aI63
aI382
aI5647
aI45
aI1199
aI34949
aI40005
aI158
aI3
aI2652
aI63
aI2347
aI63765
asg6
S'The following table shows all 19 teams that were eligible to become BCS Busters  including the seven that succeeded .'
p11
ss.