(dp1
S'input'
p2
(dp3
S'encoded'
p4
(lp5
I64
aI2179
aI394
aI190
aI3
aI21
aI45
aI3895
aI834
asS'ori'
p6
S'This house would limit the right to bear arms'
p7
ssS'output'
p8
(dp9
g4
(lp10
I4122
aI7
aI2611
aI2617
aI5
aI11
aI3937
aI8226
aI13355
aI2196
aI63765
asg6
S'Incidents of gun violence and self-defense have routinely ignited bitter debate .'
p11
ss.