(dp1
S'input'
p2
(dp3
S'encoded'
p4
(lp5
I64
aI2179
aI394
aI2017
aI223
aI9058
aI23653
asS'ori'
p6
S'This house would ban all unsustainable logging'
p7
ssS'output'
p8
(dp9
g4
(lp10
I134
aI55
aI7065
aI6788
aI14
aI36818
aI7
aI6930
aI6695
aI6696
aI63765
asg6
S'It has adverse impacts on biosequestration of atmospheric carbon dioxide .'
p11
ss.