(dp1
S'input'
p2
(dp3
S'encoded'
p4
(lp5
I64
aI2179
aI43
aI63
aI134
aI116
aI400
aI21
aI34
aI3
aI260
aI45
aI3439
aI57
aI7
aI2381
asS'ori'
p6
S'This house believes that it is sometimes right for the government to restrict freedom of speech'
p7
ssS'output'
p8
(dp9
g4
(lp10
I226
aI3500
aI7
aI3
aI1565
aI2533
aI14
aI2445
aI2446
aI98
aI99
aI4261
aI3135
aI2511
aI493
aI47973
aI159
aI41
aI10046
aI73
aI28741
aI7
aI26913
aI73
aI4212
aI493
aI7275
aI41
aI4186
aI75
aI3
aI1565
aI2483
aI7
aI2445
aI2446
aI3
aI2180
aI7
aI9322
aI7
aI3
aI2132
aI7
aI323
aI461
aI1706
aI5
aI3394
aI45
aI2544
aI220
aI45
aI265
aI12511
aI2381
aI459
aI211
aI11898
aI645
aI63765
asg6
S'While Article 10 of the European Convention on Human Rights does not prohibit criminal laws against revisionism such as denial or minimization of genocides or crimes against humanity  as interpreted by the European Court of Human Rights  the Committee of Ministers of the Council of Europe went further and recommended to member governments to combat hate speech under its Recommendation R (97) 20 .'
p11
ss.