(dp1
S'input'
p2
(dp3
S'encoded'
p4
(lp5
I64
aI2179
aI43
aI24
aI3
aI475
aI7
aI12436
aI3364
asS'ori'
p6
S'This house believes in the use of affirmative action'
p7
ssS'output'
p8
(dp9
g4
(lp10
I1309
aI81
aI3478
aI3
aI2029
aI871
aI41
aI4319
aI41
aI748
aI13224
aI63
aI3
aI2029
aI394
aI316
aI1612
aI513
aI75
aI3
aI2211
aI63765
asg6
S'Johnson  who wanted the bill passed as soon as possible  ensured that the bill would be quickly considered by the Senate .'
p11
ss.