(dp1
S'input'
p2
(dp3
S'encoded'
p4
(lp5
I64
aI2179
aI394
aI163
aI959
aI2042
aI3557
asS'ori'
p6
S'This house would make physical education compulsory'
p7
ssS'output'
p8
(dp9
g4
(lp10
I2758
aI6676
aI11270
aI35981
aI7102
aI63765
aI55
aI12
aI353
aI45
aI316
aI16005
aI3365
aI45
aI16329
aI24
aI323
aI874
aI875
aI5
aI1005
aI63765
aI508
aI5982
aI55
aI12
aI566
aI60
aI89
aI8953
aI24
aI4699
asg6
S'Active transport ( walking  bicycling  etc . ) has been found to be inversely related to obesity in Europe  North America  and Australia  . Thus exercise has been associated with a decrease in mortality '
p11
ss.