(dp1
S'input'
p2
(dp3
S'encoded'
p4
(lp5
I64
aI2179
aI43
aI24
aI3
aI475
aI7
aI12436
aI3364
asS'ori'
p6
S'This house believes in the use of affirmative action'
p7
ssS'output'
p8
(dp9
g4
(lp10
I24
aI57829
aI89
aI35919
aI2082
aI60
aI89
aI1240
aI177
aI5761
aI2598
aI273
aI11
aI12
aI5317
aI5
aI2583
aI3202
aI6007
aI291
aI20376
aI5
aI2318
aI5947
aI63765
asg6
S'In Dewsbury  a Yorkshire town with a relatively high Muslim population  there have been tensions and minor civil disturbances between Kurds and South Asians  .'
p11
ss.