(dp1
S'input'
p2
(dp3
S'encoded'
p4
(lp5
I64
aI2179
aI43
aI223
aI2138
aI11
aI89
aI21
aI45
aI2185
aI372
asS'ori'
p6
S'This house believes all nations have a right to nuclear weapons'
p7
ssS'output'
p8
(dp9
g4
(lp10
I3
aI411
aI5886
aI11152
aI34
aI17003
aI2894
aI45
aI22
aI19
aI3
aI1560
aI22
aI3707
aI2016
aI24
aI63765
asg6
S'The James Madison Award for "distinguished scholarly contributions to political science" from the American Political Science Association in 1999  .'
p11
ss.