(dp1
S'input'
p2
(dp3
S'encoded'
p4
(lp5
I64
aI2179
aI43
aI63
aI3
aI4538
aI7
aI4434
aI7793
aI283
aI45
aI3586
aI417
aI316
aI577
asS'ori'
p6
S'This house believes that the sale of violent video games to minors should be banned'
p7
ssS'output'
p8
(dp9
g4
(lp10
I217
aI7
aI132
aI2992
aI378
aI500
aI99
aI2909
aI3728
aI1243
aI493
aI97
aI2007
aI63765
asg6
S'Most of these studies however did not actually measure aggression against another person .'
p11
ss.