(dp1
S'input'
p2
(dp3
S'encoded'
p4
(lp5
I64
aI2179
aI394
aI2976
aI12243
aI24
aI954
aI126
aI1560
aI10723
asS'ori'
p6
S'This house would implement playoffs in collegiate level American football'
p7
ssS'output'
p8
(dp9
g4
(lp10
I34957
aI10
aI122
aI3854
aI24
aI3
aI3614
aI34949
aI10170
aI131
aI211
aI521
aI122
aI994
aI35051
aI298
aI134
aI6196
aI45
aI34958
aI14
aI1906
aI775
aI1977
aI3
aI6764
aI3912
aI5489
aI45
aI3
aI35027
aI35028
aI63765
asg6
S'Boise State was fifth in the initial BCS rankings  but its cause was significantly hobbled when it lost to TCU 36-35 on November 12  effectively handing the Mountain West title to the Horned Frogs .'
p11
ss.