(dp1
S'input'
p2
(dp3
S'encoded'
p4
(lp5
I64
aI2179
aI43
aI223
aI2138
aI11
aI89
aI21
aI45
aI2185
aI372
asS'ori'
p6
S'This house believes all nations have a right to nuclear weapons'
p7
ssS'output'
p8
(dp9
g4
(lp10
I443
aI258
aI7
aI11676
aI63
aI98
aI99
aI11
aI3
aI4935
aI7
aI89
aI572
aI1051
aI2950
aI11676
aI2233
aI63765
asg6
S'No means of delivery that does not have the characteristics of a long range missile delivery  i .e .'
p11
ss.