(dp1
S'input'
p2
(dp3
S'encoded'
p4
(lp5
I64
aI2179
aI43
aI8629
aI116
aI3
aI117
aI998
asS'ori'
p6
S'This house believes atheism is the only way'
p7
ssS'output'
p8
(dp9
g4
(lp10
I8636
aI10660
aI3835
aI16924
aI64
aI6174
aI41
aI63765
asg6
S'Atheist Stephen Roberts illustrates this principle as follows:  .'
p11
ss.