(dp1
S'input'
p2
(dp3
S'encoded'
p4
(lp5
I64
aI2179
aI43
aI63
aI187
aI417
aI99
aI16642
aI3
aI6449
aI7
aI3935
asS'ori'
p6
S'This house believes that states should not subsidize the growing of tobacco'
p7
ssS'output'
p8
(dp9
g4
(lp10
I217
aI182
aI174
aI49597
aI60
aI49598
aI5
aI49599
aI1948
aI131
aI100
aI4471
aI182
aI17787
aI63765
asg6
S'Most are also reusable  with replaceable and refillable parts  but some models are disposable .'
p11
ss.