(dp1
S'input'
p2
(dp3
S'encoded'
p4
(lp5
I64
aI2179
aI235
aI3
aI2136
aI7
aI3
aI2306
aI7
aI2390
asS'ori'
p6
S'This house supports the one-child policy of the republic of China'
p7
ssS'output'
p8
(dp9
g4
(lp10
I725
aI2203
aI11
aI177
aI2598
aI2234
aI2722
aI131
aI979
aI697
aI13874
aI2722
aI604
aI177
aI2598
aI2234
aI24
aI3
aI1257
aI21716
aI3
aI3485
aI7932
aI2368
aI89
aI5615
aI3485
aI87
aI3
aI2598
aI637
aI1819
aI41
aI3
aI136
aI1872
aI494
aI105
aI9636
aI5065
aI63765
asg6
S'Many countries have high population growth rates but lower total fertility rates because high population growth in the past skewed the age demographic toward a young age  so the population still rises as the more numerous younger generation approaches maturity .'
p11
ss.