(dp1
S'input'
p2
(dp3
S'encoded'
p4
(lp5
I64
aI2179
aI43
aI63
aI3376
aI4938
aI417
aI316
aI3537
asS'ori'
p6
S'This house believes that endangered species should be protected'
p7
ssS'output'
p8
(dp9
g4
(lp10
I100
aI4927
aI7
aI1079
aI3142
aI116
aI1876
aI17921
aI5
aI99
aI223
aI1079
aI5
aI33827
aI33828
aI139
aI316
aI3464
aI63765
asg6
S'Some degree of gene flow is normal adaptation  and not all gene and genotype constellations can be preserved .'
p11
ss.