(dp1
S'input'
p2
(dp3
S'encoded'
p4
(lp5
I64
aI2179
aI43
aI17
aI4941
aI857
aI3211
asS'ori'
p6
S'This house believes social deprivation causes crime'
p7
ssS'output'
p8
(dp9
g4
(lp10
I27623
aI12375
aI182
aI3089
aI63
aI1453
aI99
aI867
aI2319
aI60
aI3
aI17
aI2825
aI41
aI61
aI521
aI12527
aI63765
asg6
S'Deviant behaviors are actions that do not go along with the social institutions as what cause deviance .'
p11
ss.