(dp1
S'input'
p2
(dp3
S'encoded'
p4
(lp5
I64
aI2179
aI394
aI3830
aI3
aI475
aI7
aI9441
aI13132
aI3102
aI24
aI276
aI381
asS'ori'
p6
S'This house would permit the use of performance enhancing drugs in professional sports'
p7
ssS'output'
p8
(dp9
g4
(lp10
I809
aI2145
aI63765
aI3639
aI495
aI2648
aI63765
aI46245
aI174
aI1607
aI588
aI13410
aI7
aI2513
aI7
aI376
aI63765
asg6
S"Former U .S . prosecutor John M . Dowd also brought up allegations of Mitchell's conflict of interest ."
p11
ss.