(dp1
S'input'
p2
(dp3
S'encoded'
p4
(lp5
I64
aI2179
aI394
aI60
aI23587
asS'ori'
p6
S'This house would re-engage with Myanmar'
p7
ssS'output'
p8
(dp9
g4
(lp10
I2206
aI5
aI1565
aI260
aI9991
aI493
aI3
aI2157
aI260
aI8146
aI60
aI27110
aI5
aI248
aI839
aI1347
aI14
aI2143
aI75
aI368
aI2025
aI7
aI3
aI12800
aI2328
aI910
aI11
aI891
aI24
aI3
aI4628
aI19
aI3118
aI7
aI217
aI2145
aI63765
aI5
aI725
aI1565
aI6228
aI63765
asg6
S'US and European government sanctions against the military government  coupled with boycotts and other direct pressure on corporations by western supporters of the Burmese democracy movement  have resulted in the withdrawal from Burma of most U .S . and many European companies .'
p11
ss.