(dp1
S'input'
p2
(dp3
S'encoded'
p4
(lp5
I64
aI2179
aI235
aI3858
aI3
aI2240
aI4527
aI3485
aI45
asS'ori'
p6
S'This house supports raising the school leaving age to 18'
p7
ssS'output'
p8
(dp9
g4
(lp10
I15197
aI55
aI34
aI2467
aI440
aI271
aI2240
aI4527
aI3485
aI1629
aI311
aI60
aI89
aI5376
aI45
aI316
aI7787
aI24
aI2042
aI73
aI477
aI487
aI3485
aI1902
aI3581
aI41
aI7
aI233
aI45
aI3
aI2176
aI7
aI2042
aI63765
asg6
S'Tasmania has for decades had their school leaving age set at 16  with a requirement to be participating in education or training until age 17 recently enacted as of 2007 according to the Department of Education  .'
p11
ss.