(dp1
S'input'
p2
(dp3
S'encoded'
p4
(lp5
I64
aI2179
aI43
aI63
aI134
aI116
aI400
aI21
aI34
aI3
aI260
aI45
aI3439
aI57
aI7
aI2381
asS'ori'
p6
S'This house believes that it is sometimes right for the government to restrict freedom of speech'
p7
ssS'output'
p8
(dp9
g4
(lp10
I35703
aI10339
aI4000
aI2173
aI24
aI63
aI223
aI2450
aI6881
aI116
aI260
aI18893
aI134
aI116
aI520
aI45
aI2455
aI89
aI260
aI18893
aI63765
aI3
aI19071
aI1696
aI24
aI3
aI3249
aI708
aI7
aI897
aI55
aI50397
aI2645
aI45
aI1879
aI2776
aI5
aI595
aI3441
aI7
aI260
aI63765
asg6
S'Indira Gandhi famously stated in 1975 that All India Radio is "a Government organ  it is going to remain a Government organ . ."With the liberalization starting in the 1990s  private control of media has burgeoned  leading to increasing independence and greater scrutiny of government .'
p11
ss.