(dp1
S'input'
p2
(dp3
S'encoded'
p4
(lp5
I64
aI2179
aI394
aI4325
aI2042
aI270
aI89
aI11605
aI3324
asS'ori'
p6
S'This house would fund education using a voucher scheme'
p7
ssS'output'
p8
(dp9
g4
(lp10
I24
aI1849
aI12566
aI263
aI89
aI7807
aI7
aI3
aI12566
aI2130
aI45
aI358
aI3
aI2937
aI63765
asg6
S"In response  Gray called a meeting of the Gray Commission to consider the governor's proposal  ."
p11
ss.