(dp1
S'input'
p2
(dp3
S'encoded'
p4
(lp5
I64
aI2179
aI394
aI163
aI959
aI2042
aI3557
asS'ori'
p6
S'This house would make physical education compulsory'
p7
ssS'output'
p8
(dp9
g4
(lp10
I64
aI1546
aI122
aI99
aI2778
aI887
aI3
aI8578
aI63765
asg6
S'This change was not observed among the girls  .'
p11
ss.