(dp1
S'input'
p2
(dp3
S'encoded'
p4
(lp5
I64
aI2179
aI43
aI63
aI2157
aI2565
aI493
aI19084
aI382
aI4850
asS'ori'
p6
S"This house believes that Israel's 2008-2009 military operations against Gaza were justified"
p7
ssS'output'
p8
(dp9
g4
(lp10
I3
aI2306
aI7
aI10151
aI5523
aI3
aI475
aI7
aI972
aI852
aI7
aI3269
aI887
aI3
aI2468
aI2598
aI7
aI8452
aI5
aI2659
aI63765
asg6
S'|- The Republic of Belarus condemned the use of force "the loss of life among the peaceful population of Palestine and Israel .'
p11
ss.