(dp1
S'input'
p2
(dp3
S'encoded'
p4
(lp5
I64
aI2179
aI394
aI16642
aI1376
aI5269
asS'ori'
p6
S'This house would subsidize poor communities'
p7
ssS'output'
p8
(dp9
g4
(lp10
I273
aI116
aI174
aI3
aI2146
aI3080
aI2035
aI3
aI8748
aI14467
aI92
aI146
aI3068
aI63
aI1306
aI116
aI1510
aI2794
aI75
aI15
aI7986
aI5
aI3216
aI5
aI7768
aI51
aI1879
aI2210
aI24
aI17
aI24662
aI63765
asg6
S'There is also the highly contested study The Bell Curve  which provides analysis that intelligence is substantially influenced by both genetics and environment and plays an increasing role in social stratification .'
p11
ss.