(dp1
S'input'
p2
(dp3
S'encoded'
p4
(lp5
I64
aI2179
aI43
aI63
aI3
aI4538
aI7
aI4434
aI7793
aI283
aI45
aI3586
aI417
aI316
aI577
asS'ori'
p6
S'This house believes that the sale of violent video games to minors should be banned'
p7
ssS'output'
p8
(dp9
g4
(lp10
I990
aI3
aI7786
aI3661
aI34
aI64
aI760
aI7
aI3600
aI116
aI63
aI34
aI64
aI3168
aI45
aI316
aI3107
aI897
aI2617
aI4962
aI45
aI11
aI12
aI1934
aI5
aI50927
aI14
aI3
aI544
aI691
aI3
aI417
aI316
aI261
aI14542
aI60
aI4434
aI3211
aI55
aI12
aI7964
aI588
aI5
aI462
aI638
aI2445
aI63765
asg6
S'Ultimately the biggest problem for this body of literature is that for this theory to be true  media violence (which appears to have been consistently and unfailingly on the rise since the 1950s) should be well correlated with violent crime (which has been cycling up and down throughout human history) .'
p11
ss.