(dp1
S'input'
p2
(dp3
S'encoded'
p4
(lp5
I64
aI2179
aI394
aI16756
aI20435
asS'ori'
p6
S'This house would criminalize blasphemy'
p7
ssS'output'
p8
(dp9
g4
(lp10
I159
aI10163
aI83
aI174
aI9042
aI60
aI3
aI2050
aI4352
aI7
aI3500
aI14612
aI41
aI261
aI41
aI159
aI3567
aI41
aI5
aI63765
asg6
S'Such prohibitions must also comply with the strict requirements of article 19  paragraph 3  as well as such articles as 2  5  17  18 and 26 .'
p11
ss.