(dp1
S'input'
p2
(dp3
S'encoded'
p4
(lp5
I64
aI2179
aI43
aI63
aI6670
aI546
aI417
aI316
aI89
aI1334
aI3108
aI7
aI4849
aI1886
aI2855
asS'ori'
p6
S'This house believes that wind power should be a primary focus of future energy supply'
p7
ssS'output'
p8
(dp9
g4
(lp10
I75
aI2871
aI6784
aI6670
aI6738
aI440
aI12
aI5660
aI24
aI323
aI60
aI51
aI582
aI5184
aI4204
aI7
aI6775
aI5
aI41
aI7
aI3
aI626
aI2549
aI55
aI75
aI938
aI3
aI2546
aI4204
aI7
aI6784
aI6670
aI6738
aI60
aI15167
aI136
aI138
aI3
aI573
aI7
aI3
aI285
aI4341
aI311
aI15167
aI3
aI102
aI116
aI1688
aI75
aI6091
aI3
aI3140
aI6065
aI2048
aI327
aI4581
aI6013
aI5
aI2044
aI60
aI6775
aI63765
asg6
S'By October 2009  26 offshore wind farms had been constructed in Europe with an average rated capacity of 76 MW  and as of 2010 the United Kingdom has by far the largest capacity of offshore wind farms with 1 .3 GW  more than the rest of the world combined at 1 .1 GW The UK is followed by Denmark (854 MW)  The Netherlands (249 MW)  Belgium (195 MW)  Sweden (164 MW)  Germany (92 MW)  Ireland (25 MW)  Finland (26 MW) and Norway with 2 .3 MW  .'
p11
ss.