(dp1
S'input'
p2
(dp3
S'encoded'
p4
(lp5
I64
aI2179
aI394
aI163
aI959
aI2042
aI3557
asS'ori'
p6
S'This house would make physical education compulsory'
p7
ssS'output'
p8
(dp9
g4
(lp10
I226
aI93
aI1629
aI7
aI21352
aI5
aI12315
aI88
aI11
aI3
aI2811
aI45
aI1899
aI5387
aI13397
aI97
aI760
aI88
aI316
aI11022
aI75
aI571
aI7
aI5958
aI11252
aI63765
asg6
S'While one set of joints and muscles may have the tolerance to withstand multiple marathons  another body may be damaged by 20 minutes of light jogging .'
p11
ss.