(dp1
S'input'
p2
(dp3
S'encoded'
p4
(lp5
I64
aI2179
aI394
aI2998
aI3
aI4360
aI7
aI3249
aI6804
aI24
aI3
aI102
asS'ori'
p6
S'This house would encourage the creation of private universities in the UK'
p7
ssS'output'
p8
(dp9
g4
(lp10
I14141
aI14142
aI3017
aI134
aI122
aI5501
aI45
aI11
aI89
aI4750
aI3251
aI75
aI3249
aI5981
aI3815
aI3
aI748
aI2796
aI24
aI7
aI4232
aI1633
aI3249
aI5968
aI4492
aI63765
asg6
S'Terence Kealey suggested it was dangerous to have a university funded by private equity  citing the possible collapse in 2011 of Southern Cross private nursing homes  .'
p11
ss.