(dp1
S'input'
p2
(dp3
S'encoded'
p4
(lp5
I64
aI2179
aI43
aI8629
aI116
aI3
aI117
aI998
asS'ori'
p6
S'This house believes atheism is the only way'
p7
ssS'output'
p8
(dp9
g4
(lp10
I42
aI116
aI261
aI1047
aI34
aI25
aI2198
aI7
aI8412
aI5
aI8296
aI4537
aI63765
asg6
S'He is well known for his criticism of creationism and intelligent design .'
p11
ss.