(dp1
S'input'
p2
(dp3
S'encoded'
p4
(lp5
I64
aI2179
aI43
aI63
aI3
aI4538
aI7
aI4434
aI7793
aI283
aI45
aI3586
aI417
aI316
aI577
asS'ori'
p6
S'This house believes that the sale of violent video games to minors should be banned'
p7
ssS'output'
p8
(dp9
g4
(lp10
I3
aI56970
aI24
aI92
aI3
aI7740
aI1647
aI45
aI248
aI21912
aI4818
aI283
aI53
aI89
aI7740
aI1647
aI18390
aI493
aI22956
aI73
aI248
aI2321
aI63765
asg6
S'the Eggerland series)Games in which the player acts non-violently to other sentient beings - Games where a player acts violently against robots or other non-living non-sentient enemies (E .g .'
p11
ss.