(dp1
S'input'
p2
(dp3
S'encoded'
p4
(lp5
I64
aI2179
aI394
aI2741
aI3
aI1560
aI6025
aI2784
asS'ori'
p6
S'This house would pass the American Jobs Act'
p7
ssS'output'
p8
(dp9
g4
(lp10
I4185
aI7
aI34001
aI7872
aI3
aI125
aI804
aI1265
aI34029
aI3
aI2937
aI63765
asg6
S'Section 3 of ARRA listed the basic intent behind crafting the proposal .'
p11
ss.