(dp1
S'input'
p2
(dp3
S'encoded'
p4
(lp5
I64
aI2179
aI43
aI63
aI6670
aI546
aI417
aI316
aI89
aI1334
aI3108
aI7
aI4849
aI1886
aI2855
asS'ori'
p6
S'This house believes that wind power should be a primary focus of future energy supply'
p7
ssS'output'
p8
(dp9
g4
(lp10
I134
aI6826
aI63
aI5093
aI1886
aI463
aI124
aI6775
aI34
aI289
aI2439
aI2449
aI45
aI3
aI912
aI2410
aI7
aI6775
aI63765
asg6
S"It estimates that Iceland's geothermal energy could provide 1700 MW for over 100 years  compared to the current production of 140 MW  ."
p11
ss.