(dp1
S'input'
p2
(dp3
S'encoded'
p4
(lp5
I64
aI2179
aI43
aI63
aI3376
aI4938
aI417
aI316
aI3537
asS'ori'
p6
S'This house believes that endangered species should be protected'
p7
ssS'output'
p8
(dp9
g4
(lp10
I2503
aI5
aI10
aI220
aI9041
aI3537
aI2506
aI5
aI150
aI89
aI696
aI7
aI2142
aI182
aI174
aI2686
aI24
aI6793
aI63765
asg6
S'Federal and State governments manage protected areas and national parks; a number of non-governmental organizations are also involved in conservation .'
p11
ss.