(dp1
S'input'
p2
(dp3
S'encoded'
p4
(lp5
I64
aI2179
aI394
aI190
aI3
aI21
aI45
aI3895
aI834
asS'ori'
p6
S'This house would limit the right to bear arms'
p7
ssS'output'
p8
(dp9
g4
(lp10
I64
aI122
aI2867
aI604
aI3
aI926
aI2475
aI98
aI99
aI1985
aI3
aI278
aI546
aI45
aI3582
aI2611
aI2511
aI63765
asg6
S'This was necessary because the Australian Constitution does not give the Commonwealth power to enact gun laws .'
p11
ss.