(dp1
S'input'
p2
(dp3
S'encoded'
p4
(lp5
I64
aI2179
aI43
aI63
aI1036
aI4828
aI33250
aI116
aI25073
aI45
aI3315
aI4562
asS'ori'
p6
S'This house believes that male infant circumcision is tantamount to child abuse'
p7
ssS'output'
p8
(dp9
g4
(lp10
I3
aI2132
aI7
aI8434
aI24
aI1647
aI7
aI3
aI21185
aI4669
aI3
aI845
aI7
aI755
aI33250
aI122
aI534
aI7
aI667
aI10006
aI45
aI8378
aI63765
asg6
S'The Council of Jerusalem in Acts of the Apostles 15 addressed the issue of whether circumcision was required of new converts to Christianity .'
p11
ss.