(dp1
S'input'
p2
(dp3
S'encoded'
p4
(lp5
I64
aI2179
aI13605
aI2258
aI45
aI2194
asS'ori'
p6
S'This house prefers trade to aid'
p7
ssS'output'
p8
(dp9
g4
(lp10
I64
aI1637
aI7
aI1239
aI116
aI99
aI41
aI3392
aI41
aI134
aI7027
aI5
aI24022
aI3
aI4999
aI736
aI267
aI1410
aI1948
aI63765
asg6
S'This line of division is not as straightforward as it sounds and splits the globe into two main parts .'
p11
ss.