(dp1
S'input'
p2
(dp3
S'encoded'
p4
(lp5
I64
aI2179
aI394
aI2976
aI12243
aI24
aI954
aI126
aI1560
aI10723
asS'ori'
p6
S'This house would implement playoffs in collegiate level American football'
p7
ssS'output'
p8
(dp9
g4
(lp10
I34
aI1343
aI13622
aI5
aI2298
aI24
aI382
aI3
aI117
aI486
aI15
aI4144
aI382
aI117
aI4068
aI89
aI5100
aI7
aI1727
aI223
aI5159
aI5
aI50288
aI1928
aI248
aI299
aI155
aI2037
aI75
aI1445
aI16535
aI63765
asg6
S'For example  USC and Texas in 2005 were the only undefeated teams; both teams were only tested a couple of times all season and mauled every other opponent they faced by large margins .'
p11
ss.