(dp1
S'input'
p2
(dp3
S'encoded'
p4
(lp5
I64
aI2179
aI43
aI223
aI2138
aI11
aI89
aI21
aI45
aI2185
aI372
asS'ori'
p6
S'This house believes all nations have a right to nuclear weapons'
p7
ssS'output'
p8
(dp9
g4
(lp10
I2201
aI2436
aI3229
aI11612
aI1969
aI14
aI2779
aI1969
aI14
aI492
aI5
aI1969
aI14
aI492
aI163
aI134
aI748
aI45
aI951
aI51
aI10611
aI45
aI2428
aI5
aI2265
aI10904
aI2361
aI5
aI2860
aI60
aI5392
aI45
aI2185
aI372
aI11570
aI5
aI2349
aI214
aI63765
asg6
S'WikiLeaks diplomatic cables titled "" sent on 6 August 2009  "" sent on 31 July 2009 and "" sent on 24 July 2009 make it possible to gain an insight to France\'s thought and P3 (US  France & UK) tacit agreements and doctrine with regards to nuclear weapons  NPT and disarmament issues .'
p11
ss.