(dp1
S'input'
p2
(dp3
S'encoded'
p4
(lp5
I64
aI2179
aI43
aI63
aI2659
aI417
aI1690
aI3
aI12048
aI7
aI19084
asS'ori'
p6
S'This house believes that Israel should lift the blockade of Gaza'
p7
ssS'output'
p8
(dp9
g4
(lp10
I282
aI684
aI159
aI41
aI3
aI626
aI2138
aI11
aI5523
aI3
aI8434
aI70
aI41
aI89
aI2521
aI7
aI3
aI4649
aI9590
aI2533
aI5
aI3082
aI1781
aI63
aI3
aI2426
aI7
aI3
aI4996
aI41
aI2352
aI116
aI493
aI282
aI70
aI63765
asg6
S"International bodies such as the United Nations have condemned the Jerusalem Law as a violation of the Fourth Geneva Convention and therefore hold that the establishment of the city as Israel's capital is against international law ."
p11
ss.