(dp1
S'input'
p2
(dp3
S'encoded'
p4
(lp5
I64
aI2179
aI394
aI10662
aI626
aI187
aI2157
aI2697
aI19
aI2371
asS'ori'
p6
S'This house would remove United States military bases from Japan'
p7
ssS'output'
p8
(dp9
g4
(lp10
I366
aI3
aI312
aI7
aI285
aI2223
aI2236
aI24
aI11542
aI122
aI459
aI626
aI187
aI4445
aI34
aI2439
aI63765
asg6
S'After the end of World War II in 1945  Okinawa was under United States administration for 27 years .'
p11
ss.