(dp1
S'input'
p2
(dp3
S'encoded'
p4
(lp5
I64
aI2179
aI394
aI2773
aI12505
asS'ori'
p6
S'This house would embrace multiculturalism'
p7
ssS'output'
p8
(dp9
g4
(lp10
I3
aI784
aI1980
aI1729
aI3
aI4099
aI2210
aI7
aI897
aI63765
asg6
S'The eight men discussed the negative role of media .'
p11
ss.