(dp1
S'input'
p2
(dp3
S'encoded'
p4
(lp5
I64
aI2179
aI43
aI63
aI17574
aI417
aI316
aI3481
aI34
aI271
aI79
asS'ori'
p6
S'This house believes that housewives should be paid for their work'
p7
ssS'output'
p8
(dp9
g4
(lp10
I64
aI116
aI400
aI6278
aI691
aI276
aI85
aI139
aI316
aI449
aI5118
aI5
aI139
aI9568
aI5170
aI63765
asg6
S'This is sometimes impossible  since professional care can be extremely costly and can seem inefficient .'
p11
ss.