(dp1
S'input'
p2
(dp3
S'encoded'
p4
(lp5
I64
aI2179
aI43
aI223
aI2138
aI11
aI89
aI21
aI45
aI2185
aI372
asS'ori'
p6
S'This house believes all nations have a right to nuclear weapons'
p7
ssS'output'
p8
(dp9
g4
(lp10
I667
aI2185
aI187
aI47
aI475
aI271
aI4595
aI2185
aI7832
aI45
aI3208
aI7188
aI5
aI10008
aI2250
asg6
S'new nuclear states will use their acquired nuclear capabilities to deter threats and preserve peace'
p11
ss.