(dp1
S'input'
p2
(dp3
S'encoded'
p4
(lp5
I64
aI2179
aI43
aI63
aI1036
aI4828
aI33250
aI116
aI25073
aI45
aI3315
aI4562
asS'ori'
p6
S'This house believes that male infant circumcision is tantamount to child abuse'
p7
ssS'output'
p8
(dp9
g4
(lp10
I725
aI3136
aI11
aI2343
aI3
aI282
aI4317
aI34
aI33298
aI4657
aI5
aI3092
aI211
aI2804
aI92
aI122
aI1515
aI75
aI3
aI237
aI282
aI7326
aI14
aI33250
aI14
aI2927
aI311
aI34936
aI2300
aI63765
asg6
S'Many anti-circumcision groups have joined the International Coalition for Genital Integrity  and endorsed its declaration  which was adopted by the First International Symposium on Circumcision  on March 3  1989  at Anaheim  California .'
p11
ss.