(dp1
S'input'
p2
(dp3
S'encoded'
p4
(lp5
I64
aI2179
aI43
aI63
aI3
aI28431
aI7
aI2157
aI4624
aI75
aI39939
aI27257
aI122
aI4850
asS'ori'
p6
S'This house believes that the leaking of military documents by Anat Kamm was justified'
p7
ssS'output'
p8
(dp9
g4
(lp10
I42
aI174
aI1630
aI63
aI15
aI2201
aI5
aI3
aI20389
aI440
aI3
aI1643
aI3047
aI45
aI20394
aI89
aI2224
aI1012
aI13611
aI5
aI122
aI1706
aI8343
aI2201
aI351
aI667
aI17022
asg6
S'" He also added that both WikiLeaks and the Pentagon had the same database to collate a civilian death toll and was further sceptical WikiLeaks "made any new discovery ."'
p11
ss.