(dp1
S'input'
p2
(dp3
S'encoded'
p4
(lp5
I64
aI2179
aI43
aI63
aI2203
aI60
aI51
aI997
aI2837
aI21716
aI1636
aI5349
aI417
aI2998
aI8532
aI45
aI3051
aI8578
asS'ori'
p6
S'This house believes that countries with an imbalanced male/female ratio skewed towards males should encourage parents to produce girls'
p7
ssS'output'
p8
(dp9
g4
(lp10
I24
aI2318
aI2047
aI5
aI2726
aI177
aI1036
aI11389
aI17839
aI5
aI2447
aI314
aI2722
aI1237
aI2467
aI4500
aI11
aI2425
aI45
aI289
aI7
aI19877
aI24
aI120
aI2203
aI773
aI291
aI2083
aI1980
aI5
aI2135
aI3495
aI153
aI19
aI2203
aI159
aI41
aI9882
aI2390
aI2790
aI5
aI3
aI2308
aI63765
asg6
S'In South Korea and Taiwan  high male sex ratios and declining birth rates several decades ago have led to over 10% of marriages in those countries being between local men and foreign women  often from countries such as mainland China  Vietnam and the Philippines  .'
p11
ss.