(dp1
S'input'
p2
(dp3
S'encoded'
p4
(lp5
I64
aI2179
aI43
aI63
aI2659
aI417
aI1690
aI3
aI12048
aI7
aI19084
asS'ori'
p6
S'This house believes that Israel should lift the blockade of Gaza'
p7
ssS'output'
p8
(dp9
g4
(lp10
I45
aI14335
aI3068
aI25162
aI589
aI3
aI11225
aI24
aI25
aI619
aI3715
aI63
aI3
aI1108
aI122
aI8735
aI311
aI1051
aI63765
asg6
S'"According to forensic analysis  tattooing around the wound in his face indicates that the shot was delivered at point-blank range .'
p11
ss.