(dp1
S'input'
p2
(dp3
S'encoded'
p4
(lp5
I64
aI2179
aI43
aI63
aI3
aI4990
aI4991
aI116
aI4850
aI24
aI12166
aI3
aI475
aI7
aI3532
aI3290
aI7
aI4714
asS'ori'
p6
S'This house believes that the Catholic Church is justified in forbidding the use of barrier methods of contraception'
p7
ssS'output'
p8
(dp9
g4
(lp10
I26691
aI2056
aI480
aI24
aI488
aI7423
aI158
aI2330
aI28
aI5
aI2774
aI55
aI1199
aI89
aI2759
aI2014
aI7
aI3950
aI4990
aI6298
aI2428
aI63765
asg6
S'Communio  now published in seventeen languages  including German  English and Spanish  has become a prominent journal of contemporary Catholic theological thought .'
p11
ss.