(dp1
S'input'
p2
(dp3
S'encoded'
p4
(lp5
I64
aI2179
aI394
aI2017
aI262
asS'ori'
p6
S'This house would ban boxing'
p7
ssS'output'
p8
(dp9
g4
(lp10
I492
aI21856
aI10198
aI14189
aI63765
aI32821
aI15863
aI440
aI64
aI1923
aI1011
aI99
aI7861
aI3
aI830
aI3
aI5489
aI394
aI11
aI12
aI4158
aI75
aI15863
aI131
aI3
aI1883
aI32822
aI5
aI1446
aI462
aI15863
aI45
aI4593
aI134
aI24
aI3
aI312
aI63765
asg6
S'July 13  1966: Emile Griffith vs . Joey Archer  Had this middleweight championship not gone the 15-round distance  the title would have been captured by Archer  but the defender outlasted and wore down Archer to retain it in the end  .'
p11
ss.