(dp1
S'input'
p2
(dp3
S'encoded'
p4
(lp5
I64
aI2179
aI43
aI63
aI1036
aI4828
aI33250
aI116
aI25073
aI45
aI3315
aI4562
asS'ori'
p6
S'This house believes that male infant circumcision is tantamount to child abuse'
p7
ssS'output'
p8
(dp9
g4
(lp10
I1160
aI7
aI60367
aI5
aI7096
aI604
aI7
aI33282
aI5
aI12929
aI1858
aI3
aI33220
aI33221
aI857
aI25229
aI5
aI20289
aI63765
asg6
S'Lack of aeration and irritation because of smegma and discharge surrounding the glans penis causes inflammation and edema .'
p11
ss.