(dp1
S'input'
p2
(dp3
S'encoded'
p4
(lp5
I64
aI2179
aI13605
aI2258
aI45
aI2194
asS'ori'
p6
S'This house prefers trade to aid'
p7
ssS'output'
p8
(dp9
g4
(lp10
I273
aI182
aI1237
aI1486
aI7
aI2194
aI282
aI14478
aI2194
aI3164
aI2194
aI2194
aI2194
aI63765
asg6
S'There are several types of aid:Governmental(Bilateral) aid International Organizational (multilateral) aid Voluntary aid Short-term/emergency aid Long-term/sustainable aid  .'
p11
ss.