(dp1
S'input'
p2
(dp3
S'encoded'
p4
(lp5
I64
aI2179
aI394
aI2017
aI223
aI9058
aI23653
asS'ori'
p6
S'This house would ban all unsustainable logging'
p7
ssS'output'
p8
(dp9
g4
(lp10
I3
aI1643
aI2035
aI174
aI353
aI24
aI3
aI1643
aI639
aI7
aI413
aI63
aI3
aI532
aI7
aI22886
aI24
aI3
aI2696
aI1472
aI75
aI63765
asg6
S'The same study also found in the same period of time that the amount of rainfall in the country decreased by 81mm .'
p11
ss.