(dp1
S'input'
p2
(dp3
S'encoded'
p4
(lp5
I64
aI2179
aI43
aI63
aI2157
aI2565
aI493
aI19084
aI382
aI4850
asS'ori'
p6
S"This house believes that Israel's 2008-2009 military operations against Gaza were justified"
p7
ssS'output'
p8
(dp9
g4
(lp10
I39226
aI2164
aI1076
aI21143
aI31130
aI5523
aI3
aI6056
aI2584
aI41
aI89
aI63765
asg6
S'|- Yemeni President Ali Abdullah Saleh condemned the Israeli raids as a "barbaric aggression"  .'
p11
ss.