(dp1
S'input'
p2
(dp3
S'encoded'
p4
(lp5
I64
aI2179
aI394
aI117
aI7428
aI21151
aI34
aI11389
aI2042
aI24
aI4364
asS'ori'
p6
S'This house would only teach abstinence for sex education in schools'
p7
ssS'output'
p8
(dp9
g4
(lp10
I311
aI248
aI1727
aI21151
aI55
aI12
aI344
aI41
aI89
aI325
aI17
aI1065
aI5652
aI75
aI120
aI81
aI4898
aI45
aI268
aI60
aI3
aI7371
aI5
aI959
aI285
aI63765
asg6
S'At other times  abstinence has been seen as a great social skill practiced by those who refuse to engage with the material and physical world .'
p11
ss.