(dp1
S'input'
p2
(dp3
S'encoded'
p4
(lp5
I64
aI2179
aI43
aI63
aI134
aI116
aI400
aI21
aI34
aI3
aI260
aI45
aI3439
aI57
aI7
aI2381
asS'ori'
p6
S'This house believes that it is sometimes right for the government to restrict freedom of speech'
p7
ssS'output'
p8
(dp9
g4
(lp10
I226
aI99
aI89
aI2268
aI2126
aI3
aI2804
aI122
aI3467
aI1515
aI34
aI3
aI3014
aI7
aI2166
aI3
aI1999
aI7
aI3
aI4199
aI5
aI3951
aI24
aI3
aI626
aI2138
aI2550
aI92
aI116
aI2473
aI14
aI223
aI2544
aI187
aI63765
asg6
S'While not a treaty itself  the Declaration was explicitly adopted for the purpose of defining the meaning of the words "fundamental freedoms" and "human rights" appearing in the United Nations Charter  which is binding on all member states .'
p11
ss.