(dp1
S'input'
p2
(dp3
S'encoded'
p4
(lp5
I64
aI2179
aI394
aI163
aI959
aI2042
aI3557
asS'ori'
p6
S'This house would make physical education compulsory'
p7
ssS'output'
p8
(dp9
g4
(lp10
I3
aI8953
aI24
aI1500
aI7
aI4704
aI122
aI3367
aI45
aI316
aI1021
aI45
aI3
aI4658
aI7
aI18545
aI63765
asg6
S'The decrease in strength of correlation was felt to be due to the effects of globalization  .'
p11
ss.