(dp1
S'input'
p2
(dp3
S'encoded'
p4
(lp5
I64
aI2179
aI43
aI17
aI4941
aI857
aI3211
asS'ori'
p6
S'This house believes social deprivation causes crime'
p7
ssS'output'
p8
(dp9
g4
(lp10
I3
aI117
aI6733
aI1359
aI742
aI45
aI316
aI5538
aI116
aI3
aI28741
aI7
aI3
aI918
aI63
aI3211
aI876
aI11
aI14
aI7776
aI78
aI63765
asg6
S'The only practical outcome said to be achievable is the minimization of the impact that crime might have on ordinary people .'
p11
ss.