(dp1
S'input'
p2
(dp3
S'encoded'
p4
(lp5
I64
aI2179
aI394
aI3830
aI3
aI475
aI7
aI9441
aI13132
aI3102
aI24
aI276
aI381
asS'ori'
p6
S'This house would permit the use of performance enhancing drugs in professional sports'
p7
ssS'output'
p8
(dp9
g4
(lp10
I248
aI139
aI1074
aI15318
aI24
aI3
aI3665
aI7
aI3
aI3780
aI159
aI41
aI43532
aI5
aI14021
aI7
aI3
aI20
aI43914
aI92
aI13795
aI211
aI9494
aI5
aI17337
aI63765
asg6
S'Other side-effects can include alterations in the structure of the heart  such as enlargement and thickening of the left ventricle  which impairs its contraction and relaxation  .'
p11
ss.