(dp1
S'input'
p2
(dp3
S'encoded'
p4
(lp5
I64
aI2179
aI394
aI117
aI7428
aI21151
aI34
aI11389
aI2042
aI24
aI4364
asS'ori'
p6
S'This house would only teach abstinence for sex education in schools'
p7
ssS'output'
p8
(dp9
g4
(lp10
I24
aI89
aI2220
aI3068
aI7
aI3073
aI19
aI3
aI150
aI13054
aI2035
aI7
aI5027
aI3217
aI4741
aI353
aI63
aI9633
aI24
aI11389
aI1179
aI20123
aI5
aI946
aI8578
aI60
aI166
aI2363
aI7
aI7071
aI5
aI2356
aI63765
asg6
S'" In a broad analysis of data from the National Longitudinal Study of Adolescent Health  researchers found that engaging in sex leaves adolescents  and especially girls  with higher levels of stress and depression  .'
p11
ss.