(dp1
S'input'
p2
(dp3
S'encoded'
p4
(lp5
I64
aI2179
aI13605
aI2258
aI45
aI2194
asS'ori'
p6
S'This house prefers trade to aid'
p7
ssS'output'
p8
(dp9
g4
(lp10
I34
aI3
aI2203
aI3
aI1334
aI845
aI116
aI192
aI3757
aI63765
asg6
S'For the middle-income countries  the primary issue is market access .'
p11
ss.