(dp1
S'input'
p2
(dp3
S'encoded'
p4
(lp5
I64
aI2179
aI43
aI63
aI3
aI21
aI45
aI12715
aI417
aI99
aI316
aI2897
asS'ori'
p6
S'This house believes that the right to asylum should not be absolute'
p7
ssS'output'
p8
(dp9
g4
(lp10
I3
aI626
aI2138
aI2533
aI14
aI3
aI1795
aI7
aI3
aI2446
aI7
aI223
aI18967
aI6941
aI5
aI2789
aI7
aI271
aI5743
aI55
aI12
aI2215
aI131
aI75
aI187
aI223
aI7
aI92
aI182
aI528
aI9443
aI7
aI7406
aI203
aI63765
asg6
S'The United Nations Convention on the Protection of the Rights of All Migrant Workers and Members of Their Families  has been ratified but by 20 states  all of which are heavy exporters of cheap labor .'
p11
ss.