(dp1
S'input'
p2
(dp3
S'encoded'
p4
(lp5
I64
aI2179
aI394
aI3830
aI3
aI475
aI7
aI9441
aI13132
aI3102
aI24
aI276
aI381
asS'ori'
p6
S'This house would permit the use of performance enhancing drugs in professional sports'
p7
ssS'output'
p8
(dp9
g4
(lp10
I2992
aI24
aI3
aI626
aI187
aI11
aI8117
aI63
aI13922
aI12350
aI1517
aI1057
aI45
aI316
aI3250
aI17566
aI1980
aI60
aI89
aI12646
aI3485
aI7
aI1191
aI81
aI182
aI62265
aI20670
aI5
aI5
aI475
aI3
aI3102
aI34
aI23064
aI792
aI63765
asg6
S'Studies in the United States have shown that anabolic steroid users tend to be mostly middle-class heterosexual men with a median age of about 25 who are noncompetitive bodybuilders and non-athletes and use the drugs for cosmetic purposes  .'
p11
ss.