(dp1
S'input'
p2
(dp3
S'encoded'
p4
(lp5
I64
aI2179
aI43
aI63
aI2157
aI2565
aI493
aI19084
aI382
aI4850
asS'ori'
p6
S"This house believes that Israel's 2008-2009 military operations against Gaza were justified"
p7
ssS'output'
p8
(dp9
g4
(lp10
I24
aI4192
aI19084
aI4996
aI19088
aI19136
aI31179
aI51
aI6056
aI18368
aI3188
aI93
aI5798
aI5
aI11030
aI869
aI63765
asg6
S'In northern Gaza City  Palestinian gunmen ambushed an Israeli patrol  killing one soldier and wounding four .'
p11
ss.