(dp1
S'input'
p2
(dp3
S'encoded'
p4
(lp5
I64
aI2179
aI13605
aI2258
aI45
aI2194
asS'ori'
p6
S'This house prefers trade to aid'
p7
ssS'output'
p8
(dp9
g4
(lp10
I64
aI32
aI134
aI330
aI45
aI1192
aI89
aI7301
aI73
aI570
aI7180
aI41
aI3930
aI7
aI3
aI4585
aI153
aI1019
aI316
aI685
aI45
aI3
aI3797
aI7
aI7302
aI63765
asg6
S'This makes it difficult to get a mortgage or similar loan  as ownership of the property often cannot be established to the satisfaction of financiers  .'
p11
ss.