(dp1
S'input'
p2
(dp3
S'encoded'
p4
(lp5
I64
aI2179
aI43
aI63
aI134
aI116
aI400
aI21
aI34
aI3
aI260
aI45
aI3439
aI57
aI7
aI2381
asS'ori'
p6
S'This house believes that it is sometimes right for the government to restrict freedom of speech'
p7
ssS'output'
p8
(dp9
g4
(lp10
I3
aI2180
aI493
aI8798
aI974
aI3
aI6116
aI5
aI1762
aI2962
aI14
aI271
aI9441
aI1928
aI869
aI2439
aI5
aI7217
aI14
aI86
aI63765
asg6
S"The Committee Against Torture monitors the CAT and receives states' reports on their performance every four years and comments on them ."
p11
ss.