(dp1
S'input'
p2
(dp3
S'encoded'
p4
(lp5
I64
aI2179
aI394
aI5284
aI150
aI3987
asS'ori'
p6
S'This house would reintroduce national service'
p7
ssS'output'
p8
(dp9
g4
(lp10
I2660
aI2477
aI6100
aI5585
aI63765
asg6
S'|- Kuwait 17 820 $117 300 $44 421 .22 2 595 628 constitutional emirate Yes  .'
p11
ss.