(dp1
S'input'
p2
(dp3
S'encoded'
p4
(lp5
I64
aI2179
aI394
aI2773
aI12505
asS'ori'
p6
S'This house would embrace multiculturalism'
p7
ssS'output'
p8
(dp9
g4
(lp10
I89
aI37
aI32786
aI53630
aI257
aI93
aI1967
aI116
aI99
aI1856
aI45
aI405
aI34
aI7094
aI63765
asg6
S'A pure postmodern nihilist  if one exists  is not likely to fight for anything .'
p11
ss.