(dp1
S'input'
p2
(dp3
S'encoded'
p4
(lp5
I64
aI2179
aI394
aI190
aI3
aI21
aI45
aI3895
aI834
asS'ori'
p6
S'This house would limit the right to bear arms'
p7
ssS'output'
p8
(dp9
g4
(lp10
I4281
aI3237
aI3991
aI5610
aI92
aI1298
aI63
aI223
aI1036
aI2144
aI1576
aI1518
aI851
aI3892
aI311
aI3900
aI24
aI33
aI7
aI89
aI63765
asg6
S'Switzerland practices universal conscription  which requires that all able-bodied male citizens keep fully automatic firearms at home in case of a call-up .'
p11
ss.