(dp1
S'input'
p2
(dp3
S'encoded'
p4
(lp5
I64
aI2179
aI394
aI2017
aI262
asS'ori'
p6
S'This house would ban boxing'
p7
ssS'output'
p8
(dp9
g4
(lp10
I455
aI81
aI523
aI75
aI770
aI75
aI767
aI464
aI73
aI182
aI6867
aI5001
aI873
aI292
aI3131
aI257
aI134
aI116
aI3
aI1950
aI770
aI545
aI292
aI3131
aI73
aI93
aI3569
aI257
aI134
aI116
aI3
aI3059
aI770
aI545
aI93
aI3569
aI63765
asg6
S'Fighters who lose by knockout (either by ten count or technical) are automatically suspended 30 days  three months if it is the second knockout within three months  or one year if it is the third knockout within one year .'
p11
ss.