(dp1
S'input'
p2
(dp3
S'encoded'
p4
(lp5
I64
aI2179
aI43
aI63
aI2659
aI417
aI1690
aI3
aI12048
aI7
aI19084
asS'ori'
p6
S'This house believes that Israel should lift the blockade of Gaza'
p7
ssS'output'
p8
(dp9
g4
(lp10
I3
aI2250
aI3262
aI1719
aI24
aI3
aI29933
aI3517
aI116
aI311
aI838
aI991
aI63765
aI8474
aI29934
aI5545
aI4027
aI63765
asg6
S'The peace process  already in the cryogenic stage  is at full stop . .The episode reruns old stories .'
p11
ss.