(dp1
S'input'
p2
(dp3
S'encoded'
p4
(lp5
I64
aI2179
aI394
aI16756
aI20435
asS'ori'
p6
S'This house would criminalize blasphemy'
p7
ssS'output'
p8
(dp9
g4
(lp10
I20435
aI116
aI58590
aI1636
aI2767
aI73
aI5781
aI4224
aI73
aI194
aI63765
asg6
S'Blasphemy is irreverence towards religious or holy persons or things  .'
p11
ss.