(dp1
S'input'
p2
(dp3
S'encoded'
p4
(lp5
I64
aI2179
aI394
aI117
aI7428
aI21151
aI34
aI11389
aI2042
aI24
aI4364
asS'ori'
p6
S'This house would only teach abstinence for sex education in schools'
p7
ssS'output'
p8
(dp9
g4
(lp10
I1879
aI4724
aI7
aI251
aI3365
aI45
aI20123
aI8803
aI3237
aI5
aI3
aI8272
aI7
aI11448
aI10953
aI5
aI24500
aI3300
aI63765
asg6
S'2542  increasing awareness of problems related to adolescents sexual practices  and the emergence of womens sexuality  and queer movements .'
p11
ss.