(dp1
S'input'
p2
(dp3
S'encoded'
p4
(lp5
I64
aI2179
aI43
aI63
aI188
aI220
aI417
aI1619
aI4275
aI45
aI713
aI14799
aI7533
aI311
aI3
aI3721
aI5145
asS'ori'
p6
S'This house believes that democratic governments should require voters to present photo identification at the polling station'
p7
ssS'output'
p8
(dp9
g4
(lp10
I3406
aI351
aI413
aI3721
aI5101
aI182
aI1258
aI4275
aI182
aI534
aI45
aI2490
aI270
aI9115
aI10868
aI63765
asg6
S'Additionally  any time polling hours are extended voters are required to vote using provisional ballots  .'
p11
ss.