(dp1
S'input'
p2
(dp3
S'encoded'
p4
(lp5
I64
aI2179
aI394
aI2017
aI223
aI9058
aI23653
asS'ori'
p6
S'This house would ban all unsustainable logging'
p7
ssS'output'
p8
(dp9
g4
(lp10
I134
aI15248
aI1010
aI244
aI189
aI5
aI40705
aI7808
aI2544
aI2203
aI45
aI1797
aI159
aI189
aI45
aI2083
aI3717
aI5
aI45
aI2976
aI86
aI24
aI3
aI7834
aI620
aI4949
aI63765
asg6
S'It develops internationally agreed policies and assists tropical member countries to adapt such policies to local circumstances and to implement them in the field through projects .'
p11
ss.