(dp1
S'input'
p2
(dp3
S'encoded'
p4
(lp5
I64
aI2179
aI43
aI63
aI187
aI417
aI99
aI16642
aI3
aI6449
aI7
aI3935
asS'ori'
p6
S'This house believes that states should not subsidize the growing of tobacco'
p7
ssS'output'
p8
(dp9
g4
(lp10
I732
aI79
aI1404
aI413
aI10649
aI45
aI565
aI732
aI45
aI211
aI2924
aI7
aI3
aI217
aI2147
aI167
aI967
aI3
aI4999
aI63765
asg6
S'Her work caused Time Magazine to name her to its 2007 list of the most influential figures across the globe .'
p11
ss.