(dp1
S'input'
p2
(dp3
S'encoded'
p4
(lp5
I64
aI2179
aI43
aI63
aI2659
aI417
aI1690
aI3
aI12048
aI7
aI19084
asS'ori'
p6
S'This house believes that Israel should lift the blockade of Gaza'
p7
ssS'output'
p8
(dp9
g4
(lp10
I155
aI11530
aI8002
aI3270
aI29963
aI116
aI63
aI3
aI17225
aI87
aI3494
aI3
aI1643
aI29964
aI10265
aI24
aI5958
aI7
aI271
aI284
aI2231
aI63765
asg6
S'They drew parallels saying "The pity is that the Israelis so lacked the same prescience  remarkable in light of their own history .'
p11
ss.