(dp1
S'input'
p2
(dp3
S'encoded'
p4
(lp5
I64
aI2179
aI394
aI16756
aI20435
asS'ori'
p6
S'This house would criminalize blasphemy'
p7
ssS'output'
p8
(dp9
g4
(lp10
I3
aI5496
aI7
aI2135
aI2181
aI7
aI6064
aI24
aI3
aI8889
aI3
aI4515
aI7
aI61639
aI63765
asg6
S'The Ministry of Foreign Affairs of Bangladesh "condemned in the strongest terms" the release of Fitna .'
p11
ss.