(dp1
S'input'
p2
(dp3
S'encoded'
p4
(lp5
I64
aI2179
aI394
aI117
aI7428
aI21151
aI34
aI11389
aI2042
aI24
aI4364
asS'ori'
p6
S'This house would only teach abstinence for sex education in schools'
p7
ssS'output'
p8
(dp9
g4
(lp10
I3
aI7086
aI3499
aI2180
aI7
aI3
aI2023
aI260
aI6879
aI4453
aI75
aI2014
aI2992
aI34
aI1016
aI9583
aI6241
aI75
aI55920
aI131
aI382
aI99
aI8265
aI63
aI132
aI8358
aI382
aI1748
aI3564
aI63765
asg6
S'The Expert Advisory Committee of the Canadian Government studied claims by journal studies for reduced HIV transmission by Insite but were not convinced that these assumptions were entirely valid .'
p11
ss.