(dp1
S'input'
p2
(dp3
S'encoded'
p4
(lp5
I64
aI2179
aI43
aI63
aI187
aI417
aI99
aI16642
aI3
aI6449
aI7
aI3935
asS'ori'
p6
S'This house believes that states should not subsidize the growing of tobacco'
p7
ssS'output'
p8
(dp9
g4
(lp10
I24
aI3
aI18423
aI2784
aI2801
aI3
aI1560
aI3935
aI2207
aI736
aI1237
aI384
aI6228
aI1609
aI192
aI2572
aI3057
aI45
aI574
aI19771
aI3970
aI63765
asg6
S'In 1911  the Sherman Anti-Trust Act divided the American Tobacco Trust into several different companies  making market share critical to each companys survival .'
p11
ss.