(dp1
S'input'
p2
(dp3
S'encoded'
p4
(lp5
I64
aI2179
aI394
aI5370
aI7146
aI4585
aI2446
asS'ori'
p6
S'This house would abolish intellectual property rights'
p7
ssS'output'
p8
(dp9
g4
(lp10
I100
aI12717
aI2478
aI133
aI63
aI917
aI7
aI3950
aI14810
aI24
aI2186
aI12717
aI937
aI3
aI2378
aI998
aI75
aI92
aI12716
aI27645
aI7232
aI13139
aI5
aI80
aI139
aI4325
aI3
aI4360
aI7
aI667
aI95
aI5
aI63
aI252
aI89
aI4229
aI639
aI7
aI976
aI1795
aI7
aI271
aI4849
aI112
aI725
aI4943
aI3955
aI5
aI21373
aI394
aI99
aI316
aI123
aI63765
asg6
S'Some copyright scholars believe that  regardless of contemporary advances in technology  copyright remains the fundamental way by which authors  sculptors  artists  musicians and others can fund the creation of new works  and that without a significant period of legal protection of their future income  many valuable books and artworks would not be created  .'
p11
ss.