(dp1
S'input'
p2
(dp3
S'encoded'
p4
(lp5
I64
aI2179
aI43
aI63
aI3376
aI4938
aI417
aI316
aI3537
asS'ori'
p6
S'This house believes that endangered species should be protected'
p7
ssS'output'
p8
(dp9
g4
(lp10
I24
aI63
aI4370
aI3
aI1643
aI5973
aI7
aI3724
aI244
aI60
aI3
aI10639
aI63
aI588
aI45
aI2900
aI7
aI223
aI3976
aI3162
aI463
aI1199
aI7862
aI545
aI2439
aI63765
asg6
S'In that survey  the same proportion of respondents agreed with the prediction that up to 20 percent of all living populations could become extinct within 30 years (by 2028) .'
p11
ss.