(dp1
S'input'
p2
(dp3
S'encoded'
p4
(lp5
I64
aI2179
aI43
aI63
aI323
aI417
aI10009
aI211
aI9035
aI249
aI45
aI3426
aI211
aI2144
aI595
aI17
aI96
asS'ori'
p6
S'This house believes that Europe should weaken its austerity measures to guarantee its citizens greater social support'
p7
ssS'output'
p8
(dp9
g4
(lp10
I34
aI3
aI237
aI413
aI64
aI174
aI2100
aI89
aI3249
aI7935
aI3186
aI1999
aI63
aI3
aI3249
aI2351
aI7935
aI1348
aI89
aI3164
aI1024
aI63765
asg6
S'For the first time  this also included a private sector involvement  meaning that the private financial sector accepted a voluntary cut .'
p11
ss.