(dp1
S'input'
p2
(dp3
S'encoded'
p4
(lp5
I64
aI2179
aI394
aI2976
aI12243
aI24
aI954
aI126
aI1560
aI10723
asS'ori'
p6
S'This house would implement playoffs in collegiate level American football'
p7
ssS'output'
p8
(dp9
g4
(lp10
I24
aI97
aI24450
aI2500
aI122
aI5087
aI864
aI7
aI3
aI34949
aI1748
aI298
aI4428
aI122
aI3473
aI41
aI93
aI7
aI292
aI4144
aI63765
asg6
S'In another irony  #6 Missouri was shut out of the BCS entirely when #8 Kansas was selected as one of three at-large teams .'
p11
ss.