(dp1
S'input'
p2
(dp3
S'encoded'
p4
(lp5
I64
aI2179
aI235
aI3
aI2136
aI7
aI3
aI2306
aI7
aI2390
asS'ori'
p6
S'This house supports the one-child policy of the republic of China'
p7
ssS'output'
p8
(dp9
g4
(lp10
I257
aI3
aI5229
aI7
aI2445
aI3269
aI116
aI4669
aI273
aI88
aI316
aI516
aI2635
aI513
aI159
aI41
aI2015
aI85
aI2042
aI3576
aI7441
aI4902
aI5152
aI16868
aI5
aI1886
aI7442
aI63765
asg6
S'If the quality of human life is addressed  there may be additional resources considered  such as medical care  education  proper sewage treatment  waste disposal and energy supplies .'
p11
ss.