(dp1
S'input'
p2
(dp3
S'encoded'
p4
(lp5
I64
aI2179
aI394
aI2017
aI262
asS'ori'
p6
S'This house would ban boxing'
p7
ssS'output'
p8
(dp9
g4
(lp10
I162
aI2008
aI6033
aI867
aI1931
aI252
aI4902
aI5
aI443
aI2386
aI4902
aI1967
aI63765
asg6
S'Usually concussion symptoms go away without treatment  and no specific treatment exists  .'
p11
ss.