(dp1
S'input'
p2
(dp3
S'encoded'
p4
(lp5
I64
aI2179
aI43
aI3
aI626
aI187
aI116
aI1989
aI34
aI3102
aI2223
asS'ori'
p6
S"This house believes the United States is responsible for Mexico's drugs war"
p7
ssS'output'
p8
(dp9
g4
(lp10
I60
aI3
aI2322
aI2210
aI7
aI2299
aI24
aI3
aI3139
aI5
aI2410
aI7
aI3101
aI3102
aI3
aI3891
aI7
aI3102
aI55
aI2322
aI8171
aI691
aI3
aI63765
asg6
S'With the increased role of Mexico in the trafficking and production of illicit drugs  the availability of drugs has increased locally since the 1980s  .'
p11
ss.