(dp1
S'input'
p2
(dp3
S'encoded'
p4
(lp5
I64
aI2179
aI43
aI223
aI2138
aI11
aI89
aI21
aI45
aI2185
aI372
asS'ori'
p6
S'This house believes all nations have a right to nuclear weapons'
p7
ssS'output'
p8
(dp9
g4
(lp10
I3
aI3326
aI5190
aI122
aI99
aI3444
aI45
aI316
aI5123
aI5
aI134
aI122
aI99
aI3444
aI63
aI2185
aI7371
aI440
aI12
aI451
aI736
aI134
aI63765
asg6
S'The alleged reactor was not asserted to be operational and it was not asserted that nuclear material had been introduced into it  .'
p11
ss.