(dp1
S'input'
p2
(dp3
S'encoded'
p4
(lp5
I64
aI2179
aI235
aI839
aI4168
aI7
aI4996
aI34759
asS'ori'
p6
S'This house supports direct election of city mayors'
p7
ssS'output'
p8
(dp9
g4
(lp10
I21429
aI4996
aI2132
aI55
aI2623
aI2493
aI62
aI45
aI1781
aI89
aI5325
aI270
aI211
aI284
aI2280
aI459
aI3
aI2083
aI260
aI2784
aI5
aI3
aI5409
aI7
aI3
aI2132
aI13308
aI22243
aI55
aI174
aI2623
aI2244
aI25
aI3446
aI3609
aI45
aI51
aI2990
aI8828
aI604
aI7
aI3
aI1718
aI7
aI159
aI89
aI1597
aI2645
aI45
aI89
aI30573
aI2132
aI63765
asg6
S'Nottingham City Council has previously rejected calls to hold a referendum using its own powers under the Local Government Act 2000  and the leader of the council  Jon Collins  has also previously expressed his personal opposition to an elected mayor because of the potential of such a position leading to a dysfunctional council  .'
p11
ss.