(dp1
S'input'
p2
(dp3
S'encoded'
p4
(lp5
I64
aI2179
aI394
aI2741
aI3
aI1560
aI6025
aI2784
asS'ori'
p6
S'This house would pass the American Jobs Act'
p7
ssS'output'
p8
(dp9
g4
(lp10
I34064
aI742
aI3
aI34063
aI4666
aI1235
aI2497
aI4696
aI24
aI2153
aI5
aI7517
aI63765
asg6
S'Elmendorf said the CBO expected short term increases in GDP and employment  .'
p11
ss.