(dp1
S'input'
p2
(dp3
S'encoded'
p4
(lp5
I64
aI2179
aI394
aI5370
aI7146
aI4585
aI2446
asS'ori'
p6
S'This house would abolish intellectual property rights'
p7
ssS'output'
p8
(dp9
g4
(lp10
I34
aI3
aI2231
aI7
aI3
aI2497
aI1792
aI12717
aI8794
aI63765
asg6
S'For the history of the term "piracy" see Copyright infringement .'
p11
ss.