(dp1
S'input'
p2
(dp3
S'encoded'
p4
(lp5
I64
aI2179
aI394
aI2017
aI262
asS'ori'
p6
S'This house would ban boxing'
p7
ssS'output'
p8
(dp9
g4
(lp10
I3
aI484
aI73
aI1406
aI45
aI316
aI217
aI482
aI493
aI89
aI1067
aI564
aI1407
aI1071
aI1070
aI5
aI5
aI1376
aI1104
aI32
aI1063
aI51
aI1408
aI1409
aI45
aI801
aI34
aI3
aI1050
aI63765
asg6
S'The boxer or out-fighter tends to be most successful against a brawler  whose slow speed (both hand and foot) and poor technique makes him an easy target to hit for the faster out-fighter .'
p11
ss.