(dp1
S'input'
p2
(dp3
S'encoded'
p4
(lp5
I64
aI2179
aI394
aI2741
aI3
aI1560
aI6025
aI2784
asS'ori'
p6
S'This house would pass the American Jobs Act'
p7
ssS'output'
p8
(dp9
g4
(lp10
I2155
aI2155
aI34
aI6844
aI1886
aI5
aI7373
aI6241
aI2947
aI7180
aI4641
aI2155
aI34
aI34043
aI4492
aI2155
aI34
aI6695
aI4180
aI5
aI982
aI6712
aI5091
aI2041
aI2155
aI2368
aI1886
aI4510
aI5
aI6793
aI591
aI2397
aI63765
asg6
S'Total: $27 .2 billion $6 billion for renewable energy and electric transmission technologies loan guarantees $5 billion for weatherizing modest-income homes $3 .4 billion for carbon capture and low emission coal research $3 .2 billion toward Energy Efficiency and Conservation Block Grants  .'
p11
ss.