(dp1
S'input'
p2
(dp3
S'encoded'
p4
(lp5
I64
aI2179
aI394
aI2773
aI12505
asS'ori'
p6
S'This house would embrace multiculturalism'
p7
ssS'output'
p8
(dp9
g4
(lp10
I3
aI3226
aI7
aI2135
aI15575
aI24
aI2047
aI11776
aI89
aI35549
aI2706
aI2022
aI736
aI26094
aI5
aI15307
aI93
aI2706
aI260
aI5
aI3
aI3202
aI2022
aI5878
aI1102
aI703
aI45
aI12505
aI41
aI51
aI4834
aI2755
aI45
aI271
aI2136
aI5
aI17
aI910
asg6
S'"  noting: "As the increase of foreign migrants in Korea transforms a single-ethnic homogenous Korean society into multiethnic and multicultural one  Korean government and the civil society pay close attention to multiculturalism as an alternative value to their policy and social movement ."'
p11
ss.