(dp1
S'input'
p2
(dp3
S'encoded'
p4
(lp5
I64
aI2179
aI394
aI2017
aI628
asS'ori'
p6
S'This house would ban gambling'
p7
ssS'output'
p8
(dp9
g4
(lp10
I459
aI3
aI7759
aI5052
aI2233
aI7607
aI116
aI459
aI3
aI2486
aI3370
aI7
aI3
aI2480
aI63765
asg6
S'Under the NIGC  Class I gaming is under the sole jurisdiction of the tribe .'
p11
ss.