(dp1
S'input'
p2
(dp3
S'encoded'
p4
(lp5
I64
aI2179
aI394
aI117
aI7428
aI21151
aI34
aI11389
aI2042
aI24
aI4364
asS'ori'
p6
S'This house would only teach abstinence for sex education in schools'
p7
ssS'output'
p8
(dp9
g4
(lp10
I725
aI4364
aI2056
aI124
aI12014
aI11389
aI2042
aI45
aI17089
aI5
aI4358
aI100
aI7
aI4895
aI268
aI24
aI8803
aI364
aI63765
asg6
S'Many schools now provide safer sex education to teen and pre-teen students  some of whom engage in sexual activity .'
p11
ss.