(dp1
S'input'
p2
(dp3
S'encoded'
p4
(lp5
I64
aI2179
aI394
aI190
aI3
aI21
aI45
aI3895
aI834
asS'ori'
p6
S'This house would limit the right to bear arms'
p7
ssS'output'
p8
(dp9
g4
(lp10
I397
aI64
aI1643
aI413
aI639
aI5
aI273
aI382
aI2611
aI4436
aI5
aI3
aI150
aI3211
aI17366
aI4370
aI6826
aI63
aI58677
aI4212
aI2557
aI1374
aI458
aI63765
asg6
S'During this same time period  1987 and 1990  there were 46 319 gun homicides  and the National Crime Victimization Survey estimates that 2 628 532 nonfatal crimes involving guns occurred  .'
p11
ss.