(dp1
S'input'
p2
(dp3
S'encoded'
p4
(lp5
I64
aI2179
aI394
aI5370
aI223
aI4013
aI10440
aI2446
aI4881
aI75
aI14482
aI11004
asS'ori'
p6
S'This house would abolish all collective bargaining rights claimed by trades unions'
p7
ssS'output'
p8
(dp9
g4
(lp10
I132
aI6941
aI382
aI1047
aI41
aI3
aI604
aI271
aI6025
aI500
aI99
aI4963
aI959
aI5428
aI63765
asg6
S'These workers were known as the "non-producers" because their jobs did not entail physical labour .'
p11
ss.