(dp1
S'input'
p2
(dp3
S'encoded'
p4
(lp5
I64
aI2179
aI43
aI63
aI2659
aI417
aI1690
aI3
aI12048
aI7
aI19084
asS'ori'
p6
S'This house believes that Israel should lift the blockade of Gaza'
p7
ssS'output'
p8
(dp9
g4
(lp10
I3
aI260
aI122
aI5546
aI7
aI773
aI207
aI136
aI138
aI89
aI22382
aI34
aI338
aI708
aI60
aI6351
aI903
aI3592
aI73
aI673
aI63765
asg6
S'The government was accused of being little more than a facade for Egyptian control  with negligible independent funding or influence .'
p11
ss.