(dp1
S'input'
p2
(dp3
S'encoded'
p4
(lp5
I64
aI2179
aI43
aI8629
aI116
aI3
aI117
aI998
asS'ori'
p6
S'This house believes atheism is the only way'
p7
ssS'output'
p8
(dp9
g4
(lp10
I134
aI122
aI6859
aI480
aI459
aI3
aI565
aI7
aI1136
aI49902
aI89
aI6608
aI2544
aI7
aI3
aI4169
aI4371
aI7
aI3707
aI63765
asg6
S'It was originally published under the name of Jean-Baptiste de Mirabaud  a deceased member of the French Academy of Science .'
p11
ss.