(dp1
S'input'
p2
(dp3
S'encoded'
p4
(lp5
I64
aI2179
aI43
aI63
aI1036
aI4828
aI33250
aI116
aI25073
aI45
aI3315
aI4562
asS'ori'
p6
S'This house believes that male infant circumcision is tantamount to child abuse'
p7
ssS'output'
p8
(dp9
g4
(lp10
I378
aI89
aI395
aI2035
aI7863
aI63
aI51
aI2322
aI2437
aI7
aI3
aI1718
aI127
aI7
aI16445
aI33250
aI88
aI11
aI12
aI1989
aI34
aI3
aI2778
aI3226
aI24
aI3
aI2206
aI2994
aI291
aI5
aI63765
asg6
S'However  a later study speculated that an increased recognition of the potential benefits of neonatal circumcision may have been responsible for the observed increase in the US rate between 1988 and 2000  .'
p11
ss.