(dp1
S'input'
p2
(dp3
S'encoded'
p4
(lp5
I64
aI2179
aI43
aI63
aI3
aI21
aI45
aI12715
aI417
aI99
aI316
aI2897
asS'ori'
p6
S'This house believes that the right to asylum should not be absolute'
p7
ssS'output'
p8
(dp9
g4
(lp10
I24
aI3
aI40693
aI282
aI5354
aI34
aI7477
aI122
aI685
aI41
aI89
aI2868
aI2904
aI45
aI3
aI2130
aI63765
asg6
S'In 1930  the Nansen International Office for Refugees was established as a successor agency to the Commission .'
p11
ss.