(dp1
S'input'
p2
(dp3
S'encoded'
p4
(lp5
I64
aI2179
aI43
aI63
aI2157
aI2565
aI493
aI19084
aI382
aI4850
asS'ori'
p6
S"This house believes that Israel's 2008-2009 military operations against Gaza were justified"
p7
ssS'output'
p8
(dp9
g4
(lp10
I3
aI448
aI6293
aI55
aI1719
aI9348
aI263
aI14
aI3
aI2287
aI5462
aI45
aI709
aI14330
aI903
aI8745
aI736
aI3
aI2034
aI844
aI7
aI282
aI2893
aI5
aI282
aI2445
aI2446
aI70
aI403
aI75
aI3
aI2800
aI4160
aI24
aI11577
aI1515
aI24
aI1906
aI5
aI2805
aI63765
asg6
S'The General Assembly has already twice called on the domestic authorities to conduct credible  independent investigations into the serious violations of international humanitarian and international human rights law documented by the UN Fact-Finding Mission  in resolutions adopted in November 2009 and February 2010 .'
p11
ss.