(dp1
S'input'
p2
(dp3
S'encoded'
p4
(lp5
I64
aI2179
aI43
aI63
aI1036
aI4828
aI33250
aI116
aI25073
aI45
aI3315
aI4562
asS'ori'
p6
S'This house believes that male infant circumcision is tantamount to child abuse'
p7
ssS'output'
p8
(dp9
g4
(lp10
I187
aI63
aI119
aI350
aI4808
aI1530
aI7
aI4799
aI5
aI3083
aI63
aI3
aI727
aI7
aI732
aI3068
aI31516
aI350
aI63
aI33250
aI7768
aI89
aI14958
aI2210
aI24
aI200
aI3
aI2038
aI7
aI9583
aI7446
aI887
aI1980
aI63765
asg6
S'Byakika-Tusiime states that available evidence satisfies six of Hill\'s criteria  and concludes that the results of her analysis "provide unequivocal evidence that circumcision plays a causal role in reducing the risk of HIV infection among men .'
p11
ss.