(dp1
S'input'
p2
(dp3
S'encoded'
p4
(lp5
I64
aI2179
aI43
aI63
aI17574
aI417
aI316
aI3481
aI34
aI271
aI79
asS'ori'
p6
S'This house believes that housewives should be paid for their work'
p7
ssS'output'
p8
(dp9
g4
(lp10
I107
aI3620
aI5019
aI1222
aI45
aI9177
aI89
aI136
aI8040
aI14637
aI7
aI51
aI16
aI17541
aI92
aI1501
aI94
aI13127
aI5
aI3089
aI906
aI75
aI1356
aI248
aI138
aI17544
asg6
S'Instead  feminist economists attempt to construct a more holistic vision of an economic actor  which includes group interactions and actions motivated by factors other than greed ."'
p11
ss.