(dp1
S'input'
p2
(dp3
S'encoded'
p4
(lp5
I64
aI2179
aI394
aI2773
aI12505
asS'ori'
p6
S'This house would embrace multiculturalism'
p7
ssS'output'
p8
(dp9
g4
(lp10
I89
aI1228
aI1343
aI7
aI159
aI89
aI3950
aI3168
aI116
aI21341
aI17921
aI3168
aI75
aI3520
aI53616
aI5
aI5615
aI53661
aI1015
aI63765
asg6
S'A good example of such a contemporary theory is Intercultural Adaptation Theory by William Gudykunst and Young Yun Kim (2003) .'
p11
ss.