(dp1
S'input'
p2
(dp3
S'encoded'
p4
(lp5
I64
aI2179
aI43
aI63
aI187
aI417
aI99
aI16642
aI3
aI6449
aI7
aI3935
asS'ori'
p6
S'This house believes that states should not subsidize the growing of tobacco'
p7
ssS'output'
p8
(dp9
g4
(lp10
I10400
aI2933
aI75
aI1560
aI18187
aI5677
aI221
aI221
aI134
aI6278
aI34
aI271
aI42184
aI1484
aI45
aI12304
aI63765
asg6
S'Subsidies received by American rice farmers made made it impossible for their Haitian counterparts to compete  .'
p11
ss.