(dp1
S'input'
p2
(dp3
S'encoded'
p4
(lp5
I64
aI2179
aI43
aI8629
aI116
aI3
aI117
aI998
asS'ori'
p6
S'This house believes atheism is the only way'
p7
ssS'output'
p8
(dp9
g4
(lp10
I42542
aI24
aI42543
aI2428
aI835
aI63
aI5480
aI55
aI5192
aI1020
aI87
aI63
aI4360
aI463
aI4532
aI131
aI63
aI64
aI4628
aI258
aI63
aI4360
aI1153
aI838
aI1571
aI45
aI580
aI63765
asg6
S"Tzimtzum in Kabbalistic thought holds that God has withdrawn himself so that creation could exist  but that this withdrawal means that creation lacks full exposure to God's all-good nature ."
p11
ss.