(dp1
S'input'
p2
(dp3
S'encoded'
p4
(lp5
I64
aI2179
aI43
aI63
aI3
aI4990
aI4991
aI116
aI4850
aI24
aI12166
aI3
aI475
aI7
aI3532
aI3290
aI7
aI4714
asS'ori'
p6
S'This house believes that the Catholic Church is justified in forbidding the use of barrier methods of contraception'
p7
ssS'output'
p8
(dp9
g4
(lp10
I24
aI3
aI6426
aI3905
aI3
aI3984
aI34
aI89
aI1036
aI3315
aI116
aI165
aI4787
aI1609
aI3
aI4589
aI73
aI3257
aI7
aI4015
aI4822
aI73
aI4710
aI279
aI24
aI3
aI3945
aI2506
aI7
aI3
aI2548
aI63765
asg6
S'In the Chinese culture  the desire for a male child is much harder  making the abandonment or abortion of female infants or fetuses common in the rural areas of the nation  .'
p11
ss.