(dp1
S'input'
p2
(dp3
S'encoded'
p4
(lp5
I64
aI2179
aI13605
aI2258
aI45
aI2194
asS'ori'
p6
S'This house prefers trade to aid'
p7
ssS'output'
p8
(dp9
g4
(lp10
I320
aI7990
aI12962
aI7
aI3
aI6174
aI382
aI717
aI14
aI3
aI595
aI11544
aI7
aI6713
aI384
aI16287
aI24
aI93
aI2696
aI138
aI97
aI5
aI99
aI14
aI2352
aI1161
aI63765
asg6
S'Early qualitative descriptions of the principle were based on the greater ease of producing different commodities in one country than another  and not on capital mobility .'
p11
ss.