(dp1
S'input'
p2
(dp3
S'encoded'
p4
(lp5
I64
aI2179
aI43
aI63
aI2659
aI417
aI1690
aI3
aI12048
aI7
aI19084
asS'ori'
p6
S'This house believes that Israel should lift the blockade of Gaza'
p7
ssS'output'
p8
(dp9
g4
(lp10
I24
aI3871
aI45
aI3419
aI63
aI440
aI443
aI1640
aI521
aI45
aI15403
aI60
aI9196
aI5599
aI2190
aI3024
aI5
aI89
aI11083
aI29952
aI3
aI3500
aI418
aI63
aI122
aI443
aI332
aI60
aI120
aI78
aI73
aI60
aI863
aI7
aI3
aI1530
aI7625
aI24
aI3
aI2700
aI63765
asg6
S'In reference to Turkey\'s statement that "Israel had no just cause to clash with \'European lawmakers  journalists  business leaders  and a Holocaust survivor \' the article noted that "there was no fighting with those people  or with five of the six boats in the fleet .'
p11
ss.