(dp1
S'input'
p2
(dp3
S'encoded'
p4
(lp5
I64
aI2179
aI394
aI5370
aI3
aI5286
asS'ori'
p6
S'This house would abolish the monarchy'
p7
ssS'output'
p8
(dp9
g4
(lp10
I366
aI3976
aI24
aI3
aI2206
aI24
aI128
aI45
aI1292
aI11653
aI24
aI2547
aI10241
aI1890
aI373
aI15376
aI60
aI3
aI1560
aI4408
aI145
aI5
aI1442
aI588
aI2969
aI34
aI2232
aI24
aI3
aI169
aI874
aI1560
aI386
aI114
aI42
aI15377
aI5156
aI3
aI312
aI7
aI25
aI3269
aI14
aI2023
aI2297
aI736
aI3
aI626
aI187
aI417
aI868
aI78
aI24
aI3
aI809
aI2696
aI1199
aI13344
aI60
aI1989
aI260
aI63765
asg6
S'After living in the US in order to avoid arrest in Canada  Mackenzie eventually became dissatisfied with the American republican system and gave up plans for revolution in the British North American provinces  though he theorized  near the end of his life  on Canadian annexation into the United States  should enough people in the former country become disillusioned with responsible government .'
p11
ss.