(dp1
S'input'
p2
(dp3
S'encoded'
p4
(lp5
I64
aI2179
aI43
aI24
aI3
aI475
aI7
aI12436
aI3364
asS'ori'
p6
S'This house believes in the use of affirmative action'
p7
ssS'output'
p8
(dp9
g4
(lp10
I3
aI2035
aI122
aI11612
aI9194
aI3068
aI7
aI12436
aI3364
aI24
aI1560
aI70
aI4364
aI63765
asg6
S'The study was titled  "A Systemic Analysis of Affirmative Action in American Law Schools .'
p11
ss.