(dp1
S'input'
p2
(dp3
S'encoded'
p4
(lp5
I64
aI2179
aI43
aI63
aI2659
aI417
aI1690
aI3
aI12048
aI7
aI19084
asS'ori'
p6
S'This house believes that Israel should lift the blockade of Gaza'
p7
ssS'output'
p8
(dp9
g4
(lp10
I378
aI2659
aI2173
aI134
aI99
aI1649
aI45
aI19084
aI3
aI372
aI5
aI2157
aI1498
aI134
aI440
aI353
aI19363
aI3
aI19191
aI10318
aI63765
asg6
S'However  Israel stated it "will not transfer to Gaza the weapons and military equipment it had found aboard the Mavi Marmara .'
p11
ss.