(dp1
S'input'
p2
(dp3
S'encoded'
p4
(lp5
I64
aI2179
aI43
aI63
aI134
aI116
aI400
aI21
aI34
aI3
aI260
aI45
aI3439
aI57
aI7
aI2381
asS'ori'
p6
S'This house believes that it is sometimes right for the government to restrict freedom of speech'
p7
ssS'output'
p8
(dp9
g4
(lp10
I24
aI31280
aI62512
aI646
aI63765
aI10
aI7
aI22358
aI40191
aI3
aI2483
aI2484
aI3
aI2477
aI2485
aI7
aI3
aI4185
aI7
aI2233
aI5
aI174
aI2484
aI3
aI234
aI788
aI24
aI62513
aI33
aI63765
asg6
S'In Kedar Nath v . State of Bihar (AIR 1952 SC 955)  the court upheld the constitutional validity of the Section 124A of I .P .C and also upheld the view taken in Niharendus case .'
p11
ss.