(dp1
S'input'
p2
(dp3
S'encoded'
p4
(lp5
I64
aI2179
aI43
aI223
aI2138
aI11
aI89
aI21
aI45
aI2185
aI372
asS'ori'
p6
S'This house believes all nations have a right to nuclear weapons'
p7
ssS'output'
p8
(dp9
g4
(lp10
I3
aI292
aI43579
aI2203
aI24
aI24636
aI7
aI1260
aI2016
aI60
aI3
aI2809
aI2343
aI11570
aI24
aI2319
aI60
aI6135
aI63765
asg6
S'The three Micronesian countries in Compact of Free Association with the USA joined NPT in 1995  along with Vanuatu .'
p11
ss.