(dp1
S'input'
p2
(dp3
S'encoded'
p4
(lp5
I64
aI2179
aI43
aI63
aI3
aI4990
aI4991
aI116
aI4850
aI24
aI12166
aI3
aI475
aI7
aI3532
aI3290
aI7
aI4714
asS'ori'
p6
S'This house believes that the Catholic Church is justified in forbidding the use of barrier methods of contraception'
p7
ssS'output'
p8
(dp9
g4
(lp10
I10027
aI10858
aI8561
aI16
aI4817
aI5
aI17
aI41
aI7973
aI3466
aI3398
aI45
aI1292
aI3271
aI63765
asg6
S'Humanae Vitae cites "physical  economic  psychological and social conditions" as possibly compelling reasons to avoid pregnancy .'
p11
ss.