(dp1
S'input'
p2
(dp3
S'encoded'
p4
(lp5
I64
aI2179
aI43
aI223
aI2138
aI11
aI89
aI21
aI45
aI2185
aI372
asS'ori'
p6
S'This house believes all nations have a right to nuclear weapons'
p7
ssS'output'
p8
(dp9
g4
(lp10
I3
aI8932
aI116
aI51
aI282
aI2202
aI3168
aI2230
aI3
aI782
aI7
aI2185
aI372
aI5
aI7967
aI2944
aI2945
aI63765
asg6
S'The stability-instability paradox is an international relations theory regarding the effect of nuclear weapons and mutually assured destruction .'
p11
ss.