(dp1
S'input'
p2
(dp3
S'encoded'
p4
(lp5
I64
aI2179
aI394
aI15841
aI2736
asS'ori'
p6
S'This house would disband ASEAN'
p7
ssS'output'
p8
(dp9
g4
(lp10
I11551
aI45
aI3
aI306
aI7
aI70
aI1228
aI6390
aI3
aI2747
aI7
aI2328
aI5
aI2477
aI63765
asg6
S'h) adherence to the rule of law  good governance  the principles of democracy and constitutional government;  .'
p11
ss.