(dp1
S'input'
p2
(dp3
S'encoded'
p4
(lp5
I64
aI2179
aI43
aI223
aI2138
aI11
aI89
aI21
aI45
aI2185
aI372
asS'ori'
p6
S'This house believes all nations have a right to nuclear weapons'
p7
ssS'output'
p8
(dp9
g4
(lp10
I551
aI2185
aI1942
aI187
aI99
aI171
aI45
aI3
aI2185
aI2758
aI11521
aI29477
aI2185
aI2758
aI11521
aI874
aI2706
aI2185
aI2758
aI11521
aI63765
asg6
S'Declared nuclear weapon states not party to the NPT:Indian nuclear weapons: 80110 active warheads Pakistani nuclear weapons: 90110 active warheads North Korean nuclear weapons: &#60;10 active warheads  .'
p11
ss.