(dp1
S'input'
p2
(dp3
S'encoded'
p4
(lp5
I64
aI2179
aI43
aI63
aI6670
aI546
aI417
aI316
aI89
aI1334
aI3108
aI7
aI4849
aI1886
aI2855
asS'ori'
p6
S'This house believes that wind power should be a primary focus of future energy supply'
p7
ssS'output'
p8
(dp9
g4
(lp10
I257
aI5158
aI6923
aI2938
aI182
aI416
aI4229
aI1495
aI19
aI3
aI1495
aI9092
aI47
aI99
aI316
aI416
aI63765
asg6
S'If dry cooling systems are used  significant water from the water table will not be used .'
p11
ss.