(dp1
S'input'
p2
(dp3
S'encoded'
p4
(lp5
I64
aI2179
aI43
aI63
aI3
aI21
aI45
aI12715
aI417
aI99
aI316
aI2897
asS'ori'
p6
S'This house believes that the right to asylum should not be absolute'
p7
ssS'output'
p8
(dp9
g4
(lp10
I155
aI382
aI864
aI7
aI3964
aI5
aI1495
aI382
aI449
aI6196
aI5
aI27914
aI5
aI271
aI6918
aI122
aI28431
aI63765
asg6
S'They were out of food and water  were extremely lost and scared  and their boat was leaking .'
p11
ss.