(dp1
S'input'
p2
(dp3
S'encoded'
p4
(lp5
I64
aI2179
aI43
aI8629
aI116
aI3
aI117
aI998
asS'ori'
p6
S'This house believes atheism is the only way'
p7
ssS'output'
p8
(dp9
g4
(lp10
I42
aI768
aI39
aI3
aI4537
aI3384
aI270
aI1202
aI159
aI41
aI3
aI2445
aI760
aI371
aI864
aI24
aI5545
aI3485
aI41
aI6730
aI4537
aI63765
asg6
S'He then discusses the design arguments  using examples such as the human body wearing out in old age as bad design .'
p11
ss.