(dp1
S'input'
p2
(dp3
S'encoded'
p4
(lp5
I64
aI2179
aI43
aI223
aI2138
aI11
aI89
aI21
aI45
aI2185
aI372
asS'ori'
p6
S'This house believes all nations have a right to nuclear weapons'
p7
ssS'output'
p8
(dp9
g4
(lp10
I3
aI217
aI6460
aI3497
aI122
aI34
aI3
aI1795
aI7
aI2446
aI34
aI120
aI3493
aI75
aI3
aI18064
aI10763
aI158
aI125
aI2445
aI2446
aI159
aI41
aI3217
aI85
aI3976
aI2140
aI5
aI934
aI63765
asg6
S'The most immediate demand was for the protection of rights for those affected by the Fukushima accident  including basic human rights such as health care  living standards and safety  .'
p11
ss.