(dp1
S'input'
p2
(dp3
S'encoded'
p4
(lp5
I64
aI2179
aI394
aI15841
aI2736
asS'ori'
p6
S'This house would disband ASEAN'
p7
ssS'output'
p8
(dp9
g4
(lp10
I3
aI22156
aI2646
aI17459
aI283
aI3
aI1526
aI2117
aI34
aI12349
aI60
aI959
aI12493
aI116
aI89
aI2117
aI557
aI1928
aI869
aI2439
aI366
aI1928
aI2646
aI283
aI63765
asg6
S'The inaugural Asian Para Games  the parallel event for athletes with physical disabilities  is a multi-sport event held every four years after every Asian Games .'
p11
ss.