(dp1
S'input'
p2
(dp3
S'encoded'
p4
(lp5
I64
aI2179
aI394
aI5370
aI3
aI5286
asS'ori'
p6
S'This house would abolish the monarchy'
p7
ssS'output'
p8
(dp9
g4
(lp10
I691
aI3313
aI440
aI443
aI3862
aI3313
aI122
aI2347
aI75
aI3
aI6778
aI5301
aI411
aI10852
aI81
aI122
aI3
aI7
aI1117
aI1478
aI9702
aI5
aI2504
aI237
aI32123
aI9348
aI56
aI63765
asg6
S"Since she had no children  she was succeeded by the Scottish monarch James VI  who was the great-grandson of Henry VIII's older sister and hence Elizabeth's first cousin twice removed ."
p11
ss.