(dp1
S'input'
p2
(dp3
S'encoded'
p4
(lp5
I64
aI2179
aI394
aI2976
aI12243
aI24
aI954
aI126
aI1560
aI10723
asS'ori'
p6
S'This house would implement playoffs in collegiate level American football'
p7
ssS'output'
p8
(dp9
g4
(lp10
I257
aI89
aI11276
aI19
aI93
aI7
aI132
aI863
aI14324
aI7768
aI24
aI89
aI34949
aI20731
aI51
aI516
aI2596
aI2900
aI47
aI316
aI575
aI24
aI8880
aI45
aI3
aI14324
aI5
aI257
aI89
aI1950
aI11276
aI28285
aI120
aI14324
aI47
aI6750
aI51
aI516
aI63765
asg6
S'If a team from one of these five conferences plays in a BCS bowl  an additional nine percent (approximately $12 .35M) will be given in aggregate to the conferences  and if a second team participates  those conferences will receive an additional $6 .0M .'
p11
ss.