(dp1
S'input'
p2
(dp3
S'encoded'
p4
(lp5
I64
aI2179
aI394
aI5370
aI3
aI5286
asS'ori'
p6
S'This house would abolish the monarchy'
p7
ssS'output'
p8
(dp9
g4
(lp10
I3
aI5301
aI2487
aI16352
aI2789
aI7
aI3
aI128
aI7
aI3
aI45111
aI3
aI128
aI7
aI3
aI45112
aI3
aI4137
aI8235
aI128
aI5
aI3
aI128
aI7
aI6612
aI63765
asg6
S'The monarch alone appoints members of the Order of the Garter  the Order of the Thistle  the Royal Victorian Order and the Order of Merit  .'
p11
ss.