(dp1
S'input'
p2
(dp3
S'encoded'
p4
(lp5
I64
aI2179
aI43
aI63
aI7382
aI116
aI400
aI4713
asS'ori'
p6
S'This house believes that bribery is sometimes acceptable'
p7
ssS'output'
p8
(dp9
g4
(lp10
I7170
aI88
aI2784
aI41
aI89
aI45
aI3
aI6290
aI5
aI9619
aI2188
aI8399
asg6
S'corruption may act as a "lubricant" to "loosen up" the bureaucracy and facilitate commercial exchanges'
p11
ss.