(dp1
S'input'
p2
(dp3
S'encoded'
p4
(lp5
I64
aI2179
aI394
aI2741
aI3
aI1560
aI6025
aI2784
asS'ori'
p6
S'This house would pass the American Jobs Act'
p7
ssS'output'
p8
(dp9
g4
(lp10
I3
aI1560
aI6025
aI2784
aI63765
aI30543
aI63765
asg6
S'The American Jobs Act () (H . Doc .'
p11
ss.