(dp1
S'input'
p2
(dp3
S'encoded'
p4
(lp5
I64
aI2179
aI13605
aI2258
aI45
aI2194
asS'ori'
p6
S'This house prefers trade to aid'
p7
ssS'output'
p8
(dp9
g4
(lp10
I24
aI725
aI2138
aI2153
aI4386
aI7282
aI116
aI149
aI138
aI4386
aI3569
aI60
aI3
aI2411
aI2471
aI7
aI3
aI2598
aI3976
aI14
aI165
aI149
aI63765
asg6
S'In many nations  GDP per capita is less than USD$200 per year  with the vast majority of the population living on much less .'
p11
ss.