(dp1
S'input'
p2
(dp3
S'encoded'
p4
(lp5
I64
aI2179
aI394
aI4261
aI8667
aI3
aI9361
aI5
aI17069
asS'ori'
p6
S'This house would prohibit burning the stars and stripes'
p7
ssS'output'
p8
(dp9
g4
(lp10
I223
aI7
aI132
aI3369
aI394
aI4937
aI25537
aI3
aI48858
aI2210
aI7
aI3
aI3744
aI5
aI159
aI89
aI3262
aI394
aI1856
aI1619
aI1237
aI2439
aI34
aI3
aI9596
aI7
aI574
aI845
aI63765
asg6
S'All of these questions would necessarily await the interpretative role of the courts  and such a process would likely require several years for the resolution of each issue .'
p11
ss.