(dp1
S'input'
p2
(dp3
S'encoded'
p4
(lp5
I64
aI2179
aI43
aI63
aI3
aI21
aI45
aI12715
aI417
aI99
aI316
aI2897
asS'ori'
p6
S'This house believes that the right to asylum should not be absolute'
p7
ssS'output'
p8
(dp9
g4
(lp10
I89
aI1045
aI3202
aI3987
aI4308
aI122
aI3
aI4448
aI122
aI51
aI6837
aI92
aI4373
aI311
aI89
aI41694
aI63765
asg6
S'A classic Civil Service compromise was reached; the machine was an aircraft which arrived at a seaport .'
p11
ss.