(dp1
S'input'
p2
(dp3
S'encoded'
p4
(lp5
I64
aI2179
aI394
aI2017
aI628
asS'ori'
p6
S'This house would ban gambling'
p7
ssS'output'
p8
(dp9
g4
(lp10
I14
aI1906
aI3
aI667
aI4392
aI10
aI2211
aI373
aI3
aI237
aI159
aI2206
aI760
aI45
aI2741
aI89
aI2029
aI2476
aI15847
aI77
aI274
aI7
aI5119
aI628
aI63765
asg6
S'On November 22  2010  the New Jersey state Senate became the first such US body to pass a bill (S490) expressly legalizing certain forms of online gambling .'
p11
ss.