(dp1
S'input'
p2
(dp3
S'encoded'
p4
(lp5
I64
aI2179
aI43
aI63
aI3
aI4990
aI4991
aI116
aI4850
aI24
aI12166
aI3
aI475
aI7
aI3532
aI3290
aI7
aI4714
asS'ori'
p6
S'This house believes that the Catholic Church is justified in forbidding the use of barrier methods of contraception'
p7
ssS'output'
p8
(dp9
g4
(lp10
I24
aI3
aI398
aI3
aI3300
aI1515
aI3
aI11455
aI11035
aI2319
aI60
aI248
aI3157
aI63765
asg6
S'In the 19th century the "Old Catholic" anti-primacy movements adopted the vernacular liturgy along with other reforms .'
p11
ss.