(dp1
S'input'
p2
(dp3
S'encoded'
p4
(lp5
I64
aI2179
aI43
aI223
aI2138
aI11
aI89
aI21
aI45
aI2185
aI372
asS'ori'
p6
S'This house believes all nations have a right to nuclear weapons'
p7
ssS'output'
p8
(dp9
g4
(lp10
I19
aI64
aI957
aI7
aI234
aI3
aI5048
aI7
aI2185
aI372
aI116
aI10985
aI45
aI3208
aI2223
aI604
aI351
aI2185
aI2223
aI394
aI840
aI8694
aI864
aI7
aI2943
aI11843
aI5
aI2384
aI204
aI24
aI7967
aI2944
aI2945
aI63765
asg6
S'From this point of view  the significance of nuclear weapons is purely to deter war because any nuclear war would immediately escalate out of mutual distrust and fear  resulting in mutually assured destruction .'
p11
ss.