(dp1
S'input'
p2
(dp3
S'encoded'
p4
(lp5
I64
aI2179
aI235
aI3
aI2136
aI7
aI3
aI2306
aI7
aI2390
asS'ori'
p6
S'This house supports the one-child policy of the republic of China'
p7
ssS'output'
p8
(dp9
g4
(lp10
I3
aI1530
aI2930
aI7887
aI45
aI3941
aI382
aI1380
aI73
aI4543
aI696
aI696
aI7
aI4224
aI696
aI7
aI13843
aI24
aI696
aI7
aI457
aI24
aI5
aI696
aI7
aI4384
aI4224
aI3132
aI34
aI136
aI138
aI93
aI3569
aI63765
asg6
S'The six items pertaining to households were type (domestic or collective)  serial number  number of persons  number of births in 1981  number of deaths in 1981  and number of registered persons absent for more than one year .'
p11
ss.