(dp1
S'input'
p2
(dp3
S'encoded'
p4
(lp5
I64
aI2179
aI394
aI5370
aI3
aI5286
asS'ori'
p6
S'This house would abolish the monarchy'
p7
ssS'output'
p8
(dp9
g4
(lp10
I3
aI1692
aI2396
aI8466
aI34
aI1036
aI2789
aI7
aI3
aI3874
aI45
aI5570
aI5
aI18981
aI5349
aI17760
aI19
aI4015
aI3477
aI63765
asg6
S'The Quasi-Salic succession provided firstly for male members of the family to succeed  and secondarily males descended from female lines .'
p11
ss.