(dp1
S'input'
p2
(dp3
S'encoded'
p4
(lp5
I64
aI2179
aI43
aI17
aI4941
aI857
aI3211
asS'ori'
p6
S'This house believes social deprivation causes crime'
p7
ssS'output'
p8
(dp9
g4
(lp10
I34
aI1343
aI298
aI78
aI1190
aI1191
aI81
aI155
aI88
aI3109
aI9503
aI45
aI1792
aI257
aI155
aI248
aI2007
aI47
aI9036
aI1640
aI41
aI165
aI3472
aI138
aI155
aI1453
aI63765
asg6
S"For example  when people think about who they may date  they'll look to see if they other person will offer just as much (or perhaps more) than they do ."
p11
ss.