(dp1
S'input'
p2
(dp3
S'encoded'
p4
(lp5
I64
aI2179
aI394
aI3830
aI3
aI475
aI7
aI9441
aI13132
aI3102
aI24
aI276
aI381
asS'ori'
p6
S'This house would permit the use of performance enhancing drugs in professional sports'
p7
ssS'output'
p8
(dp9
g4
(lp10
I24
aI155
aI577
aI655
aI19
aI12283
aI131
aI60
aI207
aI24
aI3
aI998
aI7
aI8351
aI119
aI155
aI440
aI45
aI109
aI14
aI3
aI414
aI7
aI3
aI2027
aI63
aI155
aI382
aI915
aI63765
asg6
S'In 1928 they banned participants from doping  but with little in the way of testing available they had to rely on the word of the athlete that they were clean .'
p11
ss.