(dp1
S'input'
p2
(dp3
S'encoded'
p4
(lp5
I64
aI2179
aI43
aI63
aI7382
aI116
aI400
aI4713
asS'ori'
p6
S'This house believes that bribery is sometimes acceptable'
p7
ssS'output'
p8
(dp9
g4
(lp10
I24
aI3
aI1565
aI2131
aI3
aI6174
aI7
aI31899
aI116
aI89
aI260
aI3987
aI417
aI316
aI2396
aI75
aI3
aI5006
aI217
aI2083
aI254
aI63
aI139
aI31910
aI124
aI134
aI63765
asg6
S'In the European Union  the principle of subsidiarity is applied: a government service should be provided by the lowest  most local authority that can competently provide it .'
p11
ss.