(dp1
S'input'
p2
(dp3
S'encoded'
p4
(lp5
I64
aI2179
aI43
aI63
aI3357
aI5003
aI652
aI3
aI188
aI3262
asS'ori'
p6
S'This house believes that opinion polls harm the democratic process'
p7
ssS'output'
p8
(dp9
g4
(lp10
I3
aI10645
aI782
aI116
aI89
aI261
aI403
aI399
aI7
aI26324
aI24
aI14761
aI3707
aI5
aI55
aI725
aI5139
aI63765
asg6
S'The bandwagon effect is a well documented form of groupthink in behavioral science and has many applications .'
p11
ss.