(dp1
S'input'
p2
(dp3
S'encoded'
p4
(lp5
I64
aI2179
aI394
aI2773
aI12505
asS'ori'
p6
S'This house would embrace multiculturalism'
p7
ssS'output'
p8
(dp9
g4
(lp10
I53
aI42
aI1038
aI3
aI2548
aI41
aI89
aI9829
aI5966
aI14
aI3
aI47
aI7
aI211
aI78
aI45
aI302
aI3976
aI63765
asg6
S'"  where he defined the nation as a "daily referendum" (frequently translated \'daily plebiscite") dependent on the will of its people to continue living together"  .'
p11
ss.