(dp1
S'input'
p2
(dp3
S'encoded'
p4
(lp5
I64
aI2179
aI394
aI5842
aI3569
aI446
aI13498
asS'ori'
p6
S'This house would introduce year round schooling'
p7
ssS'output'
p8
(dp9
g4
(lp10
I24
aI421
aI273
aI463
aI316
aI4707
aI214
aI2686
aI24
aI10656
aI655
aI34
aI2041
aI63
aI19001
aI3
aI14774
aI7
aI3424
aI4196
aI256
aI63765
asg6
S'In addition  there could be ethical issues involved in selecting participants for research that evaluates the efficacy of summer reading programs .'
p11
ss.