(dp1
S'input'
p2
(dp3
S'encoded'
p4
(lp5
I64
aI2179
aI43
aI63
aI3
aI21
aI45
aI12715
aI417
aI99
aI316
aI2897
asS'ori'
p6
S'This house believes that the right to asylum should not be absolute'
p7
ssS'output'
p8
(dp9
g4
(lp10
I3
aI2610
aI3987
aI122
aI75
aI443
aI258
aI89
aI1839
aI134
aI440
aI311
aI380
aI1727
aI12
aI41827
aI5
aI12633
aI45
aI1546
aI63765
asg6
S'The Immigration Service was by no means a perfect organisation; it had at various times been hidebound and resistant to change .'
p11
ss.