(dp1
S'input'
p2
(dp3
S'encoded'
p4
(lp5
I64
aI2179
aI43
aI17
aI4941
aI857
aI3211
asS'ori'
p6
S'This house believes social deprivation causes crime'
p7
ssS'output'
p8
(dp9
g4
(lp10
I89
aI1387
aI291
aI6619
aI22237
aI5
aI271
aI3757
aI45
aI3266
aI258
aI7
aI12402
aI86
aI727
aI24
aI89
aI10514
aI7
aI3527
asg6
S'a gap between peoples aspirations and their access to legitimate means of achieving them results in a breakdown of values'
p11
ss.