(dp1
S'input'
p2
(dp3
S'encoded'
p4
(lp5
I64
aI2179
aI394
aI2017
aI223
aI9058
aI23653
asS'ori'
p6
S'This house would ban all unsustainable logging'
p7
ssS'output'
p8
(dp9
g4
(lp10
I3
aI912
aI10
aI7
aI3
aI3216
aI5
aI55
aI12
aI547
aI75
aI3
aI10
aI2176
aI7
aI18848
aI81
aI11
aI99
aI4544
aI351
aI8254
aI6801
aI189
aI24
aI2997
aI45
aI8814
aI7809
aI691
aI3
aI63765
asg6
S'The current state of the environment and has been allowed by the State Department of Forestry who have not implemented any forest management policies in efforts to curb deforestation since the 1970s  .'
p11
ss.