(dp1
S'input'
p2
(dp3
S'encoded'
p4
(lp5
I64
aI2179
aI43
aI63
aI1036
aI4828
aI33250
aI116
aI25073
aI45
aI3315
aI4562
asS'ori'
p6
S'This house believes that male infant circumcision is tantamount to child abuse'
p7
ssS'output'
p8
(dp9
g4
(lp10
I3
aI217
aI912
aI2041
aI98
aI99
aI96
aI3
aI1361
aI63
aI16445
aI33250
aI1254
aI4905
aI63765
asg6
S'The most current research does not support the belief that neonatal circumcision disrupts breastfeeding  .'
p11
ss.