(dp1
S'input'
p2
(dp3
S'encoded'
p4
(lp5
I64
aI2179
aI43
aI63
aI323
aI417
aI10009
aI211
aI9035
aI249
aI45
aI3426
aI211
aI2144
aI595
aI17
aI96
asS'ori'
p6
S'This house believes that Europe should weaken its austerity measures to guarantee its citizens greater social support'
p7
ssS'output'
p8
(dp9
g4
(lp10
I233
aI45
aI89
aI3228
aI878
aI905
aI19
aI3
aI1565
aI2130
aI1565
aI2609
aI2895
aI5
aI3
aI282
aI2896
aI4325
aI6095
aI88
aI1068
aI97
aI2155
aI19
aI45
aI63765
asg6
S'According to a leaked official report from the European Commission  European Central Bank and the International Monetary Fund  Greece may need another 50 billion ($66bn) from 2015 to 2020  .'
p11
ss.