(dp1
S'input'
p2
(dp3
S'encoded'
p4
(lp5
I64
aI2179
aI394
aI5284
aI150
aI3987
asS'ori'
p6
S'This house would reintroduce national service'
p7
ssS'output'
p8
(dp9
g4
(lp10
I273
aI122
aI165
aI5902
aI5
aI5903
aI5904
aI45
aI3
aI5262
aI5
aI3
aI667
aI2086
aI4996
aI5262
aI635
aI382
aI24
aI839
aI1849
aI45
aI3
aI5262
aI5
aI382
aI3
aI349
aI1047
aI4256
aI5904
aI493
aI3
aI5262
aI24
aI3
aI626
aI187
aI63765
asg6
S'There was much evasion and overt resistance to the draft  and the New York City draft riots were in direct response to the draft and were the earliest known mass resistance against the draft in the United States .'
p11
ss.