(dp1
S'input'
p2
(dp3
S'encoded'
p4
(lp5
I64
aI2179
aI394
aI117
aI7428
aI21151
aI34
aI11389
aI2042
aI24
aI4364
asS'ori'
p6
S'This house would only teach abstinence for sex education in schools'
p7
ssS'output'
p8
(dp9
g4
(lp10
I4741
aI133
aI3
aI320
aI8803
aI952
aI4309
aI45
aI3
aI2891
aI7
aI12375
aI73
aI4859
aI63
aI3018
aI9853
aI63765
asg6
S'Researchers believe "that the early sexual experience leads to the development of behaviors or beliefs that promote divorce .'
p11
ss.