(dp1
S'input'
p2
(dp3
S'encoded'
p4
(lp5
I64
aI2179
aI43
aI63
aI3
aI4990
aI4991
aI116
aI4850
aI24
aI12166
aI3
aI475
aI7
aI3532
aI3290
aI7
aI4714
asS'ori'
p6
S'This house believes that the Catholic Church is justified in forbidding the use of barrier methods of contraception'
p7
ssS'output'
p8
(dp9
g4
(lp10
I3
aI89
aI7877
aI7
aI7923
aI5
aI38882
aI46862
aI1964
aI45
aI3
aI822
aI7
aI3
aI45869
aI5
aI89
aI46863
aI221
aI19
aI46864
aI27008
aI63765
asg6
S'the cervix)  a mixture of honey and sodium carbonate applied to the inside of the vagina  and a pessary made from crocodile dung .'
p11
ss.