(dp1
S'input'
p2
(dp3
S'encoded'
p4
(lp5
I64
aI2179
aI13605
aI2258
aI45
aI2194
asS'ori'
p6
S'This house prefers trade to aid'
p7
ssS'output'
p8
(dp9
g4
(lp10
I89
aI1896
aI2045
aI500
aI99
aI9025
aI14
aI211
aI4634
aI7337
aI24
aI5
aI3646
aI500
aI3
aI102
aI1453
aI87
aI24
aI223
aI131
aI565
aI24
aI63765
asg6
S'A few examples: Iceland did not default on its sovereign debt in 2008  and nor did the UK do so in all but name in 1976 .'
p11
ss.