(dp1
S'input'
p2
(dp3
S'encoded'
p4
(lp5
I64
aI2179
aI394
aI5284
aI150
aI3987
asS'ori'
p6
S'This house would reintroduce national service'
p7
ssS'output'
p8
(dp9
g4
(lp10
I14
aI2145
aI63765
aI4758
aI10179
aI2682
aI63765
asg6
S'On U .S . college campuses  C .A .N .'
p11
ss.