(dp1
S'input'
p2
(dp3
S'encoded'
p4
(lp5
I64
aI2179
aI394
aI117
aI7428
aI21151
aI34
aI11389
aI2042
aI24
aI4364
asS'ori'
p6
S'This house would only teach abstinence for sex education in schools'
p7
ssS'output'
p8
(dp9
g4
(lp10
I3
aI22909
aI7
aI8803
aI5
aI6268
aI116
aI4082
aI24
aI8189
aI21366
aI41
aI344
aI24
aI23775
aI50974
aI5
aI16890
aI21366
aI24
aI8189
aI26367
aI5
aI34
aI6396
aI24
aI3
aI50975
aI5
aI50976
aI5669
aI26367
aI53
aI5806
aI7
aI11003
aI206
aI11389
aI24
aI22907
aI1589
aI5
aI60
aI3
aI6427
aI182
aI34515
aI24
aI3791
aI63765
asg6
S'The blending of sexual and spiritual is portrayed in Hindu iconography  as seen in ubiquitous phallic and vaginal iconography in Hindu temples and for instance in the Kharjuraho and Konarak medieval temples  where thousands of couples having sex in endless positions  and with the gods  are carved in deep bas-relief .'
p11
ss.