(dp1
S'input'
p2
(dp3
S'encoded'
p4
(lp5
I64
aI2179
aI394
aI16756
aI20435
asS'ori'
p6
S'This house would criminalize blasphemy'
p7
ssS'output'
p8
(dp9
g4
(lp10
I691
aI9691
aI941
aI2382
aI98
aI99
aI11
aI3
aI3445
aI7
aI159
aI2511
aI182
aI3132
aI24
aI3309
aI63765
asg6
S"Since Hinduism  India's dominant religion does not have the concept of blasphemy; such laws are absent in tradition ."
p11
ss.