(dp1
S'input'
p2
(dp3
S'encoded'
p4
(lp5
I64
aI2179
aI394
aI190
aI3
aI21
aI45
aI3895
aI834
asS'ori'
p6
S'This house would limit the right to bear arms'
p7
ssS'output'
p8
(dp9
g4
(lp10
I51
aI6564
aI3968
aI291
aI64
aI21
aI5
aI3
aI1950
aI3264
aI122
aI1657
aI75
aI35544
aI49020
aI81
aI9436
aI63
aI89
aI7
aI116
aI3537
aI75
aI15
aI3
aI21
aI45
aI3516
aI75
aI7042
aI5
aI3
aI1950
aI3264
aI63765
asg6
S'An express connection between this right and the Second Amendment was drawn by Lysander Spooner who commented that a "right of resistance" is protected by both the right to trial by jury and the Second Amendment  .'
p11
ss.