(dp1
S'input'
p2
(dp3
S'encoded'
p4
(lp5
I64
aI2179
aI43
aI17
aI4941
aI857
aI3211
asS'ori'
p6
S'This house believes social deprivation causes crime'
p7
ssS'output'
p8
(dp9
g4
(lp10
I30221
aI3136
aI1068
aI45
aI11224
aI3
aI60551
aI1968
aI5304
aI63765
asg6
S'OC groups need to hide the moneys illegal origin .'
p11
ss.