(dp1
S'input'
p2
(dp3
S'encoded'
p4
(lp5
I64
aI2179
aI394
aI15841
aI2736
asS'ori'
p6
S'This house would disband ASEAN'
p7
ssS'output'
p8
(dp9
g4
(lp10
I3
aI2789
aI7
aI3
aI2712
aI182
aI223
aI2789
aI7
aI2736
aI8945
aI2390
aI2371
aI2318
aI2047
aI2450
aI1005
aI5
aI667
aI6113
aI63765
asg6
S'The members of the summit are all 10 members of ASEAN plus China  Japan  South Korea  India  Australia and New Zealand .'
p11
ss.