(dp1
S'input'
p2
(dp3
S'encoded'
p4
(lp5
I64
aI2179
aI43
aI24
aI3
aI475
aI7
aI12436
aI3364
asS'ori'
p6
S'This house believes in the use of affirmative action'
p7
ssS'output'
p8
(dp9
g4
(lp10
I42
aI73
aI3313
aI1640
aI1227
aI45
aI316
aI794
aI3150
aI138
aI80
aI34
aI100
aI3471
aI1025
aI63765
asg6
S'He or she just needs to be treated worse than others for some arbitrary reason .'
p11
ss.