(dp1
S'input'
p2
(dp3
S'encoded'
p4
(lp5
I64
aI2179
aI394
aI163
aI959
aI2042
aI3557
asS'ori'
p6
S'This house would make physical education compulsory'
p7
ssS'output'
p8
(dp9
g4
(lp10
I3073
aI19
aI3
aI39432
aI3342
aI2035
aI3017
aI63
aI78
aI139
aI3204
aI271
aI3217
aI2089
aI5982
asg6
S'data from the Alameda County Study suggested that people can improve their health via exercise'
p11
ss.