(dp1
S'input'
p2
(dp3
S'encoded'
p4
(lp5
I64
aI2179
aI43
aI63
aI1036
aI4828
aI33250
aI116
aI25073
aI45
aI3315
aI4562
asS'ori'
p6
S'This house believes that male infant circumcision is tantamount to child abuse'
p7
ssS'output'
p8
(dp9
g4
(lp10
I24
aI63
aI3569
aI1132
aI34898
aI89
aI2759
aI667
aI2086
aI34899
aI12369
aI5
aI7655
aI2164
aI7
aI3
aI2453
aI4316
aI1560
aI2015
aI2016
aI3072
aI89
aI10722
aI81
aI122
aI121
aI45
aI11002
aI25
aI1520
aI5
aI564
aI3016
aI440
aI87
aI938
aI26310
aI4902
aI63765
asg6
S'In that year  Lewis Sayre  a prominent New York orthopedic surgeon and vice president of the newly formed American Medical Association  examined a five-year-old boy who was unable to straighten his legs  and whose condition had so far defied treatment .'
p11
ss.