(dp1
S'input'
p2
(dp3
S'encoded'
p4
(lp5
I64
aI2179
aI43
aI63
aI188
aI220
aI417
aI1619
aI4275
aI45
aI713
aI14799
aI7533
aI311
aI3
aI3721
aI5145
asS'ori'
p6
S'This house believes that democratic governments should require voters to present photo identification at the polling station'
p7
ssS'output'
p8
(dp9
g4
(lp10
I5044
aI86
aI116
aI89
aI2583
aI29037
aI298
aI18130
aI493
aI3
aI7454
aI7
aI6604
aI4275
aI8977
aI5276
asg6
S'presenting them is a minor inconvenience when weighed against the possibility of ineligible voters affecting elections'
p11
ss.