(dp1
S'input'
p2
(dp3
S'encoded'
p4
(lp5
I64
aI2179
aI394
aI2017
aI262
asS'ori'
p6
S'This house would ban boxing'
p7
ssS'output'
p8
(dp9
g4
(lp10
I2809
aI262
aI174
aI9991
aI89
aI150
aI13151
aI45
aI1358
aI81
aI47
aI12304
aI14
aI3
aI626
aI187
aI150
aI262
aI11276
aI311
aI3
aI277
aI283
aI63765
asg6
S'USA Boxing also sanctions a national tournament to determine who will compete on the United States National boxing team at the Olympic Games .'
p11
ss.