(dp1
S'input'
p2
(dp3
S'encoded'
p4
(lp5
I64
aI2179
aI394
aI5370
aI7146
aI4585
aI2446
asS'ori'
p6
S'This house would abolish intellectual property rights'
p7
ssS'output'
p8
(dp9
g4
(lp10
I16726
aI32502
aI3172
aI34
aI1443
aI34989
aI4877
aI13485
aI12717
aI1809
aI5
aI493
aI3
aI1068
aI34
aI351
aI260
aI2210
aI24
aI1771
aI7146
aI4585
aI63765
asg6
S'Murray Rothbard argues for allowing contractually arising infinite copyright terms and against the need for any government role in protecting intellectual property  .'
p11
ss.