(dp1
S'input'
p2
(dp3
S'encoded'
p4
(lp5
I64
aI2179
aI43
aI63
aI134
aI116
aI400
aI21
aI34
aI3
aI260
aI45
aI3439
aI57
aI7
aI2381
asS'ori'
p6
S'This house believes that it is sometimes right for the government to restrict freedom of speech'
p7
ssS'output'
p8
(dp9
g4
(lp10
I11958
aI19
aI3
aI8895
aI16523
aI7
aI7230
aI3657
aI5
aI2617
aI100
aI4037
aI182
aI11664
aI1021
aI45
aI5373
aI10250
aI2270
aI73
aI22
aI11647
aI24
aI128
aI45
aI1292
aI2812
aI12432
aI2812
aI1305
aI653
aI211
aI1420
aI73
aI8214
aI2755
aI63765
asg6
S'Aside from the usual justifications of pornography  language and violence  some films are censored due to changing racial attitudes or political correctness in order to avoid ethnic stereotyping and/or ethnic offense despite its historical or artistic value .'
p11
ss.