(dp1
S'input'
p2
(dp3
S'encoded'
p4
(lp5
I64
aI2179
aI13605
aI2258
aI45
aI2194
asS'ori'
p6
S'This house prefers trade to aid'
p7
ssS'output'
p8
(dp9
g4
(lp10
I64
aI7177
aI99
aI117
aI45
aI3
aI7533
aI7
aI251
aI131
aI45
aI3
aI650
aI5200
aI7
aI2352
aI45
aI3
aI2506
aI24
aI1068
aI63765
asg6
S'This applies not only to the identification of problems  but to the actual distribution of capital to the areas in need .'
p11
ss.