(dp1
S'input'
p2
(dp3
S'encoded'
p4
(lp5
I64
aI2179
aI394
aI1499
aI177
aI1819
aI34
aI160
asS'ori'
p6
S'This house would build high rises for housing'
p7
ssS'output'
p8
(dp9
g4
(lp10
I3
aI580
aI7
aI64
aI1380
aI7
aI160
aI1298
aI270
aI136
aI1413
aI92
aI463
aI2507
aI316
aI416
aI34
aI6678
aI73
aI41
aI35
aI5166
aI63765
asg6
S'The low-density nature of this type of housing requires using more land which could otherwise be used for agriculture or as natural habitat .'
p11
ss.