(dp1
S'input'
p2
(dp3
S'encoded'
p4
(lp5
I64
aI2179
aI394
aI163
aI959
aI2042
aI3557
asS'ori'
p6
S'This house would make physical education compulsory'
p7
ssS'output'
p8
(dp9
g4
(lp10
I3
aI22
aI3905
aI7
aI89
aI26103
aI2328
aI5
aI211
aI2825
aI155
aI186
aI394
aI9619
aI136
aI46285
aI274
aI7
aI1609
aI4259
aI8641
aI3391
aI92
aI394
aI316
aI1803
aI545
aI89
aI3278
aI7
aI3447
aI545
aI92
aI46286
aI116
aI59
aI75
aI35212
aI1515
aI5
aI9300
aI14134
aI75
aI3
aI16692
aI5
aI3670
aI7
aI2144
aI63765
asg6
S'The political culture of a deliberative democracy and its institutions  they argue  would facilitate more dialogical forms of making ones voice heard which would be achieved within a framework of liberty  within which paternalism is replaced by autonomously adopted self-paternalism  and technocratic elitism by the competent and self-conscious judgment of citizens .'
p11
ss.