(dp1
S'input'
p2
(dp3
S'encoded'
p4
(lp5
I64
aI2179
aI394
aI2017
aI223
aI9058
aI23653
asS'ori'
p6
S'This house would ban all unsustainable logging'
p7
ssS'output'
p8
(dp9
g4
(lp10
I134
aI116
aI99
aI183
aI481
aI45
aI7968
aI64
aI11681
aI2229
aI257
aI357
aI2784
aI2056
aI63765
asg6
S'It is not too late to reverse this destructive trend if we act now .'
p11
ss.