(dp1
S'input'
p2
(dp3
S'encoded'
p4
(lp5
I64
aI2179
aI394
aI2017
aI628
asS'ori'
p6
S'This house would ban gambling'
p7
ssS'output'
p8
(dp9
g4
(lp10
I41
aI871
aI75
aI3
aI2179
aI14
aI88
aI5
aI3
aI626
aI187
aI2211
aI14
aI2555
aI8861
aI443
aI8471
aI7
aI3
aI4563
aI7147
aI628
aI5
aI3353
aI2784
aI63
aI122
aI2100
aI24
aI3
aI3456
aI11571
aI2784
aI2340
aI736
aI70
aI75
aI1206
aI2839
aI63765
aI2813
aI14
aI2871
aI63765
asg6
S'4954) as passed by the House on May 4 and the United States Senate on September 14  bore no traces of the Unlawful Internet Gambling and Enforcement Act that was included in the SAFE Port Act signed into law by George W . Bush on October 13  2006  .'
p11
ss.