(dp1
S'input'
p2
(dp3
S'encoded'
p4
(lp5
I64
aI2179
aI43
aI223
aI2138
aI11
aI89
aI21
aI45
aI2185
aI372
asS'ori'
p6
S'This house believes all nations have a right to nuclear weapons'
p7
ssS'output'
p8
(dp9
g4
(lp10
I2046
aI55
aI99
aI221
aI351
aI2804
aI7
aI89
aI372
aI13278
aI459
aI3
aI2268
aI63765
asg6
S'Iran has not made any declaration of a weapons stockpile under the treaty  .'
p11
ss.