(dp1
S'input'
p2
(dp3
S'encoded'
p4
(lp5
I64
aI2179
aI43
aI24
aI3
aI475
aI7
aI12436
aI3364
asS'ori'
p6
S'This house believes in the use of affirmative action'
p7
ssS'output'
p8
(dp9
g4
(lp10
I24
aI3
aI2625
aI60
aI12493
aI2784
aI472
aI4933
aI493
aI4829
aI4224
aI158
aI3052
aI7
aI5125
aI511
aI63765
asg6
S'In 1990  the Americans with Disabilities Act prohibited discrimination against disabled persons  including cases of equal opportunity  .'
p11
ss.