(dp1
S'input'
p2
(dp3
S'encoded'
p4
(lp5
I64
aI2179
aI43
aI24
aI3
aI475
aI7
aI12436
aI3364
asS'ori'
p6
S'This house believes in the use of affirmative action'
p7
ssS'output'
p8
(dp9
g4
(lp10
I24
aI3
aI7365
aI3386
aI5025
aI5742
aI24
aI3
aI3202
aI2223
aI382
aI153
aI26527
aI5
aI4015
aI12418
aI382
aI153
aI416
aI7447
aI63765
asg6
S'In the Sudan  black African captives in the civil war were often enslaved  and female prisoners were often used sexually  .'
p11
ss.