(dp1
S'input'
p2
(dp3
S'encoded'
p4
(lp5
I64
aI2179
aI394
aI117
aI7428
aI21151
aI34
aI11389
aI2042
aI24
aI4364
asS'ori'
p6
S'This house would only teach abstinence for sex education in schools'
p7
ssS'output'
p8
(dp9
g4
(lp10
I116
aI28220
aI298
aI134
aI3610
aI45
aI8684
aI45
aI1782
aI3385
aI11389
aI7
aI7447
aI2758
aI8578
aI271
aI2577
aI1301
aI14555
aI3385
aI11389
aI14
aI86
aI226
aI117
aI7
aI5716
aI3943
aI271
aI2577
aI1301
aI98
aI63765
asg6
S'"There is discrepancy when it comes to willingness to perform oral sex [with] 22% of sexually active girls say[ing] their partner never performs oral sex on them  while only 5% of boys say their partner never does .'
p11
ss.