(dp1
S'input'
p2
(dp3
S'encoded'
p4
(lp5
I64
aI2179
aI43
aI63
aI3
aI4990
aI4991
aI116
aI4850
aI24
aI12166
aI3
aI475
aI7
aI3532
aI3290
aI7
aI4714
asS'ori'
p6
S'This house believes that the Catholic Church is justified in forbidding the use of barrier methods of contraception'
p7
ssS'output'
p8
(dp9
g4
(lp10
I114
aI24
aI3
aI314
aI708
aI5
aI2598
aI708
aI8281
aI24
aI9381
aI2446
aI45
aI4714
aI5
aI3257
aI60
aI51
aI1879
aI605
aI14
aI63765
asg6
S'Though in the 1980s birth control and population control organisations co-operated in demanding rights to contraception and abortion  with an increasing emphasis on "choice .'
p11
ss.