(dp1
S'input'
p2
(dp3
S'encoded'
p4
(lp5
I64
aI2179
aI394
aI15841
aI2736
asS'ori'
p6
S'This house would disband ASEAN'
p7
ssS'output'
p8
(dp9
g4
(lp10
I24
aI89
aI5241
aI14
aI3
aI5767
aI7
aI2739
aI3570
aI3
aI12238
aI14911
aI2164
aI2019
aI63765
aI28639
aI28640
aI28641
aI63765
asg6
S'In a lecture on the occasion of ASEANs 38th anniversary  the incumbent Indonesian President Dr . Susilo Bambang Yudhoyono admitted:  .'
p11
ss.