(dp1
S'input'
p2
(dp3
S'encoded'
p4
(lp5
I64
aI2179
aI394
aI2017
aI3807
aI314
aI3433
asS'ori'
p6
S'This house would ban partial birth abortions'
p7
ssS'output'
p8
(dp9
g4
(lp10
I2985
aI7
aI64
aI1597
aI186
aI63
aI4838
aI4839
aI1718
aI116
aI99
aI89
aI4840
aI2259
aI34
aI3236
aI34
aI3
aI21
aI45
aI5
aI63
aI4841
aI89
aI21
aI45
aI3269
aI14
aI35
aI4836
aI394
aI48
aI45
aI3
aI4842
aI1597
aI63
aI4843
aI4822
aI4844
aI4820
aI4821
aI5
aI4821
aI1537
aI3826
aI14
aI89
aI2015
aI4845
aI182
aI223
aI4224
aI60
aI89
aI21
aI45
aI3269
aI63765
asg6
S'Critics of this position argue that mere genetic potential is not a plausible basis for respect (or for the right to life)  and that basing a right to life on natural capacities would lead to the counterintuitive position that anencephalic infants  irreversibly comatose patients  and brain-dead patients kept alive on a medical ventilator  are all persons with a right to life  .'
p11
ss.