(dp1
S'input'
p2
(dp3
S'encoded'
p4
(lp5
I64
aI2179
aI394
aI5370
aI3
aI5286
asS'ori'
p6
S'This house would abolish the monarchy'
p7
ssS'output'
p8
(dp9
g4
(lp10
I114
aI15515
aI16229
aI3
aI220
aI7
aI667
aI6113
aI27765
aI5
aI3
aI10199
aI6635
aI3
aI5305
aI116
aI508
aI736
aI292
aI976
aI778
aI63765
asg6
S'Though singular  linking the governments of New Zealand  Niue  and the Cook Islands  the Crown is thus "divided" into three legal jurisdictions .'
p11
ss.