(dp1
S'input'
p2
(dp3
S'encoded'
p4
(lp5
I64
aI2179
aI394
aI9385
aI2497
aI447
aI14
aI3
aI3578
aI5721
aI7
aI260
asS'ori'
p6
S'This house would enforce term limits on the legislative branch of government'
p7
ssS'output'
p8
(dp9
g4
(lp10
I42
aI116
aI174
aI89
aI5606
aI7
aI3
aI13519
aI927
aI63765
asg6
S'He is also a director of the Cato Institute  .'
p11
ss.