(dp1
S'input'
p2
(dp3
S'encoded'
p4
(lp5
I64
aI2179
aI394
aI2017
aI262
asS'ori'
p6
S'This house would ban boxing'
p7
ssS'output'
p8
(dp9
g4
(lp10
I41241
aI24936
aI182
aI2428
aI45
aI296
aI19
aI1788
aI852
aI73
aI4512
aI7
aI4502
aI6424
aI5
aI182
aI99
aI566
aI843
aI60
aI19661
aI73
aI60
aI136
aI2034
aI8875
aI960
aI63765
asg6
S'Concussive convulsions are thought to result from temporary loss or inhibition of motor function  and are not associated either with epilepsy or with more serious structural damage .'
p11
ss.