(dp1
S'input'
p2
(dp3
S'encoded'
p4
(lp5
I64
aI2179
aI43
aI63
aI3
aI28431
aI7
aI2157
aI4624
aI75
aI39939
aI27257
aI122
aI4850
asS'ori'
p6
S'This house believes that the leaking of military documents by Anat Kamm was justified'
p7
ssS'output'
p8
(dp9
g4
(lp10
I89
aI4317
aI7
aI863
aI2142
aI4669
aI18036
aI20391
aI8893
aI5
aI2018
aI7
aI3
aI2201
aI2127
aI15359
aI271
aI5046
aI34
aI3
aI934
aI7
aI4224
aI2840
aI24
aI3
aI480
aI4624
aI63765
asg6
S'A coalition of five human-rights organizations addressed Julian Assange  founder and editor of the Wikileaks website  expressing their concerns for the safety of persons identified in the published documents .'
p11
ss.