(dp1
S'input'
p2
(dp3
S'encoded'
p4
(lp5
I64
aI2179
aI43
aI3
aI626
aI187
aI116
aI1989
aI34
aI3102
aI2223
asS'ori'
p6
S"This house believes the United States is responsible for Mexico's drugs war"
p7
ssS'output'
p8
(dp9
g4
(lp10
I89
aI2035
aI75
aI14131
aI8928
aI3679
aI89
aI63765
aI23447
aI55
aI2845
aI63
aI15847
aI3102
aI394
aI20675
aI2155
aI89
aI3569
aI736
aI3
aI2145
aI63765
aI52
aI2155
aI19
aI70
aI3353
aI8907
aI5
aI311
aI870
aI2155
aI24
aI4262
aI7619
aI2155
aI19
aI8685
aI2155
aI19
aI3103
aI5
aI3104
aI7484
aI19
aI248
aI63765
asg6
S'A 2008 study by Harvard economist Jeffrey A . Miron has estimated that legalizing drugs would inject $76 .8 billion a year into the U .S . economy  $44 .1 billion from law enforcement savings  and at least $32 .7 billion in tax revenue ($6 .7 billion from marijuana  $22 .5 billion from cocaine and heroin  remainder from other drugs)  .'
p11
ss.