(dp1
S'input'
p2
(dp3
S'encoded'
p4
(lp5
I64
aI2179
aI43
aI63
aI2659
aI417
aI1690
aI3
aI12048
aI7
aI19084
asS'ori'
p6
S'This house believes that Israel should lift the blockade of Gaza'
p7
ssS'output'
p8
(dp9
g4
(lp10
I311
aI93
aI312
aI7
aI3
aI23
aI132
aI219
aI96
aI44
aI45
aI27102
aI21
aI45
aI4532
aI63765
asg6
S"At one end of the spectrum  these criticisms support attempts to delegitimize Israel's right to exist ."
p11
ss.