(dp1
S'input'
p2
(dp3
S'encoded'
p4
(lp5
I64
aI2179
aI43
aI63
aI3376
aI4938
aI417
aI316
aI3537
asS'ori'
p6
S'This house believes that endangered species should be protected'
p7
ssS'output'
p8
(dp9
g4
(lp10
I5643
aI5269
aI45
aI6789
aI271
aI6685
aI6987
aI63765
asg6
S'Enable communities to minimise their ecological footprint .'
p11
ss.