(dp1
S'input'
p2
(dp3
S'encoded'
p4
(lp5
I64
aI2179
aI394
aI2998
aI3
aI4360
aI7
aI3249
aI6804
aI24
aI3
aI102
asS'ori'
p6
S'This house would encourage the creation of private universities in the UK'
p7
ssS'output'
p8
(dp9
g4
(lp10
I7239
aI14111
aI63
aI3
aI14112
aI440
aI12
aI5616
aI19
aI3
aI4750
aI7
aI2127
aI5
aI440
aI1032
aI12
aI14113
aI63765
asg6
S"Academics complained that the syllabuses had been copied from the University of London's website  and had simply been repackaged  ."
p11
ss.