(dp1
S'input'
p2
(dp3
S'encoded'
p4
(lp5
I64
aI2179
aI43
aI63
aI2659
aI417
aI1690
aI3
aI12048
aI7
aI19084
asS'ori'
p6
S'This house believes that Israel should lift the blockade of Gaza'
p7
ssS'output'
p8
(dp9
g4
(lp10
I3
aI3099
aI4674
aI2273
aI3099
aI7145
aI24844
aI73
aI3099
aI20861
aI6774
aI122
aI51
aI1222
aI45
aI591
aI3
aI1260
aI19084
aI3355
aI1222
aI45
aI1746
aI3
aI2348
aI12048
aI2052
aI75
aI2659
aI14
aI3
aI19084
aI966
aI63765
asg6
S"The operation  code named Operation Sea Breeze or Operation Sky Winds was an attempt to block the Free Gaza Movement's ninth attempt to break the naval blockade imposed by Israel on the Gaza Strip  ."
p11
ss.