(dp1
S'input'
p2
(dp3
S'encoded'
p4
(lp5
I64
aI2179
aI43
aI63
aI3
aI4990
aI4991
aI116
aI4850
aI24
aI12166
aI3
aI475
aI7
aI3532
aI3290
aI7
aI4714
asS'ori'
p6
S'This house believes that the Catholic Church is justified in forbidding the use of barrier methods of contraception'
p7
ssS'output'
p8
(dp9
g4
(lp10
I3
aI4772
aI5523
aI89
aI3409
aI2496
aI7
aI3
aI2388
aI21256
aI11558
aI2804
aI14
aI77
aI3369
aI2286
aI8803
aI4706
aI92
aI440
aI2425
aI45
aI89
aI8526
aI3
aI10964
aI3016
aI63765
asg6
S'The letter condemned a liberal interpretation of the earlier CDF document Declaration on Certain Questions Concerning Sexual Ethics  which had led to a "benign" attitude "to the homosexual condition itself" .'
p11
ss.