(dp1
S'input'
p2
(dp3
S'encoded'
p4
(lp5
I64
aI2179
aI394
aI4325
aI2042
aI270
aI89
aI11605
aI3324
asS'ori'
p6
S'This house would fund education using a voucher scheme'
p7
ssS'output'
p8
(dp9
g4
(lp10
I24
aI2871
aI12189
aI742
aI63
aI42
aI5810
aI3
aI809
aI2164
aI2029
aI2172
aI5
aI25
aI4445
aI382
aI45
aI8472
aI34
aI3
aI874
aI372
aI7
aI4256
aI2945
aI63765
asg6
S'|-valign="top" In October 2006  McCain said that he believed the former President Bill Clinton and his administration were to blame for the North Korea\'s weapons of mass destruction .'
p11
ss.