(dp1
S'input'
p2
(dp3
S'encoded'
p4
(lp5
I64
aI2179
aI43
aI24
aI3
aI475
aI7
aI12436
aI3364
asS'ori'
p6
S'This house believes in the use of affirmative action'
p7
ssS'output'
p8
(dp9
g4
(lp10
I12228
aI742
aI3
aI2029
aI382
aI45
aI6183
aI134
aI134
aI394
aI316
aI89
aI2521
aI3
aI604
aI134
aI394
aI316
aI13516
aI3
aI829
aI14
aI3
aI2259
aI7
aI4226
aI5
aI357
aI394
aI316
aI12268
aI3862
aI604
aI7
aI4226
aI63765
asg6
S'Humphrey said "if the bill were to compel it  it would be a violation [of the Constitution]  because it would be handling the matter on the basis of race and we would be transporting children because of race .'
p11
ss.