(dp1
S'input'
p2
(dp3
S'encoded'
p4
(lp5
I64
aI2179
aI43
aI8629
aI116
aI3
aI117
aI998
asS'ori'
p6
S'This house believes atheism is the only way'
p7
ssS'output'
p8
(dp9
g4
(lp10
I100
aI7
aI3
aI13398
aI5
aI4573
aI2686
aI24
aI2166
aI8629
aI7436
aI19
aI1165
aI24
aI7950
aI89
aI886
aI34
aI3
aI12197
aI7
aI4199
aI675
aI6527
aI5
aI5480
aI63765
asg6
S'Some of the ambiguity and controversy involved in defining atheism arises from difficulty in reaching a consensus for the definitions of words like deity and god .'
p11
ss.