(dp1
S'input'
p2
(dp3
S'encoded'
p4
(lp5
I64
aI2179
aI43
aI63
aI1036
aI4828
aI33250
aI116
aI25073
aI45
aI3315
aI4562
asS'ori'
p6
S'This house believes that male infant circumcision is tantamount to child abuse'
p7
ssS'output'
p8
(dp9
g4
(lp10
I155
aI174
aI10
aI63
aI3
aI3099
aI116
aI45
aI316
aI3589
aI3
aI2015
aI29187
aI417
aI975
aI64
aI116
aI3818
aI75
aI89
aI16692
aI12369
aI270
aI4620
aI39825
aI5
aI24
aI89
aI3456
aI3216
asg6
S'They also state that "if the operation is to be performed  the medical attendant should ensure this is done by a competent surgeon  using appropriate anaesthesia and in a safe child-friendly environment ."'
p11
ss.