(dp1
S'input'
p2
(dp3
S'encoded'
p4
(lp5
I64
aI2179
aI394
aI16642
aI1376
aI5269
asS'ori'
p6
S'This house would subsidize poor communities'
p7
ssS'output'
p8
(dp9
g4
(lp10
I256
aI60
aI177
aI127
aI47
aI11
aI89
aI2597
aI918
aI14
aI2936
aI3941
aI131
aI47
aI11
aI89
aI166
aI8818
aI4912
aI1619
aI1796
aI4537
aI5
aI8069
aI5
aI88
aI11962
aI23113
aI63765
asg6
S'Programs with high benefits will have a larger impact on recipient households  but will have a higher fiscal burden  require better design and targeting  and may induce disincentives .'
p11
ss.