(dp1
S'input'
p2
(dp3
S'encoded'
p4
(lp5
I64
aI2179
aI43
aI17
aI4941
aI857
aI3211
asS'ori'
p6
S'This house believes social deprivation causes crime'
p7
ssS'output'
p8
(dp9
g4
(lp10
I89
aI709
aI7928
aI139
aI949
aI397
aI8544
aI5
aI768
aI9644
aI2126
aI397
aI5030
aI63765
asg6
S'A conduct disorder can develop during childhood and then manifest itself during adolescence .'
p11
ss.