(dp1
S'input'
p2
(dp3
S'encoded'
p4
(lp5
I64
aI2179
aI43
aI63
aI1036
aI4828
aI33250
aI116
aI25073
aI45
aI3315
aI4562
asS'ori'
p6
S'This house believes that male infant circumcision is tantamount to child abuse'
p7
ssS'output'
p8
(dp9
g4
(lp10
I3
aI12716
aI2173
aI63
aI271
aI7090
aI382
aI3879
aI60
aI89
aI3130
aI179
aI7
aI2322
aI2038
aI7
aI11271
aI11272
aI7446
aI24
aI33239
aI5615
aI1980
aI63765
asg6
S'The authors stated that their findings were "in accordance with a previous finding of increased risk of urinary tract infection in uncircumcised young men .'
p11
ss.