(dp1
S'input'
p2
(dp3
S'encoded'
p4
(lp5
I64
aI2179
aI43
aI63
aI2659
aI417
aI1690
aI3
aI12048
aI7
aI19084
asS'ori'
p6
S'This house believes that Israel should lift the blockade of Gaza'
p7
ssS'output'
p8
(dp9
g4
(lp10
I3
aI831
aI1688
aI1224
aI22
aI1347
aI75
aI3
aI8446
aI2178
aI14
aI2789
aI7
aI4679
aI22
aI4615
aI5
aI2142
aI92
aI24
aI4031
aI9451
aI197
aI6228
aI5
aI5462
aI63765
asg6
S'The move followed intense political pressure by the Jewish community on members of Parliament  political parties  and organizations  which in turn pressured insurance companies and authorities  .'
p11
ss.