(dp1
S'input'
p2
(dp3
S'encoded'
p4
(lp5
I64
aI2179
aI43
aI63
aI2659
aI417
aI1690
aI3
aI12048
aI7
aI19084
asS'ori'
p6
S'This house believes that Israel should lift the blockade of Gaza'
p7
ssS'output'
p8
(dp9
g4
(lp10
I18564
aI27188
aI43
aI63
aI725
aI1687
aI14
aI8446
aI2985
aI7
aI2659
aI182
aI2827
aI27216
aI5
aI5
aI4453
aI63
aI5
aI11
aI12
aI1038
aI183
aI5073
aI5
aI252
aI1025
aI63765
asg6
S'Antony Lerman believes that many attacks on Jewish critics of Israel are "vitriolic  ad hominem and indiscriminate" and claims that anti-Zionism and anti-Semitism have been defined too broadly and without reason  .'
p11
ss.