(dp1
S'input'
p2
(dp3
S'encoded'
p4
(lp5
I64
aI2179
aI394
aI2017
aI223
aI9058
aI23653
asS'ori'
p6
S'This house would ban all unsustainable logging'
p7
ssS'output'
p8
(dp9
g4
(lp10
I3406
aI3
aI6678
aI7935
aI2156
aI34
aI7
aI3
aI203
aI972
aI136
aI138
aI24
aI4224
aI63765
asg6
S'Additionally  the agriculture sector accounts for 14 .5% of the labor force - more than 1 in 7 persons  .'
p11
ss.