(dp1
S'input'
p2
(dp3
S'encoded'
p4
(lp5
I64
aI2179
aI235
aI3
aI2136
aI7
aI3
aI2306
aI7
aI2390
asS'ori'
p6
S'This house supports the one-child policy of the republic of China'
p7
ssS'output'
p8
(dp9
g4
(lp10
I24087
aI6960
aI2654
aI63765
asg6
S'|- Tibet Autonomous Region 1 273 969 0 .22 1 251 225 0 .18 1 892 393 0 .19 2 196 010 0 .19 2 620 000 0 .21 3 002 166 0 .22 .'
p11
ss.