(dp1
S'input'
p2
(dp3
S'encoded'
p4
(lp5
I64
aI2179
aI43
aI63
aI3
aI4990
aI4991
aI116
aI4850
aI24
aI12166
aI3
aI475
aI7
aI3532
aI3290
aI7
aI4714
asS'ori'
p6
S'This house believes that the Catholic Church is justified in forbidding the use of barrier methods of contraception'
p7
ssS'output'
p8
(dp9
g4
(lp10
I24
aI368
aI2138
aI675
aI875
aI4990
aI3495
aI634
aI45
aI316
aI4258
aI2686
aI24
aI2506
aI675
aI3217
aI5
aI2042
aI131
aI89
aI2838
aI7
aI2767
aI987
aI1598
aI3
aI11448
aI910
aI8803
aI2232
aI2812
aI18438
aI5
aI3
aI1950
aI6253
aI14625
aI5560
aI7
aI3
aI4991
aI45
aI9311
aI5277
aI63765
asg6
S"In Western nations like America  Catholic women continued to be heavily involved in areas like health and education  but a decline of religious orders accompanied the 20th century's womens movement  sexual revolution  ethnic assimilation and the Second Vatican Councils opening of the church to lay leadership  ."
p11
ss.