(dp1
S'input'
p2
(dp3
S'encoded'
p4
(lp5
I64
aI2179
aI394
aI1499
aI177
aI1819
aI34
aI160
asS'ori'
p6
S'This house would build high rises for housing'
p7
ssS'output'
p8
(dp9
g4
(lp10
I2519
aI24
aI3
aI220
aI297
aI78
aI1068
aI5
aI2383
aI45
aI3281
aI24
aI64
aI2352
aI4996
aI2126
aI5
aI3
aI36014
aI122
aI2493
aI63765
asg6
S'Afterwards  in the 1980s  governments decided people need and want to live in this capital city itself and the groeikernenbeleid was rejected .'
p11
ss.