(dp1
S'input'
p2
(dp3
S'encoded'
p4
(lp5
I64
aI2179
aI43
aI63
aI1036
aI4828
aI33250
aI116
aI25073
aI45
aI3315
aI4562
asS'ori'
p6
S'This house believes that male infant circumcision is tantamount to child abuse'
p7
ssS'output'
p8
(dp9
g4
(lp10
I39824
aI353
aI7
aI2039
aI7840
aI45
aI89
aI4370
aI81
aI34796
aI416
aI39825
aI217
aI1480
aI89
aI37728
aI33262
aI13669
aI591
aI34
aI4828
aI34822
aI63765
asg6
S'Stang  1998  found 45% of physicians responding to a survey who circumcise used anaesthesia  most commonly a dorsal penile nerve block  for infant circumcisions .'
p11
ss.