(dp1
S'input'
p2
(dp3
S'encoded'
p4
(lp5
I64
aI2179
aI43
aI63
aI11083
aI10046
aI417
aI316
aI89
aI3135
aI4603
asS'ori'
p6
S'This house believes that Holocaust denial should be a criminal offence'
p7
ssS'output'
p8
(dp9
g4
(lp10
I3
aI6832
aI7
aI3888
aI117
aI45
aI8446
aI4091
aI5
aI116
aI2597
aI298
aI765
aI3
aI248
aI2812
aI2767
aI5
aI3716
aI3136
aI9274
aI34
aI116
aI153
aI15519
aI75
aI4453
aI45
aI89
aI6832
aI7
aI117
aI93
aI2639
aI457
aI73
aI117
aI292
aI2665
aI5864
aI457
aI63765
asg6
S'The figure of "six million" (which refers only to Jewish victims  and is larger when counting the other ethnic  religious  and minority groups targeted for extinction) is often minimized by claims to a figure of only one million deaths  or only three hundred thousand deaths .'
p11
ss.