(dp1
S'input'
p2
(dp3
S'encoded'
p4
(lp5
I64
aI2179
aI43
aI63
aI3
aI21
aI45
aI12715
aI417
aI99
aI316
aI2897
asS'ori'
p6
S'This house believes that the right to asylum should not be absolute'
p7
ssS'output'
p8
(dp9
g4
(lp10
I3
aI626
aI187
aI116
aI93
aI7
aI117
aI267
aI177
aI582
aI112
aI2203
aI248
aI2696
aI116
aI2547
aI92
aI2729
aI134
aI24
aI913
aI63
aI637
aI227
aI17834
aI4223
aI34
aI3862
aI4651
aI53
aI15
aI8532
aI182
aI1968
aI5307
aI12877
aI8340
aI73
aI248
aI1486
aI7
aI1788
aI6049
aI63765
asg6
S'The United States is one of only two high average income countries (the other country is Canada which offers it in limited circumstances) that still gives birthright citizenship for children born where both parents are illegal immigrants  tourists  visitors or other types of temporary residents (diplomats excepted)  .'
p11
ss.