(dp1
S'input'
p2
(dp3
S'encoded'
p4
(lp5
I64
aI2179
aI394
aI2998
aI3
aI4360
aI7
aI3249
aI6804
aI24
aI3
aI102
asS'ori'
p6
S'This house would encourage the creation of private universities in the UK'
p7
ssS'output'
p8
(dp9
g4
(lp10
I155
aI11
aI1793
aI8890
aI4811
aI131
aI182
aI923
aI3251
aI1155
aI75
aI260
aI5204
aI5
aI2041
aI2397
aI5
aI3
aI260
aI7956
aI271
aI10245
aI9017
aI10185
aI3592
aI5
aI10185
aI2395
aI5
aI682
aI5
aI7956
aI2041
aI6786
aI5
aI5204
aI12427
aI63765
asg6
S'They have considerable institutional autonomy  but are currently funded mainly by government teaching and research grants and the government regulates their tuition fees  student funding and student loans and commissions and regulates research assessments and teaching reviews .'
p11
ss.