(dp1
S'input'
p2
(dp3
S'encoded'
p4
(lp5
I64
aI2179
aI43
aI3
aI626
aI187
aI116
aI1989
aI34
aI3102
aI2223
asS'ori'
p6
S"This house believes the United States is responsible for Mexico's drugs war"
p7
ssS'output'
p8
(dp9
g4
(lp10
I570
aI1160
aI7
aI14774
aI116
aI2778
aI24
aI100
aI248
aI2203
aI1166
aI570
aI189
aI63765
asg6
S'Similar lack of efficacy is observed in some other countries pursuing similar policies .'
p11
ss.