(dp1
S'input'
p2
(dp3
S'encoded'
p4
(lp5
I64
aI2179
aI43
aI24
aI3
aI475
aI7
aI12436
aI3364
asS'ori'
p6
S'This house believes in the use of affirmative action'
p7
ssS'output'
p8
(dp9
g4
(lp10
I233
aI45
aI93
aI3068
aI134
aI116
aI748
aI45
aI12966
aI89
aI2328
aI92
aI1423
aI3
aI2488
aI4799
aI620
aI131
aI92
aI637
aI4847
aI6374
aI4672
aI81
aI182
aI3473
aI24
aI1260
aI5
aI569
aI5276
aI63765
asg6
S'According to one analysis  it is possible to imagine a democracy which meets the formal criteria (1 through 3) but which still favors wealthy candidates who are selected in free and fair elections  .'
p11
ss.