(dp1
S'input'
p2
(dp3
S'encoded'
p4
(lp5
I64
aI2179
aI43
aI63
aI3
aI21
aI45
aI12715
aI417
aI99
aI316
aI2897
asS'ori'
p6
S'This house believes that the right to asylum should not be absolute'
p7
ssS'output'
p8
(dp9
g4
(lp10
I19
aI2959
aI117
aI18471
aI60
aI9189
aI1256
aI382
aI547
aI45
aI4680
aI3
aI102
aI5
aI768
aI117
aI19
aI77
aI8856
aI63765
asg6
S'From April 1915 only passengers with exit permits were allowed to leave the UK  and then only from certain ports .'
p11
ss.