(dp1
S'input'
p2
(dp3
S'encoded'
p4
(lp5
I64
aI2179
aI43
aI8629
aI116
aI3
aI117
aI998
asS'ori'
p6
S'This house believes atheism is the only way'
p7
ssS'output'
p8
(dp9
g4
(lp10
I3
aI2497
aI122
aI473
aI75
aI5711
aI10078
aI99
aI45
aI10653
aI14523
aI131
aI958
aI45
aI184
aI1055
aI14
aI21789
aI3384
aI34
aI3524
aI63765
asg6
S"The term was invented by Christian theologians not to discredit theism but rather to discourage reliance on teleological arguments for God's existence  ."
p11
ss.