(dp1
S'input'
p2
(dp3
S'encoded'
p4
(lp5
I64
aI2179
aI43
aI63
aI3376
aI4938
aI417
aI316
aI3537
asS'ori'
p6
S'This house believes that endangered species should be protected'
p7
ssS'output'
p8
(dp9
g4
(lp10
I3
aI8089
aI174
aI5425
aI89
aI3445
aI92
aI1735
aI3
aI2696
aI45
aI4883
aI6198
aI3508
aI10313
aI45
aI4142
aI1295
aI150
aI7337
aI736
aI6793
aI256
aI63
aI454
aI211
aI35
aI15586
aI63765
asg6
S'The WWF also initiated a debt-for-nature concept which allows the country to put funds normally allocated to paying off national debt  into conservation programs that protect its natural landscapes .'
p11
ss.