(dp1
S'input'
p2
(dp3
S'encoded'
p4
(lp5
I64
aI2179
aI394
aI16642
aI1376
aI5269
asS'ori'
p6
S'This house would subsidize poor communities'
p7
ssS'output'
p8
(dp9
g4
(lp10
I59476
aI803
aI7
aI2987
aI116
aI3
aI59477
aI2654
aI589
aI59483
aI59484
aI92
aI116
aI57780
aI2295
aI63765
asg6
S'Prodesis area of intervention is the Lacandon region around Montes Azules  which is Chiapas territory .'
p11
ss.