(dp1
S'input'
p2
(dp3
S'encoded'
p4
(lp5
I64
aI2179
aI43
aI63
aI3
aI21
aI45
aI12715
aI417
aI99
aI316
aI2897
asS'ori'
p6
S'This house believes that the right to asylum should not be absolute'
p7
ssS'output'
p8
(dp9
g4
(lp10
I134
aI116
aI51
aI4603
aI459
aI4185
aI7
aI3
aI2610
aI2784
aI45
aI3322
aI73
aI3742
aI45
aI3322
aI4680
aI45
aI2214
aI73
aI2455
aI75
aI30488
aI63765
asg6
S'It is an offence under section 24A of the Immigration Act 1971 to obtain or seek to obtain leave to enter or remain by deception .'
p11
ss.