(dp1
S'input'
p2
(dp3
S'encoded'
p4
(lp5
I64
aI2179
aI13605
aI2258
aI45
aI2194
asS'ori'
p6
S'This house prefers trade to aid'
p7
ssS'output'
p8
(dp9
g4
(lp10
I64
aI32
aI2010
aI63
aI273
aI182
aI325
aI3802
aI291
aI3
aI1350
aI7
aI3
aI4949
aI5
aI63
aI7780
aI88
aI99
aI316
aI87
aI4407
aI4552
aI75
aI903
aI3059
aI4615
aI63765
asg6
S'This makes clear that there are great differences between the success of the projects and that budgetary follow-up may not be so strictly checked by independent third parties .'
p11
ss.