(dp1
S'input'
p2
(dp3
S'encoded'
p4
(lp5
I64
aI2179
aI43
aI17
aI4941
aI857
aI3211
asS'ori'
p6
S'This house believes social deprivation causes crime'
p7
ssS'output'
p8
(dp9
g4
(lp10
I7
aI3
aI697
aI2206
aI2598
aI2840
aI271
aI12909
aI41
aI15800
aI63765
asg6
S'15 .25% of the total US population identified their ethnicity as Hispanic  .'
p11
ss.