(dp1
S'input'
p2
(dp3
S'encoded'
p4
(lp5
I64
aI2179
aI43
aI63
aI134
aI116
aI400
aI21
aI34
aI3
aI260
aI45
aI3439
aI57
aI7
aI2381
asS'ori'
p6
S'This house believes that it is sometimes right for the government to restrict freedom of speech'
p7
ssS'output'
p8
(dp9
g4
(lp10
I3
aI14854
aI122
aI729
aI89
aI16107
aI7
aI4268
aI5
aI1537
aI864
aI7
aI19913
aI34
aI2439
aI604
aI3
aI5583
aI2942
aI1341
aI703
aI14
aI3340
aI20710
aI63765
asg6
S"The Outlaw was denied a certificate of approval and kept out of theaters for years because the film's advertising focused particular attention on Jane Russell's breasts ."
p11
ss.