(dp1
S'input'
p2
(dp3
S'encoded'
p4
(lp5
I64
aI2179
aI394
aI2017
aI223
aI9058
aI23653
asS'ori'
p6
S'This house would ban all unsustainable logging'
p7
ssS'output'
p8
(dp9
g4
(lp10
I378
aI1021
aI45
aI3
aI1445
aI4442
aI7
aI6762
aI11281
aI1295
aI366
aI7319
aI45
aI3
aI2762
aI116
aI99
aI419
aI482
aI63765
asg6
S'However  due to the large percentage of trees dying off after planting (up to 75%)  the project is not very successful .'
p11
ss.