(dp1
S'input'
p2
(dp3
S'encoded'
p4
(lp5
I64
aI2179
aI394
aI2976
aI12243
aI24
aI954
aI126
aI1560
aI10723
asS'ori'
p6
S'This house would implement playoffs in collegiate level American football'
p7
ssS'output'
p8
(dp9
g4
(lp10
I637
aI100
aI4702
aI7
aI3
aI34949
aI2728
aI3
aI35055
aI63
aI3
aI145
aI2729
aI63765
asg6
S'Still  some proponents of the BCS recognize the inconsistency that the system offers .'
p11
ss.