(dp1
S'input'
p2
(dp3
S'encoded'
p4
(lp5
I64
aI2179
aI43
aI63
aI7382
aI116
aI400
aI4713
asS'ori'
p6
S'This house believes that bribery is sometimes acceptable'
p7
ssS'output'
p8
(dp9
g4
(lp10
I2154
aI7
aI3
aI5509
aI24
aI725
aI9379
aI5
aI2760
aI2203
aI116
aI49
aI3191
aI706
aI75
aI3
aI2470
aI63765
asg6
S'Budget of the judiciary in many transitional and developing countries is almost completely controlled by the executive .'
p11
ss.