(dp1
S'input'
p2
(dp3
S'encoded'
p4
(lp5
I64
aI2179
aI43
aI63
aI3
aI4990
aI4991
aI116
aI4850
aI24
aI12166
aI3
aI475
aI7
aI3532
aI3290
aI7
aI4714
asS'ori'
p6
S'This house believes that the Catholic Church is justified in forbidding the use of barrier methods of contraception'
p7
ssS'output'
p8
(dp9
g4
(lp10
I42
aI3
aI734
aI8378
aI55
aI4635
aI2126
aI41
aI3
aI2382
aI7
aI3
aI14947
aI41
aI3
aI2382
aI233
aI45
aI1025
aI63765
aI55
aI243
aI1038
aI1980
aI223
aI1980
aI252
aI4798
aI41
aI7921
aI5
aI5225
aI7
aI5480
aI13807
aI34
aI86
aI63765
aI1643
aI10941
aI63765
asg6
S'He said:"From the beginning  Christianity has understood itself as the religion of the Logos  as the religion according to reason . .It has always defined men  all men without distinction  as creatures and images of God  proclaiming for them . .the same dignity .'
p11
ss.