(dp1
S'input'
p2
(dp3
S'encoded'
p4
(lp5
I64
aI2179
aI394
aI190
aI3
aI21
aI45
aI3895
aI834
asS'ori'
p6
S'This house would limit the right to bear arms'
p7
ssS'output'
p8
(dp9
g4
(lp10
I24
aI3
aI626
aI187
aI89
aI2152
aI7
aI2188
aI17340
aI182
aI860
aI60
aI1374
aI63765
asg6
S'In the United States  a quarter of commercial robberies are committed with guns  .'
p11
ss.