(dp1
S'input'
p2
(dp3
S'encoded'
p4
(lp5
I64
aI2179
aI235
aI3
aI2136
aI7
aI3
aI2306
aI7
aI2390
asS'ori'
p6
S'This house supports the one-child policy of the republic of China'
p7
ssS'output'
p8
(dp9
g4
(lp10
I97
aI1718
aI3661
aI60
aI22627
aI116
aI3
aI60012
aI7
aI7378
aI53962
aI92
aI139
aI316
aI89
aI281
aI521
aI7
aI7141
aI6673
aI298
aI19934
aI611
aI736
aI3
aI7886
aI311
aI177
aI6931
aI63765
asg6
S'" Another potential problem with desalination is the byproduction of saline brine  which can be a major cause of marine pollution when dumped back into the oceans at high temperatures .'
p11
ss.