(dp1
S'input'
p2
(dp3
S'encoded'
p4
(lp5
I64
aI2179
aI394
aI2976
aI12243
aI24
aI954
aI126
aI1560
aI10723
asS'ori'
p6
S'This house would implement playoffs in collegiate level American football'
p7
ssS'output'
p8
(dp9
g4
(lp10
I8475
aI7
aI3
aI16224
aI10723
aI33217
aI237
aI973
aI311
aI3
aI312
aI7
aI3
aI5159
aI2836
aI45
aI316
aI973
aI45
aI3
aI34949
aI150
aI1011
aI319
aI744
aI63765
asg6
S'Presentation of the crystal football trophy  first awarded at the end of the 1992 season  continues to be awarded to the BCS National Championship Game winner .'
p11
ss.