(dp1
S'input'
p2
(dp3
S'encoded'
p4
(lp5
I64
aI2179
aI43
aI63
aI2659
aI417
aI1690
aI3
aI12048
aI7
aI19084
asS'ori'
p6
S'This house believes that Israel should lift the blockade of Gaza'
p7
ssS'output'
p8
(dp9
g4
(lp10
I3
aI6109
aI5496
aI7
aI2135
aI2181
aI5162
aI89
aI3419
aI15359
aI211
aI325
aI23006
aI311
aI3
aI4134
aI5
aI6926
aI29788
aI45
aI120
aI3493
aI63765
asg6
S'The Maldives Ministry of Foreign Affairs released a statement expressing its great sadness at the incident and extending condolences to those affected .'
p11
ss.