(dp1
S'input'
p2
(dp3
S'encoded'
p4
(lp5
I64
aI2179
aI394
aI2017
aI628
asS'ori'
p6
S'This house would ban gambling'
p7
ssS'output'
p8
(dp9
g4
(lp10
I34
aI1343
aI298
aI89
aI7740
aI7766
aI89
aI5930
aI7769
aI34
aI42
aI876
aI316
aI8992
aI89
aI7769
aI60
aI51
aI4666
aI2755
aI7
aI117
aI63765
asg6
S'For example  when a player buys a "pick-4" lottery ticket for $1 .00  he might be getting a ticket with an expected value of only $0 .50 .'
p11
ss.