(dp1
S'input'
p2
(dp3
S'encoded'
p4
(lp5
I64
aI2179
aI43
aI3
aI626
aI187
aI116
aI1989
aI34
aI3102
aI2223
asS'ori'
p6
S"This house believes the United States is responsible for Mexico's drugs war"
p7
ssS'output'
p8
(dp9
g4
(lp10
I958
aI1167
aI5
aI1389
aI122
aI3
aI7854
aI24
aI89
aI290
aI7
aI15811
aI9066
aI2565
aI5110
aI75
aI4336
aI8778
aI24
aI8509
aI5
aI3
aI2301
aI2145
aI63765
aI5354
aI63765
asg6
S'Rather  "Operation Fast and Furious was the latest in a series of fatally flawed operations run by ATF agents in Phoenix and the Arizona U .S . Attorney\'s Office .'
p11
ss.