(dp1
S'input'
p2
(dp3
S'encoded'
p4
(lp5
I64
aI2179
aI43
aI63
aI2157
aI2565
aI493
aI19084
aI382
aI4850
asS'ori'
p6
S"This house believes that Israel's 2008-2009 military operations against Gaza were justified"
p7
ssS'output'
p8
(dp9
g4
(lp10
I976
aI7092
aI6037
aI755
aI3
aI19088
aI254
aI116
aI89
aI10
aI3981
aI7
aI1609
aI159
aI89
aI2804
aI459
aI3
aI6429
aI3304
aI63765
asg6
S'Legal experts dispute whether the Palestinian Authority is a state capable of making such a declaration under the Rome Statute .'
p11
ss.