(dp1
S'input'
p2
(dp3
S'encoded'
p4
(lp5
I64
aI2179
aI43
aI8629
aI116
aI3
aI117
aI998
asS'ori'
p6
S'This house believes atheism is the only way'
p7
ssS'output'
p8
(dp9
g4
(lp10
I2198
aI7
aI2369
aI8629
aI174
aI3610
aI19
aI10002
aI81
aI3563
aI63
aI273
aI182
aI2338
aI18
aI45
aI3319
aI14527
aI63
aI351
aI2482
aI773
aI98
aI99
aI4532
aI5
aI19
aI14528
aI81
aI84
aI3
aI6298
aI14529
aI1597
aI63
aI3
aI2802
aI7
aI3
aI3524
aI7
aI5480
aI63
aI116
aI5075
aI73
aI99
aI3762
aI1038
aI45
aI501
aI93
aI45
aI84
aI89
aI3580
aI1597
aI14
aI63765
asg6
S'Criticism of strong atheism also comes from agnostics  who contend that there are insufficient grounds to assert authoritatively that any supreme being does not exist  and from ignostics  who take the theological noncognitivist position that the question of the existence of God (per that definition) is meaningless or not properly defined to allow one to take a meaningful position on .'
p11
ss.