(dp1
S'input'
p2
(dp3
S'encoded'
p4
(lp5
I64
aI2179
aI43
aI24
aI3
aI475
aI7
aI12436
aI3364
asS'ori'
p6
S'This house believes in the use of affirmative action'
p7
ssS'output'
p8
(dp9
g4
(lp10
I3987
aI2912
aI470
aI20392
aI7
aI13746
aI5
aI6457
aI4197
aI99
aI316
aI27089
aI3
aI6457
aI7
aI51
aI4769
aI24
aI3
aI2218
aI2219
aI116
aI24
aI3202
aI7517
aI64
aI47
aI99
aI316
aI788
aI736
aI404
aI34
aI6907
aI3
aI306
aI7
aI6591
aI1375
aI3313
aI5273
aI24
aI3
aI3987
aI4417
aI459
aI19170
aI443
aI24
aI92
aI33
aI3
aI4799
aI5
aI63765
asg6
S'"the service ranks below Colonel of husband and wife shall not be clubbed together""if the wife of an officer in the armed forces is in civil employment  this will not be taken into account for applying the rule of exclusion unless she falls in the service category under item No .II in which case the criteria and conditions" .'
p11
ss.