(dp1
S'input'
p2
(dp3
S'encoded'
p4
(lp5
I64
aI2179
aI43
aI63
aI134
aI116
aI400
aI21
aI34
aI3
aI260
aI45
aI3439
aI57
aI7
aI2381
asS'ori'
p6
S'This house believes that it is sometimes right for the government to restrict freedom of speech'
p7
ssS'output'
p8
(dp9
g4
(lp10
I155
aI382
aI1515
aI75
aI3
aI2179
aI7
aI5260
aI14
aI2779
aI2435
aI2032
aI75
aI2564
aI9596
aI7
aI2221
aI14
aI2555
aI5
aI415
aI736
aI782
aI41
aI2477
aI4237
aI14
aI2394
aI620
aI3
aI3262
aI7
aI16874
aI75
aI7
aI3
aI187
aI63765
asg6
S'They were adopted by the House of Representatives on August 21  1789  formally proposed by joint resolution of Congress on September 25  1789  and came into effect as Constitutional Amendments on December 15  1791  through the process of ratification by three-fourths of the States .'
p11
ss.