(dp1
S'input'
p2
(dp3
S'encoded'
p4
(lp5
I64
aI2179
aI394
aI117
aI7428
aI21151
aI34
aI11389
aI2042
aI24
aI4364
asS'ori'
p6
S'This house would only teach abstinence for sex education in schools'
p7
ssS'output'
p8
(dp9
g4
(lp10
I2992
aI75
aI3
aI2598
aI3871
aI3933
aI5
aI3
aI150
aI1863
aI34
aI3217
aI9067
aI353
aI63
aI1191
aI7
aI3862
aI4651
aI45
aI11390
aI8578
aI24
aI3
aI626
aI187
aI182
aI30537
aI75
aI3822
aI1980
aI3485
aI73
aI1478
aI63765
asg6
S'Studies by the Population Reference Bureau and the National Center for Health Statistics found that about two-thirds of children born to teenage girls in the United States are fathered by adult men age 20 or older  .'
p11
ss.