(dp1
S'input'
p2
(dp3
S'encoded'
p4
(lp5
I64
aI2179
aI394
aI4261
aI8667
aI3
aI9361
aI5
aI17069
asS'ori'
p6
S'This house would prohibit burning the stars and stripes'
p7
ssS'output'
p8
(dp9
g4
(lp10
I24
aI2394
aI89
aI94
aI7
aI863
aI4358
aI158
aI48
aI16526
aI495
aI37967
aI5
aI25
aI9702
aI4801
aI46564
aI37967
aI1446
aI3386
aI36457
aI35274
aI60
aI89
aI965
aI2250
aI2267
aI291
aI3
aI5613
aI7
aI2394
aI5
aI667
aI2439
aI1379
aI63765
asg6
S'In December 1965  a group of five students  including lead plaintiff John Tinker and his sister Mary Beth Tinker  wore black armbands overlaid with a white peace sign between the dates of December 16 and New Years Day .'
p11
ss.