(dp1
S'input'
p2
(dp3
S'encoded'
p4
(lp5
I64
aI2179
aI394
aI9385
aI2497
aI447
aI14
aI3
aI3578
aI5721
aI7
aI260
asS'ori'
p6
S'This house would enforce term limits on the legislative branch of government'
p7
ssS'output'
p8
(dp9
g4
(lp10
I3
aI29638
aI8913
aI3
aI3384
aI24
aI1561
aI5
aI493
aI3
aI3728
aI4883
aI4884
aI24
aI3
aI4276
aI41
aI7206
aI63765
asg6
S'The Oregonian summarized the arguments in favor and against the Measure put forth in the campaign  as outlined below:  .'
p11
ss.