(dp1
S'input'
p2
(dp3
S'encoded'
p4
(lp5
I64
aI2179
aI43
aI63
aI6670
aI546
aI417
aI316
aI89
aI1334
aI3108
aI7
aI4849
aI1886
aI2855
asS'ori'
p6
S'This house believes that wind power should be a primary focus of future energy supply'
p7
ssS'output'
p8
(dp9
g4
(lp10
I64
aI122
aI117
aI589
aI93
aI10370
aI7
aI285
aI5409
aI6091
aI81
aI440
aI4386
aI2007
aI226
aI248
aI1200
aI2203
aI382
aI2293
aI60
aI4386
aI2007
aI9217
aI60
aI4386
aI2007
aI5
aI327
aI60
aI4386
aI2007
aI63765
asg6
S'This was only around one eighth of world leader Denmark  who had 0 .675&nbsp;kW per person  while other top countries were Spain with 0 .442&nbsp;kW per person  Portugal with 0 .344&nbsp;kW per person  and Germany with 0 .334&nbsp;kW per person .'
p11
ss.