(dp1
S'input'
p2
(dp3
S'encoded'
p4
(lp5
I64
aI2179
aI43
aI63
aI1036
aI4828
aI33250
aI116
aI25073
aI45
aI3315
aI4562
asS'ori'
p6
S'This house believes that male infant circumcision is tantamount to child abuse'
p7
ssS'output'
p8
(dp9
g4
(lp10
I1524
aI11105
aI47
aI246
aI99
aI5116
aI89
aI3315
aI800
aI75
aI89
aI3459
aI81
aI55
aI99
aI5788
aI45
aI8499
aI63765
asg6
S'Orthodox rabbis will generally not convert a non-Jewish child raised by a mother who has not converted to Judaism  .'
p11
ss.