(dp1
S'input'
p2
(dp3
S'encoded'
p4
(lp5
I64
aI2179
aI43
aI63
aI7382
aI116
aI400
aI4713
asS'ori'
p6
S'This house believes that bribery is sometimes acceptable'
p7
ssS'output'
p8
(dp9
g4
(lp10
I24
aI64
aI33
aI3
aI3098
aI127
aI5
aI24
aI2721
aI34
aI31884
aI3
aI658
aI3
aI878
aI1762
aI89
aI23494
aI5458
aI92
aI116
aI89
aI968
aI7
aI3
aI7779
aI3
aI3098
aI2933
aI63765
asg6
S'In this case  the company benefits  and in exchange for betraying the public  the official receives a kickback payment  which is a portion of the sum the company received .'
p11
ss.