(dp1
S'input'
p2
(dp3
S'encoded'
p4
(lp5
I64
aI2179
aI394
aI5370
aI3
aI5286
asS'ori'
p6
S'This house would abolish the monarchy'
p7
ssS'output'
p8
(dp9
g4
(lp10
I134
aI122
aI99
aI487
aI3
aI6883
aI7
aI3
aI3304
aI7
aI5292
aI63
aI2547
aI122
aI513
aI45
aI316
aI459
aI89
aI1261
aI2023
aI5305
aI2341
aI45
aI63
aI7
aI3
aI169
aI5
aI99
aI487
aI63
aI3
aI2023
aI5301
aI311
aI3
aI413
aI5405
aI2236
aI122
aI11612
aI75
aI2023
aI70
aI41
aI5352
aI7
aI2547
aI63765
asg6
S'It was not until the passing of the Statute of Westminster that Canada was considered to be under a distinct Canadian Crown  separate to that of the British  and not until 1953 that the Canadian monarch  at the time Elizabeth II  was titled by Canadian law as Queen of Canada .'
p11
ss.