(dp1
S'input'
p2
(dp3
S'encoded'
p4
(lp5
I64
aI2179
aI394
aI2017
aI262
asS'ori'
p6
S'This house would ban boxing'
p7
ssS'output'
p8
(dp9
g4
(lp10
I64
aI227
aI3
aI288
aI3
aI21
aI45
aI783
aI24
aI5
aI733
aI89
aI464
aI7
aI784
aI45
aI89
aI468
aI63
aI42
aI785
aI88
aI316
aI24
aI786
aI113
aI257
aI443
aI787
aI55
aI788
aI238
aI63765
asg6
S'This gives the referee the right to step in and administer a count of eight to a fighter that he feels may be in danger  even if no knockdown has taken place .'
p11
ss.