(dp1
S'input'
p2
(dp3
S'encoded'
p4
(lp5
I64
aI2179
aI43
aI8629
aI116
aI3
aI117
aI998
asS'ori'
p6
S'This house believes atheism is the only way'
p7
ssS'output'
p8
(dp9
g4
(lp10
I24
aI234
aI3
aI4035
aI44
aI34646
aI45
aI8472
aI3
aI1012
aI7
aI8440
aI14
aI3
aI4307
aI63765
asg6
S"In Hitchens' view  the film attempts tirelessly to blame the death of Jesus on the Jews ."
p11
ss.