(dp1
S'input'
p2
(dp3
S'encoded'
p4
(lp5
I64
aI2179
aI43
aI63
aI3
aI21
aI45
aI12715
aI417
aI99
aI316
aI2897
asS'ori'
p6
S'This house believes that the right to asylum should not be absolute'
p7
ssS'output'
p8
(dp9
g4
(lp10
I217
aI7
aI3
aI261
aI7482
aI73
aI120
aI60
aI3087
aI3215
aI2554
aI440
aI1719
aI12
aI1348
aI75
aI701
aI2203
aI63765
asg6
S'Most of the well educated or those with genuine refugee status had already been accepted by receiving countries .'
p11
ss.