(dp1
S'input'
p2
(dp3
S'encoded'
p4
(lp5
I64
aI2179
aI43
aI63
aI134
aI116
aI400
aI21
aI34
aI3
aI260
aI45
aI3439
aI57
aI7
aI2381
asS'ori'
p6
S'This house believes that it is sometimes right for the government to restrict freedom of speech'
p7
ssS'output'
p8
(dp9
g4
(lp10
I3
aI2446
aI13012
aI24
aI3
aI2800
aI2550
aI394
aI316
aI537
aI5
aI1038
aI24
aI3
aI282
aI2029
aI7
aI2445
aI2446
aI48829
aI3
aI3991
aI2804
aI7
aI2445
aI2446
aI3
aI282
aI7221
aI14
aI3202
aI5
aI22
aI2446
aI5
aI3
aI282
aI7221
aI14
aI16
aI17
aI5
aI2637
aI2446
aI63765
asg6
S'The rights espoused in the UN charter would be codified and defined in the International Bill of Human Rights  composing the Universal Declaration of Human Rights  the International Covenant on Civil and Political Rights and the International Covenant on Economic  Social and Cultural Rights .'
p11
ss.