(dp1
S'input'
p2
(dp3
S'encoded'
p4
(lp5
I64
aI2179
aI43
aI17
aI4941
aI857
aI3211
asS'ori'
p6
S'This house believes social deprivation causes crime'
p7
ssS'output'
p8
(dp9
g4
(lp10
I37
aI12527
aI92
aI5273
aI459
aI16448
aI93
aI45
aI6004
aI24
aI27623
aI5
aI8935
aI116
aI174
aI89
aI759
aI7
aI3
aI869
aI1486
aI7
aI27623
aI12375
aI7872
aI2510
aI63765
asg6
S'Pure deviance  which falls under perceiving one to participate in deviant and rule-breaking behavior  is also a part of the four types of deviant behaviors listed above .'
p11
ss.