(dp1
S'input'
p2
(dp3
S'encoded'
p4
(lp5
I64
aI2179
aI43
aI63
aI2659
aI417
aI1690
aI3
aI12048
aI7
aI19084
asS'ori'
p6
S'This house believes that Israel should lift the blockade of Gaza'
p7
ssS'output'
p8
(dp9
g4
(lp10
I5005
aI394
aI5878
aI34
aI3
aI1991
aI7
aI120
aI81
aI382
aI3178
aI13732
aI226
aI795
aI3
aI282
aI2178
aI1989
aI34
aI29755
aI159
aI63
aI463
aI11
aI1993
aI9082
aI34
aI3
aI2654
aI63765
asg6
S'Asking "who would pay for the blood of those who were killed yesterday " while holding the international community responsible for tolerating such "barbaric practices" that could have grave repercussions for the region .'
p11
ss.