(dp1
S'input'
p2
(dp3
S'encoded'
p4
(lp5
I64
aI2179
aI394
aI475
aI2135
aI2194
aI6198
aI45
aI2041
aI5
aI13926
aI8732
aI63
aI1735
aI12708
aI5
aI5599
aI24
aI2203
aI45
aI1397
aI7149
aI5
aI12311
aI271
aI5119
aI4948
asS'ori'
p6
S'This house would use foreign aid funds to research and distribute software that allows bloggers and journalists in non-democratic countries to evade censorship and conceal their online activities'
p7
ssS'output'
p8
(dp9
g4
(lp10
I64
aI2776
aI116
aI75
aI4537
aI5
aI3
aI7147
aI2178
aI3527
aI2510
aI49
aI7094
aI3
aI830
aI134
aI55
aI19
aI3
aI1407
aI35549
aI5165
aI7
aI1560
aI2228
aI5
aI3905
aI63765
asg6
S'This independence is by design  and the Internet community values above almost anything the distance it has from the slow  homogenous stream of American commerce and culture .'
p11
ss.