(dp1
S'input'
p2
(dp3
S'encoded'
p4
(lp5
I64
aI2179
aI43
aI63
aI3
aI21
aI45
aI12715
aI417
aI99
aI316
aI2897
asS'ori'
p6
S'This house believes that the right to asylum should not be absolute'
p7
ssS'output'
p8
(dp9
g4
(lp10
I3
aI3324
aI122
aI3581
aI24
aI4185
aI7
aI3
aI12715
aI5
aI2610
aI7
aI6399
aI7102
asg6
S'The scheme was enacted in section 19 of the Asylum and Immigration (Treatment of Claimants  etc .)'
p11
ss.