(dp1
S'input'
p2
(dp3
S'encoded'
p4
(lp5
I64
aI2179
aI43
aI24
aI3
aI475
aI7
aI12436
aI3364
asS'ori'
p6
S'This house believes in the use of affirmative action'
p7
ssS'output'
p8
(dp9
g4
(lp10
I3202
aI2446
aI2142
aI8545
aI1273
aI34
aI64
aI3545
aI604
aI134
aI463
aI316
aI416
aI45
aI454
aI2468
aI14153
aI5
aI3386
aI4275
aI19
aI631
aI24593
aI5
aI7251
aI7
aI1260
aI2381
aI2446
aI63765
asg6
S'Civil rights organizations pressed hard for this provision because it could be used to protect peaceful protesters and black voters from police brutality and suppression of free speech rights .'
p11
ss.