(dp1
S'input'
p2
(dp3
S'encoded'
p4
(lp5
I64
aI2179
aI43
aI63
aI134
aI116
aI400
aI21
aI34
aI3
aI260
aI45
aI3439
aI57
aI7
aI2381
asS'ori'
p6
S'This house believes that it is sometimes right for the government to restrict freedom of speech'
p7
ssS'output'
p8
(dp9
g4
(lp10
I7149
aI2511
aI382
aI11638
aI60
aI3
aI2543
aI7
aI3
aI3854
aI2306
aI24
aI1381
aI3052
aI7
aI7149
aI637
aI458
aI1341
aI2286
aI4037
aI73
aI20589
aI63765
asg6
S'Censorship laws were revoked with the founding of the Fifth Republic in 1958  although cases of censorship still occurred (in particular concerning films or satirical newspapers) .'
p11
ss.