(dp1
S'input'
p2
(dp3
S'encoded'
p4
(lp5
I64
aI2179
aI43
aI63
aI134
aI116
aI400
aI21
aI34
aI3
aI260
aI45
aI3439
aI57
aI7
aI2381
asS'ori'
p6
S'This house believes that it is sometimes right for the government to restrict freedom of speech'
p7
ssS'output'
p8
(dp9
g4
(lp10
I14
aI2779
aI14942
aI9579
aI2204
aI2648
aI63765
aI38162
aI2173
aI63
aI3
aI59473
aI7
aI3
aI12359
aI2860
aI463
aI316
aI12918
aI60
aI3
aI2196
aI289
aI2923
aI17368
aI2937
aI45
aI16303
aI2923
aI16416
aI41
aI279
aI21719
aI534
aI45
aI10274
aI223
aI7147
aI3205
aI5139
aI5
aI5254
aI14
aI5125
aI5044
aI89
aI1718
aI786
aI63
aI2914
aI17368
aI5
aI12359
aI2860
aI3552
aI463
aI3654
aI45
aI3209
aI7151
aI2183
aI45
aI3
aI7147
aI63765
asg6
S'On August 12  2008  FCC Commissioner Robert M . McDowell stated that the reinstitution of the Fairness Doctrine could be intertwined with the debate over network neutrality (a proposal to classify network operators as common carriers required to admit all Internet services  applications and devices on equal terms)  presenting a potential danger that net neutrality and Fairness Doctrine advocates could try to expand content controls to the Internet  .'
p11
ss.