(dp1
S'input'
p2
(dp3
S'encoded'
p4
(lp5
I64
aI2179
aI43
aI3
aI626
aI187
aI116
aI1989
aI34
aI3102
aI2223
asS'ori'
p6
S"This house believes the United States is responsible for Mexico's drugs war"
p7
ssS'output'
p8
(dp9
g4
(lp10
I174
aI273
aI11
aI12
aI2920
aI53
aI8761
aI8762
aI382
aI416
aI493
aI2702
aI2219
aI5
aI567
aI8763
aI60
aI8761
aI8762
aI11
aI12
aI8764
aI63765
asg6
S'Also  there have been occasions where grenade launchers were used against security forces and twelve M4 Carbines with M203 grenade launchers have been confiscated  .'
p11
ss.