(dp1
S'input'
p2
(dp3
S'encoded'
p4
(lp5
I64
aI2179
aI394
aI1499
aI3
aI8115
aI34564
aI17106
asS'ori'
p6
S'This house would build the Keystone XL pipeline'
p7
ssS'output'
p8
(dp9
g4
(lp10
I11514
aI17106
aI6676
aI116
aI416
aI45
aI719
aI3
aI957
aI7
aI11514
aI2410
aI73
aI11676
aI7
aI11514
aI60
aI3
aI957
aI7
aI3497
aI60
aI6676
aI5136
aI570
aI45
aI57188
aI3
aI2186
aI116
aI2843
aI63765
asg6
S'Hydrogen pipeline transport is used to connect the point of hydrogen production or delivery of hydrogen with the point of demand  with transport costs similar to CNG  the technology is proven  .'
p11
ss.