(dp1
S'input'
p2
(dp3
S'encoded'
p4
(lp5
I64
aI2179
aI235
aI3
aI2136
aI7
aI3
aI2306
aI7
aI2390
asS'ori'
p6
S'This house supports the one-child policy of the republic of China'
p7
ssS'output'
p8
(dp9
g4
(lp10
I24
aI492
aI211
aI5563
aI905
aI6021
aI75
aI3
aI2161
aI7
aI3217
aI3611
aI63
aI291
aI5
aI3495
aI382
aI36098
aI226
aI1980
aI8771
aI45
aI38631
aI63765
asg6
S'In July 2002  its Final Report ordered by the Minister of Health revealed that between 1995 and 2000  331 600 women were sterilized  while 25 590 men submitted to vasectomies  .'
p11
ss.