(dp1
S'input'
p2
(dp3
S'encoded'
p4
(lp5
I64
aI2179
aI43
aI63
aI11083
aI10046
aI417
aI316
aI89
aI3135
aI4603
asS'ori'
p6
S'This house believes that Holocaust denial should be a criminal offence'
p7
ssS'output'
p8
(dp9
g4
(lp10
I3555
aI73
aI18199
aI3
aI11083
aI83
aI316
aI344
aI41
aI93
aI7
aI3
aI42657
aI274
aI7
aI10250
aI42658
asg6
S'denying or minimising the Holocaust must be seen as one of the acutest forms of racial slandering'
p11
ss.