(dp1
S'input'
p2
(dp3
S'encoded'
p4
(lp5
I64
aI2179
aI43
aI24
aI3
aI475
aI7
aI12436
aI3364
asS'ori'
p6
S'This house believes in the use of affirmative action'
p7
ssS'output'
p8
(dp9
g4
(lp10
I206
aI2274
aI7063
aI89
aI1950
aI4196
aI7
aI3
aI2029
aI92
aI394
aI11
aI2425
aI45
aI134
aI773
aI840
aI401
aI45
aI5509
aI24069
aI1442
aI3
aI2029
aI89
aI1950
aI4196
aI14
aI2805
aI5
aI768
aI2032
aI24
aI3
aI3579
aI7
aI3846
aI34
aI1106
aI298
aI89
aI1950
aI4196
aI500
aI99
aI840
aI1654
aI3
aI237
aI63
aI3
aI2029
aI24972
aI3
aI5509
aI2180
aI5
aI840
aI316
aI1969
aI45
aI3
aI2211
aI758
aI34
aI2196
aI63765
asg6
S'Having initially waived a second reading of the bill  which would have led to it being immediately referred to Judiciary  Mansfield gave the bill a second reading on February 26  1964  and then proposed  in the absence of precedent for instances when a second reading did not immediately follow the first  that the bill bypass the Judiciary Committee and immediately be sent to the Senate floor for debate .'
p11
ss.