(dp1
S'input'
p2
(dp3
S'encoded'
p4
(lp5
I64
aI2179
aI43
aI63
aI3357
aI5003
aI652
aI3
aI188
aI3262
asS'ori'
p6
S'This house believes that opinion polls harm the democratic process'
p7
ssS'output'
p8
(dp9
g4
(lp10
I100
aI3721
aI6228
aI11
aI3009
aI45
aI1192
aI589
aI63
aI3661
aI75
aI158
aI89
aI63765
asg6
S'Some polling companies have attempted to get around that problem by including a "cellphone supplement" .'
p11
ss.