(dp1
S'input'
p2
(dp3
S'encoded'
p4
(lp5
I64
aI2179
aI43
aI24
aI3
aI475
aI7
aI12436
aI3364
asS'ori'
p6
S'This house believes in the use of affirmative action'
p7
ssS'output'
p8
(dp9
g4
(lp10
I19
aI3
aI3
aI4232
aI8446
aI5269
aI382
aI2552
aI75
aI3
aI28932
aI28933
aI28934
aI81
aI14037
aI45
aI8446
aI2610
aI5
aI153
aI416
aI8446
aI24
aI271
aI9564
aI63765
asg6
S"From the 1910s  the Southern Jewish communities were attacked by the Ku Klux Klan  who objected to Jewish immigration  and often used 'The Jewish Banker' in their propaganda ."
p11
ss.