(dp1
S'input'
p2
(dp3
S'encoded'
p4
(lp5
I64
aI2179
aI13605
aI2258
aI45
aI2194
asS'ori'
p6
S'This house prefers trade to aid'
p7
ssS'output'
p8
(dp9
g4
(lp10
I3210
aI5
aI24263
aI83
aI2572
aI5224
aI2851
aI956
aI2409
aI8281
aI5
aI556
aI7
aI2228
aI2721
aI5224
aI887
aI271
aI2789
aI5
aI64
aI5224
aI2721
aI83
aI768
aI84
aI238
aI967
aI2288
aI344
aI291
aI2452
aI5
aI5010
aI366
aI63765
asg6
S'Markets and suppliers must share information - producer associations  industrial organisations  and chambers of commerce exchange information among their members and this information exchange must then take place across borders (as seen between Brazil and Argentina after Mercosur) .'
p11
ss.