(dp1
S'input'
p2
(dp3
S'encoded'
p4
(lp5
I64
aI2179
aI43
aI24
aI3
aI475
aI7
aI12436
aI3364
asS'ori'
p6
S'This house believes in the use of affirmative action'
p7
ssS'output'
p8
(dp9
g4
(lp10
I19
aI45
aI2298
aI440
aI1748
aI10252
aI45
aI211
aI10
aI6804
aI5
aI3716
aI13052
aI122
aI5818
aI3
aI306
aI3316
aI3716
aI13052
aI45
aI2363
aI63765
asg6
S'From 1996 to 1998  Texas had entirely merit-based admission to its state universities  and minority enrollment was low; adopting the "top 10 percent" rule returned minority enrollment to pre-1996 levels  .'
p11
ss.