(dp1
S'input'
p2
(dp3
S'encoded'
p4
(lp5
I64
aI2179
aI43
aI63
aI3376
aI4938
aI417
aI316
aI3537
asS'ori'
p6
S'This house believes that endangered species should be protected'
p7
ssS'output'
p8
(dp9
g4
(lp10
I3
aI25726
aI139
aI174
aI163
aI4237
aI45
aI3
aI2533
aI836
aI7086
aI3499
aI684
aI3518
aI8252
aI2962
aI75
aI2544
aI2138
aI5
aI8086
aI60
aI248
aI282
aI2142
aI5
aI2361
aI63765
asg6
S'The COP can also make amendments to the Convention  create expert advisory bodies  review progress reports by member nations  and collaborate with other international organizations and agreements .'
p11
ss.