(dp1
S'input'
p2
(dp3
S'encoded'
p4
(lp5
I64
aI2179
aI43
aI63
aI7382
aI116
aI400
aI4713
asS'ori'
p6
S'This house believes that bribery is sometimes acceptable'
p7
ssS'output'
p8
(dp9
g4
(lp10
I29449
aI29450
aI34
aI64
aI29451
aI7102
asg6
S'Euphemisms abound for this (commission  sweetener  kick-back etc .)'
p11
ss.