(dp1
S'input'
p2
(dp3
S'encoded'
p4
(lp5
I64
aI2179
aI43
aI63
aI2157
aI2565
aI493
aI19084
aI382
aI4850
asS'ori'
p6
S"This house believes that Israel's 2008-2009 military operations against Gaza were justified"
p7
ssS'output'
p8
(dp9
g4
(lp10
I3
aI6056
aI30691
aI2041
aI94
aI5047
aI63
aI7
aI3
aI3178
aI397
aI64
aI237
aI19419
aI1767
aI382
aI2928
aI20365
aI725
aI7
aI86
aI17365
aI45
aI3
aI11169
aI94
aI19158
aI63765
asg6
S'The Israeli Orient Research Group reported that 78 of the 89 killed during this first IAF strike were terror operatives  many of them belonging to the militant group  al-Qassam Brigades .'
p11
ss.