(dp1
S'input'
p2
(dp3
S'encoded'
p4
(lp5
I64
aI2179
aI43
aI63
aI134
aI116
aI400
aI21
aI34
aI3
aI260
aI45
aI3439
aI57
aI7
aI2381
asS'ori'
p6
S'This house believes that it is sometimes right for the government to restrict freedom of speech'
p7
ssS'output'
p8
(dp9
g4
(lp10
I3
aI1809
aI7
aI15382
aI392
aI878
aI2208
aI2784
aI857
aI2592
aI24
aI2023
aI897
aI24
aI92
aI155
aI88
aI99
aI316
aI1260
aI45
aI905
aI14
aI3147
aI24
aI3
aI150
aI2702
aI3294
aI604
aI155
aI463
aI316
aI12704
aI63765
asg6
S'The terms of Canadas renewed Official Secrets Act causes fears in Canadian media in which they may not be free to report on abuses in the national security sphere because they could be prosecuted .'
p11
ss.