(dp1
S'input'
p2
(dp3
S'encoded'
p4
(lp5
I64
aI2179
aI43
aI63
aI134
aI116
aI400
aI21
aI34
aI3
aI260
aI45
aI3439
aI57
aI7
aI2381
asS'ori'
p6
S'This house believes that it is sometimes right for the government to restrict freedom of speech'
p7
ssS'output'
p8
(dp9
g4
(lp10
I24
aI89
aI2381
aI14
aI2871
aI6359
aI495
aI3007
aI2236
aI263
aI3
aI7234
aI7
aI3
aI2810
aI10049
aI7
aI3
aI2445
aI4930
aI7
aI3218
aI63765
asg6
S'In a speech on 5 October 1995  Pope John Paul II called the UDHR "one of the highest expressions of the human conscience of our time"  .'
p11
ss.