(dp1
S'input'
p2
(dp3
S'encoded'
p4
(lp5
I64
aI2179
aI394
aI2741
aI3
aI1560
aI6025
aI2784
asS'ori'
p6
S'This house would pass the American Jobs Act'
p7
ssS'output'
p8
(dp9
g4
(lp10
I3
aI1410
aI1486
aI7
aI196
aI1074
aI8875
aI196
aI92
aI3185
aI14
aI8875
aI251
aI24
aI3
aI52
aI5
aI16296
aI4835
aI24
aI5428
aI3210
aI158
aI89
aI36999
aI291
aI3
aI2855
aI5
aI3497
aI7
aI5787
aI60
aI2867
aI1065
aI2139
aI63765
asg6
S'The main types of unemployment include structural unemployment which focuses on structural problems in the economy and inefficiencies inherent in labour markets including a mismatch between the supply and demand of laborers with necessary skill sets .'
p11
ss.