(dp1
S'input'
p2
(dp3
S'encoded'
p4
(lp5
I64
aI2179
aI43
aI63
aI3
aI21
aI45
aI12715
aI417
aI99
aI316
aI2897
asS'ori'
p6
S'This house believes that the right to asylum should not be absolute'
p7
ssS'output'
p8
(dp9
g4
(lp10
I93
aI5995
aI2610
aI4769
aI13803
aI165
aI395
aI40
aI155
aI440
aI1032
aI7871
aI3
aI4056
aI7
aI51
aI6837
aI19
aI3
aI5354
aI6188
aI925
aI3
aI18471
aI1841
aI462
aI3
aI12970
aI5
aI13224
aI63
aI3
aI2711
aI13895
aI24
aI3
aI17009
aI31327
aI63765
asg6
S'One ex-Croydon Airport Immigration Officer recalled much later how they had simply monitored the arrival of an aircraft from the office window  counted the passengers coming down the steps and ensured that the numbers arriving in the terminal tallied .'
p11
ss.