(dp1
S'input'
p2
(dp3
S'encoded'
p4
(lp5
I64
aI2179
aI43
aI63
aI3
aI4538
aI7
aI4434
aI7793
aI283
aI45
aI3586
aI417
aI316
aI577
asS'ori'
p6
S'This house believes that the sale of violent video games to minors should be banned'
p7
ssS'output'
p8
(dp9
g4
(lp10
I7607
aI5269
aI11
aI17
aI6543
aI3515
aI959
aI2141
aI5
aI11
aI2118
aI45
aI89
aI3517
aI53
aI5119
aI5
aI20660
aI19902
aI139
aI316
aI344
aI41
aI958
aI138
aI2341
aI63765
asg6
S"Gaming communities have social elements beyond physical interaction and have come to a stage where online and offline spaces can be seen as 'merged' rather than separate  ."
p11
ss.