(dp1
S'input'
p2
(dp3
S'encoded'
p4
(lp5
I64
aI2179
aI43
aI63
aI6670
aI546
aI417
aI316
aI89
aI1334
aI3108
aI7
aI4849
aI1886
aI2855
asS'ori'
p6
S'This house believes that wind power should be a primary focus of future energy supply'
p7
ssS'output'
p8
(dp9
g4
(lp10
I3
aI3098
aI47
aI949
aI588
aI45
aI6775
aI7
aI6670
aI546
aI545
aI5240
aI20448
aI3342
aI3431
aI289
aI3
aI1608
aI45
aI2439
aI63765
asg6
S'The company will develop up to 150 MW of wind power within Big Stone County  Minnesota  over the next 5 to 7 years  .'
p11
ss.