(dp1
S'input'
p2
(dp3
S'encoded'
p4
(lp5
I64
aI2179
aI43
aI63
aI3
aI4538
aI7
aI4434
aI7793
aI283
aI45
aI3586
aI417
aI316
aI577
asS'ori'
p6
S'This house believes that the sale of violent video games to minors should be banned'
p7
ssS'output'
p8
(dp9
g4
(lp10
I24
aI3
aI873
aI27606
aI3
aI4370
aI7
aI4358
aI5047
aI63
aI604
aI155
aI500
aI99
aI142
aI3456
aI155
aI500
aI99
aI867
aI45
aI2240
aI14
aI311
aI870
aI93
aI1379
aI63765
asg6
S'In the 30 days antedating the survey  5 .5% of students reported that because they did not feel safe  they did not go to school on at least one day .'
p11
ss.