(dp1
S'input'
p2
(dp3
S'encoded'
p4
(lp5
I64
aI2179
aI394
aI2017
aI628
asS'ori'
p6
S'This house would ban gambling'
p7
ssS'output'
p8
(dp9
g4
(lp10
I3
aI16567
aI7
aI3
aI4232
aI3089
aI55
aI12
aI3
aI2195
aI7
aI1793
aI1593
aI63765
asg6
S"The timing of the Southern District's actions has been the subject of considerable discussion ."
p11
ss.