(dp1
S'input'
p2
(dp3
S'encoded'
p4
(lp5
I64
aI2179
aI43
aI63
aI323
aI417
aI10009
aI211
aI9035
aI249
aI45
aI3426
aI211
aI2144
aI595
aI17
aI96
asS'ori'
p6
S'This house believes that Europe should weaken its austerity measures to guarantee its citizens greater social support'
p7
ssS'output'
p8
(dp9
g4
(lp10
I311
aI3
aI1608
aI9101
aI24
aI2927
aI3
aI2351
aI1727
aI375
aI7783
aI24
aI8947
aI5
aI2933
aI987
aI34
aI292
aI1727
aI63
aI63765
asg6
S'At the next auction in March  the Financial Times again reported: "Athens sold 5bn in 10-year bonds and received orders for three times that amount"  .'
p11
ss.