(dp1
S'input'
p2
(dp3
S'encoded'
p4
(lp5
I64
aI2179
aI394
aI5370
aI7146
aI4585
aI2446
asS'ori'
p6
S'This house would abolish intellectual property rights'
p7
ssS'output'
p8
(dp9
g4
(lp10
I3168
aI7
aI4585
aI1817
aI2794
aI3
aI47153
aI216
aI910
aI8009
aI4249
aI12007
aI159
aI41
aI11144
aI18625
aI81
aI615
aI7208
aI41
aI261
aI41
aI52255
aI12007
aI675
aI13834
aI17584
aI63765
asg6
S"Proudhon's theory of property greatly influenced the budding socialist movement  inspiring anarchist theorists such as Mikhail Bakunin who modified Proudhon's ideas  as well as antagonizing theorists like Karl Marx ."
p11
ss.