(dp1
S'input'
p2
(dp3
S'encoded'
p4
(lp5
I64
aI2179
aI43
aI8629
aI116
aI3
aI117
aI998
asS'ori'
p6
S'This house believes atheism is the only way'
p7
ssS'output'
p8
(dp9
g4
(lp10
I3
aI3730
aI437
aI1379
aI4254
aI910
aI32
aI3
aI1643
aI103
aI34
aI1343
aI2178
aI7
aI10039
aI4991
aI7
aI10039
aI4991
aI7
aI8440
aI10039
aI4991
aI7
aI8440
aI10039
aI7
aI437
aI1379
aI10041
aI4991
aI7
aI8440
aI10039
aI7102
aI63765
asg6
S'The whole Latter Day Saint movement makes the same claim for example Community of Christ  Church of Christ (Temple Lot)  Church of Jesus Christ (Bickertonite)  Church of Jesus Christ of Latter Day Saints (Strangite)  Church of Jesus Christ (Cutlerite)  etc .'
p11
ss.