(dp1
S'input'
p2
(dp3
S'encoded'
p4
(lp5
I64
aI2179
aI13605
aI2258
aI45
aI2194
asS'ori'
p6
S'This house prefers trade to aid'
p7
ssS'output'
p8
(dp9
g4
(lp10
I42
aI928
aI63
aI2258
aI12905
aI5
aI3301
aI2610
aI5
aI2598
aI189
aI16543
aI2203
aI7
aI120
aI1808
aI63765
asg6
S'He demonstrated that trade barriers  and restrictive immigration and population policies deprive countries of those gains .'
p11
ss.