(dp1
S'input'
p2
(dp3
S'encoded'
p4
(lp5
I64
aI2179
aI43
aI63
aI6670
aI546
aI417
aI316
aI89
aI1334
aI3108
aI7
aI4849
aI1886
aI2855
asS'ori'
p6
S'This house believes that wind power should be a primary focus of future energy supply'
p7
ssS'output'
p8
(dp9
g4
(lp10
I5105
aI5197
aI7
aI45
aI373
aI279
aI63765
asg6
S'Turbine sizes of 1 .5&nbsp;MW to 3&nbsp;MW became common .'
p11
ss.