(dp1
S'input'
p2
(dp3
S'encoded'
p4
(lp5
I64
aI2179
aI43
aI63
aI1036
aI4828
aI33250
aI116
aI25073
aI45
aI3315
aI4562
asS'ori'
p6
S'This house believes that male infant circumcision is tantamount to child abuse'
p7
ssS'output'
p8
(dp9
g4
(lp10
I768
aI89
aI1546
aI7
aI8526
aI2586
aI4722
aI63
aI122
aI5272
aI24
aI1686
aI14955
aI7
aI3
aI18795
aI63765
asg6
S'Then  a change of attitude began  something that was reflected in successive editions of the Encyclopdia Britannica:  .'
p11
ss.