(dp1
S'input'
p2
(dp3
S'encoded'
p4
(lp5
I64
aI2179
aI394
aI2017
aI3807
aI314
aI3433
asS'ori'
p6
S'This house would ban partial birth abortions'
p7
ssS'output'
p8
(dp9
g4
(lp10
I880
aI3031
aI3646
aI3647
aI3646
aI3648
aI47
aI316
aI3649
aI63
aI223
aI3
aI3650
aI7
aI2248
aI3306
aI182
aI759
aI7
aI3
aI2475
aI63765
asg6
S'Neither historian  nor layman  nor lawyer will be persuaded that all the prescriptions of Justice Blackmun are part of the Constitution .'
p11
ss.