(dp1
S'input'
p2
(dp3
S'encoded'
p4
(lp5
I64
aI2179
aI394
aI5370
aI223
aI4013
aI10440
aI2446
aI4881
aI75
aI14482
aI11004
asS'ori'
p6
S'This house would abolish all collective bargaining rights claimed by trades unions'
p7
ssS'output'
p8
(dp9
g4
(lp10
I3
aI2546
aI2258
aI2131
aI2133
aI24
aI3
aI285
aI116
aI3
aI282
aI2258
aI2131
aI6127
aI92
aI55
aI2151
aI10238
aI8281
aI24
aI2203
aI5
aI5555
aI60
aI89
aI4341
aI3834
aI7
aI2639
aI63765
asg6
S'The largest trade union federation in the world is the Brussels-based International Trade Union Confederation (ITUC)  which has approximately 309 affiliated organisations in 156 countries and territories  with a combined membership of 166 million .'
p11
ss.