(dp1
S'input'
p2
(dp3
S'encoded'
p4
(lp5
I64
aI2179
aI394
aI5370
aI3
aI5286
asS'ori'
p6
S'This house would abolish the monarchy'
p7
ssS'output'
p8
(dp9
g4
(lp10
I114
aI3
aI5301
aI5
aI2789
aI7
aI732
aI3874
aI174
aI2784
aI41
aI7
aI380
aI27796
aI24
aI3
aI2157
aI132
aI6760
aI182
aI117
aI6405
aI24
aI580
aI3944
aI3
aI1362
aI60
aI3
aI2157
aI620
aI7600
aI24
aI2157
aI6525
aI15
aI311
aI3900
aI5
aI2192
aI63765
asg6
S"Though the monarch and members of her family also act as Colonels-in-Chief of various regiments in the military  these posts are only ceremonial in nature  reflecting the Crown's relationship with the military through participation in military ceremonies both at home and abroad ."
p11
ss.