(dp1
S'input'
p2
(dp3
S'encoded'
p4
(lp5
I64
aI2179
aI43
aI17
aI4941
aI857
aI3211
asS'ori'
p6
S'This house believes social deprivation causes crime'
p7
ssS'output'
p8
(dp9
g4
(lp10
I1890
aI3
aI3730
aI2178
aI47
aI24484
aI3
aI17541
aI41
aI89
aI27623
aI5
aI3
aI17541
aI47
aI99
aI316
aI1031
aI45
aI9480
aI64
aI131
aI47
aI990
aI7246
aI25
aI73
aI732
aI2210
aI41
aI89
aI3135
aI5
aI47
aI4447
aI3135
aI1647
aI63
aI791
aI3
aI2210
aI7
aI89
aI3135
aI63765
asg6
S'Eventually  the whole community will stigmatize the actor as a deviant and the actor will not be able to tolerate this  but will ultimately accept his or her role as a criminal  and will commit criminal acts that fit the role of a criminal .'
p11
ss.