(dp1
S'input'
p2
(dp3
S'encoded'
p4
(lp5
I64
aI2179
aI394
aI163
aI959
aI2042
aI3557
asS'ori'
p6
S'This house would make physical education compulsory'
p7
ssS'output'
p8
(dp9
g4
(lp10
I134
aI122
aI279
aI887
aI177
aI5726
aI24
aI323
aI24
aI3
aI2653
aI5755
aI5
aI3
aI6313
aI41
aI261
aI41
aI24
aI66
aI2087
aI2646
aI13078
aI63765
asg6
S'It was common among high officials in Europe in the Middle Ages and the Renaissance as well as in Ancient East Asian civilizations  .'
p11
ss.