(dp1
S'input'
p2
(dp3
S'encoded'
p4
(lp5
I64
aI2179
aI394
aI16756
aI20435
asS'ori'
p6
S'This house would criminalize blasphemy'
p7
ssS'output'
p8
(dp9
g4
(lp10
I134
aI174
aI742
aI63
aI134
aI394
aI316
aI795
aI89
aI290
aI7
aI658
aI5460
aI45
aI12011
aI89
aI4276
aI34
aI5344
aI2477
aI46
aI63765
asg6
S'It also said that it would be holding a series of public meetings to launch a campaign for secular constitutional reform  .'
p11
ss.