(dp1
S'input'
p2
(dp3
S'encoded'
p4
(lp5
I64
aI2179
aI394
aI5370
aI7146
aI4585
aI2446
asS'ori'
p6
S'This house would abolish intellectual property rights'
p7
ssS'output'
p8
(dp9
g4
(lp10
I52243
aI742
aI63
aI3
aI232
aI7
aI6420
aI116
aI2160
aI45
aI63
aI7
aI52244
aI63
aI5332
aI182
aI131
aI3862
aI755
aI32800
aI73
aI16393
aI5
aI63
aI4585
aI2446
aI182
aI8371
aI45
aI3
aI4450
aI7500
aI63
aI89
aI4928
aI88
aI12231
aI864
aI887
aI25
aI45
aI84
aI611
aI5
aI15342
aI7
aI233
aI45
aI25
aI15620
aI63765
asg6
S'Filmer said that the institution of kingship is analogous to that of fatherhood  that subjects are but children  whether obedient or unruly  and that property rights are akin to the household goods that a father may dole out among his children&mdash;his to take back and dispose of according to his pleasure .'
p11
ss.