(dp1
S'input'
p2
(dp3
S'encoded'
p4
(lp5
I64
aI2179
aI394
aI3830
aI3
aI475
aI7
aI9441
aI13132
aI3102
aI24
aI276
aI381
asS'ori'
p6
S'This house would permit the use of performance enhancing drugs in professional sports'
p7
ssS'output'
p8
(dp9
g4
(lp10
I7439
aI51
aI2278
aI6840
aI7
aI21164
aI116
aI513
aI4713
aI24
aI217
aI368
aI2203
aI226
aI7439
aI1237
aI31213
aI116
aI344
aI41
aI51
aI4562
aI63765
asg6
S'Drinking an occasional glass of wine is considered acceptable in most Western countries  while drinking several bottles is seen as an abuse .'
p11
ss.