(dp1
S'input'
p2
(dp3
S'encoded'
p4
(lp5
I64
aI2179
aI394
aI5370
aI223
aI4013
aI10440
aI2446
aI4881
aI75
aI14482
aI11004
asS'ori'
p6
S'This house would abolish all collective bargaining rights claimed by trades unions'
p7
ssS'output'
p8
(dp9
g4
(lp10
I488
aI23924
aI24
aI23925
aI382
aI13225
aI75
aI89
aI7652
aI5
aI8274
aI864
aI7
aI2082
aI63765
asg6
S'Seventeen Wobblies in Tulsa were beaten by a mob and driven out of town  .'
p11
ss.