(dp1
S'input'
p2
(dp3
S'encoded'
p4
(lp5
I64
aI2179
aI43
aI3
aI626
aI187
aI116
aI1989
aI34
aI3102
aI2223
asS'ori'
p6
S"This house believes the United States is responsible for Mexico's drugs war"
p7
ssS'output'
p8
(dp9
g4
(lp10
I120
aI311
aI3
aI7807
aI500
aI99
aI2463
aI270
aI3
aI12611
aI131
aI4336
aI17480
aI394
aI4319
aI475
aI134
aI24
aI51
aI1222
aI45
aI671
aI3
aI1852
aI2170
aI63765
asg6
S'Those at the meeting did not suggest using the "gunwalking" tactic  but ATF supervisors would soon use it in an attempt to achieve the desired goals  .'
p11
ss.