(dp1
S'input'
p2
(dp3
S'encoded'
p4
(lp5
I64
aI2179
aI394
aI2773
aI12505
asS'ori'
p6
S'This house would embrace multiculturalism'
p7
ssS'output'
p8
(dp9
g4
(lp10
I17
aI8533
aI28467
aI53690
aI5
aI732
aI3417
aI34
aI1343
aI2036
aI24
aI271
aI2041
aI63
aI725
aI78
aI81
aI715
aI982
aI14
aI89
aI12379
aI3274
aI1057
aI45
aI1453
aI194
aI24
aI1633
aI2637
aI21858
aI63
aI58189
aI12379
aI63765
aI270
aI4612
aI159
aI41
aI73
aI63765
asg6
S'Social psychologist Patricia Devine and her colleagues  for example  showed in their research that many people who score low on a prejudice test tend to do things in cross cultural encounters that exemplify prejudice (e .g .  using out-dated labels such as "illegal aliens" or "colored" .) .'
p11
ss.