(dp1
S'input'
p2
(dp3
S'encoded'
p4
(lp5
I64
aI2179
aI43
aI63
aI3376
aI4938
aI417
aI316
aI3537
asS'ori'
p6
S'This house believes that endangered species should be protected'
p7
ssS'output'
p8
(dp9
g4
(lp10
I3
aI2497
aI6793
aI5245
aI122
aI451
aI41
aI3
aI5489
aI7
aI89
aI2333
aI557
aI311
aI3
aI4750
aI7
aI2300
aI4347
aI2001
aI24
aI1137
aI7802
aI2300
aI24
aI3550
aI75
aI7803
aI7804
aI7805
aI5
aI1216
aI5076
aI63765
aI7806
aI63765
asg6
S'The term conservation biology was introduced as the title of a conference held at the University of California  San Diego in La Jolla  California in 1978 organized by biologists Bruce Wilcox and Michael E . Soule .'
p11
ss.