(dp1
S'input'
p2
(dp3
S'encoded'
p4
(lp5
I64
aI2179
aI394
aI10662
aI626
aI187
aI2157
aI2697
aI19
aI2371
asS'ori'
p6
S'This house would remove United States military bases from Japan'
p7
ssS'output'
p8
(dp9
g4
(lp10
I134
aI122
aI4635
aI378
aI63
aI2371
aI463
aI99
aI2118
aI45
aI3
aI720
aI7
aI3
aI626
aI187
aI604
aI134
aI122
aI3536
aI2043
aI45
aI5678
aI2218
aI2219
aI8273
aI63765
asg6
S'It was understood  however  that Japan could not come to the defense of the United States because it was constitutionally forbidden to send armed forces overseas (Article 9) .'
p11
ss.