(dp1
S'input'
p2
(dp3
S'encoded'
p4
(lp5
I64
aI2179
aI43
aI63
aI3
aI4990
aI4991
aI116
aI4850
aI24
aI12166
aI3
aI475
aI7
aI3532
aI3290
aI7
aI4714
asS'ori'
p6
S'This house believes that the Catholic Church is justified in forbidding the use of barrier methods of contraception'
p7
ssS'output'
p8
(dp9
g4
(lp10
I3068
aI480
aI24
aI19
aI3
aI4750
aI7
aI2298
aI2015
aI5721
aI5
aI3
aI285
aI3217
aI2134
aI353
aI570
aI2038
aI5035
aI7
aI63765
asg6
S'Analysis published in 2007 from the University of Texas Medical Branch  and the World Health Organization found similar risk reductions of 8095% .'
p11
ss.