(dp1
S'input'
p2
(dp3
S'encoded'
p4
(lp5
I64
aI2179
aI43
aI63
aI2659
aI417
aI1690
aI3
aI12048
aI7
aI19084
asS'ori'
p6
S'This house believes that Israel should lift the blockade of Gaza'
p7
ssS'output'
p8
(dp9
g4
(lp10
I7
aI3
aI9107
aI11186
aI382
aI14
aI3
aI611
aI7
aI25
aI760
aI3375
aI34
aI3
aI619
aI11225
aI92
aI4012
aI3
aI21
aI7
aI25
aI3
aI905
aI3041
aI63765
asg6
S'"All of the entry wounds were on the back of his body except for the face wound  which entered the right of his nose"  the report concluded .'
p11
ss.