(dp1
S'input'
p2
(dp3
S'encoded'
p4
(lp5
I64
aI2179
aI394
aI190
aI3
aI21
aI45
aI3895
aI834
asS'ori'
p6
S'This house would limit the right to bear arms'
p7
ssS'output'
p8
(dp9
g4
(lp10
I24
aI89
aI2017
aI14
aI77
aI648
aI4437
aI122
aI871
aI3756
aI2144
aI19
aI4572
aI4437
aI159
aI41
aI3
aI5
aI3
aI887
aI248
aI648
aI4437
aI63765
asg6
S'In 2003  a ban on certain assault rifles was passed restricting citizens from possessing military-style rifles such as the AK-47 and the M-16  among other assault rifles  .'
p11
ss.