(dp1
S'input'
p2
(dp3
S'encoded'
p4
(lp5
I64
aI2179
aI43
aI223
aI2138
aI11
aI89
aI21
aI45
aI2185
aI372
asS'ori'
p6
S'This house believes all nations have a right to nuclear weapons'
p7
ssS'output'
p8
(dp9
g4
(lp10
I233
aI45
aI3
aI5469
aI7
aI3
aI2417
aI6834
aI2164
aI7
aI3
aI626
aI187
aI2818
aI2874
aI2046
aI60
aI89
aI27957
aI2185
aI1767
aI63765
asg6
S'According to the Bulletin of the Atomic Scientists  "the president of the United States directly threatened Iran with a preemptive nuclear strike .'
p11
ss.