(dp1
S'input'
p2
(dp3
S'encoded'
p4
(lp5
I64
aI2179
aI43
aI63
aI820
aI12564
aI182
aI3
aI217
aI1112
aI1869
aI7
aI10656
aI4672
aI34
aI5276
asS'ori'
p6
S'This house believes that open primaries are the most effective method of selecting candidates for elections'
p7
ssS'output'
p8
(dp9
g4
(lp10
I113
aI64
aI399
aI7
aI11959
aI139
aI117
aI11
aI51
aI782
aI257
aI3
aI3799
aI9103
aI34
aI3
aI1881
aI744
aI116
aI470
aI63
aI12646
aI9103
aI73
aI271
aI3799
aI9103
aI34
aI3
aI1881
aI12647
aI116
aI2510
aI134
aI63765
asg6
S"Even this form of exaggeration can only have an effect if the voter's honest rating for the intended winner is below that candidate's median rating or their honest rating for the intended loser is above it ."
p11
ss.