(dp1
S'input'
p2
(dp3
S'encoded'
p4
(lp5
I64
aI2179
aI43
aI223
aI2138
aI11
aI89
aI21
aI45
aI2185
aI372
asS'ori'
p6
S'This house believes all nations have a right to nuclear weapons'
p7
ssS'output'
p8
(dp9
g4
(lp10
I3
aI3592
aI7
aI3
aI16587
aI24
aI8722
aI2425
aI45
aI3
aI10730
aI226
aI5903
aI96
aI2425
aI45
aI89
aI2528
aI19
aI3
aI282
aI2483
aI7
aI2248
aI493
aI3
aI626
aI187
aI24
aI8722
aI646
aI63765
aI626
aI187
aI63765
asg6
S'The funding of the Contras in Nicaragua led to the Iran-Contra Affair  while overt support led to a ruling from the International Court of Justice against the United States in Nicaragua v . United States .'
p11
ss.