(dp1
S'input'
p2
(dp3
S'encoded'
p4
(lp5
I64
aI2179
aI43
aI223
aI2138
aI11
aI89
aI21
aI45
aI2185
aI372
asS'ori'
p6
S'This house believes all nations have a right to nuclear weapons'
p7
ssS'output'
p8
(dp9
g4
(lp10
I24
aI425
aI863
aI2692
aI5615
aI78
aI557
aI89
aI19366
aI1767
aI34
aI136
aI138
aI89
aI3427
aI1642
aI3
aI10345
aI260
aI3079
aI24
aI37636
aI4996
aI45
aI8672
aI3328
aI953
aI34
aI3
aI3772
aI47375
aI2185
aI546
aI1344
aI5156
aI3
aI18202
aI9124
aI47376
aI15162
aI7145
aI63765
asg6
S'In January 2011  five Japanese young people held a hunger strike for more than a week  outside the Prefectural Government offices in Yamaguchi City  to protest site preparation for the planned Kaminoseki Nuclear Power Plant near the environmentally sensitive Seto Inland Sea  .'
p11
ss.