(dp1
S'input'
p2
(dp3
S'encoded'
p4
(lp5
I64
aI2179
aI394
aI16642
aI1376
aI5269
asS'ori'
p6
S'This house would subsidize poor communities'
p7
ssS'output'
p8
(dp9
g4
(lp10
I139
aI316
aI41
aI572
aI41
aI16287
aI182
aI913
aI45
aI5815
aI23111
aI212
aI2755
aI7
aI1621
aI116
aI99
aI3493
aI75
aI7528
aI45
aI3
aI1643
aI6
aI41
aI3252
aI1621
aI3964
aI1621
aI88
aI7747
aI45
aI3006
aI5205
aI5
aI3217
aI2554
aI516
aI127
aI4532
aI298
aI17468
aI12037
aI256
aI182
aI6212
aI45
aI7184
aI85
aI34
aI3862
aI5
aI4587
aI73
aI23112
aI3534
aI3
aI839
aI3545
aI7
aI3964
aI447
aI8678
aI7167
aI45
aI16287
aI5173
aI5
aI6676
aI7
aI3964
aI2535
aI89
aI1445
aI3996
aI45
aI6375
aI5136
aI3
aI16142
aI6676
aI5
aI5200
aI7
aI3964
aI88
aI836
aI14762
aI24
aI3210
aI12037
aI256
aI876
aI124
aI3941
aI60
aI23113
aI45
aI124
aI3862
aI60
aI3964
aI311
aI3900
aI298
aI23105
aI182
aI2396
aI134
aI1019
aI316
aI17645
aI755
aI3
aI1881
aI3136
aI161
aI19
aI3
aI3964
aI5649
aI153
aI3181
aI45
aI3926
aI3162
aI3964
aI23067
aI182
aI136
aI1856
aI45
aI316
aI2195
aI45
aI7300
aI5
aI7196
aI63765
asg6
S'|- Can be self-targeted as long as commodities are limited to inferior foodsThe real value of food-based transfers is not affected by inflation to the same extent as cash transfers Food transfers may contribute to improved learning and health status Additional benefits exist when supplementary feeding programs are linked to adequate care for children and prospective or lactating mothers The direct provision of food limits consumers choices to commodities Storage and transport of food adds a large element to administrative costs The procurement  transport  and distribution of food may create distortions in markets Feeding programs might provide households with disincentives to provide children with food at home When take-home rations are provided  it cannot be ascertained whether the intended groups benefit from the food supplied Often biased to urban populations Food stamps are more likely to be subject to theft and fraud   .'
p11
ss.