(dp1
S'input'
p2
(dp3
S'encoded'
p4
(lp5
I64
aI2179
aI394
aI190
aI3
aI21
aI45
aI3895
aI834
asS'ori'
p6
S'This house would limit the right to bear arms'
p7
ssS'output'
p8
(dp9
g4
(lp10
I17358
aI98
aI24
aI68
aI1074
aI24
aI3
aI877
aI7
aI25
aI479
aI1237
aI16880
aI8994
aI45
aI3
aI1068
aI34
aI1706
aI2035
aI7
aI2287
aI2617
aI5
aI211
aI857
aI5
aI2466
aI63765
asg6
S'Kellermann does in fact include in the conclusion of his 1993 paper several paragraphs referring to the need for further study of domestic violence and its causes and prevention .'
p11
ss.