(dp1
S'input'
p2
(dp3
S'encoded'
p4
(lp5
I64
aI2179
aI43
aI63
aI7382
aI116
aI400
aI4713
asS'ori'
p6
S'This house believes that bribery is sometimes acceptable'
p7
ssS'output'
p8
(dp9
g4
(lp10
I64
aI79
aI116
aI153
aI4004
aI60
aI305
aI89
aI11055
aI5
aI1854
aI3
aI845
aI7
aI7170
aI736
aI177
aI126
aI2891
aI2136
aI13502
aI63765
asg6
S'This work is often credited with breaking a taboo and forcing the issue of corruption into high level development policy discourse .'
p11
ss.