(dp1
S'input'
p2
(dp3
S'encoded'
p4
(lp5
I64
aI2179
aI394
aI2017
aI628
asS'ori'
p6
S'This house would ban gambling'
p7
ssS'output'
p8
(dp9
g4
(lp10
I97
aI2035
aI2449
aI3446
aI112
aI45
aI3446
aI628
aI9000
aI5
aI353
aI63
aI628
aI985
aI755
aI73
aI99
aI3
aI2696
aI116
aI24
aI89
aI8959
aI63765
aI64
aI3487
aI47
aI7397
aI187
aI45
aI8052
aI24
aI89
aI232
aI63
aI116
aI13549
aI63765
aI397
aI3
aI320
aI8959
aI47135
aI628
aI2322
aI113
aI114
aI3
aI8959
aI21037
aI3446
aI112
aI45
aI63765
aI64
aI2981
aI47136
aI7
aI628
aI45
aI3
aI4658
aI7
aI9002
asg6
S'Another study compared personal income to personal gambling expenditure and found that gambling occurs whether or not the country is in a recession . This aspect will attract states to invest in a institution that is basically recession-proof . During the Early 1990s recession  GGR (Gross Gambling Revenue) increased 9 .4% even though the recession slowed personal income to 5 .95% . This shows reslience of gambling to the effects of recessions '
p11
ss.