(dp1
S'input'
p2
(dp3
S'encoded'
p4
(lp5
I64
aI2179
aI43
aI8629
aI116
aI3
aI117
aI998
asS'ori'
p6
S'This house believes atheism is the only way'
p7
ssS'output'
p8
(dp9
g4
(lp10
I24
aI89
aI4772
aI7
aI2555
aI45
aI1082
aI39145
aI22158
aI1729
aI25
aI3293
aI63765
asg6
S'In a letter of September 23  1860  to Charles Kingsley  Huxley discussed his views extensively:  .'
p11
ss.