(dp1
S'input'
p2
(dp3
S'encoded'
p4
(lp5
I64
aI2179
aI394
aI4325
aI2042
aI270
aI89
aI11605
aI3324
asS'ori'
p6
S'This house would fund education using a voucher scheme'
p7
ssS'output'
p8
(dp9
g4
(lp10
I24
aI42
aI3613
aI5
aI451
aI89
aI9596
aI24
aI3
aI2145
aI63765
aI2179
aI7
aI5260
aI15359
aI63
aI15890
aI7
aI89
aI5262
aI394
aI316
aI225
aI5
aI14729
aI45
aI229
aI9934
aI89
aI9596
aI63
aI122
aI3092
aI75
aI3
aI1560
aI3202
aI9934
aI2131
aI63765
asg6
S'In 2002 he authored and introduced a resolution in the U .S . House of Representatives expressing that reinstatement of a draft would be unnecessary and detrimental to individual liberties  a resolution that was endorsed by the American Civil Liberties Union  .'
p11
ss.