(dp1
S'input'
p2
(dp3
S'encoded'
p4
(lp5
I64
aI2179
aI43
aI223
aI2138
aI11
aI89
aI21
aI45
aI2185
aI372
asS'ori'
p6
S'This house believes all nations have a right to nuclear weapons'
p7
ssS'output'
p8
(dp9
g4
(lp10
I24
aI47408
aI47409
aI78
aI4161
aI24
aI3
aI8686
aI7
aI3
aI4996
aI7
aI47408
aI3
aI3900
aI7
aI3
aI47410
aI5190
aI929
aI5
aI3
aI2185
aI5181
aI7
aI44756
aI7373
aI546
aI7589
aI63765
asg6
S'In Tsuruga  Fukui  1 200 people marched in the streets of the city of Tsuruga  the home of the Monju fast-breeder reactor prototype and the nuclear reactors of Kansai Electric Power Co .'
p11
ss.