(dp1
S'input'
p2
(dp3
S'encoded'
p4
(lp5
I64
aI2179
aI43
aI63
aI3376
aI4938
aI417
aI316
aI3537
asS'ori'
p6
S'This house believes that endangered species should be protected'
p7
ssS'output'
p8
(dp9
g4
(lp10
I15
aI1249
aI1461
aI378
aI63
aI1888
aI7797
aI116
aI2867
aI45
aI1476
aI3
aI7798
aI2994
aI5
aI3114
aI51
aI4835
aI2755
aI24
aI3
aI2196
aI8085
aI14
aI40
aI45
aI8045
aI913
aI6793
aI2635
aI24
aI3
aI217
aI5084
aI1112
aI998
aI63765
asg6
S'Both sides agree  however  that conserving biodiversity is necessary to reduce the extinction rate and identify an inherent value in nature; the debate hinges on how to prioritize limited conservation resources in the most cost effective way .'
p11
ss.