(dp1
S'input'
p2
(dp3
S'encoded'
p4
(lp5
I64
aI2179
aI394
aI2017
aI3807
aI314
aI3433
asS'ori'
p6
S'This house would ban partial birth abortions'
p7
ssS'output'
p8
(dp9
g4
(lp10
I132
aI3760
aI2446
aI3727
aI2100
aI31668
aI32388
aI1316
aI32389
aI5
aI12451
aI32390
aI395
aI24
aI3269
aI32389
aI373
aI89
aI7024
aI5
aI5788
aI45
aI63765
asg6
S'These reproductive rights activists included Betty Friedan  Bernard Nathanson  and Gloria Steinem (however  later in life Nathanson became a pro-life activist and converted to Catholicism) .'
p11
ss.