(dp1
S'input'
p2
(dp3
S'encoded'
p4
(lp5
I64
aI2179
aI43
aI63
aI3
aI4538
aI7
aI4434
aI7793
aI283
aI45
aI3586
aI417
aI316
aI577
asS'ori'
p6
S'This house believes that the sale of violent video games to minors should be banned'
p7
ssS'output'
p8
(dp9
g4
(lp10
I2198
aI34
aI3
aI4434
aI2738
aI7
aI7793
aI319
aI3905
aI55
aI2118
aI19
aI89
aI696
aI7
aI3136
aI5
aI3472
aI3
aI217
aI3612
aI7
aI132
aI182
aI3
aI1872
aI2767
aI3609
aI3136
aI63765
asg6
S'Criticism for the violent aspects of video game culture has come from a number of anti-violence groups  and perhaps the most vocal of these are the numerous religious opposition groups .'
p11
ss.