(dp1
S'input'
p2
(dp3
S'encoded'
p4
(lp5
I64
aI2179
aI43
aI63
aI3
aI21
aI45
aI12715
aI417
aI99
aI316
aI2897
asS'ori'
p6
S'This house believes that the right to asylum should not be absolute'
p7
ssS'output'
p8
(dp9
g4
(lp10
I5267
aI3
aI3445
aI7
aI2812
aI3136
aI75
aI3
aI2692
aI9067
aI116
aI384
aI19
aI63
aI416
aI24
aI874
aI1560
aI73
aI100
aI368
aI1565
aI9067
aI63765
asg6
S'Indeed  the concept of ethnic groups by the Japanese statistics is different from that used in North American or some Western European statistics .'
p11
ss.