(dp1
S'input'
p2
(dp3
S'encoded'
p4
(lp5
I64
aI2179
aI394
aI163
aI959
aI2042
aI3557
asS'ori'
p6
S'This house would make physical education compulsory'
p7
ssS'output'
p8
(dp9
g4
(lp10
I45
aI1223
aI7993
aI134
aI116
aI1185
aI45
aI268
aI24
aI959
aI364
aI63765
asg6
S'To stay healthy it is important to engage in physical activity  .'
p11
ss.