(dp1
S'input'
p2
(dp3
S'encoded'
p4
(lp5
I64
aI2179
aI43
aI24
aI3
aI475
aI7
aI12436
aI3364
asS'ori'
p6
S'This house believes in the use of affirmative action'
p7
ssS'output'
p8
(dp9
g4
(lp10
I113
aI114
aI159
aI5287
aI1054
aI3350
aI366
aI3
aI4515
aI7
aI3
aI16688
aI311
aI3
aI5099
aI7
aI155
aI400
aI44488
aI588
aI63765
asg6
S'Even though such sentiments gradually declined after the release of the hostages at the start of 1981  they sometimes flare up .'
p11
ss.