(dp1
S'input'
p2
(dp3
S'encoded'
p4
(lp5
I64
aI2179
aI43
aI63
aI3
aI4990
aI4991
aI116
aI4850
aI24
aI12166
aI3
aI475
aI7
aI3532
aI3290
aI7
aI4714
asS'ori'
p6
S'This house believes that the Catholic Church is justified in forbidding the use of barrier methods of contraception'
p7
ssS'output'
p8
(dp9
g4
(lp10
I93
aI905
aI3725
aI63
aI20693
aI78
aI4031
aI45
aI3
aI7147
aI958
aI138
aI45
aI89
aI2015
aI276
aI34
aI5224
aI14
aI39860
aI45
aI89
aI166
aI4927
aI138
aI34
aI248
aI8803
aI251
aI63765
asg6
S'One report indicated that afflicted people turn to the Internet rather than to a medical professional for information on STIs to a higher degree than for other sexual problems  .'
p11
ss.