(dp1
S'input'
p2
(dp3
S'encoded'
p4
(lp5
I64
aI2179
aI43
aI8629
aI116
aI3
aI117
aI998
asS'ori'
p6
S'This house believes atheism is the only way'
p7
ssS'output'
p8
(dp9
g4
(lp10
I24
aI10954
aI7
aI64
aI234
aI3
aI5510
aI493
aI11458
aI18459
aI75
aI8357
aI10501
aI89
aI6359
aI7
aI3
aI4990
aI4991
aI21865
aI21866
aI21867
aI4386
aI19766
aI21868
aI21869
aI21870
aI2828
aI21871
aI4386
aI21872
aI21873
aI20026
aI21874
aI21875
aI4386
aI21876
aI21877
aI21878
aI21879
aI21880
aI21881
aI21882
aI21883
asg6
S'In condemnation of this view the Oath Against Modernism formulated by Pius X  a Pope of the Catholic Church  says: "Deum. naturali rationis lumine per ea quae facta sunt  hoc est per visibilia creationis opera  tanquam causam per effectus certo cognosci adeoque demostrari etiam posse  profiteor ."'
p11
ss.