(dp1
S'input'
p2
(dp3
S'encoded'
p4
(lp5
I64
aI2179
aI43
aI63
aI134
aI116
aI400
aI21
aI34
aI3
aI260
aI45
aI3439
aI57
aI7
aI2381
asS'ori'
p6
S'This house believes that it is sometimes right for the government to restrict freedom of speech'
p7
ssS'output'
p8
(dp9
g4
(lp10
I134
aI1298
aI3557
aI475
aI7
aI3
aI4169
aI3657
aI24
aI223
aI441
aI5
aI3953
aI5583
aI63765
aI41
aI89
aI839
aI7346
aI5583
aI5938
aI6941
aI24
aI2265
aI11
aI2244
aI60
aI5392
aI45
aI61
aI725
aI7
aI86
aI12517
aI41
aI19856
aI7149
aI63765
asg6
S'It requires "the compulsory use of the French language in all [public] written .radio and television advertising . ." As a direct consequence  advertising industry workers in France have expressed "frustration with regards to what many of them perceive as linguistic censorship .'
p11
ss.