(dp1
S'input'
p2
(dp3
S'encoded'
p4
(lp5
I64
aI2179
aI43
aI63
aI2157
aI2565
aI493
aI19084
aI382
aI4850
asS'ori'
p6
S"This house believes that Israel's 2008-2009 military operations against Gaza were justified"
p7
ssS'output'
p8
(dp9
g4
(lp10
I3
aI905
aI2538
aI63
aI6056
aI2219
aI382
aI24
aI9364
aI3
aI475
aI7
aI965
aI31277
aI24
aI2506
aI63765
aI3
aI1367
aI4292
aI3
aI6056
aI1274
aI14
aI3
aI2800
aI335
aI5
aI95
aI2904
aI25385
aI24
aI19084
aI4996
aI14
aI425
aI3
aI1274
aI14
aI3
aI4047
aI20362
aI3644
aI5
aI3
aI1274
aI14
aI3
aI4047
aI53764
aI3644
aI574
aI7
aI92
aI2686
aI270
aI965
aI31277
aI63765
aI155
aI1545
aI211
aI475
aI41
aI12618
aI73
aI7045
aI459
aI282
aI70
aI63765
aI136
aI246
aI3
aI2800
aI905
aI3394
aI63
aI3480
aI417
aI316
aI575
aI45
aI3593
aI3
aI475
aI7
aI965
aI31277
aI24
aI2506
aI63765
asg6
S'The report says that Israeli forces were "systematically reckless" in determining the use of white phosphorus in built-up areas  . The writers highlighted the Israeli attack on the UN Relief and Works Agency compound in Gaza City on 15 January  the attack on the Al Quds hospital  and the attack on the Al Wafa hospital  each of which involved using white phosphorus . They described its use as disproportionate or excessive under international law . More generally  the UN report recommended that "serious consideration should be given to banning the use of white phosphorus in built-up areas .'
p11
ss.