(dp1
S'input'
p2
(dp3
S'encoded'
p4
(lp5
I64
aI2179
aI394
aI2017
aI262
asS'ori'
p6
S'This house would ban boxing'
p7
ssS'output'
p8
(dp9
g4
(lp10
I206
aI2623
aI7915
aI89
aI381
aI2008
aI55
aI12
aI353
aI45
aI316
aI89
aI2369
aI5085
aI1879
aI3
aI11560
aI7
aI89
aI2008
aI24
aI3
aI4849
aI63765
asg6
S'Having previously sustained a sports concussion has been found to be a strong factor increasing the likelihood of a concussion in the future .'
p11
ss.