(dp1
S'input'
p2
(dp3
S'encoded'
p4
(lp5
I64
aI2179
aI394
aI2773
aI12505
asS'ori'
p6
S'This house would embrace multiculturalism'
p7
ssS'output'
p8
(dp9
g4
(lp10
I958
aI134
aI116
aI89
aI17
aI3863
aI3168
aI99
aI89
aI2032
aI1869
aI7
aI17
aI7129
aI63765
asg6
S'Rather  it is a social scientific theory  not a proposed method of social engineering .'
p11
ss.