(dp1
S'input'
p2
(dp3
S'encoded'
p4
(lp5
I64
aI2179
aI43
aI63
aI3
aI4538
aI7
aI4434
aI7793
aI283
aI45
aI3586
aI417
aI316
aI577
asS'ori'
p6
S'This house believes that the sale of violent video games to minors should be banned'
p7
ssS'output'
p8
(dp9
g4
(lp10
I1445
aI18341
aI24
aI4434
aI3211
aI24
aI3
aI626
aI187
aI458
aI252
aI566
aI897
aI2617
aI18341
aI397
aI3
aI362
aI382
aI237
aI5
aI63765
asg6
S'Large spikes in violent crime in the United States occurred without associated media violence spikes during the 1880s (when records were first kept) and 1930s .'
p11
ss.