(dp1
S'input'
p2
(dp3
S'encoded'
p4
(lp5
I64
aI2179
aI394
aI60
aI23587
asS'ori'
p6
S'This house would re-engage with Myanmar'
p7
ssS'output'
p8
(dp9
g4
(lp10
I3
aI6375
aI445
aI182
aI1706
aI16341
aI736
aI11617
aI92
aI182
aI1706
aI16341
aI736
aI35780
aI11339
aI5
aI9759
aI63765
asg6
S'The administrative divisions are further subdivided into districts  which are further subdivided into townships  wards  and villages .'
p11
ss.