(dp1
S'input'
p2
(dp3
S'encoded'
p4
(lp5
I64
aI2179
aI43
aI8629
aI116
aI3
aI117
aI998
asS'ori'
p6
S'This house believes atheism is the only way'
p7
ssS'output'
p8
(dp9
g4
(lp10
I3
aI11131
aI7
aI51
aI3089
aI98
aI99
aI243
aI10177
aI545
aI3
aI1069
aI7
aI3
aI229
aI81
aI116
aI3
aI273
aI2380
aI45
aI316
aI3082
aI89
aI21834
aI7
aI3
aI18643
aI7
aI3089
aI5
aI64
aI2482
aI21834
aI116
aI5480
aI63765
asg6
S"The fruit of an individual's actions does not always lie within the reach of the individual who is the agent; there ought to be  therefore  a dispenser of the fruits of actions  and this supreme dispenser is God  ."
p11
ss.