(dp1
S'input'
p2
(dp3
S'encoded'
p4
(lp5
I64
aI2179
aI43
aI63
aI2659
aI417
aI1690
aI3
aI12048
aI7
aI19084
asS'ori'
p6
S'This house believes that Israel should lift the blockade of Gaza'
p7
ssS'output'
p8
(dp9
g4
(lp10
I226
aI3270
aI116
aI87
aI153
aI3
aI33
aI60
aI2120
aI2557
aI17225
aI5
aI16618
aI3
aI3454
aI29925
aI501
aI2025
aI7
aI49
aI351
aI1597
aI45
aI3383
aI61
aI155
aI2383
aI45
aI3383
asg6
S'While saying "As is so often the case with events involving Israelis and Palestinians  the competing narratives allow supporters of almost any position to hear what they want to hear ."'
p11
ss.