(dp1
S'input'
p2
(dp3
S'encoded'
p4
(lp5
I64
aI2179
aI43
aI63
aI3
aI4990
aI4991
aI116
aI4850
aI24
aI12166
aI3
aI475
aI7
aI3532
aI3290
aI7
aI4714
asS'ori'
p6
S'This house believes that the Catholic Church is justified in forbidding the use of barrier methods of contraception'
p7
ssS'output'
p8
(dp9
g4
(lp10
I3
aI408
aI9794
aI398
aI24
aI415
aI1191
aI24
aI443
aI1488
aI759
aI1021
aI45
aI3147
aI7
aI4991
aI3237
aI75
aI7330
aI6246
aI24
aI421
aI45
aI132
aI1643
aI6298
aI17029
aI63765
asg6
S'The Protestant Reformation (16th century in Europe) came about in no small part due to abuses of church practices by corrupt clergy in addition to these same theological disputes  .'
p11
ss.