(dp1
S'input'
p2
(dp3
S'encoded'
p4
(lp5
I64
aI2179
aI43
aI223
aI2138
aI11
aI89
aI21
aI45
aI2185
aI372
asS'ori'
p6
S'This house believes all nations have a right to nuclear weapons'
p7
ssS'output'
p8
(dp9
g4
(lp10
I3
aI55
aI89
aI1051
aI7
aI45
aI15161
aI63765
asg6
S'The X-55 has a range of 2 500 to 3 000 kilometers  .'
p11
ss.