(dp1
S'input'
p2
(dp3
S'encoded'
p4
(lp5
I64
aI2179
aI43
aI223
aI2138
aI11
aI89
aI21
aI45
aI2185
aI372
asS'ori'
p6
S'This house believes all nations have a right to nuclear weapons'
p7
ssS'output'
p8
(dp9
g4
(lp10
I24
aI425
aI809
aI4169
aI2164
aI6207
aI13230
aI1769
aI3
aI45
aI884
aI19
aI3
aI667
aI2086
aI1727
aI3725
aI63
aI257
aI2046
aI5499
aI89
aI2185
aI1942
aI3
aI1942
aI463
aI99
aI316
aI416
aI63765
asg6
S'In January 2007  former French President Jacques Chirac  speaking "off the record" to reporters from The New York Times  indicated that if Iran possessed a nuclear weapon  the weapon could not be used .'
p11
ss.