(dp1
S'input'
p2
(dp3
S'encoded'
p4
(lp5
I64
aI2179
aI43
aI63
aI1036
aI4828
aI33250
aI116
aI25073
aI45
aI3315
aI4562
asS'ori'
p6
S'This house believes that male infant circumcision is tantamount to child abuse'
p7
ssS'output'
p8
(dp9
g4
(lp10
I233
aI45
aI3
aI9788
aI7
aI1147
aI3270
aI8440
aI20618
aI742
aI45
aI1063
aI33250
aI5185
aI73
aI99
asg6
S'According to the Gospel of Thomas saying 53  Jesus says:"His disciples said to him  \'is circumcision useful or not ?\''
p11
ss.