(dp1
S'input'
p2
(dp3
S'encoded'
p4
(lp5
I64
aI2179
aI43
aI63
aI1036
aI4828
aI33250
aI116
aI25073
aI45
aI3315
aI4562
asS'ori'
p6
S'This house believes that male infant circumcision is tantamount to child abuse'
p7
ssS'output'
p8
(dp9
g4
(lp10
I42
aI4655
aI63
aI51
aI7
aI19601
aI24
aI3
aI3534
aI1991
aI258
aI63
aI271
aI21705
aI5745
aI2933
aI443
aI159
aI19601
aI620
aI3
aI16908
aI5
aI3082
aI182
aI1559
aI45
aI7446
aI75
aI63765
asg6
S'He explains that an "absence of antibodies in the mothers blood means that their newborn sons received no such antibodies through the placenta  and therefore are vulnerable to infection by HSV-1 .'
p11
ss.