(dp1
S'input'
p2
(dp3
S'encoded'
p4
(lp5
I64
aI2179
aI43
aI63
aI2659
aI417
aI1690
aI3
aI12048
aI7
aI19084
asS'ori'
p6
S'This house believes that Israel should lift the blockade of Gaza'
p7
ssS'output'
p8
(dp9
g4
(lp10
I809
aI169
aI19386
aI5
aI536
aI7
aI3
aI27072
aI8728
aI4185
aI21928
aI16726
aI742
aI14
aI25
aI2127
aI63
aI3
aI19097
aI122
aI99
aI51
aI2784
aI7
aI24324
aI41
aI3
aI6056
aI11574
aI2566
aI89
aI2157
aI2130
aI131
aI742
aI63
aI134
aI394
aI316
aI2784
aI7
aI1968
aI63765
asg6
S'Former British Ambassador  and head of the FCO Maritime Section  Craig Murray said on his website that the raid was not an act of piracy  as the Israeli vessels carried a military commission  but said that it would be "an act of illegal warfare" .'
p11
ss.