(dp1
S'input'
p2
(dp3
S'encoded'
p4
(lp5
I64
aI2179
aI43
aI63
aI3376
aI4938
aI417
aI316
aI3537
asS'ori'
p6
S'This house believes that endangered species should be protected'
p7
ssS'output'
p8
(dp9
g4
(lp10
I89
aI1950
aI1862
aI3185
aI14
aI2506
aI63
aI4593
aI217
aI7
aI271
aI3851
aI2768
aI92
aI693
aI1619
aI207
aI73
aI443
aI6874
aI63765
asg6
S'A second strategy focuses on areas that retain most of their original diversity  which typically require little or no restoration .'
p11
ss.