(dp1
S'input'
p2
(dp3
S'encoded'
p4
(lp5
I64
aI2179
aI43
aI63
aI1036
aI4828
aI33250
aI116
aI25073
aI45
aI3315
aI4562
asS'ori'
p6
S'This house believes that male infant circumcision is tantamount to child abuse'
p7
ssS'output'
p8
(dp9
g4
(lp10
I19
aI3
aI60404
aI54269
aI803
aI15281
aI33312
aI382
aI2840
aI24
aI7
aI5716
aI751
aI33250
aI5
aI2519
aI63765
asg6
S'From the glanular sulcus area  pathogenic bacteria were identified in 68% of boys before circumcision  and 8% afterwards  .'
p11
ss.