(dp1
S'input'
p2
(dp3
S'encoded'
p4
(lp5
I64
aI2179
aI43
aI17
aI4941
aI857
aI3211
asS'ori'
p6
S'This house believes social deprivation causes crime'
p7
ssS'output'
p8
(dp9
g4
(lp10
I12598
aI4662
aI3168
aI4471
aI17
aI8935
aI41
aI3
aI2141
aI7
aI1683
aI8068
aI147
aI63765
asg6
S'Rational Choice Theory models social behavior as the interaction of utility maximizing individuals .'
p11
ss.