(dp1
S'input'
p2
(dp3
S'encoded'
p4
(lp5
I64
aI2179
aI394
aI2017
aI223
aI9058
aI23653
asS'ori'
p6
S'This house would ban all unsustainable logging'
p7
ssS'output'
p8
(dp9
g4
(lp10
I41
aI867
aI3
aI7910
aI87
aI2605
aI3
aI1344
aI5
aI3966
aI4938
aI155
aI2773
asg6
S'As go the forests so goes the plant and animal species they embrace'
p11
ss.