(dp1
S'input'
p2
(dp3
S'encoded'
p4
(lp5
I64
aI2179
aI43
aI8629
aI116
aI3
aI117
aI998
asS'ori'
p6
S'This house believes atheism is the only way'
p7
ssS'output'
p8
(dp9
g4
(lp10
I3
aI28
aI414
aI2126
aI116
aI4857
aI19
aI3
aI38799
aI63765
asg6
S'The English word itself is derived from the Proto-Germanic * uan .'
p11
ss.