(dp1
S'input'
p2
(dp3
S'encoded'
p4
(lp5
I64
aI2179
aI43
aI63
aI3
aI4538
aI7
aI4434
aI7793
aI283
aI45
aI3586
aI417
aI316
aI577
asS'ori'
p6
S'This house believes that the sale of violent video games to minors should be banned'
p7
ssS'output'
p8
(dp9
g4
(lp10
I7543
aI122
aI3
aI237
aI276
aI5119
aI319
aI7740
aI81
aI2754
aI2059
aI2070
aI5
aI12435
aI75
aI438
aI725
aI29317
aI12242
aI159
aI41
aI1458
aI5
aI174
aI42
aI122
aI89
aI744
aI7
aI3
aI285
aI1458
aI24
aI63765
asg6
S'Id \'SSam-Jang\' was the first professional online game player who gained fame  publicity and fortune by winning many StarCraft competitions such as \'Battle .net\' competition and also he was a winner of the "StarCraft" world competition in 1999 .'
p11
ss.