(dp1
S'input'
p2
(dp3
S'encoded'
p4
(lp5
I64
aI2179
aI43
aI24
aI3
aI475
aI7
aI12436
aI3364
asS'ori'
p6
S'This house believes in the use of affirmative action'
p7
ssS'output'
p8
(dp9
g4
(lp10
I443
aI12907
aI717
aI14
aI4226
aI2382
aI73
aI11389
aI182
aI547
aI459
aI3
aI4169
aI2475
aI63765
asg6
S'No distinctions based on race  religion or sex are allowed under the 1958 French Constitution .'
p11
ss.