(dp1
S'input'
p2
(dp3
S'encoded'
p4
(lp5
I64
aI2179
aI394
aI5370
aI7146
aI4585
aI2446
asS'ori'
p6
S'This house would abolish intellectual property rights'
p7
ssS'output'
p8
(dp9
g4
(lp10
I14730
aI475
aI7
aI5941
aI1642
aI7
aI64
aI2474
aI116
aI300
aI99
aI24324
aI63765
asg6
S'Improper use of materials outside of this legislation is deemed "unauthorized edition"  not piracy  .'
p11
ss.