(dp1
S'input'
p2
(dp3
S'encoded'
p4
(lp5
I64
aI2179
aI43
aI223
aI2138
aI11
aI89
aI21
aI45
aI2185
aI372
asS'ori'
p6
S'This house believes all nations have a right to nuclear weapons'
p7
ssS'output'
p8
(dp9
g4
(lp10
I155
aI415
aI588
aI60
aI89
aI2762
aI7
aI15344
aI1445
aI2412
aI7
aI5188
aI22918
aI8218
aI19
aI368
aI2203
aI311
aI3
aI2730
aI7
aI12832
aI26171
aI3274
aI238
aI34
aI943
aI2185
aI270
aI51
aI7640
aI2185
aI11801
aI63765
asg6
S'They came up with a project of destroying large quantities of chemical wastes collected from Western countries at the island of Novaya Zemlya (a test place for Soviet nuclear weapons) using an underground nuclear blast .'
p11
ss.