(dp1
S'input'
p2
(dp3
S'encoded'
p4
(lp5
I64
aI2179
aI235
aI3
aI2136
aI7
aI3
aI2306
aI7
aI2390
asS'ori'
p6
S'This house supports the one-child policy of the republic of China'
p7
ssS'output'
p8
(dp9
g4
(lp10
I17783
aI98
aI99
aI5114
aI117
aI14
aI3
aI5933
aI73
aI11794
aI7
aI3
aI2598
aI131
aI14
aI3
aI2837
aI7
aI2598
aI45
aI119
aI6806
aI2635
aI63765
asg6
S'Overpopulation does not depend only on the size or density of the population  but on the ratio of population to available sustainable resources .'
p11
ss.