(dp1
S'input'
p2
(dp3
S'encoded'
p4
(lp5
I64
aI2179
aI394
aI5370
aI3
aI5286
asS'ori'
p6
S'This house would abolish the monarchy'
p7
ssS'output'
p8
(dp9
g4
(lp10
I1202
aI7
aI3
aI1950
aI33
aI182
aI1237
aI6287
aI6243
aI73
aI2507
aI33858
aI45
aI24052
aI7
aI5639
aI5794
aI5076
aI63765
aI33379
aI5305
aI498
aI7
aI2053
aI81
aI116
aI6531
aI75
aI100
aI41
aI3
aI7
aI3
aI16656
asg6
S'Examples of the second case are several deposed monarchs or otherwise pretenders to thrones of abolished monarchies  e .g .  Leka  Crown Prince of Albania who is styled by some as the "King of The Albanians ."'
p11
ss.