(dp1
S'input'
p2
(dp3
S'encoded'
p4
(lp5
I64
aI2179
aI43
aI223
aI2138
aI11
aI89
aI21
aI45
aI2185
aI372
asS'ori'
p6
S'This house believes all nations have a right to nuclear weapons'
p7
ssS'output'
p8
(dp9
g4
(lp10
I378
aI41
aI1902
aI20756
aI27678
aI4624
aI14
aI42666
aI163
aI2010
aI3
aI6966
aI45
aI75
aI36745
aI41
aI34
aI116
aI3508
aI1881
aI45
aI3
aI2867
aI12028
aI5
aI295
aI1453
aI99
aI11698
aI351
aI2185
aI773
aI3191
aI31295
aI63765
asg6
S'However  as recently declassified archived documents on Chevaline make clear  the 15% excess (referred to by SIPRI as for spares) is normally intended to "provide the necessary processing margin" and "surveillance rounds do not contain any nuclear material" being completely inert .'
p11
ss.