(dp1
S'input'
p2
(dp3
S'encoded'
p4
(lp5
I64
aI2179
aI43
aI63
aI3
aI4991
aI7
aI180
aI417
aI316
aI5396
aI19
aI3
aI169
aI10
asS'ori'
p6
S'This house believes that the Church of England should be separated from the British state'
p7
ssS'output'
p8
(dp9
g4
(lp10
I89
aI570
aI131
aI693
aI3903
aI6174
aI7
aI26351
aI55
aI12
aI1964
aI24
aI2265
aI5
aI2670
aI226
aI100
aI8051
aI31375
aI2203
aI159
aI41
aI2044
aI6091
aI5
aI3
aI102
aI11
aI383
aI2477
aI2437
aI7
aI51
aI878
aI10
aI2382
aI63765
asg6
S'A similar but typically stricter principle of laicite has been applied in France and Turkey  while some socially secularized countries such as Norway  Denmark and the UK have maintained constitutional recognition of an official state religion .'
p11
ss.