(dp1
S'input'
p2
(dp3
S'encoded'
p4
(lp5
I64
aI2179
aI394
aI2773
aI12505
asS'ori'
p6
S'This house would embrace multiculturalism'
p7
ssS'output'
p8
(dp9
g4
(lp10
I252
aI4900
aI273
aI139
aI316
aI443
aI12997
aI63765
asg6
S'Without difference there can be no integration .'
p11
ss.