(dp1
S'input'
p2
(dp3
S'encoded'
p4
(lp5
I64
aI2179
aI394
aI4325
aI2042
aI270
aI89
aI11605
aI3324
asS'ori'
p6
S'This house would fund education using a voucher scheme'
p7
ssS'output'
p8
(dp9
g4
(lp10
I378
aI24
aI3007
aI2820
aI3
aI2176
aI7
aI1886
aI45
aI9326
aI89
aI2503
aI7180
aI3426
aI45
aI3709
aI51
aI1886
aI3098
aI1499
aI267
aI667
aI2185
aI5181
aI24
aI2318
aI2298
aI63765
asg6
S'However  in 2008 Paul urged the Department of Energy to approve a federal loan guarantee to help an energy company build two new nuclear reactors in South Texas .'
p11
ss.