(dp1
S'input'
p2
(dp3
S'encoded'
p4
(lp5
I64
aI2179
aI43
aI63
aI17574
aI417
aI316
aI3481
aI34
aI271
aI79
asS'ori'
p6
S'This house believes that housewives should be paid for their work'
p7
ssS'output'
p8
(dp9
g4
(lp10
I5968
aI182
aI7267
aI8044
aI60
aI3236
aI45
aI63
aI7
aI1980
aI63765
asg6
S'nursing  teaching) are systematically undervalued with respect to that of men .'
p11
ss.