(dp1
S'input'
p2
(dp3
S'encoded'
p4
(lp5
I64
aI2179
aI394
aI2017
aI262
asS'ori'
p6
S'This house would ban boxing'
p7
ssS'output'
p8
(dp9
g4
(lp10
I443
aI93
aI116
aI77
aI7
aI3
aI521
aI7
aI64
aI153
aI15868
aI35990
aI131
aI134
aI116
aI1480
aI2428
aI63
aI3
aI27913
aI985
aI604
aI3
aI41290
aI523
aI3
aI710
aI45
aI686
aI271
aI13270
aI850
aI89
aI852
aI7
aI708
aI289
aI14003
aI1991
aI3142
aI63765
asg6
S"No one is certain of the cause of this often fatal complication  but it is commonly thought that the swelling occurs because the brain's arterioles lose the ability to regulate their diameter  causing a loss of control over cerebral blood flow  ."
p11
ss.