(dp1
S'input'
p2
(dp3
S'encoded'
p4
(lp5
I64
aI2179
aI43
aI17
aI4941
aI857
aI3211
asS'ori'
p6
S'This house believes social deprivation causes crime'
p7
ssS'output'
p8
(dp9
g4
(lp10
I3048
aI7382
aI2487
aI116
aI2845
aI45
aI1944
aI289
aI2150
aI2206
aI2666
aI7504
aI63765
asg6
S'Worldwide  bribery alone is estimated to involve over 1 trillion US dollars annually  .'
p11
ss.