(dp1
S'input'
p2
(dp3
S'encoded'
p4
(lp5
I64
aI2179
aI394
aI10662
aI626
aI187
aI2157
aI2697
aI19
aI2371
asS'ori'
p6
S'This house would remove United States military bases from Japan'
p7
ssS'output'
p8
(dp9
g4
(lp10
I39980
aI455
aI182
aI12056
aI24
aI3
aI55593
aI2674
aI1548
aI5
aI33050
aI2674
aI1548
aI63765
asg6
S'130 USAF fighters are stationed in the Misawa Air Base and Kadena Air Base  .'
p11
ss.