(dp1
S'input'
p2
(dp3
S'encoded'
p4
(lp5
I64
aI2179
aI43
aI63
aI3
aI4990
aI4991
aI116
aI4850
aI24
aI12166
aI3
aI475
aI7
aI3532
aI3290
aI7
aI4714
asS'ori'
p6
S'This house believes that the Catholic Church is justified in forbidding the use of barrier methods of contraception'
p7
ssS'output'
p8
(dp9
g4
(lp10
I89
aI4604
aI2210
aI5
aI11148
aI116
aI25758
aI45
aI3459
aI4801
aI5
aI21193
aI11148
aI55
aI12
aI89
aI2609
aI13647
aI7
aI4990
aI348
aI63765
asg6
S"A special role and devotion is accorded to Jesus' mother  Mary and Marian devotion has been a central theme of Catholic art ."
p11
ss.