(dp1
S'input'
p2
(dp3
S'encoded'
p4
(lp5
I64
aI2179
aI394
aI117
aI7428
aI21151
aI34
aI11389
aI2042
aI24
aI4364
asS'ori'
p6
S'This house would only teach abstinence for sex education in schools'
p7
ssS'output'
p8
(dp9
g4
(lp10
I13788
aI7700
aI8578
aI1191
aI11389
aI10953
aI5
aI8803
aI3217
aI382
aI1445
aI63765
asg6
S'Contraceptive use:Among Indian girls  "misconceptions about sex  sexuality and sexual health were large .'
p11
ss.