(dp1
S'input'
p2
(dp3
S'encoded'
p4
(lp5
I64
aI2179
aI43
aI17
aI4941
aI857
aI3211
asS'ori'
p6
S'This house believes social deprivation causes crime'
p7
ssS'output'
p8
(dp9
g4
(lp10
I25124
aI92
aI5273
aI459
aI99
aI773
aI4359
aI41
aI27623
aI131
aI3418
aI7787
aI24
aI3
aI17
aI13541
aI63
aI182
aI8060
aI545
aI5989
aI139
aI174
aI316
aI606
aI736
aI3
aI4417
aI60
aI37
aI12527
aI5
aI3320
aI5546
aI63765
asg6
S'Conforming  which falls under not being perceived as deviant  but merely participating in the social norms that are distributed within societies  can also be placed into the category with pure deviance and falsely accused .'
p11
ss.