(dp1
S'input'
p2
(dp3
S'encoded'
p4
(lp5
I64
aI2179
aI43
aI17
aI4941
aI857
aI3211
asS'ori'
p6
S'This house believes social deprivation causes crime'
p7
ssS'output'
p8
(dp9
g4
(lp10
I3168
aI13990
aI60
aI51
aI3177
aI8164
aI71
aI45
aI89
aI2220
aI7037
aI4661
aI675
aI3
aI17
aI5
aI54118
aI19
aI134
aI45
aI836
aI448
aI5404
aI63
aI139
aI316
aI17233
aI75
aI3073
aI63765
asg6
S'Middle-range theory starts with an empirical phenomenon (as opposed to a broad abstract entity like the social system) and abstracts from it to create general statements that can be verified by data  .'
p11
ss.