(dp1
S'input'
p2
(dp3
S'encoded'
p4
(lp5
I64
aI2179
aI394
aI117
aI7428
aI21151
aI34
aI11389
aI2042
aI24
aI4364
asS'ori'
p6
S'This house would only teach abstinence for sex education in schools'
p7
ssS'output'
p8
(dp9
g4
(lp10
I89
aI4370
aI3714
aI24
aI326
aI2547
aI5
aI3
aI626
aI187
aI75
aI10477
aI2526
aI658
aI3357
aI24
aI1906
aI2200
aI3822
aI3724
aI45
aI9503
aI611
aI45
aI3
aI413
aI298
aI155
aI382
aI13159
aI5
aI3553
aI40
aI5185
aI1237
aI2879
aI382
aI24
aI3918
aI86
aI45
aI7434
aI136
aI1191
aI11389
aI63765
asg6
S'A survey conducted in Britain  Canada and the United States by Angus Reid Public Opinion in November 2011 asked adult respondents to look back to the time when they were teenagers  and describe how useful several sources were in enabling them to learn more about sex .'
p11
ss.