(dp1
S'input'
p2
(dp3
S'encoded'
p4
(lp5
I64
aI2179
aI394
aI5370
aI7146
aI4585
aI2446
asS'ori'
p6
S'This house would abolish intellectual property rights'
p7
ssS'output'
p8
(dp9
g4
(lp10
I14
aI3
aI248
aI1070
aI273
aI182
aI120
aI159
aI41
aI3866
aI19269
aI81
aI1190
aI63
aI3384
aI182
aI1622
aI5
aI63
aI16530
aI1055
aI52258
aI55
aI17804
aI3
aI521
aI7
aI4178
aI24
aI2068
aI1727
aI63765
asg6
S"On the other hand  there are those such as Richard Pipes who think that Locke's arguments are weak  and that undue reliance thereon has weakened the cause of individualism in recent times ."
p11
ss.