(dp1
S'input'
p2
(dp3
S'encoded'
p4
(lp5
I64
aI2179
aI43
aI63
aI3
aI28431
aI7
aI2157
aI4624
aI75
aI39939
aI27257
aI122
aI4850
asS'ori'
p6
S'This house believes that the leaking of military documents by Anat Kamm was justified'
p7
ssS'output'
p8
(dp9
g4
(lp10
I4814
aI604
aI3
aI9082
aI63
aI747
aI7
aI89
aI2702
aI580
aI11
aI14
aI3
aI3269
aI7
aI2548
aI134
aI116
aI4491
aI45
aI820
aI3
aI3842
aI45
aI9744
aI11543
aI7
aI3293
aI14
aI2702
aI214
asg6
S'Precisely because the repercussions that decisions of a security nature have on the life of nation  it is suitable to open the door to openly exchanging of views on security issues ."'
p11
ss.