(dp1
S'input'
p2
(dp3
S'encoded'
p4
(lp5
I64
aI2179
aI43
aI63
aI3
aI4990
aI4991
aI116
aI4850
aI24
aI12166
aI3
aI475
aI7
aI3532
aI3290
aI7
aI4714
asS'ori'
p6
S'This house believes that the Catholic Church is justified in forbidding the use of barrier methods of contraception'
p7
ssS'output'
p8
(dp9
g4
(lp10
I3874
aI2569
aI116
aI3
aI2569
aI7
aI298
aI45
aI11
aI3862
aI5
aI3
aI475
aI7
aI314
aI708
aI5
aI248
aI8008
aI45
aI2976
aI159
aI2969
aI63765
asg6
S'Family planning is the planning of when to have children  and the use of birth control and other techniques to implement such plans .'
p11
ss.