(dp1
S'input'
p2
(dp3
S'encoded'
p4
(lp5
I64
aI2179
aI43
aI63
aI2157
aI2565
aI493
aI19084
aI382
aI4850
asS'ori'
p6
S"This house believes that Israel's 2008-2009 military operations against Gaza were justified"
p7
ssS'output'
p8
(dp9
g4
(lp10
I1558
aI5003
aI3714
aI366
aI3
aI19084
aI2223
aI3725
aI1056
aI96
aI34
aI3
aI1687
aI5
aI1240
aI2220
aI96
aI34
aI44
aI45
aI881
aI86
aI63765
asg6
S'Conversely  polls conducted after the Gaza War indicated weaker support for the attacks and relatively broad support for attempts to prevent them .'
p11
ss.