(dp1
S'input'
p2
(dp3
S'encoded'
p4
(lp5
I64
aI2179
aI394
aI5370
aI223
aI4013
aI10440
aI2446
aI4881
aI75
aI14482
aI11004
asS'ori'
p6
S'This house would abolish all collective bargaining rights claimed by trades unions'
p7
ssS'output'
p8
(dp9
g4
(lp10
I3
aI9
aI852
aI566
aI60
aI11004
aI116
aI1488
aI5
aI443
aI136
aI138
aI45
aI7
aI2153
aI92
aI116
aI570
aI45
aI18042
aI24
aI8942
aI3210
aI63765
asg6
S'The welfare loss associated with unions is small  and no more than 0 .2 to 0 .5 of GDP  which is similar to monopolies in product markets  .'
p11
ss.