(dp1
S'input'
p2
(dp3
S'encoded'
p4
(lp5
I64
aI2179
aI394
aI1499
aI3
aI8115
aI34564
aI17106
asS'ori'
p6
S'This house would build the Keystone XL pipeline'
p7
ssS'output'
p8
(dp9
g4
(lp10
I6859
aI34827
aI19269
aI382
aI6864
aI2818
aI19
aI3
aI23854
aI5
aI298
aI24
aI3
aI23854
aI2367
aI864
aI3
aI4996
aI21958
aI10733
aI59
aI3
aI1851
aI7
aI89
aI13309
aI60
aI89
aI8158
aI10617
aI63765
asg6
S'Originally copper pipes were running directly from the brewery  and  when in 90s the brewery moved out the city  Thor beer replaced the centre of a star with a giant tank .'
p11
ss.