(dp1
S'input'
p2
(dp3
S'encoded'
p4
(lp5
I64
aI2179
aI235
aI3
aI2136
aI7
aI3
aI2306
aI7
aI2390
asS'ori'
p6
S'This house supports the one-child policy of the republic of China'
p7
ssS'output'
p8
(dp9
g4
(lp10
I3
aI2136
aI55
aI12
aI13448
aI24
aI51
aI3226
aI24
aI5175
aI3433
aI4015
aI4582
aI5
aI17781
aI7
aI4015
aI13843
asg6
S'The policy has been implicated in an increase in forced abortions  female infanticide  and underreporting of female births'
p11
ss.