(dp1
S'input'
p2
(dp3
S'encoded'
p4
(lp5
I64
aI2179
aI43
aI63
aI3357
aI5003
aI652
aI3
aI188
aI3262
asS'ori'
p6
S'This house believes that opinion polls harm the democratic process'
p7
ssS'output'
p8
(dp9
g4
(lp10
I89
aI2035
aI75
aI6645
aI26338
aI5047
aI24
aI3
aI2014
aI7
aI1964
aI17
aI12911
aI4068
aI3
aI1353
aI596
aI7
aI3
aI10645
aI589
aI3
aI782
aI1421
aI3
aI10654
aI96
aI34
aI120
aI782
aI63765
aI26339
aI3713
aI727
aI1340
aI45
aI4275
aI1460
aI45
aI3
aI4408
aI1334
aI1972
aI2036
aI3
aI10645
aI782
aI45
aI26340
aI14
aI1255
aI63765
aI5267
aI2151
aI7
aI3
aI26341
aI24
aI3
aI2490
aI122
aI12955
aI24
aI1809
aI7
aI3
aI26339
aI5003
aI6909
aI63
aI3713
aI727
aI4885
aI73
aI139
aI994
aI673
aI4168
aI727
aI24
aI2398
aI3080
aI5276
aI63765
aI24
aI1341
aI3922
aI63
aI93
aI10484
aI51
aI3614
aI12562
aI75
aI89
aI10666
aI7561
aI2962
aI7
aI5003
aI6909
aI63
aI10484
aI41
aI3
aI5409
aI24
aI3
aI4226
aI47
aI3226
aI25
aI73
aI732
aI15904
aI4194
aI63765
aI508
aI41
aI3713
aI727
aI182
aI980
aI5047
aI3
aI10645
aI782
aI47
aI1057
aI45
aI26342
aI5
aI1199
aI89
aI1173
aI2194
aI45
aI2645
aI4672
asg6
S'A study by Albert Mehrabian  reported in The Journal of Applied Social Psychology (1998)  tested the relative importance of the bandwagon (rally around the winner) effect versus the underdog (empathic support for those trailing) effect . Bogus poll results presented to voters prior to the 1996 Republican primary clearly showed the bandwagon effect to predominate on balance . Indeed  approximately 6% of the variance in the vote was explained in terms of the bogus polls  showing that poll results (whether accurate or inaccurate) can significantly influence election results in closely contested elections . In particular  assuming that one candidate "is an initial favorite by a slim margin  reports of polls showing that candidate as the leader in the race will increase his or her favorable margin" (Mehrabian  1998  p .&nbsp;2128) . Thus  as poll results are repeatedly reported  the bandwagon effect will tend to snowball and become a powerful aid to leading candidates'
p11
ss.