(dp1
S'input'
p2
(dp3
S'encoded'
p4
(lp5
I64
aI2179
aI394
aI4325
aI2042
aI270
aI89
aI11605
aI3324
asS'ori'
p6
S'This house would fund education using a voucher scheme'
p7
ssS'output'
p8
(dp9
g4
(lp10
I2985
aI7
aI3
aI437
aI2891
aI10293
aI63
aI134
aI55
aI99
aI2322
aI3
aI696
aI7
aI4358
aI19
aI5090
aI4957
aI4067
aI8491
aI4750
aI63765
asg6
S'Critics of the latter development charge that it has not increased the number of students from economically deprived backgrounds attending university .'
p11
ss.