(dp1
S'input'
p2
(dp3
S'encoded'
p4
(lp5
I64
aI2179
aI394
aI1499
aI177
aI1819
aI34
aI160
asS'ori'
p6
S'This house would build high rises for housing'
p7
ssS'output'
p8
(dp9
g4
(lp10
I3926
aI36002
aI116
aI566
aI60
aI89
aI696
aI7
aI4099
aI6669
aI5
aI658
aI3217
aI6609
aI60
aI3
aI1334
aI296
aI773
aI2322
aI231
aI14
aI4497
aI63765
asg6
S'Urban sprawl is associated with a number of negative environmental and public health outcomes  with the primary result being increased dependence on automobiles .'
p11
ss.