(dp1
S'input'
p2
(dp3
S'encoded'
p4
(lp5
I64
aI2179
aI43
aI63
aI2157
aI2565
aI493
aI19084
aI382
aI4850
asS'ori'
p6
S"This house believes that Israel's 2008-2009 military operations against Gaza were justified"
p7
ssS'output'
p8
(dp9
g4
(lp10
I3
aI5496
aI24082
aI13755
aI7
aI3
aI737
aI4477
aI63
aI440
aI12
aI24
aI238
aI5
aI3
aI1299
aI11995
aI1687
aI14
aI6056
aI5555
aI226
aI311
aI3
aI1643
aI413
aI4287
aI3
aI12618
aI475
aI7
aI972
aI14
aI3
aI759
aI7
aI3
aI6056
aI202
aI5
aI2010
aI844
aI7
aI282
aI2893
aI70
aI63765
asg6
S"The Ministry condemns Hamas's interruption of the cease fire that had been in place and the constant rocket attacks on Israeli territories  while at the same time opposing the disproportionate use of force on the part of the Israeli army and clear violations of international humanitarian law ."
p11
ss.