(dp1
S'input'
p2
(dp3
S'encoded'
p4
(lp5
I64
aI2179
aI394
aI1499
aI177
aI1819
aI34
aI160
asS'ori'
p6
S'This house would build high rises for housing'
p7
ssS'output'
p8
(dp9
g4
(lp10
I132
aI160
aI6338
aI1047
aI41
aI415
aI3082
aI45
aI316
aI1360
aI1058
aI41
aI725
aI159
aI41
aI35907
aI382
aI1640
aI39522
aI261
aI1931
aI19
aI3
aI1851
aI7
aI3
aI4996
aI60
aI443
aI33028
aI159
aI41
aI9421
aI5
aI658
aI2472
aI60
aI41
aI2094
aI30521
aI374
aI4883
aI63765
asg6
S'These housing estates  known as "schemes"  came therefore to be widely regarded as unsuccessful; many  such as Castlemilk  were just dormitories well away from the centre of the city with no amenities  such as shops and public houses ("deserts with windows"  as Billy Connolly once put it) .'
p11
ss.