(dp1
S'input'
p2
(dp3
S'encoded'
p4
(lp5
I64
aI2179
aI394
aI16642
aI1376
aI5269
asS'ori'
p6
S'This house would subsidize poor communities'
p7
ssS'output'
p8
(dp9
g4
(lp10
I3
aI8921
aI192
aI24744
aI1039
aI643
aI75
aI24745
aI5
aI24746
aI8596
aI63
aI4925
aI24
aI3
aI5556
aI7
aI8921
aI192
aI24747
aI55
aI89
aI572
aI9676
aI14729
aI782
aI14
aI2445
aI2352
aI6090
aI5
aI16
aI2891
aI63765
asg6
S'The credit market imperfection approach  developed by Galor and Zeira (1993)  demonstrates that inequality in the presence of credit market imperfections has a long lasting detrimental effect on human capital formation and economic development  .'
p11
ss.