(dp1
S'input'
p2
(dp3
S'encoded'
p4
(lp5
I64
aI2179
aI394
aI190
aI3
aI21
aI45
aI3895
aI834
asS'ori'
p6
S'This house would limit the right to bear arms'
p7
ssS'output'
p8
(dp9
g4
(lp10
I24
aI25
aI479
aI1462
aI6668
aI3211
aI8231
aI24
aI3
aI869
aI1356
aI63
aI6365
aI3
aI2838
aI5
aI1530
aI63
aI1453
aI99
aI1381
aI1374
aI182
aI514
aI416
aI24
aI3
aI2145
aI63765
aI24
aI5024
aI4435
aI3
aI5777
aI350
aI10951
aI19
aI3
aI11397
aI3600
aI116
aI63
aI3
aI212
aI17348
aI116
aI17349
aI73
aI4729
aI1971
aI2356
aI63765
asg6
S'In his paper  Understanding Why Crime Fell in the 1990s: Four Factors that Explain the Decline and Six that Do not  Although guns are frequently used in the U .S . in committing suicide  the overwhelming evidence compiled from the psychiatric literature is that the real culprit is untreated or poorly managed depression .'
p11
ss.