(dp1
S'input'
p2
(dp3
S'encoded'
p4
(lp5
I64
aI2179
aI43
aI63
aI2157
aI2565
aI493
aI19084
aI382
aI4850
asS'ori'
p6
S"This house believes that Israel's 2008-2009 military operations against Gaza were justified"
p7
ssS'output'
p8
(dp9
g4
(lp10
I16619
aI5008
aI60
aI89
aI11995
aI24945
aI14
aI4232
aI2659
aI5
aI19088
aI9303
aI24
aI3
aI19084
aI966
aI1537
aI4232
aI2659
aI459
aI1299
aI11995
aI4477
aI397
aI3
aI1263
aI2223
aI63765
asg6
S'Hamas responded with a rocket barrage on Southern Israel  and Palestinian factions in the Gaza Strip kept Southern Israel under constant rocket fire during the entire war .'
p11
ss.