(dp1
S'input'
p2
(dp3
S'encoded'
p4
(lp5
I64
aI2179
aI43
aI223
aI2138
aI11
aI89
aI21
aI45
aI2185
aI372
asS'ori'
p6
S'This house believes all nations have a right to nuclear weapons'
p7
ssS'output'
p8
(dp9
g4
(lp10
I3
aI4453
aI5
aI1180
aI4453
aI11
aI4883
aI51
aI1717
aI532
aI7
aI1347
aI14
aI2046
aI45
aI14632
aI223
aI2738
aI7
aI211
aI2185
aI2326
aI45
aI3109
aI63765
asg6
S'The claims and counter claims have put an immense amount of pressure on Iran to reveal all aspects of its nuclear program to date .'
p11
ss.