(dp1
S'input'
p2
(dp3
S'encoded'
p4
(lp5
I64
aI2179
aI43
aI63
aI3
aI4990
aI4991
aI116
aI4850
aI24
aI12166
aI3
aI475
aI7
aI3532
aI3290
aI7
aI4714
asS'ori'
p6
S'This house believes that the Catholic Church is justified in forbidding the use of barrier methods of contraception'
p7
ssS'output'
p8
(dp9
g4
(lp10
I100
aI3136
aI176
aI3
aI4991
aI55
aI13373
aI3
aI2886
aI3527
aI7
aI9867
aI11
aI2493
aI100
aI7
aI3
aI747
aI7
aI3
aI5781
aI1792
aI63
aI155
aI1792
aI11968
aI45
aI3
aI2247
aI63765
asg6
S'Some groups  claiming the Church has betrayed the core values of Catholicism  have rejected some of the decisions of the Holy See that they see harmful to the faith .'
p11
ss.