(dp1
S'input'
p2
(dp3
S'encoded'
p4
(lp5
I64
aI2179
aI394
aI117
aI7428
aI21151
aI34
aI11389
aI2042
aI24
aI4364
asS'ori'
p6
S'This house would only teach abstinence for sex education in schools'
p7
ssS'output'
p8
(dp9
g4
(lp10
I8578
aI81
aI11
aI8790
aI24
aI8803
aI2189
aI182
aI863
aI1727
aI136
aI1856
aI138
aI271
aI7721
aI15072
aI45
aI316
aI3
aI4944
aI7
aI6599
aI2617
asg6
S'Girls who have engaged in sexual intercourse are five times more likely than their virgin peers to be the victim of dating violence '
p11
ss.