(dp1
S'input'
p2
(dp3
S'encoded'
p4
(lp5
I64
aI2179
aI43
aI63
aI187
aI417
aI99
aI16642
aI3
aI6449
aI7
aI3935
asS'ori'
p6
S'This house believes that states should not subsidize the growing of tobacco'
p7
ssS'output'
p8
(dp9
g4
(lp10
I3
aI49562
aI373
aI3
aI3
aI49562
aI27911
aI322
aI736
aI89
aI11644
aI34
aI3935
aI25452
aI5
aI3
aI49562
aI11644
aI373
aI51
aI36859
aI61810
aI63765
asg6
S'The ko-bon (the incense tray) became the tabako-bon  the incense burner evolved into a pot for tobacco embers and the incense pot became an ash tray .'
p11
ss.