(dp1
S'input'
p2
(dp3
S'encoded'
p4
(lp5
I64
aI2179
aI43
aI17
aI4941
aI857
aI3211
asS'ori'
p6
S'This house believes social deprivation causes crime'
p7
ssS'output'
p8
(dp9
g4
(lp10
I3
aI126
aI7
aI4107
aI788
aI75
aI89
aI2722
aI7
aI196
aI4979
aI4450
aI3065
aI5
aI126
aI7
aI3797
aI60
aI260
aI5
aI248
aI16
aI1356
aI223
aI7747
aI45
aI3
aI11560
aI7
aI4285
aI45
aI6004
aI24
aI4262
aI5902
aI41
aI217
aI10725
aI3211
aI116
aI14650
aI24
aI3
aI29294
aI10
aI291
aI3266
aI5
aI16187
aI3210
aI132
aI16
aI1356
aI83
aI5045
aI45
aI975
aI3
aI7313
aI532
aI7
aI4107
aI252
aI3932
aI3
aI1485
aI7
aI4262
aI5902
aI63765
asg6
S'The level of taxation taken by a nation-state  rates of unemployment  mean household incomes and level of satisfaction with government and other economic factors all contribute to the likelihood of criminals to participate in tax evasion  As most organised crime is perpetrated in the liminal state between legitimate and illegitimate markets  these economic factors must adjusted to ensure the optimal amount of taxation without promoting the practice of tax evasion  .'
p11
ss.