(dp1
S'input'
p2
(dp3
S'encoded'
p4
(lp5
I64
aI2179
aI43
aI63
aI3
aI4990
aI4991
aI116
aI4850
aI24
aI12166
aI3
aI475
aI7
aI3532
aI3290
aI7
aI4714
asS'ori'
p6
S'This house believes that the Catholic Church is justified in forbidding the use of barrier methods of contraception'
p7
ssS'output'
p8
(dp9
g4
(lp10
I3
aI2234
aI7
aI3
aI380
aI11721
aI7
aI3
aI25848
aI25849
aI24
aI3
aI2653
aI5755
aI440
aI89
aI1341
aI20012
aI34
aI3495
aI81
aI2856
aI89
aI4071
aI2767
aI3269
aI63765
asg6
S'The growth of the various manuscript of the Speculum Virginum in the Middle Ages had a particular resonance for women who sought a dedicated religious life .'
p11
ss.