(dp1
S'input'
p2
(dp3
S'encoded'
p4
(lp5
I64
aI2179
aI394
aI117
aI7428
aI21151
aI34
aI11389
aI2042
aI24
aI4364
asS'ori'
p6
S'This house would only teach abstinence for sex education in schools'
p7
ssS'output'
p8
(dp9
g4
(lp10
I8803
aI21151
aI14431
aI3
aI2038
aI7
aI18345
aI7447
aI20997
aI7438
aI63765
asg6
S'Sexual abstinence diminishes the risk of contracting sexually transmitted diseases .'
p11
ss.