(dp1
S'input'
p2
(dp3
S'encoded'
p4
(lp5
I64
aI2179
aI43
aI223
aI2138
aI11
aI89
aI21
aI45
aI2185
aI372
asS'ori'
p6
S'This house believes all nations have a right to nuclear weapons'
p7
ssS'output'
p8
(dp9
g4
(lp10
I298
aI3
aI626
aI187
aI928
aI63
aI134
aI440
aI2185
aI546
aI7832
aI366
aI3
aI11854
aI7
aI2687
aI5
aI2688
aI3
aI11808
aI2951
aI45
aI949
aI271
aI2326
aI24
aI953
aI34
aI3
aI2237
aI2223
aI63765
asg6
S'When the United States demonstrated that it had nuclear power capabilities after the bombing of Hiroshima and Nagasaki  the Russians started to develop their program in preparation for the Cold War .'
p11
ss.