(dp1
S'input'
p2
(dp3
S'encoded'
p4
(lp5
I64
aI2179
aI394
aI3830
aI3
aI475
aI7
aI9441
aI13132
aI3102
aI24
aI276
aI381
asS'ori'
p6
S'This house would permit the use of performance enhancing drugs in professional sports'
p7
ssS'output'
p8
(dp9
g4
(lp10
I3
aI3661
aI122
aI63
aI19569
aI4309
aI45
aI89
aI1160
aI7
aI4605
aI5
aI89
aI8684
aI45
aI84
aI4779
aI92
aI24
aI266
aI463
aI48
aI45
aI1796
aI10306
aI131
aI24
aI455
aI5
aI2420
aI2425
aI45
aI136
aI2354
aI27837
aI138
aI3
aI41700
aI463
aI9480
aI63765
asg6
S'The problem was that amphetamine leads to a lack of judgement and a willingness to take risks  which in sport could lead to better performances but in fighters and bombers led to more crash landings than the RAF could tolerate .'
p11
ss.