(dp1
S'input'
p2
(dp3
S'encoded'
p4
(lp5
I64
aI2179
aI43
aI3
aI626
aI187
aI116
aI1989
aI34
aI3102
aI2223
asS'ori'
p6
S"This house believes the United States is responsible for Mexico's drugs war"
p7
ssS'output'
p8
(dp9
g4
(lp10
I24
aI2959
aI448
aI44149
aI58920
aI3
aI460
aI24
aI10293
aI7
aI3
aI4276
aI24
aI3
aI10
aI7
aI8812
aI2300
aI221
aI89
aI696
aI7
aI13410
aI7
aI7170
aI493
aI3
aI631
aI2219
aI24
aI3
aI2654
aI63765
asg6
S'In April 2008  General Sergio Aponte  the man in charge of the anti-drug campaign in the state of Baja California  made a number of allegations of corruption against the police forces in the region .'
p11
ss.