(dp1
S'input'
p2
(dp3
S'encoded'
p4
(lp5
I64
aI2179
aI13605
aI2258
aI45
aI2194
asS'ori'
p6
S'This house prefers trade to aid'
p7
ssS'output'
p8
(dp9
g4
(lp10
I4766
aI24
aI28756
aI3912
aI24
aI3
aI481
aI5
aI24
aI3912
aI2404
aI2794
aI25
aI3293
aI14
aI3
aI596
aI7
aI229
aI2419
aI75
aI1488
aI18131
aI5
aI8094
aI24
aI1631
aI19
aI3963
aI45
aI89
aI166
aI3440
aI7
aI3976
aI63765
asg6
S"Bauer's experiences in Malaya (now West Malaysia) in the late 1940s and in West Africa influenced his views on the importance of individual effort by small landowners and traders in moving from subsistence to a higher standard of living ."
p11
ss.