(dp1
S'input'
p2
(dp3
S'encoded'
p4
(lp5
I64
aI2179
aI43
aI17
aI4941
aI857
aI3211
asS'ori'
p6
S'This house believes social deprivation causes crime'
p7
ssS'output'
p8
(dp9
g4
(lp10
I226
aI100
aI3211
aI2686
aI3135
aI12406
aI24
aI3
aI4996
aI3135
aI364
aI122
aI99
aI2195
aI45
aI2609
aI6801
aI75
aI132
aI12406
aI3646
aI75
aI248
aI11706
aI3136
aI3646
aI382
aI4948
aI913
aI45
aI89
aI21901
aI696
aI7
aI6796
aI63765
asg6
S'While some crime involved well-known criminal hierarchies in the city  criminal activity was not subject to central management by these hierarchies nor by other controlling groups  nor were activities limited to a finite number of objectives .'
p11
ss.