(dp1
S'input'
p2
(dp3
S'encoded'
p4
(lp5
I64
aI2179
aI43
aI3
aI626
aI187
aI116
aI1989
aI34
aI3102
aI2223
asS'ori'
p6
S"This house believes the United States is responsible for Mexico's drugs war"
p7
ssS'output'
p8
(dp9
g4
(lp10
I3
aI217
aI1360
aI1047
aI5
aI726
aI2565
aI427
aI238
aI24
aI2301
aI459
aI3
aI8509
aI2301
aI7834
aI1239
aI63765
asg6
S"The most widely known and controversial operations took place in Arizona under the ATF's Phoenix  Arizona field division ."
p11
ss.