(dp1
S'input'
p2
(dp3
S'encoded'
p4
(lp5
I64
aI2179
aI43
aI63
aI3
aI4990
aI4991
aI116
aI4850
aI24
aI12166
aI3
aI475
aI7
aI3532
aI3290
aI7
aI4714
asS'ori'
p6
S'This house believes that the Catholic Church is justified in forbidding the use of barrier methods of contraception'
p7
ssS'output'
p8
(dp9
g4
(lp10
I6359
aI9630
aI55
aI174
aI6347
aI380
aI2800
aI2120
aI159
aI41
aI285
aI3215
aI1379
aI14
aI92
aI42
aI3619
aI588
aI4604
aI11345
aI34
aI7477
aI5
aI263
aI34
aI3
aI282
aI2178
aI45
aI1453
aI136
aI45
aI1456
aI2445
aI2446
aI63765
asg6
S"Pope Benedict has also promoted various UN events  such as World Refugee Day  on which he offered up special prayers for refugees and called for the international community to do more to secure refugees' human rights ."
p11
ss.