(dp1
S'input'
p2
(dp3
S'encoded'
p4
(lp5
I64
aI2179
aI394
aI190
aI3
aI21
aI45
aI3895
aI834
asS'ori'
p6
S'This house would limit the right to bear arms'
p7
ssS'output'
p8
(dp9
g4
(lp10
I5389
aI11
aI3017
aI63
aI1374
aI182
aI416
aI24
aI3211
aI3965
aI73
aI2466
aI589
aI2639
aI1727
aI89
aI3569
aI24
aI3
aI626
aI187
aI63765
asg6
S'Surveys have suggested that guns are used in crime deterrence or prevention around 2 .5 million times a year in the United States  .'
p11
ss.