(dp1
S'input'
p2
(dp3
S'encoded'
p4
(lp5
I64
aI2179
aI394
aI4261
aI8667
aI3
aI9361
aI5
aI17069
asS'ori'
p6
S'This house would prohibit burning the stars and stripes'
p7
ssS'output'
p8
(dp9
g4
(lp10
I99
aI15337
aI1642
aI3
aI1795
aI7
aI3
aI237
aI3264
aI116
aI2381
aI906
aI75
aI14147
aI63765
asg6
S'Not wholly outside the protection of the First Amendment is speech motivated by profit .'
p11
ss.