(dp1
S'input'
p2
(dp3
S'encoded'
p4
(lp5
I64
aI2179
aI43
aI63
aI2659
aI417
aI1690
aI3
aI12048
aI7
aI19084
asS'ori'
p6
S'This house believes that Israel should lift the blockade of Gaza'
p7
ssS'output'
p8
(dp9
g4
(lp10
I6085
aI6918
aI7
aI3
aI1260
aI19084
aI910
aI7
aI878
aI565
aI122
aI5768
aI5
aI8764
aI5
aI223
aI3
aI18471
aI5
aI8416
aI17121
aI5
aI395
aI18264
aI63765
asg6
S'1 Greek boat of the Free Gaza Movement ("Spirit of Humanity"  official name "Arion") was seized and confiscated and all the 21 passengers and crew detained and later deported .'
p11
ss.