(dp1
S'input'
p2
(dp3
S'encoded'
p4
(lp5
I64
aI2179
aI394
aI60
aI23587
asS'ori'
p6
S'This house would re-engage with Myanmar'
p7
ssS'output'
p8
(dp9
g4
(lp10
I3118
aI55
aI174
aI2933
aI2705
aI2157
aI2194
aI19
aI2450
aI5
aI2390
aI24
aI3
aI1257
aI63765
asg6
S'Burma has also received extensive military aid from India and China in the past  .'
p11
ss.