(dp1
S'input'
p2
(dp3
S'encoded'
p4
(lp5
I64
aI2179
aI43
aI63
aI2659
aI417
aI1690
aI3
aI12048
aI7
aI19084
asS'ori'
p6
S'This house believes that Israel should lift the blockade of Gaza'
p7
ssS'output'
p8
(dp9
g4
(lp10
I267
aI248
aI1260
aI19084
aI910
aI2414
aI440
aI16157
aI24886
aI440
aI45
aI4031
aI611
aI2642
aI998
aI620
aI3
aI24876
aI5
aI19190
aI19195
aI19196
aI19165
aI24
aI6110
aI34
aI24887
aI5
aI634
aI17008
aI63765
asg6
S'Two other Free Gaza Movement ships had mechanical problems: Challenger 2 (USA flagged) had to turn back half way through the voyage and MV Rachel Corrie (Cambodia flagged) docked in Malta for repairs and continued separately .'
p11
ss.