(dp1
S'input'
p2
(dp3
S'encoded'
p4
(lp5
I64
aI2179
aI43
aI63
aI3
aI21
aI45
aI12715
aI417
aI99
aI316
aI2897
asS'ori'
p6
S'This house believes that the right to asylum should not be absolute'
p7
ssS'output'
p8
(dp9
g4
(lp10
I155
aI394
aI18516
aI271
aI2573
aI60
aI376
aI14
aI89
aI5973
aI7
aI3
aI15575
aI3101
aI195
aI63765
asg6
S'They would reclaim their investment  with interest  on a proportion of the migrants illicit wages .'
p11
ss.