(dp1
S'input'
p2
(dp3
S'encoded'
p4
(lp5
I64
aI2179
aI43
aI63
aI1036
aI4828
aI33250
aI116
aI25073
aI45
aI3315
aI4562
asS'ori'
p6
S'This house believes that male infant circumcision is tantamount to child abuse'
p7
ssS'output'
p8
(dp9
g4
(lp10
I2759
aI1560
aI3552
aI34
aI4828
aI33250
aI1074
aI2019
aI63765
aI1147
aI34920
aI81
aI2586
aI7252
aI2041
aI14
aI3
aI1353
aI4697
aI7
aI11271
aI11272
aI20270
aI24
aI3
aI2644
aI2019
aI63765
aI22224
aI33263
aI63765
asg6
S'Prominent American advocates for infant circumcision include Dr . Thomas Wiswell  who began publishing research on the relative incidence of urinary tract infections in the mid 1980s; Dr . Edgar Schoen  (b .'
p11
ss.