(dp1
S'input'
p2
(dp3
S'encoded'
p4
(lp5
I64
aI2179
aI394
aI9385
aI2497
aI447
aI14
aI3
aI3578
aI5721
aI7
aI260
asS'ori'
p6
S'This house would enforce term limits on the legislative branch of government'
p7
ssS'output'
p8
(dp9
g4
(lp10
I3
aI8863
aI7
aI100
aI63
aI2221
aI394
aI2497
aI447
aI440
aI1668
aI2118
aI45
aI51
aI312
aI63765
asg6
S'The hopes of some that Congress would self-impose term limits had abruptly come to an end .'
p11
ss.