(dp1
S'input'
p2
(dp3
S'encoded'
p4
(lp5
I64
aI2179
aI43
aI63
aI3
aI4990
aI4991
aI116
aI4850
aI24
aI12166
aI3
aI475
aI7
aI3532
aI3290
aI7
aI4714
asS'ori'
p6
S'This house believes that the Catholic Church is justified in forbidding the use of barrier methods of contraception'
p7
ssS'output'
p8
(dp9
g4
(lp10
I223
aI8803
aI12375
aI63
aI1944
aI1610
aI60
aI3
aI651
aI19489
aI7
aI97
aI2007
aI417
aI316
aI513
aI45
aI11698
aI100
aI2038
aI7
aI6241
aI7
aI7447
aI20997
aI7438
aI63765
asg6
S'All sexual behaviors that involve contact with the bodily fluids of another person should be considered to contain some risk of transmission of sexually transmitted diseases .'
p11
ss.