(dp1
S'input'
p2
(dp3
S'encoded'
p4
(lp5
I64
aI2179
aI43
aI63
aI3
aI4990
aI4991
aI116
aI4850
aI24
aI12166
aI3
aI475
aI7
aI3532
aI3290
aI7
aI4714
asS'ori'
p6
S'This house believes that the Catholic Church is justified in forbidding the use of barrier methods of contraception'
p7
ssS'output'
p8
(dp9
g4
(lp10
I3
aI3716
aI905
aI1966
aI139
aI154
aI443
aI639
aI7
aI2231
aI443
aI11558
aI7
aI3
aI4991
aI443
aI6298
aI2240
aI15353
aI93
aI4990
aI10783
aI81
aI1978
aI729
aI63
aI4714
aI122
aI243
aI992
aI3148
aI63765
asg6
S'The Minority report argued that:"One can find no period of history  no document of the church  no theological school  scarcely one Catholic theologian  who ever denied that contraception was always seriously evil .'
p11
ss.