(dp1
S'input'
p2
(dp3
S'encoded'
p4
(lp5
I64
aI2179
aI394
aI2017
aI223
aI9058
aI23653
asS'ori'
p6
S'This house would ban all unsustainable logging'
p7
ssS'output'
p8
(dp9
g4
(lp10
I2992
aI75
aI3
aI6669
aI720
aI4325
aI11
aI3611
aI2506
aI3493
aI75
aI3
aI4566
aI2923
aI382
aI784
aI1727
aI136
aI1856
aI45
aI316
aI36819
aI75
aI50716
aI138
aI10029
aI969
aI5
aI63
aI3
aI6761
aI547
aI14184
aI45
aI2601
aI1893
aI3
aI8254
aI2844
aI99
aI117
aI34
aI9773
aI2410
aI131
aI45
aI2882
aI3
aI2844
aI7
aI15896
aI5
aI475
aI134
aI41
aI5092
aI5
aI34
aI1444
aI63765
asg6
S'Studies by the Environmental Defense Fund have revealed areas affected by the road network were eight times more likely to be deforested by cultivators than untouched lands and that the roads allowed developers to increasingly exploit the forest reserves not only for pastoral production but to export the reserves of wood and use it as fuel and for building .'
p11
ss.