(dp1
S'input'
p2
(dp3
S'encoded'
p4
(lp5
I64
aI2179
aI43
aI63
aI3
aI21
aI45
aI12715
aI417
aI99
aI316
aI2897
asS'ori'
p6
S'This house believes that the right to asylum should not be absolute'
p7
ssS'output'
p8
(dp9
g4
(lp10
I273
aI382
aI748
aI2637
aI22
aI5
aI6733
aI3398
aI45
aI1029
aI3
aI267
aI3136
aI7
aI17853
aI12481
aI159
aI41
aI3
aI6000
aI2591
aI7
aI29539
aI5
aI89
aI9676
aI25616
aI45
aI120
aI2203
aI92
aI440
aI2396
aI278
aI2219
aI397
aI15
aI285
aI2285
aI63765
asg6
S'There were possible cultural  political and practical reasons to treat the two groups of nationalities differently such as the historic ties of kinship and a lasting gratitude to those countries which had provided commonwealth forces during both world wars .'
p11
ss.