(dp1
S'input'
p2
(dp3
S'encoded'
p4
(lp5
I64
aI2179
aI394
aI4325
aI2042
aI270
aI89
aI11605
aI3324
asS'ori'
p6
S'This house would fund education using a voucher scheme'
p7
ssS'output'
p8
(dp9
g4
(lp10
I61
aI357
aI139
aI4862
aI19
aI132
aI727
aI116
aI63
aI863
aI2439
aI7
aI2705
aI5229
aI85
aI34
aI3862
aI734
aI24
aI23605
aI9074
aI727
aI63
aI507
aI45
aI1102
aI3
aI1387
aI291
aI3862
aI7
aI3
aI7412
aI5
aI3862
aI7
aI3
aI1376
aI41
aI2388
aI2174
aI75
aI15701
aI63765
asg6
S'What we can infer from these results is that five years of extensive quality care for children beginning in infancy yields results that begin to close the gap between children of the rich and children of the poor  as earlier mentioned by Summers .'
p11
ss.