(dp1
S'input'
p2
(dp3
S'encoded'
p4
(lp5
I64
aI2179
aI43
aI63
aI7382
aI116
aI400
aI4713
asS'ori'
p6
S'This house believes that bribery is sometimes acceptable'
p7
ssS'output'
p8
(dp9
g4
(lp10
I3
aI696
aI7
aI5726
aI6942
aI43695
aI136
aI138
aI93
aI2639
aI5983
aI461
aI588
aI75
aI2900
aI289
aI3
aI3569
aI63765
asg6
S'The number of officials caught embezzling more than one million yuan (US$146 000) went up by 19 percent over the year .'
p11
ss.