(dp1
S'input'
p2
(dp3
S'encoded'
p4
(lp5
I64
aI2179
aI43
aI223
aI2138
aI11
aI89
aI21
aI45
aI2185
aI372
asS'ori'
p6
S'This house believes all nations have a right to nuclear weapons'
p7
ssS'output'
p8
(dp9
g4
(lp10
I51
aI1560
aI2326
aI2762
aI11999
aI440
aI11973
aI45
aI831
aI2330
aI6834
aI736
aI1560
aI531
aI1931
aI19
aI943
aI5
aI4883
aI86
aI45
aI79
aI34
aI3
aI2145
aI63765
asg6
S'An American program  Project Paperclip  had endeavored to move German scientists into American hands (and away from Soviet hands) and put them to work for the U .S .'
p11
ss.