(dp1
S'input'
p2
(dp3
S'encoded'
p4
(lp5
I64
aI2179
aI394
aI2017
aI223
aI9058
aI23653
asS'ori'
p6
S'This house would ban all unsustainable logging'
p7
ssS'output'
p8
(dp9
g4
(lp10
I6627
aI667
aI6628
aI55
aI93
aI7
aI3
aI2764
aI2546
aI18865
aI63765
asg6
S'Papua New Guinea (PNG) has one of the worlds largest rainforests .'
p11
ss.