(dp1
S'input'
p2
(dp3
S'encoded'
p4
(lp5
I64
aI2179
aI394
aI16756
aI20435
asS'ori'
p6
S'This house would criminalize blasphemy'
p7
ssS'output'
p8
(dp9
g4
(lp10
I281
aI10591
aI24
aI2044
aI440
aI14921
aI62878
aI19
aI5
aI27499
aI223
aI3
aI37620
aI24
aI271
aI5119
aI89
aI1896
aI873
aI2388
aI3
aI6273
aI883
aI40583
aI440
aI14921
aI267
aI7
aI3
aI13059
aI24
aI5147
aI60
aI51
aI3500
aI7322
aI3
aI2117
aI63765
asg6
S'Major newspapers in Norway had printed facsimiles from Jyllands-Posten and reproduced all the caricatures in their online versions; a few days earlier  the Swedish newspaper Expressen had printed two of the drawings in conjunction with an article discussing the event  .'
p11
ss.