(dp1
S'input'
p2
(dp3
S'encoded'
p4
(lp5
I64
aI2179
aI43
aI63
aI134
aI116
aI400
aI21
aI34
aI3
aI260
aI45
aI3439
aI57
aI7
aI2381
asS'ori'
p6
S'This house believes that it is sometimes right for the government to restrict freedom of speech'
p7
ssS'output'
p8
(dp9
g4
(lp10
I725
aI2023
aI8302
aI6745
aI8302
aI7447
aI14407
aI73
aI4434
aI14185
aI459
aI77
aI3717
aI3283
aI60
aI20035
aI6394
aI59268
aI5
aI311
aI1727
aI14
aI3
aI13004
aI63765
asg6
S'Many Canadian broadcast stations broadcast sexually explicit or violent programming under certain circumstances  albeit with viewer discretion advisories and at adult-oriented times on the schedule .'
p11
ss.