(dp1
S'input'
p2
(dp3
S'encoded'
p4
(lp5
I64
aI2179
aI43
aI63
aI3
aI4990
aI4991
aI116
aI4850
aI24
aI12166
aI3
aI475
aI7
aI3532
aI3290
aI7
aI4714
asS'ori'
p6
S'This house believes that the Catholic Church is justified in forbidding the use of barrier methods of contraception'
p7
ssS'output'
p8
(dp9
g4
(lp10
I226
aI5478
aI3
aI626
aI187
aI14
aI2959
aI9630
aI5898
aI60
aI282
aI2022
aI34
aI21782
aI4803
aI4233
aI26915
aI26916
aI89
aI641
aI8189
aI9703
aI5
aI26917
aI7
aI26918
aI26919
aI63765
asg6
S'While visiting the United States on 17 April 2008  Benedict met with International Society for Krishna Consciousness representative Radhika Ramana Dasa; a notable Hindu scholar and disciple of Hanumatpreshaka Swami  .'
p11
ss.