(dp1
S'input'
p2
(dp3
S'encoded'
p4
(lp5
I64
aI2179
aI43
aI63
aI134
aI116
aI400
aI21
aI34
aI3
aI260
aI45
aI3439
aI57
aI7
aI2381
asS'ori'
p6
S'This house believes that it is sometimes right for the government to restrict freedom of speech'
p7
ssS'output'
p8
(dp9
g4
(lp10
I24
aI2452
aI233
aI45
aI3
aI10247
aI2475
aI10535
aI5
aI248
aI274
aI7
aI12511
aI2381
aI182
aI60
aI443
aI21
aI45
aI20539
aI45
aI211
aI63765
asg6
S'In Brazil  according to the 1988 Brazilian Constitution  racism and other forms of race-related hate speech are "imprescriptible crime(s) with no right to bail to its accused"  .'
p11
ss.