(dp1
S'input'
p2
(dp3
S'encoded'
p4
(lp5
I64
aI2179
aI43
aI63
aI6670
aI546
aI417
aI316
aI89
aI1334
aI3108
aI7
aI4849
aI1886
aI2855
asS'ori'
p6
S'This house believes that wind power should be a primary focus of future energy supply'
p7
ssS'output'
p8
(dp9
g4
(lp10
I5092
aI5136
aI177
aI34
aI6674
aI5092
aI5
aI5095
aI2879
aI419
aI982
aI34
aI2185
aI5
aI18071
aI63765
asg6
S'Fuel costs - high for fossil fuel and biomass sources  very low for nuclear and renewables .'
p11
ss.