(dp1
S'input'
p2
(dp3
S'encoded'
p4
(lp5
I64
aI2179
aI394
aI475
aI2135
aI2194
aI6198
aI45
aI2041
aI5
aI13926
aI8732
aI63
aI1735
aI12708
aI5
aI5599
aI24
aI2203
aI45
aI1397
aI7149
aI5
aI12311
aI271
aI5119
aI4948
asS'ori'
p6
S'This house would use foreign aid funds to research and distribute software that allows bloggers and journalists in non-democratic countries to evade censorship and conceal their online activities'
p7
ssS'output'
p8
(dp9
g4
(lp10
I7147
aI4670
aI1047
aI41
aI5119
aI12083
aI6968
aI6442
aI62075
aI5
aI116
aI3
aI475
aI7
aI6968
aI4279
aI2947
aI159
aI41
aI17
aI897
aI946
aI17506
aI5
aI10637
aI31366
aI5
aI62076
aI34
aI380
aI274
aI7
aI4670
aI45
aI5643
aI1050
aI7509
aI75
aI4278
aI3300
aI5
aI3
aI11676
aI7
aI2083
aI5224
aI45
aI89
aI1445
aI10597
aI63765
asg6
S'Internet activism (also known as online organizing  electronic advocacy  cyberactivism  e-campaigning  and e-activism) is the use of electronic communication technologies such as social media  especially Twitter and Facebook  YouTube  e-mail  and podcasts for various forms of activism to enable faster communications by citizen movements and the delivery of local information to a large audience .'
p11
ss.