(dp1
S'input'
p2
(dp3
S'encoded'
p4
(lp5
I64
aI2179
aI43
aI63
aI134
aI116
aI400
aI21
aI34
aI3
aI260
aI45
aI3439
aI57
aI7
aI2381
asS'ori'
p6
S'This house believes that it is sometimes right for the government to restrict freedom of speech'
p7
ssS'output'
p8
(dp9
g4
(lp10
I64
aI7259
aI1106
aI53
aI187
aI3742
aI45
aI3439
aI89
aI2445
aI21
aI24
aI3
aI565
aI7
aI97
aI2445
aI21
aI73
aI53
aI147
aI109
aI14
aI89
aI2445
aI21
aI45
aI6332
aI248
aI2445
aI2446
aI1343
aI53
aI51
aI229
aI214
aI89
aI1012
aI63765
asg6
S'This addresses instances where states seek to restrict a human right in the name of another human right  or where individuals rely on a human right to undermine other human rights (for example where an individual issues a death threat) .'
p11
ss.