(dp1
S'input'
p2
(dp3
S'encoded'
p4
(lp5
I64
aI2179
aI43
aI63
aI3
aI28431
aI7
aI2157
aI4624
aI75
aI39939
aI27257
aI122
aI4850
asS'ori'
p6
S'This house believes that the leaking of military documents by Anat Kamm was justified'
p7
ssS'output'
p8
(dp9
g4
(lp10
I378
aI12784
aI4518
aI20429
aI1340
aI350
aI63
aI3
aI20389
aI440
aI24
aI68
aI12
aI28430
aI5
aI63
aI134
aI440
aI3763
aI3
aI8734
aI63765
asg6
S'However  blogger Glenn Greenwald presented evidence that the Pentagon had  in fact  been contacted  and that it had refused the request  .'
p11
ss.