(dp1
S'input'
p2
(dp3
S'encoded'
p4
(lp5
I64
aI2179
aI43
aI24
aI3
aI475
aI7
aI12436
aI3364
asS'ori'
p6
S'This house believes in the use of affirmative action'
p7
ssS'output'
p8
(dp9
g4
(lp10
I1950
aI155
aI103
aI63
aI705
aI13763
aI5
aI4358
aI182
aI4666
aI45
aI84
aI3
aI2345
aI24
aI8070
aI2637
aI226
aI965
aI705
aI13763
aI5
aI4358
aI182
aI99
aI1989
aI63765
asg6
S'Second  they claim that non-white staff  faculty  and students are expected to take the initiative in addressing "non-white cultural issues"  while white staff  faculty  and students are not responsible .'
p11
ss.