(dp1
S'input'
p2
(dp3
S'encoded'
p4
(lp5
I64
aI2179
aI394
aI16756
aI20435
asS'ori'
p6
S'This house would criminalize blasphemy'
p7
ssS'output'
p8
(dp9
g4
(lp10
I366
aI4199
aI7
aI26867
aI19
aI3
aI6273
aI260
aI5
aI24
aI1341
aI19
aI3
aI2161
aI7
aI2135
aI2181
aI48356
aI61595
aI3
aI2127
aI122
aI5087
aI462
aI63765
asg6
S'After words of exhortation from the Swedish government  and in particular from the Minister of Foreign Affairs  Laila Freivalds  the website was shut down .'
p11
ss.