(dp1
S'input'
p2
(dp3
S'encoded'
p4
(lp5
I64
aI2179
aI394
aI117
aI7428
aI21151
aI34
aI11389
aI2042
aI24
aI4364
asS'ori'
p6
S'This house would only teach abstinence for sex education in schools'
p7
ssS'output'
p8
(dp9
g4
(lp10
I3
aI1643
aI2035
aI353
aI63
aI11560
aI7
aI89
aI237
aI8803
aI952
aI12509
aI47
aI3226
aI60
aI3
aI696
aI7
aI5101
aI89
aI1379
aI17092
aI3165
aI31900
aI63765
asg6
S'The same study found that "the likelihood of a first sexual experience happening will increase with the number of hours a day teens spend unsupervised .'
p11
ss.