(dp1
S'input'
p2
(dp3
S'encoded'
p4
(lp5
I64
aI2179
aI394
aI4325
aI2042
aI270
aI89
aI11605
aI3324
asS'ori'
p6
S'This house would fund education using a voucher scheme'
p7
ssS'output'
p8
(dp9
g4
(lp10
I97
aI2345
aI876
aI11
aI12
aI14
aI3
aI10472
aI24
aI3
aI15770
aI7
aI2303
aI63765
asg6
S'Another initiative might have been on the ballot in the Matanuska-Susitna Borough of Alaska .'
p11
ss.