(dp1
S'input'
p2
(dp3
S'encoded'
p4
(lp5
I64
aI2179
aI394
aI2017
aI262
asS'ori'
p6
S'This house would ban boxing'
p7
ssS'output'
p8
(dp9
g4
(lp10
I641
aI20
aI1672
aI1074
aI1094
aI1282
aI5
aI1266
aI1267
aI63765
asg6
S'Notable left hookers include Joe Frazier and Mike Tyson .'
p11
ss.