(dp1
S'input'
p2
(dp3
S'encoded'
p4
(lp5
I64
aI2179
aI43
aI8629
aI116
aI3
aI117
aI998
asS'ori'
p6
S'This house believes atheism is the only way'
p7
ssS'output'
p8
(dp9
g4
(lp10
I107
aI3218
aI4588
aI55
aI89
aI22208
aI14455
aI7966
aI3473
aI620
aI3
aI3262
aI7
aI7829
aI1985
aI78
aI35
aI8627
aI63765
asg6
S'Instead  our morality has a Darwinian explanation: altruistic genes  selected through the process of evolution  give people natural empathy .'
p11
ss.