(dp1
S'input'
p2
(dp3
S'encoded'
p4
(lp5
I64
aI2179
aI394
aI4325
aI2042
aI270
aI89
aI11605
aI3324
asS'ori'
p6
S'This house would fund education using a voucher scheme'
p7
ssS'output'
p8
(dp9
g4
(lp10
I2206
aI417
aI991
aI372
aI1621
aI45
aI2653
aI2087
aI2203
aI158
aI51872
aI316
aI46404
asg6
S'|-valign="top" US should stop weapons transfers to Middle East countries  including Israeland be "honest broker ."'
p11
ss.