(dp1
S'input'
p2
(dp3
S'encoded'
p4
(lp5
I64
aI2179
aI394
aI117
aI7428
aI21151
aI34
aI11389
aI2042
aI24
aI4364
asS'ori'
p6
S'This house would only teach abstinence for sex education in schools'
p7
ssS'output'
p8
(dp9
g4
(lp10
I11390
aI8578
aI24
aI2567
aI60
aI1478
aI5716
aI5
aI24
aI1341
aI60
aI3822
aI1980
aI182
aI136
aI1856
aI45
aI1199
aI3314
aI138
aI11390
aI8578
aI24
aI2567
aI60
aI5716
aI271
aI284
aI3485
aI63765
asg6
S'Teenage girls in relationships with older boys  and in particular with adult men  are more likely to become pregnant than teenage girls in relationships with boys their own age .'
p11
ss.