(dp1
S'input'
p2
(dp3
S'encoded'
p4
(lp5
I64
aI2179
aI394
aI1499
aI177
aI1819
aI34
aI160
asS'ori'
p6
S'This house would build high rises for housing'
p7
ssS'output'
p8
(dp9
g4
(lp10
I3
aI2497
aI3874
aI4439
aI40
aI89
aI2179
aI116
aI2676
aI5
aI81
aI4830
aI24
aI134
aI63765
asg6
S'The term "single family house" describes how a house is built and who lives in it .'
p11
ss.