(dp1
S'input'
p2
(dp3
S'encoded'
p4
(lp5
I64
aI2179
aI43
aI223
aI2138
aI11
aI89
aI21
aI45
aI2185
aI372
asS'ori'
p6
S'This house believes all nations have a right to nuclear weapons'
p7
ssS'output'
p8
(dp9
g4
(lp10
I3
aI2762
aI122
aI9295
aI24
aI5
aI1350
aI311
aI47292
aI2080
aI3609
aI45
aI2185
aI546
aI24
aI248
aI1948
aI7
aI323
aI5
aI874
aI875
aI63765
asg6
S'The project was cancelled in 1975 and anti-nuclear success at Wyhl inspired opposition to nuclear power in other parts of Europe and North America  .'
p11
ss.