(dp1
S'input'
p2
(dp3
S'encoded'
p4
(lp5
I64
aI2179
aI43
aI17
aI4941
aI857
aI3211
asS'ori'
p6
S'This house believes social deprivation causes crime'
p7
ssS'output'
p8
(dp9
g4
(lp10
I34
aI1343
aI3
aI8150
aI7
aI89
aI3874
aI139
aI1466
aI89
aI17087
aI261
aI773
aI5
aI13537
aI2994
aI63765
asg6
S'For example  the dynamics of a family can affect a childs well being and delinquency rate .'
p11
ss.