(dp1
S'input'
p2
(dp3
S'encoded'
p4
(lp5
I64
aI2179
aI394
aI1499
aI177
aI1819
aI34
aI160
asS'ori'
p6
S'This house would build high rises for housing'
p7
ssS'output'
p8
(dp9
g4
(lp10
I3
aI845
aI55
aI311
aI1727
aI12
aI4591
aI291
aI3
aI281
aI22
aI4615
aI63765
asg6
S'The issue has at times been debated between the major political parties  .'
p11
ss.