(dp1
S'input'
p2
(dp3
S'encoded'
p4
(lp5
I64
aI2179
aI394
aI4325
aI2042
aI270
aI89
aI11605
aI3324
asS'ori'
p6
S'This house would fund education using a voucher scheme'
p7
ssS'output'
p8
(dp9
g4
(lp10
I97
aI9208
aI5085
aI24
aI9364
aI5207
aI4925
aI116
aI3
aI3874
aI4304
aI7
aI4358
aI63765
asg6
S'Another crucial factor in determining educational inequality is the family background of students .'
p11
ss.