(dp1
S'input'
p2
(dp3
S'encoded'
p4
(lp5
I64
aI2179
aI394
aI5370
aI7146
aI4585
aI2446
asS'ori'
p6
S'This house would abolish intellectual property rights'
p7
ssS'output'
p8
(dp9
g4
(lp10
I24324
aI622
aI3811
aI8732
aI4035
aI5
aI3954
aI63765
asg6
S'Piracy primarily targets software  film and music .'
p11
ss.