(dp1
S'input'
p2
(dp3
S'encoded'
p4
(lp5
I64
aI2179
aI43
aI63
aI3376
aI4938
aI417
aI316
aI3537
asS'ori'
p6
S'This house believes that endangered species should be protected'
p7
ssS'output'
p8
(dp9
g4
(lp10
I220
aI400
aI1792
aI3
aI852
aI7
aI3920
aI4938
aI41
aI89
aI852
aI45
aI18900
aI5
aI139
aI3582
aI2511
aI60
aI5012
aI1184
aI493
aI3
aI2258
aI24
aI3920
aI4938
aI24
aI51
aI2419
aI45
aI881
aI7798
aI24
aI3
aI1702
aI63765
asg6
S'Governments sometimes see the loss of native species as a loss to ecotourism  and can enact laws with severe punishment against the trade in native species in an effort to prevent extinction in the wild .'
p11
ss.