(dp1
S'input'
p2
(dp3
S'encoded'
p4
(lp5
I64
aI2179
aI394
aI4325
aI2042
aI270
aI89
aI11605
aI3324
asS'ori'
p6
S'This house would fund education using a voucher scheme'
p7
ssS'output'
p8
(dp9
g4
(lp10
I2233
aI1190
aI357
aI417
aI1192
aI24
aI3
aI2653
aI7
aI132
aI49070
aI63765
asg6
S"I don't think we should get in the middle of these squabbles ."
p11
ss.