(dp1
S'input'
p2
(dp3
S'encoded'
p4
(lp5
I64
aI2179
aI394
aI5370
aI7146
aI4585
aI2446
asS'ori'
p6
S'This house would abolish intellectual property rights'
p7
ssS'output'
p8
(dp9
g4
(lp10
I2143
aI394
aI316
aI165
aI136
aI170
aI1191
aI3
aI7243
aI155
aI221
aI41
aI3059
aI4615
aI394
aI316
aI1260
aI45
aI1893
aI351
aI6782
aI63765
asg6
S'Corporations would be much more conservative about the R&#38;D investments they made  as third parties would be free to exploit any developments .'
p11
ss.