(dp1
S'input'
p2
(dp3
S'encoded'
p4
(lp5
I64
aI2179
aI43
aI17
aI4941
aI857
aI3211
asS'ori'
p6
S'This house believes social deprivation causes crime'
p7
ssS'output'
p8
(dp9
g4
(lp10
I233
aI45
aI89
aI2035
aI2425
aI75
aI2296
aI10
aI4750
aI17338
aI12892
aI2648
aI63765
aI42319
aI5027
aI5349
aI81
aI1897
aI89
aI77
aI1380
aI7
aI1794
aI24
aI89
aI2386
aI1079
aI182
aI136
aI1856
aI45
aI8425
aI45
aI17091
aI15072
asg6
S'According to a study led by Florida State University criminologist Kevin M . Beaver  adolescent males who possess a certain type of variation in a specific gene are more likely to flock to delinquent peers'
p11
ss.