(dp1
S'input'
p2
(dp3
S'encoded'
p4
(lp5
I64
aI2179
aI13605
aI2258
aI45
aI2194
asS'ori'
p6
S'This house prefers trade to aid'
p7
ssS'output'
p8
(dp9
g4
(lp10
I2056
aI1191
aI7
aI3
aI7373
aI2448
aI2605
aI2818
aI736
aI7369
aI2410
aI34
aI61
aI2623
aI122
aI3
aI217
aI7374
aI803
aI14
aI3
aI7375
aI63765
asg6
S"Now  about one-third of the dam's electric output goes directly into fertilizer production for what previously was the most fertile area on the planet ."
p11
ss.