(dp1
S'input'
p2
(dp3
S'encoded'
p4
(lp5
I64
aI2179
aI43
aI17
aI4941
aI857
aI3211
asS'ori'
p6
S'This house believes social deprivation causes crime'
p7
ssS'output'
p8
(dp9
g4
(lp10
I24
aI3
aI2206
aI3
aI3135
aI2248
aI145
aI55
aI34
aI6396
aI3251
aI5
aI5597
aI45
aI1476
aI3757
aI45
aI1374
aI5
aI7428
aI2513
aI9596
aI63765
asg6
S"In the US  the criminal justice system has  for instance  funded school- and community-based initiatives to reduce children's access to guns and teach conflict resolution ."
p11
ss.