(dp1
S'input'
p2
(dp3
S'encoded'
p4
(lp5
I64
aI2179
aI43
aI24
aI3
aI475
aI7
aI12436
aI3364
asS'ori'
p6
S'This house believes in the use of affirmative action'
p7
ssS'output'
p8
(dp9
g4
(lp10
I107
aI7
aI270
aI64
aI1380
aI7
aI2136
aI134
aI55
aI12
aI3017
aI75
aI2985
aI63
aI89
aI2136
aI7
aI12244
aI5969
aI417
aI316
aI416
aI63765
asg6
S'Instead of using this type of policy  it has been suggested by critics that a policy of qualification equality should be used .'
p11
ss.