(dp1
S'input'
p2
(dp3
S'encoded'
p4
(lp5
I64
aI2179
aI394
aI2017
aI3807
aI314
aI3433
asS'ori'
p6
S'This house would ban partial birth abortions'
p7
ssS'output'
p8
(dp9
g4
(lp10
I122
aI237
aI416
aI24
aI3
aI897
aI14
aI2116
aI24
aI89
aI3572
aI1727
aI3500
aI899
aI3
aI2029
aI63765
asg6
S'"Partial-birth abortion" was first used in the media on 4 June 1995 in a Washington Times article covering the bill .'
p11
ss.