(dp1
S'input'
p2
(dp3
S'encoded'
p4
(lp5
I64
aI2179
aI43
aI8629
aI116
aI3
aI117
aI998
asS'ori'
p6
S'This house believes atheism is the only way'
p7
ssS'output'
p8
(dp9
g4
(lp10
I3
aI863
aI3708
aI3
aI143
aI7
aI3
aI54110
aI24575
aI3
aI143
aI7
aI3
aI237
aI521
aI3
aI143
aI19
aI27864
aI3
aI143
aI19
aI4927
aI5
aI3
aI21789
aI143
aI63765
asg6
S'The five ways are; the argument of the unmoved mover  the argument of the first cause  the argument from contingency  the argument from degree and the teleological argument .'
p11
ss.