(dp1
S'input'
p2
(dp3
S'encoded'
p4
(lp5
I64
aI2179
aI13605
aI2258
aI45
aI2194
asS'ori'
p6
S'This house prefers trade to aid'
p7
ssS'output'
p8
(dp9
g4
(lp10
I51
aI320
aI4387
aI2419
aI14
aI3338
aI7
aI1260
aI2258
aI122
aI221
aI75
aI3
aI40080
aI7
aI3
aI70
aI2344
aI63765
asg6
S'An early lobbying effort on behalf of free trade was made by the businesspeople of the Anti-Corn Law League .'
p11
ss.