(dp1
S'input'
p2
(dp3
S'encoded'
p4
(lp5
I64
aI2179
aI394
aI9385
aI2497
aI447
aI14
aI3
aI3578
aI5721
aI7
aI260
asS'ori'
p6
S'This house would enforce term limits on the legislative branch of government'
p7
ssS'output'
p8
(dp9
g4
(lp10
I89
aI697
aI7
aI2277
aI5605
aI267
aI838
aI1809
aI5
aI3350
aI89
aI3059
aI5
aI292
aI2277
aI5605
aI93
aI838
aI2497
aI5
aI3763
aI89
aI1950
aI63765
asg6
S'A total of 8 presidents served two full terms and declined a third and three presidents served one full term and refused a second .'
p11
ss.