(dp1
S'input'
p2
(dp3
S'encoded'
p4
(lp5
I64
aI2179
aI394
aI3830
aI3
aI475
aI7
aI9441
aI13132
aI3102
aI24
aI276
aI381
asS'ori'
p6
S'This house would permit the use of performance enhancing drugs in professional sports'
p7
ssS'output'
p8
(dp9
g4
(lp10
I6286
aI13936
aI1020
aI233
aI45
aI25
aI3379
aI122
aI8271
aI60
aI13422
aI20673
aI45
aI1029
aI380
aI11261
aI63765
asg6
S'Adolf Hitler himself  according to his physician  was injected with testosterone derivatives to treat various ailments  .'
p11
ss.