(dp1
S'input'
p2
(dp3
S'encoded'
p4
(lp5
I64
aI2179
aI43
aI63
aI3
aI21
aI45
aI12715
aI417
aI99
aI316
aI2897
asS'ori'
p6
S'This house believes that the right to asylum should not be absolute'
p7
ssS'output'
p8
(dp9
g4
(lp10
I10471
aI7477
aI696
aI291
aI5
aI2639
aI24
aI2658
aI60
aI217
aI3976
aI24
aI25060
aI63765
asg6
S'Iraqi refugees number between 750 000 and 1 million in Jordan with most living in Amman .'
p11
ss.