(dp1
S'input'
p2
(dp3
S'encoded'
p4
(lp5
I64
aI2179
aI43
aI63
aI187
aI417
aI99
aI16642
aI3
aI6449
aI7
aI3935
asS'ori'
p6
S'This house believes that states should not subsidize the growing of tobacco'
p7
ssS'output'
p8
(dp9
g4
(lp10
I10873
aI55
aI12
aI2845
aI45
aI521
aI457
aI4386
aI3569
aI7
aI92
aI182
aI457
aI19
aI14834
aI5057
aI24
asg6
S'Second-hand smoke has been estimated to cause 38 000 deaths per year  of which 3 400 are deaths from lung cancer in non-smokers '
p11
ss.