(dp1
S'input'
p2
(dp3
S'encoded'
p4
(lp5
I64
aI2179
aI394
aI5370
aI223
aI4013
aI10440
aI2446
aI4881
aI75
aI14482
aI11004
asS'ori'
p6
S'This house would abolish all collective bargaining rights claimed by trades unions'
p7
ssS'output'
p8
(dp9
g4
(lp10
I357
aI11
aI5603
aI45
aI17332
aI1063
aI864
aI63765
asg6
S'We have got to wipe him out  .'
p11
ss.