(dp1
S'input'
p2
(dp3
S'encoded'
p4
(lp5
I64
aI2179
aI394
aI2017
aI3807
aI314
aI3433
asS'ori'
p6
S'This house would ban partial birth abortions'
p7
ssS'output'
p8
(dp9
g4
(lp10
I3
aI912
aI2041
aI350
aI1548
aI116
aI23010
aI2992
aI4753
aI443
aI350
aI7
aI652
aI1887
aI248
aI2992
aI3114
aI89
aI1051
aI7
aI1043
aI14678
aI1592
aI3257
asg6
S'The current research evidence base is inconclusivesome studies indicate no evidence of harm  whilst other studies identify a range of mental disorders following abortion ."'
p11
ss.