(dp1
S'input'
p2
(dp3
S'encoded'
p4
(lp5
I64
aI2179
aI394
aI2017
aI3807
aI314
aI3433
asS'ori'
p6
S'This house would ban partial birth abortions'
p7
ssS'output'
p8
(dp9
g4
(lp10
I3
aI3337
aI752
aI122
aI717
aI111
aI3
aI3355
aI3264
aI5
aI3
aI2483
aI2357
aI111
aI89
aI3356
aI3357
aI75
aI2248
aI3358
aI3359
aI24
aI3
aI2482
aI2483
aI33
aI7
aI3360
aI646
aI63765
aI3303
aI179
aI24
aI3
aI752
aI34
aI89
aI21
aI45
aI3261
aI63765
asg6
S"The district court's decision was based upon the Ninth Amendment  and the court relied upon a concurring opinion by Justice Arthur Goldberg in the 1965 Supreme Court case of Griswold v . Connecticut  finding in the decision for a right to privacy  ."
p11
ss.