(dp1
S'input'
p2
(dp3
S'encoded'
p4
(lp5
I64
aI2179
aI43
aI24
aI3
aI475
aI7
aI12436
aI3364
asS'ori'
p6
S'This house believes in the use of affirmative action'
p7
ssS'output'
p8
(dp9
g4
(lp10
I3
aI2536
aI145
aI1967
aI45
aI124
aI7631
aI34
aI3
aI2789
aI7
aI3
aI47867
aI5
aI26859
aI87
aI41
aI45
aI3226
aI271
aI11649
aI24
aI3
aI5508
aI3
aI2470
aI7
aI3
aI2548
aI5
aI187
aI3
aI203
aI972
aI4364
aI10275
aI5
aI248
aI17
aI2825
aI63765
asg6
S'The reservation system exists to provide opportunities for the members of the SCs and STs so as to increase their representation in the legislature  the executive of the nation and states  the labor force  schools  colleges  and other social institutions  .'
p11
ss.