(dp1
S'input'
p2
(dp3
S'encoded'
p4
(lp5
I64
aI2179
aI394
aI5370
aI223
aI4013
aI10440
aI2446
aI4881
aI75
aI14482
aI11004
asS'ori'
p6
S'This house would abolish all collective bargaining rights claimed by trades unions'
p7
ssS'output'
p8
(dp9
g4
(lp10
I2409
aI14146
aI906
aI75
aI89
aI136
aI2148
aI14677
aI2784
aI111
aI89
aI3991
aI14442
aI63
aI223
aI6941
aI83
aI96
aI574
aI248
aI443
aI829
aI271
aI1341
aI5938
aI73
aI22851
aI63765
asg6
S'Industrial unionists motivated by a more global impulse act upon a universal premise  that all workers must support each other no matter their particular industry or locale .'
p11
ss.