(dp1
S'input'
p2
(dp3
S'encoded'
p4
(lp5
I64
aI2179
aI43
aI8629
aI116
aI3
aI117
aI998
asS'ori'
p6
S'This house believes atheism is the only way'
p7
ssS'output'
p8
(dp9
g4
(lp10
I18510
aI1629
aI864
aI45
aI1453
aI64
aI60
aI25
aI18518
aI2762
aI24
aI5
aI1136
aI18514
aI766
aI45
aI3
aI2096
aI24
aI25
aI79
aI2382
aI34
aI9776
aI63765
asg6
S'Bataille set out to do this with his Atheology project in 1952-53 and de Botton returns to the idea in his work Religion for Atheists (2012) .'
p11
ss.