(dp1
S'input'
p2
(dp3
S'encoded'
p4
(lp5
I64
aI2179
aI43
aI63
aI6670
aI546
aI417
aI316
aI89
aI1334
aI3108
aI7
aI4849
aI1886
aI2855
asS'ori'
p6
S'This house believes that wind power should be a primary focus of future energy supply'
p7
ssS'output'
p8
(dp9
g4
(lp10
I3
aI2762
aI55
aI994
aI1016
aI2722
aI14
aI3
aI2730
aI6049
aI81
aI2623
aI2841
aI223
aI271
aI546
aI19
aI3
aI9882
aI2089
aI89
aI12098
aI546
aI14984
aI63765
asg6
S'The project has significantly reduced rates on the island residents  who previously imported all their power from the mainland via a submarine power cable  .'
p11
ss.