(dp1
S'input'
p2
(dp3
S'encoded'
p4
(lp5
I64
aI2179
aI43
aI63
aI6670
aI546
aI417
aI316
aI89
aI1334
aI3108
aI7
aI4849
aI1886
aI2855
asS'ori'
p6
S'This house believes that wind power should be a primary focus of future energy supply'
p7
ssS'output'
p8
(dp9
g4
(lp10
I5095
aI2410
aI1230
aI270
aI14538
aI73
aI248
aI6844
aI2635
aI159
aI41
aI15276
aI73
aI248
aI6741
aI45
aI1304
aI2881
aI63765
asg6
S'Biomass production involves using garbage or other renewable resources such as corn or other vegetation to generate electricity .'
p11
ss.