(dp1
S'input'
p2
(dp3
S'encoded'
p4
(lp5
I64
aI2179
aI394
aI2017
aI3807
aI314
aI3433
asS'ori'
p6
S'This house would ban partial birth abortions'
p7
ssS'output'
p8
(dp9
g4
(lp10
I34
aI1343
aI134
aI116
aI1966
aI63
aI3
aI3486
aI116
aI3
aI3315
aI41
aI71
aI45
aI89
aI4838
aI63
aI3257
aI4875
aI3
aI3486
aI958
aI138
aI3418
aI4876
aI134
aI5
aI63
aI24
aI3
aI33
aI7
aI3271
aI4877
aI19
aI3164
aI2189
aI3
aI3833
aI55
aI843
aI4878
aI4879
aI45
aI3
aI3486
aI270
aI732
aI760
aI73
aI55
aI89
aI3938
aI45
aI501
aI134
aI45
aI475
aI732
aI760
aI691
aI3313
aI4880
aI116
aI1989
aI34
aI211
aI1068
aI45
aI475
aI732
aI760
aI63765
asg6
S"For example  it is argued that the fetus is the woman's child as opposed to a mere stranger; that abortion kills the fetus rather than merely letting it die; and that in the case of pregnancy arising from voluntary intercourse  the woman has either tacitly consented to the fetus using her body  or has a duty to allow it to use her body since she herself is responsible for its need to use her body  ."
p11
ss.