(dp1
S'input'
p2
(dp3
S'encoded'
p4
(lp5
I64
aI2179
aI43
aI223
aI2138
aI11
aI89
aI21
aI45
aI2185
aI372
asS'ori'
p6
S'This house believes all nations have a right to nuclear weapons'
p7
ssS'output'
p8
(dp9
g4
(lp10
I2046
aI47
aI1453
aI3
aI1643
aI604
aI155
aI182
aI2874
aI75
aI2659
aI63765
asg6
S'Iran will do the same  because they are threatened by Israel .'
p11
ss.