(dp1
S'input'
p2
(dp3
S'encoded'
p4
(lp5
I64
aI2179
aI13605
aI2258
aI45
aI2194
asS'ori'
p6
S'This house prefers trade to aid'
p7
ssS'output'
p8
(dp9
g4
(lp10
I24
aI2790
aI24
aI3
aI4696
aI24
aI2410
aI5
aI2882
aI7
aI3332
aI7
aI89
aI3569
aI4329
aI45
aI89
aI4374
aI544
aI24
aI3964
aI2410
aI24
aI3
aI1643
aI639
aI63765
aI41
aI7408
aI2153
aI2824
aI4386
aI3569
aI3945
aI130
aI8231
aI19
aI24
aI45
aI24
aI16
aI7891
asg6
S'In Vietnam in the 1990s  increases in production and export of coffee of 15% a year contributed to a nearly 50% rise in food production in the same period . As agricultural GDP grew 4 .6% per year  rural poverty fell from 66% in 1993 to 45% in 1998 (Global Economic Prospects 2002:40'
p11
ss.