(dp1
S'input'
p2
(dp3
S'encoded'
p4
(lp5
I64
aI2179
aI394
aI117
aI7428
aI21151
aI34
aI11389
aI2042
aI24
aI4364
asS'ori'
p6
S'This house would only teach abstinence for sex education in schools'
p7
ssS'output'
p8
(dp9
g4
(lp10
I3
aI1362
aI291
aI132
aI267
aI7970
aI1817
aI4696
aI3
aI2038
aI7
aI6241
aI887
aI132
aI3162
aI5
aI174
aI45
aI3739
aI566
aI60
aI86
aI159
aI41
aI271
aI8803
aI9247
aI271
aI3862
aI5
aI1890
aI3
aI2598
aI311
aI1445
aI63765
asg6
S'The relationship between these two variables greatly increases the risk of transmission among these populations  and also to anyone associated with them  such as their sexual partners  their children  and eventually the population at large  .'
p11
ss.