(dp1
S'input'
p2
(dp3
S'encoded'
p4
(lp5
I64
aI2179
aI394
aI10662
aI626
aI187
aI2157
aI2697
aI19
aI2371
asS'ori'
p6
S'This house would remove United States military bases from Japan'
p7
ssS'output'
p8
(dp9
g4
(lp10
I3
aI650
aI3492
aI26432
aI3657
aI116
aI637
aI416
aI24
aI3492
aI2637
aI4948
aI159
aI41
aI26435
aI3954
aI73
aI26435
aI15758
aI63765
asg6
S'The actual traditional Okinawan language is still used in traditional cultural activities  such as folk music  or folk dance .'
p11
ss.