(dp1
S'input'
p2
(dp3
S'encoded'
p4
(lp5
I64
aI2179
aI43
aI63
aI3376
aI4938
aI417
aI316
aI3537
asS'ori'
p6
S'This house believes that endangered species should be protected'
p7
ssS'output'
p8
(dp9
g4
(lp10
I3
aI12716
aI6455
aI45
aI3
aI2096
aI41
aI89
aI2428
aI2312
aI63
aI417
aI99
aI316
aI4635
aI41
aI89
aI4918
aI34
aI3364
aI63765
asg6
S'The authors refer to the idea as a thought experiment that should not be understood as a call for action .'
p11
ss.