(dp1
S'input'
p2
(dp3
S'encoded'
p4
(lp5
I64
aI2179
aI43
aI223
aI2138
aI11
aI89
aI21
aI45
aI2185
aI372
asS'ori'
p6
S'This house believes all nations have a right to nuclear weapons'
p7
ssS'output'
p8
(dp9
g4
(lp10
I3
aI886
aI122
aI4373
aI366
aI5778
aI11545
aI2244
aI75
aI5631
aI4581
aI5
aI667
aI6113
aI5
aI116
aI51
aI5016
aI783
aI24
aI1710
aI6010
aI45
aI89
aI2696
aI92
aI55
aI99
aI2340
aI3
aI11570
aI5
aI3
aI7088
aI3274
aI2017
aI2268
aI63765
asg6
S'The consensus was arrived after overcoming misgivings expressed by Austria  Ireland and New Zealand and is an unprecedented step in giving exemption to a country  which has not signed the NPT and the Comprehensive Test Ban Treaty (CTBT)  .'
p11
ss.