(dp1
S'input'
p2
(dp3
S'encoded'
p4
(lp5
I64
aI2179
aI43
aI63
aI3
aI4538
aI7
aI4434
aI7793
aI283
aI45
aI3586
aI417
aI316
aI577
asS'ori'
p6
S'This house believes that the sale of violent video games to minors should be banned'
p7
ssS'output'
p8
(dp9
g4
(lp10
I1139
aI16655
aI3197
aI63
aI246
aI4887
aI7
aI4583
aI24
aI7148
aI283
aI182
aI33900
aI63765
aI24
aI725
aI283
aI1036
aI4083
aI182
aI4082
aI41
aI1273
aI5740
aI52395
aI1980
aI5
aI4015
aI4083
aI182
aI4082
aI41
aI1473
aI5740
aI4374
aI30515
aI3495
aI60
aI1445
aI20710
aI63765
aI24
aI421
aI16655
aI174
aI43
aI63
aI4015
aI4083
aI24
aI283
aI182
aI162
aI4082
aI24
aI89
aI3377
aI21061
aI2690
aI63765
aI5350
aI182
aI162
aI5660
aI41
aI14322
aI14507
aI81
aI7581
aI34
aI1036
aI9265
aI5
aI1068
aI45
aI316
aI3537
aI5072
aI1980
aI182
aI4082
aI60
aI136
aI546
aI63765
aI159
aI8216
aI7
aI5350
aI24
aI283
aI7011
aI6369
aI17
aI7208
aI7
aI8005
aI7
aI1036
aI289
aI4015
aI5
aI2243
aI7
aI3998
aI63765
aI1381
aI99
aI223
aI7793
aI283
aI11698
aI159
aI15457
aI273
aI182
aI868
aI45
aI163
aI134
aI89
aI448
aI25310
aI63765
aI990
aI16655
aI1667
aI60
aI3
aI3419
aI7
aI3
aI2220
aI7045
aI7161
aI24
aI63
aI63765
aI17654
aI11
aI384
aI7607
asg6
S"Terry Flew writes that generally representations of gender in digital games are stereotyped . In many games  male characters are portrayed as hard bodied  muscled men  and female characters are portrayed as soft bodied  nearly naked women with large breasts . In addition  Flew also believes that female characters in games are usually portrayed in a narrowly stereotypical manner . Females are usually constructed as visual objects who wait for male rescue and need to be protected  whereas men are portrayed with more power . Such depiction of females in games reflects underlying social ideas of dominance of male over female and themes of masculinity . Although not all video games contain such stereotypes  there are enough to make it a general trait . Ultimately  Flew ends with the statement of the broad demographic's excessive demands  in that ' . .different genders have different gaming .'"
p11
ss.