(dp1
S'input'
p2
(dp3
S'encoded'
p4
(lp5
I64
aI2179
aI43
aI63
aI17574
aI417
aI316
aI3481
aI34
aI271
aI79
asS'ori'
p6
S'This house believes that housewives should be paid for their work'
p7
ssS'output'
p8
(dp9
g4
(lp10
I132
aI1486
aI7
aI4471
aI3654
aI45
aI2755
aI4450
aI2448
aI75
aI9364
aI2896
aI3527
aI34
aI3
aI17594
aI3
aI4893
aI34
aI3
aI17178
aI5
aI2410
aI7
aI3
aI5
aI7546
aI132
aI60
aI2488
aI192
aI6649
aI63765
asg6
S'These types of models try to value household output by determining monetary values for the inputs (in the dinner example: for the ingredients and production of the meal) and compare these with formal market equivalents  .'
p11
ss.