(dp1
S'input'
p2
(dp3
S'encoded'
p4
(lp5
I64
aI2179
aI13605
aI2258
aI45
aI2194
asS'ori'
p6
S'This house prefers trade to aid'
p7
ssS'output'
p8
(dp9
g4
(lp10
I3
aI2546
aI17978
aI9642
aI24
aI382
aI3
aI626
aI187
aI2265
aI327
aI626
aI2549
aI5
aI2371
aI63765
asg6
S'The largest DAC donors in 2009 were the United States (USD 28 .8 billion)  France ($12 .6 billion)  Germany ($12 .1 billion)  United Kingdom ($11 .5 billion) and Japan ($9 .5 billion) .'
p11
ss.