(dp1
S'input'
p2
(dp3
S'encoded'
p4
(lp5
I64
aI2179
aI394
aI3830
aI3
aI475
aI7
aI9441
aI13132
aI3102
aI24
aI276
aI381
asS'ori'
p6
S'This house would permit the use of performance enhancing drugs in professional sports'
p7
ssS'output'
p8
(dp9
g4
(lp10
I12283
aI2586
aI60
aI3
aI2237
aI2223
aI298
aI1928
aI2793
aI5336
aI7632
aI122
aI51
aI2429
aI730
aI63765
asg6
S'State-endorsed doping began with the Cold War when every eastern bloc gold was an ideological victory .'
p11
ss.