(dp1
S'input'
p2
(dp3
S'encoded'
p4
(lp5
I64
aI2179
aI43
aI63
aI3
aI4991
aI7
aI180
aI417
aI316
aI5396
aI19
aI3
aI169
aI10
asS'ori'
p6
S'This house believes that the Church of England should be separated from the British state'
p7
ssS'output'
p8
(dp9
g4
(lp10
I24
aI2528
aI14
aI3
aI8366
aI41421
aI1633
aI4573
aI14
aI88
aI378
aI89
aI2503
aI707
aI743
aI63
aI3
aI1633
aI14
aI658
aI4585
aI14
aI8366
aI41421
aI83
aI316
aI56
aI63765
asg6
S'In ruling on the Mount Soledad cross controversy on May 3  2006  however  a federal judge ruled that the cross on public property on Mount Soledad must be removed  .'
p11
ss.