(dp1
S'input'
p2
(dp3
S'encoded'
p4
(lp5
I64
aI2179
aI43
aI63
aI3
aI21
aI45
aI12715
aI417
aI99
aI316
aI2897
asS'ori'
p6
S'This house believes that the right to asylum should not be absolute'
p7
ssS'output'
p8
(dp9
g4
(lp10
I132
aI5307
aI1032
aI2367
aI45
aI248
aI1948
aI7
aI3
aI41778
aI2654
aI63765
asg6
S'These immigrants simply moved to other parts of the Calais region  .'
p11
ss.