(dp1
S'input'
p2
(dp3
S'encoded'
p4
(lp5
I64
aI2179
aI394
aI5370
aI3
aI5286
asS'ori'
p6
S'This house would abolish the monarchy'
p7
ssS'output'
p8
(dp9
g4
(lp10
I89
aI696
aI7
aI2533
aI5452
aI2227
aI75
aI5424
aI1020
aI382
aI5546
aI7
aI206
aI5547
aI3293
aI14
aI5360
aI3
aI5286
aI63765
asg6
S'A number of convention delegates appointed by Howard himself were accused of having fixed views on retaining the monarchy .'
p11
ss.