(dp1
S'input'
p2
(dp3
S'encoded'
p4
(lp5
I64
aI2179
aI394
aI2773
aI12505
asS'ori'
p6
S'This house would embrace multiculturalism'
p7
ssS'output'
p8
(dp9
g4
(lp10
I3
aI725
aI2341
aI5989
aI63
aI5461
aI589
aI3
aI4999
aI10688
aI8411
aI19
aI574
aI248
aI5
aI725
aI7
aI132
aI3802
aI8972
aI45
aI64
aI1379
aI63765
asg6
S'The many separate societies that emerged around the globe differed markedly from each other  and many of these differences persist to this day .'
p11
ss.