(dp1
S'input'
p2
(dp3
S'encoded'
p4
(lp5
I64
aI2179
aI43
aI63
aI3
aI4538
aI7
aI4434
aI7793
aI283
aI45
aI3586
aI417
aI316
aI577
asS'ori'
p6
S'This house believes that the sale of violent video games to minors should be banned'
p7
ssS'output'
p8
(dp9
g4
(lp10
I89
aI905
aI3435
aI75
aI3
aI2503
aI2258
aI2130
aI353
aI63
aI3
aI3164
aI2183
aI75
aI3
aI24426
aI440
aI3
aI2810
aI1350
aI2994
aI7
aI351
aI248
aI897
aI5938
aI5377
aI2612
aI7
aI16399
aI5491
aI45
aI3586
aI7
aI3
aI413
aI63765
asg6
S'A 2011 report issued by the Federal Trade Commission found that the voluntary controls by the ESRB had the highest success rate of any other media industry  preventing sales of mature titles to minors 87% of the time  .'
p11
ss.