(dp1
S'input'
p2
(dp3
S'encoded'
p4
(lp5
I64
aI2179
aI394
aI2017
aI223
aI9058
aI23653
asS'ori'
p6
S'This house would ban all unsustainable logging'
p7
ssS'output'
p8
(dp9
g4
(lp10
I34
aI1928
aI18859
aI18896
aI248
aI6762
aI182
aI23659
aI45
aI6676
aI3
aI20348
aI620
aI3
aI8254
aI63765
asg6
S'For every tree harvested  5-10 other trees are logged  to transport the logs through the forest .'
p11
ss.