(dp1
S'input'
p2
(dp3
S'encoded'
p4
(lp5
I64
aI2179
aI43
aI63
aI3
aI21
aI45
aI12715
aI417
aI99
aI316
aI2897
asS'ori'
p6
S'This house believes that the right to asylum should not be absolute'
p7
ssS'output'
p8
(dp9
g4
(lp10
I89
aI2007
aI81
aI735
aI3
aI102
aI24
aI19135
aI7
aI89
aI1453
aI116
aI51
aI1968
aI16400
aI5
aI88
aI316
aI56
aI41
aI159
aI63765
asg6
S'A person who enters the UK in breach of a DO is an illegal entrant (see below) and may be removed as such .'
p11
ss.