(dp1
S'input'
p2
(dp3
S'encoded'
p4
(lp5
I64
aI2179
aI43
aI63
aI2157
aI2565
aI493
aI19084
aI382
aI4850
asS'ori'
p6
S"This house believes that Israel's 2008-2009 military operations against Gaza were justified"
p7
ssS'output'
p8
(dp9
g4
(lp10
I89
aI696
aI7
aI10185
aI382
aI174
aI10725
aI6466
aI111
aI4750
aI5462
aI45
aI6261
aI3
aI6056
aI11854
aI7
aI5207
aI2825
aI24
aI19084
aI63765
asg6
S"A number of student 'sit-in's were also organised  calling upon university authorities to condemn the Israeli bombing of educational institutions in Gaza ."
p11
ss.