(dp1
S'input'
p2
(dp3
S'encoded'
p4
(lp5
I64
aI2179
aI235
aI3
aI2136
aI7
aI3
aI2306
aI7
aI2390
asS'ori'
p6
S'This house supports the one-child policy of the republic of China'
p7
ssS'output'
p8
(dp9
g4
(lp10
I15149
aI63765
asg6
S'|- Gansu 12 928 102 2 .22 12 630 569 1 .82 19 569 261 1 .94 22 371 141 1 .97 25 620 000 2 .02 25 575 254 1 .91 .'
p11
ss.