(dp1
S'input'
p2
(dp3
S'encoded'
p4
(lp5
I64
aI2179
aI394
aI4325
aI2042
aI270
aI89
aI11605
aI3324
asS'ori'
p6
S'This house would fund education using a voucher scheme'
p7
ssS'output'
p8
(dp9
g4
(lp10
I3
aI12566
aI2130
aI7074
aI699
aI4358
aI14
aI3
aI2259
aI7
aI10185
aI9
aI3891
aI7
aI4678
aI5
aI5440
aI3217
aI5
aI13003
aI5072
aI3
aI7074
aI135
aI3
aI2924
aI7
aI1356
aI45
aI1074
aI2240
aI5856
aI2506
aI5018
aI4304
aI10185
aI14656
aI5
aI10185
aI1227
aI63765
asg6
S'The Gray Commission plan assigned students on the basis of student welfare  availability of facilities and transportation  health  and aptitude  whereas the Boothe-Dalton plan expanded the list of factors to include school attendance areas  academic background  student personality  and student needs  .'
p11
ss.