(dp1
S'input'
p2
(dp3
S'encoded'
p4
(lp5
I64
aI2179
aI43
aI63
aI2157
aI2565
aI493
aI19084
aI382
aI4850
asS'ori'
p6
S"This house believes that Israel's 2008-2009 military operations against Gaza were justified"
p7
ssS'output'
p8
(dp9
g4
(lp10
I3
aI831
aI4883
aI4817
aI1347
aI14
aI16619
aI226
aI174
aI1854
aI1357
aI45
aI3549
aI19
aI3
aI1523
aI1637
aI63765
asg6
S'The move put psychological pressure on Hamas while also forcing combatants to withdraw from the front line .'
p11
ss.