(dp1
S'input'
p2
(dp3
S'encoded'
p4
(lp5
I64
aI2179
aI43
aI63
aI3
aI21
aI45
aI12715
aI417
aI99
aI316
aI2897
asS'ori'
p6
S'This house believes that the right to asylum should not be absolute'
p7
ssS'output'
p8
(dp9
g4
(lp10
I12043
aI2135
aI2161
aI742
aI3
aI2603
aI394
aI48
aI45
aI1717
aI2471
aI7
aI40747
aI773
aI32248
aI63765
asg6
S'Cuban Foreign Minister said the Cuban-Mexican agreement would lead to "the immense majority of Cubans being repatriated .'
p11
ss.