(dp1
S'input'
p2
(dp3
S'encoded'
p4
(lp5
I64
aI2179
aI43
aI63
aI3
aI21
aI45
aI12715
aI417
aI99
aI316
aI2897
asS'ori'
p6
S'This house believes that the right to asylum should not be absolute'
p7
ssS'output'
p8
(dp9
g4
(lp10
I3
aI3215
aI2424
aI382
aI4319
aI706
aI75
aI3
aI809
aI260
aI5
aI40737
aI13668
aI81
aI416
aI3
aI2424
aI41
aI2697
aI45
aI12011
aI1687
aI493
aI3
aI667
aI260
aI24
aI6122
aI63765
asg6
S'The refugee camps were soon controlled by the former government and Hutu militants who used the camps as bases to launch attacks against the new government in Rwanda .'
p11
ss.