(dp1
S'input'
p2
(dp3
S'encoded'
p4
(lp5
I64
aI2179
aI394
aI60
aI23587
asS'ori'
p6
S'This house would re-engage with Myanmar'
p7
ssS'output'
p8
(dp9
g4
(lp10
I89
aI4066
aI1051
aI7
aI10070
aI8175
aI4532
aI24
aI3118
aI3
aI2471
aI3905
aI116
aI622
aI6655
aI5
aI60673
aI63765
asg6
S'A diverse range of indigenous cultures exist in Burma  the majority culture is primarily Buddhist and Bamar .'
p11
ss.