(dp1
S'input'
p2
(dp3
S'encoded'
p4
(lp5
I64
aI2179
aI394
aI190
aI3
aI21
aI45
aI3895
aI834
asS'ori'
p6
S'This house would limit the right to bear arms'
p7
ssS'output'
p8
(dp9
g4
(lp10
I2611
aI708
aI2511
aI5
aI3645
aI4532
aI311
aI223
aI2363
aI7
aI260
aI60
aI3
aI2411
aI2471
aI773
aI2083
aI4533
aI92
aI1569
aI291
aI778
aI63765
asg6
S'Gun control laws and regulations exist at all levels of government  with the vast majority being local codes which vary between jurisdictions .'
p11
ss.