(dp1
S'input'
p2
(dp3
S'encoded'
p4
(lp5
I64
aI2179
aI43
aI24
aI3
aI475
aI7
aI12436
aI3364
asS'ori'
p6
S'This house believes in the use of affirmative action'
p7
ssS'output'
p8
(dp9
g4
(lp10
I3
aI2498
aI7
aI3
aI143
aI116
aI2319
aI132
aI5125
aI511
aI442
aI2230
aI3943
aI89
aI5650
aI752
aI545
aI89
aI10751
aI221
aI45
aI4576
aI1191
aI595
aI12359
aI3559
aI89
aI10751
aI2446
aI45
aI5110
aI3
aI10751
aI41
aI42
aI73
aI3313
aI7515
aI134
aI55
aI12
aI1966
aI63
aI89
aI10751
aI21
aI45
aI4585
aI13121
aI223
aI545
aI3
aI10751
aI41
aI773
aI759
aI7
aI120
aI4585
aI2446
aI63765
asg6
S"The sense of the argument is along these lines: equal opportunity rules regarding  say  a hiring decision within a factory  made to bring about greater fairness  violate a factory owner's rights to run the factory as he or she sees best; it has been argued that a factory owner's right to property encompasses all decision-making within the factory as being part of those property rights ."
p11
ss.