(dp1
S'input'
p2
(dp3
S'encoded'
p4
(lp5
I64
aI2179
aI394
aI16642
aI1376
aI5269
asS'ori'
p6
S'This house would subsidize poor communities'
p7
ssS'output'
p8
(dp9
g4
(lp10
I353
aI63
aI887
aI2145
aI187
aI5
aI2023
aI386
aI273
aI116
aI89
aI24705
aI4900
aI24
aI17194
aI2722
aI3365
aI45
aI4925
aI63765
asg6
S'found that among U .S States and Canadian Provinces there is a tenfold difference in homicide rates related to inequality .'
p11
ss.