(dp1
S'input'
p2
(dp3
S'encoded'
p4
(lp5
I64
aI2179
aI43
aI63
aI6670
aI546
aI417
aI316
aI89
aI1334
aI3108
aI7
aI4849
aI1886
aI2855
asS'ori'
p6
S'This house believes that wind power should be a primary focus of future energy supply'
p7
ssS'output'
p8
(dp9
g4
(lp10
I1886
aI4510
aI5
aI6844
aI1886
aI182
aI742
aI45
aI316
aI3
aI28134
aI11548
aI7
aI6806
aI1886
aI2136
aI63765
asg6
S'Energy efficiency and renewable energy are said to be the twin pillars of sustainable energy policy  .'
p11
ss.