(dp1
S'input'
p2
(dp3
S'encoded'
p4
(lp5
I64
aI2179
aI43
aI63
aI2157
aI2565
aI493
aI19084
aI382
aI4850
asS'ori'
p6
S"This house believes that Israel's 2008-2009 military operations against Gaza were justified"
p7
ssS'output'
p8
(dp9
g4
(lp10
I2659
aI3763
aI45
aI16861
aI60
aI3
aI9359
aI3815
aI7518
aI24
aI3
aI24858
aI5
aI3
aI2543
aI9596
aI63765
asg6
S"Israel refused to cooperate with the investigation  citing anti-Israel bias in the UNHRC and the mission's one-sided founding resolution ."
p11
ss.