(dp1
S'input'
p2
(dp3
S'encoded'
p4
(lp5
I64
aI2179
aI43
aI24
aI3
aI475
aI7
aI12436
aI3364
asS'ori'
p6
S'This house believes in the use of affirmative action'
p7
ssS'output'
p8
(dp9
g4
(lp10
I4585
aI7408
aI7312
aI15997
aI18884
aI7102
aI63765
asg6
S'|-- Property owners- Agricultural  Plantations (Coffee tea rubber etc .'
p11
ss.