(dp1
S'input'
p2
(dp3
S'encoded'
p4
(lp5
I64
aI2179
aI394
aI2773
aI12505
asS'ori'
p6
S'This house would embrace multiculturalism'
p7
ssS'output'
p8
(dp9
g4
(lp10
I366
aI285
aI2223
aI2236
aI273
aI382
aI292
aI1686
aI11802
aI7
aI281
aI2610
aI736
aI3
aI3140
aI63765
asg6
S'After World War II there were three successive waves of major immigration into the Netherlands  .'
p11
ss.