(dp1
S'input'
p2
(dp3
S'encoded'
p4
(lp5
I64
aI2179
aI43
aI24
aI3
aI475
aI7
aI12436
aI3364
asS'ori'
p6
S'This house believes in the use of affirmative action'
p7
ssS'output'
p8
(dp9
g4
(lp10
I32201
aI7
aI3
aI7631
aI7
aI132
aI3136
aI116
aI474
aI75
aI3
aI10
aI63765
asg6
S'Leveraging of the opportunities of these groups is encouraged by the state .'
p11
ss.