(dp1
S'input'
p2
(dp3
S'encoded'
p4
(lp5
I64
aI2179
aI43
aI63
aI2659
aI417
aI1690
aI3
aI12048
aI7
aI19084
asS'ori'
p6
S'This house believes that Israel should lift the blockade of Gaza'
p7
ssS'output'
p8
(dp9
g4
(lp10
I3
aI237
aI4158
aI5798
aI3
aI21248
aI4769
aI7
aI3
aI648
aI11276
aI122
aI24920
aI19
aI3
aI20353
aI298
aI42
aI122
aI2552
aI75
aI767
aI1980
aI751
aI25
aI761
aI801
aI3
aI24309
aI63765
asg6
S'The first captured soldier  the commanding officer of the assault team  was abseiling from the helicopter when he was attacked by ten men before his feet hit the deck .'
p11
ss.