(dp1
S'input'
p2
(dp3
S'encoded'
p4
(lp5
I64
aI2179
aI394
aI2017
aI3807
aI314
aI3433
asS'ori'
p6
S'This house would ban partial birth abortions'
p7
ssS'output'
p8
(dp9
g4
(lp10
I34
aI1343
aI3
aI4612
aI5
aI168
aI4613
aI7
aI1360
aI557
aI3527
aI159
aI41
aI3447
aI5
aI57
aI226
aI3526
aI63
aI3
aI3609
aI83
aI316
aI73
aI73
aI63765
asg6
S'For example  the labels "pro-choice" and "pro-life" imply endorsement of widely held values such as liberty and freedom  while suggesting that the opposition must be "anti-choice" or "anti-life" (alternatively "pro-coercion" or "pro-death")  .'
p11
ss.