(dp1
S'input'
p2
(dp3
S'encoded'
p4
(lp5
I64
aI2179
aI394
aI16756
aI20435
asS'ori'
p6
S'This house would criminalize blasphemy'
p7
ssS'output'
p8
(dp9
g4
(lp10
I3
aI3419
aI122
aI378
aI6044
aI48579
aI5
aI788
aI19
aI3
aI1592
aI116
aI41
aI742
aI4722
aI1631
aI1191
aI78
aI4895
aI45
aI64
aI4927
aI1996
aI45
aI89
aI2247
aI63765
asg6
S'The statement was however somewhat mistranslated and taken from the following context: [page 197] "There is  as said  something moving about people  whom to this degree surrender to a faith .'
p11
ss.