(dp1
S'input'
p2
(dp3
S'encoded'
p4
(lp5
I64
aI2179
aI394
aI60
aI23587
asS'ori'
p6
S'This house would re-engage with Myanmar'
p7
ssS'output'
p8
(dp9
g4
(lp10
I588
aI45
aI14153
aI427
aI45
aI3
aI8686
aI24
aI31858
aI63765
asg6
S'Up to 50 000 protesters took to the streets in Yangon .'
p11
ss.