(dp1
S'input'
p2
(dp3
S'encoded'
p4
(lp5
I64
aI2179
aI394
aI60
aI23587
asS'ori'
p6
S'This house would re-engage with Myanmar'
p7
ssS'output'
p8
(dp9
g4
(lp10
I89
aI696
aI7
aI7058
aI493
aI3
aI12800
aI8870
aI11
aI12
aI557
aI3048
aI63765
asg6
S"A number of protests against the Burmese Government's crackdown have been held worldwide ."
p11
ss.