(dp1
S'input'
p2
(dp3
S'encoded'
p4
(lp5
I64
aI2179
aI394
aI5284
aI150
aI3987
asS'ori'
p6
S'This house would reintroduce national service'
p7
ssS'output'
p8
(dp9
g4
(lp10
I34
aI1343
aI720
aI8855
aI2962
aI342
aI7
aI3
aI5825
aI24
aI588
aI45
aI24
aI3725
aI155
aI2343
aI45
aI1292
aI7065
aI14954
aI2089
aI3
aI5262
aI63765
asg6
S'For example  defense recruiting reports show 34% of the recruits in 1964 up to 50% in 1970 indicated they joined to avoid adverse placement via the draft  .'
p11
ss.