(dp1
S'input'
p2
(dp3
S'encoded'
p4
(lp5
I64
aI2179
aI394
aI5842
aI3569
aI446
aI13498
asS'ori'
p6
S'This house would introduce year round schooling'
p7
ssS'output'
p8
(dp9
g4
(lp10
I3
aI2318
aI2706
aI3424
aI12931
aI1040
aI238
aI545
aI89
aI2240
aI3569
aI183
aI63765
asg6
S'The South Korean summer vacation takes place within a school year  too .'
p11
ss.