(dp1
S'input'
p2
(dp3
S'encoded'
p4
(lp5
I64
aI2179
aI43
aI63
aI3
aI4538
aI7
aI4434
aI7793
aI283
aI45
aI3586
aI417
aI316
aI577
asS'ori'
p6
S'This house believes that the sale of violent video games to minors should be banned'
p7
ssS'output'
p8
(dp9
g4
(lp10
I100
aI4741
aI133
aI63
aI226
aI5600
aI4434
aI7793
aI283
aI4309
aI45
aI4434
aI3089
aI273
aI182
aI174
aI7128
aI8490
aI63
aI918
aI89
aI7167
aI63765
asg6
S"Some researchers believe that while playing violent video games leads to violent actions  there are also biological influences that impact a person's choices ."
p11
ss.