(dp1
S'input'
p2
(dp3
S'encoded'
p4
(lp5
I64
aI2179
aI43
aI223
aI2138
aI11
aI89
aI21
aI45
aI2185
aI372
asS'ori'
p6
S'This house believes all nations have a right to nuclear weapons'
p7
ssS'output'
p8
(dp9
g4
(lp10
I24
aI89
aI150
aI1306
aI6829
aI3
aI626
aI187
aI1306
aI2178
aI13683
aI63
aI2046
aI440
aI754
aI1942
aI4537
aI5
aI33532
aI24
aI63765
asg6
S'In a 2007 National Intelligence Estimate  the United States Intelligence Community assessed that Iran had ended "nuclear weapon design and weaponization work" in 2003  .'
p11
ss.