(dp1
S'input'
p2
(dp3
S'encoded'
p4
(lp5
I64
aI2179
aI394
aI4325
aI2042
aI270
aI89
aI11605
aI3324
asS'ori'
p6
S'This house would fund education using a voucher scheme'
p7
ssS'output'
p8
(dp9
g4
(lp10
I3007
aI4673
aI3
aI1257
aI15773
aI7
aI9991
aI493
aI942
aI5
aI2669
aI41
aI350
aI493
aI27283
aI19
aI3224
aI6421
aI45
aI3
aI15885
aI260
aI63765
asg6
S'Paul cited the past ineffectiveness of sanctions against Cuba and Iraq as evidence against divestment from businesses connected to the Sudanese government  .'
p11
ss.