(dp1
S'input'
p2
(dp3
S'encoded'
p4
(lp5
I64
aI2179
aI394
aI5370
aI3
aI5286
asS'ori'
p6
S'This house would abolish the monarchy'
p7
ssS'output'
p8
(dp9
g4
(lp10
I1706
aI3
aI10
aI7
aI5515
aI5516
aI223
aI4985
aI45
aI3
aI5286
aI19
aI211
aI2474
aI60
aI667
aI2511
aI773
aI3581
aI75
aI211
aI4679
aI99
aI3
aI5352
aI5
aI14
aI3
aI10
aI7
aI5515
aI99
aI3
aI5305
aI63765
asg6
S'Further  the state of Queensland deleted all references to the monarchy from its legislation  with new laws being enacted by its parliament  not the Queen  and "binding on the State of Queensland " not the Crown .'
p11
ss.