(dp1
S'input'
p2
(dp3
S'encoded'
p4
(lp5
I64
aI2179
aI43
aI63
aI3376
aI4938
aI417
aI316
aI3537
asS'ori'
p6
S'This house believes that endangered species should be protected'
p7
ssS'output'
p8
(dp9
g4
(lp10
I3
aI1809
aI5
aI182
aI174
aI416
aI24
aI89
aI11707
aI2498
aI158
aI852
aI7
aI5166
aI19
aI248
aI1356
aI159
aI41
aI1495
aI5
aI6693
aI6673
aI63765
asg6
S'The terms "habitat loss" and "habitat reduction" are also used in a wider sense  including loss of habitat from other factors  such as water and noise pollution .'
p11
ss.