(dp1
S'input'
p2
(dp3
S'encoded'
p4
(lp5
I64
aI2179
aI43
aI63
aI187
aI417
aI99
aI16642
aI3
aI6449
aI7
aI3935
asS'ori'
p6
S'This house believes that states should not subsidize the growing of tobacco'
p7
ssS'output'
p8
(dp9
g4
(lp10
I3
aI12861
aI333
aI22604
aI7
aI27380
aI3495
aI1629
aI493
aI22604
aI7
aI3495
aI1864
aI19999
aI15422
aI159
aI41
aI15905
aI73
aI15449
aI63765
asg6
S'The ads depicted photos of glamorous women set against photos of women doing mundane tasks such as laundry or housework  .'
p11
ss.