(dp1
S'input'
p2
(dp3
S'encoded'
p4
(lp5
I64
aI2179
aI43
aI63
aI6670
aI546
aI417
aI316
aI89
aI1334
aI3108
aI7
aI4849
aI1886
aI2855
asS'ori'
p6
S'This house believes that wind power should be a primary focus of future energy supply'
p7
ssS'output'
p8
(dp9
g4
(lp10
I6784
aI6670
aI1886
aI4949
aI24
aI2503
aI2743
aI182
aI2195
aI45
aI9659
aI717
aI14
aI6749
aI2361
aI575
aI75
aI3
aI2159
aI7
aI3
aI2176
aI7
aI3
aI7354
aI60
aI47227
aI63765
asg6
S'Offshore wind energy projects in federal waters are subject to permitting based on lease agreements given by the Secretary of the Department of the Interior with BOEMRE .'
p11
ss.