(dp1
S'input'
p2
(dp3
S'encoded'
p4
(lp5
I64
aI2179
aI43
aI17
aI4941
aI857
aI3211
asS'ori'
p6
S'This house believes social deprivation causes crime'
p7
ssS'output'
p8
(dp9
g4
(lp10
I174
aI24
aI3
aI292
aI384
aI17095
aI7
aI3485
aI3136
aI887
aI3862
aI773
aI5
aI382
aI4166
aI5125
aI63765
asg6
S'Also in 2009  the three different classifications of age groups among children  being 0-5  6-11 and 12-17  were roughly equal  .'
p11
ss.