(dp1
S'input'
p2
(dp3
S'encoded'
p4
(lp5
I64
aI2179
aI394
aI163
aI959
aI2042
aI3557
asS'ori'
p6
S'This house would make physical education compulsory'
p7
ssS'output'
p8
(dp9
g4
(lp10
I233
aI45
aI32066
aI3
aI2823
aI7
aI6535
aI2042
aI116
aI63
aI92
aI985
aI298
aI78
aI867
aI14
aI271
aI284
aI2345
aI45
aI7278
aI194
aI24
aI7763
aI10181
aI5244
aI5460
aI658
aI10948
aI73
aI1032
aI11588
aI60
aI9986
aI1980
aI63765
aI24
aI223
aI132
aI3052
aI273
aI116
aI443
aI8915
aI2531
asg6
S'According to Tolstoy  the model of ideal education is that which occurs when people go on their own initiative to discover things in museums  libraries  laboratories  meetings  public lectures  or simply talk with wise men . In all these cases  there is no constraint exercised'
p11
ss.