(dp1
S'input'
p2
(dp3
S'encoded'
p4
(lp5
I64
aI2179
aI43
aI24
aI3
aI475
aI7
aI12436
aI3364
asS'ori'
p6
S'This house believes in the use of affirmative action'
p7
ssS'output'
p8
(dp9
g4
(lp10
I8
aI406
aI24
aI3
aI4326
aI7
aI3
aI4169
aI2232
aI60
aI3
aI6090
aI7
aI4060
aI5287
aI34
aI3
aI237
aI413
aI24
aI2293
aI397
aI3
aI6622
aI2223
aI1047
aI24
aI2293
aI41
aI3
aI2776
aI63765
asg6
S'Modern nation-states appeared in the wake of the French Revolution  with the formation of patriotic sentiments for the first time in Spain during the Peninsula War (18081813  known in Spain as the Independence War) .'
p11
ss.