(dp1
S'input'
p2
(dp3
S'encoded'
p4
(lp5
I64
aI2179
aI394
aI60
aI23587
asS'ori'
p6
S'This house would re-engage with Myanmar'
p7
ssS'output'
p8
(dp9
g4
(lp10
I64
aI47
aI316
aI3
aI237
aI2772
aI75
aI29030
aI24
aI869
aI2623
aI3
aI2157
aI6073
aI55
aI3763
aI45
aI1985
aI271
aI14195
aI63765
asg6
S'This will be the first visit by Pinheiro in four years; previously the military junta has refused to give their permission .'
p11
ss.