(dp1
S'input'
p2
(dp3
S'encoded'
p4
(lp5
I64
aI2179
aI43
aI24
aI3
aI475
aI7
aI12436
aI3364
asS'ori'
p6
S'This house believes in the use of affirmative action'
p7
ssS'output'
p8
(dp9
g4
(lp10
I12738
aI44455
aI5
aI24
aI26262
aI263
aI10535
aI63765
asg6
S'Du Bois  and in 1946 Einstein called racism America\'s "worst disease"  .'
p11
ss.