(dp1
S'input'
p2
(dp3
S'encoded'
p4
(lp5
I64
aI2179
aI43
aI63
aI2659
aI417
aI1690
aI3
aI12048
aI7
aI19084
asS'ori'
p6
S'This house believes that Israel should lift the blockade of Gaza'
p7
ssS'output'
p8
(dp9
g4
(lp10
I16619
aI2030
aI29723
aI16629
aI58058
aI3196
aI3
aI9102
aI1780
aI14
aI2659
aI2618
aI63
aI3
aI1299
aI1347
aI7
aI16
aI9991
aI891
aI24
aI3
aI9325
aI63765
asg6
S'Hamas spokesman Moussa Abu Marzouk blamed the worsening situation on Israel  stating that the constant pressure of economic sanctions resulted in the "real explosion .'
p11
ss.