(dp1
S'input'
p2
(dp3
S'encoded'
p4
(lp5
I64
aI2179
aI394
aI4325
aI2042
aI270
aI89
aI11605
aI3324
asS'ori'
p6
S'This house would fund education using a voucher scheme'
p7
ssS'output'
p8
(dp9
g4
(lp10
I8994
aI45
aI3
aI2513
aI24
aI425
aI2714
aI10693
aI16619
aI226
aI22480
aI809
aI6056
aI1405
aI2161
aI27132
aI27133
aI63765
asg6
S'Referring to the Israeli-Palestinian conflict in January 2006  Obama denounced Hamas while praising former Israeli Prime Minister Ariel Sharon .'
p11
ss.