(dp1
S'input'
p2
(dp3
S'encoded'
p4
(lp5
I64
aI2179
aI235
aI3
aI2136
aI7
aI3
aI2306
aI7
aI2390
asS'ori'
p6
S'This house supports the one-child policy of the republic of China'
p7
ssS'output'
p8
(dp9
g4
(lp10
I3406
aI64
aI5058
aI116
aI99
aI87
aI8663
aI41
aI45
aI316
aI2493
aI75
aI89
aI1107
aI33
aI2035
aI41
aI24
aI2068
aI2598
aI3975
aI1972
aI248
aI1356
aI182
aI311
aI13788
aI3757
aI2637
aI13541
aI5
aI217
aI6894
aI16
aI6312
aI4793
aI19
aI2548
aI45
aI2548
aI63765
asg6
S"Additionally  this hypothesis is not so simplistic as to be rejected by a single case study  as in Germany's recent population trends  clearly other factors are at work: contraceptive access  cultural norms and most importantly economic realities differ from nation to nation ."
p11
ss.