(dp1
S'input'
p2
(dp3
S'encoded'
p4
(lp5
I64
aI2179
aI394
aI2017
aI262
asS'ori'
p6
S'This house would ban boxing'
p7
ssS'output'
p8
(dp9
g4
(lp10
I3
aI2009
aI116
aI541
aI75
aI41248
aI16211
aI93
aI7
aI3
aI5371
aI7
aI92
aI116
aI45
aI454
aI134
aI19
aI5958
aI16481
aI131
aI136
aI5012
aI6788
aI73
aI3
aI2219
aI566
aI60
aI1691
aI15165
aI88
aI99
aI316
aI8549
aI75
aI64
aI1470
aI63765
asg6
S'The brain is surrounded by cerebrospinal fluid  one of the functions of which is to protect it from light trauma  but more severe impacts or the forces associated with rapid acceleration may not be absorbed by this cushion  .'
p11
ss.