(dp1
S'input'
p2
(dp3
S'encoded'
p4
(lp5
I64
aI2179
aI235
aI3
aI2136
aI7
aI3
aI2306
aI7
aI2390
asS'ori'
p6
S'This house supports the one-child policy of the republic of China'
p7
ssS'output'
p8
(dp9
g4
(lp10
I3469
aI4768
aI55
aI16330
aI89
aI2445
aI2598
aI7
aI863
aI60039
aI638
aI3
aI16423
aI145
aI75
aI60
aI3
aI2471
aI24
aI3
aI13285
aI550
aI63765
asg6
S'Marshall Savage (1992  1994) has projected a human population of five quintillion throughout the Solar System by 3000  with the majority in the asteroid belt  .'
p11
ss.