(dp1
S'input'
p2
(dp3
S'encoded'
p4
(lp5
I64
aI2179
aI394
aI2773
aI12505
asS'ori'
p6
S'This house would embrace multiculturalism'
p7
ssS'output'
p8
(dp9
g4
(lp10
I73
aI3
aI5772
aI26392
aI35722
aI40794
aI40795
aI5
aI5704
aI887
aI174
aI5760
aI545
aI1237
aI3994
aI366
aI3925
aI887
aI11808
aI24
aI3
aI6358
aI2304
aI370
aI63765
asg6
S'or the Caucasus (Georgians  Armenians  Ossetians  Chechens  Azeris and Turks among them) also assimilated within several generations after settling among Russians in the expanding Russian Empire  .'
p11
ss.