(dp1
S'input'
p2
(dp3
S'encoded'
p4
(lp5
I64
aI2179
aI43
aI63
aI3
aI4990
aI4991
aI116
aI4850
aI24
aI12166
aI3
aI475
aI7
aI3532
aI3290
aI7
aI4714
asS'ori'
p6
S'This house believes that the Catholic Church is justified in forbidding the use of barrier methods of contraception'
p7
ssS'output'
p8
(dp9
g4
(lp10
I378
aI132
aI5989
aI4415
aI314
aI708
aI41
aI89
aI3896
aI5
aI3
aI117
aI4714
aI3290
aI382
aI5254
aI7973
aI1112
aI159
aI41
aI39700
aI5
aI8894
aI159
aI41
aI63765
asg6
S"However  these societies viewed birth control as a woman's responsibility  and the only well-documented contraception methods were female-controlled devices (both possibly effective  such as pessaries  and ineffective  such as amulets)  ."
p11
ss.