(dp1
S'input'
p2
(dp3
S'encoded'
p4
(lp5
I64
aI2179
aI43
aI3
aI2206
aI116
aI4850
aI24
aI270
aI972
aI45
aI881
aI187
aI19
aI10443
aI2185
aI372
asS'ori'
p6
S'This house believes the US is justified in using force to prevent states from acquiring nuclear weapons'
p7
ssS'output'
p8
(dp9
g4
(lp10
I24
aI89
aI752
aI45
aI611
aI89
aI11235
aI45
aI6439
aI3
aI16604
aI7
aI2307
aI75
aI2164
aI16605
aI122
aI906
aI75
aI2190
aI2444
aI24
aI51
aI2419
aI45
aI881
aI89
aI2032
aI16295
aI3226
aI14
aI2307
aI373
aI89
aI10
aI2519
aI63765
asg6
S'In 1893  a decision to back a plot to overthrow the rulership of Hawaii by president Harrison was motivated by business interests in an effort to prevent a proposed tariff increase on sugar; Hawaii became a state afterwards  .'
p11
ss.