(dp1
S'input'
p2
(dp3
S'encoded'
p4
(lp5
I64
aI2179
aI394
aI2741
aI3
aI1560
aI6025
aI2784
asS'ori'
p6
S'This house would pass the American Jobs Act'
p7
ssS'output'
p8
(dp9
g4
(lp10
I257
aI2221
aI98
aI3819
aI768
aI99
aI89
aI829
aI7
aI8316
aI6864
aI493
aI86
aI63765
asg6
S"If Congress does nothing  then it's not a matter of me running against them ."
p11
ss.