(dp1
S'input'
p2
(dp3
S'encoded'
p4
(lp5
I64
aI2179
aI43
aI63
aI3376
aI4938
aI417
aI316
aI3537
asS'ori'
p6
S'This house believes that endangered species should be protected'
p7
ssS'output'
p8
(dp9
g4
(lp10
I545
aI3
aI1447
aI2439
aI2445
aI673
aI289
aI3
aI6795
aI55
aI12
aI87
aI2705
aI63
aI6834
aI11
aI1165
aI7849
aI3
aI696
aI7
aI4938
aI63
aI116
aI45
aI3943
aI3
aI2722
aI7
aI7809
aI7850
aI2945
aI7851
aI7852
aI5
aI248
aI2445
aI1647
aI182
aI7853
aI165
aI1050
aI138
aI2445
aI7142
aI7
aI4938
aI63765
asg6
S"Within the last 10 000 years  human influence over the Earth's ecosystems has been so extensive that scientists have difficulty estimating the number of species lost; that is to say the rates of deforestation  reef destruction  wetland draining and other human acts are proceeding much faster than human assessment of species ."
p11
ss.