(dp1
S'input'
p2
(dp3
S'encoded'
p4
(lp5
I64
aI2179
aI43
aI63
aI2157
aI2565
aI493
aI19084
aI382
aI4850
asS'ori'
p6
S"This house believes that Israel's 2008-2009 military operations against Gaza were justified"
p7
ssS'output'
p8
(dp9
g4
(lp10
I5523
aI3
aI475
aI7
aI75
aI2659
aI5
aI263
aI34
aI51
aI312
aI45
aI64
aI1351
aI7
aI2617
asg6
S'- condemned the use of "disproportionate force" by Israel and called for an "immediate end to this cycle of violence ."'
p11
ss.