(dp1
S'input'
p2
(dp3
S'encoded'
p4
(lp5
I64
aI2179
aI394
aI60
aI23587
asS'ori'
p6
S'This house would re-engage with Myanmar'
p7
ssS'output'
p8
(dp9
g4
(lp10
I14
aI3
aI7
aI425
aI3
aI2206
aI2159
aI7
aI10
aI2171
aI2172
aI2791
aI3
aI2206
aI47
aI2721
aI2226
aI60
aI3118
aI366
aI89
aI3256
aI12800
aI22
aI7577
aI16631
aI63765
asg6
S'On the 13th of January 2012  the US Secretary of State Hillary Clinton announced the US will exchange ambassadors with Burma  after a landmark Burmese political prisoner amnesty  .'
p11
ss.