(dp1
S'input'
p2
(dp3
S'encoded'
p4
(lp5
I64
aI2179
aI43
aI17
aI4941
aI857
aI3211
asS'ori'
p6
S'This house believes social deprivation causes crime'
p7
ssS'output'
p8
(dp9
g4
(lp10
I21856
aI32744
aI4415
aI3211
aI41
aI51
aI5533
aI3487
aI7
aI2022
aI60
aI28129
aI5200
aI7
aI3064
aI5
aI248
aI3802
aI887
aI78
asg6
S'Emile Durkheim viewed crime as an inevitable aspect of society  with uneven distribution of wealth and other differences among people'
p11
ss.