(dp1
S'input'
p2
(dp3
S'encoded'
p4
(lp5
I64
aI2179
aI43
aI63
aI1036
aI4828
aI33250
aI116
aI25073
aI45
aI3315
aI4562
asS'ori'
p6
S'This house believes that male infant circumcision is tantamount to child abuse'
p7
ssS'output'
p8
(dp9
g4
(lp10
I3
aI1560
aI4371
aI7
aI2136
aI63765
aI100
aI279
aI4765
aI2583
aI3808
aI159
aI41
aI33250
aI1453
aI99
aI243
aI6750
aI3
aI15991
aI703
aI45
aI8224
aI214
aI63765
aI119
aI2041
aI3715
aI63
aI21705
aI34822
aI182
aI89
aI4229
aI2878
aI7
aI805
aI397
aI3
aI3378
aI5
aI182
aI566
aI60
aI14687
aI5
aI12037
aI6007
aI397
aI3
aI873
aI13445
asg6
S"The American Academy of Pediatrics' policy states:  .   Some common painful minor procedures  such as circumcision  do not always receive the warranted attention to comfort issues . Available research indicates that newborn circumcisions are a significant source of pain during the procedure and are associated with irritability and feeding disturbances during the days afterward"
p11
ss.