(dp1
S'input'
p2
(dp3
S'encoded'
p4
(lp5
I64
aI2179
aI394
aI10662
aI626
aI187
aI2157
aI2697
aI19
aI2371
asS'ori'
p6
S'This house would remove United States military bases from Japan'
p7
ssS'output'
p8
(dp9
g4
(lp10
I3
aI33053
aI2157
aI2697
aI24
aI2371
aI946
aI120
aI24
aI11542
aI382
aI416
aI41
aI1185
aI594
aI5
aI4606
aI2697
asg6
S'the USFJ military bases in Japan  especially those in Okinawa  were used as important strategic and logistic bases'
p11
ss.