(dp1
S'input'
p2
(dp3
S'encoded'
p4
(lp5
I64
aI2179
aI43
aI63
aI17574
aI417
aI316
aI3481
aI34
aI271
aI79
asS'ori'
p6
S'This house believes that housewives should be paid for their work'
p7
ssS'output'
p8
(dp9
g4
(lp10
I24
aI248
aI4199
aI298
aI3620
aI7800
aI7940
aI3
aI13044
aI7
aI8277
aI7800
aI155
aI3108
aI14
aI17
aI4859
aI1191
aI3998
aI63
aI182
aI2398
aI566
aI60
aI7800
aI158
aI131
aI99
aI913
aI45
aI932
aI6080
aI8050
aI9395
aI17564
aI9165
aI13515
aI17512
aI5
aI1160
aI7
aI14705
aI99
aI14
aI3
aI17565
aI7
aI3
aI650
aI16062
aI63765
asg6
S'In other words  when feminist economics highlight the biases of mainstream economics  they focus on social beliefs about masculinity that are closely associated with economics including  but not limited to objectivity  separation  logical consistency  indivdual accomplishment  mathematics  abstraction  and lack of emotion  not on the maleness of the actual practitioners  .'
p11
ss.