(dp1
S'input'
p2
(dp3
S'encoded'
p4
(lp5
I64
aI2179
aI43
aI63
aI3
aI21
aI45
aI12715
aI417
aI99
aI316
aI2897
asS'ori'
p6
S'This house believes that the right to asylum should not be absolute'
p7
ssS'output'
p8
(dp9
g4
(lp10
I3
aI41777
aI7233
aI89
aI8655
aI20050
aI41
aI759
aI7
aI211
aI63765
asg6
S'The HAC launched a scathing rebuke as part of its conclusions:  .'
p11
ss.