(dp1
S'input'
p2
(dp3
S'encoded'
p4
(lp5
I64
aI2179
aI235
aI3
aI2136
aI7
aI3
aI2306
aI7
aI2390
asS'ori'
p6
S'This house supports the one-child policy of the republic of China'
p7
ssS'output'
p8
(dp9
g4
(lp10
I51170
aI63765
asg6
S'|- Anhui 30 343 637 5 .21 31 241 657 4 .50 49 665 724 4 .93 56 180 813 4 .96 59 860 000 4 .73 59 500 510 4 .44 .'
p11
ss.