(dp1
S'input'
p2
(dp3
S'encoded'
p4
(lp5
I64
aI2179
aI394
aI2017
aI3807
aI314
aI3433
asS'ori'
p6
S'This house would ban partial birth abortions'
p7
ssS'output'
p8
(dp9
g4
(lp10
I155
aI186
aI63
aI257
aI89
aI4906
aI122
aI4651
aI736
aI51
aI3216
aI24
aI92
aI273
aI122
aI443
aI215
aI119
aI34
aI732
aI4907
aI4908
aI5
aI3
aI4906
aI394
aI843
aI4909
aI73
aI4910
aI3
aI3459
aI394
aI11
aI45
aI501
aI3
aI4906
aI45
aI4909
aI63765
asg6
S"They argue that if a baby was born into an environment in which there was no replacement available for her mother's breast milk  and the baby would either breastfeed or starve  the mother would have to allow the baby to breastfeed ."
p11
ss.