(dp1
S'input'
p2
(dp3
S'encoded'
p4
(lp5
I64
aI2179
aI394
aI3830
aI3
aI475
aI7
aI9441
aI13132
aI3102
aI24
aI276
aI381
asS'ori'
p6
S'This house would permit the use of performance enhancing drugs in professional sports'
p7
ssS'output'
p8
(dp9
g4
(lp10
I24
aI2304
aI2164
aI26122
aI2972
aI2340
aI736
aI70
aI16874
aI7
aI3
aI282
aI2533
aI493
aI12283
aI24
aI266
aI92
aI394
aI2998
aI2568
aI60
aI16731
aI63765
asg6
S'In 2006  Russian President Vladimir Putin signed into law ratification of the International Convention Against Doping in Sport  which would encourage cooperation with WADA .'
p11
ss.