(dp1
S'input'
p2
(dp3
S'encoded'
p4
(lp5
I64
aI2179
aI394
aI1499
aI177
aI1819
aI34
aI160
asS'ori'
p6
S'This house would build high rises for housing'
p7
ssS'output'
p8
(dp9
g4
(lp10
I4492
aI182
aI2056
aI279
aI24
aI3945
aI5
aI11611
aI5
aI113
aI100
aI3926
aI2506
aI967
aI3
aI667
aI285
aI5
aI323
aI41
aI261
aI41
aI7420
aI26451
aI545
aI3
aI3059
aI285
aI63765
asg6
S'Single-family homes are now common in rural and suburban and even some urban areas across the New World and Europe  as well as wealthier enclaves within the Third World .'
p11
ss.