(dp1
S'input'
p2
(dp3
S'encoded'
p4
(lp5
I64
aI2179
aI394
aI15841
aI2736
asS'ori'
p6
S'This house would disband ASEAN'
p7
ssS'output'
p8
(dp9
g4
(lp10
I75
aI1035
aI8817
aI1964
aI2358
aI24
aI223
aI2736
aI2789
aI45
aI3
aI2742
aI582
aI24
aI2769
aI2770
aI394
aI3226
aI2258
aI75
aI1191
aI2900
aI63765
asg6
S'By contrast  cutting applied tariffs in all ASEAN members to the regional average in Southeast Asia would increase intra-regional trade by about 2 percent ($6 .3 billion)  .'
p11
ss.