(dp1
S'input'
p2
(dp3
S'encoded'
p4
(lp5
I64
aI2179
aI43
aI63
aI3376
aI4938
aI417
aI316
aI3537
asS'ori'
p6
S'This house believes that endangered species should be protected'
p7
ssS'output'
p8
(dp9
g4
(lp10
I3
aI2533
aI13765
aI63
aI1182
aI7243
aI182
aI534
aI45
aI1853
aI7128
aI2768
aI63765
asg6
S'The Convention acknowledges that substantial investments are required to conserve biological diversity .'
p11
ss.