(dp1
S'input'
p2
(dp3
S'encoded'
p4
(lp5
I64
aI2179
aI43
aI63
aI187
aI417
aI99
aI16642
aI3
aI6449
aI7
aI3935
asS'ori'
p6
S'This house believes that states should not subsidize the growing of tobacco'
p7
ssS'output'
p8
(dp9
g4
(lp10
I64
aI88
aI6372
aI89
aI2210
aI24
aI13169
aI14680
aI75
aI7165
aI89
aI14739
aI4515
aI24
aI3
aI11765
aI25414
aI41
aI89
aI1849
aI45
aI13169
aI20053
aI63765
asg6
S'This may play a role in nicotine addiction  by facilitating a dopamine release in the nucleus accumbens as a response to nicotine stimuli  .'
p11
ss.