(dp1
S'input'
p2
(dp3
S'encoded'
p4
(lp5
I64
aI2179
aI43
aI17
aI4941
aI857
aI3211
asS'ori'
p6
S'This house believes social deprivation causes crime'
p7
ssS'output'
p8
(dp9
g4
(lp10
I3
aI481
aI8
aI2022
aI1398
aI8404
aI4900
aI131
aI134
aI4612
aI120
aI63
aI134
aI98
aI99
aI2383
aI41
aI27623
aI5
aI1428
aI12539
aI5
aI32783
aI63765
asg6
S'The late modern society easily accepts difference  but it labels those that it does not want as deviant and relentlessly punishes and persecutes .'
p11
ss.