(dp1
S'input'
p2
(dp3
S'encoded'
p4
(lp5
I64
aI2179
aI43
aI63
aI3
aI28431
aI7
aI2157
aI4624
aI75
aI39939
aI27257
aI122
aI4850
asS'ori'
p6
S'This house believes that the leaking of military documents by Anat Kamm was justified'
p7
ssS'output'
p8
(dp9
g4
(lp10
I4624
aI60
aI64
aI16345
aI116
aI2545
aI4585
aI5
aI83
aI99
aI316
aI221
aI658
aI252
aI2545
aI14195
aI63765
asg6
S'Documents with this marking is NATO property (copyright) and must not be made public without NATO permission .'
p11
ss.