(dp1
S'input'
p2
(dp3
S'encoded'
p4
(lp5
I64
aI2179
aI394
aI4325
aI2042
aI270
aI89
aI11605
aI3324
asS'ori'
p6
S'This house would fund education using a voucher scheme'
p7
ssS'output'
p8
(dp9
g4
(lp10
I50999
aI158
aI2999
aI19370
aI1147
aI51351
aI2173
aI45
aI2809
aI2643
aI63
aI4301
aI182
aI1796
aI34
aI438
aI3
aI7785
aI6011
aI439
aI138
aI206
aI63
aI725
aI51352
aI75
aI1432
asg6
S'Statisticians  including Professor Emeritus Thomas Haladyna  stated to USA Today that "the odds are better for winning the Powerball grand prize than having that many erasures by chance ."'
p11
ss.