(dp1
S'input'
p2
(dp3
S'encoded'
p4
(lp5
I64
aI2179
aI43
aI8629
aI116
aI3
aI117
aI998
asS'ori'
p6
S'This house believes atheism is the only way'
p7
ssS'output'
p8
(dp9
g4
(lp10
I3
aI2486
aI8305
aI19
aI3
aI8306
aI14
aI3
aI5489
aI122
aI3
aI421
aI7
aI3
aI2802
aI1715
aI63765
asg6
S'The sole concession from the producers on the title was the addition of the question mark .'
p11
ss.