(dp1
S'input'
p2
(dp3
S'encoded'
p4
(lp5
I64
aI2179
aI43
aI63
aI187
aI417
aI99
aI16642
aI3
aI6449
aI7
aI3935
asS'ori'
p6
S'This house believes that states should not subsidize the growing of tobacco'
p7
ssS'output'
p8
(dp9
g4
(lp10
I395
aI9257
aI382
aI7478
aI606
aI24
aI3
aI531
aI7
aI4057
aI9361
aI41
aI51
aI320
aI11240
aI7
aI8942
aI14954
aI487
aI3217
aI3267
aI684
aI30205
aI442
aI14
aI3935
aI8303
aI5
aI3136
aI9451
aI9617
aI5
aI9010
aI20019
aI493
aI159
aI633
aI63765
asg6
S'Later  cigarettes were deliberately placed in the hands of Hollywood stars as an early phase of product placement  until health regulating bodies tightened rules on tobacco advertisement and anti-smoking groups pressured actors and studio executives against such tactics .'
p11
ss.