(dp1
S'input'
p2
(dp3
S'encoded'
p4
(lp5
I64
aI2179
aI394
aI1499
aI177
aI1819
aI34
aI160
asS'ori'
p6
S'This house would build high rises for housing'
p7
ssS'output'
p8
(dp9
g4
(lp10
I89
aI3492
aI24205
aI5
aI46141
aI22479
aI89
aI8246
aI16923
aI5
aI46142
aI874
aI1560
aI7309
aI3900
aI73
aI89
aI1565
aI723
aI6705
aI5
aI18351
aI2179
aI182
aI223
aI3475
aI18851
aI7
aI1107
aI3874
aI24110
aI160
aI63765
asg6
S'A traditional log and plaster hut  a timber frame and drywall North American starter home  or a European style concrete and slate house are all equally varieties of single family detached housing .'
p11
ss.