(dp1
S'input'
p2
(dp3
S'encoded'
p4
(lp5
I64
aI2179
aI43
aI63
aI3
aI4990
aI4991
aI116
aI4850
aI24
aI12166
aI3
aI475
aI7
aI3532
aI3290
aI7
aI4714
asS'ori'
p6
S'This house believes that the Catholic Church is justified in forbidding the use of barrier methods of contraception'
p7
ssS'output'
p8
(dp9
g4
(lp10
I217
aI248
aI8313
aI1453
aI99
aI268
aI24
aI64
aI34
aI1343
aI30622
aI11
aI443
aI5624
aI45
aI314
aI708
aI5
aI24
aI6656
aI273
aI116
aI443
aI1360
aI689
aI2136
aI14
aI314
aI708
aI63765
asg6
S'Most other religions do not engage in this discussion; for example  Sikhs have no objection to birth control  and in Buddhism there is no widely recognized policy on birth control .'
p11
ss.