(dp1
S'input'
p2
(dp3
S'encoded'
p4
(lp5
I64
aI2179
aI43
aI3
aI626
aI187
aI116
aI1989
aI34
aI3102
aI2223
asS'ori'
p6
S"This house believes the United States is responsible for Mexico's drugs war"
p7
ssS'output'
p8
(dp9
g4
(lp10
I691
aI136
aI79
aI116
aI534
aI45
aI163
aI8784
aI120
aI1374
aI1223
aI24
aI3
aI2145
aI63765
aI3
aI2145
aI63765
aI2211
aI4889
aI45
aI991
aI2614
aI2056
aI92
aI47
aI501
aI1157
aI70
aI3353
aI45
aI405
aI2613
aI3139
aI136
aI136
aI6894
aI134
aI174
aI1040
aI3
aI1157
aI2157
aI864
aI7
aI3
aI70
aI3353
aI2210
aI134
aI55
aI12
aI699
aI63765
asg6
S"Since more work is required to make sure those guns stay in the U .S .  the U .S . Senate proposes to stop firearms' smuggling now  which will allow Mexican law enforcement to fight drug trafficking more effectively; more importantly  it also takes the Mexican military out of the law enforcement role it has been assigned  ."
p11
ss.