(dp1
S'input'
p2
(dp3
S'encoded'
p4
(lp5
I64
aI2179
aI43
aI63
aI6670
aI546
aI417
aI316
aI89
aI1334
aI3108
aI7
aI4849
aI1886
aI2855
asS'ori'
p6
S'This house believes that wind power should be a primary focus of future energy supply'
p7
ssS'output'
p8
(dp9
g4
(lp10
I923
aI16423
aI546
aI116
aI75
aI938
aI3
aI217
aI5132
aI6844
aI2878
aI45
aI3051
aI2881
aI1381
aI1879
aI4510
aI5
aI593
aI25326
aI7
aI16444
aI62534
aI1544
aI60
aI1016
aI2410
aI5136
aI463
aI163
aI64
aI2878
aI7
aI1886
aI136
aI7595
aI63765
asg6
S'Currently solar power is by far the most expensive renewable source to produce electricity  although increasing efficiency and longer lifespan of photovoltaic pannels together with reduced production costs could make this source of energy more competitive .'
p11
ss.