(dp1
S'input'
p2
(dp3
S'encoded'
p4
(lp5
I64
aI2179
aI43
aI63
aI6670
aI546
aI417
aI316
aI89
aI1334
aI3108
aI7
aI4849
aI1886
aI2855
asS'ori'
p6
S'This house believes that wind power should be a primary focus of future energy supply'
p7
ssS'output'
p8
(dp9
g4
(lp10
I42
aI4439
aI1886
aI31757
aI41
aI3
aI710
aI45
aI9478
aI45
aI18200
aI24
aI3
aI2855
aI7
aI1886
aI63765
asg6
S'He describes energy resilience as the ability to adjust to interruptions in the supply of energy .'
p11
ss.