(dp1
S'input'
p2
(dp3
S'encoded'
p4
(lp5
I64
aI2179
aI394
aI2017
aI628
asS'ori'
p6
S'This house would ban gambling'
p7
ssS'output'
p8
(dp9
g4
(lp10
I89
aI10411
aI7250
aI2176
aI2922
aI3
aI816
aI3855
aI3953
aI145
aI1047
aI24
aI3
aI5938
aI41
aI3
aI1532
aI24
aI3
aI20861
aI63765
asg6
S"A specialized surveillance department operates the casino's closed circuit television system  known in the industry as the eye in the sky ."
p11
ss.