(dp1
S'input'
p2
(dp3
S'encoded'
p4
(lp5
I64
aI2179
aI394
aI4325
aI2042
aI270
aI89
aI11605
aI3324
asS'ori'
p6
S'This house would fund education using a voucher scheme'
p7
ssS'output'
p8
(dp9
g4
(lp10
I42
aI461
aI14
aI45
aI2197
aI2164
aI2997
aI131
aI12447
aI63
aI3
aI912
aI7074
aI1301
aI1971
aI45
aI3
aI2375
aI7
aI13886
aI63765
asg6
S'He went on to praise President Bush\'s efforts  but contended that the current administration\'s plan never managed to "rally the armies of compassion .'
p11
ss.