(dp1
S'input'
p2
(dp3
S'encoded'
p4
(lp5
I64
aI2179
aI43
aI8629
aI116
aI3
aI117
aI998
asS'ori'
p6
S'This house believes atheism is the only way'
p7
ssS'output'
p8
(dp9
g4
(lp10
I734
aI24
aI60
aI16633
aI25942
aI60973
aI89
aI94
aI7
aI12716
aI158
aI8652
aI1314
aI14880
aI23803
aI60974
aI411
aI60975
aI1115
aI3366
aI5
aI3
aI94
aI60976
aI2586
aI6907
aI3
aI2497
aI45
aI89
aI2495
aI23
aI7
aI78
aI138
aI11
aI17552
aI159
aI41
aI7505
aI63765
asg6
S'Beginning in 2004 with essayist Katherine Yurica  a group of authors including journalist Chris Hedges Marion Maddox  James Rudin  Sam Harris  and the group TheocracyWatch began applying the term to a broader spectrum of people than have sociologists such as Diamond .'
p11
ss.