(dp1
S'input'
p2
(dp3
S'encoded'
p4
(lp5
I64
aI2179
aI394
aI5284
aI150
aI3987
asS'ori'
p6
S'This house would reintroduce national service'
p7
ssS'output'
p8
(dp9
g4
(lp10
I3
aI5859
aI258
aI63
aI2144
aI182
aI443
aI593
aI5175
aI45
aI2830
aI24
aI3
aI2218
aI2219
aI41
aI572
aI41
aI134
aI116
aI99
aI534
aI34
aI3
aI934
aI7
aI3
aI2696
aI63765
asg6
S'The suspension means that citizens are no longer forced to serve in the armed forces  as long as it is not required for the safety of the country .'
p11
ss.