(dp1
S'input'
p2
(dp3
S'encoded'
p4
(lp5
I64
aI2179
aI43
aI63
aI3
aI21
aI45
aI12715
aI417
aI99
aI316
aI2897
asS'ori'
p6
S'This house believes that the right to asylum should not be absolute'
p7
ssS'output'
p8
(dp9
g4
(lp10
I3
aI28262
aI24
aI3
aI3262
aI382
aI13080
aI75
aI976
aI17830
aI81
aI4855
aI63
aI351
aI6828
aI463
aI316
aI3363
aI75
aI634
aI11649
aI392
aI3368
aI5
aI5139
aI45
aI1223
aI7188
aI7
aI3347
aI3518
aI5
aI1447
aI131
aI75
aI443
aI258
aI870
aI366
aI2445
aI2446
aI2784
aI3368
aI63765
asg6
S'The delays in the process were exploited by legal advisors who realised that any removal could be delayed by continued representation  renewed appeals and applications to stay  threats of Judicial Review and  last but by no means least  after 2000  Human Rights Act appeals  .'
p11
ss.