(dp1
S'input'
p2
(dp3
S'encoded'
p4
(lp5
I64
aI2179
aI235
aI3
aI2136
aI7
aI3
aI2306
aI7
aI2390
asS'ori'
p6
S'This house supports the one-child policy of the republic of China'
p7
ssS'output'
p8
(dp9
g4
(lp10
I14
aI211
aI284
aI134
aI116
aI99
aI87
aI5698
aI691
aI17643
aI7
aI3
aI11154
aI40061
aI927
aI10905
aI17790
aI24
aI45
aI3709
aI271
aI6426
aI8538
aI3
aI1643
aI17643
aI81
aI6347
aI3
aI145
aI7
aI22
aI4562
aI7
aI20007
aI24
aI3
aI943
aI2131
aI63765
asg6
S'On its own  it is not so strange  since psychiatrists of the Moscow Serbsky Institute visited Beijing in 1957 to help their Chinese brethren  the same psychiatrists who promoted the system of political abuse of psychiatry in the Soviet Union  .'
p11
ss.