(dp1
S'input'
p2
(dp3
S'encoded'
p4
(lp5
I64
aI2179
aI43
aI63
aI11083
aI10046
aI417
aI316
aI89
aI3135
aI4603
asS'ori'
p6
S'This house believes that Holocaust denial should be a criminal offence'
p7
ssS'output'
p8
(dp9
g4
(lp10
I3
aI48017
aI905
aI122
aI480
aI24
aI2547
aI24
aI75
aI48015
aI6383
aI5
aI24
aI326
aI24
aI75
aI16889
aI957
aI7252
aI63765
asg6
S"The Leuchter report was published in Canada in 1988 by Samisdat Publishers and in Britain in 1989 by Irving's Focal Point Publishing ."
p11
ss.