(dp1
S'input'
p2
(dp3
S'encoded'
p4
(lp5
I64
aI2179
aI394
aI16756
aI20435
asS'ori'
p6
S'This house would criminalize blasphemy'
p7
ssS'output'
p8
(dp9
g4
(lp10
I30639
aI30640
aI3
aI2800
aI177
aI9579
aI34
aI2445
aI2446
aI55
aI2244
aI1411
aI289
aI3
aI14852
aI5
aI742
aI63
aI626
aI2138
aI116
aI11336
aI10535
aI7
aI6880
aI61327
aI63765
asg6
S'Louise Arbour  the UN High Commissioner for Human Rights has expressed concern over the cartoons and said that United Nations is investigating racism of Danish cartoonists  .'
p11
ss.