(dp1
S'input'
p2
(dp3
S'encoded'
p4
(lp5
I64
aI2179
aI394
aI10662
aI626
aI187
aI2157
aI2697
aI19
aI2371
asS'ori'
p6
S'This house would remove United States military bases from Japan'
p7
ssS'output'
p8
(dp9
g4
(lp10
I1381
aI3
aI979
aI2179
aI395
aI22406
aI3
aI752
aI3
aI55360
aI1971
aI45
aI836
aI89
aI4728
aI1617
aI291
aI3
aI1460
aI6400
aI5
aI3
aI667
aI4342
aI3
aI237
aI1387
aI691
aI134
aI122
aI685
aI24
aI63765
asg6
S"Although the Lower House later overrode the decision  the oppositions managed to create a 1 month space between the prior Agreement's expiration and the new one's passage  the first gap since it was established in 1978  ."
p11
ss.