(dp1
S'input'
p2
(dp3
S'encoded'
p4
(lp5
I64
aI2179
aI394
aI1499
aI3
aI8115
aI34564
aI17106
asS'ori'
p6
S'This house would build the Keystone XL pipeline'
p7
ssS'output'
p8
(dp9
g4
(lp10
I3
aI3393
aI122
aI3335
aI24
aI3
aI734
aI7
aI5
aI3
aI150
aI1886
aI2128
aI7
aI2547
aI2951
aI5593
aI24
aI2555
aI63765
asg6
S'The application was filed in the beginning of 2009 and the National Energy Board of Canada started hearings in September 2009  .'
p11
ss.