(dp1
S'input'
p2
(dp3
S'encoded'
p4
(lp5
I64
aI2179
aI43
aI17
aI4941
aI857
aI3211
asS'ori'
p6
S'This house believes social deprivation causes crime'
p7
ssS'output'
p8
(dp9
g4
(lp10
I24
aI3
aI102
aI631
aI6829
aI3550
aI3211
aI1230
aI588
aI45
aI78
aI5157
aI24
aI380
aI3136
aI63765
asg6
S'In the UK  police estimate organized crime involves up to 38 000 people operating in 6 000 various groups  .'
p11
ss.