(dp1
S'input'
p2
(dp3
S'encoded'
p4
(lp5
I64
aI2179
aI43
aI8629
aI116
aI3
aI117
aI998
asS'ori'
p6
S'This house believes atheism is the only way'
p7
ssS'output'
p8
(dp9
g4
(lp10
I3384
aI11
aI12
aI3444
aI75
aI10078
aI45
aI11
aI3
aI782
aI7
aI46933
aI5480
aI45
aI3
aI13701
aI7
aI41
aI3863
aI6029
aI4696
aI3
aI13800
aI7
aI5480
aI4698
aI63765
asg6
S'God-of-the-gaps arguments have been asserted by theologians to have the effect of relegating God to the leftovers of science: as scientific knowledge increases  the dominion of God decreases  .'
p11
ss.