(dp1
S'input'
p2
(dp3
S'encoded'
p4
(lp5
I64
aI2179
aI43
aI63
aI134
aI116
aI400
aI21
aI34
aI3
aI260
aI45
aI3439
aI57
aI7
aI2381
asS'ori'
p6
S'This house believes that it is sometimes right for the government to restrict freedom of speech'
p7
ssS'output'
p8
(dp9
g4
(lp10
I60214
aI174
aI418
aI63
aI459
aI4185
aI116
aI99
aI89
aI5376
aI5
aI10933
aI5
aI4509
aI1361
aI24
aI3
aI10933
aI116
aI443
aI5685
aI63765
asg6
S'Borovoy also noted that under Section 13(1)  "Intent is not a requirement  and truth and reasonable belief in the truth is no defence .'
p11
ss.