(dp1
S'input'
p2
(dp3
S'encoded'
p4
(lp5
I64
aI2179
aI43
aI63
aI187
aI417
aI99
aI16642
aI3
aI6449
aI7
aI3935
asS'ori'
p6
S'This house believes that states should not subsidize the growing of tobacco'
p7
ssS'output'
p8
(dp9
g4
(lp10
I2985
aI7
aI2145
aI63765
aI7408
aI2136
aI103
aI63
aI134
aI88
aI316
aI24
aI2521
aI7
aI285
aI2258
aI2134
aI2361
aI3543
aI63
aI2287
aI10400
aI88
aI316
aI513
aI45
aI316
aI89
aI2258
aI3532
aI63765
asg6
S'Critics of U .S . agricultural policy claim that it may be in violation of World Trade Organization agreements  asserting that domestic subsidies may be considered to be a non-tariff trade barrier .'
p11
ss.