(dp1
S'input'
p2
(dp3
S'encoded'
p4
(lp5
I64
aI2179
aI394
aI4325
aI2042
aI270
aI89
aI11605
aI3324
asS'ori'
p6
S'This house would fund education using a voucher scheme'
p7
ssS'output'
p8
(dp9
g4
(lp10
I24
aI42
aI3
aI6642
aI3930
aI2784
aI7
aI92
aI394
aI11
aI123
aI89
aI667
aI1380
aI7
aI9276
aI63
aI394
aI11
aI12
aI4570
aI19
aI217
aI2503
aI112
aI6329
aI63765
asg6
S'In 1999  he co-sponsored The Employee Ownership Act of 1999  which would have created a new type of corporation (the employee-owned-and-controlled corporation) that would have been exempt from most federal income taxes .'
p11
ss.