(dp1
S'input'
p2
(dp3
S'encoded'
p4
(lp5
I64
aI2179
aI394
aI4325
aI2042
aI270
aI89
aI11605
aI3324
asS'ori'
p6
S'This house would fund education using a voucher scheme'
p7
ssS'output'
p8
(dp9
g4
(lp10
I1381
aI89
aI17678
aI2096
aI15701
aI5718
aI45
aI2194
aI4358
aI3971
aI4758
aI116
aI9066
aI24
aI3
aI2498
aI63
aI3
aI1222
aI45
aI1579
aI4358
aI736
aI166
aI2042
aI1227
aI45
aI2723
aI994
aI2388
aI138
aI177
aI2240
aI63765
asg6
S'Although a noble idea  Summers promise to aid low-income students entering college is flawed in the sense that the attempt to push students into higher education needs to occur significantly earlier than high school .'
p11
ss.