(dp1
S'input'
p2
(dp3
S'encoded'
p4
(lp5
I64
aI2179
aI43
aI63
aI3
aI21
aI45
aI12715
aI417
aI99
aI316
aI2897
asS'ori'
p6
S'This house believes that the right to asylum should not be absolute'
p7
ssS'output'
p8
(dp9
g4
(lp10
I3
aI3800
aI7
aI14907
aI17491
aI2183
aI14
aI132
aI278
aI2203
aI24
aI139
aI7973
aI316
aI344
aI41
aI3
aI5563
aI3517
aI7
aI3
aI3262
aI63
aI440
aI2951
aI24
aI5
aI51
aI1222
aI45
aI831
aI1931
aI19
aI3
aI14307
aI7
aI3
aI1257
aI63765
asg6
S'The imposition of blanket visa controls on these Commonwealth countries in 1986 can possibly be seen as the final stage of the process that had started in 1962 and an attempt to move away from the inconsistencies of the past .'
p11
ss.