(dp1
S'input'
p2
(dp3
S'encoded'
p4
(lp5
I64
aI2179
aI43
aI8629
aI116
aI3
aI117
aI998
asS'ori'
p6
S'This house believes atheism is the only way'
p7
ssS'output'
p8
(dp9
g4
(lp10
I24
aI3
aI2977
aI2985
aI7
aI32470
aI13564
aI4881
aI63
aI3
aI1485
aI2909
aI440
aI443
aI2259
aI24
aI4984
aI63765
asg6
S'In the 1920s  Polish critics of kosher slaughter claimed that the practice actually had no basis in scripture  .'
p11
ss.