(dp1
S'input'
p2
(dp3
S'encoded'
p4
(lp5
I64
aI2179
aI43
aI63
aI134
aI116
aI400
aI21
aI34
aI3
aI260
aI45
aI3439
aI57
aI7
aI2381
asS'ori'
p6
S'This house believes that it is sometimes right for the government to restrict freedom of speech'
p7
ssS'output'
p8
(dp9
g4
(lp10
I20518
aI2029
aI7
aI2446
aI4626
aI7
aI2381
aI24
aI5
aI3
aI2804
aI7
aI3
aI2446
aI7
aI460
aI5
aI7
aI3
aI4278
aI1515
aI397
aI3
aI4169
aI2232
aI24
aI4555
aI4063
aI57
aI7
aI2381
aI41
aI51
aI4627
aI21
aI63765
asg6
S"Englands Bill of Rights 1689 granted 'freedom of speech in Parliament' and the Declaration of the Rights of Man and of the Citizen  adopted during the French Revolution in 1789  specifically affirmed freedom of speech as an inalienable right  ."
p11
ss.