(dp1
S'input'
p2
(dp3
S'encoded'
p4
(lp5
I64
aI2179
aI394
aI16642
aI1376
aI5269
asS'ori'
p6
S'This house would subsidize poor communities'
p7
ssS'output'
p8
(dp9
g4
(lp10
I3614
aI6348
aI2173
aI63
aI4925
aI440
aI89
aI69
aI782
aI14
aI16
aI2891
aI63765
asg6
S'Initial theories stated that inequality had a positive effect on economic development .'
p11
ss.