(dp1
S'input'
p2
(dp3
S'encoded'
p4
(lp5
I64
aI2179
aI394
aI2017
aI3807
aI314
aI3433
asS'ori'
p6
S'This house would ban partial birth abortions'
p7
ssS'output'
p8
(dp9
g4
(lp10
I3609
aI45
aI3254
aI14
aI3
aI3734
aI2824
aI298
aI2164
aI3735
aI2031
aI3578
aI2051
aI14
aI3736
aI1609
aI2503
aI3347
aI3737
aI24
aI63765
asg6
S'Opposition to Roe on the bench grew when President Reaganwho supported legislative restrictions on abortionbegan making federal judicial appointments in 1981 .'
p11
ss.