(dp1
S'input'
p2
(dp3
S'encoded'
p4
(lp5
I64
aI2179
aI394
aI60
aI23587
asS'ori'
p6
S'This house would re-engage with Myanmar'
p7
ssS'output'
p8
(dp9
g4
(lp10
I89
aI4071
aI94
aI7
aI2634
aI122
aI5047
aI45
aI11
aI12
aI4316
aI545
aI2425
aI75
aI23928
aI63765
aI50564
aI17679
aI459
aI2161
aI41475
aI50594
aI5
aI448
aI50595
aI8840
aI63765
asg6
S"A dedicated group of anti-riot troops was reported to have been formed within Brigate-77 led by Col . Thein Han under Minister Aung Thaung and General Htay Oo's supervision ."
p11
ss.