(dp1
S'input'
p2
(dp3
S'encoded'
p4
(lp5
I64
aI2179
aI43
aI63
aI3
aI21
aI45
aI12715
aI417
aI99
aI316
aI2897
asS'ori'
p6
S'This house believes that the right to asylum should not be absolute'
p7
ssS'output'
p8
(dp9
g4
(lp10
I19088
aI7477
aI19
aI5
aI271
aI7290
aI1453
aI99
aI2118
aI459
aI3
aI2800
aI2533
aI4955
aI45
aI3
aI2554
aI7
aI7477
aI131
aI459
aI3
aI2800
aI335
aI5
aI95
aI2904
aI34
aI8452
aI7477
aI24
aI3
aI5156
aI2087
aI92
aI123
aI211
aI284
aI4799
aI34
aI3215
aI6017
aI63765
asg6
S'Palestinian refugees from 1948 and their descendants do not come under the 1951 UN Convention Relating to the Status of Refugees  but under the UN Relief and Works Agency for Palestine Refugees in the Near East  which created its own criteria for refugee classification .'
p11
ss.