(dp1
S'input'
p2
(dp3
S'encoded'
p4
(lp5
I64
aI2179
aI394
aI2976
aI12243
aI24
aI954
aI126
aI1560
aI10723
asS'ori'
p6
S'This house would implement playoffs in collegiate level American football'
p7
ssS'output'
p8
(dp9
g4
(lp10
I32968
aI500
aI2741
aI34958
aI45
aI312
aI588
aI24
aI3
aI5563
aI34949
aI15338
aI131
aI60
aI3
aI7561
aI41
aI10666
aI41
aI134
aI122
aI5
aI292
aI7
aI3
aI1530
aI34949
aI11663
aI206
aI606
aI2298
aI24
aI291
aI3
aI267
aI4364
aI443
aI4376
aI139
aI316
aI1657
aI41
aI45
aI61
aI876
aI11
aI9144
aI257
aI2298
aI440
aI6196
aI63765
asg6
S'Cincinnati did pass TCU to end up 3rd in the final BCS standings  but with the margin as slim as it was and three of the six BCS computers having placed Texas in between the two schools  no conclusions can be drawn as to what might have happened if Texas had lost .'
p11
ss.