(dp1
S'input'
p2
(dp3
S'encoded'
p4
(lp5
I64
aI2179
aI394
aI2017
aI262
asS'ori'
p6
S'This house would ban boxing'
p7
ssS'output'
p8
(dp9
g4
(lp10
I134
aI417
aI316
aI418
aI63
aI64
aI349
aI399
aI7
aI8
aI262
aI122
aI419
aI384
aI63765
asg6
S'It should be noted  that this earliest form of modern boxing was very different .'
p11
ss.