(dp1
S'input'
p2
(dp3
S'encoded'
p4
(lp5
I64
aI2179
aI43
aI63
aI6670
aI546
aI417
aI316
aI89
aI1334
aI3108
aI7
aI4849
aI1886
aI2855
asS'ori'
p6
S'This house believes that wind power should be a primary focus of future energy supply'
p7
ssS'output'
p8
(dp9
g4
(lp10
I8784
aI3
aI6670
aI6677
aI221
aI41
aI8373
aI51
aI6669
aI918
aI41
aI748
aI122
aI51
aI1185
aI3480
aI63765
asg6
S'"Making sure the wind farm made as gentle an environmental impact as possible was an important consideration .'
p11
ss.