(dp1
S'input'
p2
(dp3
S'encoded'
p4
(lp5
I64
aI2179
aI43
aI8629
aI116
aI3
aI117
aI998
asS'ori'
p6
S'This house believes atheism is the only way'
p7
ssS'output'
p8
(dp9
g4
(lp10
I24
aI3
aI15560
aI3
aI6085
aI4718
aI18666
aI18667
aI18668
aI7
aI18669
aI500
aI99
aI133
aI6427
aI4532
aI63765
asg6
S'In the 3rd-century BCE the Greek philosophers Theodorus Cyrenaicusand Strato of Lampsacusalso did not believe gods exist .'
p11
ss.