(dp1
S'input'
p2
(dp3
S'encoded'
p4
(lp5
I64
aI2179
aI43
aI63
aI134
aI116
aI400
aI21
aI34
aI3
aI260
aI45
aI3439
aI57
aI7
aI2381
asS'ori'
p6
S'This house believes that it is sometimes right for the government to restrict freedom of speech'
p7
ssS'output'
p8
(dp9
g4
(lp10
I3
aI2483
aI116
aI1483
aI13266
aI24
aI5914
aI89
aI54914
aI19
aI3
aI2533
aI131
aI7177
aI89
aI166
aI4927
aI7
aI3441
aI24
aI4929
aI755
aI249
aI788
aI75
aI187
aI459
aI89
aI54916
aI182
aI24
aI3
aI4199
aI7
aI3500
aI534
aI75
aI3
aI54915
aI7
aI3
aI63765
asg6
S'The Court is quite permissive in accepting a state\'s derogations from the Convention but applies a higher degree of scrutiny in deciding whether measures taken by states under a derogation are  in the words of Article 15  "strictly required by the exigencies of the situation" .'
p11
ss.