(dp1
S'input'
p2
(dp3
S'encoded'
p4
(lp5
I64
aI2179
aI43
aI63
aI3
aI4538
aI7
aI4434
aI7793
aI283
aI45
aI3586
aI417
aI316
aI577
asS'ori'
p6
S'This house believes that the sale of violent video games to minors should be banned'
p7
ssS'output'
p8
(dp9
g4
(lp10
I7804
aI48745
aI2999
aI7
aI22
aI3707
aI311
aI13555
aI13556
aI4750
aI5
aI2018
aI7
aI3
aI26
aI3
aI3296
aI7
aI3347
aI3744
aI3296
aI5
aI3
aI658
aI63765
aI5008
aI45
aI3
aI3713
aI727
aI5
aI3
aI3744
aI752
aI75
aI3848
aI63
aI2217
aI2248
aI3835
aI3
aI2483
aI55
aI12
aI946
aI920
aI7
aI3
aI237
aI131
aI42
aI174
aI742
aI727
aI4883
aI3
aI2483
aI14
aI89
aI1718
aI6885
aI2346
aI60
aI3
aI658
aI63765
asg6
S'Bruce Peabody  professor of political science at Fairleigh Dickinson University and editor of the book The Politics of Judicial Independence: Courts  Politics  and the Public .  responded to the poll results and the Courts decision by noting that "under Chief Justice Roberts  the Court has been especially protective of the First Amendment" but he also said "these results put the Court on a potential collision course with the public .'
p11
ss.