(dp1
S'input'
p2
(dp3
S'encoded'
p4
(lp5
I64
aI2179
aI394
aI2017
aI628
asS'ori'
p6
S'This house would ban gambling'
p7
ssS'output'
p8
(dp9
g4
(lp10
I3
aI2810
aI34154
aI1978
aI6335
aI122
aI2394
aI53
aI78
aI440
aI45
aI2572
aI9093
aI63765
asg6
S'The highest jackpot ever won was December 5th 2007 where 3 people had to share 45 382 458 euros .'
p11
ss.