(dp1
S'input'
p2
(dp3
S'encoded'
p4
(lp5
I64
aI2179
aI394
aI190
aI3
aI21
aI45
aI3895
aI834
asS'ori'
p6
S'This house would limit the right to bear arms'
p7
ssS'output'
p8
(dp9
g4
(lp10
I24
aI25
aI26
aI78
aI8577
aI1089
aI22842
aI22843
aI40
aI2203
aI41
aI12173
aI41
aI2991
aI5
aI3
aI2308
aI3464
aI271
aI57
aI493
aI3151
aI6355
aI75
aI11977
aI3
aI78
aI5
aI17113
aI3945
aI4117
aI24
aI3
aI63765
asg6
S'In his book "Armed People Victorious " Larry Pratt recounts how countries as dissimilar as Guatemala and the Philippines preserved their freedom against communist insurgency by arming the people and forming rural militias in the 1980s  .'
p11
ss.