(dp1
S'input'
p2
(dp3
S'encoded'
p4
(lp5
I64
aI2179
aI43
aI63
aI134
aI116
aI400
aI21
aI34
aI3
aI260
aI45
aI3439
aI57
aI7
aI2381
asS'ori'
p6
S'This house believes that it is sometimes right for the government to restrict freedom of speech'
p7
ssS'output'
p8
(dp9
g4
(lp10
I1381
aI16874
aI221
aI3
aI2029
aI7
aI2446
aI1112
aI24
aI292
aI7
aI3
aI3851
aI8747
aI3303
aI2980
aI5
aI500
aI99
aI16585
aI3
aI237
aI767
aI4237
aI487
aI298
aI155
aI382
aI2820
aI45
aI1453
aI87
aI24
aI89
aI10920
aI7
aI3
aI3570
aI7
aI271
aI4342
aI75
aI2221
aI63765
asg6
S'Although ratification made the Bill of Rights effective in 1791  three of the original thirteen states&nbsp; Connecticut  Georgia  and Massachusetts&nbsp; did not ratify the first ten amendments until 1939  when they were urged to do so in a celebration of the 150th anniversary of their passage by Congress  .'
p11
ss.