(dp1
S'input'
p2
(dp3
S'encoded'
p4
(lp5
I64
aI2179
aI43
aI223
aI2138
aI11
aI89
aI21
aI45
aI2185
aI372
asS'ori'
p6
S'This house believes all nations have a right to nuclear weapons'
p7
ssS'output'
p8
(dp9
g4
(lp10
I60
aI2420
aI19
aI3
aI5099
aI7
aI51
aI1274
aI45
aI211
aI877
aI122
aI4838
aI5101
aI63765
asg6
S'With long-range bombers  from the start of an attack to its conclusion was mere hours .'
p11
ss.