(dp1
S'input'
p2
(dp3
S'encoded'
p4
(lp5
I64
aI2179
aI394
aI2773
aI12505
asS'ori'
p6
S'This house would embrace multiculturalism'
p7
ssS'output'
p8
(dp9
g4
(lp10
I5
aI3500
aI3012
aI14
aI3
aI2210
aI7
aI3
aI8270
aI63765
asg6
S'And Article 12 defines on the role of the UNESCO .'
p11
ss.