(dp1
S'input'
p2
(dp3
S'encoded'
p4
(lp5
I64
aI2179
aI43
aI3
aI626
aI187
aI116
aI1989
aI34
aI3102
aI2223
asS'ori'
p6
S"This house believes the United States is responsible for Mexico's drugs war"
p7
ssS'output'
p8
(dp9
g4
(lp10
I366
aI3798
aI7
aI3
aI4134
aI7865
aI28421
aI753
aI864
aI45
aI4336
aI15946
aI2217
aI5519
aI3
aI4336
aI4706
aI4185
aI5
aI3
aI2248
aI5354
aI7
aI3
aI8770
aI448
aI1354
aI7
aI4895
aI840
aI5008
aI63765
asg6
S"After hearing of the incident  Agent Dodson reached out to ATF headquarters  ATF's chief counsel  the ATF ethics section and the Justice Department's Office of the Inspector General  none of whom immediately responded ."
p11
ss.