(dp1
S'input'
p2
(dp3
S'encoded'
p4
(lp5
I64
aI2179
aI43
aI24
aI3
aI475
aI7
aI12436
aI3364
asS'ori'
p6
S'This house believes in the use of affirmative action'
p7
ssS'output'
p8
(dp9
g4
(lp10
I24
aI3
aI626
aI187
aI3
aI5125
aI7517
aI511
aI2130
aI4602
aI89
aI3249
aI3274
aI953
aI8824
aI12964
aI34
aI728
aI270
aI8921
aI12965
aI45
aI12513
aI493
aI5025
aI2625
aI24
aI1809
aI7
aI5650
aI747
aI63765
asg6
S'In the United States  the Equal Employment Opportunity Commission sued a private test preparation firm  Kaplan  for unfairly using credit histories to discriminate against African Americans in terms of hiring decisions  .'
p11
ss.