(dp1
S'input'
p2
(dp3
S'encoded'
p4
(lp5
I64
aI2179
aI43
aI63
aI187
aI417
aI99
aI16642
aI3
aI6449
aI7
aI3935
asS'ori'
p6
S'This house believes that states should not subsidize the growing of tobacco'
p7
ssS'output'
p8
(dp9
g4
(lp10
I273
aI116
aI378
aI100
aI4757
aI63
aI64
aI88
aI11
aI7065
aI3217
aI4658
aI9461
aI45
aI3
aI7151
aI7
aI25402
aI63765
asg6
S'There is  however  some suggestion that this may have adverse health effects attributable to the content of apatite .'
p11
ss.