(dp1
S'input'
p2
(dp3
S'encoded'
p4
(lp5
I64
aI2179
aI394
aI16642
aI1376
aI5269
asS'ori'
p6
S'This house would subsidize poor communities'
p7
ssS'output'
p8
(dp9
g4
(lp10
I24
aI25
aI26
aI1949
aI16
aI137
aI7528
aI54
aI5
aI24685
aI24686
aI24687
aI3172
aI63
aI89
aI6449
aI5232
aI7
aI3064
aI4328
aI41
aI3
aI7
aI3064
aI557
aI75
aI3
aI2913
aI116
aI6212
aI45
aI2895
aI2389
aI5
aI24685
aI63765
asg6
S"In his 1985 book Regular Economic Cycles: Money  Inflation  Regulation and Depressions  Ravi Batra argues that a growing concentration of wealth  measured as the 'share of wealth held by the richest 1 percent'  is linked to bank failures and depressions ."
p11
ss.