(dp1
S'input'
p2
(dp3
S'encoded'
p4
(lp5
I64
aI2179
aI394
aI117
aI7428
aI21151
aI34
aI11389
aI2042
aI24
aI4364
asS'ori'
p6
S'This house would only teach abstinence for sex education in schools'
p7
ssS'output'
p8
(dp9
g4
(lp10
I89
aI3518
aI353
aI2338
aI350
aI63
aI55913
aI858
aI6241
aI7
aI3
aI17847
aI2682
aI8481
aI13686
aI350
aI63
aI134
aI858
aI6241
aI7
aI9583
aI5
aI971
aI350
aI63
aI134
aI6714
aI9146
aI2038
aI10670
aI63765
asg6
S'A 2010 review found insufficient evidence that NSP prevents transmission of the hepatitis C virus  tentative evidence that it prevents transmission of HIV and sufficient evidence that it reduces self-reported injecting risk behaviour  .'
p11
ss.