(dp1
S'input'
p2
(dp3
S'encoded'
p4
(lp5
I64
aI2179
aI394
aI2741
aI3
aI1560
aI6025
aI2784
asS'ori'
p6
S'This house would pass the American Jobs Act'
p7
ssS'output'
p8
(dp9
g4
(lp10
I3
aI196
aI2994
aI116
aI2100
aI24
aI89
aI696
aI7
aI281
aI16
aI25656
aI158
aI3
aI626
aI2333
aI2910
aI7
aI2645
aI8147
aI89
aI14471
aI3728
aI7
aI3
aI10
aI7
aI3
aI52
aI63765
asg6
S"The unemployment rate is included in a number of major economic indexes including the United States' Conference Board's Index of Leading Indicators a macroeconomic measure of the state of the economy ."
p11
ss.