(dp1
S'input'
p2
(dp3
S'encoded'
p4
(lp5
I64
aI2179
aI43
aI63
aI7382
aI116
aI400
aI4713
asS'ori'
p6
S'This house believes that bribery is sometimes acceptable'
p7
ssS'output'
p8
(dp9
g4
(lp10
I42
aI5
aI25
aI6508
aI182
aI153
aI2174
aI24
aI12691
aI4772
aI31919
aI176
aI45
aI9036
aI2411
aI31920
aI34
aI24
aI8675
aI25
aI8765
aI92
aI24
aI6260
aI4031
aI864
aI99
aI45
aI4532
aI63765
asg6
S'He and his relatives are often mentioned in Nigerian 419 letter scams claiming to offer vast fortunes for "help" in laundering his stolen "fortunes"  which in reality turn out not to exist  .'
p11
ss.