(dp1
S'input'
p2
(dp3
S'encoded'
p4
(lp5
I64
aI2179
aI43
aI63
aI820
aI12564
aI182
aI3
aI217
aI1112
aI1869
aI7
aI10656
aI4672
aI34
aI5276
asS'ori'
p6
S'This house believes that open primaries are the most effective method of selecting candidates for elections'
p7
ssS'output'
p8
(dp9
g4
(lp10
I134
aI463
aI316
aI1966
aI63
aI24
aI64
aI33
aI3
aI5433
aI45
aI2490
aI12555
aI73
aI99
aI2909
aI3206
aI3
aI6341
aI6564
aI211
aI47
aI99
aI117
aI14
aI92
aI10484
aI116
aI1796
aI131
aI14
aI755
aI4308
aI116
aI4947
aI63765
asg6
S'It could be argued that in this case the option to vote tactically or not actually helps the electorate express its will  not only on which candidate is better  but on whether compromise is desirable .'
p11
ss.