(dp1
S'input'
p2
(dp3
S'encoded'
p4
(lp5
I64
aI2179
aI43
aI223
aI2138
aI11
aI89
aI21
aI45
aI2185
aI372
asS'ori'
p6
S'This house believes all nations have a right to nuclear weapons'
p7
ssS'output'
p8
(dp9
g4
(lp10
I223
aI3024
aI60
aI12011
aI5201
aI85
aI1191
aI3
aI3970
aI7
aI271
aI5332
aI12627
aI5409
aI88
aI8464
aI12074
aI5
aI12011
aI51
aI27169
aI63765
asg6
S'All leaders with launch capability care about the survival of their subjects (an extremist leader may welcome Armageddon and launch an unprovoked attack) .'
p11
ss.