(dp1
S'input'
p2
(dp3
S'encoded'
p4
(lp5
I64
aI2179
aI394
aI2017
aI628
asS'ori'
p6
S'This house would ban gambling'
p7
ssS'output'
p8
(dp9
g4
(lp10
I9339
aI475
aI22563
aI3290
aI45
aI12613
aI4620
aI9128
aI92
aI116
aI570
aI45
aI9353
aI628
aI4301
aI63765
asg6
S'Insurers use actuarial methods to calculate appropriate premiums  which is similar to calculating gambling odds .'
p11
ss.