(dp1
S'input'
p2
(dp3
S'encoded'
p4
(lp5
I64
aI2179
aI394
aI60
aI23587
asS'ori'
p6
S'This house would re-engage with Myanmar'
p7
ssS'output'
p8
(dp9
g4
(lp10
I2190
aI2935
aI2904
aI11005
aI5047
aI1191
aI16983
aI5
aI3495
aI45
aI316
aI6655
aI382
aI5162
aI75
aI3
aI6073
aI14
aI2871
aI63765
asg6
S'London-based business news agency Reuters reported about 80 monks and 149 women (believed to be Buddhist nuns) were released by the junta on 3 October 2007  .'
p11
ss.