(dp1
S'input'
p2
(dp3
S'encoded'
p4
(lp5
I64
aI2179
aI394
aI9385
aI2497
aI447
aI14
aI3
aI3578
aI5721
aI7
aI260
asS'ori'
p6
S'This house would enforce term limits on the legislative branch of government'
p7
ssS'output'
p8
(dp9
g4
(lp10
I34
aI89
aI379
aI2035
aI7
aI3
aI398
aI8257
aI7
aI1600
aI8196
aI3
aI17006
aI11526
aI22
aI3707
aI23323
aI4193
aI63765
asg6
S'For a detailed study of the 19th century concepts of rotation let the reader consult Political Science Quarterly  vol .'
p11
ss.