(dp1
S'input'
p2
(dp3
S'encoded'
p4
(lp5
I64
aI2179
aI43
aI63
aI6670
aI546
aI417
aI316
aI89
aI1334
aI3108
aI7
aI4849
aI1886
aI2855
asS'ori'
p6
S'This house believes that wind power should be a primary focus of future energy supply'
p7
ssS'output'
p8
(dp9
g4
(lp10
I7456
aI1395
aI2947
aI139
aI671
aI89
aI3060
aI7
aI1886
aI105
aI1495
aI5
aI5152
aI6801
aI5
aI3964
aI2410
aI1636
aI1796
aI6669
aI5
aI1886
aI6417
aI3237
aI270
aI3290
aI7
aI2938
aI7812
aI5
aI2409
aI7812
aI63765
asg6
S'Rapidly advancing technologies can achieve a transition of energy generation  water and waste management  and food production towards better environmental and energy usage practices using methods of systems ecology and industrial ecology  .'
p11
ss.