(dp1
S'input'
p2
(dp3
S'encoded'
p4
(lp5
I64
aI2179
aI43
aI63
aI2203
aI60
aI51
aI997
aI2837
aI21716
aI1636
aI5349
aI417
aI2998
aI8532
aI45
aI3051
aI8578
asS'ori'
p6
S'This house believes that countries with an imbalanced male/female ratio skewed towards males should encourage parents to produce girls'
p7
ssS'output'
p8
(dp9
g4
(lp10
I4708
aI7
aI3
aI1852
aI11389
aI5
aI60
aI4713
aI7986
aI182
aI768
aI606
aI611
aI736
aI3
aI3459
aI63765
asg6
S'Embryos of the desired sex and with acceptable genetics are then placed back into the mother .'
p11
ss.