(dp1
S'input'
p2
(dp3
S'encoded'
p4
(lp5
I64
aI2179
aI394
aI10662
aI626
aI187
aI2157
aI2697
aI19
aI2371
asS'ori'
p6
S'This house would remove United States military bases from Japan'
p7
ssS'output'
p8
(dp9
g4
(lp10
I26437
aI1972
aI15860
aI773
aI6521
aI366
aI3
aI2223
aI63765
asg6
S'Okinawans clearly resented being occupied after the war .'
p11
ss.