(dp1
S'input'
p2
(dp3
S'encoded'
p4
(lp5
I64
aI2179
aI13605
aI2258
aI45
aI2194
asS'ori'
p6
S'This house prefers trade to aid'
p7
ssS'output'
p8
(dp9
g4
(lp10
I3
aI626
aI2138
aI2891
aI6856
aI6763
aI63
aI24
aI3
aI2600
aI7
aI2760
aI2203
aI701
aI115
aI440
aI12104
aI691
aI63765
asg6
S'The United Nations Development Programme sites that in 1996  the economies of 70 developing countries receiving assistance had worsened since 1980 .'
p11
ss.