(dp1
S'input'
p2
(dp3
S'encoded'
p4
(lp5
I64
aI2179
aI394
aI9385
aI2497
aI447
aI14
aI3
aI3578
aI5721
aI7
aI260
asS'ori'
p6
S'This house would enforce term limits on the legislative branch of government'
p7
ssS'output'
p8
(dp9
g4
(lp10
I14
aI2394
aI707
aI10003
aI1147
aI11373
aI743
aI24
aI1561
aI7
aI29641
aI131
aI395
aI1590
aI1020
aI24
aI3879
aI60
aI89
aI2394
aI3355
aI2145
aI63765
asg6
S'On December 16  1997  Judge Magistrate Thomas Coffin ruled in favor of Markham  but later reversed himself in accordance with a December 19  1997  Ninth U .S .'
p11
ss.