(dp1
S'input'
p2
(dp3
S'encoded'
p4
(lp5
I64
aI2179
aI394
aI2773
aI12505
asS'ori'
p6
S'This house would embrace multiculturalism'
p7
ssS'output'
p8
(dp9
g4
(lp10
I3
aI15378
aI7
aI3
aI5165
aI7
aI5307
aI373
aI24
aI2126
aI89
aI2759
aI12027
aI7
aI150
aI9539
aI63765
asg6
S"The absorption of the stream of immigrants became  in itself  a prominent feature of America's national myth ."
p11
ss.