(dp1
S'input'
p2
(dp3
S'encoded'
p4
(lp5
I64
aI2179
aI394
aI2773
aI12505
asS'ori'
p6
S'This house would embrace multiculturalism'
p7
ssS'output'
p8
(dp9
g4
(lp10
I24
aI421
aI45
aI3657
aI2768
aI139
aI174
aI1074
aI2767
aI73
aI3492
aI1485
aI63765
asg6
S'In addition to language  diversity can also include religious or traditional practice .'
p11
ss.