(dp1
S'input'
p2
(dp3
S'encoded'
p4
(lp5
I64
aI2179
aI394
aI5370
aI3
aI5286
asS'ori'
p6
S'This house would abolish the monarchy'
p7
ssS'output'
p8
(dp9
g4
(lp10
I809
aI2217
aI2248
aI5291
aI3483
aI2173
aI63
aI572
aI41
aI357
aI4593
aI3
aI3904
aI145
aI3218
aI536
aI7
aI10
aI116
aI695
aI34
aI2206
aI3701
aI75
aI3
aI4679
aI311
aI5292
aI63765
asg6
S'Former Chief Justice Gerard Brennan stated that "so long as we retain the existing system our head of state is determined for us essentially by the parliament at Westminster .'
p11
ss.