(dp1
S'input'
p2
(dp3
S'encoded'
p4
(lp5
I64
aI2179
aI394
aI5284
aI150
aI3987
asS'ori'
p6
S'This house would reintroduce national service'
p7
ssS'output'
p8
(dp9
g4
(lp10
I64
aI3419
aI122
aI24
aI3871
aI45
aI3
aI2176
aI7
aI720
aI475
aI7
aI987
aI92
aI11
aI1258
aI3
aI2758
aI3938
aI3203
aI7
aI100
aI2157
aI2640
aI63765
asg6
S'This statement was in reference to the Department of Defense use of "stop-loss" orders  which have extended the Active Duty periods of some military personnel .'
p11
ss.