(dp1
S'input'
p2
(dp3
S'encoded'
p4
(lp5
I64
aI2179
aI394
aI1499
aI177
aI1819
aI34
aI160
asS'ori'
p6
S'This house would build high rises for housing'
p7
ssS'output'
p8
(dp9
g4
(lp10
I395
aI11203
aI4443
aI39509
aI7318
aI19
aI260
aI3709
aI24
aI15319
aI89
aI39510
aI1265
aI3
aI11354
aI39529
aI39530
aI63765
asg6
S'Later  privately owned tenements benefited from government help in "stone cleaning"  revealing a honey-coloured sandstone behind the presumed "grey" tenemental facades .'
p11
ss.