(dp1
S'input'
p2
(dp3
S'encoded'
p4
(lp5
I64
aI2179
aI43
aI223
aI2138
aI11
aI89
aI21
aI45
aI2185
aI372
asS'ori'
p6
S'This house believes all nations have a right to nuclear weapons'
p7
ssS'output'
p8
(dp9
g4
(lp10
I298
aI912
aI8507
aI39966
aI2997
aI6021
aI75
aI2164
aI1206
aI2839
aI63765
aI2813
aI11
aI12
aI3110
aI3
aI2145
aI63765
aI1615
aI47
aI316
aI149
aI138
aI89
aI2152
aI7
aI211
aI5933
aI311
aI3
aI312
aI7
aI3
aI2237
aI2223
aI5
aI1932
aI138
aI134
aI55
aI12
aI311
aI351
aI957
aI691
aI3
aI2861
aI4445
aI261
aI751
aI3
aI3400
aI7
aI3
aI11570
aI63765
asg6
S'When current accelerated dismantlement efforts ordered by President George W . Bush have been completed  the U .S . arsenal will be less than a quarter of its size at the end of the Cold War  and smaller than it has been at any point since the Eisenhower administration  well before the drafting of the NPT  .'
p11
ss.