(dp1
S'input'
p2
(dp3
S'encoded'
p4
(lp5
I64
aI2179
aI43
aI63
aI3
aI28431
aI7
aI2157
aI4624
aI75
aI39939
aI27257
aI122
aI4850
asS'ori'
p6
S'This house believes that the leaking of military documents by Anat Kamm was justified'
p7
ssS'output'
p8
(dp9
g4
(lp10
I14
aI2555
aI134
aI373
aI658
aI63
aI51
aI30311
aI9368
aI7
aI5619
aI20766
aI7
aI30312
aI2145
aI63765
aI10
aI2176
aI3229
aI440
aI12
aI119
aI2089
aI30313
aI34
aI3131
aI5
aI63
aI3
aI30314
aI1277
aI45
aI89
aI122
aI119
aI45
aI120
aI81
aI5264
aI53
aI45
aI9503
aI63765
asg6
S"On 1 September 2011  it became public that an encrypted version of WikiLeaks' huge archive of unredacted U .S . State Department cables had been available via Bittorrent for months  and that the decryption key (similar to a password) was available to those who knew where to look ."
p11
ss.