(dp1
S'input'
p2
(dp3
S'encoded'
p4
(lp5
I64
aI2179
aI394
aI1499
aI177
aI1819
aI34
aI160
asS'ori'
p6
S'This house would build high rises for housing'
p7
ssS'output'
p8
(dp9
g4
(lp10
I3
aI2497
aI116
aI416
aI622
aI24
aI3
aI626
aI2549
aI5
aI3
aI2306
aI7
aI4581
aI63765
asg6
S'The term is used primarily in the United Kingdom and the Republic of Ireland .'
p11
ss.