(dp1
S'input'
p2
(dp3
S'encoded'
p4
(lp5
I64
aI2179
aI235
aI3
aI2136
aI7
aI3
aI2306
aI7
aI2390
asS'ori'
p6
S'This house supports the one-child policy of the republic of China'
p7
ssS'output'
p8
(dp9
g4
(lp10
I134
aI88
aI316
aI748
aI34
aI248
aI1948
aI7
aI3
aI16423
aI145
aI45
aI316
aI18676
aI75
aI7275
aI311
aI100
aI957
aI24
aI3
aI4849
aI63765
asg6
S'It may be possible for other parts of the Solar System to be inhabited by humanity at some point in the future .'
p11
ss.