(dp1
S'input'
p2
(dp3
S'encoded'
p4
(lp5
I64
aI2179
aI394
aI16756
aI20435
asS'ori'
p6
S'This house would criminalize blasphemy'
p7
ssS'output'
p8
(dp9
g4
(lp10
I24
aI25484
aI451
aI89
aI9596
aI3234
aI20787
aI7
aI24
aI3
aI448
aI6293
aI63765
asg6
S'In 2005  Yemen introduced a resolution entitled "Combating Defamation of Religions" in the General Assembly (60th Session)  .'
p11
ss.