(dp1
S'input'
p2
(dp3
S'encoded'
p4
(lp5
I64
aI2179
aI43
aI63
aI3
aI4990
aI4991
aI116
aI4850
aI24
aI12166
aI3
aI475
aI7
aI3532
aI3290
aI7
aI4714
asS'ori'
p6
S'This house believes that the Catholic Church is justified in forbidding the use of barrier methods of contraception'
p7
ssS'output'
p8
(dp9
g4
(lp10
I4990
aI17
aI5204
aI3552
aI89
aI3976
aI152
aI3576
aI79
aI5101
aI5
aI569
aI4902
aI7
aI6941
aI63765
asg6
S'Catholic Social Teaching advocates a living wage  proper work hours and fair treatment of workers  .'
p11
ss.