(dp1
S'input'
p2
(dp3
S'encoded'
p4
(lp5
I64
aI2179
aI43
aI8629
aI116
aI3
aI117
aI998
asS'ori'
p6
S'This house believes atheism is the only way'
p7
ssS'output'
p8
(dp9
g4
(lp10
I3
aI26
aI7
aI1028
aI2729
aI267
aI4871
aI116
aI89
aI3274
aI5
aI1198
aI47
aI316
aI24347
aI395
aI34
aI6883
aI97
aI63
aI5480
aI116
aI99
aI557
aI4914
aI45
aI2445
aI12937
aI7
aI4588
aI63765
asg6
S'The Book of Job offers two answers: suffering is a test  and you will be rewarded later for passing it; another that God is not held accountable to human conceptions of morality .'
p11
ss.