(dp1
S'input'
p2
(dp3
S'encoded'
p4
(lp5
I64
aI2179
aI394
aI2773
aI12505
asS'ori'
p6
S'This house would embrace multiculturalism'
p7
ssS'output'
p8
(dp9
g4
(lp10
I233
aI45
aI25789
aI159
aI89
aI2136
aI60
aI211
aI14
aI61
aI116
aI384
aI5
aI14
aI3
aI2446
aI7
aI3
aI667
aI3716
aI958
aI138
aI3
aI5545
aI2471
aI122
aI23392
aI1655
aI1239
aI5
aI2874
aI150
aI15733
asg6
S'According to Blainey  such a policy  with its "emphasis on what is different and on the rights of the new minority rather than the old majority " was unnecessarily creating division and threatened national cohesion'
p11
ss.