(dp1
S'input'
p2
(dp3
S'encoded'
p4
(lp5
I64
aI2179
aI43
aI3
aI626
aI187
aI116
aI1989
aI34
aI3102
aI2223
asS'ori'
p6
S"This house believes the United States is responsible for Mexico's drugs war"
p7
ssS'output'
p8
(dp9
g4
(lp10
I24
aI2932
aI89
aI2564
aI1863
aI34
aI5224
aI5
aI3892
aI6585
aI2098
aI14
aI2394
aI63765
asg6
S'In Colombia  a joint ATF-CNP Center for Anti-Explosives Information and Firearms Tracing (CIARA) opened on December 6  2006  .'
p11
ss.