(dp1
S'input'
p2
(dp3
S'encoded'
p4
(lp5
I64
aI2179
aI394
aI5370
aI7146
aI4585
aI2446
asS'ori'
p6
S'This house would abolish intellectual property rights'
p7
ssS'output'
p8
(dp9
g4
(lp10
I7156
aI382
aI4626
aI252
aI7075
aI691
aI21
aI122
aI513
aI41
aI89
aI35
aI93
aI63765
asg6
S"Patents were granted without examination since inventor's right was considered as a natural one   ."
p11
ss.