(dp1
S'input'
p2
(dp3
S'encoded'
p4
(lp5
I64
aI2179
aI394
aI16756
aI20435
asS'ori'
p6
S'This house would criminalize blasphemy'
p7
ssS'output'
p8
(dp9
g4
(lp10
I3
aI2763
aI2767
aI2132
aI7
aI6124
aI3435
aI89
aI3419
aI63
aI742
aI27898
aI7
aI11095
aI493
aI89
aI2247
aI7
aI89
aI78
aI116
aI419
aI15967
aI5
aI63
aI182
aI12981
aI5
aI11094
aI62848
aI63
aI24
aI6124
aI3
aI897
aI5
aI3
aI2178
aI311
aI1445
aI11
aI243
aI12
aI60741
aI7
aI29960
aI63765
aI63765
aI63765
aI5
aI11
aI2385
aI45
aI3018
aI10250
aI5
aI2767
aI2251
aI967
aI2022
asg6
S'The Islamic Religious Council of Singapore (MUIS) issued a statement that said "the inciting of hatred against a faith of a people is very unfortunate " and that "[they] are fortunate and deeply appreciative that in Singapore  the media and the community at large have always been mindful of sensitivities . . . and have helped to promote racial and religious harmony across society ."'
p11
ss.