(dp1
S'input'
p2
(dp3
S'encoded'
p4
(lp5
I64
aI2179
aI235
aI3
aI2136
aI7
aI3
aI2306
aI7
aI2390
asS'ori'
p6
S'This house supports the one-child policy of the republic of China'
p7
ssS'output'
p8
(dp9
g4
(lp10
I378
aI24
aI1543
aI60
aI3151
aI171
aI7983
aI4672
aI83
aI316
aI3473
aI19
aI89
aI2924
aI63765
asg6
S'However  in keeping with Communist Party philosophy  candidates must be selected from a pre-approved list  .'
p11
ss.