(dp1
S'input'
p2
(dp3
S'encoded'
p4
(lp5
I64
aI2179
aI43
aI24
aI3
aI475
aI7
aI12436
aI3364
asS'ori'
p6
S'This house believes in the use of affirmative action'
p7
ssS'output'
p8
(dp9
g4
(lp10
I2985
aI159
aI41
aI7587
aI44040
aI5
aI240
aI241
aI11
aI3017
aI63
aI10535
aI55
aI2757
aI89
aI4229
aI2210
aI24
aI2145
aI63765
aI2135
aI2136
aI24
aI3
aI2653
aI2087
aI5
aI211
aI4902
aI7
aI3
aI9876
aI63765
asg6
S'Critics such as Gore Vidal and Noam Chomsky have suggested that racism has played a significant role in U .S . foreign policy in the Middle East and its treatment of the Arabs .'
p11
ss.