(dp1
S'input'
p2
(dp3
S'encoded'
p4
(lp5
I64
aI2179
aI394
aI2017
aI262
asS'ori'
p6
S'This house would ban boxing'
p7
ssS'output'
p8
(dp9
g4
(lp10
I988
aI592
aI45
aI3
aI536
aI182
aI1047
aI45
aI1054
aI521
aI1994
aI2009
aI960
aI63765
asg6
S'Repeated blows to the head are known to gradually cause permanent brain damage .'
p11
ss.