(dp1
S'input'
p2
(dp3
S'encoded'
p4
(lp5
I64
aI2179
aI43
aI17
aI4941
aI857
aI3211
asS'ori'
p6
S'This house believes social deprivation causes crime'
p7
ssS'output'
p8
(dp9
g4
(lp10
I24
aI68
aI3
aI17
aI5984
aI7
aI3211
aI88
aI1569
aI75
aI3485
aI5052
aI12909
aI4583
aI5
aI17479
aI63765
asg6
S'In fact  the social differentiation of crime may vary by age  class  ethnicity  gender  and locality .'
p11
ss.