(dp1
S'input'
p2
(dp3
S'encoded'
p4
(lp5
I64
aI2179
aI43
aI63
aI11083
aI10046
aI417
aI316
aI89
aI3135
aI4603
asS'ori'
p6
S'This house believes that Holocaust denial should be a criminal offence'
p7
ssS'output'
p8
(dp9
g4
(lp10
I3
aI707
aI4720
aI42582
aI2036
aI443
aI2534
aI63
aI42
aI3009
aI45
aI1546
aI25
aI3293
aI366
aI3
aI11653
aI3529
aI122
aI3435
aI2439
aI4500
aI24
aI5631
aI63765
aI63765
asg6
S'The judge  Peter Liebtreu  summarized: "He showed no signs that he attempted to change his views after the arrest warrant was issued 16 years ago in Austria . .'
p11
ss.