(dp1
S'input'
p2
(dp3
S'encoded'
p4
(lp5
I64
aI2179
aI43
aI63
aI3
aI21
aI45
aI12715
aI417
aI99
aI316
aI2897
asS'ori'
p6
S'This house believes that the right to asylum should not be absolute'
p7
ssS'output'
p8
(dp9
g4
(lp10
I3
aI419
aI41926
aI5
aI2369
aI3914
aI7
aI3
aI2610
aI3987
aI122
aI572
aI89
aI521
aI34
aI1411
aI34
aI5520
aI22772
aI5
aI3900
aI5354
aI12434
aI81
aI2856
aI311
aI380
aI1727
aI45
aI2187
aI89
aI136
aI5257
aI3905
aI63765
asg6
S'The very separateness and strong identity of the Immigration Service was long a cause for concern for senior IND and Home Office managers who sought at various times to foster a more corporate culture .'
p11
ss.