(dp1
S'input'
p2
(dp3
S'encoded'
p4
(lp5
I64
aI2179
aI394
aI190
aI3
aI21
aI45
aI3895
aI834
asS'ori'
p6
S'This house would limit the right to bear arms'
p7
ssS'output'
p8
(dp9
g4
(lp10
I50307
aI1966
aI63
aI64
aI260
aI440
aI51
aI11902
aI1239
aI7
aI546
aI291
aI2221
aI5
aI3
aI187
aI92
aI1404
aI2157
aI1843
aI41
aI3
aI793
aI202
aI122
aI1016
aI45
aI41
aI1896
aI41
aI1980
aI63765
asg6
S'Federalists argued that this government had an unworkable division of power between Congress and the states  which caused military weakness  as the standing army was reduced to as few as 80 men  .'
p11
ss.