(dp1
S'input'
p2
(dp3
S'encoded'
p4
(lp5
I64
aI2179
aI43
aI17
aI4941
aI857
aI3211
asS'ori'
p6
S'This house believes social deprivation causes crime'
p7
ssS'output'
p8
(dp9
g4
(lp10
I3
aI626
aI2138
aI5354
aI14
aI3102
aI5
aI3211
aI2845
aI63
aI3550
aI3211
aI3136
aI557
aI2155
aI24
aI1186
aI24
aI63765
asg6
S'The United Nations Office on Drugs and Crime estimated that organized crime groups held $322 billion in assets in 2005  .'
p11
ss.