(dp1
S'input'
p2
(dp3
S'encoded'
p4
(lp5
I64
aI2179
aI394
aI1499
aI3
aI8115
aI34564
aI17106
asS'ori'
p6
S'This house would build the Keystone XL pipeline'
p7
ssS'output'
p8
(dp9
g4
(lp10
I3
aI17106
aI116
aI4443
aI75
aI6225
aI2885
aI9247
aI52534
aI5
aI5128
aI19
aI28748
aI57221
aI2298
aI45
aI35377
aI874
aI7537
aI233
aI45
aI51
aI6225
aI2030
aI63765
asg6
S'The pipeline is owned by Enterprise Products Partners LP  and runs from Mont Belvieu  Texas  to Apex  North Carolina  according to an Enterprise spokesman  .'
p11
ss.