(dp1
S'input'
p2
(dp3
S'encoded'
p4
(lp5
I64
aI2179
aI43
aI63
aI2659
aI417
aI1690
aI3
aI12048
aI7
aI19084
asS'ori'
p6
S'This house believes that Israel should lift the blockade of Gaza'
p7
ssS'output'
p8
(dp9
g4
(lp10
I6668
aI382
aI3218
aI2377
aI1596
aI736
aI64
aI17284
aI7
aI19269
aI5
aI7773
aI23701
aI63764
asg6
S'Why were our soldiers thrown into this trap of pipes and ball bearings ?'
p11
ss.