(dp1
S'input'
p2
(dp3
S'encoded'
p4
(lp5
I64
aI2179
aI394
aI5370
aI223
aI4013
aI10440
aI2446
aI4881
aI75
aI14482
aI11004
asS'ori'
p6
S'This house would abolish all collective bargaining rights claimed by trades unions'
p7
ssS'output'
p8
(dp9
g4
(lp10
I53
aI89
aI2131
aI116
aI2758
aI6941
aI81
aI1453
aI99
aI7747
aI45
aI89
aI2131
aI637
aI161
aI19
aI3
aI4013
aI10440
aI3262
aI63765
asg6
S'Where a union is active  workers who do not contribute to a union still benefit from the collective bargaining process .'
p11
ss.