(dp1
S'input'
p2
(dp3
S'encoded'
p4
(lp5
I64
aI2179
aI43
aI63
aI188
aI220
aI417
aI1619
aI4275
aI45
aI713
aI14799
aI7533
aI311
aI3
aI3721
aI5145
asS'ori'
p6
S'This house believes that democratic governments should require voters to present photo identification at the polling station'
p7
ssS'output'
p8
(dp9
g4
(lp10
I99
aI395
aI138
aI425
aI7
aI574
aI3569
aI3
aI63287
aI116
aI534
aI45
aI5744
aI51
aI2097
aI905
aI45
aI2221
aI12475
aI4948
aI3365
aI45
aI18361
aI256
aI158
aI2397
aI73
aI248
aI6751
aI5
aI223
aI5561
aI788
aI75
aI20463
aI63765
asg6
S'Not later than January 31 of each year  the EAC is required to submit an annual report to Congress detailing activities related to HAVA programs including grants or other payments and all votes taken by commissioners .'
p11
ss.