(dp1
S'input'
p2
(dp3
S'encoded'
p4
(lp5
I64
aI2179
aI43
aI63
aI187
aI417
aI99
aI16642
aI3
aI6449
aI7
aI3935
asS'ori'
p6
S'This house believes that states should not subsidize the growing of tobacco'
p7
ssS'output'
p8
(dp9
g4
(lp10
I64
aI985
aI41
aI89
aI296
aI7
aI89
aI3262
aI1047
aI41
aI24
aI92
aI10289
aI5677
aI182
aI1031
aI45
aI7408
aI7500
aI14
aI2135
aI3210
aI311
aI5136
aI63
aI5677
aI1019
aI12304
aI60
aI63765
asg6
S'This occurs as a result of a process known as "international dumping" in which subsidized farmers are able to "dump" low-cost agricultural goods on foreign markets at costs that un-subsidized farmers cannot compete with .'
p11
ss.