(dp1
S'input'
p2
(dp3
S'encoded'
p4
(lp5
I64
aI2179
aI394
aI190
aI3
aI21
aI45
aI3895
aI834
asS'ori'
p6
S'This house would limit the right to bear arms'
p7
ssS'output'
p8
(dp9
g4
(lp10
I1968
aI4539
aI73
aI4538
aI7
aI3892
aI88
aI296
aI24
aI89
aI151
aI1184
aI7
aI2439
aI24
aI7568
aI60
aI3
aI5086
aI773
aI3
aI1012
aI12472
aI63765
asg6
S'Illegal possession or sale of firearms may result in a minimum punishment of 3 years in prison  with the maximum being the death penalty  .'
p11
ss.