(dp1
S'input'
p2
(dp3
S'encoded'
p4
(lp5
I64
aI2179
aI394
aI4325
aI2042
aI270
aI89
aI11605
aI3324
asS'ori'
p6
S'This house would fund education using a voucher scheme'
p7
ssS'output'
p8
(dp9
g4
(lp10
I42
aI3350
aI45
aI565
aI351
aI1341
aI6669
aI2084
aI5
aI4063
aI443
aI4604
aI6669
aI16547
aI248
aI138
aI25
aI10303
aI3
aI78
aI1191
aI3577
aI958
aI138
aI9055
aI5
aI63765
asg6
S'He declined to name any particular environmental heroes and affirmed no special environmental achievements other than his educating the people about free-market solutions rather than "government expenditures and special-interest politics"  .'
p11
ss.