(dp1
S'input'
p2
(dp3
S'encoded'
p4
(lp5
I64
aI2179
aI394
aI16756
aI20435
asS'ori'
p6
S'This house would criminalize blasphemy'
p7
ssS'output'
p8
(dp9
g4
(lp10
I131
aI273
aI116
aI99
aI351
aI2514
aI45
aI10126
aI73
aI45
aI316
aI29929
aI19671
aI63765
asg6
S'But there is not any obligation to insult or to be gratuitously inflammatory .'
p11
ss.