(dp1
S'input'
p2
(dp3
S'encoded'
p4
(lp5
I64
aI2179
aI43
aI63
aI3376
aI4938
aI417
aI316
aI3537
asS'ori'
p6
S'This house believes that endangered species should be protected'
p7
ssS'output'
p8
(dp9
g4
(lp10
I7141
aI6795
aI182
aI324
aI1185
aI1381
aI5289
aI33785
aI139
aI3226
aI7797
aI852
aI41
aI261
aI41
aI5986
aI3
aI2511
aI7
aI3
aI5269
aI5
aI187
aI19
aI92
aI3
aI2635
aI182
aI788
aI63765
asg6
S'Marine ecosystems are particularly important  although inappropriate bioprospecting can increase biodiversity loss  as well as violating the laws of the communities and states from which the resources are taken  .'
p11
ss.