(dp1
S'input'
p2
(dp3
S'encoded'
p4
(lp5
I64
aI2179
aI43
aI8629
aI116
aI3
aI117
aI998
asS'ori'
p6
S'This house believes atheism is the only way'
p7
ssS'output'
p8
(dp9
g4
(lp10
I8301
aI7328
aI588
aI25
aI143
aI5
aI187
aI14738
aI3947
aI3
aI6985
aI7
aI89
aI4537
aI45
aI650
aI4537
aI116
aI89
aI3166
aI93
aI604
aI3
aI8368
aI5058
aI840
aI8375
aI3
aI2597
aI3661
aI7
aI81
aI3075
aI3
aI8368
aI63765
aI3
aI3730
aI3661
aI357
aI2951
aI864
aI60
aI122
aI3
aI3661
aI7
aI8529
aI5023
aI18429
aI63765
aI134
aI116
aI3451
aI443
aI213
aI45
aI21923
aI4722
aI113
aI136
aI8354
asg6
S'Dawkins sums up his argument and states  "The temptation [to attribute the appearance of a design to actual design itself] is a false one  because the designer hypothesis immediately raises the larger problem of who designed the designer . The whole problem we started out with was the problem of explaining statistical improbability . It is obviously no solution to postulate something even more improbable ."'
p11
ss.