(dp1
S'input'
p2
(dp3
S'encoded'
p4
(lp5
I64
aI2179
aI394
aI117
aI7428
aI21151
aI34
aI11389
aI2042
aI24
aI4364
asS'ori'
p6
S'This house would only teach abstinence for sex education in schools'
p7
ssS'output'
p8
(dp9
g4
(lp10
I24
aI25
aI12521
aI3234
aI3707
aI39664
aI3
aI7031
aI2755
aI7
aI50957
aI42
aI63765
asg6
S'In his essay entitled Science discovers the physiological value of continence  (1957) he states:  .'
p11
ss.