(dp1
S'input'
p2
(dp3
S'encoded'
p4
(lp5
I64
aI2179
aI394
aI16756
aI20435
asS'ori'
p6
S'This house would criminalize blasphemy'
p7
ssS'output'
p8
(dp9
g4
(lp10
I2661
aI55
aI12
aI51
aI2758
aI2735
aI7
aI3
aI4276
aI75
aI3
aI7210
aI7
aI3
aI2763
aI2333
aI45
aI836
aI2148
aI2511
aI493
aI20435
aI63765
asg6
S'Pakistan has been an active supporter of the campaign by the Organisation of the Islamic Conference to create global laws against blasphemy  .'
p11
ss.