(dp1
S'input'
p2
(dp3
S'encoded'
p4
(lp5
I64
aI2179
aI394
aI60
aI23587
asS'ori'
p6
S'This house would re-engage with Myanmar'
p7
ssS'output'
p8
(dp9
g4
(lp10
I3406
aI380
aI4758
aI10179
aI11294
aI4331
aI24
aI8326
aI60
aI30001
aI63765
asg6
S'Additionally  various college campuses ran campaigns in solidarity with anti-government protestors .'
p11
ss.