(dp1
S'input'
p2
(dp3
S'encoded'
p4
(lp5
I64
aI2179
aI394
aI5284
aI150
aI3987
asS'ori'
p6
S'This house would reintroduce national service'
p7
ssS'output'
p8
(dp9
g4
(lp10
I24
aI3
aI1565
aI759
aI7
aI3140
aI3557
aI5856
aI55
aI12
aI890
aI5001
aI691
aI88
aI63765
asg6
S'In the European part of Netherlands  compulsory attendance has been officially suspended since 1 May 1997 .'
p11
ss.