(dp1
S'input'
p2
(dp3
S'encoded'
p4
(lp5
I64
aI2179
aI43
aI223
aI2138
aI11
aI89
aI21
aI45
aI2185
aI372
asS'ori'
p6
S'This house believes all nations have a right to nuclear weapons'
p7
ssS'output'
p8
(dp9
g4
(lp10
I3
aI626
aI2549
aI500
aI3274
aI89
aI13276
aI2418
aI4461
aI89
aI1488
aI532
aI7
aI28523
aI41
aI51
aI11742
aI59702
aI59703
aI311
aI271
aI59704
aI8351
aI3328
aI24
aI12095
aI1051
aI1005
aI14
aI2555
aI63765
asg6
S'The United Kingdom did test a 1 kiloton bomb incorporating a small amount of cobalt as an experimental radiochemical tracer at their Tadje testing site in Maralinga range  Australia on September 14  1957 .'
p11
ss.