(dp1
S'input'
p2
(dp3
S'encoded'
p4
(lp5
I64
aI2179
aI43
aI63
aI3
aI21
aI45
aI12715
aI417
aI99
aI316
aI2897
asS'ori'
p6
S'This house believes that the right to asylum should not be absolute'
p7
ssS'output'
p8
(dp9
g4
(lp10
I691
aI3
aI2838
aI7
aI6025
aI24
aI6703
aI5
aI5938
aI494
aI3994
aI11
aI4595
aI166
aI2042
aI63765
asg6
S'Since the decline of middle-class blue-collar jobs in manufacturing and industry  younger native-born generations have acquired higher education .'
p11
ss.