(dp1
S'input'
p2
(dp3
S'encoded'
p4
(lp5
I64
aI2179
aI43
aI3
aI626
aI187
aI116
aI1989
aI34
aI3102
aI2223
asS'ori'
p6
S"This house believes the United States is responsible for Mexico's drugs war"
p7
ssS'output'
p8
(dp9
g4
(lp10
I51
aI3068
aI7
aI3892
aI8174
aI3073
aI75
aI3
aI3933
aI7
aI3934
aI3935
aI3892
aI5
aI8766
aI289
aI3
aI1257
aI292
aI2439
aI2981
aI63
aI372
aI182
aI773
aI3958
aI45
aI4421
aI24
aI1825
aI1928
aI10
aI41
aI938
aI874
aI41
aI3572
aI10
aI5
aI63
aI2298
aI2301
aI5
aI2300
aI182
aI3
aI292
aI217
aI8767
aI2878
aI187
aI3839
aI34
aI3892
aI2494
aI4272
aI8768
aI45
aI2299
aI63765
asg6
S'An analysis of firearms trace data by the Bureau of Alcohol  Tobacco  Firearms and Explosives (ATF) over the past three years shows that weapons are being traced to dealers in virtually every state  as far north as Washington state  and that Texas  Arizona and California are the three most prolific source states  respectively  for firearms subsequently illegally trafficked to Mexico  .'
p11
ss.