(dp1
S'input'
p2
(dp3
S'encoded'
p4
(lp5
I64
aI2179
aI394
aI117
aI7428
aI21151
aI34
aI11389
aI2042
aI24
aI4364
asS'ori'
p6
S'This house would only teach abstinence for sex education in schools'
p7
ssS'output'
p8
(dp9
g4
(lp10
I652
aI1811
aI55
aI2118
aI45
aI3420
aI89
aI7983
aI24
aI92
aI3101
aI13160
aI475
aI116
aI344
aI41
aI4024
aI46929
aI5
aI2601
aI41
aI89
aI16306
aI5
aI4713
aI7996
aI41
aI572
aI41
aI475
aI116
aI99
aI63765
asg6
S"Harm reduction has come to represent a philosophy in which illicit substance use is seen as largely unpreventable  and increasingly  as a feasible and acceptable lifestyle as long as use is not 'problematic' ."
p11
ss.