(dp1
S'input'
p2
(dp3
S'encoded'
p4
(lp5
I64
aI2179
aI43
aI63
aI2157
aI2565
aI493
aI19084
aI382
aI4850
asS'ori'
p6
S"This house believes that Israel's 2008-2009 military operations against Gaza were justified"
p7
ssS'output'
p8
(dp9
g4
(lp10
I233
aI45
aI3
aI10619
aI16619
aI3293
aI3
aI1687
aI41
aI3266
aI604
aI134
aI5392
aI3
aI3730
aI7
aI6000
aI8452
aI10059
aI60
aI2659
aI3
aI3912
aI2895
aI3
aI19084
aI966
aI5
aI41
aI2763
aI1413
aI5
aI508
aI7515
aI3
aI10
aI7
aI2659
aI41
aI51
aI20405
aI63765
asg6
S'According to the BBC  Hamas views the attacks as legitimate because it regards the whole of historic Palestine (roughly coterminous with Israel  the West Bank  the Gaza Strip and Jordan) as Islamic land  and thus sees the state of Israel as an occupier .'
p11
ss.