(dp1
S'input'
p2
(dp3
S'encoded'
p4
(lp5
I64
aI2179
aI394
aI4261
aI8667
aI3
aI9361
aI5
aI17069
asS'ori'
p6
S'This house would prohibit burning the stars and stripes'
p7
ssS'output'
p8
(dp9
g4
(lp10
I840
aI366
aI3
aI8667
aI2789
aI7
aI3
aI10874
aI2586
aI1889
aI5
aI25
aI15408
aI63765
asg6
S"Immediately after the burning  members of the crowd began attacking O'Brien and his companions ."
p11
ss.