(dp1
S'input'
p2
(dp3
S'encoded'
p4
(lp5
I64
aI2179
aI394
aI2773
aI12505
asS'ori'
p6
S'This house would embrace multiculturalism'
p7
ssS'output'
p8
(dp9
g4
(lp10
I10070
aI6619
aI11
aI3
aI21
aI45
aI687
aI5
aI708
aI271
aI5207
aI2938
aI5
aI2825
aI193
aI2042
aI24
aI271
aI284
aI7423
aI24
aI89
aI2690
aI4620
aI45
aI271
aI2637
aI3290
aI7
aI5204
aI5
aI5205
aI63765
asg6
S'Indigenous peoples have the right to establish and control their educational systems and institutions providing education in their own languages  in a manner appropriate to their cultural methods of teaching and learning .'
p11
ss.