(dp1
S'input'
p2
(dp3
S'encoded'
p4
(lp5
I64
aI2179
aI394
aI475
aI2135
aI2194
aI6198
aI45
aI2041
aI5
aI13926
aI8732
aI63
aI1735
aI12708
aI5
aI5599
aI24
aI2203
aI45
aI1397
aI7149
aI5
aI12311
aI271
aI5119
aI4948
asS'ori'
p6
S'This house would use foreign aid funds to research and distribute software that allows bloggers and journalists in non-democratic countries to evade censorship and conceal their online activities'
p7
ssS'output'
p8
(dp9
g4
(lp10
I384
aI8008
aI5
aI2635
aI182
aI416
aI45
aI24972
aI7147
aI7149
aI158
aI2432
aI12749
aI11934
aI3249
aI7276
aI60829
aI5
aI19296
aI8732
aI1761
aI63765
asg6
S'Different techniques and resources are used to bypass Internet censorship  including proxy websites  virtual private networks  sneakernets  and circumvention software tools .'
p11
ss.