(dp1
S'input'
p2
(dp3
S'encoded'
p4
(lp5
I64
aI2179
aI43
aI63
aI3
aI4538
aI7
aI4434
aI7793
aI283
aI45
aI3586
aI417
aI316
aI577
asS'ori'
p6
S'This house believes that the sale of violent video games to minors should be banned'
p7
ssS'output'
p8
(dp9
g4
(lp10
I34
aI6396
aI3194
aI55
aI743
aI864
aI89
aI1362
aI291
aI7793
aI319
aI2617
aI5
aI2034
aI1243
aI4809
aI1544
aI132
aI1051
aI19
aI120
aI92
aI186
aI493
aI3580
aI4658
aI45
aI120
aI92
aI154
aI1622
aI4658
aI63765
asg6
S'For instance  Ferguson (2010) has ruled out a relationship between video game violence and serious aggression  concluding "Taken together these meta-analyses range from those which argue against meaningful effects to those which find weak effects .'
p11
ss.