(dp1
S'input'
p2
(dp3
S'encoded'
p4
(lp5
I64
aI2179
aI394
aI2773
aI12505
asS'ori'
p6
S'This house would embrace multiculturalism'
p7
ssS'output'
p8
(dp9
g4
(lp10
I3
aI4233
aI34
aI3
aI2266
aI7
aI116
aI3
aI5489
aI7
aI3
aI1334
aI5277
aI1597
aI7
aI3
aI51803
aI81
aI116
aI45
aI6424
aI41
aI22
aI49469
aI5
aI48
aI2030
aI5
aI45
aI11526
aI2818
aI60
aI3
aI626
aI2138
aI2159
aI448
aI63765
asg6
S'The "High Representative for the Alliance of Civilizations" is the title of the primary leadership position of the AoC  who is to function as political facilitator and lead spokesman  and to consult directly with the United Nations Secretary General .'
p11
ss.