(dp1
S'input'
p2
(dp3
S'encoded'
p4
(lp5
I64
aI2179
aI43
aI63
aI11083
aI10046
aI417
aI316
aI89
aI3135
aI4603
asS'ori'
p6
S'This house believes that Holocaust denial should be a criminal offence'
p7
ssS'output'
p8
(dp9
g4
(lp10
I29878
aI21301
aI11
aI980
aI12
aI493
aI159
aI89
aI2474
aI176
aI63
aI3
aI70
aI521
aI3022
aI5
aI113
aI233
aI45
aI52612
aI2544
aI44611
aI52613
aI63765
asg6
S'Bosnian Serb MP\'s have repeatedly been against such a legislation claiming that the law "would cause disagreement and even animosity" according to SNSD member Lazar Prodanovic  .'
p11
ss.