(dp1
S'input'
p2
(dp3
S'encoded'
p4
(lp5
I64
aI2179
aI43
aI63
aI2157
aI2565
aI493
aI19084
aI382
aI4850
asS'ori'
p6
S"This house believes that Israel's 2008-2009 military operations against Gaza were justified"
p7
ssS'output'
p8
(dp9
g4
(lp10
I233
aI45
aI6056
aI2445
aI2446
aI94
aI19088
aI2142
aI63
aI4477
aI19357
aI11994
aI9744
aI2222
aI63
aI155
aI3548
aI45
aI1767
aI887
aI248
aI3811
aI6056
aI3180
aI63765
asg6
S"According to Israeli human rights group B'Tselem Palestinian organizations that fire Qassam rockets openly declare that they intend to strike  among other targets  Israeli civilians ."
p11
ss.