(dp1
S'input'
p2
(dp3
S'encoded'
p4
(lp5
I64
aI2179
aI394
aI10662
aI626
aI187
aI2157
aI2697
aI19
aI2371
asS'ori'
p6
S'This house would remove United States military bases from Japan'
p7
ssS'output'
p8
(dp9
g4
(lp10
I3
aI4148
aI7
aI11542
aI122
aI93
aI7
aI3
aI1447
aI281
aI4127
aI7
aI285
aI2223
aI2236
aI176
aI3
aI4830
aI7
aI51
aI2845
aI1357
aI63765
asg6
S'The Battle of Okinawa was one of the last major battles of World War II  claiming the lives of an estimated 120 000 combatants .'
p11
ss.