(dp1
S'input'
p2
(dp3
S'encoded'
p4
(lp5
I64
aI2179
aI43
aI24
aI3
aI475
aI7
aI12436
aI3364
asS'ori'
p6
S'This house believes in the use of affirmative action'
p7
ssS'output'
p8
(dp9
g4
(lp10
I24
aI3495
aI9445
aI34
aI7
aI223
aI6941
aI24
aI3
aI6801
aI276
aI5
aI3365
aI5922
aI63765
asg6
S'In 2008  women accounted for 51% of all workers in the high-paying management  professional  and related occupations .'
p11
ss.