(dp1
S'input'
p2
(dp3
S'encoded'
p4
(lp5
I64
aI2179
aI394
aI163
aI959
aI2042
aI3557
asS'ori'
p6
S'This house would make physical education compulsory'
p7
ssS'output'
p8
(dp9
g4
(lp10
I8905
aI5982
aI55
aI12
aI566
aI60
aI89
aI1472
aI4697
aI7
aI1740
aI19503
aI11272
aI20270
aI131
aI2992
aI7
aI9202
aI13439
aI353
aI63
aI271
aI1900
aI5982
aI122
aI566
aI60
aI51
aI2322
aI2038
aI7
aI7446
aI9933
aI63765
asg6
S'Moderate exercise has been associated with a 29% decreased incidence of upper respiratory tract infections (URTI)  but studies of marathon runners found that their prolonged high-intensity exercise was associated with an increased risk of infection occurrence .'
p11
ss.