(dp1
S'input'
p2
(dp3
S'encoded'
p4
(lp5
I64
aI2179
aI13605
aI2258
aI45
aI2194
asS'ori'
p6
S'This house prefers trade to aid'
p7
ssS'output'
p8
(dp9
g4
(lp10
I134
aI116
aI5722
aI19
aI2893
aI2194
aI41
aI773
aI1653
aI311
aI9587
aI130
aI24
aI3
aI572
aI2497
aI958
aI138
aI9587
aI4871
aI24
aI3
aI1235
aI2497
aI63765
asg6
S'It is distinguished from humanitarian aid as being aimed at alleviating poverty in the long term  rather than alleviating suffering in the short term .'
p11
ss.