(dp1
S'input'
p2
(dp3
S'encoded'
p4
(lp5
I64
aI2179
aI43
aI63
aI3
aI21
aI45
aI12715
aI417
aI99
aI316
aI2897
asS'ori'
p6
S'This house believes that the right to asylum should not be absolute'
p7
ssS'output'
p8
(dp9
g4
(lp10
I155
aI394
aI1996
aI271
aI9827
aI45
aI3
aI4991
aI5
aI351
aI916
aI4585
aI45
aI3
aI5305
aI63765
asg6
S'They would surrender their possessions to the church  and any landed property to the crown .'
p11
ss.