(dp1
S'input'
p2
(dp3
S'encoded'
p4
(lp5
I64
aI2179
aI43
aI63
aI1036
aI4828
aI33250
aI116
aI25073
aI45
aI3315
aI4562
asS'ori'
p6
S'This house believes that male infant circumcision is tantamount to child abuse'
p7
ssS'output'
p8
(dp9
g4
(lp10
I1036
aI33250
aI55
aI153
aI12
aI5
aI937
aI3
aI2195
aI7
aI4573
aI14
aI89
aI696
aI7
aI2767
aI4707
aI8803
aI5
aI3217
aI63765
asg6
S'Male circumcision has often been  and remains  the subject of controversy on a number of grounds&mdash;including religious  ethical  sexual  and health .'
p11
ss.