(dp1
S'input'
p2
(dp3
S'encoded'
p4
(lp5
I64
aI2179
aI43
aI63
aI187
aI417
aI99
aI16642
aI3
aI6449
aI7
aI3935
asS'ori'
p6
S'This house believes that states should not subsidize the growing of tobacco'
p7
ssS'output'
p8
(dp9
g4
(lp10
I3
aI3935
aI5938
aI17979
aI120
aI4224
aI5
aI6228
aI8790
aI24
aI3
aI2234
aI953
aI34
aI4538
aI3111
aI8303
aI5
aI5200
aI7
aI3935
aI5
aI2885
aI63765
asg6
S'The tobacco industry comprises those persons and companies engaged in the growth  preparation for sale  shipment  advertisement  and distribution of tobacco and tobacco-related products .'
p11
ss.