(dp1
S'input'
p2
(dp3
S'encoded'
p4
(lp5
I64
aI2179
aI394
aI190
aI3
aI21
aI45
aI3895
aI834
asS'ori'
p6
S'This house would limit the right to bear arms'
p7
ssS'output'
p8
(dp9
g4
(lp10
I24
aI3
aI4283
aI71
aI8737
aI7
aI3
aI2503
aI648
aI372
aI2017
aI7
aI92
aI577
aI725
aI4815
aI7
aI77
aI17239
aI4437
aI5
aI77
aI1486
aI7
aI41902
aI3956
aI2611
aI708
aI3552
aI3478
aI45
aI163
aI3
aI2017
aI1994
aI5
aI3209
aI134
aI63765
asg6
S'In 2004 the NRA opposed renewal of the Federal Assault Weapons Ban of 1994  which banned many features of certain semiautomatic rifles and certain types of removable magazines - gun control advocates wanted to make the ban permanent and expand it .'
p11
ss.