(dp1
S'input'
p2
(dp3
S'encoded'
p4
(lp5
I64
aI2179
aI394
aI190
aI3
aI21
aI45
aI3895
aI834
asS'ori'
p6
S'This house would limit the right to bear arms'
p7
ssS'output'
p8
(dp9
g4
(lp10
I24
aI1849
aI45
aI3
aI251
aI4230
aI4218
aI2037
aI24
aI3
aI4232
aI187
aI3
aI3263
aI3264
aI122
aI555
aI63765
asg6
S'In response to the problems freed slaves faced in the Southern states  the Fourteenth Amendment was drafted .'
p11
ss.