(dp1
S'input'
p2
(dp3
S'encoded'
p4
(lp5
I64
aI2179
aI394
aI1499
aI3
aI8115
aI34564
aI17106
asS'ori'
p6
S'This house would build the Keystone XL pipeline'
p7
ssS'output'
p8
(dp9
g4
(lp10
I697
aI35
aI19268
aI2844
aI182
aI2845
aI311
aI940
aI7
aI92
aI73
aI182
aI24
aI2547
aI63765
asg6
S'Total natural bitumen reserves are estimated at globally  of which   or 70 .8%  are in Canada  .'
p11
ss.