(dp1
S'input'
p2
(dp3
S'encoded'
p4
(lp5
I64
aI2179
aI394
aI2017
aI262
asS'ori'
p6
S'This house would ban boxing'
p7
ssS'output'
p8
(dp9
g4
(lp10
I139
aI316
aI513
aI45
aI168
aI89
aI10
aI24
aI92
aI2009
aI6424
aI116
aI6972
aI26980
aI5
aI45
aI168
aI89
aI41227
aI10
aI131
aI24
aI1485
aI1896
aI4741
aI5
aI25337
aI1670
aI291
aI3
aI1809
aI63765
asg6
S'"Concussion" can be considered to imply a state in which brain function is temporarily impaired and "MTBI" to imply a pathophysiological state  but in practice few researchers and clinicians distinguish between the terms  .'
p11
ss.