(dp1
S'input'
p2
(dp3
S'encoded'
p4
(lp5
I64
aI2179
aI43
aI8629
aI116
aI3
aI117
aI998
asS'ori'
p6
S'This house believes atheism is the only way'
p7
ssS'output'
p8
(dp9
g4
(lp10
I273
aI182
aI3384
aI378
aI63
aI132
aI1589
aI88
aI316
aI41
aI165
aI13890
aI7
aI3950
aI17
aI3293
aI41
aI7
aI61
aI55
aI12
aI263
aI3863
aI10535
aI63765
asg6
S'There are arguments  however  that these positions may be as much reflections of contemporary social views as of what has been called scientific racism  .'
p11
ss.