(dp1
S'input'
p2
(dp3
S'encoded'
p4
(lp5
I64
aI2179
aI394
aI5370
aI3
aI5286
asS'ori'
p6
S'This house would abolish the monarchy'
p7
ssS'output'
p8
(dp9
g4
(lp10
I42
aI634
aI45
aI26143
aI6726
aI3609
aI5
aI298
aI42
aI2013
aI24
aI42
aI122
aI2347
aI75
aI25
aI9880
aI31746
aI2233
aI107
aI7
aI89
aI32123
aI41
aI440
aI12
aI8895
aI63765
asg6
S'He continued to ruthlessly eliminate opposition  and when he died in 1034 he was succeeded by his grandson  Duncan I  instead of a cousin  as had been usual .'
p11
ss.