(dp1
S'input'
p2
(dp3
S'encoded'
p4
(lp5
I64
aI2179
aI13605
aI2258
aI45
aI2194
asS'ori'
p6
S'This house prefers trade to aid'
p7
ssS'output'
p8
(dp9
g4
(lp10
I251
aI566
aI60
aI16
aI17921
aI182
aI246
aI99
aI13395
aI736
aI3
aI9096
aI7
aI1260
aI4658
aI63765
asg6
S"Problems associated with economic adaptation are generally not factored into the calculation of free trades' effects ."
p11
ss.