(dp1
S'input'
p2
(dp3
S'encoded'
p4
(lp5
I64
aI2179
aI43
aI63
aI2157
aI2565
aI493
aI19084
aI382
aI4850
asS'ori'
p6
S"This house believes that Israel's 2008-2009 military operations against Gaza were justified"
p7
ssS'output'
p8
(dp9
g4
(lp10
I27122
aI31106
aI536
aI7
aI3
aI6056
aI31107
aI909
aI2702
aI3987
aI5898
aI24
aI19123
aI60
aI2164
aI5753
aI10608
aI5
aI7166
aI1063
aI63
aI257
aI10608
aI2967
aI45
aI9012
aI45
aI16563
aI3
aI2800
aI2490
aI14
aI3
aI19389
aI905
aI768
aI2659
aI47
aI4031
aI3
aI3912
aI2895
aI736
aI89
aI3
aI31107
aI909
aI2217
aI4001
aI10608
aI63
aI257
aI42
aI500
aI99
aI9012
aI34
aI89
aI53766
aI7
aI3
aI2490
aI2659
aI394
aI3549
aI14195
aI34
aI1109
aI7467
aI3098
aI53767
aI45
aI1233
aI24
aI3
aI19088
aI254
aI5
aI2874
aI45
aI17276
aI3
aI8949
aI7
aI2051
aI14
aI910
aI545
aI3
aI3912
aI2895
aI63
aI440
aI12
aI4544
aI2388
aI24
aI63765
asg6
S'Yuval Diskin  head of the Israeli Shin Bet security service  met in Ramallah with President Mahmud Abbas and informed him that if Abbas refuses to ask to postpone the UN vote on the Goldstone report then Israel will turn the West Bank into a "second Gaza": the Shin Bet chief told Abbas that if he did not ask for a deferral of the vote  Israel would withdraw permission for mobile phone company Wataniya to operate in the Palestinian Authority and threatened to revoke the easing of restrictions on movement within the West Bank that had been implemented earlier in 2009  .'
p11
ss.