(dp1
S'input'
p2
(dp3
S'encoded'
p4
(lp5
I64
aI2179
aI43
aI63
aI2659
aI417
aI1690
aI3
aI12048
aI7
aI19084
asS'ori'
p6
S'This house believes that Israel should lift the blockade of Gaza'
p7
ssS'output'
p8
(dp9
g4
(lp10
I366
aI3
aI19415
aI16619
aI910
aI5768
aI546
aI24
aI19084
aI2659
aI5
aI2657
aI30205
aI271
aI9561
aI7
aI2288
aI63765
asg6
S"After the Islamist Hamas movement seized power in Gaza  Israel and Egypt tightened their closure of Gaza's borders  ."
p11
ss.