(dp1
S'input'
p2
(dp3
S'encoded'
p4
(lp5
I64
aI2179
aI394
aI190
aI3
aI21
aI45
aI3895
aI834
asS'ori'
p6
S'This house would limit the right to bear arms'
p7
ssS'output'
p8
(dp9
g4
(lp10
I4192
aI4581
aI55
aI89
aI419
aI177
aI2994
aI7
aI2611
aI3930
aI93
aI7
aI3
aI2810
aI24
aI3
aI285
aI63765
asg6
S'Northern Ireland has a very high rate of gun ownership  one of the highest in the world .'
p11
ss.