(dp1
S'input'
p2
(dp3
S'encoded'
p4
(lp5
I64
aI2179
aI394
aI5370
aI3
aI5286
asS'ori'
p6
S'This house would abolish the monarchy'
p7
ssS'output'
p8
(dp9
g4
(lp10
I4702
aI7
aI5285
aI24
aI3
aI3409
aI171
aI211
aI809
aI5409
aI5
aI809
aI5409
aI7
aI3
aI926
aI4408
aI910
aI5410
aI5411
aI5412
aI4213
aI1094
aI5413
aI5
aI4720
aI5414
aI63765
asg6
S'Proponents of republicanism in the Liberal Party include: its former leader and former leader of the Australian Republican Movement Malcolm Turnbull  Julie Bishop  Joe Hockey and Peter Costello .'
p11
ss.