(dp1
S'input'
p2
(dp3
S'encoded'
p4
(lp5
I64
aI2179
aI394
aI5370
aI7146
aI4585
aI2446
asS'ori'
p6
S'This house would abolish intellectual property rights'
p7
ssS'output'
p8
(dp9
g4
(lp10
I3
aI237
aI116
aI4539
aI92
aI139
aI316
aI1038
aI41
aI708
aI289
aI89
aI7801
aI717
aI14
aI3
aI6733
aI5374
aI7
aI97
aI45
aI8397
aI3
aI1667
aI7
aI3
aI52224
aI63765
asg6
S'The first is possession  which can be defined as control over a resource based on the practical inability of another to contradict the ends of the possessor .'
p11
ss.