(dp1
S'input'
p2
(dp3
S'encoded'
p4
(lp5
I64
aI2179
aI43
aI223
aI2138
aI11
aI89
aI21
aI45
aI2185
aI372
asS'ori'
p6
S'This house believes all nations have a right to nuclear weapons'
p7
ssS'output'
p8
(dp9
g4
(lp10
I3
aI1334
aI3393
aI7
aI64
aI2860
aI2951
aI397
aI3
aI2237
aI2223
aI45
aI24
aI92
aI12008
aI122
aI344
aI41
aI7277
aI45
aI881
aI351
aI839
aI6006
aI291
aI3
aI626
aI187
aI5
aI3
aI943
aI2131
aI226
aI155
aI8790
aI24
aI1932
aI2432
aI2285
aI589
aI3
aI285
aI63765
asg6
S'The primary application of this doctrine started during the Cold War (1940s to 1990s) in which MAD was seen as helping to prevent any direct full-scale conflicts between the United States and the Soviet Union while they engaged in smaller proxy wars around the world .'
p11
ss.