(dp1
S'input'
p2
(dp3
S'encoded'
p4
(lp5
I64
aI2179
aI43
aI8629
aI116
aI3
aI117
aI998
asS'ori'
p6
S'This house believes atheism is the only way'
p7
ssS'output'
p8
(dp9
g4
(lp10
I51
aI56806
aI116
aI1038
aI75
aI3
aI8611
aI28
aI4735
aI41
aI71
aI45
aI1361
aI24
aI3
aI3524
aI7
aI89
aI5480
asg6
S'An antitheist is defined by the Oxford English Dictionary as "One opposed to belief in the existence of a god ."'
p11
ss.