(dp1
S'input'
p2
(dp3
S'encoded'
p4
(lp5
I64
aI2179
aI43
aI63
aI11083
aI10046
aI417
aI316
aI89
aI3135
aI4603
asS'ori'
p6
S'This house believes that Holocaust denial should be a criminal offence'
p7
ssS'output'
p8
(dp9
g4
(lp10
I311
aI3
aI2555
aI20362
aI1379
aI6525
aI24
aI33542
aI29801
aI2173
aI2659
aI122
aI123
aI14
aI10177
aI5
aI89
aI8634
aI103
aI63
aI3
aI368
aI2280
aI3
aI9539
aI7
aI3
aI11083
aI63765
asg6
S'At the September 2009 Quds Day ceremonies in Tehran  Ahmadinejad stated Israel was created on "a lie and a mythical claim " that the Western powers "launched the myth of the Holocaust .'
p11
ss.