(dp1
S'input'
p2
(dp3
S'encoded'
p4
(lp5
I64
aI2179
aI394
aI2773
aI12505
asS'ori'
p6
S'This house would embrace multiculturalism'
p7
ssS'output'
p8
(dp9
g4
(lp10
I3
aI2023
aI12505
aI2784
aI2559
aI3
aI2136
aI7
aI3
aI260
aI45
aI975
aI63
aI1928
aI2023
aI1762
aI5125
aI4902
aI75
aI3
aI260
aI92
aI2766
aI5
aI40601
aI2768
aI63765
asg6
S'The 1988 Canadian Multiculturalism Act affirms the policy of the government to ensure that every Canadian receives equal treatment by the government which respects and celebrates diversity  .'
p11
ss.