(dp1
S'input'
p2
(dp3
S'encoded'
p4
(lp5
I64
aI2179
aI43
aI63
aI3
aI21
aI45
aI12715
aI417
aI99
aI316
aI2897
asS'ori'
p6
S'This house believes that the right to asylum should not be absolute'
p7
ssS'output'
p8
(dp9
g4
(lp10
I3
aI2802
aI7
aI61
aI45
aI1453
aI60
aI120
aI7165
aI1968
aI9107
aI122
aI4669
aI131
aI344
aI41
aI89
aI324
aI5507
aI2489
aI63765
asg6
S'The question of what to do with those facilitating illegal entry was addressed but seen as a particularly theoretical clause .'
p11
ss.