(dp1
S'input'
p2
(dp3
S'encoded'
p4
(lp5
I64
aI2179
aI43
aI63
aI134
aI116
aI400
aI21
aI34
aI3
aI260
aI45
aI3439
aI57
aI7
aI2381
asS'ori'
p6
S'This house believes that it is sometimes right for the government to restrict freedom of speech'
p7
ssS'output'
p8
(dp9
g4
(lp10
I3
aI2173
aI3014
aI7
aI1260
aI2381
aI4361
aI116
aI45
aI9792
aI454
aI3
aI934
aI7
aI120
aI8491
aI3
aI22
aI10900
aI73
aI9792
aI34
aI3
aI934
aI7
aI3
aI14153
aI777
aI63765
asg6
S'The stated purpose of free speech zones is to allegedly protect the safety of those attending the political gathering  or allegedly for the safety of the protesters themselves .'
p11
ss.