(dp1
S'input'
p2
(dp3
S'encoded'
p4
(lp5
I64
aI2179
aI43
aI63
aI3
aI4990
aI4991
aI116
aI4850
aI24
aI12166
aI3
aI475
aI7
aI3532
aI3290
aI7
aI4714
asS'ori'
p6
S'This house believes that the Catholic Church is justified in forbidding the use of barrier methods of contraception'
p7
ssS'output'
p8
(dp9
g4
(lp10
I7332
aI88
aI316
aI136
aI1856
aI45
aI1746
aI397
aI31613
aI11389
aI138
aI397
aI16890
aI11389
aI1879
aI3
aI2038
aI63765
asg6
S'Condoms may be more likely to break during anal sex than during vaginal sex  increasing the risk  .'
p11
ss.