(dp1
S'input'
p2
(dp3
S'encoded'
p4
(lp5
I64
aI2179
aI43
aI223
aI2138
aI11
aI89
aI21
aI45
aI2185
aI372
asS'ori'
p6
S'This house believes all nations have a right to nuclear weapons'
p7
ssS'output'
p8
(dp9
g4
(lp10
I3
aI448
aI2333
aI116
aI221
aI588
aI7
aI223
aI2544
aI187
aI63765
asg6
S'The General Conference is made up of all 151 member states .'
p11
ss.