(dp1
S'input'
p2
(dp3
S'encoded'
p4
(lp5
I64
aI2179
aI394
aI5370
aI223
aI4013
aI10440
aI2446
aI4881
aI75
aI14482
aI11004
asS'ori'
p6
S'This house would abolish all collective bargaining rights claimed by trades unions'
p7
ssS'output'
p8
(dp9
g4
(lp10
I23890
aI399
aI3
aI1663
aI3063
aI24
aI3
aI9005
aI63
aI116
aI23891
aI311
aI15
aI1667
aI23884
aI3470
aI63765
asg6
S'"The railroaders form the connecting link in the proposition that is scabby at both ends " Haywood wrote .'
p11
ss.