(dp1
S'input'
p2
(dp3
S'encoded'
p4
(lp5
I64
aI2179
aI235
aI3858
aI3
aI2240
aI4527
aI3485
aI45
asS'ori'
p6
S'This house supports raising the school leaving age to 18'
p7
ssS'output'
p8
(dp9
g4
(lp10
I3858
aI3
aI7600
aI3485
aI45
aI122
aI237
aI2032
aI45
aI2118
aI736
aI782
aI60
aI3
aI2042
aI2784
aI63765
asg6
S'Raising the participation age to 18 was first proposed to come into effect with the Education Act 1918 .'
p11
ss.