(dp1
S'input'
p2
(dp3
S'encoded'
p4
(lp5
I64
aI2179
aI43
aI3
aI626
aI187
aI116
aI1989
aI34
aI3102
aI2223
asS'ori'
p6
S"This house believes the United States is responsible for Mexico's drugs war"
p7
ssS'output'
p8
(dp9
g4
(lp10
I75
aI7268
aI3
aI12294
aI7
aI2474
aI397
aI3
aI8
aI2446
aI681
aI64
aI7518
aI1577
aI2010
aI63765
asg6
S'By examining the unfolding of anti-drug legislation during the modern  post-civil rights era  this bias becomes clear .'
p11
ss.