(dp1
S'input'
p2
(dp3
S'encoded'
p4
(lp5
I64
aI2179
aI43
aI8629
aI116
aI3
aI117
aI998
asS'ori'
p6
S'This house believes atheism is the only way'
p7
ssS'output'
p8
(dp9
g4
(lp10
I100
aI159
aI41
aI10660
aI70
aI11
aI3017
aI63
aI5480
aI116
aI5267
aI2604
aI604
aI691
aI42
aI55
aI89
aI3777
aI5
aI123
aI3
aI3782
aI5
aI7687
aI24
aI134
aI42
aI83
aI11
aI223
aI3
aI5853
aI7
aI3
aI3782
aI24
aI25
aI3777
aI24
aI128
aI45
aI11
aI3818
aI87
aI5
aI3082
aI116
aI2604
asg6
S'Some  such as Stephen Law  have suggested that God is indeed complex because since he has a mind and created the universe and everything in it  he must have all the complexity of the universe in his mind in order to have done so  and therefore is complex '
p11
ss.