(dp1
S'input'
p2
(dp3
S'encoded'
p4
(lp5
I64
aI2179
aI394
aI5284
aI150
aI3987
asS'ori'
p6
S'This house would reintroduce national service'
p7
ssS'output'
p8
(dp9
g4
(lp10
I526
aI3
aI905
aI4673
aI122
aI480
aI24
aI5
aI98
aI99
aI404
aI34
aI40
aI2224
aI5650
aI3237
aI918
aI64
aI10506
aI63765
asg6
S'" Furthermore  the report cited was published in 1993 and does not account for how civilian hiring practices impact this statistic .'
p11
ss.