(dp1
S'input'
p2
(dp3
S'encoded'
p4
(lp5
I64
aI2179
aI394
aI2773
aI12505
asS'ori'
p6
S'This house would embrace multiculturalism'
p7
ssS'output'
p8
(dp9
g4
(lp10
I89
aI570
aI21073
aI116
aI3
aI2195
aI7
aI2196
aI24
aI3
aI626
aI2549
aI887
aI80
aI1021
aI45
aI350
aI7
aI57121
aI12537
aI5
aI13819
aI289
aI2459
aI63765
asg6
S'A similar reversal is the subject of debate in the United Kingdom  among others  due to evidence of incipient segregation and anxieties over "home-grown" terrorism  .'
p11
ss.