(dp1
S'input'
p2
(dp3
S'encoded'
p4
(lp5
I64
aI2179
aI43
aI223
aI2138
aI11
aI89
aI21
aI45
aI2185
aI372
asS'ori'
p6
S'This house believes all nations have a right to nuclear weapons'
p7
ssS'output'
p8
(dp9
g4
(lp10
I24
aI5
aI2657
aI7995
aI1257
aI33533
aI2185
aI4948
aI5
aI7371
aI45
aI3
aI27120
aI63765
asg6
S'In 2004 and 2005  Egypt disclosed past undeclared nuclear activities and material to the IAEA .'
p11
ss.