(dp1
S'input'
p2
(dp3
S'encoded'
p4
(lp5
I64
aI2179
aI43
aI63
aI2659
aI417
aI1690
aI3
aI12048
aI7
aI19084
asS'ori'
p6
S'This house believes that Israel should lift the blockade of Gaza'
p7
ssS'output'
p8
(dp9
g4
(lp10
I13872
aI19377
aI809
aI2145
aI63765
aI10
aI2176
aI3343
aI5
aI976
aI27050
aI311
aI3
aI1560
aI2734
aI24
aI3
aI19407
aI5
aI2056
aI89
aI12921
aI70
aI2240
aI2999
aI742
aI6056
aI12048
aI2126
aI493
aI19084
aI2126
aI116
aI99
asg6
S'Allen Weiner  former U .S . State Department attorney and legal counselor at the American Embassy in The Hague  and now a Stanford Law School professor  said "the Israeli blockade itself against Gaza itself is not illegal" '
p11
ss.