(dp1
S'input'
p2
(dp3
S'encoded'
p4
(lp5
I64
aI2179
aI43
aI223
aI2138
aI11
aI89
aI21
aI45
aI2185
aI372
asS'ori'
p6
S'This house believes all nations have a right to nuclear weapons'
p7
ssS'output'
p8
(dp9
g4
(lp10
I874
aI2047
aI2791
aI24
aI63
aI134
aI174
aI440
aI1237
aI2185
aI8766
aI114
aI134
aI55
aI99
aI12
aI2523
aI5
aI3
aI2485
aI7
aI64
aI55
aI12
aI89
aI2195
aI7
aI3441
aI1365
aI372
aI7092
aI63765
asg6
S'North Korea announced in 2003 that it also had several nuclear explosives though it has not been confirmed and the validity of this has been a subject of scrutiny amongst weapons experts .'
p11
ss.