(dp1
S'input'
p2
(dp3
S'encoded'
p4
(lp5
I64
aI2179
aI394
aI2976
aI12243
aI24
aI954
aI126
aI1560
aI10723
asS'ori'
p6
S'This house would implement playoffs in collegiate level American football'
p7
ssS'output'
p8
(dp9
g4
(lp10
I3
aI34971
aI5
aI34966
aI14324
aI11
aI1902
aI3432
aI34
aI100
aI399
aI7
aI12247
aI145
aI63765
asg6
S'The SEC and ACC conferences have recently pushed for some form of playoff system .'
p11
ss.