(dp1
S'input'
p2
(dp3
S'encoded'
p4
(lp5
I64
aI2179
aI394
aI9385
aI2497
aI447
aI14
aI3
aI3578
aI5721
aI7
aI260
asS'ori'
p6
S'This house would enforce term limits on the legislative branch of government'
p7
ssS'output'
p8
(dp9
g4
(lp10
I273
aI55
aI12
aI1593
aI887
aI976
aI2478
aI1191
aI755
aI73
aI99
aI45
aI6476
aI2497
aI447
aI14
aI3
aI2482
aI2483
aI7
aI3
aI626
aI187
aI63765
asg6
S'There has been discussion among legal scholars about whether or not to impose term limits on the Supreme Court of the United States .'
p11
ss.