(dp1
S'input'
p2
(dp3
S'encoded'
p4
(lp5
I64
aI2179
aI394
aI16642
aI1376
aI5269
asS'ori'
p6
S'This house would subsidize poor communities'
p7
ssS'output'
p8
(dp9
g4
(lp10
I100
aI1792
aI143
aI41
aI89
aI3566
aI34
aI38
aI691
aI113
aI3
aI7419
aI2789
aI7
aI2022
aI5664
aI161
aI19
aI2322
aI21376
aI459
aI80
aI133
aI117
aI89
aI2369
aI9
aI10
aI139
aI4824
aI3168
aI7
aI2248
aI63765
asg6
S"Some see Rawls's argument as a justification for capitalism since even the poorest members of society theoretically benefit from increased innovations under capitalism; others believe only a strong welfare state can satisfy Rawls's theory of justice ."
p11
ss.