(dp1
S'input'
p2
(dp3
S'encoded'
p4
(lp5
I64
aI2179
aI394
aI5370
aI3
aI5286
asS'ori'
p6
S'This house would abolish the monarchy'
p7
ssS'output'
p8
(dp9
g4
(lp10
I366
aI3
aI1950
aI285
aI2223
aI7869
aI1565
aI5794
aI49
aI1371
aI1515
aI100
aI4868
aI7
aI3
aI2477
aI5286
aI2823
aI6859
aI643
aI24
aI326
aI63765
asg6
S'After the Second World War  surviving European monarchies almost invariably adopted some variant of the constitutional monarchy model originally developed in Britain .'
p11
ss.