(dp1
S'input'
p2
(dp3
S'encoded'
p4
(lp5
I64
aI2179
aI394
aI5370
aI3
aI5286
asS'ori'
p6
S'This house would abolish the monarchy'
p7
ssS'output'
p8
(dp9
g4
(lp10
I2763
aI6243
aI475
aI5491
aI159
aI41
aI6556
aI6557
aI5706
aI6558
aI5
aI6559
aI63765
asg6
S'Islamic monarchs use titles such as Shah  Caliph  Sultan  Emir and Sheikh .'
p11
ss.