(dp1
S'input'
p2
(dp3
S'encoded'
p4
(lp5
I64
aI2179
aI43
aI63
aI187
aI417
aI99
aI16642
aI3
aI6449
aI7
aI3935
asS'ori'
p6
S'This house believes that states should not subsidize the growing of tobacco'
p7
ssS'output'
p8
(dp9
g4
(lp10
I60
aI3
aI5957
aI544
aI24
aI678
aI7
aI14815
aI14833
aI415
aI89
aI11934
aI7943
aI7
aI14834
aI5057
aI63765
asg6
S'With the postwar rise in popularity of cigarette smoking came a virtual epidemic of lung cancer  .'
p11
ss.