(dp1
S'input'
p2
(dp3
S'encoded'
p4
(lp5
I64
aI2179
aI43
aI63
aI3
aI4538
aI7
aI4434
aI7793
aI283
aI45
aI3586
aI417
aI316
aI577
asS'ori'
p6
S'This house believes that the sale of violent video games to minors should be banned'
p7
ssS'output'
p8
(dp9
g4
(lp10
I7793
aI319
aI4573
aI3610
aI24
aI725
aI274
aI5
aI7149
aI116
aI89
aI726
aI2195
aI63765
asg6
S'Video game controversy comes in many forms  and censorship is a controversial subject .'
p11
ss.