(dp1
S'input'
p2
(dp3
S'encoded'
p4
(lp5
I64
aI2179
aI43
aI63
aI7382
aI116
aI400
aI4713
asS'ori'
p6
S'This house believes that bribery is sometimes acceptable'
p7
ssS'output'
p8
(dp9
g4
(lp10
I64
aI122
aI1688
aI75
aI3
aI9227
aI7
aI3
aI2533
aI63765
asg6
S'This was followed by the signing of the Anti-Bribery Convention .'
p11
ss.