(dp1
S'input'
p2
(dp3
S'encoded'
p4
(lp5
I64
aI2179
aI43
aI63
aI2659
aI417
aI1690
aI3
aI12048
aI7
aI19084
asS'ori'
p6
S'This house believes that Israel should lift the blockade of Gaza'
p7
ssS'output'
p8
(dp9
g4
(lp10
I9036
aI122
aI2031
aI75
aI2659
aI3
aI19088
aI254
aI5
aI3
aI626
aI2138
aI131
aI2493
aI75
aI3
aI19096
aI3727
aI63765
asg6
S"Greece's offer was supported by Israel  the Palestinian Authority  and the United Nations  but rejected by the flotilla activists  ."
p11
ss.