(dp1
S'input'
p2
(dp3
S'encoded'
p4
(lp5
I64
aI2179
aI235
aI3
aI2136
aI7
aI3
aI2306
aI7
aI2390
asS'ori'
p6
S'This house supports the one-child policy of the republic of China'
p7
ssS'output'
p8
(dp9
g4
(lp10
I3399
aI24
aI3
aI4347
aI4348
aI18798
aI11320
aI48668
aI187
aI63
aI273
aI116
aI51
aI45
aI3384
aI131
aI42
aI13318
aI755
aI7208
aI139
aI5570
aI3683
aI63
aI725
aI78
aI3984
aI45
aI11
aI3862
aI5
aI1019
aI316
aI42600
aI63765
asg6
S'Writing in the San Francisco Chronicle  Gregory Dicum states that there is an "undeniable logic" to VHEMT\'s arguments  but he doubts whether Knight\'s ideas can succeed  arguing that many people desire to have children and cannot be dissuaded  .'
p11
ss.