(dp1
S'input'
p2
(dp3
S'encoded'
p4
(lp5
I64
aI2179
aI235
aI3
aI2136
aI7
aI3
aI2306
aI7
aI2390
asS'ori'
p6
S'This house supports the one-child policy of the republic of China'
p7
ssS'output'
p8
(dp9
g4
(lp10
I11984
aI1413
aI88
aI1199
aI149
aI5185
aI620
aI58690
aI7809
aI36821
aI15522
aI5
aI3926
aI36002
aI63765
asg6
S'Usable land may become less useful through salinization  deforestation  desertification  erosion  and urban sprawl .'
p11
ss.