(dp1
S'input'
p2
(dp3
S'encoded'
p4
(lp5
I64
aI2179
aI394
aI5370
aI3
aI5286
asS'ori'
p6
S'This house would abolish the monarchy'
p7
ssS'output'
p8
(dp9
g4
(lp10
I3
aI1597
aI116
aI10985
aI6405
aI5
aI116
aI99
aI4687
aI75
aI3
aI169
aI5301
aI41
aI7
aI21
aI131
aI116
aI2464
aI24
aI51
aI229
aI2168
aI75
aI3
aI278
aI6408
aI7
aI260
aI63765
asg6
S'The position is purely ceremonial  and is not inherited by the British monarch as of right but is vested in an individual chosen by the Commonwealth Heads of Government  .'
p11
ss.