(dp1
S'input'
p2
(dp3
S'encoded'
p4
(lp5
I64
aI2179
aI43
aI24
aI3
aI475
aI7
aI12436
aI3364
asS'ori'
p6
S'This house believes in the use of affirmative action'
p7
ssS'output'
p8
(dp9
g4
(lp10
I646
aI63765
aI2044
aI3
aI2180
aI353
aI63
aI3
aI4042
aI7
aI12511
aI2381
aI122
aI6679
aI60
aI57
aI7
aI2381
aI5
aI63
aI3
aI9929
aI7
aI89
aI5409
aI75
aI3
aI2482
aI2483
aI7
aI2044
aI14
aI57
aI7
aI2381
aI18
aI122
aI89
aI2521
aI7
aI3
aI2533
aI63765
asg6
S'v . Norway  the Committee found that the prohibition of hate speech was compatible with freedom of speech  and that the acquittal of a neo-Nazi leader by the Supreme Court of Norway on freedom of speech grounds was a violation of the Convention  .'
p11
ss.