(dp1
S'input'
p2
(dp3
S'encoded'
p4
(lp5
I64
aI2179
aI43
aI24
aI3
aI475
aI7
aI12436
aI3364
asS'ori'
p6
S'This house believes in the use of affirmative action'
p7
ssS'output'
p8
(dp9
g4
(lp10
I24
aI3
aI481
aI5
aI320
aI398
aI3
aI976
aI3566
aI34
aI55340
aI3
aI3202
aI2446
aI2784
aI7
aI122
aI759
aI7
aI89
aI2597
aI2229
aI75
aI2789
aI7
aI3
aI626
aI187
aI2482
aI2483
aI45
aI12354
aI217
aI260
aI3645
aI7
aI3
aI3249
aI7935
aI3375
aI298
aI2761
aI60
aI2511
aI3075
aI45
aI454
aI3492
aI658
aI4588
aI63765
asg6
S'In the late 19th and early 20th century  the legal justification for voiding the Civil Rights Act of 1875  was part of a larger trend by members of the United States Supreme Court to invalidate most government regulations of the private sector  except when dealing with laws designed to protect traditional public morality .'
p11
ss.