(dp1
S'input'
p2
(dp3
S'encoded'
p4
(lp5
I64
aI2179
aI43
aI63
aI3
aI4538
aI7
aI4434
aI7793
aI283
aI45
aI3586
aI417
aI316
aI577
asS'ori'
p6
S'This house believes that the sale of violent video games to minors should be banned'
p7
ssS'output'
p8
(dp9
g4
(lp10
I591
aI50924
aI1902
aI353
aI63
aI17
aI6834
aI6303
aI440
aI12
aI50936
aI100
aI2015
aI782
aI5197
aI63765
asg6
S'Block &#38; Crain (2007) recently found that social scientists (Bushman &#38; Anderson  2001) had been miscalculating some medical effect sizes .'
p11
ss.