(dp1
S'input'
p2
(dp3
S'encoded'
p4
(lp5
I64
aI2179
aI43
aI63
aI134
aI116
aI400
aI21
aI34
aI3
aI260
aI45
aI3439
aI57
aI7
aI2381
asS'ori'
p6
S'This house believes that it is sometimes right for the government to restrict freedom of speech'
p7
ssS'output'
p8
(dp9
g4
(lp10
I3
aI943
aI5336
aI5
aI89
aI696
aI7
aI2760
aI2203
aI440
aI1966
aI34
aI3
aI13235
aI7
aI223
aI2446
aI24
aI89
aI6218
aI9596
aI63765
asg6
S'The Soviet bloc and a number of developing countries had argued for the inclusion of all rights in a so-called Unity Resolution .'
p11
ss.