(dp1
S'input'
p2
(dp3
S'encoded'
p4
(lp5
I64
aI2179
aI43
aI63
aI3
aI4991
aI7
aI180
aI417
aI316
aI5396
aI19
aI3
aI169
aI10
asS'ori'
p6
S'This house believes that the Church of England should be separated from the British state'
p7
ssS'output'
p8
(dp9
g4
(lp10
I397
aI3
aI2196
aI289
aI3
aI2426
aI2489
aI5258
aI63765
aI57372
aI11343
aI7
aI4393
aI427
aI845
aI60
aI59913
aI3657
aI2230
aI755
aI3
aI260
aI122
aI89
aI150
aI73
aI2503
aI260
aI92
aI3
aI187
aI3784
aI271
aI229
aI92
aI9469
aI4446
aI2551
aI5886
aI45
aI3549
aI25
aI3657
aI19
aI3
aI2196
aI63765
asg6
S'During the debate over the establishment clause  Rep . Elbridge Gerry of Massachusetts took issue with Madisons language regarding whether the government was a national or federal government (in which the states retained their individual sovereignty)  which Baker suggests compelled Madison to withdraw his language from the debate .'
p11
ss.