(dp1
S'input'
p2
(dp3
S'encoded'
p4
(lp5
I64
aI2179
aI394
aI117
aI7428
aI21151
aI34
aI11389
aI2042
aI24
aI4364
asS'ori'
p6
S'This house would only teach abstinence for sex education in schools'
p7
ssS'output'
p8
(dp9
g4
(lp10
I4284
aI273
aI55
aI12
aI89
aI1954
aI19
aI3
aI7447
aI1260
aI312
aI7
aI3
aI2409
aI2232
aI45
aI3
aI21242
aI3527
aI7
aI3
aI320
aI8235
aI639
aI63765
asg6
S'Historically  there has been a swing from the sexually free end of the Industrial Revolution to the chaste values of the early Victorian period .'
p11
ss.