(dp1
S'input'
p2
(dp3
S'encoded'
p4
(lp5
I64
aI2179
aI43
aI63
aI1036
aI4828
aI33250
aI116
aI25073
aI45
aI3315
aI4562
asS'ori'
p6
S'This house believes that male infant circumcision is tantamount to child abuse'
p7
ssS'output'
p8
(dp9
g4
(lp10
I3
aI81
aI5
aI3
aI2564
aI626
aI2138
aI6856
aI14
aI2173
aI63
aI1036
aI33250
aI116
aI51
aI14756
aI2987
aI34
aI9583
aI2466
asg6
S'the WHO and the Joint United Nations Programme on HIV/AIDS (UNAIDS) stated that male circumcision is an efficacious intervention for HIV prevention'
p11
ss.