(dp1
S'input'
p2
(dp3
S'encoded'
p4
(lp5
I64
aI2179
aI43
aI63
aI6670
aI546
aI417
aI316
aI89
aI1334
aI3108
aI7
aI4849
aI1886
aI2855
asS'ori'
p6
S'This house believes that wind power should be a primary focus of future energy supply'
p7
ssS'output'
p8
(dp9
g4
(lp10
I233
aI45
aI3
aI2145
aI63765
aI3
aI6578
aI116
aI892
aI8254
aI9348
aI41
aI1167
aI41
aI3
aI573
aI7
aI3
aI285
aI63765
asg6
S'According to the U .N . the continent is losing forest twice as fast as the rest of the world .'
p11
ss.