(dp1
S'input'
p2
(dp3
S'encoded'
p4
(lp5
I64
aI2179
aI43
aI17
aI4941
aI857
aI3211
asS'ori'
p6
S'This house believes social deprivation causes crime'
p7
ssS'output'
p8
(dp9
g4
(lp10
I17828
aI4964
aI2218
aI17340
aI4434
aI17029
aI289
aI706
aI5555
aI5
aI9696
aI493
aI2789
aI7
aI3
aI658
aI83
aI174
aI316
aI513
aI298
aI7593
aI311
aI3
aI5324
aI291
aI384
aI3135
aI8281
aI5
aI271
aI17010
aI1227
aI63765
asg6
S'Revenge killings  armed robberies  violent disputes over controlled territories and offences against members of the public must also be considered when looking at the dynamic between different criminal organisations and their (at times) conflicting needs .'
p11
ss.