(dp1
S'input'
p2
(dp3
S'encoded'
p4
(lp5
I64
aI2179
aI43
aI24
aI3
aI475
aI7
aI12436
aI3364
asS'ori'
p6
S'This house believes in the use of affirmative action'
p7
ssS'output'
p8
(dp9
g4
(lp10
I298
aI3
aI10250
aI12537
aI2511
aI382
aI3581
aI24
aI3
aI2145
aI63765
aI725
aI6228
aI12538
aI86
aI34
aI2439
aI604
aI3
aI192
aI6867
aI12539
aI6228
aI63
aI155
aI523
aI7710
aI5
aI1192
aI516
aI9062
aI63765
asg6
S'When the "Jim Crow" racial segregation laws were enacted in the U .S .  many companies disobeyed them for years  because the market automatically punishes companies that discriminate: they lose customers and get additional expenses .'
p11
ss.