(dp1
S'input'
p2
(dp3
S'encoded'
p4
(lp5
I64
aI2179
aI394
aI2773
aI12505
asS'ori'
p6
S'This house would embrace multiculturalism'
p7
ssS'output'
p8
(dp9
g4
(lp10
I3
aI237
aI7807
aI7
aI3
aI51802
aI7
aI3
aI51803
aI458
aI24
aI2293
aI24
aI1906
aI63765
asg6
S'The first meeting of the HLG of the AoC occurred in Spain in November 2005 .'
p11
ss.