(dp1
S'input'
p2
(dp3
S'encoded'
p4
(lp5
I64
aI2179
aI394
aI16642
aI1376
aI5269
asS'ori'
p6
S'This house would subsidize poor communities'
p7
ssS'output'
p8
(dp9
g4
(lp10
I3
aI3891
aI7
aI260
aI6198
aI55
aI2425
aI45
aI5317
aI545
aI3
aI2178
asg6
S'the availability of government funds has led to tensions within the community'
p11
ss.