(dp1
S'input'
p2
(dp3
S'encoded'
p4
(lp5
I64
aI2179
aI394
aI2998
aI3
aI4360
aI7
aI3249
aI6804
aI24
aI3
aI102
asS'ori'
p6
S'This house would encourage the creation of private universities in the UK'
p7
ssS'output'
p8
(dp9
g4
(lp10
I37486
aI1863
aI14
aI2042
aI5
aI3
aI6194
aI55
aI5162
aI89
aI2035
aI92
aI3701
aI4453
aI63
aI10275
aI182
aI99
aI11870
aI38530
aI1191
aI3
aI945
aI7891
aI7
aI380
aI5018
aI13552
aI58
aI477
aI725
aI4358
aI34
aI14065
aI60
aI89
aI1182
aI2038
aI7
aI196
aI5
aI3893
aI7337
aI251
aI63765
asg6
S"Georgetown University's Center on Education and the Workforce has released a study which essentially claims that colleges are not informing freshmen about the career prospects of various academic majors  thereby training many students for low-paying careers with a substantial risk of unemployment and intractable debt problems  ."
p11
ss.