(dp1
S'input'
p2
(dp3
S'encoded'
p4
(lp5
I64
aI2179
aI394
aI117
aI7428
aI21151
aI34
aI11389
aI2042
aI24
aI4364
asS'ori'
p6
S'This house would only teach abstinence for sex education in schools'
p7
ssS'output'
p8
(dp9
g4
(lp10
I233
aI45
aI413
aI7098
aI45
aI3
aI217
aI8803
aI7151
aI14
aI10596
aI182
aI9348
aI41
aI1856
aI41
aI17092
aI11837
aI149
aI7
aI64
aI7371
aI45
aI1199
aI3314
aI751
aI155
aI1069
aI3485
aI63765
asg6
S'According to Time  "teens exposed to the most sexual content on TV are twice as likely as teens watching less of this material to become pregnant before they reach age 20"  .'
p11
ss.