(dp1
S'input'
p2
(dp3
S'encoded'
p4
(lp5
I64
aI2179
aI235
aI3
aI2136
aI7
aI3
aI2306
aI7
aI2390
asS'ori'
p6
S'This house supports the one-child policy of the republic of China'
p7
ssS'output'
p8
(dp9
g4
(lp10
I368
aI52945
aI116
aI217
aI38327
aI24
aI3
aI15159
aI7289
aI5
aI36844
aI2317
aI7
aI3
aI4395
aI5
aI4399
aI63765
asg6
S'Western areasPopulation is most sparse in the mountainous  desert  and grassland regions of the northwest and southwest .'
p11
ss.