(dp1
S'input'
p2
(dp3
S'encoded'
p4
(lp5
I64
aI2179
aI394
aI163
aI959
aI2042
aI3557
asS'ori'
p6
S'This house would make physical education compulsory'
p7
ssS'output'
p8
(dp9
g4
(lp10
I725
aI6368
aI11
aI12
aI4883
aI4884
aI34
aI956
aI291
aI29225
aI5
aI17
aI5052
aI63765
asg6
S'Many explanations have been put forth for associations between BMI and social class .'
p11
ss.