(dp1
S'input'
p2
(dp3
S'encoded'
p4
(lp5
I64
aI2179
aI43
aI24
aI3
aI475
aI7
aI12436
aI3364
asS'ori'
p6
S'This house believes in the use of affirmative action'
p7
ssS'output'
p8
(dp9
g4
(lp10
I2280
aI575
aI45
aI9385
aI3
aI2784
aI382
aI2274
aI1622
aI131
aI382
aI17626
aI397
aI395
aI2439
aI63765
asg6
S'Powers given to enforce the act were initially weak  but were supplemented during later years .'
p11
ss.