(dp1
S'input'
p2
(dp3
S'encoded'
p4
(lp5
I64
aI2179
aI394
aI2017
aI628
asS'ori'
p6
S'This house would ban gambling'
p7
ssS'output'
p8
(dp9
g4
(lp10
I759
aI7
aI3
aI1025
aI64
aI5039
aI116
aI416
aI653
aI134
aI2645
aI45
aI51
aI60847
aI7
aI3211
aI2722
aI116
aI63
aI9100
aI3073
aI14
aI6996
aI464
aI182
aI153
aI99
aI119
aI63765
asg6
S'Part of the reason this methodology is used  despite it leading to an overstatement of crime rates is that reliable data on tourist count are often not available  .'
p11
ss.