(dp1
S'input'
p2
(dp3
S'encoded'
p4
(lp5
I64
aI2179
aI394
aI2017
aI3807
aI314
aI3433
asS'ori'
p6
S'This house would ban partial birth abortions'
p7
ssS'output'
p8
(dp9
g4
(lp10
I22977
aI3814
aI89
aI3806
aI3379
aI81
aI10411
aI24
aI3433
aI1607
aI3336
aI493
aI13364
aI3813
aI3
aI3343
aI448
aI7
aI3806
aI3820
aI22978
aI3670
aI63
aI89
aI10
aI70
aI3593
aI77
aI274
aI7
aI3257
aI122
aI2481
aI717
aI14
aI3
aI16530
aI4912
aI3274
aI2174
aI75
aI89
aI3436
aI3357
aI24
aI22979
aI646
aI63765
aI22979
aI1863
aI34
aI3760
aI3217
aI5
aI75
aI3
aI2483
aI24
aI3772
aI3773
aI646
aI63765
aI3774
aI63765
asg6
S'LeRoy Carhart  a Nebraska physician who specialized in late-term abortions  brought suit against Don Stenberg  the Attorney General of Nebraska  seeking declaratory judgment that a state law banning certain forms of abortion was unconstitutional  based on the undue burden test mentioned by a dissenting opinion in Akron v . Akron Center for Reproductive Health and by the Court in Planned Parenthood v . Casey .'
p11
ss.