(dp1
S'input'
p2
(dp3
S'encoded'
p4
(lp5
I64
aI2179
aI43
aI63
aI3
aI4990
aI4991
aI116
aI4850
aI24
aI12166
aI3
aI475
aI7
aI3532
aI3290
aI7
aI4714
asS'ori'
p6
S'This house believes that the Catholic Church is justified in forbidding the use of barrier methods of contraception'
p7
ssS'output'
p8
(dp9
g4
(lp10
I3
aI2132
aI7
aI21180
aI2538
aI3
aI4256
aI116
aI3
aI258
aI63
aI14654
aI6176
aI374
aI45
aI316
aI8917
aI14
aI3
aI1633
aI876
aI316
aI7691
aI3
aI4958
aI9974
aI2455
aI113
aI45
aI3
aI312
aI7
aI3
aI285
aI5
aI211
aI21181
aI4658
aI1964
aI45
aI3
aI21165
aI7
aI120
aI8594
aI92
aI357
aI3993
aI8219
aI63765
asg6
S'The Council of Trent says the Mass is the means "whereby that bloody sacrifice once to be accomplished on the Cross might be represented  the memory thereof remain even to the end of the world  and its salutary effects applied to the remission of those sins which we daily commit" (Session 22  chapter 1) .'
p11
ss.