(dp1
S'input'
p2
(dp3
S'encoded'
p4
(lp5
I64
aI2179
aI394
aI5370
aI223
aI4013
aI10440
aI2446
aI4881
aI75
aI14482
aI11004
asS'ori'
p6
S'This house would abolish all collective bargaining rights claimed by trades unions'
p7
ssS'output'
p8
(dp9
g4
(lp10
I3
aI237
aI2747
aI187
aI2165
aI3527
aI7
aI8269
aI182
aI132
aI3527
aI1074
aI3447
aI2445
aI10941
aI511
aI5
aI5125
aI2446
aI5
aI2248
aI63765
asg6
S'The first principles states that: "the ultimate values of mankind are spiritual; these values include liberty  human dignity  opportunity and equal rights and justice .'
p11
ss.