(dp1
S'input'
p2
(dp3
S'encoded'
p4
(lp5
I64
aI2179
aI394
aI2017
aI223
aI9058
aI23653
asS'ori'
p6
S'This house would ban all unsustainable logging'
p7
ssS'output'
p8
(dp9
g4
(lp10
I64
aI783
aI99
aI117
aI2322
aI3
aI16157
aI1500
aI7
aI3
aI21098
aI131
aI174
aI221
aI1525
aI7
aI15896
aI1694
aI63765
asg6
S'This step not only increased the mechanical strength of the axe  but also made penetration of wood easier .'
p11
ss.