(dp1
S'input'
p2
(dp3
S'encoded'
p4
(lp5
I64
aI2179
aI394
aI5842
aI3569
aI446
aI13498
asS'ori'
p6
S'This house would introduce year round schooling'
p7
ssS'output'
p8
(dp9
g4
(lp10
I34
aI6396
aI3
aI7718
aI2730
aI62134
aI8945
aI2266
aI5
aI3
aI124
aI2635
aI14
aI3
aI10
aI126
aI63765
asg6
S'For instance  the Rhode Island Afterschool Plus Alliance and the  provide resources on the state level .'
p11
ss.