(dp1
S'input'
p2
(dp3
S'encoded'
p4
(lp5
I64
aI2179
aI43
aI63
aI2659
aI417
aI1690
aI3
aI12048
aI7
aI19084
asS'ori'
p6
S'This house believes that Israel should lift the blockade of Gaza'
p7
ssS'output'
p8
(dp9
g4
(lp10
I3
aI31511
aI1545
aI3
aI6056
aI2348
aI19197
aI41
aI2784
aI7
aI2617
aI5
aI51
aI1968
aI2784
aI5
aI41
aI667
aI2784
aI7
aI24324
aI493
aI7948
aI63765
asg6
S'The Paris-based organisers described the Israeli naval interception as "an act of violence and an illegal act " and as "a new act of piracy against harmless people"  .'
p11
ss.