(dp1
S'input'
p2
(dp3
S'encoded'
p4
(lp5
I64
aI2179
aI13605
aI2258
aI45
aI2194
asS'ori'
p6
S'This house prefers trade to aid'
p7
ssS'output'
p8
(dp9
g4
(lp10
I545
aI2203
aI3
aI1177
aI116
aI63
aI3064
aI116
aI136
aI4238
aI589
aI3926
aI2506
aI138
aI3945
aI2506
aI63765
asg6
S'Within countries the pattern is that wealth is more concentrated around urban areas than rural areas .'
p11
ss.