(dp1
S'input'
p2
(dp3
S'encoded'
p4
(lp5
I64
aI2179
aI394
aI2773
aI12505
asS'ori'
p6
S'This house would embrace multiculturalism'
p7
ssS'output'
p8
(dp9
g4
(lp10
I63
aI2498
aI7
aI2178
aI17365
aI139
aI1398
aI316
aI11022
aI75
aI3
aI1691
aI9107
aI7
aI2135
aI6619
aI81
aI17320
aI34315
aI150
aI15733
aI63765
asg6
S'That sense of community belonging can easily be damaged by the rapid entry of foreign peoples who unintentionally erode national cohesion .'
p11
ss.