(dp1
S'input'
p2
(dp3
S'encoded'
p4
(lp5
I64
aI2179
aI43
aI63
aI134
aI116
aI400
aI21
aI34
aI3
aI260
aI45
aI3439
aI57
aI7
aI2381
asS'ori'
p6
S'This house believes that it is sometimes right for the government to restrict freedom of speech'
p7
ssS'output'
p8
(dp9
g4
(lp10
I12685
aI116
aI9174
aI45
aI8037
aI63
aI3
aI2910
aI117
aI9090
aI60
aI2961
aI57
aI5
aI98
aI99
aI3728
aI3
aI5229
aI7
aI12687
aI63765
asg6
S'RWB is careful to note that the index only deals with press freedom  and does not measure the quality of journalism .'
p11
ss.