(dp1
S'input'
p2
(dp3
S'encoded'
p4
(lp5
I64
aI2179
aI394
aI2741
aI3
aI1560
aI6025
aI2784
asS'ori'
p6
S'This house would pass the American Jobs Act'
p7
ssS'output'
p8
(dp9
g4
(lp10
I2997
aI45
aI10008
aI3904
aI6025
aI7
aI2287
aI5
aI3920
aI6941
aI1074
aI976
aI12905
aI493
aI81
aI2383
aI6025
aI14534
aI45
aI2610
aI2358
aI5
aI570
aI2258
aI12905
aI493
aI2135
aI964
aI63765
asg6
S'Efforts to preserve existing jobs of domestic and native workers include legal barriers against "outsiders" who want jobs  obstacles to immigration  and/or tariffs and similar trade barriers against foreign competitors .'
p11
ss.