(dp1
S'input'
p2
(dp3
S'encoded'
p4
(lp5
I64
aI2179
aI43
aI63
aI2157
aI2565
aI493
aI19084
aI382
aI4850
asS'ori'
p6
S"This house believes that Israel's 2008-2009 military operations against Gaza were justified"
p7
ssS'output'
p8
(dp9
g4
(lp10
I3866
aI19109
aI3
aI4604
aI19385
aI14
aI2445
aI2446
aI24
aI3
aI19088
aI5555
aI3326
aI63
aI2659
aI440
aI8062
aI19088
aI3180
aI45
aI3
aI265
aI4560
aI24
aI19084
aI5
aI12090
aI86
aI19
aI4527
aI397
aI11741
aI63765
aI159
aI89
aI1485
aI122
aI89
aI3211
aI493
aI19109
aI742
aI5
aI263
aI34
aI2659
aI45
aI316
aI557
aI4914
asg6
S'Richard Falk  the UN\'s Special Rapporteur on Human Rights in the Palestinian territories  alleged that Israel had confined Palestinian civilians to the combat zone in Gaza and prevented them from leaving during bombardment . Such a practice was a "new crime against humanity"  Falk said and called for Israel to be held accountable '
p11
ss.