(dp1
S'input'
p2
(dp3
S'encoded'
p4
(lp5
I64
aI2179
aI43
aI63
aI11083
aI10046
aI417
aI316
aI89
aI3135
aI4603
asS'ori'
p6
S'This house believes that Holocaust denial should be a criminal offence'
p7
ssS'output'
p8
(dp9
g4
(lp10
I114
aI9437
aI47998
aI47999
aI122
aI622
aI2853
aI60
aI3
aI3957
aI7
aI285
aI2223
aI2236
aI134
aI174
aI73
aI4850
aI3
aI4658
aI7
aI5834
aI18807
aI249
aI24
aI3
aI639
aI63765
asg6
S'Though Der Erzwungene Krieg was primarily concerned with the origins of World War II  it also down-played or justified the effects of Nazi antisemitic measures in the pre-1939 period  .'
p11
ss.