(dp1
S'input'
p2
(dp3
S'encoded'
p4
(lp5
I64
aI2179
aI43
aI17
aI4941
aI857
aI3211
asS'ori'
p6
S'This house believes social deprivation causes crime'
p7
ssS'output'
p8
(dp9
g4
(lp10
I64
aI1039
aI2794
aI75
aI3
aI2388
aI3168
aI7
aI57713
aI5
aI75
aI1082
aI8232
aI5
aI25
aI3168
aI7
aI7829
aI55
aI12
aI32845
aI63765
asg6
S'This approach  influenced by the earlier theory of phrenology and by Charles Darwin and his theory of evolution  has been superseded .'
p11
ss.