(dp1
S'input'
p2
(dp3
S'encoded'
p4
(lp5
I64
aI2179
aI235
aI3
aI2136
aI7
aI3
aI2306
aI7
aI2390
asS'ori'
p6
S'This house supports the one-child policy of the republic of China'
p7
ssS'output'
p8
(dp9
g4
(lp10
I3
aI6685
aI4204
aI116
aI1032
aI2338
aI45
aI4824
aI3
aI11546
aI7
aI2390
aI2450
aI2371
aI323
aI5
aI3
aI626
aI187
aI41
aI261
aI41
aI3
aI22237
aI7
aI3
aI573
aI7
aI3
aI285
aI24
aI89
aI6806
aI998
aI63765
asg6
S"The world's ecological capacity is simply insufficient to satisfy the ambitions of China  India  Japan  Europe and the United States as well as the aspirations of the rest of the world in a sustainable way  ."
p11
ss.