(dp1
S'input'
p2
(dp3
S'encoded'
p4
(lp5
I64
aI2179
aI43
aI63
aI3
aI4990
aI4991
aI116
aI4850
aI24
aI12166
aI3
aI475
aI7
aI3532
aI3290
aI7
aI4714
asS'ori'
p6
S'This house believes that the Catholic Church is justified in forbidding the use of barrier methods of contraception'
p7
ssS'output'
p8
(dp9
g4
(lp10
I273
aI182
aI120
aI81
aI103
aI63
aI1980
aI81
aI952
aI64
aI3661
aI1032
aI1068
aI45
aI45
aI1049
aI39855
aI226
aI3438
aI2189
aI60
aI89
aI21152
aI41
aI75
aI26510
aI226
aI371
aI89
aI21152
aI5
aI248
aI131
aI100
aI7
aI132
aI1980
aI1180
aI63
aI155
aI182
aI12705
aI121
aI45
aI1453
aI87
aI917
aI7
aI40
aI165
aI155
aI3654
aI63765
asg6
S'There are those who claim that men who experience this problem simply need to "train themselves" to maintain erections while attempting intercourse with a condom (such as by masturbating while wearing a condom  and other strategies)  but some of these men counter that they are physically unable to do so regardless of how much they try .'
p11
ss.