(dp1
S'input'
p2
(dp3
S'encoded'
p4
(lp5
I64
aI2179
aI394
aI2017
aI262
asS'ori'
p6
S'This house would ban boxing'
p7
ssS'output'
p8
(dp9
g4
(lp10
I27290
aI60
aI132
aI3539
aI3
aI364
aI7
aI41264
aI88
aI316
aI1016
aI92
aI857
aI5067
aI45
aI109
aI14
aI28174
aI19481
aI45
aI3051
aI1886
aI92
aI4696
aI2363
aI7
aI3
aI12101
aI41265
aI63765
asg6
S'Concurrently with these processes  the activity of mitochondria may be reduced  which causes cells to rely on anaerobic metabolism to produce energy  which increases levels of the byproduct lactate  .'
p11
ss.