(dp1
S'input'
p2
(dp3
S'encoded'
p4
(lp5
I64
aI2179
aI394
aI2017
aI262
asS'ori'
p6
S'This house would ban boxing'
p7
ssS'output'
p8
(dp9
g4
(lp10
I6859
aI41321
aI41
aI51
aI2419
aI75
aI1740
aI5
aI41322
aI45
aI89
aI4377
aI108
aI5052
aI266
aI3
aI12014
aI723
aI7
aI262
aI353
aI1561
aI24
aI4364
aI6804
aI5
aI24
aI3
aI2218
aI2219
aI1381
aI3
aI642
aI637
aI162
aI415
aI19
aI887
aI3
aI3926
aI1376
aI63765
asg6
S'Originally lampooned as an effort by upper and middle-class gentlemen to co-opt a traditionally working class sport  the safer  "scientific" style of boxing found favor in schools  universities and in the armed forces  although the champions still usually came from among the urban poor .'
p11
ss.