(dp1
S'input'
p2
(dp3
S'encoded'
p4
(lp5
I64
aI2179
aI43
aI63
aI134
aI116
aI400
aI21
aI34
aI3
aI260
aI45
aI3439
aI57
aI7
aI2381
asS'ori'
p6
S'This house believes that it is sometimes right for the government to restrict freedom of speech'
p7
ssS'output'
p8
(dp9
g4
(lp10
I3500
aI146
aI34
aI6015
aI34
aI3
aI4091
aI7
aI25208
aI7
aI2248
aI63765
asg6
S'Article 3 provides for compensation for the victims of miscarriages of justice .'
p11
ss.