(dp1
S'input'
p2
(dp3
S'encoded'
p4
(lp5
I64
aI2179
aI43
aI63
aI1036
aI4828
aI33250
aI116
aI25073
aI45
aI3315
aI4562
asS'ori'
p6
S'This house believes that male infant circumcision is tantamount to child abuse'
p7
ssS'output'
p8
(dp9
g4
(lp10
I378
aI1185
aI134
aI88
aI316
aI33250
aI116
aI99
aI89
aI10971
aI1251
aI89
aI5711
aI26558
aI63765
asg6
S'However important it may be  circumcision is not a sacrament  unlike a Christian baptism .'
p11
ss.