(dp1
S'input'
p2
(dp3
S'encoded'
p4
(lp5
I64
aI2179
aI43
aI3
aI626
aI187
aI116
aI1989
aI34
aI3102
aI2223
asS'ori'
p6
S"This house believes the United States is responsible for Mexico's drugs war"
p7
ssS'output'
p8
(dp9
g4
(lp10
I24
aI3
aI226
aI3
aI696
aI7
aI10104
aI34
aI223
aI4212
aI440
aI7883
aI75
aI3
aI696
aI7
aI10104
aI34
aI2613
aI4734
aI2422
aI63765
asg6
S'In the 1980s  while the number of arrests for all crimes had risen by 28%  the number of arrests for drug offenses rose 126%  .'
p11
ss.