(dp1
S'input'
p2
(dp3
S'encoded'
p4
(lp5
I64
aI2179
aI394
aI16642
aI1376
aI5269
asS'ori'
p6
S'This house would subsidize poor communities'
p7
ssS'output'
p8
(dp9
g4
(lp10
I3
aI2992
aI353
aI63
aI1381
aI223
aI3202
aI8242
aI24
aI180
aI11
aI3
aI1643
aI3757
aI45
aI3217
aI85
aI273
aI122
aI89
aI2369
aI4704
aI291
aI17
aI2554
aI5
aI3217
aI63765
asg6
S'The studies found that although all civil servants in England have the same access to health care  there was a strong correlation between social status and health .'
p11
ss.