(dp1
S'input'
p2
(dp3
S'encoded'
p4
(lp5
I64
aI2179
aI43
aI63
aI134
aI116
aI400
aI21
aI34
aI3
aI260
aI45
aI3439
aI57
aI7
aI2381
asS'ori'
p6
S'This house believes that it is sometimes right for the government to restrict freedom of speech'
p7
ssS'output'
p8
(dp9
g4
(lp10
I3848
aI63
aI3
aI14942
aI122
aI7960
aI13538
aI3
aI12359
aI2860
aI442
aI14
aI15621
aI5
aI3446
aI1687
aI864
aI7
aI2384
aI63
aI120
aI442
aI876
aI316
aI3
aI2483
aI2346
aI3
aI2130
aI88
aI24
aI3
aI5982
aI7
aI211
aI6394
aI790
aI45
aI2517
aI73
aI2968
aI132
aI442
aI5
aI357
aI6564
aI443
aI234
aI14
aI3
aI3289
aI7
aI843
aI2346
aI63765
asg6
S'(footnote 11)"After noting that the FCC was considering repealing the Fairness Doctrine rules on editorials and personal attacks out of fear that those rules might be "chilling speech"  the Court added: "Of course  the Commission may  in the exercise of its discretion  decide to modify or abandon these rules  and we express no view on the legality of either course .'
p11
ss.