(dp1
S'input'
p2
(dp3
S'encoded'
p4
(lp5
I64
aI2179
aI394
aI2773
aI12505
asS'ori'
p6
S'This house would embrace multiculturalism'
p7
ssS'output'
p8
(dp9
g4
(lp10
I24
aI3358
aI2648
aI63765
aI61891
aI1093
aI63765
aI89
aI809
aI19365
aI45
aI3
aI3755
aI5
aI248
aI2206
aI13674
aI5
aI35618
aI439
aI744
aI480
aI89
aI26
aI3057
aI7
aI12505
aI60
aI3
aI5489
aI3
aI61892
aI7
aI13890
aI14
aI89
aI15307
aI2022
aI63765
asg6
S'In 1991  Arthur M . Schlesinger  Jr .  a former advisor to the Kennedy and other US administrations and Pulitzer Prize winner  published a book critical of multiculturalism with the title The Disuniting of America: Reflections on a Multicultural Society .'
p11
ss.