(dp1
S'input'
p2
(dp3
S'encoded'
p4
(lp5
I64
aI2179
aI235
aI3858
aI3
aI2240
aI4527
aI3485
aI45
asS'ori'
p6
S'This house supports raising the school leaving age to 18'
p7
ssS'output'
p8
(dp9
g4
(lp10
I1381
aI61
aI116
aI1047
aI2643
aI41
aI3
aI3409
aI7985
aI4758
aI2586
aI24
aI323
aI3
aI2497
aI116
aI136
aI1480
aI566
aI60
aI6804
aI24
aI3
aI626
aI187
aI63765
asg6
S'" Although what is known today as the liberal arts college began in Europe  the term is more commonly associated with Universities in the United States .'
p11
ss.