(dp1
S'input'
p2
(dp3
S'encoded'
p4
(lp5
I64
aI2179
aI394
aI2017
aI223
aI9058
aI23653
asS'ori'
p6
S'This house would ban all unsustainable logging'
p7
ssS'output'
p8
(dp9
g4
(lp10
I63
aI23118
aI6676
aI7
aI5211
aI1495
aI139
aI15461
aI736
aI12154
aI17160
aI5
aI136
aI20251
aI17689
aI138
aI394
aI2723
aI60
aI3
aI8254
aI1616
aI63765
asg6
S'That quicker transport of surface water can translate into flash flooding and more localized floods than would occur with the forest cover .'
p11
ss.