(dp1
S'input'
p2
(dp3
S'encoded'
p4
(lp5
I64
aI2179
aI394
aI2017
aI3807
aI314
aI3433
asS'ori'
p6
S'This house would ban partial birth abortions'
p7
ssS'output'
p8
(dp9
g4
(lp10
I3633
aI59
aI2173
aI70
aI98
aI99
aI3810
aI351
aI3486
aI19
aI2945
aI34
aI134
aI3811
aI117
aI1869
aI7
aI3812
aI63765
asg6
S'Ginsburg (who replaced White) stated  "this law does not save any fetus from destruction  for it targets only \'a method of performing abortion\' .'
p11
ss.