(dp1
S'input'
p2
(dp3
S'encoded'
p4
(lp5
I64
aI2179
aI43
aI63
aI3
aI4538
aI7
aI4434
aI7793
aI283
aI45
aI3586
aI417
aI316
aI577
asS'ori'
p6
S'This house believes that the sale of violent video games to minors should be banned'
p7
ssS'output'
p8
(dp9
g4
(lp10
I24
aI1005
aI226
aI217
aI8650
aI12338
aI182
aI7783
aI45
aI5629
aI2083
aI7182
aI2446
aI2474
aI7793
aI319
aI24393
aI182
aI637
aI7783
aI1518
aI2654
aI3537
aI63765
asg6
S'In Australia  while most DVD players are sold region-free to accommodate local consumer rights legislation  video game consoles are still sold fully region protected .'
p11
ss.