(dp1
S'input'
p2
(dp3
S'encoded'
p4
(lp5
I64
aI2179
aI394
aI1499
aI177
aI1819
aI34
aI160
asS'ori'
p6
S'This house would build high rises for housing'
p7
ssS'output'
p8
(dp9
g4
(lp10
I36002
aI6671
aI165
aI136
aI1413
aI138
aI3492
aI3926
aI6782
aI604
aI7702
aI2511
aI246
aI1619
aI63
aI667
aI6782
aI182
aI7
aI982
aI11794
aI63765
asg6
S'Sprawl consumes much more land per-capita than traditional urban developments because zoning laws generally require that new developments are of low density .'
p11
ss.