(dp1
S'input'
p2
(dp3
S'encoded'
p4
(lp5
I64
aI2179
aI43
aI63
aI134
aI116
aI400
aI21
aI34
aI3
aI260
aI45
aI3439
aI57
aI7
aI2381
asS'ori'
p6
S'This house believes that it is sometimes right for the government to restrict freedom of speech'
p7
ssS'output'
p8
(dp9
g4
(lp10
I24
aI248
aI4199
aI3
aI2483
aI557
aI3
aI3717
aI7
aI5640
aI3830
aI595
aI2051
aI14
aI1260
aI2381
aI138
aI394
aI316
aI30603
aI397
aI5617
aI63765
asg6
S'" In other words  the court held  the circumstances of wartime permit greater restrictions on free speech than would be allowable during peacetime .'
p11
ss.