(dp1
S'input'
p2
(dp3
S'encoded'
p4
(lp5
I64
aI2179
aI43
aI63
aI7382
aI116
aI400
aI4713
asS'ori'
p6
S'This house believes that bribery is sometimes acceptable'
p7
ssS'output'
p8
(dp9
g4
(lp10
I7776
aI6426
aI182
aI400
aI3
aI4091
aI24
aI878
aI7170
aI41
aI24
aI3
aI33
aI7
aI43687
aI10792
aI24
aI21434
aI10326
aI53
aI18297
aI382
aI12533
aI45
aI1274
aI2083
aI5677
aI5
aI972
aI86
aI1295
aI271
aI1413
aI87
aI171
aI22938
aI463
aI1499
aI89
aI43688
aI1344
aI63765
asg6
S'Ordinary Chinese are sometimes the victims in official corruption  as in the case of Hewan village in Jiangsu province  where 200 thugs were hired to attack local farmers and force them off their land so Party bosses could build a petrochemical plant .'
p11
ss.