(dp1
S'input'
p2
(dp3
S'encoded'
p4
(lp5
I64
aI2179
aI394
aI4325
aI2042
aI270
aI89
aI11605
aI3324
asS'ori'
p6
S'This house would fund education using a voucher scheme'
p7
ssS'output'
p8
(dp9
g4
(lp10
I3
aI2333
aI2029
aI871
aI3
aI4132
aI2179
aI63765
asg6
S'The conference bill passed the Virginia House 62-to-37  .'
p11
ss.