(dp1
S'input'
p2
(dp3
S'encoded'
p4
(lp5
I64
aI2179
aI394
aI4325
aI2042
aI270
aI89
aI11605
aI3324
asS'ori'
p6
S'This house would fund education using a voucher scheme'
p7
ssS'output'
p8
(dp9
g4
(lp10
I34
aI1343
aI14
aI425
aI3007
aI122
aI3
aI4064
aI2544
aI864
aI7
aI5334
aI45
aI4406
aI89
aI2179
aI3728
aI45
aI836
aI89
aI150
aI11246
aI4805
aI14
aI67
aI5
aI4240
aI6216
aI64
aI41
aI51
aI3327
aI475
aI7
aI9523
aI137
aI63765
asg6
S'For example  on January 22  2007  Paul was the lone member out of 415 voting to oppose a House measure to create a National Archives exhibit on slavery and Reconstruction  seeing this as an unauthorized use of taxpayer money .'
p11
ss.