(dp1
S'input'
p2
(dp3
S'encoded'
p4
(lp5
I64
aI2179
aI43
aI63
aI2157
aI2565
aI493
aI19084
aI382
aI4850
asS'ori'
p6
S"This house believes that Israel's 2008-2009 military operations against Gaza were justified"
p7
ssS'output'
p8
(dp9
g4
(lp10
I3
aI145
aI116
aI5688
aI7
aI89
aI2964
aI89
aI708
aI1863
aI5
aI2971
aI2940
aI63765
asg6
S'The system is composed of a radar  a control center  and interceptor missiles .'
p11
ss.