(dp1
S'input'
p2
(dp3
S'encoded'
p4
(lp5
I64
aI2179
aI394
aI2017
aI628
asS'ori'
p6
S'This house would ban gambling'
p7
ssS'output'
p8
(dp9
g4
(lp10
I89
aI909
aI60
aI51
aI22524
aI14
aI755
aI2179
aI47
aI5108
aI462
aI116
aI99
aI628
aI131
aI958
aI197
aI41
aI3
aI22525
aI55
aI51
aI1178
aI376
aI24
aI3
aI634
aI3524
aI7
aI3900
aI903
aI7
aI3
aI10985
aI2351
aI2738
aI7
aI3
aI63765
aI3
aI197
aI63765
asg6
S': a bet with an insurer on whether one\'s house will burn down is not gambling  but rather insurance  as the homeowner has an obvious interest in the continued existence of his/her home independent of the purely financial aspects of the "bet" (i .e .  the insurance policy) .'
p11
ss.