(dp1
S'input'
p2
(dp3
S'encoded'
p4
(lp5
I64
aI2179
aI394
aI2017
aI3807
aI314
aI3433
asS'ori'
p6
S'This house would ban partial birth abortions'
p7
ssS'output'
p8
(dp9
g4
(lp10
I2221
aI5193
aI7090
aI736
aI3
aI70
aI3270
aI63
aI3
aI3378
aI116
aI1301
aI1587
aI45
aI454
aI3463
aI3217
aI63765
asg6
S'Congress inserted findings into the law saying that the procedure is never needed to protect maternal health .'
p11
ss.