(dp1
S'input'
p2
(dp3
S'encoded'
p4
(lp5
I64
aI2179
aI394
aI2773
aI12505
asS'ori'
p6
S'This house would embrace multiculturalism'
p7
ssS'output'
p8
(dp9
g4
(lp10
I874
aI26404
aI81
aI32234
aI45
aI2318
aI2047
aI653
aI2571
aI3
aI1643
aI2706
aI1991
aI5
aI2231
aI619
aI4933
aI41
aI155
aI1453
aI99
aI2572
aI223
aI7
aI3
aI6543
aI7
aI2706
aI3914
aI159
aI41
aI1769
aI3
aI2706
aI3657
aI60
aI51
aI22766
aI63765
asg6
S'North Koreans who immigrated to South Korea  despite sharing the same Korean blood and history  face discrimination as they do not share all of the elements of Korean identity  such as speaking the Korean language with an accent .'
p11
ss.