(dp1
S'input'
p2
(dp3
S'encoded'
p4
(lp5
I64
aI2179
aI43
aI63
aI6670
aI546
aI417
aI316
aI89
aI1334
aI3108
aI7
aI4849
aI1886
aI2855
asS'ori'
p6
S'This house believes that wind power should be a primary focus of future energy supply'
p7
ssS'output'
p8
(dp9
g4
(lp10
I15
aI4975
aI5
aI35
aI3142
aI6771
aI4975
aI139
aI3709
aI501
aI34
aI6717
aI7
aI248
aI4975
aI75
aI6864
aI311
aI166
aI4204
aI34
aI1235
aI1727
aI131
aI115
aI116
aI913
aI75
aI3
aI697
aI4204
aI7
aI3
aI5094
aI1344
aI63765
asg6
S'Both pump-storage plants and natural flow hydro plants can help allow for intermittency of other plants by running at higher capacity for short times  but assistance is limited by the total capacity of the hydroelectric plant .'
p11
ss.