(dp1
S'input'
p2
(dp3
S'encoded'
p4
(lp5
I64
aI2179
aI43
aI63
aI3
aI21
aI45
aI12715
aI417
aI99
aI316
aI2897
asS'ori'
p6
S'This house believes that the right to asylum should not be absolute'
p7
ssS'output'
p8
(dp9
g4
(lp10
I637
aI149
aI500
aI134
aI84
aI736
aI404
aI3
aI544
aI24
aI3
aI2711
aI7
aI1718
aI7582
aI366
aI63765
asg6
S'Still less did it take into account the rise in the numbers of potential offenders after 1962 .'
p11
ss.