(dp1
S'input'
p2
(dp3
S'encoded'
p4
(lp5
I64
aI2179
aI43
aI63
aI3
aI4990
aI4991
aI116
aI4850
aI24
aI12166
aI3
aI475
aI7
aI3532
aI3290
aI7
aI4714
asS'ori'
p6
S'This house believes that the Catholic Church is justified in forbidding the use of barrier methods of contraception'
p7
ssS'output'
p8
(dp9
g4
(lp10
I3
aI612
aI55
aI12
aI3531
aI41
aI20113
aI8894
aI5
aI29931
aI75
aI100
aI658
aI3217
aI5726
aI5
aI7444
aI3727
aI63765
asg6
S"The Church's stance has been criticized as unrealistic  ineffective and irresponsible by some public health officials and AIDS activists  ."
p11
ss.