(dp1
S'input'
p2
(dp3
S'encoded'
p4
(lp5
I64
aI2179
aI394
aI2017
aI628
asS'ori'
p6
S'This house would ban gambling'
p7
ssS'output'
p8
(dp9
g4
(lp10
I691
aI132
aI11
aI419
aI982
aI1880
aI89
aI2179
aI7518
aI139
aI1483
aI1398
aI316
aI11180
aI1375
aI15954
aI3
aI4301
aI5919
aI63765
asg6
S'Since these high-payoffs have very low probability  a house bias can quite easily be missed unless checking the odds carefully  .'
p11
ss.