(dp1
S'input'
p2
(dp3
S'encoded'
p4
(lp5
I64
aI2179
aI394
aI163
aI959
aI2042
aI3557
asS'ori'
p6
S'This house would make physical education compulsory'
p7
ssS'output'
p8
(dp9
g4
(lp10
I4358
aI7
aI384
aI5755
aI153
aI15763
aI574
aI248
aI24
aI17
aI950
aI63765
asg6
S'Students of different ages often mentor each other in social skills .'
p11
ss.