(dp1
S'input'
p2
(dp3
S'encoded'
p4
(lp5
I64
aI2179
aI394
aI16756
aI20435
asS'ori'
p6
S'This house would criminalize blasphemy'
p7
ssS'output'
p8
(dp9
g4
(lp10
I89
aI177
aI2240
aI10185
aI122
aI9249
aI267
aI873
aI395
aI3982
aI89
aI8758
aI63765
asg6
S'A 16 year-old high school student was arrested two days later carrying a 9mm pistol .'
p11
ss.