(dp1
S'input'
p2
(dp3
S'encoded'
p4
(lp5
I64
aI2179
aI43
aI223
aI2138
aI11
aI89
aI21
aI45
aI2185
aI372
asS'ori'
p6
S'This house believes all nations have a right to nuclear weapons'
p7
ssS'output'
p8
(dp9
g4
(lp10
I14
aI492
aI420
aI63765
aI41550
aI41551
aI7
aI2371
aI122
aI2990
aI41
aI3
aI5606
aI448
aI34
aI3
aI27120
aI12251
aI12143
aI59884
aI59885
aI7
aI2318
aI2404
aI5
aI9221
aI5076
aI63765
aI59886
aI7
aI2293
aI63765
asg6
S'On July 2  2009  Mr . Yukiya Amano of Japan was elected as the Director General for the IAEA  defeating Abdul Samad Minty of South Africa and Luis E . Echavarri of Spain .'
p11
ss.