(dp1
S'input'
p2
(dp3
S'encoded'
p4
(lp5
I64
aI2179
aI394
aI2976
aI12243
aI24
aI954
aI126
aI1560
aI10723
asS'ori'
p6
S'This house would implement playoffs in collegiate level American football'
p7
ssS'output'
p8
(dp9
g4
(lp10
I3
aI3069
aI3070
aI1727
aI3470
aI63
aI12901
aI382
aI800
aI1191
aI13316
aI16704
aI5334
aI131
aI3
aI229
aI13316
aI5561
aI382
aI99
aI5162
aI45
aI4203
aI73
aI18508
aI3
aI13410
aI63765
asg6
S'The Los Angeles Times wrote that accusations were raised about coaches manipulated voting  but the individual coaches votes were not released to prove or disprove the allegations  .'
p11
ss.