(dp1
S'input'
p2
(dp3
S'encoded'
p4
(lp5
I64
aI2179
aI43
aI63
aI323
aI417
aI10009
aI211
aI9035
aI249
aI45
aI3426
aI211
aI2144
aI595
aI17
aI96
asS'ori'
p6
S'This house believes that Europe should weaken its austerity measures to guarantee its citizens greater social support'
p7
ssS'output'
p8
(dp9
g4
(lp10
I298
aI223
aI9392
aI440
aI12
aI925
aI311
aI2927
aI5
aI366
aI3
aI6085
aI4679
aI2494
aI440
aI297
aI45
aI9210
aI89
aI4013
aI3364
aI2489
aI34
aI3
aI8947
aI7176
aI75
aI6085
aI70
aI3
aI164
aI2572
aI7
aI6085
aI260
aI8947
aI45
aI619
aI89
aI7337
aI9205
aI440
aI753
aI45
aI63765
asg6
S'When all acceptances had been counted at March 9  and after the Greek parliament subsequently had decided to activate a collective action clause for the bonds covered by Greek law  the overall share of Greek government bonds to face a debt swap had reached 95 .7% (equal to ) .'
p11
ss.