(dp1
S'input'
p2
(dp3
S'encoded'
p4
(lp5
I64
aI2179
aI43
aI63
aI3
aI4538
aI7
aI4434
aI7793
aI283
aI45
aI3586
aI417
aI316
aI577
asS'ori'
p6
S'This house believes that the sale of violent video games to minors should be banned'
p7
ssS'output'
p8
(dp9
g4
(lp10
I248
aI27480
aI876
aI1985
aI3757
aI45
aI2507
aI52323
aI2363
aI73
aI124
aI7542
aI73
aI39544
aI4815
aI675
aI13219
aI319
aI15001
aI73
aI248
aI24357
aI14323
aI63765
asg6
S'Other cheats might give access to otherwise unplayable levels or provide unusual or amusing features  like altered game colors or other graphical appearances .'
p11
ss.