(dp1
S'input'
p2
(dp3
S'encoded'
p4
(lp5
I64
aI2179
aI394
aI2017
aI262
asS'ori'
p6
S'This house would ban boxing'
p7
ssS'output'
p8
(dp9
g4
(lp10
I1737
aI73
aI1738
aI45
aI1739
aI89
aI762
aI5
aI831
aI3
aI1740
aI760
aI73
aI536
aI611
aI87
aI63
aI134
aI1741
aI73
aI55
aI211
aI972
aI1742
aI1743
aI63765
asg6
S'Sway or fade  To anticipate a punch and move the upper body or head back so that it misses or has its force appreciably lessened .'
p11
ss.