(dp1
S'input'
p2
(dp3
S'encoded'
p4
(lp5
I64
aI2179
aI394
aI2773
aI12505
asS'ori'
p6
S'This house would embrace multiculturalism'
p7
ssS'output'
p8
(dp9
g4
(lp10
I22
aI4615
aI182
aI32250
aI1191
aI15785
aI3
aI177
aI126
aI7
aI2610
aI604
aI41
aI418
aI75
aI3
aI4999
aI5
aI14865
aI3
aI320
aI3
aI46
aI171
aI122
aI9299
aI34
aI3526
aI63
aI2610
aI2363
aI316
aI9369
aI19
aI45
asg6
S'Political parties are cautious about criticizing the high level of immigration  because  as noted by the Globe and Mail  "in the early 1990s  the Reform Party was branded \'racist\' for suggesting that immigration levels be lowered from 250 000 to 150 000 ."'
p11
ss.