(dp1
S'input'
p2
(dp3
S'encoded'
p4
(lp5
I64
aI2179
aI394
aI2017
aI3807
aI314
aI3433
asS'ori'
p6
S'This house would ban partial birth abortions'
p7
ssS'output'
p8
(dp9
g4
(lp10
I3313
aI3316
aI45
aI3317
aI53
aI2716
aI3318
aI732
aI45
aI3319
aI3320
aI63
aI3313
aI440
aI12
aI3321
aI41
aI3313
aI463
aI768
aI3322
aI89
aI976
aI3257
aI3
aI1462
aI63
aI2511
aI547
aI3257
aI24
aI3
aI3052
aI7
aI3323
aI5
aI63765
asg6
S"She returned to Dallas  where friends advised her to assert falsely that she had been raped  as she could then obtain a legal abortion (with the understanding that Texas' anti-abortion laws allowed abortion in the cases of rape and incest) ."
p11
ss.