(dp1
S'input'
p2
(dp3
S'encoded'
p4
(lp5
I64
aI2179
aI43
aI24
aI3
aI475
aI7
aI12436
aI3364
asS'ori'
p6
S'This house believes in the use of affirmative action'
p7
ssS'output'
p8
(dp9
g4
(lp10
I691
aI3
aI89
aI4169
aI9368
aI7
aI12436
aI3364
aI717
aI14
aI15703
aI116
aI24
aI238
aI34
aI1334
aI5
aI6954
aI2042
aI63765
asg6
S'(http://thisnation .com/library/france .html) Since the 1980s  a French version of affirmative action based on neighborhood is in place for primary and secondary education .'
p11
ss.