(dp1
S'input'
p2
(dp3
S'encoded'
p4
(lp5
I64
aI2179
aI43
aI8629
aI116
aI3
aI117
aI998
asS'ori'
p6
S'This house believes atheism is the only way'
p7
ssS'output'
p8
(dp9
g4
(lp10
I42
aI2509
aI3
aI3524
aI7
aI159
aI51
aI4661
aI45
aI316
aI89
aI3863
aI2802
aI604
aI89
aI3782
aI60
aI159
aI89
aI5480
aI394
aI316
aI994
aI384
aI19
aI89
aI3782
aI252
aI93
aI5
aI42
aI2538
aI63
aI3
aI4900
aI394
aI316
aI19017
aI16936
aI63765
asg6
S'He considers the existence of such an entity to be a scientific question  because a universe with such a god would be significantly different from a universe without one  and he says that the difference would be empirically discernible .'
p11
ss.