(dp1
S'input'
p2
(dp3
S'encoded'
p4
(lp5
I64
aI2179
aI394
aI117
aI7428
aI21151
aI34
aI11389
aI2042
aI24
aI4364
asS'ori'
p6
S'This house would only teach abstinence for sex education in schools'
p7
ssS'output'
p8
(dp9
g4
(lp10
I4741
aI11
aI174
aI353
aI63
aI3
aI494
aI51
aI5027
aI116
aI311
aI3
aI413
aI7
aI271
aI8803
aI29389
aI3
aI595
aI3
aI11560
aI63
aI155
aI47
aI268
aI24
aI17091
aI1647
aI395
aI63765
asg6
S'Researchers have also found that the younger an adolescent is at the time of their sexual debut  the greater the likelihood that they will engage in delinquent acts later .'
p11
ss.