(dp1
S'input'
p2
(dp3
S'encoded'
p4
(lp5
I64
aI2179
aI394
aI2017
aI628
asS'ori'
p6
S'This house would ban gambling'
p7
ssS'output'
p8
(dp9
g4
(lp10
I134
aI55
aI12
aI426
aI63
aI136
aI138
aI7618
aI382
aI955
aI291
aI5
aI5
aI2757
aI89
aI281
aI2210
aI24
aI2373
aI6761
aI10181
aI6001
aI10275
aI28511
aI24621
aI7102
aI63765
asg6
S'It has been recorded that more than 200 lotteries were sanctioned between 1744 and 1776  and played a major role in financing roads  libraries  churches  colleges  canals  bridges  etc  .'
p11
ss.