(dp1
S'input'
p2
(dp3
S'encoded'
p4
(lp5
I64
aI2179
aI394
aI5284
aI150
aI3987
asS'ori'
p6
S'This house would reintroduce national service'
p7
ssS'output'
p8
(dp9
g4
(lp10
I12233
aI3007
aI15966
aI7
aI667
aI7550
aI2233
aI1190
aI24
aI89
aI7954
aI5
aI2233
aI3572
aI417
aI316
aI557
aI45
aI3
aI2810
aI4707
aI2140
aI63765
asg6
S"Democrat Paul Hodes of New Hampshire noted: I think we're in a zero-tolerance atmosphere  and I think. Washington should be held to the highest ethical standards ."
p11
ss.