(dp1
S'input'
p2
(dp3
S'encoded'
p4
(lp5
I64
aI2179
aI394
aI4325
aI2042
aI270
aI89
aI11605
aI3324
asS'ori'
p6
S'This house would fund education using a voucher scheme'
p7
ssS'output'
p8
(dp9
g4
(lp10
I6269
aI3592
aI34
aI3
aI2240
aI11617
aI45
aI92
aI108
aI5
aI979
aI5052
aI3862
aI182
aI699
aI116
aI174
aI994
aI979
aI138
aI3
aI3592
aI34
aI3
aI2240
aI11617
aI45
aI92
aI3862
aI7
aI10459
aI5743
aI182
aI699
aI63765
asg6
S'Consequently  funding for the school districts to which working and lower class children are assigned is also significantly lower than the funding for the school districts to which children of affluent families are assigned .'
p11
ss.