(dp1
S'input'
p2
(dp3
S'encoded'
p4
(lp5
I64
aI2179
aI394
aI1499
aI177
aI1819
aI34
aI160
asS'ori'
p6
S'This house would build high rises for housing'
p7
ssS'output'
p8
(dp9
g4
(lp10
I366
aI89
aI1387
aI7
aI589
aI2439
aI667
aI35842
aI182
aI374
aI375
aI773
aI2676
aI24
aI28543
aI483
aI182
aI34
aI6374
aI78
aI5076
aI63765
asg6
S'After a gap of around 30 years  new high-rise flats are once again being built in Belfast  Birmingham (some are for wealthy people  e .g .'
p11
ss.