(dp1
S'input'
p2
(dp3
S'encoded'
p4
(lp5
I64
aI2179
aI43
aI63
aI1036
aI4828
aI33250
aI116
aI25073
aI45
aI3315
aI4562
asS'ori'
p6
S'This house believes that male infant circumcision is tantamount to child abuse'
p7
ssS'output'
p8
(dp9
g4
(lp10
I233
aI45
aI34866
aI134
aI122
aI174
aI344
aI41
aI89
aI2034
aI852
aI7
aI33254
aI3
aI6313
aI5
aI398
aI3
aI11085
aI7
aI3
aI33218
aI45
aI1036
aI8803
aI6424
aI5
aI3
aI15620
aI7
aI15
aI9247
aI122
aI1614
aI75
aI34867
aI34868
aI18717
aI34869
aI34870
aI34871
aI5
aI3520
aI24478
aI24
aI939
aI11389
aI13088
aI675
aI5
aI75
aI2039
aI675
aI495
aI4094
aI81
aI174
aI9707
aI3
aI596
aI7
aI3
aI33218
aI24
aI193
aI3
aI11749
aI20247
aI1587
aI45
aI5629
aI51
aI18779
aI63765
asg6
S'According to Darby  it was also seen as a serious loss of erogenous tissue: "During the Renaissance and 18th century the centrality of the foreskin to male sexual function and the pleasure of both partners was recognised by anatomists Berengario da Carpi  Gabriello Fallopio and William Harvey  in popular sex manuals like Aristotle\'s master-piece  and by physicians like John Hunter  who also appreciated the importance of the foreskin in providing the slack tissue needed to accommodate an erection .'
p11
ss.