(dp1
S'input'
p2
(dp3
S'encoded'
p4
(lp5
I64
aI2179
aI394
aI60
aI23587
asS'ori'
p6
S'This house would re-engage with Myanmar'
p7
ssS'output'
p8
(dp9
g4
(lp10
I78
aI24
aI3118
aI174
aI2586
aI45
aI24932
aI9837
aI7
aI138
aI50576
aI589
aI3
aI50677
aI17392
aI22507
aI41
aI134
aI116
aI89
aI419
aI2369
aI10126
aI24
aI12800
aI3309
aI45
aI316
aI566
aI60
aI89
aI33002
aI5
aI2586
aI45
aI17294
aI24620
aI24
aI22271
aI5
aI1454
aI6745
aI60
aI10492
aI159
aI41
aI138
aI63765
asg6
S'People in Burma also began to hang pictures of Than Shwe around the necks stray dogs  as it is a very strong insult in Burmese tradition to be associated with a dog  and began to spray anti-junta graffiti in bus and train stations  with slogans such as "killer Than Shwe"  .'
p11
ss.