(dp1
S'input'
p2
(dp3
S'encoded'
p4
(lp5
I64
aI2179
aI43
aI17
aI4941
aI857
aI3211
asS'ori'
p6
S'This house believes social deprivation causes crime'
p7
ssS'output'
p8
(dp9
g4
(lp10
I93
aI1343
aI7
aI64
aI116
aI63
aI3862
aI725
aI1727
aI4447
aI4212
aI366
aI2240
aI5
aI226
aI271
aI8532
aI182
aI311
aI79
aI73
aI17084
aI63765
asg6
S'One example of this is that children many times commit crimes after school and while their parents are at work or preoccupied  .'
p11
ss.