(dp1
S'input'
p2
(dp3
S'encoded'
p4
(lp5
I64
aI2179
aI394
aI2741
aI3
aI1560
aI6025
aI2784
asS'ori'
p6
S'This house would pass the American Jobs Act'
p7
ssS'output'
p8
(dp9
g4
(lp10
I14
aI492
aI3
aI34066
aI905
aI480
aI5342
aI45
aI10417
aI14
aI9449
aI92
aI34066
aI3326
aI382
aI12475
aI5132
aI4600
aI973
aI75
aI3
aI2145
aI63765
aI2176
aI7
aI6678
aI34
aI2930
aI159
aI41
aI229
aI9076
aI7
aI34067
aI21973
aI10775
aI31164
aI5
aI19263
aI9697
aI19124
aI4136
aI7
aI5806
aI45
aI289
aI89
aI2639
aI2666
aI63765
asg6
S'On July 20  2009  the Drudge Report published links to pages on Recovery .org which Drudge alleged were detailing expensive contracts awarded by the U .S . Department of Agriculture for items such as individual portions of mozzarella cheese  frozen ham and canned pork  costing hundreds of thousands to over a million dollars .'
p11
ss.