(dp1
S'input'
p2
(dp3
S'encoded'
p4
(lp5
I64
aI2179
aI43
aI63
aI3
aI4990
aI4991
aI116
aI4850
aI24
aI12166
aI3
aI475
aI7
aI3532
aI3290
aI7
aI4714
asS'ori'
p6
S'This house believes that the Catholic Church is justified in forbidding the use of barrier methods of contraception'
p7
ssS'output'
p8
(dp9
g4
(lp10
I298
aI1610
aI985
aI1795
aI116
aI534
aI691
aI64
aI116
aI89
aI16620
aI8803
aI8935
aI24
aI92
aI17085
aI41
aI17847
aI89
aI73
aI39860
aI139
aI316
aI1398
aI20997
aI41
aI261
aI41
aI45900
aI20270
aI63765
asg6
S'When anal-oral contact occurs  protection is required since this is a risky sexual behavior in which illnesses as Hepatitis A or STIs can be easily transmitted  as well as enteric infections .'
p11
ss.