(dp1
S'input'
p2
(dp3
S'encoded'
p4
(lp5
I64
aI2179
aI43
aI63
aI3
aI4990
aI4991
aI116
aI4850
aI24
aI12166
aI3
aI475
aI7
aI3532
aI3290
aI7
aI4714
asS'ori'
p6
S'This house believes that the Catholic Church is justified in forbidding the use of barrier methods of contraception'
p7
ssS'output'
p8
(dp9
g4
(lp10
I19
aI487
aI25
aI4168
aI41
aI6359
aI42
aI122
aI174
aI9468
aI7
aI3
aI4758
aI7
aI6360
aI5
aI41
aI159
aI3
aI26632
aI12384
aI26633
aI887
aI3
aI6360
aI63765
asg6
S'From 2002 until his election as Pope  he was also Dean of the College of Cardinals  and as such the primus inter pares among the cardinals .'
p11
ss.