(dp1
S'input'
p2
(dp3
S'encoded'
p4
(lp5
I64
aI2179
aI394
aI3830
aI3
aI475
aI7
aI9441
aI13132
aI3102
aI24
aI276
aI381
asS'ori'
p6
S'This house would permit the use of performance enhancing drugs in professional sports'
p7
ssS'output'
p8
(dp9
g4
(lp10
I155
aI174
aI11
aI3
aI5433
aI7
aI270
aI3
aI2453
aI2227
aI5549
aI23316
aI290
aI8758
aI63765
asg6
S'They also have the option of using the newly appointed Smith & Wesson M&P series pistol .'
p11
ss.