(dp1
S'input'
p2
(dp3
S'encoded'
p4
(lp5
I64
aI2179
aI43
aI63
aI187
aI417
aI99
aI16642
aI3
aI6449
aI7
aI3935
asS'ori'
p6
S'This house believes that states should not subsidize the growing of tobacco'
p7
ssS'output'
p8
(dp9
g4
(lp10
I14
aI88
aI667
aI2086
aI4996
aI6075
aI89
aI14833
aI2017
aI34
aI223
aI8165
aI25325
aI5
aI23959
aI7764
aI24
aI51
aI1222
aI45
aI6726
aI7188
aI13008
aI45
aI3180
aI75
aI6669
aI3935
aI10873
aI63765
asg6
S'On May 23  2011  New York City enforced a smoking ban for all parks  beaches  and pedestrian malls in an attempt to eliminate threats posed to civilians by environmental tobacco smoke  .'
p11
ss.