(dp1
S'input'
p2
(dp3
S'encoded'
p4
(lp5
I64
aI2179
aI394
aI4325
aI2042
aI270
aI89
aI11605
aI3324
asS'ori'
p6
S'This house would fund education using a voucher scheme'
p7
ssS'output'
p8
(dp9
g4
(lp10
I7
aI120
aI81
aI4012
aI2178
aI4758
aI1649
aI256
aI24
aI3
aI117
aI1191
aI1645
aI24
aI863
aI2439
aI63765
asg6
S'Of those who entered community college transfer programs in the mid-90s  only about 17% transferred in five years  .'
p11
ss.