(dp1
S'input'
p2
(dp3
S'encoded'
p4
(lp5
I64
aI2179
aI43
aI63
aI3357
aI5003
aI652
aI3
aI188
aI3262
asS'ori'
p6
S'This house believes that opinion polls harm the democratic process'
p7
ssS'output'
p8
(dp9
g4
(lp10
I3
aI10539
aI782
aI764
aI604
aI298
aI78
aI81
aI182
aI344
aI41
aI3344
aI2471
aI3357
aI153
aI254
aI167
aI7422
aI864
aI26195
aI3
aI3609
aI785
aI89
aI595
aI2498
aI7
aI2384
aI7
aI11561
aI5
aI116
aI1706
aI8265
aI45
aI2455
aI3575
aI691
aI155
aI12517
aI777
aI45
aI316
aI24
aI3
aI3716
aI63765
asg6
S'The spiral effect begins because when people who are seen as representing majority opinion  often authority figures  speak out confidently  the opposition feels a greater sense of fear of isolation and is further convinced to remain silent  since they perceive themselves to be in the minority .'
p11
ss.