(dp1
S'input'
p2
(dp3
S'encoded'
p4
(lp5
I64
aI2179
aI43
aI63
aI2157
aI2565
aI493
aI19084
aI382
aI4850
asS'ori'
p6
S"This house believes that Israel's 2008-2009 military operations against Gaza were justified"
p7
ssS'output'
p8
(dp9
g4
(lp10
I3
aI3500
aI3083
aI75
aI2618
aI63
aI2445
aI2446
aI3136
aI8037
aI63
aI3
aI905
aI55
aI5665
aI2997
aI45
aI8035
aI214
aI7
aI13418
aI5
aI1160
aI7
aI7164
aI34
aI2223
aI4212
aI63765
asg6
S'The article concludes by stating that human rights groups note that the report has reinforced efforts to tackle issues of impunity and lack of accountability for war crimes  .'
p11
ss.