(dp1
S'input'
p2
(dp3
S'encoded'
p4
(lp5
I64
aI2179
aI394
aI5284
aI150
aI3987
asS'ori'
p6
S'This house would reintroduce national service'
p7
ssS'output'
p8
(dp9
g4
(lp10
I25
aI5046
aI60
aI13152
aI3
aI4433
aI5
aI4658
aI7
aI1968
aI3102
aI2425
aI45
aI25
aI1604
aI14083
aI7
aI3
aI2179
aI4145
aI2180
aI14
aI8711
aI53
aI42
aI2385
aI3781
aI150
aI2136
aI14
aI3
aI845
aI397
aI3
aI63765
asg6
S'His long-time concerns with battling the importation and effects of illegal drugs led to his becoming chair of the House Select Committee on Narcotics  where he helped define national policy on the issue during the 1980s .'
p11
ss.