(dp1
S'input'
p2
(dp3
S'encoded'
p4
(lp5
I64
aI2179
aI43
aI63
aI1036
aI4828
aI33250
aI116
aI25073
aI45
aI3315
aI4562
asS'ori'
p6
S'This house believes that male infant circumcision is tantamount to child abuse'
p7
ssS'output'
p8
(dp9
g4
(lp10
I3
aI225
aI6828
aI7
aI89
aI4637
aI760
aI18893
aI24
aI3
aI565
aI7
aI3309
aI72
aI73
aI351
aI248
aI3365
aI521
aI417
aI1301
aI316
aI4713
asg6
S'the unnecessary removal of a functioning body organ in the name of tradition  custom or any other non-disease related cause should never be acceptable'
p11
ss.