(dp1
S'input'
p2
(dp3
S'encoded'
p4
(lp5
I64
aI2179
aI394
aI10662
aI626
aI187
aI2157
aI2697
aI19
aI2371
asS'ori'
p6
S'This house would remove United States military bases from Japan'
p7
ssS'output'
p8
(dp9
g4
(lp10
I2692
aI2814
aI45
aI4406
aI3
aI578
aI7
aI2185
aI834
aI736
aI2692
aI2295
aI75
aI3
aI3705
aI7
aI2136
aI5
aI89
aI3419
aI7
aI3
aI292
aI2747
aI63765
asg6
S"Japanese tended to oppose the introduction of nuclear arms into Japanese territory by the government's assertion of non-nuclear policy and a statement of the Three Non-Nuclear Principles ."
p11
ss.