(dp1
S'input'
p2
(dp3
S'encoded'
p4
(lp5
I64
aI2179
aI394
aI190
aI3
aI21
aI45
aI3895
aI834
asS'ori'
p6
S'This house would limit the right to bear arms'
p7
ssS'output'
p8
(dp9
g4
(lp10
I64
aI3545
aI472
aI3
aI4536
aI5
aI4433
aI7
aI100
aI17239
aI3892
aI63
aI60459
aI2157
aI723
aI4815
aI159
aI41
aI89
aI17296
aI7664
aI8758
aI19401
aI5
aI12154
aI60460
aI41
aI261
aI41
aI3956
aI795
aI136
aI138
aI767
aI295
aI63765
asg6
S'This provision prohibited the manufacture and importation of some semiautomatic firearms that exhibitied military style features such as a folding stock  pistol grip and flash suppressor  as well as magazines holding more than ten rounds  .'
p11
ss.