(dp1
S'input'
p2
(dp3
S'encoded'
p4
(lp5
I64
aI2179
aI43
aI63
aI3
aI21
aI45
aI12715
aI417
aI99
aI316
aI2897
asS'ori'
p6
S'This house believes that the right to asylum should not be absolute'
p7
ssS'output'
p8
(dp9
g4
(lp10
I134
aI122
aI3772
aI45
aI3209
aI3
aI475
aI7
aI41745
aI5
aI34
aI3353
aI273
aI122
aI89
aI281
aI1546
aI7
aI1585
aI60
aI12992
aI2969
aI45
aI1454
aI2610
aI3243
aI45
aI163
aI475
aI7
aI271
aI2280
aI7
aI11653
aI1985
aI86
aI136
aI2280
aI7
aI6898
aI5
aI163
aI86
aI149
aI18842
aI14
aI631
aI2635
aI382
aI1640
aI89
aI1896
aI2930
aI14
aI89
aI8153
aI6856
aI7
aI2438
aI2149
aI588
aI75
aI1182
aI19748
aI7
aI137
aI5
aI3578
aI413
aI24
aI4679
aI63765
asg6
S'It was planned to expand the use of fingerprinting and  for enforcement  there was a major change of direction with ambitious plans to train immigration officers to make use of their powers of arrest  give them more powers of search and make them less reliant on police resources .These were just a few items on a lengthy programme of changes  backed up by substantial promises of money and legislative time in Parliament .'
p11
ss.