(dp1
S'input'
p2
(dp3
S'encoded'
p4
(lp5
I64
aI2179
aI394
aI2017
aI262
asS'ori'
p6
S'This house would ban boxing'
p7
ssS'output'
p8
(dp9
g4
(lp10
I34
aI64
aI1025
aI455
aI153
aI1026
aI1027
aI564
aI1028
aI116
aI45
aI1029
aI1030
aI291
aI295
aI87
aI63
aI3
aI484
aI116
aI1031
aI45
aI302
aI653
aI3
aI1024
aI63765
asg6
S'For this reason  fighters often employ cutmen  whose job is to treat cuts between rounds so that the boxer is able to continue despite the cut .'
p11
ss.