(dp1
S'input'
p2
(dp3
S'encoded'
p4
(lp5
I64
aI2179
aI394
aI2773
aI12505
asS'ori'
p6
S'This house would embrace multiculturalism'
p7
ssS'output'
p8
(dp9
g4
(lp10
I2569
aI8508
aI34
aI4364
aI24
aI89
aI15307
aI2328
aI1230
aI1609
aI100
aI2755
aI7167
aI63765
asg6
S'Planning curriculum for schools in a multicultural democracy involves making some value choices .'
p11
ss.