(dp1
S'input'
p2
(dp3
S'encoded'
p4
(lp5
I64
aI2179
aI43
aI223
aI2138
aI11
aI89
aI21
aI45
aI2185
aI372
asS'ori'
p6
S'This house believes all nations have a right to nuclear weapons'
p7
ssS'output'
p8
(dp9
g4
(lp10
I14
aI2871
aI25683
aI33537
aI988
aI63
aI113
aI3922
aI2046
aI122
aI1370
aI45
aI949
aI89
aI2185
aI2418
aI155
aI394
aI1619
aI97
aI292
aI5
aI784
aI2439
aI45
aI51
aI7142
aI2622
aI75
aI3
aI1306
aI63765
asg6
S'On 22 October 2007  Mohamed ElBaradei repeated that  even assuming Iran was trying to develop a nuclear bomb  they would require "between another three and eight years to succeed"  an assessment shared by "all the intelligence services"  .'
p11
ss.