(dp1
S'input'
p2
(dp3
S'encoded'
p4
(lp5
I64
aI2179
aI43
aI63
aI3357
aI5003
aI652
aI3
aI188
aI3262
asS'ori'
p6
S'This house believes that opinion polls harm the democratic process'
p7
ssS'output'
p8
(dp9
g4
(lp10
I24
aI51
aI5119
aI1780
aI1640
aI206
aI93
aI2007
aI316
aI273
aI45
aI2998
aI89
aI3716
aI957
aI7
aI234
aI113
aI257
aI134
aI1509
aI139
aI4883
aI51
aI312
aI45
aI89
aI10539
aI7
aI10540
aI63765
asg6
S'In an online situation just having one person be there to encourage a minority point of view even if it differs can put an end to a spiral of silence .'
p11
ss.