(dp1
S'input'
p2
(dp3
S'encoded'
p4
(lp5
I64
aI2179
aI235
aI3
aI2136
aI7
aI3
aI2306
aI7
aI2390
asS'ori'
p6
S'This house supports the one-child policy of the republic of China'
p7
ssS'output'
p8
(dp9
g4
(lp10
I3
aI37413
aI7
aI37414
aI7389
aI2285
aI5
aI37415
aI11
aI2118
aI45
aI316
aI1058
aI41
aI89
aI11104
aI45
aI34316
aI2138
aI691
aI155
aI2830
aI45
aI37416
aI1931
aI3
aI37417
aI2234
aI7
aI3
aI2445
aI4226
aI63765
asg6
S'The scourges of pestilence  famine  wars and earthquakes have come to be regarded as a blessing to overcrowded nations  since they serve to prune away the luxuriant growth of the human race .'
p11
ss.