(dp1
S'input'
p2
(dp3
S'encoded'
p4
(lp5
I64
aI2179
aI43
aI63
aI2157
aI2565
aI493
aI19084
aI382
aI4850
asS'ori'
p6
S"This house believes that Israel's 2008-2009 military operations against Gaza were justified"
p7
ssS'output'
p8
(dp9
g4
(lp10
I24
aI89
aI3419
aI3
aI5496
aI7
aI2135
aI2181
aI7
aI6079
aI174
aI7132
aI3
aI1068
aI34
aI839
aI2250
aI8519
aI7
aI3
aI6056
aI5
aI19088
aI28072
aI1636
aI89
aI7088
aI213
aI45
aI3
aI19088
aI3661
aI5
aI3
aI69
aI2210
aI9142
aI2203
aI139
aI6372
aI63765
asg6
S'In a statement  the Ministry of Foreign Affairs of Cyprus also emphasised the need for direct peace talks of the Israeli and Palestinian leaderships towards a comprehensive solution to the Palestinian problem  and the positive role neighboring countries can play .'
p11
ss.