(dp1
S'input'
p2
(dp3
S'encoded'
p4
(lp5
I64
aI2179
aI43
aI63
aI2157
aI2565
aI493
aI19084
aI382
aI4850
asS'ori'
p6
S"This house believes that Israel's 2008-2009 military operations against Gaza were justified"
p7
ssS'output'
p8
(dp9
g4
(lp10
I5409
aI7
aI3
aI9915
aI3609
aI171
aI46396
aI46397
aI46398
aI1274
aI2659
aI34
aI211
aI20031
aI6466
aI134
aI89
aI5
aI7
aI3
aI19088
aI78
asg6
S'"The leader of the Hungarian opposition party Jobbik  Krisztina Morvai  attack Israel for its offensive  calling it a "mass murder" and "genocide of the Palestinian people ."'
p11
ss.