(dp1
S'input'
p2
(dp3
S'encoded'
p4
(lp5
I64
aI2179
aI394
aI60
aI23587
asS'ori'
p6
S'This house would re-engage with Myanmar'
p7
ssS'output'
p8
(dp9
g4
(lp10
I120
aI17121
aI2100
aI2759
aI3833
aI7024
aI11785
aI11785
aI50544
aI1047
aI41
aI50628
aI41475
aI50629
aI5
aI50595
aI50630
aI63765
asg6
S'Those detained included prominent woman activist Thin Thin Aye (also known as Mie Mie)  Aung Htoo and Htay Kywe .'
p11
ss.