(dp1
S'input'
p2
(dp3
S'encoded'
p4
(lp5
I64
aI2179
aI43
aI63
aI134
aI116
aI400
aI21
aI34
aI3
aI260
aI45
aI3439
aI57
aI7
aI2381
asS'ori'
p6
S'This house believes that it is sometimes right for the government to restrict freedom of speech'
p7
ssS'output'
p8
(dp9
g4
(lp10
I4169
aI70
aI4542
aI658
aI2381
aI73
aI8032
aI63
aI30627
aI45
aI10250
aI73
aI2767
aI11095
aI41
aI261
aI41
aI120
aI63
aI4934
aI3
aI11083
aI63765
asg6
S'French law prohibits public speech or writings that incite to racial or religious hatred  as well as those that deny the Holocaust .'
p11
ss.