(dp1
S'input'
p2
(dp3
S'encoded'
p4
(lp5
I64
aI2179
aI394
aI5370
aI3
aI5286
asS'ori'
p6
S'This house would abolish the monarchy'
p7
ssS'output'
p8
(dp9
g4
(lp10
I64
aI24120
aI122
aI395
aI3228
aI5
aI1360
aI4635
aI45
aI175
aI12913
aI34
aI1655
aI89
aI7595
aI2022
aI92
aI2359
aI427
aI41
aI4981
aI63
aI3
aI536
aI4170
aI5
aI3997
aI7
aI5286
aI122
aI1889
aI12913
aI5
aI3
aI14704
aI7
aI3
aI279
aI460
aI1636
aI595
aI3240
aI63765
asg6
S'This memo was later leaked  and widely understood to criticise meritocracy for creating a competitive society  which republicans took as proof that the head aristocrat  and symbol of monarchy  was attacking meritocracy and the motivation of the common man towards greater achievement .'
p11
ss.