(dp1
S'input'
p2
(dp3
S'encoded'
p4
(lp5
I64
aI2179
aI43
aI223
aI2138
aI11
aI89
aI21
aI45
aI2185
aI372
asS'ori'
p6
S'This house believes all nations have a right to nuclear weapons'
p7
ssS'output'
p8
(dp9
g4
(lp10
I24
aI3
aI237
aI2467
aI7
aI3
aI398
aI5247
aI122
aI11113
aI60
aI6782
aI24
aI3
aI1462
aI7
aI3
aI580
aI7
aI11689
aI63765
asg6
S'In the first decades of the 20th century  physics was revolutionised with developments in the understanding of the nature of atoms .'
p11
ss.