(dp1
S'input'
p2
(dp3
S'encoded'
p4
(lp5
I64
aI2179
aI43
aI24
aI3
aI475
aI7
aI12436
aI3364
asS'ori'
p6
S'This house believes in the use of affirmative action'
p7
ssS'output'
p8
(dp9
g4
(lp10
I17
aI6348
aI159
aI41
aI5338
aI103
aI63
aI17
aI5969
aI417
aI10869
aI63765
asg6
S'Social theories such as Egalitarianism claim that social equality should prevail .'
p11
ss.