(dp1
S'input'
p2
(dp3
S'encoded'
p4
(lp5
I64
aI2179
aI394
aI5370
aI3
aI5286
asS'ori'
p6
S'This house would abolish the monarchy'
p7
ssS'output'
p8
(dp9
g4
(lp10
I45
aI3397
aI1603
aI3
aI21
aI5577
aI3
aI6538
aI6796
aI7
aI3296
aI176
aI63
aI3
aI3800
aI7
aI5969
aI116
aI14729
aI45
aI2022
aI63765
asg6
S'To varying degrees  the Right rejects the egalitarian objectives of left-wing politics  claiming that the imposition of equality is detrimental to society  .'
p11
ss.