(dp1
S'input'
p2
(dp3
S'encoded'
p4
(lp5
I64
aI2179
aI43
aI63
aI3
aI4538
aI7
aI4434
aI7793
aI283
aI45
aI3586
aI417
aI316
aI577
asS'ori'
p6
S'This house believes that the sale of violent video games to minors should be banned'
p7
ssS'output'
p8
(dp9
g4
(lp10
I134
aI122
aI395
aI1518
aI56
aI5
aI3
aI319
aI3784
aI3
aI2648
aI9103
aI63765
asg6
S'It was later fully removed and the game retained the M rating .'
p11
ss.