(dp1
S'input'
p2
(dp3
S'encoded'
p4
(lp5
I64
aI2179
aI43
aI63
aI2659
aI417
aI1690
aI3
aI12048
aI7
aI19084
asS'ori'
p6
S'This house believes that Israel should lift the blockade of Gaza'
p7
ssS'output'
p8
(dp9
g4
(lp10
I2930
aI7872
aI459
aI3
aI30220
aI41
aI568
aI24
aI3
aI4548
aI5635
aI14
aI2882
aI2183
aI34
aI834
aI5
aI16102
aI475
aI7500
aI5
aI2947
aI2924
aI7
aI16102
aI475
aI7500
aI5
aI2947
aI5
aI2416
aI2924
asg6
S'Items listed under the Wassenaar Arrangement: As specified in the updated (2008) "Wassenaar Arrangement on Export Controls for Arms and Dual Use Goods and Technologies - List of Dual Use Goods and Technologies and Munitions List ."'
p11
ss.