(dp1
S'input'
p2
(dp3
S'encoded'
p4
(lp5
I64
aI2179
aI394
aI5370
aI7146
aI4585
aI2446
asS'ori'
p6
S'This house would abolish intellectual property rights'
p7
ssS'output'
p8
(dp9
g4
(lp10
I580
aI55
aI221
aI351
aI93
aI1963
aI149
aI1820
aI138
aI223
aI80
aI7
aI2508
aI4585
aI134
aI116
aI3
aI3364
aI7
aI3
aI3659
aI546
aI263
aI51
aI2096
aI92
aI51
aI229
aI88
aI9358
aI1897
aI41
aI572
aI41
aI42
aI1259
aI134
aI45
aI131
aI3
aI1798
aI134
aI116
aI20749
aI134
aI2219
aI2126
aI736
aI3
aI4539
aI7
aI1928
aI93
aI5
aI3
aI24220
aI1019
aI22032
aI1020
aI7
aI134
aI63765
asg6
S'"If nature has made any one thing less susceptible than all others of exclusive property  it is the action of the thinking power called an idea  which an individual may exclusively possess as long as he keeps it to himself; but the moment it is divulged  it forces itself into the possession of every one  and the receiver cannot dispossess himself of it .'
p11
ss.