(dp1
S'input'
p2
(dp3
S'encoded'
p4
(lp5
I64
aI2179
aI43
aI223
aI2138
aI11
aI89
aI21
aI45
aI2185
aI372
asS'ori'
p6
S'This house believes all nations have a right to nuclear weapons'
p7
ssS'output'
p8
(dp9
g4
(lp10
I14
aI2805
aI24
aI89
aI7807
aI24
aI33542
aI60
aI3
aI5606
aI5
aI5726
aI7
aI3
aI2417
aI1886
aI2134
aI7
aI2046
aI5
aI2185
aI6834
aI5409
aI7
aI3
aI2763
aI2232
aI12163
aI33606
aI1076
aI12164
aI5756
aI2548
aI55
aI1301
aI5535
aI5
aI47
aI1301
aI3222
aI2185
aI372
aI63765
asg6
S'On 22nd February 2012  in a meeting in Tehran with the director and officials of the Atomic Energy Organization of Iran (AEOI) and nuclear scientists  Leader of the Islamic Revolution Ayatollah Seyyed Ali Khamenei said: "The Iranian nation has never pursued and will never pursue nuclear weapons .'
p11
ss.