(dp1
S'input'
p2
(dp3
S'encoded'
p4
(lp5
I64
aI2179
aI394
aI4325
aI2042
aI270
aI89
aI11605
aI3324
asS'ori'
p6
S'This house would fund education using a voucher scheme'
p7
ssS'output'
p8
(dp9
g4
(lp10
I42
aI7515
aI3572
aI2365
aI63765
aI41
aI2295
aI1928
aI2176
aI2904
aI706
aI75
aI5777
aI5556
aI7
aI5257
aI16017
aI5257
aI20019
aI24
aI177
aI260
aI1589
aI63765
asg6
S'" He sees Washington D .C . as "corporate-occupied territory  every department agency controlled by overwhelming presence of corporate lobbyists  corporate executives in high government positions .'
p11
ss.