(dp1
S'input'
p2
(dp3
S'encoded'
p4
(lp5
I64
aI2179
aI394
aI2741
aI3
aI1560
aI6025
aI2784
asS'ori'
p6
S'This house would pass the American Jobs Act'
p7
ssS'output'
p8
(dp9
g4
(lp10
I3
aI2211
aI768
aI2586
aI3480
aI7
aI3
aI2029
aI1696
aI60
aI3
aI2155
aI4262
aI3663
aI24
aI3
aI3427
aI7
aI2805
aI63765
asg6
S'The Senate then began consideration of the bill starting with the $275 billion tax provisions in the week of February 2  2009  .'
p11
ss.