(dp1
S'input'
p2
(dp3
S'encoded'
p4
(lp5
I64
aI2179
aI394
aI163
aI959
aI2042
aI3557
asS'ori'
p6
S'This house would make physical education compulsory'
p7
ssS'output'
p8
(dp9
g4
(lp10
I24
aI3
aI237
aI2206
aI2503
aI7051
aI382
aI480
aI11612
aI7051
aI14
aI3
aI7533
aI9404
aI5
aI4902
aI7
aI25313
aI5
aI16329
aI24
aI3
aI350
aI63765
asg6
S'In 1998 the first US Federal guidelines were published  titled "Clinical Guidelines on the Identification  Evaluation  and Treatment of Overweight and Obesity in Adults: The Evidence Report"  .'
p11
ss.