(dp1
S'input'
p2
(dp3
S'encoded'
p4
(lp5
I64
aI2179
aI394
aI16642
aI1376
aI5269
asS'ori'
p6
S'This house would subsidize poor communities'
p7
ssS'output'
p8
(dp9
g4
(lp10
I34
aI6396
aI24756
aI55
aI353
aI63
aI374
aI2183
aI34
aI2042
aI13874
aI5
aI2573
aI182
aI451
aI273
aI116
aI443
aI1362
aI291
aI4925
aI5
aI16
aI2234
aI24
aI3
aI1263
aI7028
aI63765
asg6
S'For instance  Barro (2000) has found that  once controls for education  fertility  and investment are introduced  there is no relationship between inequality and economic growth in the entire sample .'
p11
ss.