(dp1
S'input'
p2
(dp3
S'encoded'
p4
(lp5
I64
aI2179
aI43
aI63
aI11083
aI10046
aI417
aI316
aI89
aI3135
aI4603
asS'ori'
p6
S'This house believes that Holocaust denial should be a criminal offence'
p7
ssS'output'
p8
(dp9
g4
(lp10
I3
aI54829
aI25647
aI122
aI1969
aI75
aI3003
aI54829
aI14
aI425
aI45
aI6286
aI36129
aI24
aI9491
aI5
aI379
aI3
aI696
aI7
aI457
aI7
aI4307
aI24
aI3
aI5232
aI2424
aI63765
asg6
S'The Hofle Telegram was sent by SS-Sturmbannfuhrer Hermann Hofle on January 11  1943 to SS-Obersturmbannfuhrer Adolf Eichmann in Berlin and detailed the number of deaths of Jews in the concentration camps  .'
p11
ss.