(dp1
S'input'
p2
(dp3
S'encoded'
p4
(lp5
I64
aI2179
aI394
aI5370
aI3
aI5286
asS'ori'
p6
S'This house would abolish the monarchy'
p7
ssS'output'
p8
(dp9
g4
(lp10
I3
aI2206
aI2176
aI7
aI9711
aI2702
aI3012
aI14635
aI41
aI12511
aI3136
aI81
aI1409
aI10250
aI2812
aI73
aI2767
aI5275
aI5
aI88
aI316
aI4071
aI45
aI89
aI1107
aI845
aI159
aI41
aI38389
aI26552
aI73
aI3354
aI3
aI2610
aI7
aI33022
aI63765
asg6
S'The US Department of Homeland Security defines right-wing extremism as hate groups who target racial  ethnic or religious minorities and may be dedicated to a single issue  such as eradicating homosexuals or barring the immigration of Hispanics  .'
p11
ss.