(dp1
S'input'
p2
(dp3
S'encoded'
p4
(lp5
I64
aI2179
aI43
aI63
aI3
aI21
aI45
aI12715
aI417
aI99
aI316
aI2897
asS'ori'
p6
S'This house believes that the right to asylum should not be absolute'
p7
ssS'output'
p8
(dp9
g4
(lp10
I3
aI3398
aI34
aI3
aI1691
aI3226
aI24
aI32260
aI2100
aI1879
aI3891
aI7
aI9467
aI2674
aI4564
aI3
aI3524
aI75
aI768
aI7
aI2178
aI3136
aI1031
aI45
aI124
aI96
aI14
aI4056
aI1353
aI16
aI2469
aI63
aI221
aI7517
aI748
aI3
aI3891
aI7
aI976
aI2194
aI45
aI3222
aI3
aI103
aI5
aI5829
aI45
aI77
aI127
aI5
aI4899
aI63765
asg6
S'The reasons for the rapid increase in arrivals included increasing availability of cheaper air travel  the existence by then of community groups able to provide support on arrival  relative economic prosperity that made employment possible  the availability of Legal aid to pursue the claim and eligibility to certain benefits and accommodation  .'
p11
ss.