(dp1
S'input'
p2
(dp3
S'encoded'
p4
(lp5
I64
aI2179
aI394
aI2741
aI3
aI1560
aI6025
aI2784
asS'ori'
p6
S'This house would pass the American Jobs Act'
p7
ssS'output'
p8
(dp9
g4
(lp10
I5019
aI1670
aI291
aI380
aI16920
aI1486
aI7
aI5
aI6348
aI7
aI196
aI158
aI8883
aI73
aI8884
aI196
aI37188
aI196
aI8875
aI196
aI5
aI363
aI196
aI63765
asg6
S'Economists distinguish between various overlapping types of and theories of unemployment  including cyclical or Keynesian unemployment  frictional unemployment  structural unemployment and classical unemployment  .'
p11
ss.