(dp1
S'input'
p2
(dp3
S'encoded'
p4
(lp5
I64
aI2179
aI394
aI16642
aI1376
aI5269
asS'ori'
p6
S'This house would subsidize poor communities'
p7
ssS'output'
p8
(dp9
g4
(lp10
I2504
aI89
aI10760
aI4087
aI81
aI55
aI3064
aI45
aI507
aI60
aI139
aI141
aI45
aI7771
aI25
aI284
aI10760
aI24
aI128
aI45
aI163
aI136
aI137
aI63765
asg6
S'Hence  a truck driver who has wealth to begin with can afford to buy his own truck in order to make more money .'
p11
ss.