(dp1
S'input'
p2
(dp3
S'encoded'
p4
(lp5
I64
aI2179
aI394
aI9385
aI2497
aI447
aI14
aI3
aI3578
aI5721
aI7
aI260
asS'ori'
p6
S'This house would enforce term limits on the legislative branch of government'
p7
ssS'output'
p8
(dp9
g4
(lp10
I24
aI3
aI42
aI2586
aI9147
aI11685
aI12200
aI375
aI63765
asg6
S'In the 1990s he began purchasing Manhattan properties again .'
p11
ss.