(dp1
S'input'
p2
(dp3
S'encoded'
p4
(lp5
I64
aI2179
aI43
aI63
aI3
aI21
aI45
aI12715
aI417
aI99
aI316
aI2897
asS'ori'
p6
S'This house believes that the right to asylum should not be absolute'
p7
ssS'output'
p8
(dp9
g4
(lp10
I3
aI5669
aI145
aI7
aI12715
aI122
aI2405
aI5639
aI1748
aI75
aI411
aI2233
aI24
aI63765
asg6
S'The medieval system of asylum was finally abolished entirely by James I in 1623 .'
p11
ss.