(dp1
S'input'
p2
(dp3
S'encoded'
p4
(lp5
I64
aI2179
aI13605
aI2258
aI45
aI2194
asS'ori'
p6
S'This house prefers trade to aid'
p7
ssS'output'
p8
(dp9
g4
(lp10
I2154
aI89
aI399
aI7
aI6856
aI2194
aI63
aI116
aI2818
aI18968
aI736
aI3
aI2351
aI145
aI7
aI3
aI2936
aI2696
aI63765
asg6
S'Budget support: A form of Programme Aid that is directly channelled into the financial system of the recipient country .'
p11
ss.