(dp1
S'input'
p2
(dp3
S'encoded'
p4
(lp5
I64
aI2179
aI394
aI2017
aI223
aI9058
aI23653
asS'ori'
p6
S'This house would ban all unsustainable logging'
p7
ssS'output'
p8
(dp9
g4
(lp10
I1968
aI23653
aI427
aI238
aI24
aI864
aI7
aI150
aI8165
aI63765
asg6
S'Illegal logging took place in 37 out of 41 national parks .'
p11
ss.