(dp1
S'input'
p2
(dp3
S'encoded'
p4
(lp5
I64
aI2179
aI43
aI63
aI3
aI4990
aI4991
aI116
aI4850
aI24
aI12166
aI3
aI475
aI7
aI3532
aI3290
aI7
aI4714
asS'ori'
p6
S'This house believes that the Catholic Church is justified in forbidding the use of barrier methods of contraception'
p7
ssS'output'
p8
(dp9
g4
(lp10
I24
aI89
aI3807
aI3623
aI6359
aI8357
aI6270
aI3470
aI3
aI10857
aI13776
aI13777
aI5711
aI24
aI3901
aI3
aI4990
aI1361
aI24
aI380
aI3492
aI5711
aI10004
aI14
aI8559
aI5
aI10953
aI158
aI3
aI4042
aI7
aI3284
aI314
aI708
aI113
aI545
aI8559
aI63765
asg6
S"In a partial reaction  Pope Pius XI wrote the encyclical Casti connubii (On Christian Marriage) in 1930  reaffirming the Catholic Church's belief in various traditional Christian teachings on marriage and sexuality  including the prohibition of artificial birth control even within marriage ."
p11
ss.