(dp1
S'input'
p2
(dp3
S'encoded'
p4
(lp5
I64
aI2179
aI43
aI63
aI134
aI116
aI400
aI21
aI34
aI3
aI260
aI45
aI3439
aI57
aI7
aI2381
asS'ori'
p6
S'This house believes that it is sometimes right for the government to restrict freedom of speech'
p7
ssS'output'
p8
(dp9
g4
(lp10
I89
aI1692
aI7
aI28
aI8237
aI122
aI311
aI3
aI19018
aI311
aI3
aI734
aI7
aI3
aI1593
aI3
aI2096
aI7
aI89
aI21
aI45
aI57
aI7
aI4640
aI887
aI86
aI495
aI12952
aI5
aI495
aI13119
aI63765
asg6
S'A succession of English thinkers was at the forefront at the beginning of the discussion the idea of a right to freedom of expression  among them John Milton (160874) and John Locke (16321704) .'
p11
ss.