(dp1
S'input'
p2
(dp3
S'encoded'
p4
(lp5
I64
aI2179
aI394
aI5370
aI3
aI5286
asS'ori'
p6
S'This house would abolish the monarchy'
p7
ssS'output'
p8
(dp9
g4
(lp10
I34
aI6396
aI20505
aI182
aI1607
aI14
aI3
aI3338
aI5
aI3744
aI7136
aI271
aI254
aI19
aI3
aI5305
aI63765
asg6
S"For instance  prosecutions are brought on the monarch's behalf  and courts derive their authority from the Crown ."
p11
ss.