(dp1
S'input'
p2
(dp3
S'encoded'
p4
(lp5
I64
aI2179
aI43
aI63
aI3
aI4538
aI7
aI4434
aI7793
aI283
aI45
aI3586
aI417
aI316
aI577
asS'ori'
p6
S'This house believes that the sale of violent video games to minors should be banned'
p7
ssS'output'
p8
(dp9
g4
(lp10
I7376
aI42
aI4812
aI212
aI3052
aI34
aI1343
aI89
aI460
aI1040
aI89
aI2611
aI5
aI38914
aI25
aI1263
aI3874
aI366
aI11837
aI3
aI2935
aI9249
aI5
aI5841
aI42
aI4655
aI25
aI3089
aI14
aI3
aI2259
aI63
aI3
aI285
aI2935
aI122
aI87
aI6730
aI273
aI10762
aI443
aI957
aI24
aI3739
aI520
aI14
aI3976
aI63765
asg6
S'Moreover  he lists real cases  for example a man takes a gun and shoots his entire family after watching the news  arrested and tried  he explains his actions on the basis that the world news was so bad there seemed no point in anyone going on living .'
p11
ss.