(dp1
S'input'
p2
(dp3
S'encoded'
p4
(lp5
I64
aI2179
aI394
aI4325
aI2042
aI270
aI89
aI11605
aI3324
asS'ori'
p6
S'This house would fund education using a voucher scheme'
p7
ssS'output'
p8
(dp9
g4
(lp10
I12189
aI3382
aI24
aI1561
aI7
aI3
aI6908
aI2731
aI1811
aI24
aI63765
asg6
S'|-valign="top" McCain voted in favor of the Nunn-Lugar Cooperative Threat Reduction in 1991  .'
p11
ss.