(dp1
S'input'
p2
(dp3
S'encoded'
p4
(lp5
I64
aI2179
aI43
aI63
aI3
aI4991
aI7
aI180
aI417
aI316
aI5396
aI19
aI3
aI169
aI10
asS'ori'
p6
S'This house believes that the Church of England should be separated from the British state'
p7
ssS'output'
p8
(dp9
g4
(lp10
I3
aI2624
aI7
aI4393
aI9947
aI667
aI15536
aI5
aI667
aI7550
aI382
aI2062
aI75
aI9955
aI21969
aI5319
aI63765
asg6
S'The colonies of Massachusetts Bay  New Haven  and New Hampshire were founded by Puritan  Calvinist  Protestants .'
p11
ss.