(dp1
S'input'
p2
(dp3
S'encoded'
p4
(lp5
I64
aI2179
aI43
aI63
aI3
aI4538
aI7
aI4434
aI7793
aI283
aI45
aI3586
aI417
aI316
aI577
asS'ori'
p6
S'This house believes that the sale of violent video games to minors should be banned'
p7
ssS'output'
p8
(dp9
g4
(lp10
I3
aI752
aI6833
aI45
aI24537
aI24538
aI675
aI120
aI7
aI3
aI6590
aI48726
aI92
aI182
aI5654
aI575
aI45
aI3862
aI45
aI3599
aI443
aI5937
aI7
aI63
aI182
aI174
aI713
aI24
aI7793
aI283
aI63765
asg6
S'The decision pointed to fairy tales like those of the Brothers Grimm  which are regularly given to children to read  "contain no shortage of gore" that are also present in video games  .'
p11
ss.