(dp1
S'input'
p2
(dp3
S'encoded'
p4
(lp5
I64
aI2179
aI43
aI17
aI4941
aI857
aI3211
asS'ori'
p6
S'This house believes social deprivation causes crime'
p7
ssS'output'
p8
(dp9
g4
(lp10
I78
aI11
aI1260
aI47
aI45
aI4574
aI40
aI45
aI2784
asg6
S'people have free will to choose how to act'
p11
ss.