(dp1
S'input'
p2
(dp3
S'encoded'
p4
(lp5
I64
aI2179
aI235
aI3
aI2136
aI7
aI3
aI2306
aI7
aI2390
asS'ori'
p6
S'This house supports the one-child policy of the republic of China'
p7
ssS'output'
p8
(dp9
g4
(lp10
I1381
aI3
aI2994
aI7
aI2598
aI2234
aI55
aI12
aI2447
aI691
aI3
aI3
aI626
aI2138
aI55
aI2244
aI1411
aI14
aI634
aI7045
aI2598
aI2234
aI24
aI2404
aI63765
asg6
S'Although the rate of population growth has been declining since the 1980s  the United Nations has expressed concern on continued excessive population growth in sub-Saharan Africa  .'
p11
ss.