(dp1
S'input'
p2
(dp3
S'encoded'
p4
(lp5
I64
aI2179
aI43
aI223
aI2138
aI11
aI89
aI21
aI45
aI2185
aI372
asS'ori'
p6
S'This house believes all nations have a right to nuclear weapons'
p7
ssS'output'
p8
(dp9
g4
(lp10
I64
aI752
aI5272
aI51
aI1462
aI63
aI2185
aI372
aI440
aI2556
aI4779
aI5
aI127
aI63
aI382
aI2341
aI19
aI248
aI2157
aI2186
aI1047
aI311
aI3
aI413
aI63765
asg6
S'This decision reflected an understanding that nuclear weapons had unique risks and benefits that were separate from other military technology known at the time .'
p11
ss.