(dp1
S'input'
p2
(dp3
S'encoded'
p4
(lp5
I64
aI2179
aI394
aI2017
aI262
asS'ori'
p6
S'This house would ban boxing'
p7
ssS'output'
p8
(dp9
g4
(lp10
I6033
aI5
aI2534
aI7
aI57341
aI949
aI10980
aI289
aI89
aI572
aI16135
aI639
aI400
aI10312
aI45
aI2467
aI60
aI3
aI582
aI413
aI7
aI14733
aI773
aI1191
aI2439
aI366
aI3
aI5099
aI7
aI89
aI945
aI24
aI262
aI63765
asg6
S'Symptoms and signs of DP develop progressively over a long latent period sometimes amounting to decades  with the average time of onset being about 12&ndash;16 years after the start of a career in boxing .'
p11
ss.