(dp1
S'input'
p2
(dp3
S'encoded'
p4
(lp5
I64
aI2179
aI394
aI2017
aI223
aI9058
aI23653
asS'ori'
p6
S'This house would ban all unsustainable logging'
p7
ssS'output'
p8
(dp9
g4
(lp10
I113
aI41
aI136
aI17183
aI6695
aI116
aI104
aI7910
aI10662
aI589
aI292
aI2155
aI8688
aI7
aI17183
aI6695
aI1928
aI3569
aI63765
aI64
aI1183
aI45
aI1191
aI7
aI223
aI6695
aI6696
aI6694
aI19
aI6674
aI6715
asg6
S'Even as more anthropogenic carbon is produced  forests remove around three billion tons of anthropogenic carbon every year . This amounts to about 30% of all carbon dioxide emissions from fossil fuels'
p11
ss.