(dp1
S'input'
p2
(dp3
S'encoded'
p4
(lp5
I64
aI2179
aI43
aI63
aI2659
aI417
aI1690
aI3
aI12048
aI7
aI19084
asS'ori'
p6
S'This house believes that Israel should lift the blockade of Gaza'
p7
ssS'output'
p8
(dp9
g4
(lp10
I2130
aI5546
aI3
aI24839
aI89
aI5757
aI19415
aI14086
aI63
aI4443
aI3
aI19191
aI10318
aI7
aI3772
aI5
aI449
aI4434
aI5904
aI92
aI122
aI2818
aI6421
aI45
aI3
aI3889
aI282
aI2218
aI2513
aI291
aI2659
aI5
aI16619
aI63765
asg6
S'"The commission accused the IHH  a Turkish Islamist charity that owned the Mavi Marmara  of planned and extremely violent resistance which was directly connected to the ongoing international armed conflict between Israel and Hamas .'
p11
ss.