(dp1
S'input'
p2
(dp3
S'encoded'
p4
(lp5
I64
aI2179
aI394
aI190
aI3
aI21
aI45
aI3895
aI834
asS'ori'
p6
S'This house would limit the right to bear arms'
p7
ssS'output'
p8
(dp9
g4
(lp10
I41
aI89
aI296
aI132
aI22838
aI685
aI903
aI4116
aI3482
aI45
aI836
aI271
aI284
aI4117
aI63
aI7212
aI3
aI5321
aI5
aI768
aI2856
aI864
aI45
aI7664
aI588
aI903
aI48532
aI34
aI271
aI4117
aI63765
asg6
S'As a result  these Patriots established independent colonial legislatures to create their own militias that excluded the Loyalists and then sought out to stock up independent armories for their militias .'
p11
ss.