(dp1
S'input'
p2
(dp3
S'encoded'
p4
(lp5
I64
aI2179
aI43
aI63
aI2203
aI60
aI51
aI997
aI2837
aI21716
aI1636
aI5349
aI417
aI2998
aI8532
aI45
aI3051
aI8578
asS'ori'
p6
S'This house believes that countries with an imbalanced male/female ratio skewed towards males should encourage parents to produce girls'
p7
ssS'output'
p8
(dp9
g4
(lp10
I526
aI24
aI2390
aI538
aI211
aI8559
aI4294
aI3645
aI5
aI11003
aI443
aI593
aI11
aI45
aI5744
aI45
aI89
aI959
aI73
aI4839
aI7075
aI751
aI773
aI4626
aI89
aI8559
aI4404
aI63765
asg6
S'Furthermore  in 2003  China revised its marriage registration regulations and couples no longer have to submit to a pre-marital physical or genetic examination before being granted a marriage license  .'
p11
ss.