(dp1
S'input'
p2
(dp3
S'encoded'
p4
(lp5
I64
aI2179
aI394
aI2017
aI223
aI9058
aI23653
asS'ori'
p6
S'This house would ban all unsustainable logging'
p7
ssS'output'
p8
(dp9
g4
(lp10
I3
aI260
aI7
aI7384
aI55
aI2200
aI1237
aI282
aI779
aI675
aI3
aI2692
aI25706
aI3
aI2330
aI1022
aI2568
aI5
aI45
aI1192
aI2686
aI24
aI26104
aI8254
aI6801
aI63765
asg6
S'The government of Ethiopia has asked several international agencies  like the Japanese ICA  the German Technical Cooperation (GTZ) and FARM-Africa to get involved in Participatory Forest Management .'
p11
ss.