(dp1
S'input'
p2
(dp3
S'encoded'
p4
(lp5
I64
aI2179
aI394
aI2773
aI12505
asS'ori'
p6
S'This house would embrace multiculturalism'
p7
ssS'output'
p8
(dp9
g4
(lp10
I1592
aI3
aI14655
aI7
aI25716
aI58755
aI5
aI25709
aI12217
aI25710
aI3
aI22
aI2196
aI14
aI3
aI2210
aI7
aI12505
aI24
aI3
aI3140
aI753
aI667
aI6052
aI63765
asg6
S'Following the murders of Pim Fortuyn (in 2002) and Theo van Gogh (in 2004) the political debate on the role of multiculturalism in the Netherlands reached new heights .'
p11
ss.