(dp1
S'input'
p2
(dp3
S'encoded'
p4
(lp5
I64
aI2179
aI235
aI3
aI2136
aI7
aI3
aI2306
aI7
aI2390
asS'ori'
p6
S'This house supports the one-child policy of the republic of China'
p7
ssS'output'
p8
(dp9
g4
(lp10
I134
aI116
aI748
aI34
aI419
aI40343
aI4569
aI2506
aI45
aI316
aI40743
aI257
aI3
aI803
aI55
aI89
aI19275
aI73
aI5201
aI45
aI7833
aI3269
aI63765
asg6
S'It is possible for very sparsely populated areas to be overpopulated if the area has a meager or non-existent capability to sustain life (e .g .'
p11
ss.