(dp1
S'input'
p2
(dp3
S'encoded'
p4
(lp5
I64
aI2179
aI43
aI63
aI3
aI21
aI45
aI12715
aI417
aI99
aI316
aI2897
asS'ori'
p6
S'This house believes that the right to asylum should not be absolute'
p7
ssS'output'
p8
(dp9
g4
(lp10
I3
aI1718
aI2711
aI7
aI120
aI5647
aI45
aI4564
aI45
aI3
aI102
aI123
aI9030
aI5
aI3
aI278
aI5307
aI2784
aI122
aI11177
aI620
aI4679
aI63765
asg6
S'The potential numbers of those eligible to travel to the UK created alarm  and the Commonwealth Immigrants Act 1968 was rushed through Parliament .'
p11
ss.