(dp1
S'input'
p2
(dp3
S'encoded'
p4
(lp5
I64
aI2179
aI394
aI2773
aI12505
asS'ori'
p6
S'This house would embrace multiculturalism'
p7
ssS'output'
p8
(dp9
g4
(lp10
I55
aI12
aI31664
aI45
aI1985
aI64
aI93
aI6421
aI2696
aI45
aI93
aI626
aI89
aI78
aI17760
aI19
aI3
aI1643
aI17757
aI1769
aI3
aI1643
aI3657
aI9651
aI3
aI1643
aI2382
aI597
aI45
aI3
aI1643
aI2747
aI7
aI260
aI419
aI570
aI24
aI271
aI23245
aI5
aI8754
aI63765
aI63765
asg6
S'"Providence has been pleased to give this one connected country to one united people&nbsp; a people descended from the same ancestors  speaking the same language  professing the same religion  attached to the same principles of government  very similar in their manners and customs . .'
p11
ss.