(dp1
S'input'
p2
(dp3
S'encoded'
p4
(lp5
I64
aI2179
aI43
aI63
aI2659
aI417
aI1690
aI3
aI12048
aI7
aI19084
asS'ori'
p6
S'This house believes that Israel should lift the blockade of Gaza'
p7
ssS'output'
p8
(dp9
g4
(lp10
I3
aI78
aI273
aI182
aI637
aI4871
aI89
aI7486
aI1968
aI5
aI4932
aI12048
aI63
aI55
aI2427
aI863
aI2439
aI63765
asg6
S'The people there are still suffering a totally illegal and unjust blockade that has lasted five years .'
p11
ss.