(dp1
S'input'
p2
(dp3
S'encoded'
p4
(lp5
I64
aI2179
aI43
aI63
aI3
aI28431
aI7
aI2157
aI4624
aI75
aI39939
aI27257
aI122
aI4850
asS'ori'
p6
S'This house believes that the leaking of military documents by Anat Kamm was justified'
p7
ssS'output'
p8
(dp9
g4
(lp10
I29130
aI4001
aI12306
aI63
aI42
aI1969
aI4846
aI10398
aI12530
aI45
aI604
aI3
aI417
aI316
aI8681
aI7
aI61
aI122
aI520
aI14
aI14
aI3
aI248
aI1999
aI63
aI3
aI667
aI6837
aI16440
aI394
aI10414
aI3
aI2157
aI7832
aI63765
asg6
S'Morison told investigators that he sent classified satellite photographs to Jane\'s because the "public should be aware of what was going on on the other side"  meaning that the Soviets\' new nuclear-powered aircraft carrier would transform the USSR\'s military capabilities .'
p11
ss.