(dp1
S'input'
p2
(dp3
S'encoded'
p4
(lp5
I64
aI2179
aI394
aI4261
aI8667
aI3
aI9361
aI5
aI17069
asS'ori'
p6
S'This house would prohibit burning the stars and stripes'
p7
ssS'output'
p8
(dp9
g4
(lp10
I64
aI116
aI6668
aI3
aI260
aI139
aI2017
aI13066
aI34
aI9257
aI5
aI3166
aI5224
aI14
aI5257
aI57086
aI3654
aI45
aI5656
aI7664
aI24
aI89
aI63765
asg6
S'This is why the government can ban advertisements for cigarettes and false information on corporate prospectuses (which try to sell stock in a company) .'
p11
ss.