(dp1
S'input'
p2
(dp3
S'encoded'
p4
(lp5
I64
aI2179
aI43
aI63
aI2659
aI417
aI1690
aI3
aI12048
aI7
aI19084
asS'ori'
p6
S'This house believes that Israel should lift the blockade of Gaza'
p7
ssS'output'
p8
(dp9
g4
(lp10
I19106
aI3470
aI63
aI2198
aI7
aI2659
aI116
aI16114
aI24
aI3
aI626
aI187
aI5
aI63
aI219
aI7
aI2659
aI182
aI2941
aI63765
asg6
S'Tutu wrote that criticism of Israel is suppressed in the United States  and that criticisms of Israel are "immediately dubbed anti-Semitic"  .'
p11
ss.