(dp1
S'input'
p2
(dp3
S'encoded'
p4
(lp5
I64
aI2179
aI43
aI223
aI2138
aI11
aI89
aI21
aI45
aI2185
aI372
asS'ori'
p6
S'This house believes all nations have a right to nuclear weapons'
p7
ssS'output'
p8
(dp9
g4
(lp10
I45
aI11544
aI658
aI11545
aI1191
aI25
aI2185
aI11546
aI11539
aI451
aI3
aI292
aI2747
aI45
aI3
aI6327
aI24
aI63765
asg6
S"To ease public misgivings about his administration's nuclear ambitions  Sato introduced the Three Non-Nuclear Principles to the Diet in 1967 ."
p11
ss.