(dp1
S'input'
p2
(dp3
S'encoded'
p4
(lp5
I64
aI2179
aI43
aI17
aI4941
aI857
aI3211
asS'ori'
p6
S'This house believes social deprivation causes crime'
p7
ssS'output'
p8
(dp9
g4
(lp10
I273
aI182
aI292
aI1410
aI4364
aI7
aI2428
aI24
aI320
aI44552
aI3168
aI20948
aI3
aI639
aI19
aI3
aI398
aI45
aI3
aI398
aI92
aI182
aI363
aI69
aI5
aI4248
aI63765
asg6
S'There are three main schools of thought in early criminological theory spanning the period from the mid-18th century to the mid-twentieth century  which are Classical  Positive  and Chicago .'
p11
ss.