(dp1
S'input'
p2
(dp3
S'encoded'
p4
(lp5
I64
aI2179
aI43
aI63
aI3376
aI4938
aI417
aI316
aI3537
asS'ori'
p6
S'This house believes that endangered species should be protected'
p7
ssS'output'
p8
(dp9
g4
(lp10
I7376
aI279
aI4938
aI182
aI153
aI8044
aI653
aI271
aI2210
aI41
aI3
aI1334
aI2878
aI7
aI7826
aI3205
aI63765
asg6
S'Moreover  common species are often undervalued despite their role as the primary source of ecosystem services  .'
p11
ss.