(dp1
S'input'
p2
(dp3
S'encoded'
p4
(lp5
I64
aI2179
aI43
aI8629
aI116
aI3
aI117
aI998
asS'ori'
p6
S'This house believes atheism is the only way'
p7
ssS'output'
p8
(dp9
g4
(lp10
I3073
aI34
aI64
aI2035
aI122
aI4867
aI19
aI2151
aI78
aI24
aI49
aI223
aI7
aI3
aI643
aI3049
aI63765
asg6
S'Data for this study was obtained from approximately 23 000 people in almost all (17) of the developed democracies .'
p11
ss.