(dp1
S'input'
p2
(dp3
S'encoded'
p4
(lp5
I64
aI2179
aI43
aI63
aI3
aI4990
aI4991
aI116
aI4850
aI24
aI12166
aI3
aI475
aI7
aI3532
aI3290
aI7
aI4714
asS'ori'
p6
S'This house believes that the Catholic Church is justified in forbidding the use of barrier methods of contraception'
p7
ssS'output'
p8
(dp9
g4
(lp10
I257
aI3
aI42596
aI440
aI51
aI4885
aI2096
aI7
aI3
aI7374
aI968
aI7
aI3
aI13762
aI1351
aI159
aI6029
aI2013
aI60
aI86
aI63765
asg6
S'If the Manichaeans had an accurate idea of the fertile portion of the menstrual cycle  such knowledge died with them  .'
p11
ss.