(dp1
S'input'
p2
(dp3
S'encoded'
p4
(lp5
I64
aI2179
aI43
aI63
aI6670
aI546
aI417
aI316
aI89
aI1334
aI3108
aI7
aI4849
aI1886
aI2855
asS'ori'
p6
S'This house believes that wind power should be a primary focus of future energy supply'
p7
ssS'output'
p8
(dp9
g4
(lp10
I273
aI182
aI2962
aI7
aI6682
aI5
aI6683
aI4699
aI311
aI6670
aI5109
aI41
aI273
aI182
aI589
aI248
aI3284
aI5143
aI63765
asg6
S'There are reports of bird and bat mortality at wind turbines  as there are around other artificial structures .'
p11
ss.