(dp1
S'input'
p2
(dp3
S'encoded'
p4
(lp5
I64
aI2179
aI394
aI5370
aI223
aI4013
aI10440
aI2446
aI4881
aI75
aI14482
aI11004
asS'ori'
p6
S'This house would abolish all collective bargaining rights claimed by trades unions'
p7
ssS'output'
p8
(dp9
g4
(lp10
I3
aI2784
aI174
aI2173
aI63
aI257
aI51
aI2646
aI20
aI3
aI2696
aI155
aI1587
aI89
aI16107
aI45
aI63765
asg6
S'The act also stated that if an Asian left the country  they needed a certificate to re-enter .'
p11
ss.