(dp1
S'input'
p2
(dp3
S'encoded'
p4
(lp5
I64
aI2179
aI235
aI3858
aI3
aI2240
aI4527
aI3485
aI45
asS'ori'
p6
S'This house supports raising the school leaving age to 18'
p7
ssS'output'
p8
(dp9
g4
(lp10
I24
aI39657
aI2022
aI6510
aI39658
aI62
aI34
aI3
aI31376
aI7
aI4364
aI63765
aI42
aI4453
aI63
aI13498
aI24195
aI5204
aI60
aI5205
aI13064
aI60
aI2042
aI16122
aI60
aI13347
aI5856
aI60
aI10023
aI5
aI946
aI3262
aI60
aI13160
aI63765
aI42
aI3197
aI63
aI4364
aI1453
aI99
aI6752
aI212
aI3240
aI117
aI3539
aI63765
aI4364
aI19578
aI89
aI4224
aI47
aI5
aI710
aI45
aI990
aI204
aI24
aI4817
aI25211
aI63765
aI42
aI4453
aI63
aI5175
aI13498
aI44231
aI3
aI4091
aI35
aI26549
aI45
aI8123
aI5
aI7434
aI5
aI20082
aI134
aI60
aI3
aI3497
aI34
aI5248
asg6
S'In Deschooling Society  Ivan Illich calls for the disestablishment of schools . He claims that schooling confuses teaching with learning  grades with education  diplomas with competence  attendance with attainment  and  especially  process with substance . He writes that schools do not reward real achievement  only processes . Schools inhibit a persons will and ability to self-learn  ultimately resulting in psychological impotence . He claims that forced schooling perverts the victims natural inclination to grow and learn and replaces it with the demand for instruction'
p11
ss.