(dp1
S'input'
p2
(dp3
S'encoded'
p4
(lp5
I64
aI2179
aI394
aI2017
aI3807
aI314
aI3433
asS'ori'
p6
S'This house would ban partial birth abortions'
p7
ssS'output'
p8
(dp9
g4
(lp10
I3
aI4820
aI13900
aI5624
aI4453
aI63
aI41
aI4821
aI24
aI89
aI16767
aI11288
aI1453
aI99
aI4824
aI16768
aI182
aI99
aI10813
aI1453
aI99
aI4804
aI5
aI87
aI16769
aI155
aI394
aI1160
aI89
aI21
aI45
aI3269
aI14
aI732
aI234
aI63765
asg6
S"The comatose patient objection claims that as patients in a reversible coma do not satisfy Warren's (or other) criteriathey are not conscious  do not communicate  and so ontherefore they would lack a right to life on her view  ."
p11
ss.