(dp1
S'input'
p2
(dp3
S'encoded'
p4
(lp5
I64
aI2179
aI394
aI4325
aI2042
aI270
aI89
aI11605
aI3324
asS'ori'
p6
S'This house would fund education using a voucher scheme'
p7
ssS'output'
p8
(dp9
g4
(lp10
I42
aI742
aI63
aI3
aI3730
aI957
aI7
aI89
aI11605
aI145
aI116
aI45
aI124
aI89
aI7595
aI192
aI238
aI87
aI417
aI99
aI316
aI913
aI45
aI36539
aI63765
asg6
S'He said that the whole point of a voucher system is to provide a competitive market place so should not be limited to non-profit kindergartens .'
p11
ss.