(dp1
S'input'
p2
(dp3
S'encoded'
p4
(lp5
I64
aI2179
aI394
aI2773
aI12505
asS'ori'
p6
S'This house would embrace multiculturalism'
p7
ssS'output'
p8
(dp9
g4
(lp10
I3
aI349
aI5018
aI2985
aI7
aI12505
aI24
aI1005
aI382
aI3
aI4718
aI61876
aI49433
aI5
aI5295
aI61877
aI15496
aI61878
aI61879
aI5
aI3
aI22
aI4412
aI14266
aI61880
aI63765
aI49433
aI5
aI61877
aI382
aI2853
aI60
aI7188
aI45
aI17
aI15733
aI226
aI1411
aI122
aI63
aI12505
aI20965
aI3
aI17
aI5136
aI566
aI60
aI1445
aI6684
aI2610
aI63
aI367
aI217
aI4258
aI14
aI3
aI217
aI1902
aI4373
aI5
aI18478
aI5307
asg6
S"The earliest academic critics of multiculturalism in Australia were the philosophers Lachlan Chipman and Frank Knopfelmacher  sociologist Tanya Birrell and the political scientist Raymond Sestito  . Chipman and Knopfelmacher were concerned with threats to social cohesion  while Birrell's concern was that multiculturalism obscures the social costs associated with large scale immigration that fall most heavily on the most recently arrived and unskilled immigrants"
p11
ss.