(dp1
S'input'
p2
(dp3
S'encoded'
p4
(lp5
I64
aI2179
aI43
aI24
aI3
aI475
aI7
aI12436
aI3364
asS'ori'
p6
S'This house believes in the use of affirmative action'
p7
ssS'output'
p8
(dp9
g4
(lp10
I3435
aI75
aI2164
aI3755
aI685
aI3
aI3445
aI7
aI12436
aI3364
aI75
aI3598
aI63
aI4949
aI7475
aI60
aI2503
aI6198
aI12436
aI45
aI975
aI63
aI5650
aI5
aI7517
aI3237
aI182
aI1260
aI7
aI10250
aI7518
aI63765
asg6
S'10925  issued by President Kennedy Established the concept of affirmative action by mandating that projects financed with federal funds "take affirmative action" to ensure that hiring and employment practices are free of racial bias .'
p11
ss.