(dp1
S'input'
p2
(dp3
S'encoded'
p4
(lp5
I64
aI2179
aI43
aI63
aI3357
aI5003
aI652
aI3
aI188
aI3262
asS'ori'
p6
S'This house believes that opinion polls harm the democratic process'
p7
ssS'output'
p8
(dp9
g4
(lp10
I34
aI1343
aI257
aI1198
aI1594
aI63
aI3
aI10514
aI7
aI3
aI2206
aI2598
aI75
aI171
aI7533
aI55
aI99
aI579
aI691
aI3
aI3130
aI2272
aI4168
aI1198
aI88
aI10515
aI89
aI730
aI73
aI89
aI1979
aI7
aI89
aI1341
aI171
aI10484
aI63
aI3026
aI89
aI10516
aI73
aI2838
aI24
aI211
aI171
aI4294
aI1353
aI45
aI3
aI3130
aI2272
aI4168
aI1351
aI63765
asg6
S'For example  if you assume that the breakdown of the US population by party identification has not changed since the previous presidential election  you may underestimate a victory or a defeat of a particular party candidate that saw a surge or decline in its party registration relative to the previous presidential election cycle .'
p11
ss.