(dp1
S'input'
p2
(dp3
S'encoded'
p4
(lp5
I64
aI2179
aI43
aI63
aI134
aI116
aI400
aI21
aI34
aI3
aI260
aI45
aI3439
aI57
aI7
aI2381
asS'ori'
p6
S'This house believes that it is sometimes right for the government to restrict freedom of speech'
p7
ssS'output'
p8
(dp9
g4
(lp10
I20207
aI34
aI1343
aI55
aI30549
aI726
aI290
aI159
aI41
aI3
aI59269
aI5
aI3
aI59270
aI24
aI1405
aI413
aI252
aI14413
aI5
aI100
aI2023
aI3953
aI25631
aI159
aI41
aI59271
aI11
aI30549
aI59272
aI7230
aI366
aI89
aI63765
aI21871
aI92
aI139
aI3082
aI316
aI4415
aI41
aI320
aI41
aI4194
aI63765
aI24
aI248
aI1948
aI7
aI2547
aI63765
aI5155
aI24
aI3
aI2403
aI413
aI63765
asg6
S'CTV  for example  has aired controversial series such as The Sopranos  Nip/Tuck and The Osbournes in prime time without editing  and some Canadian television broadcasters  such as Citytv  have aired softcore pornography after 12:00 a .m . EST  which can therefore be viewed as early as 9:00 p .m . in other parts of Canada (i .e .  anywhere in the Pacific Time Zone) .'
p11
ss.