(dp1
S'input'
p2
(dp3
S'encoded'
p4
(lp5
I64
aI2179
aI43
aI63
aI3
aI21
aI45
aI12715
aI417
aI99
aI316
aI2897
asS'ori'
p6
S'This house believes that the right to asylum should not be absolute'
p7
ssS'output'
p8
(dp9
g4
(lp10
I2711
aI7
aI705
aI2322
aI24
aI3
aI320
aI45
aI250
aI60
aI3
aI22146
aI14749
aI7
aI78
aI81
aI440
aI4373
aI397
aI3
aI2223
aI81
aI1381
aI155
aI440
aI14993
aI14749
aI311
aI4644
aI7453
aI440
aI637
aI45
aI11
aI271
aI2554
aI41677
aI63765
asg6
S'Numbers of staff increased in the early 1950s to deal with the residual screening of people who had arrived during the war who  although they had undergone screening at reception centres had still to have their status regularised .'
p11
ss.