(dp1
S'input'
p2
(dp3
S'encoded'
p4
(lp5
I64
aI2179
aI394
aI2017
aI628
asS'ori'
p6
S'This house would ban gambling'
p7
ssS'output'
p8
(dp9
g4
(lp10
I117
aI7
aI1980
aI81
aI500
aI99
aI14674
aI382
aI6603
aI136
aI138
aI9348
aI63765
asg6
S'Only 2% of men who did not gamble were married more than twice  .'
p11
ss.