(dp1
S'input'
p2
(dp3
S'encoded'
p4
(lp5
I64
aI2179
aI43
aI63
aI3
aI4990
aI4991
aI116
aI4850
aI24
aI12166
aI3
aI475
aI7
aI3532
aI3290
aI7
aI4714
asS'ori'
p6
S'This house believes that the Catholic Church is justified in forbidding the use of barrier methods of contraception'
p7
ssS'output'
p8
(dp9
g4
(lp10
I21247
aI9896
aI176
aI3
aI8193
aI41
aI3
aI117
aI254
aI24
aI223
aI4114
aI7
aI5711
aI2860
aI4302
aI3
aI3309
aI7
aI5175
aI63765
asg6
S'Confessional Lutherans  claiming the Bible as the only authority in all matters of Christian doctrine  criticize the tradition of forced celibacy:  .'
p11
ss.