(dp1
S'input'
p2
(dp3
S'encoded'
p4
(lp5
I64
aI2179
aI13605
aI2258
aI45
aI2194
asS'ori'
p6
S'This house prefers trade to aid'
p7
ssS'output'
p8
(dp9
g4
(lp10
I5332
aI7
aI15093
aI557
aI75
aI64
aI2923
aI11
aI2100
aI6907
aI2332
aI2804
aI2747
aI24
aI6678
aI5
aI2667
aI63765
asg6
S'Subjects of workshops held by this network have included applying Paris Declaration principles in agriculture and infrastructure .'
p11
ss.