(dp1
S'input'
p2
(dp3
S'encoded'
p4
(lp5
I64
aI2179
aI43
aI24
aI3
aI475
aI7
aI12436
aI3364
asS'ori'
p6
S'This house believes in the use of affirmative action'
p7
ssS'output'
p8
(dp9
g4
(lp10
I34
aI1343
aI3
aI6832
aI34
aI3495
aI60
aI838
aI13051
aI463
aI316
aI2449
aI45
aI3
aI697
aI2598
aI7
aI3495
aI3472
aI270
aI8700
aI3073
aI73
aI134
aI876
aI316
aI2449
aI45
aI3
aI4442
aI7
aI3495
aI60
aI838
aI13051
aI311
aI3454
aI6804
aI63765
asg6
S'For example  the 23% figure for women with full professorships could be compared to the total population of women (presumably 50%) perhaps using census data  or it might be compared to the percentage of women with full professorships at competing universities .'
p11
ss.