(dp1
S'input'
p2
(dp3
S'encoded'
p4
(lp5
I64
aI2179
aI43
aI8629
aI116
aI3
aI117
aI998
asS'ori'
p6
S'This house believes atheism is the only way'
p7
ssS'output'
p8
(dp9
g4
(lp10
I8313
aI1019
aI1797
aI45
aI89
aI5373
aI285
aI5
aI271
aI10004
aI182
aI13847
aI24
aI6836
aI60
aI8
aI368
aI7839
aI63765
asg6
S'Religions cannot adapt to a changing world  and their teachings are outdated in comparison with modern Western morals .'
p11
ss.