(dp1
S'input'
p2
(dp3
S'encoded'
p4
(lp5
I64
aI2179
aI394
aI4325
aI2042
aI270
aI89
aI11605
aI3324
asS'ori'
p6
S'This house would fund education using a voucher scheme'
p7
ssS'output'
p8
(dp9
g4
(lp10
I24
aI3
aI2301
aI2240
aI10245
aI2134
aI4262
aI8921
aI2326
aI147
aI139
aI847
aI588
aI45
aI5
aI11003
aI13505
aI2564
aI766
aI139
aI847
aI588
aI45
aI63765
asg6
S'In the Arizona School Tuition Organization Tax Credit program individuals can deduct up to $500 and couples filing joint returns can deduct up to $1000 .'
p11
ss.