(dp1
S'input'
p2
(dp3
S'encoded'
p4
(lp5
I64
aI2179
aI394
aI2998
aI3
aI4360
aI7
aI3249
aI6804
aI24
aI3
aI102
asS'ori'
p6
S'This house would encourage the creation of private universities in the UK'
p7
ssS'output'
p8
(dp9
g4
(lp10
I3
aI2240
aI7
aI7985
aI17
aI4372
aI3
aI2240
aI7
aI2190
aI3
aI2240
aI7
aI2445
aI2891
aI17
aI3205
aI5
aI3
aI2240
aI7
aI3707
aI2186
aI63765
asg6
S'the School of Arts & Social Sciences  the School of Business  the School of Human Development & Social Services  and the School of Science & Technology .'
p11
ss.