(dp1
S'input'
p2
(dp3
S'encoded'
p4
(lp5
I64
aI2179
aI43
aI63
aI2157
aI2565
aI493
aI19084
aI382
aI4850
asS'ori'
p6
S"This house believes that Israel's 2008-2009 military operations against Gaza were justified"
p7
ssS'output'
p8
(dp9
g4
(lp10
I89
aI2035
aI75
aI3
aI1863
aI34
aI594
aI5
aI282
aI2992
aI524
aI864
aI63
aI298
aI748
aI19419
aI1955
aI19153
aI270
aI3
aI7344
aI372
aI5
aI9585
aI2674
aI19153
aI5
aI3
aI475
aI7
aI13656
aI372
aI270
aI31120
aI24
aI89
aI5971
aI2419
aI45
aI190
aI6606
aI960
aI63765
asg6
S'A study by the Center for Strategic and International Studies points out that when possible  IAF executed strikes using the smallest precision-guided weapons  and coordinated air strikes and the use of artillery weapons using GPS  in a systematic effort to limit collateral damage  .'
p11
ss.