(dp1
S'input'
p2
(dp3
S'encoded'
p4
(lp5
I64
aI2179
aI394
aI5842
aI3569
aI446
aI13498
asS'ori'
p6
S'This house would introduce year round schooling'
p7
ssS'output'
p8
(dp9
g4
(lp10
I4741
aI19
aI3
aI4235
aI10
aI4750
aI1258
aI3424
aI5205
aI1387
aI2041
aI1706
aI75
aI2703
aI89
aI150
aI2035
aI7
aI23510
aI5
aI237
aI7353
aI3862
aI19
aI3
aI320
aI8544
aI13054
aI2035
aI63765
asg6
S'Researchers from The Ohio State University extended summer learning gap research further by conducting a national study of 17 000 kindergarten and first grade children from the Early Childhood Longitudinal Study .'
p11
ss.