(dp1
S'input'
p2
(dp3
S'encoded'
p4
(lp5
I64
aI2179
aI43
aI223
aI2138
aI11
aI89
aI21
aI45
aI2185
aI372
asS'ori'
p6
S'This house believes all nations have a right to nuclear weapons'
p7
ssS'output'
p8
(dp9
g4
(lp10
I89
aI1874
aI10
aI206
aI89
aI1377
aI2157
aI5201
aI73
aI16
aI1500
aI24
aI2126
aI116
aI99
aI868
aI45
aI975
aI9068
aI63765
asg6
S'A defending state having a superior military capability or economic strength in itself is not enough to ensure credibility .'
p11
ss.