(dp1
S'input'
p2
(dp3
S'encoded'
p4
(lp5
I64
aI2179
aI43
aI63
aI3376
aI4938
aI417
aI316
aI3537
asS'ori'
p6
S'This house believes that endangered species should be protected'
p7
ssS'output'
p8
(dp9
g4
(lp10
I6418
aI55
aI12
aI24
aI3099
aI691
aI60
aI912
aI2148
aI9247
aI24
aI289
aI2203
aI5
aI3079
aI24
aI3
aI626
aI187
aI7
aI875
aI2299
aI3
aI2308
aI2390
aI5
aI2756
aI63765
asg6
S'Rare has been in operation since 1973 with current global partners in over 50 countries and offices in the United States of America  Mexico  the Philippines  China and Indonesia .'
p11
ss.