(dp1
S'input'
p2
(dp3
S'encoded'
p4
(lp5
I64
aI2179
aI43
aI63
aI3
aI21
aI45
aI12715
aI417
aI99
aI316
aI2897
asS'ori'
p6
S'This house believes that the right to asylum should not be absolute'
p7
ssS'output'
p8
(dp9
g4
(lp10
I75
aI117
aI7770
aI7
aI79
aI1256
aI73
aI78
aI60
aI8532
aI73
aI17818
aI4651
aI24
aI3
aI102
aI463
aI951
aI9107
aI994
aI200
aI1334
aI2610
aI19
aI278
aI2203
asg6
S'By 1972  only holders of work permits  or people with parents or grandparents born in the UK could gain entry - significantly reducing primary immigration from Commonwealth countries  .]'
p11
ss.