(dp1
S'input'
p2
(dp3
S'encoded'
p4
(lp5
I64
aI2179
aI394
aI5370
aI3
aI5286
asS'ori'
p6
S'This house would abolish the monarchy'
p7
ssS'output'
p8
(dp9
g4
(lp10
I378
aI311
aI3
aI1643
aI413
aI42
aI418
aI63
aI3
aI232
aI122
aI1841
aI136
aI736
aI2802
aI24
aI12088
aI5
aI63
aI134
aI122
aI400
aI4359
aI41
aI206
aI89
aI131
aI15600
aI63
aI64
aI122
aI604
aI15283
aI440
aI51
aI15601
aI2604
aI24
aI4645
aI45
aI3
aI169
aI63765
asg6
S'However  at the same time  he noted that the institution was coming more into question in Quebec and that it was sometimes perceived as having a "colonial taint"  but theorises that this was because Canadians had an inferiority complex in relation to the British  .'
p11
ss.