(dp1
S'input'
p2
(dp3
S'encoded'
p4
(lp5
I64
aI2179
aI43
aI63
aI3
aI21
aI45
aI12715
aI417
aI99
aI316
aI2897
asS'ori'
p6
S'This house believes that the right to asylum should not be absolute'
p7
ssS'output'
p8
(dp9
g4
(lp10
I691
aI89
aI5619
aI532
aI7
aI3578
aI413
aI440
aI12
aI10313
aI45
aI2610
aI214
aI5
aI273
aI440
aI12
aI51
aI3475
aI5619
aI2282
aI7
aI2635
aI5
aI2891
aI2352
aI63765
asg6
S'Since 1999 a huge amount of legislative time had been allocated to immigration issues and there had been an equally huge expansion of resources and development capital .'
p11
ss.