(dp1
S'input'
p2
(dp3
S'encoded'
p4
(lp5
I64
aI2179
aI43
aI63
aI1036
aI4828
aI33250
aI116
aI25073
aI45
aI3315
aI4562
asS'ori'
p6
S'This house believes that male infant circumcision is tantamount to child abuse'
p7
ssS'output'
p8
(dp9
g4
(lp10
I725
aI3724
aI5047
aI63
aI271
aI4871
aI34915
aI3859
aI34916
aI60
aI271
aI204
aI24
aI8803
aI14988
aI63765
asg6
S'Many respondents reported that their physical/emotional suffering impeded emotional intimacy with their partner(s)  resulting in sexual dysfunction  .'
p11
ss.