(dp1
S'input'
p2
(dp3
S'encoded'
p4
(lp5
I64
aI2179
aI43
aI3
aI626
aI187
aI116
aI1989
aI34
aI3102
aI2223
asS'ori'
p6
S"This house believes the United States is responsible for Mexico's drugs war"
p7
ssS'output'
p8
(dp9
g4
(lp10
I75
aI3
aI3
aI2142
aI19
aI2299
aI382
aI261
aI685
aI5
aI9100
aI35166
aI7
aI8793
aI3103
aI63765
asg6
S'By the mid-1980s  the organizations from Mexico were well established and reliable transporters of Colombian cocaine .'
p11
ss.