(dp1
S'input'
p2
(dp3
S'encoded'
p4
(lp5
I64
aI2179
aI43
aI17
aI4941
aI857
aI3211
asS'ori'
p6
S'This house believes social deprivation causes crime'
p7
ssS'output'
p8
(dp9
g4
(lp10
I2488
aI2142
aI675
aI4364
aI4991
aI5
aI3
aI631
aI2784
aI41
aI59026
aI34
aI3874
aI5
aI2716
aI24
aI725
aI5269
aI131
aI1376
aI5308
aI5269
aI153
aI1160
aI3
aI7210
aI5
aI22
aI4747
aI45
aI3322
aI2635
aI34
aI332
aI3211
aI5
aI3847
aI5615
aI78
aI51
aI4834
aI45
aI27623
aI10670
aI63765
asg6
S'Formal organizations like schools  church  and the police act as surrogates for family and friends in many communities  but poor  unstable communities often lack the organisation and political connections to obtain resources for fighting crime and offering young people an alternative to deviant behaviour .'
p11
ss.