(dp1
S'input'
p2
(dp3
S'encoded'
p4
(lp5
I64
aI2179
aI43
aI8629
aI116
aI3
aI117
aI998
asS'ori'
p6
S'This house believes atheism is the only way'
p7
ssS'output'
p8
(dp9
g4
(lp10
I64
aI98
aI99
aI168
aI63
aI5480
aI116
aI2445
aI73
aI4648
aI311
aI89
aI2386
aI957
aI24
aI3
aI3782
aI63765
asg6
S'This does not imply that God is human  or located at a specific point in the universe .'
p11
ss.