(dp1
S'input'
p2
(dp3
S'encoded'
p4
(lp5
I64
aI2179
aI43
aI63
aI2157
aI2565
aI493
aI19084
aI382
aI4850
asS'ori'
p6
S"This house believes that Israel's 2008-2009 military operations against Gaza were justified"
p7
ssS'output'
p8
(dp9
g4
(lp10
I24
aI2805
aI3
aI10619
aI5047
aI63
aI7
aI6049
aI440
aI5
aI20
asg6
S'In February 2009  the BBC reported that 3 000 of Sderot\'s 24 000 residents had "upped and left ."'
p11
ss.