(dp1
S'input'
p2
(dp3
S'encoded'
p4
(lp5
I64
aI2179
aI394
aI2741
aI3
aI1560
aI6025
aI2784
asS'ori'
p6
S'This house would pass the American Jobs Act'
p7
ssS'output'
p8
(dp9
g4
(lp10
I378
aI3
aI3524
aI7
aI8875
aI196
aI88
aI4614
aI7167
aI221
aI75
aI3
aI178
aI24
aI3
aI1257
aI226
aI363
aI196
aI88
aI296
aI19
aI3
aI3578
aI5
aI16
aI7167
aI221
aI75
aI5428
aI11004
aI73
aI22
aI4615
aI63765
asg6
S'However  the existence of structural unemployment may reflect choices made by the unemployed in the past  while classical (natural) unemployment may result from the legislative and economic choices made by labour unions or political parties .'
p11
ss.