(dp1
S'input'
p2
(dp3
S'encoded'
p4
(lp5
I64
aI2179
aI394
aI2773
aI12505
asS'ori'
p6
S'This house would embrace multiculturalism'
p7
ssS'output'
p8
(dp9
g4
(lp10
I4319
aI366
aI3
aI4649
aI14911
aI2164
aI59319
aI59320
aI415
aI736
aI546
aI24
aI42
aI1612
aI5639
aI100
aI7
aI3
aI5050
aI2511
aI24
aI2997
aI45
aI3204
aI4226
aI2567
aI63765
asg6
S'Soon after the fourth Indonesian President  Abdurrahman Wahid came into power in 1999  he quickly abolished some of the discriminatory laws in efforts to improve race relationships .'
p11
ss.