(dp1
S'input'
p2
(dp3
S'encoded'
p4
(lp5
I64
aI2179
aI13605
aI2258
aI45
aI2194
asS'ori'
p6
S'This house prefers trade to aid'
p7
ssS'output'
p8
(dp9
g4
(lp10
I3
aI217
aI839
aI7346
aI7
aI982
aI2153
aI116
aI982
aI3440
aI7
aI3976
aI5
aI5229
aI7
aI3269
aI63765
asg6
S"The most direct consequence of low GDP is Africa's low standard of living and quality of life ."
p11
ss.