(dp1
S'input'
p2
(dp3
S'encoded'
p4
(lp5
I64
aI2179
aI43
aI63
aI2659
aI417
aI1690
aI3
aI12048
aI7
aI19084
asS'ori'
p6
S'This house believes that Israel should lift the blockade of Gaza'
p7
ssS'output'
p8
(dp9
g4
(lp10
I24
aI387
aI273
aI382
aI7058
aI24
aI725
aI385
aI158
aI6429
aI53
aI93
aI5280
aI742
aI3
aI1780
aI122
aI2034
aI5
aI55
aI443
aI3846
aI8349
aI24
aI3
aI2231
aI7
aI282
aI2163
aI63765
asg6
S'In Italy  there were protests in many cities  including Rome  where one speaker said the situation was "extremely serious and has no precedent whatsoever in the history of international diplomacy .'
p11
ss.