(dp1
S'input'
p2
(dp3
S'encoded'
p4
(lp5
I64
aI2179
aI43
aI63
aI2203
aI60
aI51
aI997
aI2837
aI21716
aI1636
aI5349
aI417
aI2998
aI8532
aI45
aI3051
aI8578
asS'ori'
p6
S'This house believes that countries with an imbalanced male/female ratio skewed towards males should encourage parents to produce girls'
p7
ssS'output'
p8
(dp9
g4
(lp10
I64
aI2425
aI45
aI2034
aI17781
aI7
aI3
aI4828
aI4699
aI2994
aI45
aI1353
aI45
aI2140
aI3394
aI75
aI3
aI285
aI3217
aI2134
aI63765
asg6
S'This led to serious underreporting of the Infant mortality rate (by 22% to 25%) relative to standards recommended by the World Health Organization  .'
p11
ss.