(dp1
S'input'
p2
(dp3
S'encoded'
p4
(lp5
I64
aI2179
aI394
aI5370
aI223
aI4013
aI10440
aI2446
aI4881
aI75
aI14482
aI11004
asS'ori'
p6
S'This house would abolish all collective bargaining rights claimed by trades unions'
p7
ssS'output'
p8
(dp9
g4
(lp10
I117
aI89
aI2583
aI759
aI461
aI45
aI3
aI6941
aI226
aI3
aI1334
aI11614
aI440
aI12
aI3
aI6374
aI63765
asg6
S'Only a minor part went to the workers  while the primary beneficiaries had been the wealthy  .'
p11
ss.