(dp1
S'input'
p2
(dp3
S'encoded'
p4
(lp5
I64
aI2179
aI43
aI63
aI2659
aI417
aI1690
aI3
aI12048
aI7
aI19084
asS'ori'
p6
S'This house believes that Israel should lift the blockade of Gaza'
p7
ssS'output'
p8
(dp9
g4
(lp10
I3
aI6056
aI883
aI24909
aI440
aI89
aI23372
aI2274
aI4196
aI19097
aI14
aI1260
aI19084
aI19096
aI3
aI5119
aI23372
aI122
aI395
aI579
aI45
aI2592
aI2436
aI3161
aI24
aI4326
aI7
aI19084
aI19096
aI226
aI29975
aI461
aI60
aI29938
aI63765
asg6
S'The Israeli newspaper Haaretz had a headline initially reading "Botched raid on Free Gaza Flotilla " the online headline was later changed to "Israel fears diplomatic backlash in wake of Gaza flotilla deaths"  while Maariv went with "Flotilla Fiasco .'
p11
ss.