(dp1
S'input'
p2
(dp3
S'encoded'
p4
(lp5
I64
aI2179
aI394
aI4325
aI2042
aI270
aI89
aI11605
aI3324
asS'ori'
p6
S'This house would fund education using a voucher scheme'
p7
ssS'output'
p8
(dp9
g4
(lp10
I24
aI3
aI237
aI8219
aI7
aI25
aI26
aI57
aI459
aI19383
aI3007
aI1966
aI63
aI3
aI3014
aI7
aI3
aI1950
aI3264
aI116
aI45
aI238
aI89
aI1945
aI14
aI260
aI4485
aI99
aI45
aI3418
aI3351
aI3923
aI2446
aI73
aI501
aI63765
asg6
S'In the first chapter of his book  Freedom Under Siege  Paul argued that the purpose of the Second Amendment is to place a check on government tyranny  not to merely grant hunting rights or allow self-defense .'
p11
ss.