(dp1
S'input'
p2
(dp3
S'encoded'
p4
(lp5
I64
aI2179
aI43
aI63
aI2157
aI2565
aI493
aI19084
aI382
aI4850
asS'ori'
p6
S"This house believes that Israel's 2008-2009 military operations against Gaza were justified"
p7
ssS'output'
p8
(dp9
g4
(lp10
I357
aI382
aI2569
aI45
aI13004
aI2250
aI8519
aI291
aI6129
aI5
aI2659
aI63765
asg6
S'We were planning to schedule peace talks between Syria and Israel .'
p11
ss.