(dp1
S'input'
p2
(dp3
S'encoded'
p4
(lp5
I64
aI2179
aI43
aI63
aI2157
aI2565
aI493
aI19084
aI382
aI4850
asS'ori'
p6
S"This house believes that Israel's 2008-2009 military operations against Gaza were justified"
p7
ssS'output'
p8
(dp9
g4
(lp10
I42
aI7132
aI234
aI63
aI15
aI4615
aI7434
aI45
aI45
aI14387
aI271
aI3802
aI5
aI63
aI78
aI11
aI14909
aI5
aI20088
aI131
aI790
aI45
aI405
aI768
aI273
aI116
aI212
aI130
aI24
aI271
aI3659
aI63765
asg6
S'He emphasised Botswana\'s view that both parties "must learn to talk" to resolve their differences and that "If people have mouths and brains but decide to fight  then there is real poverty in their thinking .'
p11
ss.