(dp1
S'input'
p2
(dp3
S'encoded'
p4
(lp5
I64
aI2179
aI43
aI223
aI2138
aI11
aI89
aI21
aI45
aI2185
aI372
asS'ori'
p6
S'This house believes all nations have a right to nuclear weapons'
p7
ssS'output'
p8
(dp9
g4
(lp10
I378
aI24
aI6260
aI3
aI3661
aI7
aI89
aI2417
aI2418
aI122
aI1445
aI868
aI45
aI11888
aI3
aI6834
aI34
aI3
aI1608
aI1896
aI2439
aI165
aI149
aI3
aI136
aI11889
asg6
S'However  in reality the problem of a "regular" atomic bomb was large enough to preoccupy the scientists for the next few years  much less the more speculative "Super ."'
p11
ss.