(dp1
S'input'
p2
(dp3
S'encoded'
p4
(lp5
I64
aI2179
aI394
aI190
aI3
aI21
aI45
aI3895
aI834
asS'ori'
p6
S'This house would limit the right to bear arms'
p7
ssS'output'
p8
(dp9
g4
(lp10
I155
aI96
aI1360
aI5
aI24
aI6174
aI3
aI2611
aI2446
aI566
aI60
aI3923
aI5
aI248
aI18901
aI381
aI4948
aI1381
aI132
aI4948
aI182
aI99
aI243
aI5652
aI75
aI223
aI545
aI3
aI2611
aI3905
aI63765
asg6
S'They support  widely and in principle  the gun rights associated with hunting and other outdoor sports activities  although these activities are not always practiced by all within the gun culture .'
p11
ss.