(dp1
S'input'
p2
(dp3
S'encoded'
p4
(lp5
I64
aI2179
aI13605
aI2258
aI45
aI2194
asS'ori'
p6
S'This house prefers trade to aid'
p7
ssS'output'
p8
(dp9
g4
(lp10
I100
aI5019
aI4302
aI3
aI4462
aI7
aI41
aI183
aI3025
aI63765
asg6
S'Some economists (especially Libertarians) criticize the WTO\'s definition of "free trade" as too narrow .'
p11
ss.