(dp1
S'input'
p2
(dp3
S'encoded'
p4
(lp5
I64
aI2179
aI43
aI63
aI3376
aI4938
aI417
aI316
aI3537
asS'ori'
p6
S'This house believes that endangered species should be protected'
p7
ssS'output'
p8
(dp9
g4
(lp10
I691
aI3
aI3445
aI7
aI6747
aI6684
aI6793
aI55
aI7883
aI45
aI2629
aI60
aI149
aI605
aI773
aI575
aI45
aI73
aI113
aI2942
aI3089
aI63765
asg6
S'Since 2000 the concept of landscape scale conservation has risen to prominence  with less emphasis being given to single-species or even single-habitat focused actions .'
p11
ss.