(dp1
S'input'
p2
(dp3
S'encoded'
p4
(lp5
I64
aI2179
aI43
aI63
aI3
aI21
aI45
aI12715
aI417
aI99
aI316
aI2897
asS'ori'
p6
S'This house believes that the right to asylum should not be absolute'
p7
ssS'output'
p8
(dp9
g4
(lp10
I3
aI4462
aI7
aI89
aI3215
aI311
aI64
aI413
aI122
aI51
aI229
aI60
aI843
aI89
aI40693
aI17831
aI73
aI89
aI7
aI3435
aI75
aI3
aI282
aI3215
aI2134
aI63765
asg6
S'The definition of a refugee at this time was an individual with either a Nansen passport or a "Certificate of Eligibility" issued by the International Refugee Organization .'
p11
ss.