(dp1
S'input'
p2
(dp3
S'encoded'
p4
(lp5
I64
aI2179
aI394
aI4325
aI2042
aI270
aI89
aI11605
aI3324
asS'ori'
p6
S'This house would fund education using a voucher scheme'
p7
ssS'output'
p8
(dp9
g4
(lp10
I257
aI221
aI70
aI64
aI3545
aI394
aI14369
aI3830
aI10
aI3342
aI5
aI2083
aI220
aI45
aI790
aI755
aI45
aI501
aI8209
aI7
aI2767
aI2537
aI5
aI4011
aI131
aI394
aI99
aI6767
aI60
aI3
aI3393
aI7
aI4825
aI2503
aI70
aI63765
asg6
S'If made law  this provision would purportedly permit state  county  and local governments to decide whether to allow displays of religious text and imagery  but would not interfere with the application of relevant federal law .'
p11
ss.