(dp1
S'input'
p2
(dp3
S'encoded'
p4
(lp5
I64
aI2179
aI43
aI17
aI4941
aI857
aI3211
asS'ori'
p6
S'This house believes social deprivation causes crime'
p7
ssS'output'
p8
(dp9
g4
(lp10
I1592
aI14
aI19
aI3
aI4248
aI2240
aI5
aI7934
aI3168
aI5
aI174
aI4797
aI14
aI13247
aI2096
aI7
aI13913
aI2016
aI28368
aI12007
aI2942
aI14
aI1488
aI2637
aI3136
aI29558
aI1931
aI19
aI3
aI8277
aI45
aI399
aI271
aI284
aI3527
aI5
aI4596
aI1191
aI3269
aI63765
asg6
S"Following on from the Chicago school and Strain Theory  and also drawing on Edwin Sutherland's idea of differential association  subcultural theorists focused on small cultural groups fragmenting away from the mainstream to form their own values and meanings about life ."
p11
ss.