(dp1
S'input'
p2
(dp3
S'encoded'
p4
(lp5
I64
aI2179
aI43
aI63
aI3
aI21
aI45
aI12715
aI417
aI99
aI316
aI2897
asS'ori'
p6
S'This house believes that the right to asylum should not be absolute'
p7
ssS'output'
p8
(dp9
g4
(lp10
I257
aI3
aI12938
aI116
aI695
aI45
aI316
aI89
aI3266
aI3215
aI5
aI116
aI4626
aI12715
aI75
aI3
aI44830
aI42
aI47
aI840
aI316
aI3234
aI45
aI6750
aI4564
aI4624
aI5
aI89
aI3215
aI7543
aI7733
aI63765
asg6
S'If the applicant is determined to be a legitimate refugee and is granted asylum by the FMS  he will immediately be entitled to receive travel documents and a refugee ID card .'
p11
ss.