(dp1
S'input'
p2
(dp3
S'encoded'
p4
(lp5
I64
aI2179
aI43
aI8629
aI116
aI3
aI117
aI998
asS'ori'
p6
S'This house believes atheism is the only way'
p7
ssS'output'
p8
(dp9
g4
(lp10
I8313
aI153
aI1619
aI12375
aI63
aI182
aI99
aI7994
aI41
aI3
aI5545
aI8571
aI4042
aI493
aI371
aI26972
aI7
aI1801
aI21000
aI73
aI8892
aI3862
aI7
aI12344
aI63765
asg6
S'Religions often require behaviors that are not sensible (such as the Old Testament prohibition against wearing garments of mixed fabrics  or punishing children of guilty parents)  .'
p11
ss.