(dp1
S'input'
p2
(dp3
S'encoded'
p4
(lp5
I64
aI2179
aI394
aI16756
aI20435
asS'ori'
p6
S'This house would criminalize blasphemy'
p7
ssS'output'
p8
(dp9
g4
(lp10
I5162
aI14
aI20539
aI5549
aI4513
aI3
aI13297
aI63765
asg6
S'Released on $1 000 bail  Smith appealed the verdict .'
p11
ss.