(dp1
S'input'
p2
(dp3
S'encoded'
p4
(lp5
I64
aI2179
aI394
aI2017
aI262
asS'ori'
p6
S'This house would ban boxing'
p7
ssS'output'
p8
(dp9
g4
(lp10
I134
aI116
aI2056
aI2428
aI63
aI8875
aI5
aI11397
aI1356
aI88
aI15
aI316
aI1989
aI34
aI3
aI4658
aI7
aI2008
aI63765
asg6
S'It is now thought that structural and psychiatric factors may both be responsible for the effects of concussion  .'
p11
ss.