(dp1
S'input'
p2
(dp3
S'encoded'
p4
(lp5
I64
aI2179
aI394
aI2017
aI223
aI9058
aI23653
asS'ori'
p6
S'This house would ban all unsustainable logging'
p7
ssS'output'
p8
(dp9
g4
(lp10
I117
aI298
aI5536
aI6449
aI139
aI89
aI18859
aI73
aI8254
aI10662
aI6695
aI289
aI51
aI2097
aI73
aI593
aI22903
aI63765
asg6
S'Only when actively growing can a tree or forest remove carbon over an annual or longer timeframe .'
p11
ss.