(dp1
S'input'
p2
(dp3
S'encoded'
p4
(lp5
I64
aI2179
aI43
aI63
aI3
aI21
aI45
aI12715
aI417
aI99
aI316
aI2897
asS'ori'
p6
S'This house believes that the right to asylum should not be absolute'
p7
ssS'output'
p8
(dp9
g4
(lp10
I132
aI2100
aI3099
aI41790
aI282
aI41791
aI41792
aI3211
aI34
aI281
aI14692
aI5
aI2895
aI7196
aI41793
aI411
aI12691
aI41792
aI1989
aI34
aI2900
aI7
aI3
aI8559
aI4562
aI3661
aI296
aI2425
aI45
aI289
aI2439
aI16013
aI7556
aI5
aI3
aI49
aI19040
aI7
aI26339
aI8559
aI5
aI41793
aI41794
aI89
aI41795
aI14997
aI41
aI89
aI24000
aI41796
aI12715
aI22768
aI34
aI3189
aI7
aI13273
aI63765
asg6
S"These included Operation Fisco - international Romainian OCG (Organised Crime Group)responsible for major forgery and bank fraud  Op James - Nigerian pan-Europe OCG responsible for 90 percent of the UK's marriage abuse problem (the result led to over 35 years custodial sentencing and the almost eradication of bogus marriage reports); and Op Devon - A conman posing as a barrister extorting asylum seekers for millions of pounds ."
p11
ss.