(dp1
S'input'
p2
(dp3
S'encoded'
p4
(lp5
I64
aI2179
aI43
aI63
aI134
aI116
aI400
aI21
aI34
aI3
aI260
aI45
aI3439
aI57
aI7
aI2381
asS'ori'
p6
S'This house believes that it is sometimes right for the government to restrict freedom of speech'
p7
ssS'output'
p8
(dp9
g4
(lp10
I89
aI1343
aI116
aI3
aI33
aI7
aI20971
aI48014
aI81
aI122
aI7541
aI75
aI3
aI2023
aI2445
aI2446
aI2130
aI34
aI3932
aI2812
aI11095
aI2089
aI25
aI2127
aI63765
asg6
S'A well-known example is the case of Ernst Zundel  who was investigated by the Canadian Human Rights Commission for promoting ethnic hatred via his website .'
p11
ss.