(dp1
S'input'
p2
(dp3
S'encoded'
p4
(lp5
I64
aI2179
aI43
aI63
aI3376
aI4938
aI417
aI316
aI3537
asS'ori'
p6
S'This house believes that endangered species should be protected'
p7
ssS'output'
p8
(dp9
g4
(lp10
I298
aI1948
aI7
aI3
aI285
aI440
aI99
aI12
aI17403
aI3072
aI5
aI38369
aI6834
aI463
aI99
aI306
aI864
aI63
aI3921
aI353
aI117
aI24
aI3
aI6674
aI781
aI382
aI99
aI1032
aI24
aI38370
aI2317
aI7
aI3
aI6267
aI63765
asg6
S'When parts of the world had not been thoroughly examined and charted  scientists could not rule out that animals found only in the fossil record were not simply "hiding" in unexplored regions of the Earth  .'
p11
ss.