(dp1
S'input'
p2
(dp3
S'encoded'
p4
(lp5
I64
aI2179
aI394
aI2998
aI3
aI4360
aI7
aI3249
aI6804
aI24
aI3
aI102
asS'ori'
p6
S'This house would encourage the creation of private universities in the UK'
p7
ssS'output'
p8
(dp9
g4
(lp10
I257
aI3249
aI5
aI7762
aI12304
aI493
aI574
aI248
aI768
aI3
aI10
aI4443
aI88
aI23129
aI137
aI136
aI7417
aI19
aI3
aI7337
aI3210
aI138
aI3249
aI7762
aI691
aI3
aI10
aI4443
aI7762
aI182
aI990
aI2149
aI75
aI3
aI4107
aI5
aI888
aI2961
aI546
aI7
aI3
aI10
aI2799
aI51
aI5855
aI502
aI63765
asg6
S'If private and state-owned enterprises compete against each other  then the state owned may borrow money more cheaply from the debt markets than private enterprises  since the state owned enterprises are ultimately backed by the taxation and printing press power of the state  gaining an unfair advantage .'
p11
ss.