(dp1
S'input'
p2
(dp3
S'encoded'
p4
(lp5
I64
aI2179
aI43
aI24
aI3
aI475
aI7
aI12436
aI3364
asS'ori'
p6
S'This house believes in the use of affirmative action'
p7
ssS'output'
p8
(dp9
g4
(lp10
I1381
aI159
aI12395
aI17188
aI11
aI12
aI1360
aI27221
aI366
aI285
aI2223
aI2236
aI5
aI3
aI11083
aI10535
aI5
aI10250
aI4933
aI11
aI485
aI657
aI589
aI3
aI285
aI63765
asg6
S'Although such racist ideologies have been widely discredited after World War II and the Holocaust  racism and racial discrimination have remained widespread around the world .'
p11
ss.