(dp1
S'input'
p2
(dp3
S'encoded'
p4
(lp5
I64
aI2179
aI394
aI117
aI7428
aI21151
aI34
aI11389
aI2042
aI24
aI4364
asS'ori'
p6
S'This house would only teach abstinence for sex education in schools'
p7
ssS'output'
p8
(dp9
g4
(lp10
I2041
aI4446
aI7
aI78
aI4159
aI3131
aI7
aI4902
aI1476
aI271
aI16356
aI45
aI2693
aI89
aI3427
aI75
aI3
aI312
aI63765
asg6
S'Research suggests 60-80% of people completing 3 months of treatment reduce their intake to <24 units a week by the end .'
p11
ss.