(dp1
S'input'
p2
(dp3
S'encoded'
p4
(lp5
I64
aI2179
aI43
aI8629
aI116
aI3
aI117
aI998
asS'ori'
p6
S'This house believes atheism is the only way'
p7
ssS'output'
p8
(dp9
g4
(lp10
I3
aI1420
aI2513
aI16085
aI122
aI89
aI939
aI47522
aI1039
aI24
aI3
aI2231
aI7
aI3707
aI397
aI3
aI481
aI5
aI320
aI388
aI131
aI211
aI3851
aI399
aI116
aI49
aI1748
aI18764
aI75
aI2478
aI2643
aI63765
asg6
S'The historical conflict thesis was a popular historiographical approach in the history of science during the late 19th and early 20th centuries  but its original form is almost entirely discarded by scholars today  .'
p11
ss.