(dp1
S'input'
p2
(dp3
S'encoded'
p4
(lp5
I64
aI2179
aI43
aI63
aI3
aI4991
aI7
aI180
aI417
aI316
aI5396
aI19
aI3
aI169
aI10
asS'ori'
p6
S'This house believes that the Church of England should be separated from the British state'
p7
ssS'output'
p8
(dp9
g4
(lp10
I4169
aI26350
aI24
aI4169
aI26351
aI116
aI89
aI3445
aI18541
aI3
aI3579
aI7
aI2767
aI3186
aI24
aI260
aI2181
aI41
aI261
aI41
aI3579
aI7
aI260
aI3186
aI24
aI2767
aI2181
aI63765
asg6
S'French secularism  in French  laicite (pronounced ) is a concept denoting the absence of religious involvement in government affairs as well as absence of government involvement in religious affairs  .'
p11
ss.