(dp1
S'input'
p2
(dp3
S'encoded'
p4
(lp5
I64
aI2179
aI43
aI223
aI2138
aI11
aI89
aI21
aI45
aI2185
aI372
asS'ori'
p6
S'This house believes all nations have a right to nuclear weapons'
p7
ssS'output'
p8
(dp9
g4
(lp10
I24
aI88
aI2450
aI5
aI2661
aI574
aI7686
aI1237
aI2185
aI5254
aI7640
aI63765
asg6
S'In May 1998 India and Pakistan each exploded several nuclear devices underground .'
p11
ss.