(dp1
S'input'
p2
(dp3
S'encoded'
p4
(lp5
I64
aI2179
aI394
aI5370
aI3
aI5286
asS'ori'
p6
S'This house would abolish the monarchy'
p7
ssS'output'
p8
(dp9
g4
(lp10
I1692
aI116
aI75
aI6451
aI3207
aI75
aI15
aI3
aI2784
aI7
aI5346
aI5
aI2029
aI7
aI2446
aI2474
aI63
aI447
aI3
aI1692
aI45
aI3
aI35
aI63765
asg6
S'Succession is by male-preference primogeniture governed by both the Act of Settlement 1701  and Bill of Rights 1689  legislation that limits the succession to the natural (i .e .'
p11
ss.