(dp1
S'input'
p2
(dp3
S'encoded'
p4
(lp5
I64
aI2179
aI394
aI190
aI3
aI21
aI45
aI3895
aI834
asS'ori'
p6
S'This house would limit the right to bear arms'
p7
ssS'output'
p8
(dp9
g4
(lp10
I24
aI89
aI5325
aI122
aI557
aI24
aI2452
aI14
aI3
aI4538
aI7
aI3892
aI5
aI3989
aI45
aI1222
aI45
aI979
aI3
aI696
aI7
aI457
aI1021
aI45
aI1374
aI63765
asg6
S'In 2005  a referendum was held in Brazil on the sale of firearms and ammunition to attempt to lower the number of deaths due to guns .'
p11
ss.