(dp1
S'input'
p2
(dp3
S'encoded'
p4
(lp5
I64
aI2179
aI43
aI63
aI3
aI4538
aI7
aI4434
aI7793
aI283
aI45
aI3586
aI417
aI316
aI577
asS'ori'
p6
S'This house believes that the sale of violent video games to minors should be banned'
p7
ssS'output'
p8
(dp9
g4
(lp10
I248
aI2992
aI11
aI3467
aI729
aI63
aI159
aI89
aI3968
aI1967
aI217
aI1052
aI6303
aI5
aI3876
aI56828
aI10845
aI4047
aI63765
aI4220
aI46256
aI5
aI56829
aI5
aI6220
aI42349
asg6
S'other studies have explicitly denied that such a connection exists  most notably Anderson and Ford (1986)  Winkel et al . (1987)  Scott (1995)  Ballard and Lineberger (1999)  and Jonathan Freedman (2002) '
p11
ss.