(dp1
S'input'
p2
(dp3
S'encoded'
p4
(lp5
I64
aI2179
aI43
aI24
aI3
aI475
aI7
aI12436
aI3364
asS'ori'
p6
S'This house believes in the use of affirmative action'
p7
ssS'output'
p8
(dp9
g4
(lp10
I3905
aI5
aI4226
aI373
aI513
aI12918
aI5
aI5966
aI111
aI574
aI248
aI400
aI113
aI45
aI3
aI6
aI7
aI158
aI12420
aI73
aI3657
aI45
aI3
aI1629
aI7
aI4462
aI63765
asg6
S'Culture and race became considered intertwined and dependent upon each other  sometimes even to the extent of including nationality or language to the set of definition .'
p11
ss.