(dp1
S'input'
p2
(dp3
S'encoded'
p4
(lp5
I64
aI2179
aI394
aI5370
aI7146
aI4585
aI2446
asS'ori'
p6
S'This house would abolish intellectual property rights'
p7
ssS'output'
p8
(dp9
g4
(lp10
I14
aI3
aI248
aI1070
aI3
aI9473
aI7
aI3
aI3006
aI27653
aI17284
aI11704
aI139
aI13551
aI3
aI3851
aI11704
aI9473
aI19
aI270
aI3
aI4350
aI63765
asg6
S'On the other hand  the owner of the improved mouse trap patent can exclude the original patent owner from using the improvement .'
p11
ss.