(dp1
S'input'
p2
(dp3
S'encoded'
p4
(lp5
I64
aI2179
aI394
aI2976
aI12243
aI24
aI954
aI126
aI1560
aI10723
asS'ori'
p6
S'This house would implement playoffs in collegiate level American football'
p7
ssS'output'
p8
(dp9
g4
(lp10
I64
aI1488
aI4900
aI122
aI89
aI296
aI7
aI3
aI2445
aI5003
aI3713
aI5
aI3366
aI5216
aI7514
aI2296
aI2510
aI7683
aI226
aI3
aI5226
aI5003
aI440
aI3
aI267
aI4144
aI2915
aI34
aI1950
aI63765
asg6
S"This small difference was a result of the human polls (USA Today's Coaches' Poll and Harris Interactive Poll) ranking Florida above Michigan while the computer polls had the two teams tied for second ."
p11
ss.