(dp1
S'input'
p2
(dp3
S'encoded'
p4
(lp5
I64
aI2179
aI394
aI2017
aI262
asS'ori'
p6
S'This house would ban boxing'
p7
ssS'output'
p8
(dp9
g4
(lp10
I132
aI442
aI500
aI501
aI3
aI455
aI51
aI502
aI99
aI503
aI75
aI155
aI504
aI3
aI468
aI45
aI505
aI45
aI93
aI506
aI45
aI507
aI89
aI464
aI311
aI351
aI413
aI63765
asg6
S"These rules did allow the fighters an advantage not enjoyed by today's boxers: They permitted the fighter to drop to one knee to begin a 30-second count at any time ."
p11
ss.