(dp1
S'input'
p2
(dp3
S'encoded'
p4
(lp5
I64
aI2179
aI43
aI63
aI3
aI21
aI45
aI12715
aI417
aI99
aI316
aI2897
asS'ori'
p6
S'This house believes that the right to asylum should not be absolute'
p7
ssS'output'
p8
(dp9
g4
(lp10
I134
aI1048
aI45
aI738
aI45
aI3
aI2554
aI3037
aI5
aI975
aI63
aI443
aI93
aI199
aI19
aI3
aI2617
aI63765
asg6
S'It seeks to return to the pre-conflict status quo and ensure that no one profits from the violence .'
p11
ss.