(dp1
S'input'
p2
(dp3
S'encoded'
p4
(lp5
I64
aI2179
aI394
aI3830
aI3
aI475
aI7
aI9441
aI13132
aI3102
aI24
aI276
aI381
asS'ori'
p6
S'This house would permit the use of performance enhancing drugs in professional sports'
p7
ssS'output'
p8
(dp9
g4
(lp10
I89
aI22
aI1180
aI912
aI55
aI4316
aI24
aI100
aI7
aI132
aI2203
aI63765
asg6
S'A political counter current has formed in some of these countries .'
p11
ss.