(dp1
S'input'
p2
(dp3
S'encoded'
p4
(lp5
I64
aI2179
aI394
aI15841
aI2736
asS'ori'
p6
S'This house would disband ASEAN'
p7
ssS'output'
p8
(dp9
g4
(lp10
I7350
aI64
aI122
aI15787
aI1021
aI45
aI3
aI31792
aI7
aI3
aI14895
aI21007
aI5
aI3
aI2769
aI2646
aI21007
aI63765
asg6
S'Unfortunately  this was unsuccessful due to the outbreaks of the 2005 Malaysian haze and the 2006 Southeast Asian haze .'
p11
ss.