(dp1
S'input'
p2
(dp3
S'encoded'
p4
(lp5
I64
aI2179
aI43
aI17
aI4941
aI857
aI3211
asS'ori'
p6
S'This house believes social deprivation causes crime'
p7
ssS'output'
p8
(dp9
g4
(lp10
I5195
aI41
aI89
aI296
aI7
aI732
aI2992
aI59017
aI3402
aI3
aI596
aI45
aI3
aI5117
aI4637
aI7
aI3
aI1263
aI17
aI128
aI7
aI3
aI54
aI7
aI11389
aI63765
asg6
S'Partly as a result of her studies  Cavan (1953) emphasized the importance to the efficient functioning of the entire social order of the regulation of sex .'
p11
ss.