(dp1
S'input'
p2
(dp3
S'encoded'
p4
(lp5
I64
aI2179
aI43
aI24
aI3
aI475
aI7
aI12436
aI3364
asS'ori'
p6
S'This house believes in the use of affirmative action'
p7
ssS'output'
p8
(dp9
g4
(lp10
I226
aI5025
aI2625
aI11
aI12
aI713
aI311
aI100
aI126
aI691
aI3
aI7932
aI44515
aI7
aI132
aI2511
aI2455
aI2643
aI63765
asg6
S'While African Americans have been present at some level since 1805  the demographic reverberations of these laws remain today  .'
p11
ss.