(dp1
S'input'
p2
(dp3
S'encoded'
p4
(lp5
I64
aI2179
aI43
aI63
aI134
aI116
aI400
aI21
aI34
aI3
aI260
aI45
aI3439
aI57
aI7
aI2381
asS'ori'
p6
S'This house believes that it is sometimes right for the government to restrict freedom of speech'
p7
ssS'output'
p8
(dp9
g4
(lp10
I50506
aI1453
aI99
aI186
aI493
aI2445
aI2446
aI131
aI4827
aI63
aI2445
aI2446
aI182
aI17
aI5660
aI5
aI182
aI4441
aI75
aI2637
aI5
aI6669
aI12423
aI63765
asg6
S'Relativists do not argue against human rights  but concede that human rights are social constructed and are shaped by cultural and environmental contexts .'
p11
ss.