(dp1
S'input'
p2
(dp3
S'encoded'
p4
(lp5
I64
aI2179
aI43
aI63
aI6670
aI546
aI417
aI316
aI89
aI1334
aI3108
aI7
aI4849
aI1886
aI2855
asS'ori'
p6
S'This house believes that wind power should be a primary focus of future energy supply'
p7
ssS'output'
p8
(dp9
g4
(lp10
I273
aI182
aI443
aI8489
aI5136
aI34
aI3
aI2410
aI7
aI2881
aI19
aI6670
aI63765
asg6
S'There are no external costs for the production of electricity from wind .'
p11
ss.