(dp1
S'input'
p2
(dp3
S'encoded'
p4
(lp5
I64
aI2179
aI43
aI8629
aI116
aI3
aI117
aI998
asS'ori'
p6
S'This house believes atheism is the only way'
p7
ssS'output'
p8
(dp9
g4
(lp10
I1381
aI89
aI63765
aI2839
aI63765
aI55902
aI55
aI418
aI63
aI64
aI116
aI3819
aI131
aI89
aI4462
aI7
aI21726
aI8895
aI4462
aI2605
aI3515
aI4838
aI21726
aI45
aI15974
aI63
aI132
aI18739
aI214
aI182
aI4663
aI21974
aI63765
asg6
S"Although A . W . Momerie has noted that this is nothing but a definition of honesty  Huxley's usual definition goes beyond mere honesty to insist that these metaphysical issues are fundamentally unknowable ."
p11
ss.