(dp1
S'input'
p2
(dp3
S'encoded'
p4
(lp5
I64
aI2179
aI394
aI4261
aI8667
aI3
aI9361
aI5
aI17069
asS'ori'
p6
S'This house would prohibit burning the stars and stripes'
p7
ssS'output'
p8
(dp9
g4
(lp10
I257
aI64
aI4042
aI116
aI2909
aI2481
aI394
aI63
aI1619
aI21073
aI7
aI3
aI8865
aI63764
asg6
S"If this prohibition is actually unconstitutional  would that require reversal of the defendant's conviction ?"
p11
ss.