(dp1
S'input'
p2
(dp3
S'encoded'
p4
(lp5
I64
aI2179
aI43
aI63
aI6670
aI546
aI417
aI316
aI89
aI1334
aI3108
aI7
aI4849
aI1886
aI2855
asS'ori'
p6
S'This house believes that wind power should be a primary focus of future energy supply'
p7
ssS'output'
p8
(dp9
g4
(lp10
I1928
aI3569
aI3
aI6670
aI6677
aI14463
aI868
aI915
aI2881
aI45
aI4726
aI3
aI582
aI2097
aI1227
aI7
aI100
aI4492
aI63765
asg6
S'Every year the wind farm generates enough clean electricity to meet the average annual needs of some 54 000 homes  .'
p11
ss.