(dp1
S'input'
p2
(dp3
S'encoded'
p4
(lp5
I64
aI2179
aI394
aI16642
aI1376
aI5269
asS'ori'
p6
S'This house would subsidize poor communities'
p7
ssS'output'
p8
(dp9
g4
(lp10
I16
aI5969
aI116
aI2867
aI34
aI22
aI57
asg6
S'economic equality is necessary for political freedom'
p11
ss.