(dp1
S'input'
p2
(dp3
S'encoded'
p4
(lp5
I64
aI2179
aI43
aI63
aI2659
aI417
aI1690
aI3
aI12048
aI7
aI19084
asS'ori'
p6
S'This house believes that Israel should lift the blockade of Gaza'
p7
ssS'output'
p8
(dp9
g4
(lp10
I3
aI6203
aI7
aI19359
aI807
aI45
aI1049
aI3
aI12048
aI394
aI316
aI51
aI5756
aI11571
aI24
aI19084
aI117
aI89
aI1896
aI5104
aI15161
aI19
aI19171
aI19172
aI5
aI8434
asg6
S'the consequences of Israels failure to maintain the blockade would be an Iranian port in Gaza  only a few dozen kilometers from Tel Aviv and Jerusalem'
p11
ss.