(dp1
S'input'
p2
(dp3
S'encoded'
p4
(lp5
I64
aI2179
aI43
aI63
aI3
aI4538
aI7
aI4434
aI7793
aI283
aI45
aI3586
aI417
aI316
aI577
asS'ori'
p6
S'This house believes that the sale of violent video games to minors should be banned'
p7
ssS'output'
p8
(dp9
g4
(lp10
I48739
aI48740
aI7
aI3
aI667
aI2086
aI1727
aI2032
aI63
aI3
aI752
aI417
aI316
aI89
aI1342
aI45
aI3
aI5938
aI45
aI342
aI63
aI155
aI139
aI16399
aI14
aI3
aI752
aI63
aI7793
aI283
aI182
aI89
aI399
aI7
aI348
aI8531
aI3
aI5938
aI1198
aI475
aI134
aI41
aI1616
aI45
aI16602
aI864
aI48741
aI73
aI47
aI1198
aI544
aI45
aI3
aI511
aI5
aI42656
aI63
aI55
aI12
aI8156
aI1198
aI63764
asg6
S'" Seth Schiesel of the New York Times proposed that the Court\'s decision should be a challenge to the industry to show that they can mature on the decision that video games are a form of art  questioning the industry "Will you use it as cover to pump out schlock or will you rise to the opportunity and respectability that has been afforded you ?'
p11
ss.