(dp1
S'input'
p2
(dp3
S'encoded'
p4
(lp5
I64
aI2179
aI394
aI2773
aI12505
asS'ori'
p6
S'This house would embrace multiculturalism'
p7
ssS'output'
p8
(dp9
g4
(lp10
I6645
aI26262
aI2173
aI63
aI116
aI51
aI37407
aI4368
aI63765
aI63765
asg6
S'Albert Einstein stated that "Nationalism is an infantile disease . .'
p11
ss.