(dp1
S'input'
p2
(dp3
S'encoded'
p4
(lp5
I64
aI2179
aI43
aI63
aI2157
aI2565
aI493
aI19084
aI382
aI4850
asS'ori'
p6
S"This house believes that Israel's 2008-2009 military operations against Gaza were justified"
p7
ssS'output'
p8
(dp9
g4
(lp10
I378
aI16619
aI2030
aI19216
aI16629
aI19217
aI4693
aI8344
aI3270
aI63
aI15712
aI98
aI99
aI1546
aI3
aI68
aI2223
aI4212
aI440
aI12
aI860
aI493
aI2639
aI78
aI24
aI19084
aI226
aI19088
aI2135
aI2161
aI53831
aI742
aI7217
aI500
aI99
aI1546
aI89
aI1963
aI5
aI63
aI905
aI122
aI41
aI2010
aI41
aI3
aI4212
aI63
aI2659
aI860
aI397
aI3
aI63765
asg6
S'However  Hamas spokesman Sami Abu Zuhri dismissed Goldstone\'s remarks saying that "his retreat does not change the fact war crimes had been committed against 1 .5 million people in Gaza " while Palestinian Foreign Minister Riyad aL-Malki said Goldstone\'s comments did not change a thing and that "The report was as clear as the crimes that Israel committed during the war"  .'
p11
ss.