(dp1
S'input'
p2
(dp3
S'encoded'
p4
(lp5
I64
aI2179
aI43
aI63
aI187
aI417
aI99
aI16642
aI3
aI6449
aI7
aI3935
asS'ori'
p6
S'This house believes that states should not subsidize the growing of tobacco'
p7
ssS'output'
p8
(dp9
g4
(lp10
I298
aI1769
aI7
aI3495
aI24
aI2760
aI2203
aI378
aI155
aI394
aI952
aI1630
aI12905
aI1021
aI45
aI271
aI2554
aI63765
asg6
S'When speaking of women in developing countries however  they would experience added barriers due to their low-income status .'
p11
ss.