(dp1
S'input'
p2
(dp3
S'encoded'
p4
(lp5
I64
aI2179
aI43
aI63
aI3
aI4990
aI4991
aI116
aI4850
aI24
aI12166
aI3
aI475
aI7
aI3532
aI3290
aI7
aI4714
asS'ori'
p6
S'This house believes that the Catholic Church is justified in forbidding the use of barrier methods of contraception'
p7
ssS'output'
p8
(dp9
g4
(lp10
I155
aI395
aI4155
aI45
aI875
aI1381
aI24
aI1928
aI238
aI273
aI382
aI246
aI416
aI117
aI75
aI3
aI2653
aI5
aI1740
aI4416
aI1021
aI45
aI15
aI7383
aI5
aI1160
aI7
aI11389
aI2042
aI63765
asg6
S'They later spread to America  although in every place there were generally used only by the middle and upper classes  due to both expense and lack of sex education  .'
p11
ss.