(dp1
S'input'
p2
(dp3
S'encoded'
p4
(lp5
I64
aI2179
aI43
aI63
aI3
aI21
aI45
aI12715
aI417
aI99
aI316
aI2897
asS'ori'
p6
S'This house believes that the right to asylum should not be absolute'
p7
ssS'output'
p8
(dp9
g4
(lp10
I725
aI15575
aI20
aI366
aI3
aI285
aI16
aI2979
aI7
aI5
aI3
aI9080
aI7
aI7580
aI63
aI1688
aI63765
asg6
S'Many migrants left after the world economic crisis of 2008 and the 30% devaluation of sterling that followed .'
p11
ss.