(dp1
S'input'
p2
(dp3
S'encoded'
p4
(lp5
I64
aI2179
aI394
aI190
aI3
aI21
aI45
aI3895
aI834
asS'ori'
p6
S'This house would limit the right to bear arms'
p7
ssS'output'
p8
(dp9
g4
(lp10
I3
aI21
aI7
aI3
aI4111
aI45
aI834
aI5
aI3028
aI493
aI4922
aI122
aI3444
aI34
aI1343
aI24
aI89
aI883
aI7066
aI24
aI9953
aI15814
aI45
aI3
aI169
aI202
aI7251
aI7
aI4116
aI3609
aI45
aI3
aI62348
aI63765
asg6
S'The right of the colonists to arms and rebellion against oppression was asserted  for example  in a pre-revolutionary newspaper editorial in 1769 Boston objecting to the British army suppression of colonial opposition to the Townshend Acts:  .'
p11
ss.