(dp1
S'input'
p2
(dp3
S'encoded'
p4
(lp5
I64
aI2179
aI394
aI2017
aI3807
aI314
aI3433
asS'ori'
p6
S'This house would ban partial birth abortions'
p7
ssS'output'
p8
(dp9
g4
(lp10
I3
aI3806
aI3304
aI472
aI314
aI92
aI134
aI1038
aI41
aI351
aI3257
aI24
aI92
aI3
aI3379
aI13194
aI22980
aI89
aI3976
aI4577
aI3315
aI751
aI3188
aI3
aI4577
aI3315
aI5
aI4159
aI3
aI11676
asg6
S'The Nebraska statute prohibited "partial birth abortion"  which it defined as any abortion in which the physician "partially delivers vaginally a living unborn child before killing the unborn child and completing the delivery ."'
p11
ss.