(dp1
S'input'
p2
(dp3
S'encoded'
p4
(lp5
I64
aI2179
aI394
aI4325
aI2042
aI270
aI89
aI11605
aI3324
asS'ori'
p6
S'This house would fund education using a voucher scheme'
p7
ssS'output'
p8
(dp9
g4
(lp10
I646
aI63765
aI2240
aI2128
aI7
aI3
aI4996
aI7
aI35918
aI2935
aI63
aI3
aI30111
aI6018
aI7074
aI122
aI2481
aI63765
asg6
S'v . School Board of the City of Newport News  that the pupil assignment plan was unconstitutional  .'
p11
ss.