(dp1
S'input'
p2
(dp3
S'encoded'
p4
(lp5
I64
aI2179
aI43
aI8629
aI116
aI3
aI117
aI998
asS'ori'
p6
S'This house believes atheism is the only way'
p7
ssS'output'
p8
(dp9
g4
(lp10
I18569
aI8629
aI116
aI3
aI234
aI7
aI120
aI81
aI1453
aI99
aI103
aI45
aI3084
aI3
aI3524
aI7
aI351
aI6527
aI131
aI1453
aI99
aI133
aI24
aI351
aI63765
asg6
S'Agnostic atheism is the view of those who do not claim to know the existence of any deity but do not believe in any  .'
p11
ss.