(dp1
S'input'
p2
(dp3
S'encoded'
p4
(lp5
I64
aI2179
aI394
aI2017
aI223
aI9058
aI23653
asS'ori'
p6
S'This house would ban all unsustainable logging'
p7
ssS'output'
p8
(dp9
g4
(lp10
I97
aI3661
aI116
aI63
aI3
aI6669
aI214
aI24
aI7384
aI11
aI443
aI89
aI419
aI4282
aI5
aI3
aI912
aI3301
aI4659
aI34
aI658
aI5586
aI55
aI14729
aI4658
aI14
aI6669
aI2042
aI4724
aI6442
aI5
aI3
aI1444
aI7
aI51
aI8790
aI5
aI15404
aI3202
aI2022
aI1186
aI92
aI182
aI2867
aI45
aI1853
aI5
aI475
aI44670
aI7910
aI24
aI89
aI6806
aI998
aI63765
asg6
S'Another problem is that the environmental issues in Ethiopia have no (or a very weak) lobby and the current restrictive socio-political context for public engagement has detrimental effects on environmental education  awareness  advocacy and the building of an engaged and empowered civil society  assets which are necessary to conserve and use Ethiopias forests in a sustainable way .'
p11
ss.