(dp1
S'input'
p2
(dp3
S'encoded'
p4
(lp5
I64
aI2179
aI394
aI4325
aI2042
aI270
aI89
aI11605
aI3324
asS'ori'
p6
S'This house would fund education using a voucher scheme'
p7
ssS'output'
p8
(dp9
g4
(lp10
I3
aI2482
aI2483
aI743
aI63
aI3
aI4235
aI2326
aI500
aI99
aI3559
aI3
aI2426
aI2489
aI604
aI134
aI871
aI89
aI863
aI759
aI3274
aI643
aI75
aI3
aI2483
aI24
aI64
aI33
aI11612
aI3
aI3249
aI4662
aI3274
aI63765
asg6
S'The Supreme Court ruled that the Ohio program did not violate the Establishment Clause  because it passed a five part test developed by the Court in this case  titled the Private Choice Test .'
p11
ss.