(dp1
S'input'
p2
(dp3
S'encoded'
p4
(lp5
I64
aI2179
aI394
aI2017
aI262
asS'ori'
p6
S'This house would ban boxing'
p7
ssS'output'
p8
(dp9
g4
(lp10
I41
aI572
aI41
aI3
aI718
aI1413
aI545
aI3
aI525
aI803
aI155
aI182
aI976
aI5
aI63
aI1501
aI760
aI718
aI41
aI261
aI41
aI120
aI45
aI3
aI619
aI63765
asg6
S'As long as the punches land within the scoring area  they are legal and that includes body punches  as well as those to the face .'
p11
ss.