(dp1
S'input'
p2
(dp3
S'encoded'
p4
(lp5
I64
aI2179
aI43
aI63
aI2157
aI2565
aI493
aI19084
aI382
aI4850
asS'ori'
p6
S"This house believes that Israel's 2008-2009 military operations against Gaza were justified"
p7
ssS'output'
p8
(dp9
g4
(lp10
I15
aI6085
aI5
aI5757
aI6087
aI3024
aI5523
aI3
aI2617
aI475
aI7
aI12618
aI546
asg6
S'Both Greek and Turkish Cypriot leaders condemned the violence  "Israeli forces\' use of disproportionate power'
p11
ss.