(dp1
S'input'
p2
(dp3
S'encoded'
p4
(lp5
I64
aI2179
aI394
aI16756
aI20435
asS'ori'
p6
S'This house would criminalize blasphemy'
p7
ssS'output'
p8
(dp9
g4
(lp10
I3
aI5851
aI260
aI49
aI840
aI2244
aI325
aI1411
aI1191
aI3
aI4035
aI4515
aI63765
asg6
S'The Dutch government almost immediately expressed great concern about the film release  .'
p11
ss.