(dp1
S'input'
p2
(dp3
S'encoded'
p4
(lp5
I64
aI2179
aI394
aI190
aI3
aI21
aI45
aI3895
aI834
asS'ori'
p6
S'This house would limit the right to bear arms'
p7
ssS'output'
p8
(dp9
g4
(lp10
I3
aI1950
aI3264
aI236
aI51
aI229
aI21
aI45
aI1897
aI89
aI3899
aI50379
aI60
aI3987
aI24
aI89
aI3988
aI5
aI45
aI475
aI63
aI814
aI34
aI4377
aI4378
aI792
aI159
aI41
aI545
aI3
aI3900
aI63765
asg6
S'(1) The Second Amendment protects an individual right to possess a firearm unconnected with service in a militia  and to use that arm for traditionally lawful purposes  such as self-defense within the home .'
p11
ss.