(dp1
S'input'
p2
(dp3
S'encoded'
p4
(lp5
I64
aI2179
aI43
aI63
aI2659
aI417
aI1690
aI3
aI12048
aI7
aI19084
asS'ori'
p6
S'This house believes that Israel should lift the blockade of Gaza'
p7
ssS'output'
p8
(dp9
g4
(lp10
I134
aI174
aI3041
aI63
aI2670
aI417
aI11
aI788
aI3364
aI45
aI3654
aI45
aI881
aI3
aI19096
aI19
aI1708
aI238
aI63765
asg6
S'It also concluded that Turkey should have taken action to try to prevent the flotilla from taking place .'
p11
ss.