(dp1
S'input'
p2
(dp3
S'encoded'
p4
(lp5
I64
aI2179
aI43
aI63
aI3
aI21
aI45
aI12715
aI417
aI99
aI316
aI2897
asS'ori'
p6
S'This house believes that the right to asylum should not be absolute'
p7
ssS'output'
p8
(dp9
g4
(lp10
I3
aI2711
aI7
aI12715
aI5139
aI2586
aI45
aI544
aI113
aI136
aI1612
aI63765
asg6
S'The numbers of asylum applications began to rise even more quickly .'
p11
ss.