(dp1
S'input'
p2
(dp3
S'encoded'
p4
(lp5
I64
aI2179
aI394
aI5370
aI223
aI4013
aI10440
aI2446
aI4881
aI75
aI14482
aI11004
asS'ori'
p6
S'This house would abolish all collective bargaining rights claimed by trades unions'
p7
ssS'output'
p8
(dp9
g4
(lp10
I23915
aI2848
aI63
aI203
aI83
aI3
aI152
aI145
aI92
aI116
aI136
aI11681
aI7
aI2445
aI2446
aI5
aI3447
aI138
aI351
aI248
aI5709
aI145
aI3540
aI5
aI3
aI23835
aI395
aI6317
aI25
aI4199
aI24
aI211
aI5573
aI63765
asg6
S'Boyce proclaimed that labor must "abolish the wage system which is more destructive of human rights and liberty than any other slave system devised " and the IWW later echoed his words in its Preamble .'
p11
ss.