(dp1
S'input'
p2
(dp3
S'encoded'
p4
(lp5
I64
aI2179
aI394
aI2017
aI3807
aI314
aI3433
asS'ori'
p6
S'This house would ban partial birth abortions'
p7
ssS'output'
p8
(dp9
g4
(lp10
I100
aI320
aI4983
aI5810
aI63
aI3
aI16502
aI500
aI99
aI11
aI89
aI4590
aI19
aI4642
aI5
aI6269
aI3357
aI122
aI2801
aI41
aI45
aI755
aI320
aI3257
aI122
aI4257
aI73
aI13867
aI4968
aI45
aI4257
aI63765
asg6
S'Some early Christians believed that the embryo did not have a soul from conception  and consequently opinion was divided as to whether early abortion was murder or ethically equivalent to murder  .'
p11
ss.