(dp1
S'input'
p2
(dp3
S'encoded'
p4
(lp5
I64
aI2179
aI43
aI63
aI2157
aI2565
aI493
aI19084
aI382
aI4850
asS'ori'
p6
S"This house believes that Israel's 2008-2009 military operations against Gaza were justified"
p7
ssS'output'
p8
(dp9
g4
(lp10
I42
aI1706
aI20153
aI63
aI3
aI126
aI7
aI17255
aI960
aI7
aI13705
aI116
aI982
aI2449
aI45
aI248
aI258
aI5
aI63
aI271
aI1334
aI918
aI14
aI3
aI1409
aI116
aI4817
aI63765
asg6
S'He further noticed that the level of lethal damage of IEDs is low compared to other means and that their primary impact on the target is psychological  .'
p11
ss.