(dp1
S'input'
p2
(dp3
S'encoded'
p4
(lp5
I64
aI2179
aI394
aI4325
aI2042
aI270
aI89
aI11605
aI3324
asS'ori'
p6
S'This house would fund education using a voucher scheme'
p7
ssS'output'
p8
(dp9
g4
(lp10
I3
aI2528
aI2425
aI45
aI3
aI2796
aI7
aI5
aI45
aI3
aI12997
aI7
aI4374
aI223
aI658
aI4364
aI638
aI3
aI10
aI63765
asg6
S'The ruling led to the collapse of "passive resistance" and to the integration of nearly all public schools throughout the state  .'
p11
ss.