(dp1
S'input'
p2
(dp3
S'encoded'
p4
(lp5
I64
aI2179
aI394
aI2773
aI12505
asS'ori'
p6
S'This house would embrace multiculturalism'
p7
ssS'output'
p8
(dp9
g4
(lp10
I24
aI3
aI12088
aI1004
aI3
aI7055
aI2232
aI45
aI19867
aI2022
aI19
aI3492
aI5711
aI10004
aI63765
asg6
S'In the 1960s  Quebec experienced the Quiet Revolution to modernize society from traditional Christian teachings .'
p11
ss.