(dp1
S'input'
p2
(dp3
S'encoded'
p4
(lp5
I64
aI2179
aI43
aI63
aI3
aI21
aI45
aI12715
aI417
aI99
aI316
aI2897
asS'ori'
p6
S'This house believes that the right to asylum should not be absolute'
p7
ssS'output'
p8
(dp9
g4
(lp10
I24
aI298
aI3
aI2537
aI7
aI3
aI2533
aI122
aI1729
aI3
aI4615
aI7
aI3
aI2268
aI440
aI3
aI2096
aI63
aI67
aI122
aI89
aI1963
aI19
aI3
aI3082
aI10767
aI5
aI6020
aI4218
aI182
aI89
aI94
aI99
aI2174
aI24
aI3
aI4462
aI41
aI261
aI41
aI89
aI4417
aI63
aI395
aI3
aI2456
aI3215
aI63765
asg6
S'In 1951  when the text of the Convention was discussed  the parties of the treaty had the idea that slavery was a thing from the past: therefore escaped and fleeing slaves are a group not mentioned in the definition  as well as a category that later emerged: the climate refugee (:Environmental migrant") (see below) .'
p11
ss.