(dp1
S'input'
p2
(dp3
S'encoded'
p4
(lp5
I64
aI2179
aI394
aI16642
aI1376
aI5269
asS'ori'
p6
S'This house would subsidize poor communities'
p7
ssS'output'
p8
(dp9
g4
(lp10
I24
aI89
aI4681
aI112
aI4262
aI145
aI89
aI177
aI112
aI14433
aI47
aI5878
aI89
aI166
aI4262
aI2994
aI138
aI89
aI982
aI112
aI14433
aI63765
asg6
S'In a progressive income tax system  a high income earner will pay a higher tax rate than a low income earner .'
p11
ss.