(dp1
S'input'
p2
(dp3
S'encoded'
p4
(lp5
I64
aI2179
aI394
aI5370
aI7146
aI4585
aI2446
asS'ori'
p6
S'This house would abolish intellectual property rights'
p7
ssS'output'
p8
(dp9
g4
(lp10
I3
aI8315
aI7
aI3
aI2382
aI182
aI263
aI49989
aI19
aI11057
aI8316
aI3
aI2096
aI7
aI92
aI122
aI2080
aI75
aI89
aI1998
aI24
aI3
aI73
aI116
aI89
aI2007
aI81
aI55
aI3
aI8187
aI1361
aI63
aI223
aI5224
aI417
aI316
aI3465
aI8060
aI5
aI6240
aI63765
asg6
S'The followers of the religion are called Kopimists from copy me  the idea of which was inspired by a phrase in the Bible:A "Kopimist" or "Kopimist intellectual" is a person who has the philosophical belief that all information should be freely distributed and unrestricted .'
p11
ss.