(dp1
S'input'
p2
(dp3
S'encoded'
p4
(lp5
I64
aI2179
aI394
aI2741
aI3
aI1560
aI6025
aI2784
asS'ori'
p6
S'This house would pass the American Jobs Act'
p7
ssS'output'
p8
(dp9
g4
(lp10
I89
aI136
aI2068
aI2035
aI75
aI428
aI37247
aI14
aI3
aI782
aI7
aI9002
aI14
aI3217
aI353
aI63
aI1237
aI249
aI7
aI3217
aI2909
aI3204
aI397
aI9002
aI63765
asg6
S'A more recent study by Christopher Ruhm on the effect of recessions on health found that several measures of health actually improve during recessions .'
p11
ss.