(dp1
S'input'
p2
(dp3
S'encoded'
p4
(lp5
I64
aI2179
aI394
aI2017
aI3807
aI314
aI3433
asS'ori'
p6
S'This house would ban partial birth abortions'
p7
ssS'output'
p8
(dp9
g4
(lp10
I179
aI63
aI3
aI260
aI3619
aI443
aI350
aI92
aI394
aI2830
aI45
aI1670
aI64
aI781
aI19
aI3
aI781
aI5591
aI75
aI3
aI2482
aI2483
aI24
aI3813
aI155
aI557
aI63
aI3
aI3257
aI2017
aI2784
aI122
aI2481
aI604
aI134
aI3494
aI51
aI3461
aI34
aI3
aI3217
aI7
aI3
aI3833
aI63765
asg6
S'Finding that the government offered no "new evidence which would serve to distinguish this record from the record reviewed by the Supreme Court in Stenberg " they held that the Partial-Birth Abortion Ban Act was unconstitutional because it lacked an exception for the health of the woman  .'
p11
ss.