(dp1
S'input'
p2
(dp3
S'encoded'
p4
(lp5
I64
aI2179
aI43
aI63
aI2157
aI2565
aI493
aI19084
aI382
aI4850
asS'ori'
p6
S"This house believes that Israel's 2008-2009 military operations against Gaza were justified"
p7
ssS'output'
p8
(dp9
g4
(lp10
I155
aI6833
aI864
aI63
aI7
aI120
aI6466
aI34
aI3
aI9924
aI7
aI3218
aI905
aI168
aI63
aI3
aI5563
aI905
aI75
aI3
aI267
aI2789
aI707
aI4801
aI53833
aI12329
aI5
aI707
aI53834
aI53835
aI1340
aI45
aI3
aI2445
aI2446
aI2132
aI24
aI2927
aI8516
aI13798
aI3
aI905
aI73
aI5351
aI134
aI63765
asg6
S'They pointed out that "many of those calling for the nullification of our report imply that the final report by the follow-up committee\'s two members  Judge Mary McGowan Davis and Judge Lennart Aspergren  presented to the human rights council in March 2011  somehow contradicts the fact-finding mission\'s report or invalidates it .'
p11
ss.