(dp1
S'input'
p2
(dp3
S'encoded'
p4
(lp5
I64
aI2179
aI43
aI24
aI3
aI475
aI7
aI12436
aI3364
asS'ori'
p6
S'This house believes in the use of affirmative action'
p7
ssS'output'
p8
(dp9
g4
(lp10
I24
aI11757
aI4691
aI63765
aI8263
aI480
aI92
aI5591
aI3
aI2231
aI7
aI12395
aI17188
aI24
aI875
aI63765
asg6
S'In 1997 Leslie G . Carr published "Color-Blind Racism" (Sage Publications) which reviewed the history of racist ideologies in America .'
p11
ss.