(dp1
S'input'
p2
(dp3
S'encoded'
p4
(lp5
I64
aI2179
aI43
aI63
aI2659
aI417
aI1690
aI3
aI12048
aI7
aI19084
asS'ori'
p6
S'This house believes that Israel should lift the blockade of Gaza'
p7
ssS'output'
p8
(dp9
g4
(lp10
I41
aI89
aI2544
aI7
aI2545
aI6078
aI9040
aI51
aI5148
aI4550
aI63765
asg6
S'As a member of NATO  Croatia activated an emergency decision-making mechanism  .'
p11
ss.