(dp1
S'input'
p2
(dp3
S'encoded'
p4
(lp5
I64
aI2179
aI43
aI63
aI2659
aI417
aI1690
aI3
aI12048
aI7
aI19084
asS'ori'
p6
S'This house believes that Israel should lift the blockade of Gaza'
p7
ssS'output'
p8
(dp9
g4
(lp10
I89
aI8446
aI177
aI2240
aI10185
aI122
aI344
aI11270
aI620
aI89
aI10874
aI7
aI14153
aI2487
aI3982
aI89
aI1445
aI6056
aI5449
aI63765
asg6
S'A Jewish high school student was seen walking through a crowd of anti-Israeli protesters alone  carrying a large Israeli flag .'
p11
ss.