(dp1
S'input'
p2
(dp3
S'encoded'
p4
(lp5
I64
aI2179
aI43
aI63
aI2659
aI417
aI1690
aI3
aI12048
aI7
aI19084
asS'ori'
p6
S'This house believes that Israel should lift the blockade of Gaza'
p7
ssS'output'
p8
(dp9
g4
(lp10
I767
aI7
aI3
aI19187
aI382
aI174
aI11166
aI93
aI7
aI86
aI992
aI63765
asg6
S'Ten of the commandos were also wounded  one of them seriously .'
p11
ss.