(dp1
S'input'
p2
(dp3
S'encoded'
p4
(lp5
I64
aI2179
aI43
aI63
aI7382
aI116
aI400
aI4713
asS'ori'
p6
S'This house believes that bribery is sometimes acceptable'
p7
ssS'output'
p8
(dp9
g4
(lp10
I18409
aI34
aI73
aI4971
aI7
aI8795
aI57
aI7
aI2381
aI5
aI57
aI7
aI3
aI2961
aI63765
asg6
S'Contempt for or negligence of exercising freedom of speech and freedom of the press .'
p11
ss.