(dp1
S'input'
p2
(dp3
S'encoded'
p4
(lp5
I64
aI2179
aI43
aI63
aI2157
aI2565
aI493
aI19084
aI382
aI4850
asS'ori'
p6
S"This house believes that Israel's 2008-2009 military operations against Gaza were justified"
p7
ssS'output'
p8
(dp9
g4
(lp10
I3024
aI7
aI3
aI8672
aI3841
aI89
aI9556
aI45
aI5795
aI2135
aI2161
aI4601
aI12217
aI9437
aI46494
aI1642
aI1410
aI908
aI92
aI887
aI248
aI194
aI62
aI14
aI260
aI45
aI28802
aI19386
aI45
aI2318
aI2404
aI5
aI34
aI3
aI3800
aI7
aI9991
aI493
aI63
aI2696
aI63765
asg6
S"Leaders of the protest handed a memorandum to Deputy Foreign Minister Sue van der Merwe outside Parliament's main gate which among other things calls on government to expel Israel's ambassador to South Africa  and for the imposition of sanctions against that country ."
p11
ss.