(dp1
S'input'
p2
(dp3
S'encoded'
p4
(lp5
I64
aI2179
aI394
aI16756
aI20435
asS'ori'
p6
S'This house would criminalize blasphemy'
p7
ssS'output'
p8
(dp9
g4
(lp10
I14
aI2805
aI311
aI870
aI869
aI12081
aI24
aI2678
aI382
aI1108
aI75
aI4251
aI631
aI226
aI1708
aI759
aI24
aI51
aI648
aI14
aI3
aI31002
aI37566
aI1642
aI31045
aI97
aI267
aI2013
aI24
aI62854
aI63765
asg6
S'On February 6  at least four demonstrators in Afghanistan were shot by riot police  while taking part in an assault on the Bagram Airbase outside Kabul  another two died in Mihtarlam  .'
p11
ss.