(dp1
S'input'
p2
(dp3
S'encoded'
p4
(lp5
I64
aI2179
aI43
aI63
aI11083
aI10046
aI417
aI316
aI89
aI3135
aI4603
asS'ori'
p6
S'This house believes that Holocaust denial should be a criminal offence'
p7
ssS'output'
p8
(dp9
g4
(lp10
I1636
aI3
aI312
aI7
aI3
aI3798
aI18382
aI375
aI3867
aI42583
aI3270
aI63
aI579
aI3741
aI3293
aI63765
asg6
S'Towards the end of the hearing  Irving again publicly recanted  saying that "I\'ve changed my views .'
p11
ss.