(dp1
S'input'
p2
(dp3
S'encoded'
p4
(lp5
I64
aI2179
aI43
aI63
aI7382
aI116
aI400
aI4713
asS'ori'
p6
S'This house believes that bribery is sometimes acceptable'
p7
ssS'output'
p8
(dp9
g4
(lp10
I226
aI3
aI10
aI5
aI211
aI25156
aI182
aI281
aI12338
aI24
aI3
aI52
aI667
aI2444
aI5
aI17184
aI7
aI16
aI11
aI12
aI123
aI252
aI3266
aI2929
aI291
aI5725
aI5
aI16192
aI63765
asg6
S'While the state and its bureaucrats are major players in the reform-era economy  new interests and concentrations of economic have been created  without legitimate channels between administrators and entrepreneurs  .'
p11
ss.