(dp1
S'input'
p2
(dp3
S'encoded'
p4
(lp5
I64
aI2179
aI394
aI4325
aI2042
aI270
aI89
aI11605
aI3324
asS'ori'
p6
S'This house would fund education using a voucher scheme'
p7
ssS'output'
p8
(dp9
g4
(lp10
I41
aI89
aI296
aI187
aI182
aI13549
aI1260
aI45
aI3582
aI11605
aI256
aI63
aI124
aI3592
aI34
aI351
aI2240
aI7
aI3
aI1799
aI63765
asg6
S"As a result  states are basically free to enact voucher programs that provide funding for any school of the parent's choosing ."
p11
ss.