(dp1
S'input'
p2
(dp3
S'encoded'
p4
(lp5
I64
aI2179
aI43
aI17
aI4941
aI857
aI3211
asS'ori'
p6
S'This house believes social deprivation causes crime'
p7
ssS'output'
p8
(dp9
g4
(lp10
I131
aI3
aI70
aI7
aI7300
aI1967
aI45
aI454
aI3
aI2444
aI7
aI223
aI120
aI81
aI284
aI4585
aI63765
asg6
S'But  the law of theft exists to protect the interests of all those who own property .'
p11
ss.