(dp1
S'input'
p2
(dp3
S'encoded'
p4
(lp5
I64
aI2179
aI43
aI24
aI3
aI475
aI7
aI12436
aI3364
asS'ori'
p6
S'This house believes in the use of affirmative action'
p7
ssS'output'
p8
(dp9
g4
(lp10
I34
aI1343
aI725
aI2625
aI109
aI14
aI89
aI17
aI5
aI400
aI113
aI2351
aI6395
aI19
aI3130
aI3994
aI63765
asg6
S'For example  many Americans rely on a social and sometimes even financial inheritance from previous generations .'
p11
ss.