(dp1
S'input'
p2
(dp3
S'encoded'
p4
(lp5
I64
aI2179
aI43
aI8629
aI116
aI3
aI117
aI998
asS'ori'
p6
S'This house believes atheism is the only way'
p7
ssS'output'
p8
(dp9
g4
(lp10
I3
aI2196
aI1684
aI14
aI3
aI12197
aI7
aI1260
aI47
aI5
aI29314
aI92
aI182
aI11094
aI2580
aI8257
aI777
aI41
aI261
aI41
aI271
aI4645
aI45
aI93
aI97
aI63765
asg6
S'The debate depends on the definitions of free will and determinism  which are deeply disputed concepts themselves  as well as their relation to one another .'
p11
ss.