(dp1
S'input'
p2
(dp3
S'encoded'
p4
(lp5
I64
aI2179
aI394
aI2998
aI3
aI4360
aI7
aI3249
aI6804
aI24
aI3
aI102
asS'ori'
p6
S'This house would encourage the creation of private universities in the UK'
p7
ssS'output'
p8
(dp9
g4
(lp10
I51
aI1343
aI7
aI3807
aI9178
aI394
aI316
aI100
aI274
aI7
aI2240
aI22271
aI3987
aI18345
aI159
aI41
aI2829
aI53
aI1498
aI5
aI248
aI2635
aI7674
aI60
aI260
aI2352
aI6198
aI120
aI1719
aI4443
aI75
aI89
aI3664
aI4661
aI182
aI416
aI75
aI3
aI29166
aI34
aI89
aI639
aI7
aI413
aI24
aI193
aI3205
aI131
aI3930
aI116
aI3784
aI75
aI3
aI3664
aI4072
aI63765
asg6
S'An example of partial privatization would be some forms of school bus service contracting  such as arrangements where equipment and other resources purchased with government capital funds and/o those already owned by a governmental entity are used by the contractor for a period of time in providing services  but ownership is retained by the governmental unit .'
p11
ss.