(dp1
S'input'
p2
(dp3
S'encoded'
p4
(lp5
I64
aI2179
aI43
aI8629
aI116
aI3
aI117
aI998
asS'ori'
p6
S'This house believes atheism is the only way'
p7
ssS'output'
p8
(dp9
g4
(lp10
I1115
aI3366
aI55
aI2032
aI63
aI3292
aI17975
aI306
aI116
aI99
aI1640
aI51
aI845
aI45
aI316
aI4101
aI75
aI7983
aI131
aI63
aI357
aI139
aI18820
aI1485
aI89
aI3707
aI7
aI4588
aI63765
asg6
S'Sam Harris has proposed that moral prescription (ethical rule making) is not just an issue to be explored by philosophy  but that we can meaningfully practice a science of morality .'
p11
ss.