(dp1
S'input'
p2
(dp3
S'encoded'
p4
(lp5
I64
aI2179
aI43
aI63
aI2157
aI2565
aI493
aI19084
aI382
aI4850
asS'ori'
p6
S"This house believes that Israel's 2008-2009 military operations against Gaza were justified"
p7
ssS'output'
p8
(dp9
g4
(lp10
I3
aI6048
aI2344
aI3
aI1565
aI2131
aI5
aI725
aI2138
aI221
aI570
aI62
aI63765
asg6
S'The Arab League  the European Union and many nations made similar calls  .'
p11
ss.