(dp1
S'input'
p2
(dp3
S'encoded'
p4
(lp5
I64
aI2179
aI394
aI4325
aI2042
aI270
aI89
aI11605
aI3324
asS'ori'
p6
S'This house would fund education using a voucher scheme'
p7
ssS'output'
p8
(dp9
g4
(lp10
I11123
aI9568
aI45
aI1561
aI6798
aI3904
aI4364
aI289
aI193
aI11604
aI3503
aI41
aI725
aI41
aI7
aI120
aI5007
aI10274
aI63
aI155
aI1453
aI99
aI3084
aI868
aI45
aI399
aI51
aI3357
aI73
aI1453
aI99
aI7817
aI3
aI145
aI7
aI2240
aI11604
aI63765
asg6
S'Majorities seem to favor improving existing schools over providing vouchers  yet as many as 40% of those surveyed admit that they do not know enough to form an opinion or do not understand the system of school vouchers  .'
p11
ss.