(dp1
S'input'
p2
(dp3
S'encoded'
p4
(lp5
I64
aI2179
aI394
aI5370
aI223
aI4013
aI10440
aI2446
aI4881
aI75
aI14482
aI11004
asS'ori'
p6
S'This house would abolish all collective bargaining rights claimed by trades unions'
p7
ssS'output'
p8
(dp9
g4
(lp10
I134
aI116
aI174
aI1968
aI45
aI1619
aI351
aI6642
aI45
aI5873
aI89
aI2131
aI41
aI89
aI3016
aI7
aI7517
aI63765
asg6
S'It is also illegal to require any employee to join a union as a condition of employment  .'
p11
ss.