(dp1
S'input'
p2
(dp3
S'encoded'
p4
(lp5
I64
aI2179
aI43
aI63
aI187
aI417
aI99
aI16642
aI3
aI6449
aI7
aI3935
asS'ori'
p6
S'This house believes that states should not subsidize the growing of tobacco'
p7
ssS'output'
p8
(dp9
g4
(lp10
I3935
aI2410
aI1298
aI3
aI475
aI7
aI89
aI1445
aI532
aI7
aI7939
aI63765
asg6
S'Tobacco production requires the use of a large amount of pesticides .'
p11
ss.