(dp1
S'input'
p2
(dp3
S'encoded'
p4
(lp5
I64
aI2179
aI394
aI4325
aI2042
aI270
aI89
aI11605
aI3324
asS'ori'
p6
S'This house would fund education using a voucher scheme'
p7
ssS'output'
p8
(dp9
g4
(lp10
I5387
aI2920
aI24
aI4330
aI5593
aI42
aI55
aI1732
aI3761
aI267
aI384
aI39109
aI7
aI3
aI2503
aI201
aI3673
aI32199
aI5
aI18047
aI37004
aI63765
asg6
S'"On multiple occasions in congressional hearings he has sharply challenged two different chairmen of the Federal Reserve  Alan Greenspan and Ben Bernanke .'
p11
ss.