(dp1
S'input'
p2
(dp3
S'encoded'
p4
(lp5
I64
aI2179
aI394
aI5370
aI223
aI4013
aI10440
aI2446
aI4881
aI75
aI14482
aI11004
asS'ori'
p6
S'This house would abolish all collective bargaining rights claimed by trades unions'
p7
ssS'output'
p8
(dp9
g4
(lp10
I64
aI12611
aI122
aI263
aI89
aI1767
aI92
aI28042
aI6941
aI45
aI991
aI1864
aI271
aI1028
aI5
aI7360
aI24
aI271
aI238
aI7
aI7517
aI63765
asg6
S'" This tactic was called a "sit-down" strike which entailed workers to stop doing their job and sit in their place of employment .'
p11
ss.