(dp1
S'input'
p2
(dp3
S'encoded'
p4
(lp5
I64
aI2179
aI43
aI63
aI6670
aI546
aI417
aI316
aI89
aI1334
aI3108
aI7
aI4849
aI1886
aI2855
asS'ori'
p6
S'This house believes that wind power should be a primary focus of future energy supply'
p7
ssS'output'
p8
(dp9
g4
(lp10
I134
aI174
aI8209
aI10
aI9659
aI5
aI10358
aI4352
aI162
aI3818
aI14
aI89
aI3342
aI126
aI63
aI182
aI1185
aI45
aI3084
aI751
aI23559
aI6670
aI5109
aI63765
asg6
S'It also displays state permitting and ordinance requirements  usually done on a county level  that are important to know before installing wind turbines .'
p11
ss.