(dp1
S'input'
p2
(dp3
S'encoded'
p4
(lp5
I64
aI2179
aI43
aI63
aI11083
aI10046
aI417
aI316
aI89
aI3135
aI4603
asS'ori'
p6
S'This house believes that Holocaust denial should be a criminal offence'
p7
ssS'output'
p8
(dp9
g4
(lp10
I111
aI4056
aI24
aI3
aI102
aI42
aI11533
aI25
aI1597
aI2618
aI63
aI42
aI3367
aI1068
aI351
aI593
aI45
aI342
aI34
aI25
aI11083
aI3293
aI63765
asg6
S'Upon Irving\'s arrival in the UK he reaffirmed his position  stating that he felt "no need any longer to show remorse" for his Holocaust views  .'
p11
ss.