(dp1
S'input'
p2
(dp3
S'encoded'
p4
(lp5
I64
aI2179
aI394
aI2773
aI12505
asS'ori'
p6
S'This house would embrace multiculturalism'
p7
ssS'output'
p8
(dp9
g4
(lp10
I5
aI1460
aI45
aI64
aI79
aI10458
aI53679
aI440
aI1719
aI3312
aI63
aI273
aI116
aI443
aI21188
aI4704
aI291
aI12545
aI5
aI1546
aI24
aI3357
aI63765
asg6
S'And prior to this work Herbert Kelman (1953) had already discovered that there is no linear correlation between rewards and change in opinion .'
p11
ss.