(dp1
S'input'
p2
(dp3
S'encoded'
p4
(lp5
I64
aI2179
aI394
aI2773
aI12505
asS'ori'
p6
S'This house would embrace multiculturalism'
p7
ssS'output'
p8
(dp9
g4
(lp10
I12088
aI12088
aI1509
aI19
aI3
aI573
aI7
aI3
aI2596
aI386
aI24
aI63
aI2136
aI3185
aI14
aI958
aI768
aI12505
aI53
aI2768
aI116
aI3740
aI474
aI131
aI117
aI459
aI3
aI4
aI63
aI134
aI116
aI545
aI3
aI3278
aI63
aI2745
aI11975
aI7
aI3
aI4169
aI3657
aI5
aI3
aI4169
aI3905
aI63765
asg6
S'Quebec Quebec differs from the rest of the nine provinces in that it\'s policy focuses on "interculturalism"- rather then multiculturalism  where diversity is strongly encouraged  but only under the notion that it is within the framework that establishes supremacy of the French language and the French culture  .'
p11
ss.