(dp1
S'input'
p2
(dp3
S'encoded'
p4
(lp5
I64
aI2179
aI43
aI17
aI4941
aI857
aI3211
asS'ori'
p6
S'This house believes social deprivation causes crime'
p7
ssS'output'
p8
(dp9
g4
(lp10
I1592
aI14
aI3
aI79
aI7
aI21856
aI32744
aI7934
aI6348
aI11
aI12
aI5182
aI75
aI2204
aI5672
aI17028
aI6645
aI12605
aI63765
aI8459
aI3866
aI60527
aI5
aI18031
aI60528
aI2204
aI62231
aI5
aI3061
aI57591
aI5
aI3866
aI27172
aI63765
asg6
S'Following on the work of Emile Durkheim  Strain Theories have been advanced by Robert King Merton (1938)  Albert K . Cohen (1955)  Richard Cloward and Lloyd Ohlin (1960)  Robert Agnew (1992)  and Steven Messner and Richard Rosenfeld (1994) .'
p11
ss.