(dp1
S'input'
p2
(dp3
S'encoded'
p4
(lp5
I64
aI2179
aI394
aI2017
aI3807
aI314
aI3433
asS'ori'
p6
S'This house would ban partial birth abortions'
p7
ssS'output'
p8
(dp9
g4
(lp10
I1411
aI1191
aI3731
aI3254
aI2757
aI89
aI281
aI2210
aI24
aI3
aI1979
aI7
aI2204
aI3753
aI45
aI3
aI2483
aI24
aI3
aI460
aI1890
aI2227
aI45
aI3423
aI1132
aI3405
aI122
aI3754
aI2648
aI63765
aI3755
aI63765
asg6
S"Concern about overturning Roe played a major role in the defeat of Robert Bork's nomination to the Court in 1987; the man eventually appointed to replace Roe-supporter Lewis Powell was Anthony M . Kennedy ."
p11
ss.