(dp1
S'input'
p2
(dp3
S'encoded'
p4
(lp5
I64
aI2179
aI394
aI2773
aI12505
asS'ori'
p6
S'This house would embrace multiculturalism'
p7
ssS'output'
p8
(dp9
g4
(lp10
I174
aI15307
aI2181
aI948
aI459
aI384
aI2072
aI159
aI41
aI2812
aI7801
aI1863
aI10185
aI96
aI3205
aI73
aI2768
aI5354
aI63765
asg6
S'Also  Multicultural Affairs serves under different names such as  Ethnic Resource Center  Student Support Services  or Diversity Office .'
p11
ss.