(dp1
S'input'
p2
(dp3
S'encoded'
p4
(lp5
I64
aI2179
aI43
aI8629
aI116
aI3
aI117
aI998
asS'ori'
p6
S'This house believes atheism is the only way'
p7
ssS'output'
p8
(dp9
g4
(lp10
I136
aI1902
aI3695
aI56005
aI55
aI1966
aI24
aI25
aI26
aI89
aI45897
aI6934
aI63
aI8301
aI18591
aI14548
aI5
aI217
aI8
aI4718
aI1453
aI99
aI11
aI89
aI2387
aI1462
aI7
aI4853
aI311
aI63
aI3
aI3384
aI182
aI153
aI330
aI45
aI15461
aI736
aI8
aI5
aI63
aI3
aI863
aI3708
aI182
aI1640
aI89
aI8418
aI8079
aI5869
aI1636
aI45897
aI5
aI83
aI316
aI4635
aI24
aI3
aI4659
aI7
aI56006
aI18696
aI5
aI4853
aI248
aI8032
aI63765
asg6
S'More recently Edward Feser has argued in his book Aquinas: A Beginners Guide that Dawkins  Hume  Kant  and most modern philosophers do not have a correct understanding of Aquinas at all; that the arguments are often difficult to translate into modern terms; and that the Five Ways are just a brief summary directed towards beginners and must be understood in the context of Aristotles Metaphysics and Aquinas other writings .'
p11
ss.