(dp1
S'input'
p2
(dp3
S'encoded'
p4
(lp5
I64
aI2179
aI43
aI63
aI187
aI417
aI99
aI16642
aI3
aI6449
aI7
aI3935
asS'ori'
p6
S'This house believes that states should not subsidize the growing of tobacco'
p7
ssS'output'
p8
(dp9
g4
(lp10
I3
aI4835
aI3217
aI6938
aI7
aI14833
aI11
aI1404
aI725
aI2203
aI45
aI927
aI177
aI6329
aI14
aI3935
aI2885
aI5
aI4331
aI182
aI7233
aI1928
aI3569
aI24
aI51
aI1222
aI45
aI8814
aI3935
aI14833
aI63765
asg6
S'The inherent health hazards of smoking have caused many countries to institute high taxes on tobacco products and anti-smoking campaigns are launched every year in an attempt to curb tobacco smoking .'
p11
ss.