(dp1
S'input'
p2
(dp3
S'encoded'
p4
(lp5
I64
aI2179
aI43
aI63
aI1036
aI4828
aI33250
aI116
aI25073
aI45
aI3315
aI4562
asS'ori'
p6
S'This house believes that male infant circumcision is tantamount to child abuse'
p7
ssS'output'
p8
(dp9
g4
(lp10
I1298
aI136
aI1610
aI15
aI397
aI3
aI3378
aI5
aI397
aI60295
aI5
aI44598
aI85
aI63765
asg6
S'requires more staff-patient "hands-on" contact  both during the procedure and during preoperative and postoperative care .'
p11
ss.