(dp1
S'input'
p2
(dp3
S'encoded'
p4
(lp5
I64
aI2179
aI43
aI63
aI1036
aI4828
aI33250
aI116
aI25073
aI45
aI3315
aI4562
asS'ori'
p6
S'This house believes that male infant circumcision is tantamount to child abuse'
p7
ssS'output'
p8
(dp9
g4
(lp10
I15
aI3
aI81
aI5
aI16562
aI4753
aI63
aI33250
aI88
aI99
aI1476
aI9583
aI6241
aI19
aI1980
aI45
aI3495
aI5
aI63
aI3073
aI182
aI4667
aI34
aI3
aI6241
aI2994
aI7
aI1980
aI81
aI268
aI24
aI31613
aI11389
aI60
aI89
aI4015
aI2577
aI63765
asg6
S'Both the WHO and CDC indicate that circumcision may not reduce HIV transmission from men to women  and that data are lacking for the transmission rate of men who engage in anal sex with a female partner  .'
p11
ss.