(dp1
S'input'
p2
(dp3
S'encoded'
p4
(lp5
I64
aI2179
aI43
aI63
aI2659
aI417
aI1690
aI3
aI12048
aI7
aI19084
asS'ori'
p6
S'This house believes that Israel should lift the blockade of Gaza'
p7
ssS'output'
p8
(dp9
g4
(lp10
I24
aI2555
aI89
aI626
aI2138
aI905
aI366
aI3068
aI7
aI15
aI2670
aI5
aI6056
aI150
aI8745
aI3041
aI63
aI3
aI6056
aI12048
aI122
aI976
aI131
aI63
aI2659
aI202
aI416
aI7045
aI972
aI24
aI64
aI4134
aI75
aI12073
aI12258
aI5
aI10873
aI17292
aI19
aI3
aI6056
aI22579
aI1071
aI7625
aI5
aI8715
aI751
aI12878
aI736
aI19096
aI5
aI3714
aI3281
aI4477
aI295
aI19
aI3
aI8715
aI751
aI73
aI366
aI12878
aI114
aI3
aI19096
aI122
aI637
aI24
aI282
aI2743
aI63765
asg6
S'In September 2011  a United Nations report  after analysis of both Turkey and Israeli national investigations  concluded that the Israeli blockade was legal  but that Israel army used excessive force in this incident by firing stun and smoke grenades from the Israeli armys speed boats and helicopters before boarding into flotilla and conducted live fire rounds from the helicopters before or after boarding  though the flotilla was still in international waters .'
p11
ss.