(dp1
S'input'
p2
(dp3
S'encoded'
p4
(lp5
I64
aI2179
aI394
aI117
aI7428
aI21151
aI34
aI11389
aI2042
aI24
aI4364
asS'ori'
p6
S'This house would only teach abstinence for sex education in schools'
p7
ssS'output'
p8
(dp9
g4
(lp10
I923
aI10
aI2511
aI1629
aI3
aI3485
aI7
aI654
aI311
aI73
aI63765
asg6
S'Currently  state laws set the age of consent at 16  17  or 18 .'
p11
ss.