(dp1
S'input'
p2
(dp3
S'encoded'
p4
(lp5
I64
aI2179
aI43
aI17
aI4941
aI857
aI3211
asS'ori'
p6
S'This house believes social deprivation causes crime'
p7
ssS'output'
p8
(dp9
g4
(lp10
I226
aI134
aI116
aI637
aI136
aI279
aI34
aI5349
aI45
aI25556
aI768
aI5350
aI3
aI2837
aI7
aI10104
aI75
aI11389
aI116
aI93
aI3059
aI7
aI61
aI134
aI122
aI2439
aI4500
aI45
aI63765
asg6
S'While it is still more common for males to offend then females  the ratio of arrests by sex is one third of what it was 20 years ago (at 2 .5 to 1 today) .'
p11
ss.