(dp1
S'input'
p2
(dp3
S'encoded'
p4
(lp5
I64
aI2179
aI43
aI63
aI17574
aI417
aI316
aI3481
aI34
aI271
aI79
asS'ori'
p6
S'This house believes that housewives should be paid for their work'
p7
ssS'output'
p8
(dp9
g4
(lp10
I85
aI79
aI55
aI12
aI1038
aI41
aI79
aI63
aI146
aI3205
aI717
aI14
aI7915
aI3446
aI2141
aI5
aI116
aI906
aI870
aI24
aI75
aI1411
aI1191
aI3
aI2663
aI9
aI64
aI1462
aI7
aI85
aI79
aI55
aI1261
aI4658
aI15
aI14
aI3
aI580
aI5
aI195
aI7
aI85
aI79
aI63765
asg6
S'Care work has been defined as work that provides services based on sustained personal interaction  and is motivated (at least in part) by concern about the recipients welfare This understanding of care work has distinct effects both on the nature and wages of care work .'
p11
ss.