(dp1
S'input'
p2
(dp3
S'encoded'
p4
(lp5
I64
aI2179
aI394
aI2773
aI12505
asS'ori'
p6
S'This house would embrace multiculturalism'
p7
ssS'output'
p8
(dp9
g4
(lp10
I24
aI725
aI187
aI8559
aI291
aI5948
aI5
aI122
aI113
aI472
aI75
aI10
aI70
aI620
aI2511
aI63765
asg6
S'In many states  marriage between whites and non-whites was even prohibited by state law through anti-miscegenation laws .'
p11
ss.