(dp1
S'input'
p2
(dp3
S'encoded'
p4
(lp5
I64
aI2179
aI43
aI223
aI2138
aI11
aI89
aI21
aI45
aI2185
aI372
asS'ori'
p6
S'This house believes all nations have a right to nuclear weapons'
p7
ssS'output'
p8
(dp9
g4
(lp10
I378
aI134
aI122
aI4319
aI5939
aI63
aI12033
aI463
aI1102
aI45
aI7254
aI48593
aI5
aI8953
aI3
aI413
aI291
aI13996
aI7
aI3
aI2950
aI12011
aI5
aI3
aI918
aI7
aI3
aI19
aI41
aI165
aI41
aI2642
aI51
aI315
aI45
aI7973
aI459
aI292
aI571
aI63765
asg6
S'However  it was soon realized that submarines could "sneak up" close to enemy coastlines and decrease the "warning time" (the time between detection of the missile launch and the impact of the missile) from as much as half an hour to possibly under three minutes .'
p11
ss.