(dp1
S'input'
p2
(dp3
S'encoded'
p4
(lp5
I64
aI2179
aI394
aI5370
aI3
aI5286
asS'ori'
p6
S'This house would abolish the monarchy'
p7
ssS'output'
p8
(dp9
g4
(lp10
I4604
aI3663
aI382
aI221
aI34
aI5352
aI5405
aI2236
aI75
aI3
aI33418
aI2784
aI92
aI2173
aI63
aI3
aI430
aI7
aI20544
aI463
aI2784
aI41
aI6517
aI24
aI132
aI3717
aI63765
asg6
S"Special provisions were made for Queen Elizabeth II by the Regency Act 1953  which stated that the Duke of Edinburgh (the Queen's husband) could act as regent in these circumstances  ."
p11
ss.