(dp1
S'input'
p2
(dp3
S'encoded'
p4
(lp5
I64
aI2179
aI235
aI839
aI4168
aI7
aI4996
aI34759
asS'ori'
p6
S'This house supports direct election of city mayors'
p7
ssS'output'
p8
(dp9
g4
(lp10
I3
aI2924
aI7
aI2280
aI260
aI116
aI7960
aI44691
aI1501
aI546
aI289
aI15555
aI5
aI22271
aI3205
aI950
aI16064
aI5
aI137
aI45
aI8052
aI24
aI177
aI1071
aI34041
aI5
aI248
aI16
aI2667
aI63765
asg6
S'The list of powers government is considering devolving includes power over rail and bus services  skills  apprenticeships and money to invest in high speed broadband and other economic infrastructure  .'
p11
ss.