(dp1
S'input'
p2
(dp3
S'encoded'
p4
(lp5
I64
aI2179
aI394
aI163
aI959
aI2042
aI3557
asS'ori'
p6
S'This house would make physical education compulsory'
p7
ssS'output'
p8
(dp9
g4
(lp10
I64
aI1168
aI45
aI7955
aI11786
aI378
aI394
aI316
aI34664
aI24
aI5989
aI60
aI1163
aI3964
aI7442
aI63765
asg6
S'This tendency to store fat  however  would be maladaptive in societies with stable food supplies  .'
p11
ss.