(dp1
S'input'
p2
(dp3
S'encoded'
p4
(lp5
I64
aI2179
aI394
aI2017
aI628
asS'ori'
p6
S'This house would ban gambling'
p7
ssS'output'
p8
(dp9
g4
(lp10
I3
aI4990
aI4991
aI835
aI3
aI1597
aI3
aI273
aI116
aI443
aI3292
aI11627
aI45
aI628
aI87
aI572
aI41
aI134
aI116
aI569
aI223
aI22516
aI11
aI89
aI4509
aI1432
aI7
aI438
aI273
aI116
aI443
aI7196
aI2686
aI5
aI3
aI4615
aI2686
aI1453
aI99
aI11
aI650
aI6029
aI7
aI3
aI1359
aI7
aI3
aI155
aI11
aI7995
aI64
aI55
aI153
aI12
aI344
aI41
aI206
aI17
aI6203
aI63765
asg6
S'The Catholic Church holds the position the there is no moral impediment to gambling  so long as it is fair  all bettors have a reasonable chance of winning  there is no fraud involved and the parties involved do not have actual knowledge of the outcome of the bet(unless they have disclosed this knowledge) .Gambling has often been seen as having social consequences .'
p11
ss.