(dp1
S'input'
p2
(dp3
S'encoded'
p4
(lp5
I64
aI2179
aI394
aI1499
aI177
aI1819
aI34
aI160
asS'ori'
p6
S'This house would build high rises for housing'
p7
ssS'output'
p8
(dp9
g4
(lp10
I51
aI2147
aI2035
aI24
aI75
aI4720
aI15320
aI5
aI13430
aI16724
aI2449
aI385
aI967
aI874
aI875
aI1005
aI323
aI5
aI2770
aI63765
asg6
S'An influential study in 1989 by Peter Newman and Jeff Kenworthy compared 32 cities across North America  Australia  Europe and Asia  .'
p11
ss.