(dp1
S'input'
p2
(dp3
S'encoded'
p4
(lp5
I64
aI2179
aI394
aI16756
aI20435
asS'ori'
p6
S'This house would criminalize blasphemy'
p7
ssS'output'
p8
(dp9
g4
(lp10
I3
aI1447
aI7795
aI34
aI20435
aI24
aI181
aI122
aI24
aI298
aI20545
aI1147
aI15834
aI122
aI11201
aI311
aI20544
aI177
aI2483
aI45
aI1009
aI3131
aI24
aI7568
aI34
aI8991
aI20436
aI3955
asg6
S'The last prosecution for blasphemy in Scotland was in 1843 when bookseller Thomas Paterson was sentenced at Edinburgh High Court to fifteen months in prison for selling blasphemous books'
p11
ss.