(dp1
S'input'
p2
(dp3
S'encoded'
p4
(lp5
I64
aI2179
aI394
aI117
aI7428
aI21151
aI34
aI11389
aI2042
aI24
aI4364
asS'ori'
p6
S'This house would only teach abstinence for sex education in schools'
p7
ssS'output'
p8
(dp9
g4
(lp10
I89
aI2035
aI7
aI13843
aI45
aI2300
aI17092
aI5047
aI63
aI3
aI494
aI3
aI3459
aI3
aI595
aI3
aI3485
aI1387
aI60
aI732
aI1036
aI2577
aI63765
asg6
S'A 1990 study of births to California teens reported that the younger the mother  the greater the age gap with her male partner  .'
p11
ss.