(dp1
S'input'
p2
(dp3
S'encoded'
p4
(lp5
I64
aI2179
aI235
aI3858
aI3
aI2240
aI4527
aI3485
aI45
asS'ori'
p6
S'This house supports raising the school leaving age to 18'
p7
ssS'output'
p8
(dp9
g4
(lp10
I2969
aI34
aI64
aI382
aI4319
aI3722
aI298
aI3
aI260
aI1587
aI45
aI1024
aI658
aI2158
aI366
aI285
aI2223
aI2233
aI41
aI122
aI3
aI33
aI298
aI44
aI382
aI221
aI45
aI5918
aI134
aI24
aI60
aI1030
aI24
aI2158
aI366
aI285
aI2223
aI2236
aI16802
aI351
aI2969
aI10494
aI34
aI134
aI63765
asg6
S'Plans for this were soon dropped when the Government needed to cut public spending after World War I  as was the case when attempts were made to raise it in 1944  with cuts in spending after World War II aborting any plans preparing for it  .'
p11
ss.