(dp1
S'input'
p2
(dp3
S'encoded'
p4
(lp5
I64
aI2179
aI43
aI8629
aI116
aI3
aI117
aI998
asS'ori'
p6
S'This house believes atheism is the only way'
p7
ssS'output'
p8
(dp9
g4
(lp10
I51
aI1343
aI7
aI159
aI2198
aI116
aI3
aI4902
aI7
aI3495
aI24
aI8
aI5714
aI159
aI41
aI3
aI534
aI371
aI7
aI89
aI26380
aI24
aI100
aI9646
aI73
aI3555
aI3495
aI14195
aI45
aI6729
aI6820
aI63765
asg6
S'An example of such criticism is the treatment of women in modern Islam  such as the required wearing of a burqa in some sects  or denying women permission to drive cars .'
p11
ss.