(dp1
S'input'
p2
(dp3
S'encoded'
p4
(lp5
I64
aI2179
aI43
aI63
aI3
aI4538
aI7
aI4434
aI7793
aI283
aI45
aI3586
aI417
aI316
aI577
asS'ori'
p6
S'This house believes that the sale of violent video games to minors should be banned'
p7
ssS'output'
p8
(dp9
g4
(lp10
I400
aI1792
aI5268
aI1841
aI864
aI7
aI51
aI3364
aI19912
aI1609
aI13836
aI21435
aI1586
aI493
aI93
aI742
aI40189
aI41
aI51
aI1343
aI7
aI3
aI1380
aI7
aI3659
aI1265
aI100
aI7
aI3
aI2992
aI155
aI5789
aI311
aI63765
asg6
S'"You\'ll sometimes see kids coming out of an action movie making kung fu moves against one another"  said Kutner  as an example of the type of thinking behind some of the studies they looked at .'
p11
ss.