(dp1
S'input'
p2
(dp3
S'encoded'
p4
(lp5
I64
aI2179
aI43
aI17
aI4941
aI857
aI3211
asS'ori'
p6
S'This house believes social deprivation causes crime'
p7
ssS'output'
p8
(dp9
g4
(lp10
I1216
aI645
aI63765
aI32778
aI5
aI28359
aI27624
aI186
aI63
aI7934
aI3168
aI3
aI580
aI7
aI3
aI3135
aI2784
aI8103
aI134
aI60
aI25815
aI134
aI98
aI99
aI1897
asg6
S'Michael R . Gottfredson and Travis Hirschi argue that strain theory "misconstrue(s) the nature of the criminal act  supplying it with virtues it does not possess ."'
p11
ss.