(dp1
S'input'
p2
(dp3
S'encoded'
p4
(lp5
I64
aI2179
aI43
aI3
aI626
aI187
aI116
aI1989
aI34
aI3102
aI2223
asS'ori'
p6
S"This house believes the United States is responsible for Mexico's drugs war"
p7
ssS'output'
p8
(dp9
g4
(lp10
I2233
aI15439
aI3084
aI61
aI223
aI3
aI214
aI182
aI131
aI357
aI182
aI223
aI3939
aI357
aI182
aI223
aI6195
aI5
aI357
aI11
aI51
aI11740
aI511
aI45
aI475
aI3
aI7786
aI1623
aI24
aI3218
aI70
aI3353
aI1623
aI1807
aI63765
asg6
S'I dont know what all the issues are but we are all adults  we are all professionals  and we have an exciting opportunity to use the biggest tool in our law enforcement tool box .'
p11
ss.