(dp1
S'input'
p2
(dp3
S'encoded'
p4
(lp5
I64
aI2179
aI43
aI223
aI2138
aI11
aI89
aI21
aI45
aI2185
aI372
asS'ori'
p6
S'This house believes all nations have a right to nuclear weapons'
p7
ssS'output'
p8
(dp9
g4
(lp10
I1488
aI17813
aI5814
aI372
aI37048
aI401
aI45
aI41
aI37049
aI159
aI41
aI3
aI4604
aI2417
aI24489
aI30807
aI11
aI12
aI643
aI1381
aI3
aI1165
aI7
aI15683
aI971
aI9023
aI60
aI17425
aI447
aI271
aI2157
aI1683
aI63765
asg6
S'Small  two-man portable tactical weapons (somewhat misleadingly referred to as suitcase bombs)  such as the Special Atomic Demolition Munition  have been developed  although the difficulty of combining sufficient yield with portability limits their military utility  .'
p11
ss.