(dp1
S'input'
p2
(dp3
S'encoded'
p4
(lp5
I64
aI2179
aI394
aI1499
aI3
aI8115
aI34564
aI17106
asS'ori'
p6
S'This house would build the Keystone XL pipeline'
p7
ssS'output'
p8
(dp9
g4
(lp10
I572
aI6772
aI2762
aI47
aI475
aI89
aI14260
aI55457
aI2186
aI45
aI10344
aI3
aI19268
aI270
aI55458
aI22917
aI10820
aI45
aI89
aI55459
aI564
aI55460
aI47
aI316
aI416
aI75
aI89
aI5150
aI5105
aI5
aI89
aI11514
aI6713
aI4072
aI193
aI223
aI3
aI1886
aI1227
aI7
aI3
aI5126
aI11514
aI5
aI2881
aI63765
asg6
S"Nexen's Long Lake project will use a proprietary deasphalting technology to upgrade the bitumen  using asphaltene residue fed to a gasifier whose syngas will be used by a cogeneration turbine and a hydrogen producing unit  providing all the energy needs of the project: steam  hydrogen  and electricity  ."
p11
ss.