(dp1
S'input'
p2
(dp3
S'encoded'
p4
(lp5
I64
aI2179
aI394
aI16642
aI1376
aI5269
asS'ori'
p6
S'This house would subsidize poor communities'
p7
ssS'output'
p8
(dp9
g4
(lp10
I9
aI3905
aI3888
aI45
aI3
aI14761
aI6203
aI7
aI193
aI130
aI335
aI63765
aI45
aI147
aI63765
asg6
S'Welfare culture refers to the behavioral consequences of providing poverty relief (i .e .  welfare) to low-income individuals .'
p11
ss.