(dp1
S'input'
p2
(dp3
S'encoded'
p4
(lp5
I64
aI2179
aI43
aI223
aI2138
aI11
aI89
aI21
aI45
aI2185
aI372
asS'ori'
p6
S'This house believes all nations have a right to nuclear weapons'
p7
ssS'output'
p8
(dp9
g4
(lp10
I47485
aI89
aI696
aI311
aI3
aI4750
aI7
aI4248
aI47486
aI7082
aI7691
aI24
aI759
aI75
aI11317
aI47487
aI320
aI14
aI63
aI3
aI2417
aI2418
aI417
aI117
aI316
aI2676
aI41
aI89
aI11549
aI493
aI5834
aI327
aI8992
aI89
aI2418
aI5
aI417
aI99
aI316
aI416
aI493
aI4569
aI385
aI63765
asg6
S'Somenotably a number at the University of Chicago Metallurgical Laboratory  represented in part by Leo Szilardlobbied early on that the atomic bomb should only be built as a deterrent against Nazi Germany getting a bomb  and should not be used against populated cities .'
p11
ss.