(dp1
S'input'
p2
(dp3
S'encoded'
p4
(lp5
I64
aI2179
aI394
aI5370
aI3
aI5286
asS'ori'
p6
S'This house would abolish the monarchy'
p7
ssS'output'
p8
(dp9
g4
(lp10
I3
aI169
aI260
aI246
aI3192
aI3
aI3024
aI63765
asg6
S"The British government generally ignored the Enlightenment's leaders ."
p11
ss.