(dp1
S'input'
p2
(dp3
S'encoded'
p4
(lp5
I64
aI2179
aI43
aI63
aI188
aI220
aI417
aI1619
aI4275
aI45
aI713
aI14799
aI7533
aI311
aI3
aI3721
aI5145
asS'ori'
p6
S'This house believes that democratic governments should require voters to present photo identification at the polling station'
p7
ssS'output'
p8
(dp9
g4
(lp10
I18361
aI2139
aI4884
aI4352
aI34
aI223
aI5334
aI2938
aI158
aI63
aI63765
asg6
S'HAVA sets forth requirements for all voting systems  including that they:  .'
p11
ss.