(dp1
S'input'
p2
(dp3
S'encoded'
p4
(lp5
I64
aI2179
aI13605
aI2258
aI45
aI2194
asS'ori'
p6
S'This house prefers trade to aid'
p7
ssS'output'
p8
(dp9
g4
(lp10
I273
aI182
aI725
aI2767
aI1420
aI5
aI22
aI3398
aI63
aI6365
aI6668
aI4983
aI136
aI138
aI4307
aI5786
aI5
aI248
aI3136
aI182
aI136
aI2758
aI24
aI282
aI2891
aI7712
aI1710
aI5
aI7600
aI63765
asg6
S'There are many religious  historical and political reasons that explain why Christians more than Jews  Muslims and other groups  are more active in international development  charitable giving and participation .'
p11
ss.