(dp1
S'input'
p2
(dp3
S'encoded'
p4
(lp5
I64
aI2179
aI394
aI190
aI3
aI21
aI45
aI3895
aI834
asS'ori'
p6
S'This house would limit the right to bear arms'
p7
ssS'output'
p8
(dp9
g4
(lp10
I3
aI117
aI1486
aI7
aI3892
aI92
aI89
aI2692
aI4278
aI88
aI12015
aI116
aI89
aI4274
aI73
aI4508
aI63765
asg6
S'The only types of firearms which a Japanese citizen may acquire is a rifle or shotgun .'
p11
ss.