(dp1
S'input'
p2
(dp3
S'encoded'
p4
(lp5
I64
aI2179
aI394
aI2998
aI3
aI4360
aI7
aI3249
aI6804
aI24
aI3
aI102
asS'ori'
p6
S'This house would encourage the creation of private universities in the UK'
p7
ssS'output'
p8
(dp9
g4
(lp10
I89
aI905
aI24
aI3
aI8928
aI3531
aI1560
aI6804
aI34
aI246
aI892
aI17123
aI7
aI40
aI45
aI11698
aI5136
aI63765
asg6
S'A report in The Economist criticized American universities for generally losing sight of how to contain costs  .'
p11
ss.