(dp1
S'input'
p2
(dp3
S'encoded'
p4
(lp5
I64
aI2179
aI43
aI8629
aI116
aI3
aI117
aI998
asS'ori'
p6
S'This house believes atheism is the only way'
p7
ssS'output'
p8
(dp9
g4
(lp10
I41
aI159
aI42
aI3172
aI63
aI3
aI3168
aI7
aI89
aI3782
aI252
aI89
aI5480
aI116
aI16297
aI45
aI3
aI3168
aI7
aI89
aI3782
aI60
aI89
aI5480
aI63765
asg6
S'As such he argues that the theory of a universe without a God is preferable to the theory of a universe with a God  .'
p11
ss.