(dp1
S'input'
p2
(dp3
S'encoded'
p4
(lp5
I64
aI2179
aI43
aI63
aI134
aI116
aI400
aI21
aI34
aI3
aI260
aI45
aI3439
aI57
aI7
aI2381
asS'ori'
p6
S'This house believes that it is sometimes right for the government to restrict freedom of speech'
p7
ssS'output'
p8
(dp9
g4
(lp10
I20817
aI646
aI63765
aI1260
aI2381
aI4317
aI1706
aI2484
aI132
aI2446
aI75
aI4611
aI3
aI3315
aI7230
aI2466
aI2784
aI7
aI795
aI63
aI604
aI3
aI2784
aI3315
aI7230
aI63
aI98
aI99
aI14851
aI51
aI650
aI3315
aI63765
aI134
aI122
aI12902
aI2220
aI5
aI2481
aI459
aI3
aI237
aI3264
aI63765
asg6
S'Ashcroft v . Free Speech Coalition    further upheld these rights by invalidating the Child Pornography Prevention Act of 1996  holding that  because the act "[p]rohibit[ed] child pornography that does not depict an actual child . ." it was overly broad and unconstitutional under the First Amendment  .'
p11
ss.