(dp1
S'input'
p2
(dp3
S'encoded'
p4
(lp5
I64
aI2179
aI394
aI2017
aI3807
aI314
aI3433
asS'ori'
p6
S'This house would ban partial birth abortions'
p7
ssS'output'
p8
(dp9
g4
(lp10
I117
aI2248
aI3306
aI394
aI11
aI3784
aI3254
aI1748
aI5
aI3396
aI462
aI223
aI2738
aI7
aI3
aI3304
aI311
aI845
aI24
aI3774
aI63765
asg6
S'" Only Justice Blackmun would have retained Roe entirely and struck down all aspects of the statute at issue in Casey .'
p11
ss.