(dp1
S'input'
p2
(dp3
S'encoded'
p4
(lp5
I64
aI2179
aI235
aI3
aI2136
aI7
aI3
aI2306
aI7
aI2390
asS'ori'
p6
S'This house supports the one-child policy of the republic of China'
p7
ssS'output'
p8
(dp9
g4
(lp10
I61
aI116
aI4667
aI116
aI971
aI22
aI47
aI45
aI8000
aI120
aI2635
aI45
aI3
aI161
aI7
aI3
aI18970
aI63765
asg6
S'What is lacking is sufficient political will to mobilize those resources to the benefit of the hungry .'
p11
ss.