(dp1
S'input'
p2
(dp3
S'encoded'
p4
(lp5
I64
aI2179
aI394
aI9385
aI2497
aI447
aI14
aI3
aI3578
aI5721
aI7
aI260
asS'ori'
p6
S'This house would enforce term limits on the legislative branch of government'
p7
ssS'output'
p8
(dp9
g4
(lp10
I7716
aI871
aI89
aI6444
aI2497
aI447
aI2345
aI14
aI1906
aI92
aI4407
aI447
aI3
aI433
aI45
aI117
aI784
aI2439
aI5086
aI24
aI5354
aI63765
asg6
S'Oklahoma passed a lifetime term limits initiative on November 2  2010 which strictly limits the governor to only eight years maximum in office .'
p11
ss.