(dp1
S'input'
p2
(dp3
S'encoded'
p4
(lp5
I64
aI2179
aI43
aI63
aI3376
aI4938
aI417
aI316
aI3537
asS'ori'
p6
S'This house believes that endangered species should be protected'
p7
ssS'output'
p8
(dp9
g4
(lp10
I3
aI852
aI7
aI3920
aI4938
aI41
aI89
aI852
aI45
aI18900
asg6
S'the loss of native species as a loss to ecotourism'
p11
ss.