(dp1
S'input'
p2
(dp3
S'encoded'
p4
(lp5
I64
aI2179
aI394
aI1499
aI177
aI1819
aI34
aI160
asS'ori'
p6
S'This house would build high rises for housing'
p7
ssS'output'
p8
(dp9
g4
(lp10
I3
aI9473
aI7
aI3
aI11279
aI693
aI298
aI16858
aI4539
aI45
aI3
aI39476
aI227
aI3
aI1277
aI45
aI3
aI11279
aI10246
aI5
aI351
aI248
aI27292
aI1587
aI159
aI41
aI89
aI279
aI1277
aI45
aI3
aI1444
aI73
aI351
aI248
aI279
aI2506
aI5
aI89
aI39270
aI1277
aI63765
asg6
S'The owner of the apartment  typically when transferring possession to the occupant  gives him/her the key to the apartment entrance and any other keys needed  such as a common key to the building or any other common areas and a mailbox key .'
p11
ss.