(dp1
S'input'
p2
(dp3
S'encoded'
p4
(lp5
I64
aI2179
aI43
aI3
aI626
aI187
aI116
aI1989
aI34
aI3102
aI2223
asS'ori'
p6
S"This house believes the United States is responsible for Mexico's drugs war"
p7
ssS'output'
p8
(dp9
g4
(lp10
I298
aI155
aI382
aI4001
aI24
aI425
aI63
aI273
aI122
aI51
aI28463
aI2326
aI24
aI3524
aI155
aI637
aI382
aI99
aI575
aI8185
aI63765
asg6
S'When they were told in January 2011 that there was an undercover program in existence  they still were not given details  .'
p11
ss.