(dp1
S'input'
p2
(dp3
S'encoded'
p4
(lp5
I64
aI2179
aI43
aI17
aI4941
aI857
aI3211
asS'ori'
p6
S'This house believes social deprivation causes crime'
p7
ssS'output'
p8
(dp9
g4
(lp10
I87
aI24
aI128
aI45
aI3108
aI14
aI64
aI4740
aI3
aI17
aI2513
aI3168
aI122
aI221
aI63765
asg6
S'So in order to focus on this topic  the social conflict theory was made  .'
p11
ss.