(dp1
S'input'
p2
(dp3
S'encoded'
p4
(lp5
I64
aI2179
aI394
aI2998
aI3
aI4360
aI7
aI3249
aI6804
aI24
aI3
aI102
asS'ori'
p6
S'This house would encourage the creation of private universities in the UK'
p7
ssS'output'
p8
(dp9
g4
(lp10
I3
aI4758
aI2969
aI1890
aI45
aI14095
aI4358
aI574
aI3569
aI60
aI443
aI136
aI138
aI93
aI3059
aI19
aI1642
aI3
aI102
aI63765
asg6
S'The college plans eventually to recruit 375 students each year  with no more than one third from outside the UK .'
p11
ss.