(dp1
S'input'
p2
(dp3
S'encoded'
p4
(lp5
I64
aI2179
aI394
aI2741
aI3
aI1560
aI6025
aI2784
asS'ori'
p6
S'This house would pass the American Jobs Act'
p7
ssS'output'
p8
(dp9
g4
(lp10
I248
aI1356
aI1074
aI3
aI5373
aI580
aI7
aI79
aI60
aI1504
aI3838
aI959
aI203
aI5506
aI725
aI3492
aI1036
aI5922
aI5
aI3
aI544
aI7
aI3
aI3987
aI7935
aI53
aI725
aI6025
aI182
aI4583
aI842
aI63765
asg6
S'Other factors include the changing nature of work  with machines replacing physical labor  eliminating many traditional male occupations  and the rise of the service sector  where many jobs are gender neutral .'
p11
ss.