(dp1
S'input'
p2
(dp3
S'encoded'
p4
(lp5
I64
aI2179
aI394
aI5370
aI3
aI5286
asS'ori'
p6
S'This house would abolish the monarchy'
p7
ssS'output'
p8
(dp9
g4
(lp10
I107
aI487
aI3
aI5353
aI7
aI10660
aI15314
aI41
aI1405
aI2161
aI1686
aI220
aI221
aI10542
aI2997
aI45
aI9987
aI3
aI1245
aI7
aI3
aI2023
aI5286
aI41
aI1210
aI5549
aI6000
aI5305
aI60
aI211
aI15315
aI15316
aI5
aI15317
aI221
aI12757
aI89
aI1257
aI3
aI260
aI7
aI3
aI1379
aI114
aI1301
aI691
aI3
aI3623
aI45
aI100
aI7
aI11691
aI6787
aI34
aI15318
aI45
aI3
aI5286
aI5
aI211
aI2210
aI24
aI2547
aI3867
aI15319
aI271
aI1512
aI14
aI3
aI5305
aI63765
asg6
S'Instead  until the appointment of Stephen Harper as Prime Minister  successive governments made subtle efforts to diminish the stature of the Canadian monarchy as David Smith said: "the historic Crown with its anthem  emblems  and symbolism made accessible a past the government of the day rejected" though never  since the reaction to some of Pierre Trudeau\'s proposals for alterations to the monarchy and its role in Canada  publicly revealing their stances on the Crown .'
p11
ss.