(dp1
S'input'
p2
(dp3
S'encoded'
p4
(lp5
I64
aI2179
aI394
aI2017
aI3807
aI314
aI3433
asS'ori'
p6
S'This house would ban partial birth abortions'
p7
ssS'output'
p8
(dp9
g4
(lp10
I24
aI3412
aI3633
aI1966
aI63
aI3
aI752
aI12771
aI19
aI685
aI3257
aI10133
aI5
aI63
aI1160
aI7
aI89
aI3217
aI3461
aI11448
aI3217
aI5
aI1197
aI3535
aI24
aI51
aI19409
aI1597
asg6
S'In dissent  Ginsburg argued that the decision departed from established abortion jurisprudence  and that lack of a health exception "jeopardizes womens health and places doctors in an untenable position ."'
p11
ss.