(dp1
S'input'
p2
(dp3
S'encoded'
p4
(lp5
I64
aI2179
aI394
aI2773
aI12505
asS'ori'
p6
S'This house would embrace multiculturalism'
p7
ssS'output'
p8
(dp9
g4
(lp10
I4718
aI17553
aI5
aI893
aI5
aI320
aI17552
aI159
aI41
aI1082
aI2064
aI49427
aI3520
aI411
aI1206
aI42399
aI39650
aI49480
aI495
aI10640
aI2839
aI63765
aI5076
aI63765
aI10507
aI63765
asg6
S'Philosophers  psychologists and historians and early sociologists such as Charles Sanders Peirce  William James  George Santayana  Horace Kallen  John Dewey  W . E . B .'
p11
ss.