(dp1
S'input'
p2
(dp3
S'encoded'
p4
(lp5
I64
aI2179
aI43
aI63
aI134
aI116
aI400
aI21
aI34
aI3
aI260
aI45
aI3439
aI57
aI7
aI2381
asS'ori'
p6
S'This house believes that it is sometimes right for the government to restrict freedom of speech'
p7
ssS'output'
p8
(dp9
g4
(lp10
I3
aI376
aI19
aI3
aI9390
aI404
aI122
aI416
aI45
aI4325
aI3
aI667
aI2086
aI10
aI3211
aI4091
aI2128
aI51
aI2134
aI63
aI10302
aI3
aI2015
aI5
aI3365
aI10001
aI7
aI4091
aI7
aI3211
aI63765
asg6
S'The interest from the escrow account was used to fund the New York State Crime Victims Board  an organization that pays the medical and related bills of victims of crime .'
p11
ss.