(dp1
S'input'
p2
(dp3
S'encoded'
p4
(lp5
I64
aI2179
aI43
aI63
aI2157
aI2565
aI493
aI19084
aI382
aI4850
asS'ori'
p6
S"This house believes that Israel's 2008-2009 military operations against Gaza were justified"
p7
ssS'output'
p8
(dp9
g4
(lp10
I14
aI3
aI758
aI7
aI3
aI2800
aI448
aI6293
aI2314
aI3
aI1687
aI7
aI16619
aI5
aI2031
aI21
aI45
aI776
aI2126
asg6
S'On the floor of the UN General Assembly  Panama "condemned the attacks of Hamas and supported Israel\'s right to defend itself'
p11
ss.