(dp1
S'input'
p2
(dp3
S'encoded'
p4
(lp5
I64
aI2179
aI43
aI63
aI323
aI417
aI10009
aI211
aI9035
aI249
aI45
aI3426
aI211
aI2144
aI595
aI17
aI96
asS'ori'
p6
S'This house believes that Europe should weaken its austerity measures to guarantee its citizens greater social support'
p7
ssS'output'
p8
(dp9
g4
(lp10
I54031
aI3172
aI63
aI24
aI3
aI237
aI2823
aI3
aI10
aI116
aI622
aI2853
aI60
aI28026
aI3
aI2635
aI45
aI3
aI78
aI217
aI24
aI1068
aI63765
asg6
S'Rothstein argues that in the first model  the state is primarily concerned with directing the resources to the people most in need .'
p11
ss.