(dp1
S'input'
p2
(dp3
S'encoded'
p4
(lp5
I64
aI2179
aI235
aI3
aI2136
aI7
aI3
aI2306
aI7
aI2390
asS'ori'
p6
S'This house supports the one-child policy of the republic of China'
p7
ssS'output'
p8
(dp9
g4
(lp10
I3
aI696
aI7
aI17811
aI3589
aI4386
aI3569
aI2322
aI487
aI97
aI2482
aI2483
aI33
aI17870
aI646
aI63765
aI7716
aI4599
aI3
aI976
aI1780
aI75
aI2528
aI493
aI13759
aI7
aI4285
aI257
aI3
aI5125
aI1795
aI2489
aI7
aI3
aI2475
aI122
aI10048
aI63765
asg6
S'The number of sterilizations performed per year increased until another Supreme Court case  Skinner v . Oklahoma  1942  complicated the legal situation by ruling against sterilization of criminals if the equal protection clause of the constitution was violated .'
p11
ss.