(dp1
S'input'
p2
(dp3
S'encoded'
p4
(lp5
I64
aI2179
aI235
aI3
aI2136
aI7
aI3
aI2306
aI7
aI2390
asS'ori'
p6
S'This house supports the one-child policy of the republic of China'
p7
ssS'output'
p8
(dp9
g4
(lp10
I595
aI11826
aI1719
aI55
aI2639
aI136
aI138
aI3
aI1263
aI2598
aI7
aI2547
aI63765
asg6
S'Greater Tokyo already has 35 million  more than the entire population of Canada (at 34 .1 million)  .'
p11
ss.