(dp1
S'input'
p2
(dp3
S'encoded'
p4
(lp5
I64
aI2179
aI43
aI63
aI6670
aI546
aI417
aI316
aI89
aI1334
aI3108
aI7
aI4849
aI1886
aI2855
asS'ori'
p6
S'This house believes that wind power should be a primary focus of future energy supply'
p7
ssS'output'
p8
(dp9
g4
(lp10
I3
aI16674
aI5136
aI643
aI19
aI3
aI2510
aI3068
aI182
aI117
aI759
aI7
aI3
aI10486
aI24
aI2569
aI5
aI19124
aI89
aI1445
aI8
aI546
aI5121
aI63765
asg6
S'The raw costs developed from the above analysis are only part of the picture in planning and costing a large modern power grid .'
p11
ss.