(dp1
S'input'
p2
(dp3
S'encoded'
p4
(lp5
I64
aI2179
aI43
aI63
aI323
aI417
aI10009
aI211
aI9035
aI249
aI45
aI3426
aI211
aI2144
aI595
aI17
aI96
asS'ori'
p6
S'This house believes that Europe should weaken its austerity measures to guarantee its citizens greater social support'
p7
ssS'output'
p8
(dp9
g4
(lp10
I24
aI1485
aI64
aI116
aI1966
aI45
aI316
aI604
aI220
aI5878
aI1295
aI7339
aI75
aI888
aI8906
aI137
aI1879
aI3
aI137
aI2855
aI5
aI1655
aI7528
aI5
aI116
aI788
aI1706
aI75
aI100
aI41
aI51
aI143
aI493
aI8906
aI137
aI5
aI24
aI1561
aI7
aI1273
aI137
aI946
aI3
aI7632
aI3440
aI63765
asg6
S'In practice this is argued to be because governments pay off debts by printing fiat money  increasing the money supply and creating inflation  and is taken further by some as an argument against fiat money and in favor of hard money  especially the gold standard .'
p11
ss.