(dp1
S'input'
p2
(dp3
S'encoded'
p4
(lp5
I64
aI2179
aI394
aI2773
aI12505
asS'ori'
p6
S'This house would embrace multiculturalism'
p7
ssS'output'
p8
(dp9
g4
(lp10
I10070
aI6619
aI4197
aI99
aI316
aI3021
aI56
aI19
aI271
aI969
aI73
aI5555
aI63765
asg6
S'Indigenous peoples shall not be forcibly removed from their lands or territories .'
p11
ss.