(dp1
S'input'
p2
(dp3
S'encoded'
p4
(lp5
I64
aI2179
aI43
aI223
aI2138
aI11
aI89
aI21
aI45
aI2185
aI372
asS'ori'
p6
S'This house believes all nations have a right to nuclear weapons'
p7
ssS'output'
p8
(dp9
g4
(lp10
I24
aI2304
aI19365
aI45
aI2161
aI7
aI2417
aI1886
aI26132
aI33641
aI3444
aI63
aI3
aI9227
aI75
aI2046
aI7
aI3
aI11570
aI3
aI9415
aI7
aI3
aI516
aI16643
aI146
aI34
aI3
aI21
aI7
aI6978
aI7
aI351
aI5140
aI311
aI351
aI413
aI60
aI443
aI1460
aI14954
aI7
aI2185
aI4678
aI459
aI27120
aI16849
aI3646
aI5
aI5653
aI45
aI33642
aI698
aI2185
aI5092
aI45
aI2451
aI116
aI344
aI41
aI89
aI1228
aI868
aI143
aI75
aI3
aI626
aI187
asg6
S'In 2005  Russian Advisor to Minister of Atomic Energy Lev Ryabev asserted that "neither the signing by Iran of the NPT  the adoption of the Additional Protocol (which provides for the right of inspection of any facility at any time with no prior notice)  placement of nuclear facilities under IAEA safeguards  nor Russia\'s and Iran\'s commitments to repatriate spent nuclear fuel to Russia is seen as a good enough argument by the United States ."'
p11
ss.