(dp1
S'input'
p2
(dp3
S'encoded'
p4
(lp5
I64
aI2179
aI43
aI8629
aI116
aI3
aI117
aI998
asS'ori'
p6
S'This house believes atheism is the only way'
p7
ssS'output'
p8
(dp9
g4
(lp10
I3
aI143
aI34
aI3
aI3524
aI7
aI5480
aI116
aI768
aI89
aI8050
aI8937
aI60
aI73
aI252
aI3
aI475
aI7
aI4604
aI11032
aI63765
asg6
S'The argument for the existence of god is then a logical fallacy with or without the use of special pleading .'
p11
ss.