(dp1
S'input'
p2
(dp3
S'encoded'
p4
(lp5
I64
aI2179
aI43
aI223
aI2138
aI11
aI89
aI21
aI45
aI2185
aI372
asS'ori'
p6
S'This house believes all nations have a right to nuclear weapons'
p7
ssS'output'
p8
(dp9
g4
(lp10
I725
aI839
aI3364
aI3136
aI6669
aI3136
aI5
aI276
aI8281
aI11
aI2840
aI777
aI60
aI3
aI910
aI311
aI3
aI2083
aI150
aI5
aI282
aI126
aI63765
asg6
S'Many direct action groups  environmental groups  and professional organisations have identified themselves with the movement at the local  national  and international level .'
p11
ss.