(dp1
S'input'
p2
(dp3
S'encoded'
p4
(lp5
I64
aI2179
aI43
aI223
aI2138
aI11
aI89
aI21
aI45
aI2185
aI372
asS'ori'
p6
S'This house believes all nations have a right to nuclear weapons'
p7
ssS'output'
p8
(dp9
g4
(lp10
I3503
aI97
aI1629
aI7
aI3398
aI116
aI63
aI273
aI139
aI637
aI316
aI3
aI7454
aI7
aI3
aI852
aI7
aI2943
aI5201
aI63765
asg6
S'Yet another set of reasons is that there can still be the possibility of the loss of mutual second-strike capability .'
p11
ss.