(dp1
S'input'
p2
(dp3
S'encoded'
p4
(lp5
I64
aI2179
aI394
aI163
aI959
aI2042
aI3557
asS'ori'
p6
S'This house would make physical education compulsory'
p7
ssS'output'
p8
(dp9
g4
(lp10
I725
aI4477
aI455
aI5
aI631
aI3243
aI5877
aI1949
aI11262
aI8351
aI45
aI1358
aI257
aI155
aI182
aI3981
aI7
aI3
aI12705
aI9381
aI15422
aI534
aI7
aI3
aI1028
aI63765
asg6
S'Many fire fighters and police officers undergo regular fitness testing to determine if they are capable of the physically demanding tasks required of the job  .'
p11
ss.