(dp1
S'input'
p2
(dp3
S'encoded'
p4
(lp5
I64
aI2179
aI394
aI117
aI7428
aI21151
aI34
aI11389
aI2042
aI24
aI4364
asS'ori'
p6
S'This house would only teach abstinence for sex education in schools'
p7
ssS'output'
p8
(dp9
g4
(lp10
I3
aI1560
aI4817
aI2016
aI8791
aI972
aI24
aI353
aI63
aI51
aI320
aI605
aI14
aI10953
aI31995
aI2891
aI24
aI248
aI2506
aI63765
asg6
S"The American Psychological Association task force in 2007 found that an early emphasis on sexuality stunts girls' development in other areas  ."
p11
ss.