(dp1
S'input'
p2
(dp3
S'encoded'
p4
(lp5
I64
aI2179
aI394
aI2773
aI12505
asS'ori'
p6
S'This house would embrace multiculturalism'
p7
ssS'output'
p8
(dp9
g4
(lp10
I6619
aI3048
aI182
aI3250
aI8790
aI24
aI27215
aI574
aI248
aI63
aI116
aI298
aI155
aI182
aI99
aI3188
aI574
aI248
aI63765
asg6
S'"Diverse peoples worldwide are mostly engaged in hating each other - that is  when they are not killing each other .'
p11
ss.