(dp1
S'input'
p2
(dp3
S'encoded'
p4
(lp5
I64
aI2179
aI394
aI2017
aI223
aI9058
aI23653
asS'ori'
p6
S'This house would ban all unsustainable logging'
p7
ssS'output'
p8
(dp9
g4
(lp10
I2041
aI2566
aI864
aI75
aI8089
aI282
aI24
aI63
aI24
aI2404
aI2722
aI7
aI1968
aI23653
aI1569
aI19
aI24
aI23588
aI5
aI23585
aI6628
aI45
aI24
aI25477
aI5
aI24
aI29020
aI53
aI8246
aI7601
aI2757
aI89
aI281
aI2210
aI24
aI2373
aI3
aI7488
aI7489
aI3202
aI2223
aI5
aI248
aI2742
aI2218
aI6006
aI487
aI3
aI2800
aI2702
aI2132
aI2052
aI89
aI2017
aI14
aI223
aI55302
aI8246
aI24
aI63765
asg6
S'Research carried out by WWF International in 2006shows that in Africa  rates of illegal logging vary from 50% in Cameroon and Equatorial Guinea to 70% in Gabon and 80% in Liberia  where timber revenues played a major role in financing the Sierra Leone Civil War and other regional armed conflicts until the UN Security Council imposed a ban on all Liberian timber in 2003  .'
p11
ss.