(dp1
S'input'
p2
(dp3
S'encoded'
p4
(lp5
I64
aI2179
aI394
aI190
aI3
aI21
aI45
aI3895
aI834
asS'ori'
p6
S'This house would limit the right to bear arms'
p7
ssS'output'
p8
(dp9
g4
(lp10
I292
aI7
aI3
aI4122
aI2686
aI4318
aI5
aI93
aI2686
aI89
aI4274
aI63765
asg6
S'Three of the incidents involved handguns and one involved a rifle .'
p11
ss.