(dp1
S'input'
p2
(dp3
S'encoded'
p4
(lp5
I64
aI2179
aI13605
aI2258
aI45
aI2194
asS'ori'
p6
S'This house prefers trade to aid'
p7
ssS'output'
p8
(dp9
g4
(lp10
I24
aI3
aI7408
aI7935
aI1779
aI289
aI7
aI3
aI203
aI972
aI24
aI2203
aI24
aI2203
aI5
aI117
aI24
aI2203
aI63765
asg6
S'In 1994  the agricultural sector employed over 70 % of the labor force in low-income countries  30 % in middle-income countries  and only 4 % in high-income countries (UNCTAD 1999) .'
p11
ss.