(dp1
S'input'
p2
(dp3
S'encoded'
p4
(lp5
I64
aI2179
aI394
aI16756
aI20435
asS'ori'
p6
S'This house would criminalize blasphemy'
p7
ssS'output'
p8
(dp9
g4
(lp10
I2164
aI4801
aI61528
aI17881
aI3
aI2132
aI7
aI10
aI45
aI8377
aI755
aI3
aI2029
aI417
aI316
aI401
aI45
aI3
aI2482
aI2483
aI45
aI3274
aI211
aI3313
aI297
aI99
aI45
aI1453
aI87
aI63765
asg6
S'President Mary McAleese convened the Council of State to discuss whether the Bill should be referred to the Supreme Court to test its Constitutionality; she decided not to do so  .'
p11
ss.