(dp1
S'input'
p2
(dp3
S'encoded'
p4
(lp5
I64
aI2179
aI43
aI63
aI2157
aI2565
aI493
aI19084
aI382
aI4850
asS'ori'
p6
S"This house believes that Israel's 2008-2009 military operations against Gaza were justified"
p7
ssS'output'
p8
(dp9
g4
(lp10
I24
aI89
aI2961
aI4515
aI6880
aI2135
aI2161
aI4386
aI46377
aI46378
aI2244
aI25
aI5046
aI34
aI3
aI2615
aI2979
aI24
aI19084
aI3270
aI63
aI667
aI10539
aI7
aI2617
aI24
aI3
aI2653
aI2087
aI116
aI11094
aI13348
aI63765
asg6
S'|- In a press release  Danish Foreign Minister Per Stig Mller expressed his concerns for the escalating crisis in Gaza  saying that "The new spiral of violence in the Middle East is deeply disturbing .'
p11
ss.