(dp1
S'input'
p2
(dp3
S'encoded'
p4
(lp5
I64
aI2179
aI394
aI2773
aI12505
asS'ori'
p6
S'This house would embrace multiculturalism'
p7
ssS'output'
p8
(dp9
g4
(lp10
I3
aI8179
aI291
aI2138
aI187
aI8175
aI73
aI5989
aI182
aI3082
aI4725
aI4771
aI63765
asg6
S'The boundaries between nations  states  cultures or societies are therefore morally irrelevant .'
p11
ss.