(dp1
S'input'
p2
(dp3
S'encoded'
p4
(lp5
I64
aI2179
aI43
aI63
aI6670
aI546
aI417
aI316
aI89
aI1334
aI3108
aI7
aI4849
aI1886
aI2855
asS'ori'
p6
S'This house believes that wind power should be a primary focus of future energy supply'
p7
ssS'output'
p8
(dp9
g4
(lp10
I64
aI139
aI1398
aI316
aI3629
aI75
aI7005
aI3
aI6670
aI6677
aI45
aI1292
aI4966
aI3230
aI7006
aI73
aI75
aI1646
aI3
aI5105
aI1295
aI34
aI3
aI1896
aI571
aI7
aI3
aI1379
aI298
aI3
aI7004
aI116
aI311
aI3
aI1915
aI63
aI857
aI7006
aI63765
asg6
S'This can easily be avoided by locating the wind farm to avoid unacceptable shadow flicker  or by turning the turbine off for the few minutes of the day when the sun is at the angle that causes flicker  .'
p11
ss.