(dp1
S'input'
p2
(dp3
S'encoded'
p4
(lp5
I64
aI2179
aI43
aI63
aI3
aI4538
aI7
aI4434
aI7793
aI283
aI45
aI3586
aI417
aI316
aI577
asS'ori'
p6
S'This house believes that the sale of violent video games to minors should be banned'
p7
ssS'output'
p8
(dp9
g4
(lp10
I3313
aI4446
aI63
aI107
aI7
aI255
aI3862
aI19
aI5600
aI283
aI3191
aI8532
aI417
aI1640
aI6970
aI40
aI165
aI413
aI271
aI3862
aI3165
aI5600
aI8532
aI417
aI84
aI3896
aI63765
asg6
S'She suggests that instead of stopping children from playing M-rated games completely  parents should just monitor how much time their children spend playing games; parents should take responsibility .'
p11
ss.