(dp1
S'input'
p2
(dp3
S'encoded'
p4
(lp5
I64
aI2179
aI43
aI3
aI626
aI187
aI116
aI1989
aI34
aI3102
aI2223
asS'ori'
p6
S"This house believes the United States is responsible for Mexico's drugs war"
p7
ssS'output'
p8
(dp9
g4
(lp10
I3
aI50315
aI891
aI24
aI1237
aI457
aI5
aI10104
aI24
aI2299
aI5
aI24
aI3
aI626
aI187
aI63765
asg6
S'The infighting resulted in several deaths and arrests in Mexico and in the United States .'
p11
ss.