(dp1
S'input'
p2
(dp3
S'encoded'
p4
(lp5
I64
aI2179
aI394
aI4325
aI2042
aI270
aI89
aI11605
aI3324
asS'ori'
p6
S'This house would fund education using a voucher scheme'
p7
ssS'output'
p8
(dp9
g4
(lp10
I3
aI2762
aI55
aI1155
aI5605
aI667
aI2086
aI4248
aI7656
aI5
aI9923
aI734
aI24
aI3
aI2762
aI2586
aI17919
aI3
aI2365
aI63765
aI5666
aI5
aI5650
aI3539
aI63765
asg6
S"The Project has mainly served New York  Chicago  Miami and Philadelphia  Beginning in 2000  the Project began redesigning the D .C . school's recruitment and hiring processes  ."
p11
ss.