(dp1
S'input'
p2
(dp3
S'encoded'
p4
(lp5
I64
aI2179
aI43
aI3
aI626
aI187
aI116
aI1989
aI34
aI3102
aI2223
asS'ori'
p6
S"This house believes the United States is responsible for Mexico's drugs war"
p7
ssS'output'
p8
(dp9
g4
(lp10
I42
aI123
aI3
aI18365
aI7074
aI7
aI92
aI2602
aI3
aI3933
aI7
aI8711
aI5
aI3
aI3933
aI7
aI2613
aI4562
aI45
aI399
aI3
aI3933
aI7
aI8711
aI5
aI5501
aI3102
aI545
aI3
aI2176
aI7
aI2248
aI63765
asg6
S'He created the Reorganization Plan of 1968 which merged the Bureau of Narcotics and the Bureau of Drug Abuse to form the Bureau of Narcotics and Dangerous Drugs within the Department of Justice  .'
p11
ss.