(dp1
S'input'
p2
(dp3
S'encoded'
p4
(lp5
I64
aI2179
aI394
aI16642
aI1376
aI5269
asS'ori'
p6
S'This house would subsidize poor communities'
p7
ssS'output'
p8
(dp9
g4
(lp10
I24
aI128
aI45
aI7817
aI3
aI3905
aI7
aI130
aI5
aI40
aI3
aI1376
aI60616
aI1629
aI7
aI442
aI1057
aI45
aI1576
aI86
aI15728
aI24
aI64
aI7870
aI1351
aI24419
aI4439
aI132
aI442
aI5
aI40
aI155
aI1466
aI3
aI1376
aI5052
aI63765
asg6
S'In order to understand the culture of poverty and how the poor classs set of rules tend to keep them trapped in this continual cycle Payne describes these rules and how they affect the poor class .'
p11
ss.