(dp1
S'input'
p2
(dp3
S'encoded'
p4
(lp5
I64
aI2179
aI394
aI5284
aI150
aI3987
asS'ori'
p6
S'This house would reintroduce national service'
p7
ssS'output'
p8
(dp9
g4
(lp10
I5259
aI3829
aI60
aI3
aI179
aI604
aI155
aI382
aI3741
aI705
aI2789
aI81
aI5264
aI93
aI7
aI4895
aI55
aI12
aI5943
aI2180
aI55
aI63
aI2233
aI417
aI11
aI1047
aI63765
asg6
S"Rangel disagreed with the committee's finding  saying: Because they were my staff members who knew  one of whom has been discharged  [the committee has decided] that I should have known ."
p11
ss.