(dp1
S'input'
p2
(dp3
S'encoded'
p4
(lp5
I64
aI2179
aI394
aI5370
aI3
aI5286
asS'ori'
p6
S'This house would abolish the monarchy'
p7
ssS'output'
p8
(dp9
g4
(lp10
I89
aI6526
aI116
aI99
aI2867
aI34
aI89
aI4634
aI45
aI5267
aI3
aI2115
aI162
aI1040
aI238
aI725
aI3131
aI366
aI9901
aI45
aI501
aI971
aI413
aI34
aI211
aI953
aI5
aI34
aI89
aI639
aI7
aI11634
aI63765
asg6
S'A coronation is not necessary for a sovereign to reign; indeed  the ceremony usually takes place many months after accession to allow sufficient time for its preparation and for a period of mourning  .'
p11
ss.