(dp1
S'input'
p2
(dp3
S'encoded'
p4
(lp5
I64
aI2179
aI43
aI63
aI3
aI21
aI45
aI12715
aI417
aI99
aI316
aI2897
asS'ori'
p6
S'This house believes that the right to asylum should not be absolute'
p7
ssS'output'
p8
(dp9
g4
(lp10
I34
aI1343
aI233
aI45
aI3
aI27988
aI24
aI2371
aI1348
aI7477
aI34
aI32236
aI226
aI3
aI626
aI187
aI427
aI24
aI5
aI667
aI6113
aI116
aI1932
aI138
aI1348
aI63765
asg6
S'For example  according to the UNHCR  in 1999 Japan accepted 16 refugees for resettlement  while the United States took in 85 010  and New Zealand (which is smaller than Japan) accepted 1 140 .'
p11
ss.