(dp1
S'input'
p2
(dp3
S'encoded'
p4
(lp5
I64
aI2179
aI394
aI2741
aI3
aI1560
aI6025
aI2784
asS'ori'
p6
S'This house would pass the American Jobs Act'
p7
ssS'output'
p8
(dp9
g4
(lp10
I3
aI2029
aI122
aI451
aI75
aI4290
aI13351
aI30561
aI14
aI2871
aI5
aI3019
aI24
aI89
aI2490
aI34
aI27942
aI14
aI1906
aI63765
asg6
S'" The bill was introduced by Senator Amy Klobuchar on October 31  2011 and failed in a 51-49 vote for cloture on November 3  2011  .'
p11
ss.