(dp1
S'input'
p2
(dp3
S'encoded'
p4
(lp5
I64
aI2179
aI394
aI117
aI7428
aI21151
aI34
aI11389
aI2042
aI24
aI4364
asS'ori'
p6
S'This house would only teach abstinence for sex education in schools'
p7
ssS'output'
p8
(dp9
g4
(lp10
I298
aI8532
aI1199
aI8681
aI7
aI61
aI21151
aI2042
aI14189
aI63765
aI7088
aI11389
aI2042
aI2909
aI13738
aI96
aI34
aI21151
aI256
aI32559
aI19
aI45
aI226
aI96
aI34
aI7088
aI256
aI1676
aI19
aI45
aI63765
asg6
S'When parents become aware of what abstinence education vs . comprehensive sex education actually teaches  support for abstinence programs jumps from 40% to 60%  while support for comprehensive programs drops from 50% to 30% .'
p11
ss.