(dp1
S'input'
p2
(dp3
S'encoded'
p4
(lp5
I64
aI2179
aI394
aI1499
aI177
aI1819
aI34
aI160
asS'ori'
p6
S'This house would build high rises for housing'
p7
ssS'output'
p8
(dp9
g4
(lp10
I64
aI116
aI324
aI3
aI33
aI24
aI2317
aI60
aI2456
aI8314
aI159
aI41
aI3
aI572
aI5
aI39574
aI23762
aI24
aI3
aI17261
aI2203
aI7
aI4192
aI323
aI5
aI217
aI7
aI2547
aI53
aI273
aI116
aI165
aI7729
aI6740
aI79
aI34
aI2179
aI6049
aI63765
asg6
S'This is particularly the case in regions with climate extremes  such as the long and snowy winters in the Nordic countries of northern Europe and most of Canada where there is much snow clearing work for house residents .'
p11
ss.