(dp1
S'input'
p2
(dp3
S'encoded'
p4
(lp5
I64
aI2179
aI394
aI190
aI3
aI21
aI45
aI3895
aI834
asS'ori'
p6
S'This house would limit the right to bear arms'
p7
ssS'output'
p8
(dp9
g4
(lp10
I125
aI6733
aI63515
aI63515
aI237
aI5052
aI8835
aI7086
aI5722
aI7086
aI63765
asg6
S'Basic Practical Pro-Marksman Marksman Marksman First Class Sharpshooter; Bars 1-9 Expert Distinguished Expert  .'
p11
ss.