(dp1
S'input'
p2
(dp3
S'encoded'
p4
(lp5
I64
aI2179
aI394
aI60
aI23587
asS'ori'
p6
S'This house would re-engage with Myanmar'
p7
ssS'output'
p8
(dp9
g4
(lp10
I3
aI1156
aI260
aI122
aI637
aI2853
aI75
aI3
aI634
aI17082
aI7
aI3
aI3609
aI5409
aI41475
aI4347
aI41476
aI41477
aI63765
asg6
S'The Irish Government was still concerned by the continued detention of the opposition leader Aung San Suu Kyi  .'
p11
ss.