(dp1
S'input'
p2
(dp3
S'encoded'
p4
(lp5
I64
aI2179
aI43
aI63
aI3
aI21
aI45
aI12715
aI417
aI99
aI316
aI2897
asS'ori'
p6
S'This house believes that the right to asylum should not be absolute'
p7
ssS'output'
p8
(dp9
g4
(lp10
I3327
aI5307
aI24
aI2452
aI1384
aI3
aI1643
aI976
aI4242
aI41
aI3920
aI5014
aI2230
aI3757
aI45
aI17
aI3205
aI159
aI41
aI658
aI2042
aI5
aI3
aI10247
aI658
aI9414
aI145
aI63765
asg6
S'Unauthorized immigrants in Brazil enjoy the same legal privileges as native Brazilians regarding access to social services such as public education and the Brazilian public healthcare system  .'
p11
ss.