(dp1
S'input'
p2
(dp3
S'encoded'
p4
(lp5
I64
aI2179
aI43
aI3
aI626
aI187
aI116
aI1989
aI34
aI3102
aI2223
asS'ori'
p6
S"This house believes the United States is responsible for Mexico's drugs war"
p7
ssS'output'
p8
(dp9
g4
(lp10
I3006
aI2568
aI7
aI2299
aI60
aI3
aI2145
aI63765
aI2425
aI45
aI3
aI2068
aI10104
aI7
aI28432
aI2616
aI23504
aI24
aI2145
aI63765
aI385
aI5
aI3946
aI131
aI3
aI2145
aI63765
aI192
aI116
aI773
aI24626
aI75
aI20680
aI3497
aI34
aI3103
aI24
aI323
aI53
aI1517
aI2056
aI5878
aI9348
aI3
aI520
aI2145
aI63765
aI2994
aI63765
asg6
S'Improved cooperation of Mexico with the U .S . led to the recent arrests of 755 Sinaloa cartel suspects in U .S . cities and towns  but the U .S . market is being eclipsed by booming demand for cocaine in Europe  where users now pay twice the going U .S . rate  .'
p11
ss.