(dp1
S'input'
p2
(dp3
S'encoded'
p4
(lp5
I64
aI2179
aI394
aI117
aI7428
aI21151
aI34
aI11389
aI2042
aI24
aI4364
asS'ori'
p6
S'This house would only teach abstinence for sex education in schools'
p7
ssS'output'
p8
(dp9
g4
(lp10
I5
aI134
aI13155
aI3
aI1986
aI8649
aI45
aI3
aI217
aI4943
aI3503
aI1559
aI94
aI7
aI15283
aI3218
aI3862
aI5
aI9184
aI2466
aI2923
aI7
aI2547
aI63765
asg6
S'And it sends the wrong message to the most valuable yet vulnerable group of Canadians  our children and youth .|Drug Prevention Network of Canada  .'
p11
ss.