(dp1
S'input'
p2
(dp3
S'encoded'
p4
(lp5
I64
aI2179
aI394
aI60
aI23587
asS'ori'
p6
S'This house would re-engage with Myanmar'
p7
ssS'output'
p8
(dp9
g4
(lp10
I89
aI771
aI24
aI448
aI3644
aI2523
aI63
aI292
aI993
aI16983
aI440
aI12
aI1401
aI45
aI3
aI3644
aI366
aI155
aI382
aI13225
aI588
aI996
aI75
aI3
aI4251
aI631
aI311
aI50553
aI50554
aI63765
asg6
S"A doctor in Yangon's general hospital confirmed that three injured monks had been admitted to the hospital after they were beaten up severely by the riot police at Shwedagon pagoda  ."
p11
ss.