(dp1
S'input'
p2
(dp3
S'encoded'
p4
(lp5
I64
aI2179
aI43
aI63
aI6670
aI546
aI417
aI316
aI89
aI1334
aI3108
aI7
aI4849
aI1886
aI2855
asS'ori'
p6
S'This house believes that wind power should be a primary focus of future energy supply'
p7
ssS'output'
p8
(dp9
g4
(lp10
I6674
aI7373
aI546
aI4975
aI174
aI17145
aI6695
aI6696
aI92
aI88
aI7747
aI45
aI2456
aI1546
aI63765
asg6
S'Fossil fuel-fired electric power plants also emit carbon dioxide  which may contribute to climate change .'
p11
ss.