(dp1
S'input'
p2
(dp3
S'encoded'
p4
(lp5
I64
aI2179
aI394
aI190
aI3
aI21
aI45
aI3895
aI834
asS'ori'
p6
S'This house would limit the right to bear arms'
p7
ssS'output'
p8
(dp9
g4
(lp10
I3899
aI2511
aI182
aI89
aI2195
aI7
aI325
aI2196
aI24
aI3
aI626
aI187
aI60
aI3892
aI174
aI1360
aI416
aI34
aI4498
aI792
aI5
aI34
aI3446
aI1795
aI63765
asg6
S'Firearm laws are a subject of great debate in the United States  with firearms also widely used for recreational purposes  and for personal protection  .'
p11
ss.