(dp1
S'input'
p2
(dp3
S'encoded'
p4
(lp5
I64
aI2179
aI43
aI17
aI4941
aI857
aI3211
asS'ori'
p6
S'This house believes social deprivation causes crime'
p7
ssS'output'
p8
(dp9
g4
(lp10
I100
aI1185
aI17552
aI566
aI60
aI64
aI1039
aI1074
aI1203
aI12601
aI1206
aI10458
aI29512
aI21068
aI21069
aI1206
aI59078
aI5
aI4720
aI39935
aI63765
asg6
S'Some important sociologists associated with this approach include Max Weber  George Herbert Mead  Erving Goffman  George Homans and Peter Blau .'
p11
ss.