(dp1
S'input'
p2
(dp3
S'encoded'
p4
(lp5
I64
aI2179
aI43
aI63
aI2157
aI2565
aI493
aI19084
aI382
aI4850
asS'ori'
p6
S"This house believes that Israel's 2008-2009 military operations against Gaza were justified"
p7
ssS'output'
p8
(dp9
g4
(lp10
I3
aI9359
aI736
aI3
aI1687
aI2686
aI2568
aI291
aI2659
aI2657
aI2658
aI5
aI3
aI19088
aI254
aI63765
asg6
S'The investigation into the attacks involved cooperation between Israel  Egypt  Jordan and the Palestinian Authority .'
p11
ss.