(dp1
S'input'
p2
(dp3
S'encoded'
p4
(lp5
I64
aI2179
aI394
aI16642
aI1376
aI5269
asS'ori'
p6
S'This house would subsidize poor communities'
p7
ssS'output'
p8
(dp9
g4
(lp10
I11895
aI18934
aI6826
aI63
aI2258
aI55
aI117
aI9445
aI34
aI7
aI1674
aI112
aI4925
aI63765
asg6
S'Lawrence Katz estimates that trade has only accounted for 5-15% of rising income inequality .'
p11
ss.