(dp1
S'input'
p2
(dp3
S'encoded'
p4
(lp5
I64
aI2179
aI43
aI63
aI134
aI116
aI400
aI21
aI34
aI3
aI260
aI45
aI3439
aI57
aI7
aI2381
asS'ori'
p6
S'This house believes that it is sometimes right for the government to restrict freedom of speech'
p7
ssS'output'
p8
(dp9
g4
(lp10
I131
aI3173
aI2538
aI7217
aI15359
aI50446
aI7
aI3
aI6375
aI73
aI248
aI3364
aI7
aI3
aI260
aI252
aI11740
aI73
aI3438
aI45
aI38593
aI11095
aI18409
aI73
aI62440
aI1453
aI99
aI3498
aI51
aI4603
aI459
aI64
aI4185
aI63765
asg6
S'But Explanation 3 says Comments expressing disapprobation of the administrative or other action of the Government without exciting or attempting to excite hatred  contempt or disaffection  do not constitute an offence under this section  .'
p11
ss.