(dp1
S'input'
p2
(dp3
S'encoded'
p4
(lp5
I64
aI2179
aI394
aI5284
aI150
aI3987
asS'ori'
p6
S'This house would reintroduce national service'
p7
ssS'output'
p8
(dp9
g4
(lp10
I853
aI14
aI828
aI957
aI7
aI234
aI273
aI122
aI843
aI657
aI939
aI5904
aI45
aI3
aI169
aI2157
aI24
aI4192
aI4581
aI73
aI3
aI1156
aI4408
aI202
aI18390
aI6075
aI60
aI223
aI2738
aI7
aI3
aI169
aI260
aI24
aI3
aI12576
aI5269
aI155
aI706
aI63765
asg6
S'Depending on your point of view  there was either widespread popular resistance to the British Military in Northern Ireland or the Irish Republican Army violently enforced non-cooperation with all aspects of the British government in the nationalist communities they controlled .'
p11
ss.