(dp1
S'input'
p2
(dp3
S'encoded'
p4
(lp5
I64
aI2179
aI43
aI63
aI2157
aI2565
aI493
aI19084
aI382
aI4850
asS'ori'
p6
S"This house believes that Israel's 2008-2009 military operations against Gaza were justified"
p7
ssS'output'
p8
(dp9
g4
(lp10
I19088
aI2702
aI2219
aI3943
aI63
aI155
aI1453
aI207
aI73
aI3819
aI45
aI881
aI11995
aI1687
aI73
aI45
aI1781
aI1989
aI3
aI13668
aI81
aI12011
aI86
aI233
aI45
aI89
aI905
aI75
aI2445
aI2446
aI3601
aI63765
asg6
S'Palestinian security forces say that they do little or nothing to prevent rocket attacks or to hold responsible the militants who launch them  according to a 2007 report by Human Rights Watch  .'
p11
ss.