(dp1
S'input'
p2
(dp3
S'encoded'
p4
(lp5
I64
aI2179
aI394
aI117
aI7428
aI21151
aI34
aI11389
aI2042
aI24
aI4364
asS'ori'
p6
S'This house would only teach abstinence for sex education in schools'
p7
ssS'output'
p8
(dp9
g4
(lp10
I8578
aI182
aI136
aI138
aI9348
aI41
aI1856
aI41
aI5716
aI45
aI3943
aI155
aI3367
aI6730
aI1191
aI777
aI5
aI136
aI138
aI292
aI1727
aI41
aI1856
aI45
aI3943
aI155
aI3367
aI416
aI41
aI89
aI296
aI7
aI9633
aI24
aI11389
aI73
aI32011
aI63765
asg6
S'" Girls are more than twice as likely as boys to say they felt bad about themselves and more than three times as likely to say they felt used as a result of engaging in sex or hookups  .'
p11
ss.