(dp1
S'input'
p2
(dp3
S'encoded'
p4
(lp5
I64
aI2179
aI43
aI63
aI3
aI4991
aI7
aI180
aI417
aI316
aI5396
aI19
aI3
aI169
aI10
asS'ori'
p6
S'This house believes that the Church of England should be separated from the British state'
p7
ssS'output'
p8
(dp9
g4
(lp10
I2025
aI7
aI3
aI6080
aI7
aI4991
aI5
aI10
aI186
aI63
aI64
aI2268
aI92
aI122
aI2215
aI75
aI3
aI2211
aI16694
aI63
aI3
aI260
aI7
aI3
aI626
aI187
aI122
aI4555
aI1881
aI45
aI316
aI10120
aI842
aI63765
asg6
S'Supporters of the separation of church and state argue that this treaty  which was ratified by the Senate  confirms that the government of the United States was specifically intended to be religiously neutral  .'
p11
ss.