(dp1
S'input'
p2
(dp3
S'encoded'
p4
(lp5
I64
aI2179
aI394
aI1499
aI177
aI1819
aI34
aI160
asS'ori'
p6
S'This house would build high rises for housing'
p7
ssS'output'
p8
(dp9
g4
(lp10
I12879
aI7
aI23977
aI5
aI27837
aI182
aI246
aI2786
aI279
aI2506
aI5
aI6049
aI4377
aI427
aI1680
aI45
aI36283
aI915
aI3
aI31271
aI5
aI24
aI22313
aI24
aI1341
aI427
aI1680
aI45
aI163
aI475
aI7
aI2622
aI15905
aI4678
aI24
aI3
aI73
aI63765
asg6
S'Flights of stairs and landings are generally designated common areas  and residents traditionally took turns to sweep clean the floors  and in Aberdeen in particular  took turns to make use of shared laundry facilities in the "back green" (garden or yard) .'
p11
ss.