(dp1
S'input'
p2
(dp3
S'encoded'
p4
(lp5
I64
aI2179
aI394
aI16642
aI1376
aI5269
asS'ori'
p6
S'This house would subsidize poor communities'
p7
ssS'output'
p8
(dp9
g4
(lp10
I9011
aI23071
aI88
aI124
aI15
aI5
aI96
aI41
aI155
aI124
aI2635
aI34
aI2825
aI5
aI3757
aI45
aI1376
aI78
aI3
aI191
aI4658
aI7
aI2240
aI256
aI182
aI3075
aI45
aI2998
aI13052
aI5
aI5856
aI73
aI45
aI1476
aI23127
aI2722
aI11477
aI2604
aI5
aI1068
aI45
aI316
aI1971
aI2818
aI75
aI3217
aI73
aI2042
aI4678
aI1392
aI2794
aI75
aI3
aI3904
aI2042
aI5
aI3217
aI2667
aI63765
asg6
S'|- Fee waivers may provide both demand-side and supply-side support  as they provide resources for institutions and access to poor people The incentive effects of school programs are designed to encourage enrollment and attendance or to reduce dropout rates Administratively complex and need to be managed directly by health or education facilities Effectiveness influenced by the existing education and health infrastructure   .'
p11
ss.