(dp1
S'input'
p2
(dp3
S'encoded'
p4
(lp5
I64
aI2179
aI394
aI163
aI959
aI2042
aI3557
asS'ori'
p6
S'This house would make physical education compulsory'
p7
ssS'output'
p8
(dp9
g4
(lp10
I132
aI88
aI1074
aI2990
aI6375
aI29040
aI88
aI316
aI2990
aI19
aI705
aI73
aI5
aI13733
aI7
aI4277
aI63765
asg6
S'These may include elected administrative clerks (who may be elected from staff or students) and committees of volunteers .'
p11
ss.