(dp1
S'input'
p2
(dp3
S'encoded'
p4
(lp5
I64
aI2179
aI43
aI24
aI3
aI475
aI7
aI12436
aI3364
asS'ori'
p6
S'This house believes in the use of affirmative action'
p7
ssS'output'
p8
(dp9
g4
(lp10
I17552
aI11
aI174
aI6833
aI864
aI60
aI3871
aI45
aI3
aI2809
aI5
aI3221
aI63
aI274
aI7
aI10535
aI11
aI24
aI725
aI1106
aI28846
aI19
aI136
aI12961
aI10049
aI42830
aI736
aI136
aI2527
aI5208
aI63
aI12961
aI274
aI7
aI11095
aI5
aI4933
aI637
aI63765
asg6
S'"Some sociologists have also pointed out  with reference to the USA and elsewhere  that forms of racism have in many instances mutated from more blatant expressions hereof into more covert kinds (albeit that blatant forms of hatred and discrimination still endure) .'
p11
ss.