(dp1
S'input'
p2
(dp3
S'encoded'
p4
(lp5
I64
aI2179
aI43
aI223
aI2138
aI11
aI89
aI21
aI45
aI2185
aI372
asS'ori'
p6
S'This house believes all nations have a right to nuclear weapons'
p7
ssS'output'
p8
(dp9
g4
(lp10
I3
aI448
aI2333
aI174
aI16373
aI3
aI7560
aI34
aI5606
aI448
aI5
aI7112
aI2962
aI19
aI3
aI2128
aI14
aI214
aI24
aI2802
aI63765
asg6
S'The General Conference also approves the nominee for Director General and requests reports from the Board on issues in question (Statute) .'
p11
ss.