(dp1
S'input'
p2
(dp3
S'encoded'
p4
(lp5
I64
aI2179
aI394
aI2017
aI3807
aI314
aI3433
asS'ori'
p6
S'This house would ban partial birth abortions'
p7
ssS'output'
p8
(dp9
g4
(lp10
I16589
aI3
aI16530
aI4912
aI3440
aI7
aI3774
aI41
aI16187
aI3765
aI263
aI34
aI3774
aI45
aI316
aI16577
aI63765
asg6
S'Denouncing the undue burden standard of Casey as illegitimate  Scalia called for Casey to be overruled .'
p11
ss.