(dp1
S'input'
p2
(dp3
S'encoded'
p4
(lp5
I64
aI2179
aI394
aI2773
aI12505
asS'ori'
p6
S'This house would embrace multiculturalism'
p7
ssS'output'
p8
(dp9
g4
(lp10
I10250
aI4933
aI116
aI99
aI2275
aI24
aI2318
aI2047
aI5
aI116
aI400
aI344
aI41
aI8051
aI4713
aI887
aI2318
aI26404
aI63765
asg6
S'Racial discrimination is not uncommon in South Korea and is sometimes seen as socially acceptable among South Koreans .'
p11
ss.