(dp1
S'input'
p2
(dp3
S'encoded'
p4
(lp5
I64
aI2179
aI43
aI223
aI2138
aI11
aI89
aI21
aI45
aI2185
aI372
asS'ori'
p6
S'This house believes all nations have a right to nuclear weapons'
p7
ssS'output'
p8
(dp9
g4
(lp10
I24
aI2116
aI3
aI2206
aI2159
aI7
aI10
aI19117
aI18187
aI534
aI809
aI27120
aI536
aI25683
aI33537
aI45
aI843
aI25
aI612
aI14
aI73
aI4976
aI45
aI316
aI2168
aI34
aI89
aI3059
aI2497
aI41
aI27120
aI536
aI63765
asg6
S'In June 2005  the US secretary of state Condoleezza Rice required former IAEA head Mohamed ElBaradei to either "toughen his stance on Iran" or fail to be chosen for a third term as IAEA head  .'
p11
ss.