(dp1
S'input'
p2
(dp3
S'encoded'
p4
(lp5
I64
aI2179
aI43
aI17
aI4941
aI857
aI3211
asS'ori'
p6
S'This house believes social deprivation causes crime'
p7
ssS'output'
p8
(dp9
g4
(lp10
I64
aI116
aI89
aI165
aI1234
aI639
aI7
aI413
aI138
aI658
aI3217
aI55
aI12
aI9418
aI248
aI3217
aI251
aI7
aI12403
aI17608
aI5
aI60
aI3718
aI5012
aI6203
aI63765
asg6
S'This is a much shorter period of time than public health has been tackling other health problems of comparable magnitude and with similarly severe life-long consequences .'
p11
ss.