(dp1
S'input'
p2
(dp3
S'encoded'
p4
(lp5
I64
aI2179
aI394
aI5370
aI223
aI4013
aI10440
aI2446
aI4881
aI75
aI14482
aI11004
asS'ori'
p6
S'This house would abolish all collective bargaining rights claimed by trades unions'
p7
ssS'output'
p8
(dp9
g4
(lp10
I64
aI882
aI7
aI18478
aI5
aI5428
aI18440
aI10725
aI24
aI27994
aI5
aI13990
aI638
aI211
aI12055
aI5
aI394
aI395
aI316
aI51
aI1185
aI17572
aI34
aI3
aI2891
aI7
aI2258
aI11004
aI63765
asg6
S'This pool of unskilled and semi-skilled labour spontaneously organised in fits and starts throughout its beginnings  and would later be an important arena for the development of trade unions .'
p11
ss.