(dp1
S'input'
p2
(dp3
S'encoded'
p4
(lp5
I64
aI2179
aI43
aI63
aI2203
aI60
aI51
aI997
aI2837
aI21716
aI1636
aI5349
aI417
aI2998
aI8532
aI45
aI3051
aI8578
asS'ori'
p6
S'This house believes that countries with an imbalanced male/female ratio skewed towards males should encourage parents to produce girls'
p7
ssS'output'
p8
(dp9
g4
(lp10
I397
aI3
aI320
aI45
aI2644
aI2019
aI63765
aI4518
aI37158
aI122
aI3
aI237
aI45
aI5612
aI12175
aI3730
aI2445
aI5
aI3966
aI37157
aI270
aI89
aI3142
aI37159
aI5
aI17874
aI3
aI37160
aI37161
aI37162
aI16554
aI34
aI3284
aI26556
aI63765
asg6
S'During the early to mid 1980s  Dr . Glenn Spaulding was the first to sort viable whole human and animal spermatozoa using a flow cytometer  and utilized the sorted motile rabbit sperm for artificial insemination .'
p11
ss.