(dp1
S'input'
p2
(dp3
S'encoded'
p4
(lp5
I64
aI2179
aI43
aI63
aI2659
aI417
aI1690
aI3
aI12048
aI7
aI19084
asS'ori'
p6
S'This house believes that Israel should lift the blockade of Gaza'
p7
ssS'output'
p8
(dp9
g4
(lp10
I132
aI4453
aI11
aI12
aI2580
aI75
aI3727
aI81
aI263
aI34
aI51
aI903
aI9359
aI736
aI40
aI3
aI19190
aI31463
aI122
aI11022
aI63765
asg6
S'These claims have been disputed by Activists who called for an independent investigation into how the MV Saoirse was damaged  .'
p11
ss.