(dp1
S'input'
p2
(dp3
S'encoded'
p4
(lp5
I64
aI2179
aI43
aI3
aI626
aI187
aI116
aI1989
aI34
aI3102
aI2223
asS'ori'
p6
S"This house believes the United States is responsible for Mexico's drugs war"
p7
ssS'output'
p8
(dp9
g4
(lp10
I14
aI2116
aI89
aI3401
aI2564
aI705
aI905
aI122
aI5162
aI75
aI4233
aI8838
aI5
aI4290
aI28326
aI63765
asg6
S'On June 14  2011  a preliminary joint staff report was released by Representative Issa and Senator Grassley  .'
p11
ss.