(dp1
S'input'
p2
(dp3
S'encoded'
p4
(lp5
I64
aI2179
aI43
aI8629
aI116
aI3
aI117
aI998
asS'ori'
p6
S'This house believes atheism is the only way'
p7
ssS'output'
p8
(dp9
g4
(lp10
I273
aI182
aI1872
aI5041
aI14
aI132
aI1589
aI63765
asg6
S'There are numerous variations on these positions .'
p11
ss.