(dp1
S'input'
p2
(dp3
S'encoded'
p4
(lp5
I64
aI2179
aI394
aI4325
aI2042
aI270
aI89
aI11605
aI3324
asS'ori'
p6
S'This house would fund education using a voucher scheme'
p7
ssS'output'
p8
(dp9
g4
(lp10
I3007
aI3382
aI24
aI5
aI493
aI22582
aI5
aI2282
aI7
aI3
aI3217
aI197
aI2326
aI92
aI116
aI89
aI2564
aI2326
aI45
aI124
aI3217
aI197
aI34
aI3862
aI5
aI3314
aI3495
aI24
aI5743
aI81
aI1453
aI99
aI156
aI34
aI3606
aI63765
asg6
S"Paul voted in 2007 and 2009 against reauthorization and expansion of the Children's Health Insurance Program (SCHIP)  which is a joint state-federal program to provide health insurance for children and pregnant women in low-income families who do not qualify for Medicaid  ."
p11
ss.