(dp1
S'input'
p2
(dp3
S'encoded'
p4
(lp5
I64
aI2179
aI394
aI16756
aI20435
asS'ori'
p6
S'This house would criminalize blasphemy'
p7
ssS'output'
p8
(dp9
g4
(lp10
I14
aI2959
aI863
aI5864
aI2789
aI7
aI3
aI22
aI171
aI557
aI89
aI6773
aI24
aI10373
aI24
aI8672
aI7
aI15
aI4035
aI5
aI3
aI1075
aI14852
aI63765
asg6
S"On April 6  2008  five thousand members of the Jamaat-e-Islami political party held a demonstration in Karachi  in protest of both Wilders' film and the Jyllands-Posten Muhammad cartoons ."
p11
ss.