(dp1
S'input'
p2
(dp3
S'encoded'
p4
(lp5
I64
aI2179
aI43
aI3
aI626
aI187
aI116
aI1989
aI34
aI3102
aI2223
asS'ori'
p6
S"This house believes the United States is responsible for Mexico's drugs war"
p7
ssS'output'
p8
(dp9
g4
(lp10
I24
aI273
aI122
aI89
aI10516
aI24
aI2617
aI41
aI1137
aI28434
aI58919
aI2613
aI2616
aI685
aI2126
aI24
aI8691
aI63765
asg6
S'In 2005 there was a surge in violence as La Familia Michoacana drug cartel established itself in Michoacan .'
p11
ss.