(dp1
S'input'
p2
(dp3
S'encoded'
p4
(lp5
I64
aI2179
aI43
aI63
aI187
aI417
aI99
aI16642
aI3
aI6449
aI7
aI3935
asS'ori'
p6
S'This house believes that states should not subsidize the growing of tobacco'
p7
ssS'output'
p8
(dp9
g4
(lp10
I3
aI4658
aI7
aI14680
aI14
aI2022
aI1569
aI148
aI291
aI384
aI10141
aI63
aI139
aI316
aI14836
aI5
aI3
aI6568
aI17
aI251
aI63
aI155
aI521
aI24
aI325
aI759
aI604
aI7
aI3
aI3802
aI24
aI2474
aI5
aI3
aI3353
aI7
aI8711
aI2474
aI589
aI3
aI285
aI63765
asg6
S'The effects of addiction on society vary considerably between different substances that can be smoked and the indirect social problems that they cause  in great part because of the differences in legislation and the enforcement of narcotics legislation around the world .'
p11
ss.