(dp1
S'input'
p2
(dp3
S'encoded'
p4
(lp5
I64
aI2179
aI394
aI3830
aI3
aI475
aI7
aI9441
aI13132
aI3102
aI24
aI276
aI381
asS'ori'
p6
S'This house would permit the use of performance enhancing drugs in professional sports'
p7
ssS'output'
p8
(dp9
g4
(lp10
I378
aI4539
aI116
aI99
aI13293
aI89
aI7346
aI13784
aI34
aI13004
aI2233
aI2236
aI73
aI3501
aI10141
aI63765
asg6
S'However  possession is not punishable  a consequence reserved for schedule I  II or III substances .'
p11
ss.