(dp1
S'input'
p2
(dp3
S'encoded'
p4
(lp5
I64
aI2179
aI43
aI63
aI1036
aI4828
aI33250
aI116
aI25073
aI45
aI3315
aI4562
asS'ori'
p6
S'This house believes that male infant circumcision is tantamount to child abuse'
p7
ssS'output'
p8
(dp9
g4
(lp10
I186
aI63
aI394
aI316
aI12449
aI45
aI99
aI992
aI358
aI93
aI7
aI3
aI217
aI36989
aI174
aI93
aI7
aI3
aI217
aI36990
aI9636
aI45
aI24
aI3
aI2231
aI7
aI3
aI7943
aI63765
asg6
S'argue that "it would be unethical to not seriously consider one of the most promisingalthough also one of the most controversialnew approaches to HIV-prevention in the 25-year history of the epidemic .'
p11
ss.