(dp1
S'input'
p2
(dp3
S'encoded'
p4
(lp5
I64
aI2179
aI43
aI63
aI187
aI417
aI99
aI16642
aI3
aI6449
aI7
aI3935
asS'ori'
p6
S'This house believes that states should not subsidize the growing of tobacco'
p7
ssS'output'
p8
(dp9
g4
(lp10
I667
aI2041
aI3715
aI63
aI3249
aI2041
aI3714
aI75
aI14815
aI3098
aI9812
aI15010
aI24
aI3
aI2036
aI63
aI10873
aI122
aI6952
aI3503
aI3
aI3098
aI16114
aI3
aI179
aI397
aI3
aI1608
aI267
aI2467
aI63765
asg6
S'New research indicates that private research conducted by cigarette company Philip Morris in the 1980s showed that second-hand smoke was toxic  yet the company suppressed the finding during the next two decades  .'
p11
ss.