(dp1
S'input'
p2
(dp3
S'encoded'
p4
(lp5
I64
aI2179
aI394
aI2017
aI3807
aI314
aI3433
asS'ori'
p6
S'This house would ban partial birth abortions'
p7
ssS'output'
p8
(dp9
g4
(lp10
I2759
aI3552
aI1612
aI13443
aI3
aI1307
aI7
aI5404
aI1887
aI80
aI5523
aI16932
aI41
aI63765
asg6
S'"Some prominent pro-choice advocates quickly defended the accuracy of Fitzsimmons\'s statements  whilst others condemned Fitzsimmons as self-serving  .'
p11
ss.