(dp1
S'input'
p2
(dp3
S'encoded'
p4
(lp5
I64
aI2179
aI43
aI63
aI17574
aI417
aI316
aI3481
aI34
aI271
aI79
asS'ori'
p6
S'This house believes that housewives should be paid for their work'
p7
ssS'output'
p8
(dp9
g4
(lp10
I153
aI85
aI79
aI3185
aI14
aI3
aI6447
aI45
aI124
aI34
aI3862
aI3
aI4897
aI5
aI3
aI15429
aI63765
asg6
S'Often  care work focuses on the responsibilities to provide for dependants- children  the sick  and the elderly  .'
p11
ss.