(dp1
S'input'
p2
(dp3
S'encoded'
p4
(lp5
I64
aI2179
aI394
aI5370
aI3
aI5286
asS'ori'
p6
S'This house would abolish the monarchy'
p7
ssS'output'
p8
(dp9
g4
(lp10
I3
aI667
aI6113
aI658
aI182
aI246
aI24
aI1170
aI7
aI3
aI15657
aI7
aI3
aI5286
aI60
aI2068
aI5003
aI6909
aI134
aI45
aI11
aI291
aI5
aI96
aI63765
asg6
S'The New Zealand public are generally in favour of the retention of the monarchy  with recent polls showing it to have between 50 and 70% support .'
p11
ss.