(dp1
S'input'
p2
(dp3
S'encoded'
p4
(lp5
I64
aI2179
aI394
aI2773
aI12505
asS'ori'
p6
S'This house would embrace multiculturalism'
p7
ssS'output'
p8
(dp9
g4
(lp10
I12323
aI30673
aI1038
aI7460
aI41
aI3
aI2710
aI1362
aI685
aI75
aI3
aI4433
aI7
aI4279
aI8422
aI8732
aI2319
aI60
aI7015
aI16201
aI5
aI3365
aI5224
aI2040
aI63
aI30674
aI687
aI89
aI1629
aI7
aI2135
aI13541
aI3527
aI5
aI8974
aI92
aI24
aI3397
aI1603
aI88
aI5579
aI3
aI2287
aI8175
aI5
aI13007
aI3539
aI63765
asg6
S'Tom McPhail defined "Electronic colonialism as the dependency relationship established by the importation of communication hardware  foreign-produced software  along with engineers  technicians  and related information protocols  that vicariously establish a set of foreign norms  values  and expectations which  in varying degrees  may alter the domestic cultures and socialization processes .'
p11
ss.