(dp1
S'input'
p2
(dp3
S'encoded'
p4
(lp5
I64
aI2179
aI43
aI63
aI134
aI116
aI400
aI21
aI34
aI3
aI260
aI45
aI3439
aI57
aI7
aI2381
asS'ori'
p6
S'This house believes that it is sometimes right for the government to restrict freedom of speech'
p7
ssS'output'
p8
(dp9
g4
(lp10
I3
aI7179
aI7
aI5969
aI5
aI2466
aI7
aI5855
aI4933
aI2784
aI4228
aI3
aI1592
aI1074
aI4226
aI4583
aI11389
aI3271
aI6242
aI2554
aI2812
aI73
aI17
aI5304
aI5231
aI8803
aI12507
aI3485
aI12461
aI2382
aI4930
aI1361
aI3905
aI3657
aI5
aI314
aI63765
asg6
S'The Promotion of Equality and Prevention of Unfair Discrimination Act  2000 contains the following clause:The "prohibited grounds" include race  gender  sex  pregnancy  marital status  ethnic or social origin  colour  sexual orientation  age  disability  religion  conscience  belief  culture  language and birth .'
p11
ss.