(dp1
S'input'
p2
(dp3
S'encoded'
p4
(lp5
I64
aI2179
aI394
aI2017
aI3807
aI314
aI3433
asS'ori'
p6
S'This house would ban partial birth abortions'
p7
ssS'output'
p8
(dp9
g4
(lp10
I3257
aI417
aI316
aI976
aI24
aI223
aI3717
asg6
S'abortion should be legal in all circumstances'
p11
ss.