(dp1
S'input'
p2
(dp3
S'encoded'
p4
(lp5
I64
aI2179
aI43
aI63
aI3
aI4990
aI4991
aI116
aI4850
aI24
aI12166
aI3
aI475
aI7
aI3532
aI3290
aI7
aI4714
asS'ori'
p6
S'This house believes that the Catholic Church is justified in forbidding the use of barrier methods of contraception'
p7
ssS'output'
p8
(dp9
g4
(lp10
I14
aI492
aI24
aI4044
aI63765
aI9862
aI42
aI221
aI51
aI11047
aI34
aI3315
aI11389
aI4562
aI14650
aI75
aI3
aI6246
aI24
aI1005
aI63765
asg6
S"On 19 July  in St . Mary's Cathedral  he made an apology for child sex abuse perpetrated by the clergy in Australia  ."
p11
ss.