(dp1
S'input'
p2
(dp3
S'encoded'
p4
(lp5
I64
aI2179
aI394
aI16756
aI20435
asS'ori'
p6
S'This house would criminalize blasphemy'
p7
ssS'output'
p8
(dp9
g4
(lp10
I61696
aI440
aI5541
aI63
aI3
aI29476
aI1076
aI29817
aI260
aI394
aI3518
aI20435
aI2511
aI63765
asg6
S"Bhatti had promised that the Asif Ali Zardari government would review Pakistan's blasphemy laws  ."
p11
ss.