(dp1
S'input'
p2
(dp3
S'encoded'
p4
(lp5
I64
aI2179
aI43
aI63
aI2203
aI60
aI51
aI997
aI2837
aI21716
aI1636
aI5349
aI417
aI2998
aI8532
aI45
aI3051
aI8578
asS'ori'
p6
S'This house believes that countries with an imbalanced male/female ratio skewed towards males should encourage parents to produce girls'
p7
ssS'output'
p8
(dp9
g4
(lp10
I2068
aI11608
aI55
aI174
aI3402
aI3
aI74
aI7
aI1462
aI89
aI17816
aI7
aI2604
aI17
aI2202
aI63
aI1466
aI3
aI1999
aI7
aI7166
aI654
aI24
aI2390
aI63765
asg6
S'Recent scholarship has also emphasized the necessity of understanding a myriad of complex social relations that affect the meaning of informed consent in China  .'
p11
ss.