(dp1
S'input'
p2
(dp3
S'encoded'
p4
(lp5
I64
aI2179
aI394
aI60
aI23587
asS'ori'
p6
S'This house would re-engage with Myanmar'
p7
ssS'output'
p8
(dp9
g4
(lp10
I3
aI11972
aI7
aI35700
aI7477
aI174
aI937
aI51
aI845
aI291
aI6064
aI5
aI3118
aI63765
asg6
S'The fate of Rohingya refugees also remains an issue between Bangladesh and Burma  .'
p11
ss.