(dp1
S'input'
p2
(dp3
S'encoded'
p4
(lp5
I64
aI2179
aI394
aI60
aI23587
asS'ori'
p6
S'This house would re-engage with Myanmar'
p7
ssS'output'
p8
(dp9
g4
(lp10
I2145
aI50637
aI41477
aI5
aI2145
aI138
aI25738
aI267
aI2789
aI7
aI3
aI50590
aI9140
aI2180
aI24
aI50638
aI15214
aI382
aI11201
aI45
aI869
aI5
aI2642
aI2439
aI226
aI97
aI171
aI2544
aI19
aI50639
aI15214
aI2145
aI50610
aI50536
aI116
aI793
aI3516
aI63765
asg6
S'U Htun Kyi and U Than Pe  two members of the NLD organising committee in Sandoway township  were sentenced to four and half years  while another party member from Gwa township  U Sein Kyaw  is standing trial .'
p11
ss.