(dp1
S'input'
p2
(dp3
S'encoded'
p4
(lp5
I64
aI2179
aI43
aI223
aI2138
aI11
aI89
aI21
aI45
aI2185
aI372
asS'ori'
p6
S'This house believes all nations have a right to nuclear weapons'
p7
ssS'output'
p8
(dp9
g4
(lp10
I3409
aI188
aI171
aI2164
aI11538
aI11539
aI122
aI2990
aI1405
aI2161
aI24
aI2394
aI89
aI4728
aI366
aI2390
aI3611
aI211
aI2185
aI372
aI5201
aI60
aI89
aI3274
aI63765
asg6
S'Liberal Democratic Party (LDP) President Eisaku Sato was elected Prime Minister in December 1964 (only a month after China revealed its nuclear weapons capability with a test explosion) .'
p11
ss.