(dp1
S'input'
p2
(dp3
S'encoded'
p4
(lp5
I64
aI2179
aI43
aI63
aI3
aI4990
aI4991
aI116
aI4850
aI24
aI12166
aI3
aI475
aI7
aI3532
aI3290
aI7
aI4714
asS'ori'
p6
S'This house believes that the Catholic Church is justified in forbidding the use of barrier methods of contraception'
p7
ssS'output'
p8
(dp9
g4
(lp10
I5
aI226
aI149
aI1335
aI18884
aI7332
aI463
aI316
aI36057
aI5
aI87
aI382
aI136
aI10346
aI89
aI8030
aI12027
aI24
aI1273
aI1727
aI63765
asg6
S'And while less comfortable  older-style rubber condoms could be reused and so were more economical  a valued feature in hard times  .'
p11
ss.