(dp1
S'input'
p2
(dp3
S'encoded'
p4
(lp5
I64
aI2179
aI43
aI63
aI3
aI4991
aI7
aI180
aI417
aI316
aI5396
aI19
aI3
aI169
aI10
asS'ori'
p6
S'This house believes that the Church of England should be separated from the British state'
p7
ssS'output'
p8
(dp9
g4
(lp10
I3
aI4927
aI7
aI6080
aI4580
aI19
aI697
aI6080
aI4363
aI75
aI89
aI2475
aI45
aI51
aI878
aI2382
aI60
aI697
aI4042
aI7
aI3
aI1485
aI7
aI351
aI248
aI2382
aI41
aI24
aI3
aI6109
aI63765
asg6
S'The degree of separation varies from total separation mandated by a constitution  to an official religion with total prohibition of the practice of any other religion  as in the Maldives .'
p11
ss.