(dp1
S'input'
p2
(dp3
S'encoded'
p4
(lp5
I64
aI2179
aI394
aI5284
aI150
aI3987
asS'ori'
p6
S'This house would reintroduce national service'
p7
ssS'output'
p8
(dp9
g4
(lp10
I42
aI116
aI174
aI89
aI2543
aI2544
aI7
aI3
aI4330
aI3386
aI15677
aI63765
asg6
S'He is also a founding member of the Congressional Black Caucus .'
p11
ss.