(dp1
S'input'
p2
(dp3
S'encoded'
p4
(lp5
I64
aI2179
aI43
aI63
aI3376
aI4938
aI417
aI316
aI3537
asS'ori'
p6
S'This house believes that endangered species should be protected'
p7
ssS'output'
p8
(dp9
g4
(lp10
I939
aI4948
aI159
aI41
aI18897
aI33789
aI5
aI33790
aI9349
aI3740
aI5114
aI14
aI7797
aI63765
asg6
S'Popular activities such as gardening  fishkeeping and specimen collecting strongly depend on biodiversity .'
p11
ss.