(dp1
S'input'
p2
(dp3
S'encoded'
p4
(lp5
I64
aI2179
aI43
aI223
aI2138
aI11
aI89
aI21
aI45
aI2185
aI372
asS'ori'
p6
S'This house believes all nations have a right to nuclear weapons'
p7
ssS'output'
p8
(dp9
g4
(lp10
I3
aI626
aI2549
aI4068
aI89
aI2185
aI1942
aI24
aI2871
aI63765
asg6
S'The United Kingdom tested a nuclear weapon in October 1952 .'
p11
ss.