(dp1
S'input'
p2
(dp3
S'encoded'
p4
(lp5
I64
aI2179
aI394
aI2773
aI12505
asS'ori'
p6
S'This house would embrace multiculturalism'
p7
ssS'output'
p8
(dp9
g4
(lp10
I226
aI3
aI965
aI1005
aI2136
aI122
aI21709
aI12152
aI366
aI285
aI2223
aI2236
aI75
aI380
aI2438
aI45
aI2610
aI2136
aI3
aI838
aI22
aI578
aI7
aI878
aI189
aI7
aI12505
aI122
aI99
aI487
aI63765
asg6
S'While the White Australia Policy was quietly dismantled after World War II by various changes to immigration policy  the full political introduction of official policies of multiculturalism was not until 1972 .'
p11
ss.