(dp1
S'input'
p2
(dp3
S'encoded'
p4
(lp5
I64
aI2179
aI394
aI1499
aI177
aI1819
aI34
aI160
asS'ori'
p6
S'This house would build high rises for housing'
p7
ssS'output'
p8
(dp9
g4
(lp10
I667
aI3946
aI2676
aI967
aI326
aI24
aI3
aI73
aI87
aI2439
aI1592
aI3
aI312
aI7
aI3
aI1950
aI285
aI2223
aI382
aI3184
aI221
aI588
aI7
aI2132
aI160
aI131
aI725
aI7
aI132
aI11
aI691
aI12
aI1706
aI643
aI45
aI1792
aI3249
aI160
aI1199
aI3
aI217
aI9983
aI4899
aI63765
asg6
S'New towns built across Britain in the 20 or so years following the end of the Second World War were predominantly made up of council housing  but many of these have since been further developed to see private housing become the most frequent accommodation .'
p11
ss.