(dp1
S'input'
p2
(dp3
S'encoded'
p4
(lp5
I64
aI2179
aI394
aI2773
aI12505
asS'ori'
p6
S'This house would embrace multiculturalism'
p7
ssS'output'
p8
(dp9
g4
(lp10
I24
aI3031
aI5812
aI496
aI14850
aI174
aI416
aI3
aI11658
aI7
aI5307
aI19853
aI736
aI93
aI1560
aI3905
aI63765
asg6
S'In 1893  historian Frederick Jackson Turner also used the metaphor of immigrants melting into one American culture .'
p11
ss.