(dp1
S'input'
p2
(dp3
S'encoded'
p4
(lp5
I64
aI2179
aI43
aI63
aI134
aI116
aI400
aI21
aI34
aI3
aI260
aI45
aI3439
aI57
aI7
aI2381
asS'ori'
p6
S'This house believes that it is sometimes right for the government to restrict freedom of speech'
p7
ssS'output'
p8
(dp9
g4
(lp10
I1202
aI7
aI1112
aI4331
aI493
aI57
aI7
aI4640
aI182
aI3
aI943
aI7251
aI7
aI7986
aI2041
aI24
aI1561
aI7
aI89
aI3168
aI1047
aI41
aI11642
aI3
aI26
aI8667
aI4331
aI7
aI5834
aI327
aI3
aI8275
aI6075
aI24
aI6410
aI459
aI11643
aI11644
aI5
aI3
aI2050
aI447
aI14
aI57
aI7
aI4640
aI2052
aI75
aI3
aI3151
aI220
aI7
aI3
aI6619
aI2306
aI7
aI2390
aI5
aI942
aI63765
asg6
S'Examples of effective campaigns against freedom of expression are the Soviet suppression of genetics research in favor of a theory known as Lysenkoism  the book burning campaigns of Nazi Germany  the radical anti-intellectualism enforced in Cambodia under Pol Pot  and the strict limits on freedom of expression imposed by the Communist governments of the Peoples Republic of China and Cuba .'
p11
ss.