(dp1
S'input'
p2
(dp3
S'encoded'
p4
(lp5
I64
aI2179
aI394
aI5284
aI150
aI3987
asS'ori'
p6
S'This house would reintroduce national service'
p7
ssS'output'
p8
(dp9
g4
(lp10
I64
aI122
aI2195
aI45
aI16742
aI75
aI2083
aI5462
aI81
aI162
aI382
aI547
aI89
aI77
aI16379
aI7
aI159
aI4277
aI4386
aI3569
aI7
aI314
aI63765
asg6
S'This was subject to validation by local authorities  who usually were allowed a certain contingent of such volunteers per year of birth .'
p11
ss.