(dp1
S'input'
p2
(dp3
S'encoded'
p4
(lp5
I64
aI2179
aI394
aI2017
aI628
asS'ori'
p6
S'This house would ban gambling'
p7
ssS'output'
p8
(dp9
g4
(lp10
I89
aI939
aI399
aI7
aI64
aI116
aI3
aI3960
aI53
aI3
aI18024
aI5718
aI63
aI3
aI439
aI47
aI316
aI7
aI3
aI7619
aI63765
asg6
S'A popular form of this is the "5050" draw where the organizers promise that the prize will be 50% of the revenue .'
p11
ss.