(dp1
S'input'
p2
(dp3
S'encoded'
p4
(lp5
I64
aI2179
aI235
aI3
aI2136
aI7
aI3
aI2306
aI7
aI2390
asS'ori'
p6
S'This house supports the one-child policy of the republic of China'
p7
ssS'output'
p8
(dp9
g4
(lp10
I16983
aI3909
aI3
aI4644
aI7
aI3
aI2206
aI4330
aI7632
aI11151
aI75
aI3
aI9721
aI9722
aI11
aI12
aI17121
aI63765
asg6
S'Monks celebrating the reception of the US Congressional Gold Medal by the Dalai Lama have been detained  .'
p11
ss.