(dp1
S'input'
p2
(dp3
S'encoded'
p4
(lp5
I64
aI2179
aI394
aI9385
aI2497
aI447
aI14
aI3
aI3578
aI5721
aI7
aI260
asS'ori'
p6
S'This house would enforce term limits on the legislative branch of government'
p7
ssS'output'
p8
(dp9
g4
(lp10
I2497
aI447
aI1466
aI29640
aI773
aI89
aI63
aI17363
aI4599
aI251
aI63765
asg6
S"Term limits won't affect gridlock  being a quick-fix that ignores complicated problems ."
p11
ss.