(dp1
S'input'
p2
(dp3
S'encoded'
p4
(lp5
I64
aI2179
aI394
aI2017
aI3807
aI314
aI3433
asS'ori'
p6
S'This house would ban partial birth abortions'
p7
ssS'output'
p8
(dp9
g4
(lp10
I526
aI41
aI93
aI667
aI4392
aI1377
aI2483
aI707
aI418
aI63765
asg6
S'Furthermore  as one New Jersey Superior Court judge noted   .'
p11
ss.