(dp1
S'input'
p2
(dp3
S'encoded'
p4
(lp5
I64
aI2179
aI43
aI63
aI2157
aI2565
aI493
aI19084
aI382
aI4850
asS'ori'
p6
S"This house believes that Israel's 2008-2009 military operations against Gaza were justified"
p7
ssS'output'
p8
(dp9
g4
(lp10
I2800
aI3601
aI3435
aI89
aI3419
aI3270
aI63
aI3
aI2791
aI4604
aI9621
aI394
aI316
aI89
aI2901
aI4562
aI7
aI3
aI3808
aI63765
asg6
S"UN Watch issued a statement saying that the announced special Council's session would be a gross abuse of the procedures  ."
p11
ss.