(dp1
S'input'
p2
(dp3
S'encoded'
p4
(lp5
I64
aI2179
aI43
aI24
aI3
aI475
aI7
aI12436
aI3364
asS'ori'
p6
S'This house believes in the use of affirmative action'
p7
ssS'output'
p8
(dp9
g4
(lp10
I487
aI768
aI3
aI3728
aI440
aI6521
aI3
aI2211
aI34
aI108
aI873
aI158
aI1530
aI38176
aI63765
asg6
S'Until then  the measure had occupied the Senate for 57 working days  including six Saturdays .'
p11
ss.