(dp1
S'input'
p2
(dp3
S'encoded'
p4
(lp5
I64
aI2179
aI43
aI63
aI1036
aI4828
aI33250
aI116
aI25073
aI45
aI3315
aI4562
asS'ori'
p6
S'This house believes that male infant circumcision is tantamount to child abuse'
p7
ssS'output'
p8
(dp9
g4
(lp10
I378
aI3
aI12716
aI7
aI3
aI2035
aI174
aI418
aI63
aI117
aI7
aI132
aI256
aI416
aI4777
aI73
aI298
aI3
aI3378
aI122
aI3714
aI63765
asg6
S'However  the authors of the follow-up study also noted that only 84% of these programs used anesthetic "frequently or always" when the procedure was conducted  .'
p11
ss.