(dp1
S'input'
p2
(dp3
S'encoded'
p4
(lp5
I64
aI2179
aI394
aI60
aI23587
asS'ori'
p6
S'This house would re-engage with Myanmar'
p7
ssS'output'
p8
(dp9
g4
(lp10
I16983
aI182
aI21182
aI5
aI2031
aI75
aI3
aI9311
aI78
aI63765
asg6
S'Monks are venerated and supported by the lay people .'
p11
ss.