(dp1
S'input'
p2
(dp3
S'encoded'
p4
(lp5
I64
aI2179
aI43
aI63
aI3
aI4990
aI4991
aI116
aI4850
aI24
aI12166
aI3
aI475
aI7
aI3532
aI3290
aI7
aI4714
asS'ori'
p6
S'This house believes that the Catholic Church is justified in forbidding the use of barrier methods of contraception'
p7
ssS'output'
p8
(dp9
g4
(lp10
I508
aI42
aI742
aI63
aI10805
aI116
aI1587
aI63765
aI116
aI413
aI45
aI3779
aI3
aI596
aI7
aI10805
aI24
aI3
aI619
aI7
aI3
aI4670
aI5
aI3
aI6449
aI26350
aI7
aI725
aI4983
aI8790
aI24
aI7712
aI79
asg6
S'" Thus  he said that prayer is "urgently needed . .It is time to reaffirm the importance of prayer in the face of the activism and the growing secularism of many Christians engaged in charitable work ."'
p11
ss.