(dp1
S'input'
p2
(dp3
S'encoded'
p4
(lp5
I64
aI2179
aI394
aI5370
aI7146
aI4585
aI2446
asS'ori'
p6
S'This house would abolish intellectual property rights'
p7
ssS'output'
p8
(dp9
g4
(lp10
I100
aI2203
aI11
aI63
aI1619
aI3
aI3688
aI316
aI13080
aI24
aI3
aI3370
aI134
aI1812
aI63765
asg6
S'Some countries have "working provisions" that require the invention be exploited in the jurisdiction it covers .'
p11
ss.