(dp1
S'input'
p2
(dp3
S'encoded'
p4
(lp5
I64
aI2179
aI394
aI2017
aI628
asS'ori'
p6
S'This house would ban gambling'
p7
ssS'output'
p8
(dp9
g4
(lp10
I3
aI6419
aI220
aI1358
aI4555
aI40
aI7607
aI7601
aI182
aI698
aI63765
asg6
S'The tribal governments determine specifically how gaming revenues are spent .'
p11
ss.