(dp1
S'input'
p2
(dp3
S'encoded'
p4
(lp5
I64
aI2179
aI394
aI2773
aI12505
asS'ori'
p6
S'This house would embrace multiculturalism'
p7
ssS'output'
p8
(dp9
g4
(lp10
I2318
aI2646
aI2625
aI5
aI2769
aI2646
aI2625
aI159
aI41
aI3
aI21521
aI40782
aI5
aI42991
aI182
aI3192
aI24
aI3
aI2823
aI3716
aI11649
aI63765
asg6
S'South Asian Americans and Southeast Asian Americans such as the Vietnamese  Laotians and Cambodians are ignored in the model minority representation  .'
p11
ss.