(dp1
S'input'
p2
(dp3
S'encoded'
p4
(lp5
I64
aI2179
aI43
aI223
aI2138
aI11
aI89
aI21
aI45
aI2185
aI372
asS'ori'
p6
S'This house believes all nations have a right to nuclear weapons'
p7
ssS'output'
p8
(dp9
g4
(lp10
I3
aI17524
aI378
aI174
aI221
aI2010
aI63
aI61
aI2046
aI440
aI2909
aI999
aI24
aI122
aI117
aI1942
aI4537
aI5
aI33532
aI79
aI5
aI2527
aI11695
aI5
aI11695
aI120
aI2738
aI7
aI2185
aI372
aI2419
aI63
aI440
aI99
aI75
aI63
aI957
aI1719
aI12
aI3228
aI45
aI3
aI2961
aI5
aI1199
aI3
aI2195
aI7
aI27120
aI8745
aI63765
asg6
S'The NIE\'s "Key Judgments " however  also made clear that what Iran had actually stopped in 2003 was only "nuclear weapon design and weaponization work and covert uranium conversion-related and uranium enrichment-related work"-namely  those aspects of Iran\'s nuclear weapons effort that had not by that point already been leaked to the press and become the subject of IAEA investigations  .'
p11
ss.