(dp1
S'input'
p2
(dp3
S'encoded'
p4
(lp5
I64
aI2179
aI43
aI63
aI3
aI28431
aI7
aI2157
aI4624
aI75
aI39939
aI27257
aI122
aI4850
asS'ori'
p6
S'This house believes that the leaking of military documents by Anat Kamm was justified'
p7
ssS'output'
p8
(dp9
g4
(lp10
I2652
aI248
aI2023
aI2377
aI5
aI93
aI2224
aI382
aI174
aI5047
aI45
aI11
aI12
aI11166
aI24
aI3
aI1274
aI63765
asg6
S'Seven other Canadian soldiers and one civilian were also reported to have been wounded in the attack  .'
p11
ss.