(dp1
S'input'
p2
(dp3
S'encoded'
p4
(lp5
I64
aI2179
aI394
aI15841
aI2736
asS'ori'
p6
S'This house would disband ASEAN'
p7
ssS'output'
p8
(dp9
g4
(lp10
I2790
aI2343
aI24
aI3123
aI5
aI3118
aI24
aI5
aI6410
aI24
aI63765
asg6
S'Vietnam joined in 1995  Laos and Burma in 1997  and Cambodia in 1999 .'
p11
ss.