(dp1
S'input'
p2
(dp3
S'encoded'
p4
(lp5
I64
aI2179
aI394
aI2017
aI262
asS'ori'
p6
S'This house would ban boxing'
p7
ssS'output'
p8
(dp9
g4
(lp10
I366
aI765
aI3
aI288
aI47
aI789
aI3
aI468
aI5
aI790
aI257
aI42
aI116
aI791
aI45
aI302
aI63765
asg6
S'After counting the referee will observe the fighter  and decide if he is fit to continue .'
p11
ss.