(dp1
S'input'
p2
(dp3
S'encoded'
p4
(lp5
I64
aI2179
aI43
aI63
aI3
aI21
aI45
aI12715
aI417
aI99
aI316
aI2897
asS'ori'
p6
S'This house believes that the right to asylum should not be absolute'
p7
ssS'output'
p8
(dp9
g4
(lp10
I41857
aI26339
aI10275
aI418
aI122
aI174
aI51
aI3889
aI13647
aI24
aI3353
aI79
aI60
aI100
aI1341
aI1418
aI158
aI3
aI9561
aI7
aI3
aI4758
aI7
aI2190
aI5
aI2637
aI53
aI78
aI382
aI9249
aI63765
asg6
S'Combatting bogus colleges  (already noted above)  was also an ongoing theme in enforcement work with some particular successes  including the closure of the "Advanced College of Business and Cultural Studies" where 63 people were arrested  .'
p11
ss.