(dp1
S'input'
p2
(dp3
S'encoded'
p4
(lp5
I64
aI2179
aI43
aI63
aI3
aI4990
aI4991
aI116
aI4850
aI24
aI12166
aI3
aI475
aI7
aI3532
aI3290
aI7
aI4714
asS'ori'
p6
S'This house believes that the Catholic Church is justified in forbidding the use of barrier methods of contraception'
p7
ssS'output'
p8
(dp9
g4
(lp10
I7332
aI73
aI182
aI416
aI45
aI454
aI493
aI39860
aI5
aI416
aI60
aI248
aI274
aI7
aI4714
aI45
aI3204
aI13788
aI1392
aI63765
asg6
S'Condoms (male or female) are used to protect against STIs  and used with other forms of contraception to improve contraceptive effectiveness .'
p11
ss.