(dp1
S'input'
p2
(dp3
S'encoded'
p4
(lp5
I64
aI2179
aI43
aI63
aI187
aI417
aI99
aI16642
aI3
aI6449
aI7
aI3935
asS'ori'
p6
S'This house believes that states should not subsidize the growing of tobacco'
p7
ssS'output'
p8
(dp9
g4
(lp10
I174
aI14833
aI139
aI316
aI344
aI41
aI89
aI5612
aI7
aI58255
aI63765
asg6
S'Also  smoking can be seen as a sort of camaraderie .'
p11
ss.