(dp1
S'input'
p2
(dp3
S'encoded'
p4
(lp5
I64
aI2179
aI43
aI17
aI4941
aI857
aI3211
asS'ori'
p6
S'This house believes social deprivation causes crime'
p7
ssS'output'
p8
(dp9
g4
(lp10
I17
aI10816
aI116
aI51
aI1039
aI545
aI3
aI7834
aI7
aI6362
aI63
aI11648
aI45
aI14632
aI61
aI2210
aI2445
aI4724
aI7768
aI24
aI3
aI2410
aI7
aI17
aI3364
aI17
aI6398
aI5
aI17
aI2764
aI63765
asg6
S'Social phenomenology is an approach within the field of sociology that aims to reveal what role human awareness plays in the production of social action  social situations and social worlds .'
p11
ss.