(dp1
S'input'
p2
(dp3
S'encoded'
p4
(lp5
I64
aI2179
aI43
aI63
aI3376
aI4938
aI417
aI316
aI3537
asS'ori'
p6
S'This house believes that endangered species should be protected'
p7
ssS'output'
p8
(dp9
g4
(lp10
I843
aI998
aI136
aI1413
aI116
aI8088
aI136
aI7456
aI34
aI2188
aI3210
aI63765
asg6
S'Either way  more land is cleared more rapidly for commercial markets .'
p11
ss.