(dp1
S'input'
p2
(dp3
S'encoded'
p4
(lp5
I64
aI2179
aI394
aI163
aI959
aI2042
aI3557
asS'ori'
p6
S'This house would make physical education compulsory'
p7
ssS'output'
p8
(dp9
g4
(lp10
I89
aI905
aI104
aI75
aI5548
aI31609
aI51578
aI34
aI3
aI4325
aI2973
aI63
aI1375
aI1706
aI3364
aI122
aI788
aI16329
aI440
aI3
aI4204
aI45
aI209
aI3
aI150
aI3217
aI3987
aI14443
aI63765
asg6
S"A 2007 report produced by Sir Derek Wanless for the King's Fund warned that unless further action was taken  obesity had the capacity to cripple the National Health Service financially  ."
p11
ss.