(dp1
S'input'
p2
(dp3
S'encoded'
p4
(lp5
I64
aI2179
aI43
aI24
aI3
aI475
aI7
aI12436
aI3364
asS'ori'
p6
S'This house believes in the use of affirmative action'
p7
ssS'output'
p8
(dp9
g4
(lp10
I8036
aI139
aI316
aI4544
aI6867
aI24
aI2287
aI2474
aI41
aI534
aI75
aI3
aI33
aI70
aI7
aI3
aI1565
aI2483
aI7
aI2248
aI73
aI2438
aI24
aI2884
aI2474
aI63765
asg6
S'Updates can be implemented automatically in domestic legislation as required by the case law of the European Court of Justice or changes in EU legislation .'
p11
ss.