(dp1
S'input'
p2
(dp3
S'encoded'
p4
(lp5
I64
aI2179
aI394
aI2017
aI262
asS'ori'
p6
S'This house would ban boxing'
p7
ssS'output'
p8
(dp9
g4
(lp10
I45
aI454
aI3
aI536
aI3
aI484
aI1773
aI15
aI272
aI493
aI3
aI1523
aI7
aI3
aI619
aI60
aI3
aI607
aI1526
aI5
aI1563
aI608
aI63765
asg6
S'To protect the head  the boxer presses both fists against the front of the face with the forearms parallel and facing outwards .'
p11
ss.