(dp1
S'input'
p2
(dp3
S'encoded'
p4
(lp5
I64
aI2179
aI43
aI223
aI2138
aI11
aI89
aI21
aI45
aI2185
aI372
asS'ori'
p6
S'This house believes all nations have a right to nuclear weapons'
p7
ssS'output'
p8
(dp9
g4
(lp10
I24
aI3
aI282
aI2417
aI1886
aI2904
aI122
aI685
aI459
aI3
aI6412
aI7
aI3
aI626
aI2138
aI24
aI128
aI45
aI2998
aI3
aI2891
aI7
aI3
aI2468
aI5139
aI7
aI2185
aI2186
aI124
aI282
aI16849
aI493
aI211
aI3949
aI5
aI9619
aI3
aI3393
aI7
aI934
aI249
aI24
aI211
aI475
aI63765
asg6
S'In 1957  the International Atomic Energy Agency (IAEA) was established under the mandate of the United Nations in order to encourage the development of the peaceful applications of nuclear technology  provide international safeguards against its misuse  and facilitate the application of safety measures in its use .'
p11
ss.