(dp1
S'input'
p2
(dp3
S'encoded'
p4
(lp5
I64
aI2179
aI235
aI3
aI2136
aI7
aI3
aI2306
aI7
aI2390
asS'ori'
p6
S'This house supports the one-child policy of the republic of China'
p7
ssS'output'
p8
(dp9
g4
(lp10
I64
aI50759
aI116
aI1719
aI2645
aI45
aI1495
aI4426
aI5
aI15843
aI24
aI18178
aI7314
aI63765
asg6
S'This overdrafting is already leading to water scarcity and cutbacks in grain harvest .'
p11
ss.