(dp1
S'input'
p2
(dp3
S'encoded'
p4
(lp5
I64
aI2179
aI43
aI63
aI188
aI220
aI417
aI1619
aI4275
aI45
aI713
aI14799
aI7533
aI311
aI3
aI3721
aI5145
asS'ori'
p6
S'This house believes that democratic governments should require voters to present photo identification at the polling station'
p7
ssS'output'
p8
(dp9
g4
(lp10
I7683
aI4408
aI10
aI18215
aI495
aI62561
aI122
aI3507
aI41
aI3270
aI357
aI1453
aI99
aI20304
aI3
aI7684
aI2490
aI520
aI45
aI11
aI89
aI4054
aI413
aI24
aI64
aI4168
asg6
S'Michigan Republican state legislator John Pappageorge was quoted as saying  "If we do not suppress the Detroit vote  we\'re going to have a tough time in this election ."'
p11
ss.