(dp1
S'input'
p2
(dp3
S'encoded'
p4
(lp5
I64
aI2179
aI43
aI63
aI6670
aI546
aI417
aI316
aI89
aI1334
aI3108
aI7
aI4849
aI1886
aI2855
asS'ori'
p6
S'This house believes that wind power should be a primary focus of future energy supply'
p7
ssS'output'
p8
(dp9
g4
(lp10
I89
aI1511
aI6670
aI6677
aI24
aI1005
aI139
aI1476
aI17153
aI2880
aI6694
aI75
aI291
aI5
aI89
aI3569
aI63765
asg6
S'A typical 50-megawatt (MW) wind farm in Australia can reduce greenhouse gas emissions by between 65 000 and 115 000&nbsp;tonnes a year .'
p11
ss.