(dp1
S'input'
p2
(dp3
S'encoded'
p4
(lp5
I64
aI2179
aI43
aI63
aI3376
aI4938
aI417
aI316
aI3537
asS'ori'
p6
S'This house believes that endangered species should be protected'
p7
ssS'output'
p8
(dp9
g4
(lp10
I3
aI237
aI282
aI5018
aI13848
aI24
aI64
aI7834
aI5461
aI19
aI874
aI875
aI24
aI3
aI481
aI5
aI320
aI3
aI2014
aI6669
aI4706
aI24
aI5
aI3
aI2023
aI717
aI2014
aI3
aI2014
aI7
aI47443
aI24
aI63765
asg6
S'The first international academic journals in this field emerged from North America in the late 1970s and early 1980s  the US-based journal Environmental Ethics in 1979 and the Canadian based journal The Trumpeter: Journal of Ecosophy in 1983 .'
p11
ss.