(dp1
S'input'
p2
(dp3
S'encoded'
p4
(lp5
I64
aI2179
aI43
aI63
aI323
aI417
aI10009
aI211
aI9035
aI249
aI45
aI3426
aI211
aI2144
aI595
aI17
aI96
asS'ori'
p6
S'This house believes that Europe should weaken its austerity measures to guarantee its citizens greater social support'
p7
ssS'output'
p8
(dp9
g4
(lp10
I3
aI1848
aI24
aI8911
aI19
aI1565
aI7160
aI45
aI1565
aI9375
aI55
aI12
aI93
aI2035
aI353
aI63
aI3
aI658
aI7337
aI7
aI6095
aI45
aI2135
aI220
aI158
aI7337
aI45
aI3
aI7180
aI5140
aI5
aI7337
aI620
aI3
aI9524
aI2322
aI75
aI19
aI45
aI291
aI425
aI5
aI2555
aI63765
asg6
S'" The shift in liabilities from European banks to European taxpayers has been staggering: one study found that the public debt of Greece to foreign governments  including debt to the EU/IMF loan facility and debt through the eurosystem  increased by 130bn  from 47 .8bn to 180 .5bn  between January 2010 and September 2011  .'
p11
ss.