(dp1
S'input'
p2
(dp3
S'encoded'
p4
(lp5
I64
aI2179
aI43
aI223
aI2138
aI11
aI89
aI21
aI45
aI2185
aI372
asS'ori'
p6
S'This house believes all nations have a right to nuclear weapons'
p7
ssS'output'
p8
(dp9
g4
(lp10
I11
aI353
aI11712
aI7
aI2146
aI22077
aI11695
aI131
aI134
aI116
aI99
aI2010
aI257
aI64
aI116
aI11950
aI19
aI33543
aI63
aI440
aI12
aI2623
aI353
aI2841
aI73
aI4722
aI667
aI742
aI93
aI24961
aI1102
aI45
aI3
aI2800
aI282
aI2417
aI1886
aI2904
aI63765
asg6
S'"They have found particles of highly enriched uranium [HEU]  but it is not clear if this is contamination from centrifuges that had been previously found [from imported material] or something new " said one diplomat close to the UN International Atomic Energy Agency (IAEA) .'
p11
ss.