(dp1
S'input'
p2
(dp3
S'encoded'
p4
(lp5
I64
aI2179
aI43
aI63
aI134
aI116
aI400
aI21
aI34
aI3
aI260
aI45
aI3439
aI57
aI7
aI2381
asS'ori'
p6
S'This house believes that it is sometimes right for the government to restrict freedom of speech'
p7
ssS'output'
p8
(dp9
g4
(lp10
I23887
aI3172
aI63
aI3
aI43577
aI3447
aI7
aI4640
aI116
aI534
aI45
aI1579
aI3384
aI45
aI271
aI8050
aI447
aI958
aI138
aI3
aI447
aI7
aI17
aI10578
aI63765
asg6
S'" Mill argues that the fullest liberty of expression is required to push arguments to their logical limits  rather than the limits of social embarrassment .'
p11
ss.