(dp1
S'input'
p2
(dp3
S'encoded'
p4
(lp5
I64
aI2179
aI394
aI2773
aI12505
asS'ori'
p6
S'This house would embrace multiculturalism'
p7
ssS'output'
p8
(dp9
g4
(lp10
I5
aI24
aI3
aI5203
aI6426
aI3672
aI182
aI3
aI2511
aI5
aI4358
aI24
aI2390
aI342
aI325
aI3236
aI45
aI271
aI5251
aI24
aI448
aI63765
asg6
S'And In the classroom  Chinese professors are the laws and authorities; Students in China show great respect to their teachers in general .'
p11
ss.