(dp1
S'input'
p2
(dp3
S'encoded'
p4
(lp5
I64
aI2179
aI43
aI63
aI2157
aI2565
aI493
aI19084
aI382
aI4850
asS'ori'
p6
S"This house believes that Israel's 2008-2009 military operations against Gaza were justified"
p7
ssS'output'
p8
(dp9
g4
(lp10
I2157
aI416
aI2940
aI45
aI9530
aI3180
aI7
aI10129
aI1274
aI5
aI45
aI17701
aI63
aI6766
aI382
aI11944
aI751
aI1687
aI63765
asg6
S"Israel's military used low-explosive missiles to warn civilians of imminent attack and to verify that buildings were evacuated before attacks  ."
p11
ss.