(dp1
S'input'
p2
(dp3
S'encoded'
p4
(lp5
I64
aI2179
aI13605
aI2258
aI45
aI2194
asS'ori'
p6
S'This house prefers trade to aid'
p7
ssS'output'
p8
(dp9
g4
(lp10
I64
aI399
aI7
aI1649
aI19
aI2696
aI9375
aI45
aI8678
aI116
aI24
aI351
aI33
aI958
aI5170
aI5
aI3
aI979
aI4423
aI88
aI652
aI2410
aI34
aI2083
aI2835
aI113
aI24
aI57872
aI63765
asg6
S'This form of transfer from high-income country taxpayers to low-income consumers is in any case rather inefficient  and the lower prices may harm production for local consumption even in NFIDCs .'
p11
ss.