(dp1
S'input'
p2
(dp3
S'encoded'
p4
(lp5
I64
aI2179
aI394
aI16756
aI20435
asS'ori'
p6
S'This house would criminalize blasphemy'
p7
ssS'output'
p8
(dp9
g4
(lp10
I1792
aI174
aI2924
aI7
aI2352
aI4212
aI24
aI3
aI15563
aI63765
asg6
S'See also List of capital crimes in the Torah .'
p11
ss.