(dp1
S'input'
p2
(dp3
S'encoded'
p4
(lp5
I64
aI2179
aI394
aI5370
aI7146
aI4585
aI2446
asS'ori'
p6
S'This house would abolish intellectual property rights'
p7
ssS'output'
p8
(dp9
g4
(lp10
I211
aI217
aI2759
aI3727
aI57897
aI2549
aI57898
aI3520
aI2204
aI16955
aI3520
aI1118
aI5
aI2204
aI89
aI63765
aI57899
aI382
aI12636
aI5
aI16192
aI5
aI134
aI122
aI174
aI2031
aI75
aI8275
aI5019
aI8928
aI480
aI70
aI2478
aI6834
aI382
aI2853
aI63
aI7156
aI382
aI29072
aI5
aI14170
aI63765
asg6
S'Its most prominent activists - Isambard Kingdom Brunel  William Robert Grove  William Armstrong and Robert A . MacFie - were inventors and entrepreneurs  and it was also supported by radical laissez-faire economists (The Economist published anti-patent views)  law scholars  scientists (who were concerned that patents were obstructing research) and manufacturers  .'
p11
ss.