(dp1
S'input'
p2
(dp3
S'encoded'
p4
(lp5
I64
aI2179
aI394
aI5370
aI223
aI4013
aI10440
aI2446
aI4881
aI75
aI14482
aI11004
asS'ori'
p6
S'This house would abolish all collective bargaining rights claimed by trades unions'
p7
ssS'output'
p8
(dp9
g4
(lp10
I2409
aI14146
aI22986
aI89
aI1485
aI63
aI155
aI4918
aI47825
aI24
aI92
aI12616
aI14146
aI182
aI534
aI75
aI3
aI2489
aI24
aI271
aI4600
aI45
aI1633
aI3
aI23252
aI3477
aI7
aI248
aI11004
aI63765
asg6
S'Industrial unionists decry a practice that they call "union scabbing " in which craft unionists are required by the no-strike clause in their contracts to cross the picket lines of other unions  .'
p11
ss.