(dp1
S'input'
p2
(dp3
S'encoded'
p4
(lp5
I64
aI2179
aI394
aI60
aI23587
asS'ori'
p6
S'This house would re-engage with Myanmar'
p7
ssS'output'
p8
(dp9
g4
(lp10
I1381
aI117
aI89
aI1488
aI12663
aI7
aI3
aI5529
aI382
aI588
aI34
aI89
aI2490
aI3
aI2623
aI1968
aI50590
aI122
aI547
aI45
aI4276
aI5110
aI5
aI750
aI34
aI3
aI237
aI413
aI63765
asg6
S'Although only a small fraction of the seats were up for a vote  the previously illegal NLD was allowed to campaign  run  and win for the first time .'
p11
ss.