(dp1
S'input'
p2
(dp3
S'encoded'
p4
(lp5
I64
aI2179
aI394
aI2773
aI12505
asS'ori'
p6
S'This house would embrace multiculturalism'
p7
ssS'output'
p8
(dp9
g4
(lp10
I3609
aI55
aI8501
aI45
aI10
aI4293
aI15307
aI189
aI60
aI100
aI3985
aI63
aI134
aI55
aI12
aI89
aI5118
aI807
aI63765
asg6
S'Opposition has grown to state sponsored multicultural policies  with some believing that it has been a costly failure  .'
p11
ss.