(dp1
S'input'
p2
(dp3
S'encoded'
p4
(lp5
I64
aI2179
aI43
aI24
aI3
aI475
aI7
aI12436
aI3364
asS'ori'
p6
S'This house believes in the use of affirmative action'
p7
ssS'output'
p8
(dp9
g4
(lp10
I1902
aI273
aI55
aI174
aI12
aI51
aI3226
aI24
aI10250
aI2617
aI291
aI5025
aI5307
aI5
aI5946
aI81
aI11
aI1719
aI3940
aI24
aI3
aI2696
aI34
aI3994
aI63765
asg6
S'Recently  there has also been an increase in racial violence between African immigrants and Blacks who have already lived in the country for generations  .'
p11
ss.