(dp1
S'input'
p2
(dp3
S'encoded'
p4
(lp5
I64
aI2179
aI394
aI475
aI2135
aI2194
aI6198
aI45
aI2041
aI5
aI13926
aI8732
aI63
aI1735
aI12708
aI5
aI5599
aI24
aI2203
aI45
aI1397
aI7149
aI5
aI12311
aI271
aI5119
aI4948
asS'ori'
p6
S'This house would use foreign aid funds to research and distribute software that allows bloggers and journalists in non-democratic countries to evade censorship and conceal their online activities'
p7
ssS'output'
p8
(dp9
g4
(lp10
I211
aI6036
aI3819
aI63
aI1354
aI7
aI3
aI14184
aI357
aI2822
aI45
aI4205
aI5
aI311
aI3218
aI38307
aI22862
aI89
aI13963
aI11199
aI63
aI394
aI9138
aI3
aI3661
aI7
aI24314
aI19296
aI63765
asg6
S'Its worth nothing that none of the developers we spoke to  individually and at our convening  foresaw a silver bullet that would solve the problem of filtering circumvention .'
p11
ss.