(dp1
S'input'
p2
(dp3
S'encoded'
p4
(lp5
I64
aI2179
aI43
aI24
aI3
aI475
aI7
aI12436
aI3364
asS'ori'
p6
S'This house believes in the use of affirmative action'
p7
ssS'output'
p8
(dp9
g4
(lp10
I3073
aI14
aI2179
aI4423
aI5
aI2270
aI2368
aI12997
aI19
aI2463
aI63
aI24
aI3
aI398
aI12537
aI122
aI89
aI8942
aI7
aI4013
aI3089
aI788
aI75
aI5948
aI45
aI13551
aI5946
aI19
aI271
aI15794
aI63765
asg6
S'Data on house prices and attitudes toward integration from suggest that in the mid-20th century  segregation was a product of collective actions taken by whites to exclude blacks from their neighborhoods  .'
p11
ss.