(dp1
S'input'
p2
(dp3
S'encoded'
p4
(lp5
I64
aI2179
aI43
aI63
aI6670
aI546
aI417
aI316
aI89
aI1334
aI3108
aI7
aI4849
aI1886
aI2855
asS'ori'
p6
S'This house believes that wind power should be a primary focus of future energy supply'
p7
ssS'output'
p8
(dp9
g4
(lp10
I41
aI7
aI2871
aI273
aI382
aI6670
aI6738
aI24
aI1005
aI217
aI7
aI92
aI440
aI5109
aI7
aI19
aI45
aI16403
aI63765
asg6
S'As of October 2010  there were 52 wind farms in Australia  most of which had turbines of from 1 .5 to 3 megawatts (MW) .'
p11
ss.