(dp1
S'input'
p2
(dp3
S'encoded'
p4
(lp5
I64
aI2179
aI394
aI4325
aI2042
aI270
aI89
aI11605
aI3324
asS'ori'
p6
S'This house would fund education using a voucher scheme'
p7
ssS'output'
p8
(dp9
g4
(lp10
I24
aI51
aI3625
aI60
aI1935
aI46808
aI14
aI88
aI2714
aI742
aI63765
aI5603
aI89
aI2034
aI3964
aI3661
aI589
aI3
aI285
aI63765
asg6
S'In an interview with NBC\'s Tim Russert on May 4  2008  Obama said  " . .we\'ve got a serious food problem around the world .'
p11
ss.