(dp1
S'input'
p2
(dp3
S'encoded'
p4
(lp5
I64
aI2179
aI235
aI3
aI2136
aI7
aI3
aI2306
aI7
aI2390
asS'ori'
p6
S'This house supports the one-child policy of the republic of China'
p7
ssS'output'
p8
(dp9
g4
(lp10
I3862
aI60
aI165
aI1478
aI15481
aI767
aI73
aI136
aI88
aI174
aI11
aI89
aI570
aI3874
aI3216
aI45
aI117
aI3862
aI63765
asg6
S'Children with much older siblings (generally ten or more years) may also have a similar family environment to only children .'
p11
ss.