(dp1
S'input'
p2
(dp3
S'encoded'
p4
(lp5
I64
aI2179
aI43
aI63
aI1036
aI4828
aI33250
aI116
aI25073
aI45
aI3315
aI4562
asS'ori'
p6
S'This house believes that male infant circumcision is tantamount to child abuse'
p7
ssS'output'
p8
(dp9
g4
(lp10
I508
aI155
aI133
aI1756
aI886
aI7579
aI3585
aI4662
aI835
aI1737
aI4962
aI13867
aI63765
asg6
S'Thus  they believe  "the emerging consensus  whereby parental choice holds sway  appears ethically indefensible"  .'
p11
ss.