(dp1
S'input'
p2
(dp3
S'encoded'
p4
(lp5
I64
aI2179
aI394
aI5370
aI3
aI5286
asS'ori'
p6
S'This house would abolish the monarchy'
p7
ssS'output'
p8
(dp9
g4
(lp10
I233
aI45
aI16643
aI351
aI8843
aI7
aI89
aI5489
aI7
aI5286
aI427
aI4618
aI289
aI223
aI7770
aI7
aI89
aI979
aI5489
aI63765
asg6
S'According to protocol any holder of a title of monarchy took precedence over all holders of a lower title .'
p11
ss.