(dp1
S'input'
p2
(dp3
S'encoded'
p4
(lp5
I64
aI2179
aI43
aI63
aI3
aI21
aI45
aI12715
aI417
aI99
aI316
aI2897
asS'ori'
p6
S'This house believes that the right to asylum should not be absolute'
p7
ssS'output'
p8
(dp9
g4
(lp10
I725
aI15664
aI182
aI566
aI60
aI3
aI2904
aI41
aI27988
aI9600
aI2226
aI923
aI158
aI40707
aI40708
aI40709
aI40710
aI5
aI80
aI63765
asg6
S'Many celebrities are associated with the agency as UNHCR Goodwill Ambassadors  currently including Angelina Jolie  Giorgio Armani and others .'
p11
ss.