(dp1
S'input'
p2
(dp3
S'encoded'
p4
(lp5
I64
aI2179
aI43
aI63
aI2157
aI2565
aI493
aI19084
aI382
aI4850
asS'ori'
p6
S"This house believes that Israel's 2008-2009 military operations against Gaza were justified"
p7
ssS'output'
p8
(dp9
g4
(lp10
I2388
aI24
aI1906
aI2017
aI440
aI5523
aI89
aI11995
aI1274
aI7233
aI19
aI89
aI19084
aI2240
aI63765
asg6
S'Earlier  in November 2007  Ban had condemned a rocket attack launched from a UN-run Gaza school  .'
p11
ss.