(dp1
S'input'
p2
(dp3
S'encoded'
p4
(lp5
I64
aI2179
aI43
aI63
aI6670
aI546
aI417
aI316
aI89
aI1334
aI3108
aI7
aI4849
aI1886
aI2855
asS'ori'
p6
S'This house believes that wind power should be a primary focus of future energy supply'
p7
ssS'output'
p8
(dp9
g4
(lp10
I34
aI89
aI1488
aI4450
aI1344
aI3981
aI45
aI3051
aI693
aI589
aI3
aI5084
aI116
aI233
aI45
aI3
aI1860
aI291
aI5
aI63765
asg6
S'For a small household plant capable to produce typically around 3 MWh/year the cost is according to the location between 400 and 700 /MWh .'
p11
ss.