(dp1
S'input'
p2
(dp3
S'encoded'
p4
(lp5
I64
aI2179
aI394
aI16756
aI20435
asS'ori'
p6
S'This house would criminalize blasphemy'
p7
ssS'output'
p8
(dp9
g4
(lp10
I24
aI42
aI15691
aI89
aI20895
aI24
aI207
aI8395
aI3881
aI5
aI1442
aI864
aI1260
aI8636
aI3600
aI273
aI63765
asg6
S'In 1928 he rented a storefront in Little Rock  Arkansas  and gave out free atheist literature there .'
p11
ss.