(dp1
S'input'
p2
(dp3
S'encoded'
p4
(lp5
I64
aI2179
aI43
aI63
aI1036
aI4828
aI33250
aI116
aI25073
aI45
aI3315
aI4562
asS'ori'
p6
S'This house believes that male infant circumcision is tantamount to child abuse'
p7
ssS'output'
p8
(dp9
g4
(lp10
I3
aI3702
aI2100
aI350
aI63
aI33250
aI2566
aI100
aI2015
aI63
aI3
aI3099
aI394
aI316
aI1856
aI45
aI10009
aI3
aI1362
aI7
aI3
aI3315
aI60
aI25
aI3459
aI81
aI3740
aI14037
aI45
aI33250
aI252
aI2015
aI63
aI3
aI3315
aI88
aI316
aI2195
aI45
aI15364
aI75
aI25
aI15072
aI41
aI3
aI1914
aI93
aI864
aI5
aI63
aI3
aI3099
aI876
aI4844
aI1476
aI8803
aI15620
aI75
aI7554
aI5359
aI100
aI4763
aI13153
aI113
aI114
aI23064
aI33218
aI6874
aI876
aI316
aI748
aI63765
asg6
S'The reasoning included evidence that circumcision carried some medical risk; that the operation would be likely to weaken the relationship of the child with his mother  who strongly objected to circumcision without medical necessity; that the child may be subject to ridicule by his peers as the odd one out and that the operation might irreversibly reduce sexual pleasure  by permanently removing some sensory nerves  even though cosmetic foreskin restoration might be possible .'
p11
ss.