(dp1
S'input'
p2
(dp3
S'encoded'
p4
(lp5
I64
aI2179
aI13605
aI2258
aI45
aI2194
asS'ori'
p6
S'This house prefers trade to aid'
p7
ssS'output'
p8
(dp9
g4
(lp10
I3
aI2800
aI174
aI7513
aI3
aI7514
aI7
aI5025
aI187
aI604
aI3
aI6578
aI7515
aI595
aI4925
aI138
aI351
aI248
aI2654
aI63765
asg6
S'The UN also lowers the ranking of African states because the continent sees greater inequality than any other region .'
p11
ss.