(dp1
S'input'
p2
(dp3
S'encoded'
p4
(lp5
I64
aI2179
aI394
aI190
aI3
aI21
aI45
aI3895
aI834
asS'ori'
p6
S'This house would limit the right to bear arms'
p7
ssS'output'
p8
(dp9
g4
(lp10
I3
aI1334
aI2145
aI63765
aI2482
aI2483
aI1950
aI3264
aI3052
aI1074
aI19884
aI646
aI63765
aI51826
aI626
aI187
aI646
aI63765
aI4505
aI3337
aI7
aI3373
aI646
aI63765
aI3898
aI5
aI22821
aI646
aI63765
aI4248
aI63765
asg6
S'The primary U .S . Supreme Court Second Amendment cases include Robertson v . Baldwin  (1897); United States v . Miller  (1939); District of Columbia v . Heller  (2008); and McDonald v . Chicago (2010) .'
p11
ss.