(dp1
S'input'
p2
(dp3
S'encoded'
p4
(lp5
I64
aI2179
aI13605
aI2258
aI45
aI2194
asS'ori'
p6
S'This house prefers trade to aid'
p7
ssS'output'
p8
(dp9
g4
(lp10
I3
aI68
aI63
aI9322
aI11
aI2340
aI588
aI45
aI132
aI2438
aI24
aI17882
aI32
aI3
aI17966
aI89
aI22
aI17974
aI138
aI89
aI9300
aI17975
aI45
aI831
aI19
aI2190
aI41
aI8895
aI45
aI89
aI667
aI998
aI7
aI108
aI1544
aI63765
asg6
S'The fact that ministers have signed up to these changes in Accra makes the AAA a political documentrather than a technocratic prescription to move from business as usual to a new way of working together .'
p11
ss.