(dp1
S'input'
p2
(dp3
S'encoded'
p4
(lp5
I64
aI2179
aI43
aI17
aI4941
aI857
aI3211
asS'ori'
p6
S'This house believes social deprivation causes crime'
p7
ssS'output'
p8
(dp9
g4
(lp10
I311
aI3
aI2178
aI126
aI15703
aI3601
aI12585
aI2998
aI78
aI45
aI6970
aI271
aI31287
aI5
aI45
aI905
aI3414
aI4122
aI45
aI3
aI631
aI63765
asg6
S'At the community level  Neighborhood Watch schemes encourage people to monitor their neighbourhoods and to report suspicious incidents to the police .'
p11
ss.