(dp1
S'input'
p2
(dp3
S'encoded'
p4
(lp5
I64
aI2179
aI394
aI1499
aI3
aI8115
aI34564
aI17106
asS'ori'
p6
S'This house would build the Keystone XL pipeline'
p7
ssS'output'
p8
(dp9
g4
(lp10
I153
aI3
aI217
aI10346
aI1869
aI7
aI42127
aI708
aI116
aI75
aI475
aI7
aI17106
aI18266
aI24
aI5147
aI60
aI57214
aI1795
aI5
aI2186
aI45
aI6970
aI3
aI17106
aI63765
asg6
S'Often  the most economical method of corrosion control is by use of pipeline coating in conjunction with cathodic protection and technology to monitor the pipeline .'
p11
ss.