(dp1
S'input'
p2
(dp3
S'encoded'
p4
(lp5
I64
aI2179
aI43
aI63
aI1036
aI4828
aI33250
aI116
aI25073
aI45
aI3315
aI4562
asS'ori'
p6
S'This house believes that male infant circumcision is tantamount to child abuse'
p7
ssS'output'
p8
(dp9
g4
(lp10
I3
aI3492
aI1025
aI34
aI64
aI3378
aI116
aI45
aI9014
aI3
aI1718
aI34
aI44598
aI20244
aI1381
aI3
aI1485
aI55
aI12
aI13448
aI24
aI3
aI2327
aI7
aI37778
aI45
aI3
aI4828
aI63765
asg6
S'The traditional reason for this procedure is to minimize the potential for postoperative complications  although the practice has been implicated in the spreading of herpes to the infant  .'
p11
ss.