(dp1
S'input'
p2
(dp3
S'encoded'
p4
(lp5
I64
aI2179
aI43
aI63
aI6670
aI546
aI417
aI316
aI89
aI1334
aI3108
aI7
aI4849
aI1886
aI2855
asS'ori'
p6
S'This house believes that wind power should be a primary focus of future energy supply'
p7
ssS'output'
p8
(dp9
g4
(lp10
I24
aI3
aI2206
aI187
aI7
aI2300
aI5
aI2298
aI34
aI1343
aI7471
aI873
aI24
aI3424
aI88
aI11
aI982
aI6670
aI1071
aI5
aI177
aI5120
aI3497
aI1021
aI45
aI2674
aI5096
aI63765
asg6
S'In the US states of California and Texas  for example  hot days in summer may have low wind speed and high electrical demand due to air conditioning .'
p11
ss.