(dp1
S'input'
p2
(dp3
S'encoded'
p4
(lp5
I64
aI2179
aI43
aI3
aI626
aI187
aI116
aI1989
aI34
aI3102
aI2223
asS'ori'
p6
S"This house believes the United States is responsible for Mexico's drugs war"
p7
ssS'output'
p8
(dp9
g4
(lp10
I41
aI759
aI7
aI211
aI7074
aI2932
aI2326
aI3
aI626
aI187
aI260
aI923
aI146
aI4136
aI7
aI3189
aI7
aI2666
aI4386
aI3569
aI7
aI2157
aI2194
aI477
aI5
aI1498
aI45
aI2932
aI45
aI405
aI23426
aI159
aI41
aI3
aI3034
aI2218
aI2219
aI7
aI2932
aI92
aI55
aI12
aI5546
aI7
aI773
aI2686
aI24
aI2613
aI3139
aI63765
asg6
S'As part of its Plan Colombia program  the United States government currently provides hundreds of millions of dollars per year of military aid  training  and equipment to Colombia  to fight left-wing guerrillas such as the Revolutionary Armed Forces of Colombia (FARC-EP)  which has been accused of being involved in drug trafficking .'
p11
ss.