(dp1
S'input'
p2
(dp3
S'encoded'
p4
(lp5
I64
aI2179
aI43
aI63
aI3
aI4990
aI4991
aI116
aI4850
aI24
aI12166
aI3
aI475
aI7
aI3532
aI3290
aI7
aI4714
asS'ori'
p6
S'This house believes that the Catholic Church is justified in forbidding the use of barrier methods of contraception'
p7
ssS'output'
p8
(dp9
g4
(lp10
I3
aI1334
aI2879
aI7
aI7446
aI24
aI27774
aI128
aI182
aI35244
aI19489
aI38025
aI25273
aI73
aI8136
aI3
aI20270
aI88
aI174
aI316
aI20997
aI19
aI49756
aI13331
aI5
aI33346
aI63765
asg6
S'The primary sources of infection in ascending order are venereal fluids  saliva  mucosal or skin (particularly the penis)  infections may also be transmitted from feces  urine and sweat  .'
p11
ss.