(dp1
S'input'
p2
(dp3
S'encoded'
p4
(lp5
I64
aI2179
aI43
aI3
aI626
aI187
aI116
aI1989
aI34
aI3102
aI2223
asS'ori'
p6
S"This house believes the United States is responsible for Mexico's drugs war"
p7
ssS'output'
p8
(dp9
g4
(lp10
I75
aI320
aI3
aI2206
aI260
aI5162
aI97
aI2639
aI92
aI47
aI867
aI2368
aI8866
aI6837
aI5
aI6978
aI1498
aI34
aI3
aI1157
aI2157
aI63765
asg6
S'By early 2009 the US government released another $99 million which will go toward buying aircraft and inspection equipment for the Mexican military .'
p11
ss.