(dp1
S'input'
p2
(dp3
S'encoded'
p4
(lp5
I64
aI2179
aI43
aI63
aI3357
aI5003
aI652
aI3
aI188
aI3262
asS'ori'
p6
S'This house believes that opinion polls harm the democratic process'
p7
ssS'output'
p8
(dp9
g4
(lp10
I3
aI4815
aI7
aI3
aI7147
aI463
aI99
aI117
aI4576
aI1191
aI136
aI78
aI45
aI4951
aI75
aI17140
aI78
aI7
aI3
aI4817
aI12905
aI131
aI174
aI4576
aI667
aI12005
aI24
aI63
aI134
aI26230
aI1593
aI5
aI63765
asg6
S'The features of the Internet could not only bring about more people to deliberate by freeing people of the psychological barriers  but also bring new possibilities in that it "makes manageable large-scale  many-to-many discussion and deliberation"  .'
p11
ss.