(dp1
S'input'
p2
(dp3
S'encoded'
p4
(lp5
I64
aI2179
aI394
aI5370
aI7146
aI4585
aI2446
asS'ori'
p6
S'This house would abolish intellectual property rights'
p7
ssS'output'
p8
(dp9
g4
(lp10
I64
aI4462
aI18191
aI351
aI95
aI63
aI182
aI3
aI296
aI7
aI2178
aI13182
aI34
aI1343
aI3920
aI1560
aI21338
aI5
aI912
aI2474
aI98
aI99
aI2728
aI3
aI24224
aI7
aI10070
aI2637
aI5
aI211
aI580
aI63765
asg6
S"This definition excludes any works that are the result of community creativity  for example Native American songs and stories; current legislation does not recognize the uniqueness of indigenous cultural 'property' and its ever-changing nature ."
p11
ss.