(dp1
S'input'
p2
(dp3
S'encoded'
p4
(lp5
I64
aI2179
aI394
aI16642
aI1376
aI5269
asS'ori'
p6
S'This house would subsidize poor communities'
p7
ssS'output'
p8
(dp9
g4
(lp10
I3
aI3524
aI7
aI384
aI17654
aI13438
aI5
aI8175
aI545
aI89
aI2022
aI116
aI174
aI2428
aI45
aI7747
aI45
aI16
aI4925
aI63765
asg6
S'The existence of different genders  races and cultures within a society is also thought to contribute to economic inequality .'
p11
ss.