(dp1
S'input'
p2
(dp3
S'encoded'
p4
(lp5
I64
aI2179
aI394
aI5370
aI3
aI5286
asS'ori'
p6
S'This house would abolish the monarchy'
p7
ssS'output'
p8
(dp9
g4
(lp10
I1592
aI3
aI38312
aI7
aI5802
aI2233
aI24
aI3
aI4317
aI6653
aI3
aI6503
aI5770
aI24
aI797
aI1119
aI44997
aI45
aI3
aI4169
aI6502
aI63765
asg6
S'Following the ousting of Napoleon I in 1814  the Coalition restored the Bourbon Dynasty in pushing Louis XVIII to the French throne .'
p11
ss.