(dp1
S'input'
p2
(dp3
S'encoded'
p4
(lp5
I64
aI2179
aI394
aI16642
aI1376
aI5269
asS'ori'
p6
S'This house would subsidize poor communities'
p7
ssS'output'
p8
(dp9
g4
(lp10
I3874
aI3527
aI159
aI41
aI15437
aI3862
aI5
aI1987
aI86
aI45
aI1453
aI261
aI24
aI2240
aI1068
aI45
aI316
aI6347
aI41
aI261
aI41
aI89
aI1039
aI45
aI13107
aI63765
asg6
S'Family values such as nurturing children and encouraging them to do well in school need to be promoted as well as a non-authoritarian approach to parenting .'
p11
ss.