(dp1
S'input'
p2
(dp3
S'encoded'
p4
(lp5
I64
aI2179
aI43
aI63
aI3
aI21
aI45
aI12715
aI417
aI99
aI316
aI2897
asS'ori'
p6
S'This house believes that the right to asylum should not be absolute'
p7
ssS'output'
p8
(dp9
g4
(lp10
I2445
aI2446
aI3601
aI55
aI403
aI725
aI1106
aI53
aI3
aI5757
aI2157
aI3021
aI11944
aI9759
aI15344
aI2472
aI5
aI1498
aI45
aI881
aI3
aI738
aI7
aI3
aI5329
aI63765
asg6
S'Human Rights Watch has documented many instances where the Turkish military forcibly evacuated villages  destroying houses and equipment to prevent the return of the inhabitants .'
p11
ss.