(dp1
S'input'
p2
(dp3
S'encoded'
p4
(lp5
I64
aI2179
aI394
aI2773
aI12505
asS'ori'
p6
S'This house would embrace multiculturalism'
p7
ssS'output'
p8
(dp9
g4
(lp10
I419
aI1896
aI78
aI9744
aI5
aI3467
aI96
aI3
aI2426
aI7
aI89
aI2148
aI10
aI131
aI22
aI42905
aI55
aI2794
aI3
aI2891
aI7
aI282
aI3135
aI70
aI5
aI3
aI15522
aI7
aI3
aI2554
aI7
aI150
aI6349
aI63765
asg6
S'Very few people openly and explicitly support the establishment of a global state  but political cosmopolitanism has influenced the development of international criminal law  and the erosion of the status of national sovereignty .'
p11
ss.