(dp1
S'input'
p2
(dp3
S'encoded'
p4
(lp5
I64
aI2179
aI394
aI2017
aI223
aI9058
aI23653
asS'ori'
p6
S'This house would ban all unsustainable logging'
p7
ssS'output'
p8
(dp9
g4
(lp10
I11876
aI11
aI12
aI221
aI63
aI136
aI138
aI7
aI3
aI3966
aI5
aI1344
aI4938
aI24
aI2769
aI2770
aI463
aI316
aI17734
aI864
aI24
aI3
aI398
aI63765
asg6
S'Predictions have been made that more than 40% of the animal and plant species in Southeast Asia could be wiped out in the 21st century  .'
p11
ss.