(dp1
S'input'
p2
(dp3
S'encoded'
p4
(lp5
I64
aI2179
aI394
aI16642
aI1376
aI5269
asS'ori'
p6
S'This house would subsidize poor communities'
p7
ssS'output'
p8
(dp9
g4
(lp10
I252
aI7399
aI93
aI482
aI147
aI394
aI1199
aI3
aI1608
aI11656
aI5766
asg6
S"without redistribution  one generation's successful individuals would become the next generation's embedded caste"
p11
ss.