(dp1
S'input'
p2
(dp3
S'encoded'
p4
(lp5
I64
aI2179
aI394
aI15841
aI2736
asS'ori'
p6
S'This house would disband ASEAN'
p7
ssS'output'
p8
(dp9
g4
(lp10
I1521
aI19
aI17961
aI5
aI886
aI2739
aI5
aI3539
aI139
aI316
aI27634
aI4635
aI24
aI1809
aI7
aI3
aI6903
aI2233
aI5
aI6903
aI2236
aI63765
asg6
S'Apart from consultations and consensus  ASEANs agenda-setting and decision-making processes can be usefully understood in terms of the so-called Track I and Track II .'
p11
ss.