(dp1
S'input'
p2
(dp3
S'encoded'
p4
(lp5
I64
aI2179
aI235
aI3
aI2136
aI7
aI3
aI2306
aI7
aI2390
asS'ori'
p6
S'This house supports the one-child policy of the republic of China'
p7
ssS'output'
p8
(dp9
g4
(lp10
I24
aI2390
aI4359
aI14761
aI251
aI24
aI1107
aI3862
aI88
aI316
aI33906
aI263
aI207
aI6465
aI5077
aI5
aI3
aI1160
aI7
aI15481
aI55
aI12
aI3196
aI34
aI89
aI696
aI7
aI17
aI27530
aI159
aI41
aI18652
aI5
aI3211
aI63765
asg6
S'In China  perceived behavioral problems in single children may be disparagingly called Little Emperor Syndrome and the lack of siblings has been blamed for a number of social ills such as materialism and crime .'
p11
ss.