(dp1
S'input'
p2
(dp3
S'encoded'
p4
(lp5
I64
aI2179
aI43
aI17
aI4941
aI857
aI3211
asS'ori'
p6
S'This house believes social deprivation causes crime'
p7
ssS'output'
p8
(dp9
g4
(lp10
I17
aI57589
aI3168
aI10096
aI63
aI15794
aI22427
aI60
aI130
aI5
aI16
aI4941
aI1057
aI45
aI952
aI177
aI2722
aI7
aI2598
aI23573
aI63765
asg6
S'Social disorganization theory postulates that neighborhoods plagued with poverty and economic deprivation tend to experience high rates of population turnover  .'
p11
ss.