(dp1
S'input'
p2
(dp3
S'encoded'
p4
(lp5
I64
aI2179
aI43
aI63
aI2659
aI417
aI1690
aI3
aI12048
aI7
aI19084
asS'ori'
p6
S'This house believes that Israel should lift the blockade of Gaza'
p7
ssS'output'
p8
(dp9
g4
(lp10
I12831
aI19261
aI182
aI577
aI604
aI3
aI12831
aI876
aI316
aI19262
aI462
aI5
aI416
aI45
aI1499
aI13560
aI73
aI5143
aI75
aI16619
aI1609
aI134
aI1273
aI34
aI19100
aI5677
aI45
aI10008
aI271
aI13917
aI63765
asg6
S'Tin cans are banned because the tin might be melted down and used to build weaponry or structures by Hamas  making it hard for Gazan farmers to preserve their vegetables  .'
p11
ss.