(dp1
S'input'
p2
(dp3
S'encoded'
p4
(lp5
I64
aI2179
aI43
aI63
aI3
aI21
aI45
aI12715
aI417
aI99
aI316
aI2897
asS'ori'
p6
S'This house believes that the right to asylum should not be absolute'
p7
ssS'output'
p8
(dp9
g4
(lp10
I24
aI3
aI626
aI2549
aI289
aI93
aI24
aI869
aI747
aI45
aI4898
aI51
aI12715
aI20601
aI1795
aI102
aI116
aI13650
aI11
aI3017
aI63
aI64
aI6832
aI4446
aI3
aI3262
aI7
aI13912
aI3215
aI2554
aI116
aI5170
aI73
aI9066
aI63765
asg6
S'In the United Kingdom  over one in four decisions to refuse an asylum seeker protection UK is  Campaigners have suggested that this figure suggests the process of allocation refugee status is inefficient or flawed .'
p11
ss.