(dp1
S'input'
p2
(dp3
S'encoded'
p4
(lp5
I64
aI2179
aI394
aI5370
aI223
aI4013
aI10440
aI2446
aI4881
aI75
aI14482
aI11004
asS'ori'
p6
S'This house would abolish all collective bargaining rights claimed by trades unions'
p7
ssS'output'
p8
(dp9
g4
(lp10
I100
aI2041
aI159
aI41
aI63
aI3714
aI75
aI3
aI28073
aI3172
aI63
aI23808
aI6941
aI1384
aI1796
aI3020
aI5
aI195
aI138
aI120
aI81
aI182
aI99
aI23808
aI63765
asg6
S'Some research  such as that conducted by the ACIRRT  argues that unionized workers enjoy better conditions and wages than those who are not unionized .'
p11
ss.