(dp1
S'input'
p2
(dp3
S'encoded'
p4
(lp5
I64
aI2179
aI394
aI16756
aI20435
asS'ori'
p6
S'This house would criminalize blasphemy'
p7
ssS'output'
p8
(dp9
g4
(lp10
I134
aI122
aI2263
aI63
aI3
aI4035
aI394
aI48
aI45
aI4434
aI13539
aI75
aI5786
aI165
aI675
aI3
aI3550
aI7058
aI493
aI3
aI1075
aI14852
aI63
aI382
aI480
aI24
aI3
aI6880
aI883
aI24
aI63765
asg6
S'It was feared that the film would lead to violent demonstrations by Muslims much like the organized protests against the Jyllands-Posten Muhammad cartoons that were published in the Danish newspaper Jyllands-Posten in 2005  .'
p11
ss.