(dp1
S'input'
p2
(dp3
S'encoded'
p4
(lp5
I64
aI2179
aI43
aI63
aI3
aI4538
aI7
aI4434
aI7793
aI283
aI45
aI3586
aI417
aI316
aI577
asS'ori'
p6
S'This house believes that the sale of violent video games to minors should be banned'
p7
ssS'output'
p8
(dp9
g4
(lp10
I3164
aI9103
aI2938
aI1515
aI75
aI3
aI7793
aI319
aI5938
aI159
aI41
aI3
aI24426
aI9103
aI145
aI24
aI3
aI626
aI187
aI5
aI2547
aI41
aI261
aI41
aI3
aI29232
aI1565
aI319
aI5224
aI9103
aI145
aI24
aI323
aI63
aI182
aI1653
aI311
aI11870
aI8532
aI1191
aI3
aI1486
aI7
aI283
aI271
aI3862
aI182
aI5600
aI182
aI5005
aI45
aI63765
asg6
S'Voluntary rating systems adopted by the video game industry  such as the ESRB rating system in the United States and Canada  as well as the Pan European Game Information (PEGI) rating system in Europe  that are aimed at informing parents about the types of games their children are playing (or are asking to play) .'
p11
ss.