(dp1
S'input'
p2
(dp3
S'encoded'
p4
(lp5
I64
aI2179
aI394
aI16756
aI20435
asS'ori'
p6
S'This house would criminalize blasphemy'
p7
ssS'output'
p8
(dp9
g4
(lp10
I1381
aI3
aI7232
aI11
aI729
aI3344
aI21484
aI41
aI89
aI7214
aI725
aI5786
aI3367
aI63
aI2418
aI24
aI89
aI9995
aI60
aI89
aI15546
aI24812
aI5
aI3
aI2763
aI1101
aI441
aI14
aI3
aI3017
aI89
aI3968
aI291
aI1075
aI5
aI2459
aI63765
asg6
S'Although the artists have denied representing Mohammed as a terrorist  many Muslims felt that "a bomb in a turban  with a lit fuse and the Islamic creed written on the bomb" suggested a connection between Muhammad and terrorism .'
p11
ss.