(dp1
S'input'
p2
(dp3
S'encoded'
p4
(lp5
I64
aI2179
aI394
aI3830
aI3
aI475
aI7
aI9441
aI13132
aI3102
aI24
aI276
aI381
asS'ori'
p6
S'This house would permit the use of performance enhancing drugs in professional sports'
p7
ssS'output'
p8
(dp9
g4
(lp10
I24
aI136
aI2068
aI1727
aI3
aI2330
aI10074
aI5
aI771
aI6645
aI50166
aI3470
aI7
aI25477
aI24
aI3
aI320
aI78
aI7
aI3
aI2696
aI139
aI206
aI23102
aI77
aI1179
aI73
aI8236
aI27452
aI7271
aI223
aI1379
aI252
aI6210
aI18970
aI36255
aI73
aI1437
aI5
aI223
aI3
aI413
aI6909
aI89
aI13181
aI5
aI50167
aI63765
asg6
S'In more recent times  the German missionary and doctor Albert Schweitzer wrote of Gabon in the early 19th century: "The people of the country can  having eaten certain leaves or roots  toil [pagayer] vigorously all day without feeling hungry  thirsty or tired and all the time showing a happiness and gaiety .'
p11
ss.