(dp1
S'input'
p2
(dp3
S'encoded'
p4
(lp5
I64
aI2179
aI394
aI3830
aI3
aI475
aI7
aI9441
aI13132
aI3102
aI24
aI276
aI381
asS'ori'
p6
S'This house would permit the use of performance enhancing drugs in professional sports'
p7
ssS'output'
p8
(dp9
g4
(lp10
I378
aI13922
aI12269
aI382
aI1630
aI45
aI13004
aI3501
aI7
aI3
aI706
aI10141
aI2784
aI24
aI3
aI13922
aI12350
aI708
aI2784
aI7
aI63765
asg6
S'However  anabolic steroids were added to Schedule III of the Controlled Substances Act in the Anabolic Steroid Control Act of 1990  .'
p11
ss.