(dp1
S'input'
p2
(dp3
S'encoded'
p4
(lp5
I64
aI2179
aI43
aI63
aI323
aI417
aI10009
aI211
aI9035
aI249
aI45
aI3426
aI211
aI2144
aI595
aI17
aI96
asS'ori'
p6
S'This house believes that Europe should weaken its austerity measures to guarantee its citizens greater social support'
p7
ssS'output'
p8
(dp9
g4
(lp10
I11588
aI7
aI3
aI2151
aI78
aI2686
aI24
aI3
aI11169
aI2738
aI7
aI3
aI2927
aI49
aI7486
aI24626
aI3
aI136
aI448
aI2117
aI7
aI588
aI45
aI2642
aI89
aI2639
aI24627
aI3283
aI637
aI8583
aI14153
aI81
aI3943
aI155
aI11
aI419
aI212
aI419
aI3446
aI21106
aI493
aI3
aI1030
aI2969
aI63765
asg6
S"Talk of the approximately 1 500 people involved in the militant aspects of the anti-cuts march almost totally eclipsed the more general event of up to half a million peaceable  albeit still angry  protesters who say they have very real  very personal grievances against the government's cuts plans ."
p11
ss.