(dp1
S'input'
p2
(dp3
S'encoded'
p4
(lp5
I64
aI2179
aI394
aI5370
aI223
aI4013
aI10440
aI2446
aI4881
aI75
aI14482
aI11004
asS'ori'
p6
S'This house would abolish all collective bargaining rights claimed by trades unions'
p7
ssS'output'
p8
(dp9
g4
(lp10
I378
aI155
aI500
aI99
aI11
aI868
aI1980
aI45
aI9639
aI271
aI1227
aI5
aI3
aI11004
aI92
aI2586
aI64
aI28020
aI910
aI1435
aI1612
aI63765
asg6
S'However  they did not have enough men to fulfil their needs and the unions which began this trendy movement collapsed quickly .'
p11
ss.