(dp1
S'input'
p2
(dp3
S'encoded'
p4
(lp5
I64
aI2179
aI43
aI63
aI3
aI4990
aI4991
aI116
aI4850
aI24
aI12166
aI3
aI475
aI7
aI3532
aI3290
aI7
aI4714
asS'ori'
p6
S'This house believes that the Catholic Church is justified in forbidding the use of barrier methods of contraception'
p7
ssS'output'
p8
(dp9
g4
(lp10
I19
aI311
aI870
aI3
aI398
aI21152
aI475
aI122
aI71
aI24
aI100
aI976
aI2767
aI5
aI2015
aI15594
aI34
aI3701
aI3
aI1643
aI3398
aI63
aI182
aI575
aI7332
aI1476
aI3
aI11560
aI7
aI3271
aI92
aI100
aI2428
aI4992
aI73
aI224
aI34
aI3
aI155
aI1453
aI99
aI124
aI838
aI1795
aI493
aI7447
aI20997
aI20270
aI226
aI1361
aI24
aI271
aI920
aI2280
aI122
aI2428
aI45
aI2998
aI8803
aI5
aI155
aI182
aI99
aI416
aI1934
aI1021
aI45
aI29037
aI7383
aI73
aI852
aI7
aI25282
aI63765
asg6
S'From at least the 18th century  condom use was opposed in some legal  religious  and medical circles for essentially the same reasons that are given today: condoms reduce the likelihood of pregnancy  which some thought immoral or undesirable for the nation; they do not provide full protection against sexually transmitted infections  while belief in their protective powers was thought to encourage sexual promiscuity; and  they are not used consistently due to inconvenience  expense  or loss of sensation  .'
p11
ss.