(dp1
S'input'
p2
(dp3
S'encoded'
p4
(lp5
I64
aI2179
aI43
aI63
aI2157
aI2565
aI493
aI19084
aI382
aI4850
asS'ori'
p6
S"This house believes that Israel's 2008-2009 military operations against Gaza were justified"
p7
ssS'output'
p8
(dp9
g4
(lp10
I4430
aI7
aI3
aI16299
aI382
aI174
aI416
aI75
aI1528
aI2693
aI5
aI7973
aI75
aI8715
aI73
aI19341
aI13559
aI4503
aI63765
asg6
S'Versions of the Spike were also used by ground units and possibly by helicopters or unmanned aerial vehicles  .'
p11
ss.