(dp1
S'input'
p2
(dp3
S'encoded'
p4
(lp5
I64
aI2179
aI394
aI5370
aI3
aI5286
asS'ori'
p6
S'This house would abolish the monarchy'
p7
ssS'output'
p8
(dp9
g4
(lp10
I399
aI7
aI220
aI88
aI316
aI5337
aI252
aI773
aI513
aI5794
aI159
aI41
aI63
aI7
aI3874
aI3030
aI73
aI22
aI5743
aI24
aI725
aI3049
aI63765
asg6
S'Form of governments may be hereditary without being considered monarchies  such as that of family dictatorships or political families in many democracies  .'
p11
ss.