(dp1
S'input'
p2
(dp3
S'encoded'
p4
(lp5
I64
aI2179
aI394
aI117
aI7428
aI21151
aI34
aI11389
aI2042
aI24
aI4364
asS'ori'
p6
S'This house would only teach abstinence for sex education in schools'
p7
ssS'output'
p8
(dp9
g4
(lp10
I100
aI2767
aI2938
aI4261
aI8803
aI4948
aI291
aI89
aI2007
aI5
aI3739
aI248
aI138
aI89
aI17384
aI7
aI63
aI2007
aI41
aI11
aI24
aI3
aI1257
aI976
aI2938
aI5
aI6217
aI13541
aI63765
asg6
S'Some religious systems prohibit sexual activities between a person and anyone other than a spouse of that person  as have  in the past  legal systems and societal norms .'
p11
ss.