(dp1
S'input'
p2
(dp3
S'encoded'
p4
(lp5
I64
aI2179
aI394
aI117
aI7428
aI21151
aI34
aI11389
aI2042
aI24
aI4364
asS'ori'
p6
S'This house would only teach abstinence for sex education in schools'
p7
ssS'output'
p8
(dp9
g4
(lp10
I20123
aI88
aI1160
aI6029
aI7
aI73
aI3757
aI45
aI1671
aI3290
aI7
aI5377
aI3271
aI41
aI155
aI88
aI316
aI183
aI25542
aI73
aI8525
aI45
aI3742
aI159
aI5224
aI63765
asg6
S'Adolescents may lack knowledge of  or access to  conventional methods of preventing pregnancy  as they may be too embarrassed or frightened to seek such information  .'
p11
ss.