(dp1
S'input'
p2
(dp3
S'encoded'
p4
(lp5
I64
aI2179
aI43
aI63
aI11083
aI10046
aI417
aI316
aI89
aI3135
aI4603
asS'ori'
p6
S'This house believes that Holocaust denial should be a criminal offence'
p7
ssS'output'
p8
(dp9
g4
(lp10
I233
aI45
aI3
aI5851
aI658
aI7795
aI5354
aI20031
aI8344
aI182
aI117
aI13293
aI75
aI5851
aI70
aI257
aI155
aI19358
aI45
aI4933
aI493
aI89
aI1341
aI94
aI63765
asg6
S'According to the Dutch public prosecution office  offensive remarks are only punishable by Dutch law if they equate to discrimination against a particular group  .'
p11
ss.