(dp1
S'input'
p2
(dp3
S'encoded'
p4
(lp5
I64
aI2179
aI43
aI63
aI3
aI21
aI45
aI12715
aI417
aI99
aI316
aI2897
asS'ori'
p6
S'This house believes that the right to asylum should not be absolute'
p7
ssS'output'
p8
(dp9
g4
(lp10
I3
aI457
aI7
aI3
aI6426
aI78
aI311
aI30128
aI1607
aI1191
aI89
aI667
aI3108
aI14
aI3
aI68
aI63
aI3
aI3139
aI7
aI78
aI122
aI2056
aI136
aI138
aI3
aI8043
aI7
aI7479
aI78
aI75
aI41779
aI147
aI134
aI122
aI3
aI2056
aI64
aI6396
aI30270
aI10725
aI3211
aI63765
asg6
S'The deaths of the Chinese people at Dover brought about a new focus on the fact that the trafficking of people was now more than the exploitation of displaced people by opportunistic individuals it was the now  (in this instance Triad based)  organised crime .'
p11
ss.