(dp1
S'input'
p2
(dp3
S'encoded'
p4
(lp5
I64
aI2179
aI43
aI3
aI2206
aI116
aI4850
aI24
aI270
aI972
aI45
aI881
aI187
aI19
aI10443
aI2185
aI372
asS'ori'
p6
S'This house believes the US is justified in using force to prevent states from acquiring nuclear weapons'
p7
ssS'output'
p8
(dp9
g4
(lp10
I3
aI2206
aI1259
aI89
aI5619
aI13278
aI7
aI2185
aI372
aI226
aI2780
aI248
aI2138
aI99
aI45
aI1192
aI86
asg6
S'the US keeps a huge stockpile of nuclear weapons while urging other nations not to get them'
p11
ss.