(dp1
S'input'
p2
(dp3
S'encoded'
p4
(lp5
I64
aI2179
aI43
aI24
aI3
aI475
aI7
aI12436
aI3364
asS'ori'
p6
S'This house believes in the use of affirmative action'
p7
ssS'output'
p8
(dp9
g4
(lp10
I8890
aI10535
aI116
aI3
aI3168
aI63
aI2738
aI7
aI3
aI3665
aI4175
aI2270
aI5
aI685
aI2825
aI7
aI2022
aI1707
aI100
aI10250
aI3136
aI1381
aI99
aI75
aI51
aI26056
aI5050
aI4550
aI63765
asg6
S'Institutional racism is the theory that aspects of the structure  pervasive attitudes  and established institutions of society disadvantage some racial groups  although not by an overtly discriminatory mechanism  .'
p11
ss.