(dp1
S'input'
p2
(dp3
S'encoded'
p4
(lp5
I64
aI2179
aI394
aI2773
aI12505
asS'ori'
p6
S'This house would embrace multiculturalism'
p7
ssS'output'
p8
(dp9
g4
(lp10
I1462
aI5
aI13886
aI34
aI80
aI1721
aI45
aI316
aI1803
aI75
aI3
aI1462
aI7
aI4871
aI5
aI3
aI8298
aI857
aI7
aI4871
aI63765
asg6
S"Understanding and compassion for others seems to be achieved by the understanding of others' suffering and the root causes of suffering ."
p11
ss.