(dp1
S'input'
p2
(dp3
S'encoded'
p4
(lp5
I64
aI2179
aI43
aI63
aI134
aI116
aI400
aI21
aI34
aI3
aI260
aI45
aI3439
aI57
aI7
aI2381
asS'ori'
p6
S'This house believes that it is sometimes right for the government to restrict freedom of speech'
p7
ssS'output'
p8
(dp9
g4
(lp10
I24
aI223
aI3135
aI20505
aI3
aI5546
aI4197
aI1384
aI3
aI21
aI45
aI89
aI17134
aI5
aI658
aI3516
aI45
aI316
aI7166
aI7
aI3
aI521
aI5
aI580
aI7
aI3
aI11218
aI45
aI316
aI2442
aI60
aI25
aI26963
aI5
aI3
aI6002
aI493
aI45
aI11
aI89
aI3557
aI3262
aI34
aI4286
aI6002
aI24
aI25
aI5
aI45
aI11
aI3
aI115
aI7
aI5519
aI34
aI25
aI720
aI63765
asg6
S'In all criminal prosecutions  the accused shall enjoy the right to a speedy and public trial  to be informed of the cause and nature of the accusation  to be confronted with his accusers  and the witnesses against him; to have a compulsory process for obtaining witnesses in his favor; and to have the assistance of counsel for his defense .'
p11
ss.