(dp1
S'input'
p2
(dp3
S'encoded'
p4
(lp5
I64
aI2179
aI394
aI15841
aI2736
asS'ori'
p6
S'This house would disband ASEAN'
p7
ssS'output'
p8
(dp9
g4
(lp10
I3
aI3024
aI7
aI574
aI2696
aI324
aI31794
aI31795
aI7
aI5964
aI174
aI3367
aI3
aI1068
aI45
aI1706
aI16273
aI3
aI2654
aI63765
asg6
S'The leaders of each country  particularly Mahathir Mohamad of Malaysia  also felt the need to further integrate the region .'
p11
ss.