(dp1
S'input'
p2
(dp3
S'encoded'
p4
(lp5
I64
aI2179
aI394
aI2773
aI12505
asS'ori'
p6
S'This house would embrace multiculturalism'
p7
ssS'output'
p8
(dp9
g4
(lp10
I2025
aI7
aI2023
aI12505
aI47
aI174
aI186
aI63
aI2637
aI15282
aI7
aI2812
aI5
aI2767
aI2768
aI13419
aI89
aI595
aI8684
aI45
aI9480
aI22
aI3802
aI5
aI12505
aI116
aI153
aI4673
aI41
aI93
aI7
aI4229
aI17718
aI5
aI89
aI1277
aI4173
aI3996
aI7
aI2023
aI3914
aI63765
asg6
S"Supporters of Canadian multiculturalism will also argue that cultural appreciation of ethnic and religious diversity promotes a greater willingness to tolerate political differences  and multiculturalism is often cited as one of Canada's significant accomplishments and a key distinguishing element of Canadian identity ."
p11
ss.