(dp1
S'input'
p2
(dp3
S'encoded'
p4
(lp5
I64
aI2179
aI43
aI17
aI4941
aI857
aI3211
asS'ori'
p6
S'This house believes social deprivation causes crime'
p7
ssS'output'
p8
(dp9
g4
(lp10
I64
aI2823
aI28034
aI45
aI17
aI5205
aI3168
aI73
aI13913
aI2016
aI24
aI63
aI273
aI182
aI2010
aI956
aI5
aI2141
aI291
aI4285
aI53
aI6029
aI88
aI316
aI2622
aI73
aI3527
aI6075
aI378
aI134
aI116
aI1966
aI63
aI12598
aI4662
aI116
aI99
aI7691
aI24
aI64
aI63765
asg6
S'This model conforms to social learning theory or differential association in that there are clear associations and interaction between criminals where knowledge may be shared  or values enforced  however it is argued that rational choice is not represented in this .'
p11
ss.