(dp1
S'input'
p2
(dp3
S'encoded'
p4
(lp5
I64
aI2179
aI43
aI63
aI3
aI28431
aI7
aI2157
aI4624
aI75
aI39939
aI27257
aI122
aI4850
asS'ori'
p6
S'This house believes that the leaking of military documents by Anat Kamm was justified'
p7
ssS'output'
p8
(dp9
g4
(lp10
I3
aI26
aI440
aI12
aI577
aI24
aI2547
aI691
aI2805
aI34
aI61
aI89
aI4690
aI883
aI1545
aI41
aI5
aI29076
aI5
aI1545
aI75
aI3343
aI448
aI11320
aI41
aI5501
aI9564
aI63765
asg6
S'The book had been banned in Canada since February 1918 for what a Winnipeg newspaper described as "seditious and antiwar statements" and described by Attorney General Gregory as dangerous propaganda  .'
p11
ss.