(dp1
S'input'
p2
(dp3
S'encoded'
p4
(lp5
I64
aI2179
aI43
aI24
aI3
aI475
aI7
aI12436
aI3364
asS'ori'
p6
S'This house believes in the use of affirmative action'
p7
ssS'output'
p8
(dp9
g4
(lp10
I1323
aI50467
aI1136
aI27141
aI1966
aI63
aI397
aI3
aI50468
aI4573
aI24
aI3
aI2653
aI7
aI3
aI398
aI3
aI3920
aI2625
aI382
aI35
aI4218
aI604
aI155
aI440
aI443
aI11641
aI63765
asg6
S'Juan Gines de Sepulveda argued that  during the Valladolid controversy in the middle of the 16th century  the Native Americans were natural slaves because they had no souls .'
p11
ss.