(dp1
S'input'
p2
(dp3
S'encoded'
p4
(lp5
I64
aI2179
aI43
aI63
aI187
aI417
aI99
aI16642
aI3
aI6449
aI7
aI3935
asS'ori'
p6
S'This house believes that states should not subsidize the growing of tobacco'
p7
ssS'output'
p8
(dp9
g4
(lp10
I24
aI3
aI4586
aI7
aI11154
aI9960
aI3
aI4538
aI7
aI3935
aI5
aI11201
aI1980
aI5
aI3495
aI81
aI29900
aI3
aI2017
aI45
aI11
aI271
aI49580
aI35523
aI5
aI271
aI15301
aI49581
aI63765
asg6
S'In 1634 the Patriarch of Moscow forbade the sale of tobacco  and sentenced men and women who flouted the ban to have their nostrils slit and their backs flayed .'
p11
ss.