(dp1
S'input'
p2
(dp3
S'encoded'
p4
(lp5
I64
aI2179
aI43
aI24
aI3
aI475
aI7
aI12436
aI3364
asS'ori'
p6
S'This house believes in the use of affirmative action'
p7
ssS'output'
p8
(dp9
g4
(lp10
I24
aI1028
aI13066
aI5
aI12962
aI3
aI68
aI63
aI3
aI12342
aI116
aI51
aI5125
aI511
aI12342
aI116
aI400
aI3725
aI75
aI3
aI13067
aI13068
aI73
aI13069
aI92
aI1519
aI34
aI3716
aI4015
aI4829
aI13070
aI63765
asg6
S'In job advertisements and descriptions  the fact that the employer is an equal opportunity employer is sometimes indicated by the abbreviations EOE or MFDV which stands for Minority  Female  Disabled  Veteran .'
p11
ss.