(dp1
S'input'
p2
(dp3
S'encoded'
p4
(lp5
I64
aI2179
aI43
aI17
aI4941
aI857
aI3211
asS'ori'
p6
S'This house believes social deprivation causes crime'
p7
ssS'output'
p8
(dp9
g4
(lp10
I233
aI45
aI3
aI17101
aI3
aI413
aI7
aI1379
aI63
aI89
aI3211
aI985
aI98
aI99
aI4793
aI1817
aI14
aI89
aI1379
aI1343
aI257
aI3
aI3862
aI11
aI89
aI1379
aI1295
aI2240
aI3
aI4212
aI47
aI99
aI2723
aI351
aI63765
asg6
S'According to the OJJDP  the time of day that a crime occurs does not differ greatly on a non-school day (for example  if the children have a day off school  the crimes will not occur any earlier) .'
p11
ss.