(dp1
S'input'
p2
(dp3
S'encoded'
p4
(lp5
I64
aI2179
aI43
aI63
aI2157
aI2565
aI493
aI19084
aI382
aI4850
asS'ori'
p6
S"This house believes that Israel's 2008-2009 military operations against Gaza were justified"
p7
ssS'output'
p8
(dp9
g4
(lp10
I24
aI2555
aI89
aI2800
aI4604
aI4160
aI9270
aI75
aI3
aI2318
aI5025
aI2248
aI3866
aI19389
aI104
aI89
aI726
aI905
aI15807
aI15
aI19088
aI13668
aI5
aI6056
aI720
aI2219
aI7
aI2223
aI4212
aI5
aI748
aI4212
aI493
aI7275
aI5
aI3394
aI1804
aI120
aI1989
aI45
aI2248
aI63765
asg6
S'In September 2009  a UN special mission  headed by the South African Justice Richard Goldstone  produced a controversial report accusing both Palestinian militants and Israeli Defense Forces of war crimes and possible crimes against humanity  and recommended bringing those responsible to justice  .'
p11
ss.