(dp1
S'input'
p2
(dp3
S'encoded'
p4
(lp5
I64
aI2179
aI394
aI2773
aI12505
asS'ori'
p6
S'This house would embrace multiculturalism'
p7
ssS'output'
p8
(dp9
g4
(lp10
I725
aI7
aI7239
aI63
aI1026
aI3
aI2497
aI2637
aI2313
aI182
aI4258
aI7166
aI75
aI3
aI79
aI7
aI30681
aI22308
aI742
aI5
aI248
aI30682
aI5
aI30683
aI12007
aI63765
asg6
S"Many of today's academics that employ the term  cultural imperialism  are heavily informed by the work of Foucault  Derrida  Said  and other poststructrualist and postcolonialist theorists ."
p11
ss.