(dp1
S'input'
p2
(dp3
S'encoded'
p4
(lp5
I64
aI2179
aI43
aI63
aI3
aI4538
aI7
aI4434
aI7793
aI283
aI45
aI3586
aI417
aI316
aI577
asS'ori'
p6
S'This house believes that the sale of violent video games to minors should be banned'
p7
ssS'output'
p8
(dp9
g4
(lp10
I233
aI45
aI42349
aI3
aI2994
aI7
aI4434
aI3211
aI24
aI3
aI626
aI187
aI2322
aI1732
aI19
aI45
aI5
aI100
aI78
aI3196
aI63
aI3226
aI14
aI897
aI63765
asg6
S'According to Freedman the rate of violent crime in the United states increased sharply from 1965 to 1980 and some people blamed that increase on media .'
p11
ss.