(dp1
S'input'
p2
(dp3
S'encoded'
p4
(lp5
I64
aI2179
aI43
aI63
aI2157
aI2565
aI493
aI19084
aI382
aI4850
asS'ori'
p6
S"This house believes that Israel's 2008-2009 military operations against Gaza were justified"
p7
ssS'output'
p8
(dp9
g4
(lp10
I3
aI6056
aI19148
aI1634
aI122
aI816
aI165
aI7
aI3
aI639
aI5
aI117
aI4821
aI382
aI1031
aI45
aI9189
aI397
aI3
aI2979
aI63765
asg6
S'The Israeli Erez crossing was closed much of the period and only 30 patients were able to exit during the crisis  .'
p11
ss.