(dp1
S'input'
p2
(dp3
S'encoded'
p4
(lp5
I64
aI2179
aI43
aI63
aI2659
aI417
aI1690
aI3
aI12048
aI7
aI19084
asS'ori'
p6
S'This house believes that Israel should lift the blockade of Gaza'
p7
ssS'output'
p8
(dp9
g4
(lp10
I6056
aI658
aI6881
aI5047
aI63
aI5462
aI440
aI577
aI3
aI897
aI19
aI193
aI351
aI5224
aI1191
aI3
aI5327
aI5
aI11166
aI5
aI81
aI122
aI788
aI45
aI3644
aI24
aI2659
aI63765
asg6
S'" Israeli public radio reported that authorities had banned the media from providing any information about the dead and wounded  and who was taken to hospital in Israel .'
p11
ss.