(dp1
S'input'
p2
(dp3
S'encoded'
p4
(lp5
I64
aI2179
aI43
aI63
aI187
aI417
aI99
aI16642
aI3
aI6449
aI7
aI3935
asS'ori'
p6
S'This house believes that states should not subsidize the growing of tobacco'
p7
ssS'output'
p8
(dp9
g4
(lp10
I149
aI279
aI3102
aI34
aI14833
aI1074
aI3106
aI5
aI3112
aI63765
asg6
S'Less common drugs for smoking include cannabis and opium .'
p11
ss.