(dp1
S'input'
p2
(dp3
S'encoded'
p4
(lp5
I64
aI2179
aI43
aI63
aI2659
aI417
aI1690
aI3
aI12048
aI7
aI19084
asS'ori'
p6
S'This house believes that Israel should lift the blockade of Gaza'
p7
ssS'output'
p8
(dp9
g4
(lp10
I3
aI19097
aI11530
aI657
aI10954
aI1010
aI5
aI891
aI24
aI89
aI24842
aI7
aI2202
aI63765
asg6
S'The raid drew widespread condemnation internationally and resulted in a deterioration of Israel-Turkey relations .'
p11
ss.