(dp1
S'input'
p2
(dp3
S'encoded'
p4
(lp5
I64
aI2179
aI394
aI5370
aI7146
aI4585
aI2446
asS'ori'
p6
S'This house would abolish intellectual property rights'
p7
ssS'output'
p8
(dp9
g4
(lp10
I12717
aI70
aI7224
aI3
aI21
aI7
aI51
aI3698
aI717
aI14
aI755
aI3
aI79
aI2909
aI116
aI51
aI3851
aI4360
aI958
aI138
aI717
aI14
aI755
aI134
aI116
aI267
aI12716
aI88
aI284
aI12717
aI14
aI267
aI1510
aI4375
aI95
aI257
aI134
aI116
aI695
aI63
aI3
aI11872
aI122
aI29198
aI5
aI880
aI122
aI5616
aI19
aI3
aI248
aI63765
asg6
S'Copyright law recognises the right of an author based on whether the work actually is an original creation  rather than based on whether it is unique; two authors may own copyright on two substantially identical works  if it is determined that the duplication was coincidental  and neither was copied from the other .'
p11
ss.