(dp1
S'input'
p2
(dp3
S'encoded'
p4
(lp5
I64
aI2179
aI43
aI63
aI2157
aI2565
aI493
aI19084
aI382
aI4850
asS'ori'
p6
S"This house believes that Israel's 2008-2009 military operations against Gaza were justified"
p7
ssS'output'
p8
(dp9
g4
(lp10
I14
aI3
aI1643
aI1379
aI16619
aI5726
aI742
aI63
aI2388
aI2962
aI3077
aI25116
aI25117
aI41
aI3270
aI273
aI394
aI316
aI443
aI8737
aI7
aI3
aI31095
aI382
aI15983
aI63765
asg6
S'On the same day  Hamas officials said that earlier reports  quoting Khaled Meshaal as saying there would be no renewal of the truce  were inaccurate .'
p11
ss.