(dp1
S'input'
p2
(dp3
S'encoded'
p4
(lp5
I64
aI2179
aI43
aI63
aI2157
aI2565
aI493
aI19084
aI382
aI4850
asS'ori'
p6
S"This house believes that Israel's 2008-2009 military operations against Gaza were justified"
p7
ssS'output'
p8
(dp9
g4
(lp10
I45
aI1071
aI588
aI4240
aI16619
aI244
aI63
aI134
aI394
aI99
aI15974
aI14
aI9349
aI4240
aI137
aI2126
aI5
aI394
aI501
aI12730
aI137
aI45
aI3142
aI620
aI384
aI31228
aI717
aI14
aI3
aI380
aI2256
aI1381
aI16619
aI990
aI4666
aI45
aI733
aI3
aI2194
aI63765
asg6
S'To speed up reconstruction  Hamas agreed that it would not insist on collecting reconstruction money itself and would allow donated money to flow through different avenues based on the various alliances  although Hamas ultimately expected to administer the aid .'
p11
ss.