(dp1
S'input'
p2
(dp3
S'encoded'
p4
(lp5
I64
aI2179
aI43
aI63
aI2659
aI417
aI1690
aI3
aI12048
aI7
aI19084
asS'ori'
p6
S'This house believes that Israel should lift the blockade of Gaza'
p7
ssS'output'
p8
(dp9
g4
(lp10
I3
aI2052
aI14
aI3
aI2224
aI2598
aI75
aI3
aI859
aI12048
aI7
aI3
aI19084
aI966
aI532
aI45
aI4013
aI1184
aI89
aI2521
aI7
aI282
aI2893
aI70
asg6
S'the "restrictions imposed on the civilian population by the continuing blockade of the Gaza Strip amount to collective punishment  a violation of international humanitarian law'
p11
ss.