(dp1
S'input'
p2
(dp3
S'encoded'
p4
(lp5
I64
aI2179
aI43
aI63
aI3
aI21
aI45
aI12715
aI417
aI99
aI316
aI2897
asS'ori'
p6
S'This house believes that the right to asylum should not be absolute'
p7
ssS'output'
p8
(dp9
g4
(lp10
I2405
aI3
aI217
aI13407
aI13115
aI116
aI63
aI24
aI100
aI3052
aI3
aI70
aI1019
aI316
aI2357
aI111
aI604
aI134
aI116
aI99
aI773
aI3762
aI4544
aI75
aI3
aI5462
aI63765
asg6
S'Finally  the most troubling complaint is that in some cases the law cannot be relied upon because it is not being properly implemented by the authorities (i .e .'
p11
ss.