(dp1
S'input'
p2
(dp3
S'encoded'
p4
(lp5
I64
aI2179
aI394
aI117
aI7428
aI21151
aI34
aI11389
aI2042
aI24
aI4364
asS'ori'
p6
S'This house would only teach abstinence for sex education in schools'
p7
ssS'output'
p8
(dp9
g4
(lp10
I2035
aI59597
aI50890
aI5693
aI15377
aI63
aI20123
aI16566
aI593
aI138
aI582
aI88
aI316
aI2760
aI16031
aI5
aI2567
aI63
aI139
aI3709
aI454
aI86
aI19
aI5500
aI10014
aI12375
aI41
aI155
aI1199
aI5615
aI3939
aI63765
aI16567
aI7
aI2120
aI159
aI41
aI8803
aI364
aI139
aI11
aI8666
aI6203
aI34
aI20123
aI324
aI298
aI155
aI2723
aI32545
aI63765
aI16567
aI7
aI8803
aI23369
aI98
aI829
aI63765
asg6
S'Study coauthor Stacy Armour theorized that adolescents "who waited longer than average may be developing friendships and relationships that can help protect them from potentially troublesome behaviors as they become young adults . .The timing of events such as sexual activity can have profound consequences for adolescents  particularly when they occur prematurely . .[T]he timing of sexual initiation does matter .'
p11
ss.