(dp1
S'input'
p2
(dp3
S'encoded'
p4
(lp5
I64
aI2179
aI394
aI1499
aI177
aI1819
aI34
aI160
asS'ori'
p6
S'This house would build high rises for housing'
p7
ssS'output'
p8
(dp9
g4
(lp10
I93
aI7
aI3
aI217
aI12992
aI2132
aI160
aI6782
aI3
aI2604
aI7
aI6338
aI373
aI89
aI150
aI3997
aI7
aI4359
aI2389
aI24
aI3
aI2132
aI160
aI145
aI1592
aI3
aI35871
aI6677
aI4251
aI24
aI63765
asg6
S'One of the most ambitious post-war council housing developments  the complex of estates became a national symbol of perceived failures in the council housing system following the Broadwater Farm riot in 1985 .'
p11
ss.