(dp1
S'input'
p2
(dp3
S'encoded'
p4
(lp5
I64
aI2179
aI43
aI63
aI2659
aI417
aI1690
aI3
aI12048
aI7
aI19084
asS'ori'
p6
S'This house believes that Israel should lift the blockade of Gaza'
p7
ssS'output'
p8
(dp9
g4
(lp10
I14
aI2116
aI29841
aI4001
aI24612
aI29842
aI63
aI273
aI394
aI316
aI257
aI1156
aI2144
aI440
aI2118
aI45
aI351
aI652
aI311
aI3
aI531
aI7
aI2659
aI63765
asg6
S'On 1 June  Cowen told Dail Eireann that there would be "serious consequences" if Irish citizens had come to any harm at the hands of Israel  .'
p11
ss.