(dp1
S'input'
p2
(dp3
S'encoded'
p4
(lp5
I64
aI2179
aI43
aI63
aI187
aI417
aI99
aI16642
aI3
aI6449
aI7
aI3935
asS'ori'
p6
S'This house believes that states should not subsidize the growing of tobacco'
p7
ssS'output'
p8
(dp9
g4
(lp10
I7408
aI10400
aI153
aI182
aI89
aI279
aI28234
aI591
aI24
aI2258
aI2952
aI63765
asg6
S'Agricultural subsidies often are a common stumbling block in trade negotiations .'
p11
ss.