(dp1
S'input'
p2
(dp3
S'encoded'
p4
(lp5
I64
aI2179
aI43
aI63
aI134
aI116
aI400
aI21
aI34
aI3
aI260
aI45
aI3439
aI57
aI7
aI2381
asS'ori'
p6
S'This house believes that it is sometimes right for the government to restrict freedom of speech'
p7
ssS'output'
p8
(dp9
g4
(lp10
I24
aI2045
aI3
aI12511
aI2381
aI70
aI116
aI99
aI8062
aI45
aI27898
aI11095
aI41
aI93
aI139
aI1792
aI19
aI3500
aI89
aI63765
aI24
aI3
aI6433
aI5436
aI4674
aI131
aI1501
aI1032
aI15359
aI159
aI11095
aI81
aI24
aI89
aI35810
aI20897
aI13853
aI3097
aI73
aI351
aI248
aI2690
aI3867
aI9752
aI89
aI2007
aI73
aI89
aI94
aI7
aI78
aI14
aI3
aI2259
aI7
aI271
aI12420
aI8136
aI5231
aI4226
aI2382
aI73
aI8803
aI12507
aI4197
aI316
aI17209
aI73
aI17124
aI34
aI588
aI45
aI2439
aI63765
asg6
S'In Iceland  the hate speech law is not confined to inciting hatred  as one can see from Article 233 a . in the Icelandic Penal Code  but includes simply expressing such hatred publicly:Anyone who in a ridiculing  slanderous  insulting  threatening or any other manner publicly assaults a person or a group of people on the basis of their nationality  skin colour  race  religion or sexual orientation  shall be fined or jailed for up to 2 years .'
p11
ss.