(dp1
S'input'
p2
(dp3
S'encoded'
p4
(lp5
I64
aI2179
aI394
aI4325
aI2042
aI270
aI89
aI11605
aI3324
asS'ori'
p6
S'This house would fund education using a voucher scheme'
p7
ssS'output'
p8
(dp9
g4
(lp10
I4758
aI34011
aI2397
aI5
aI248
aI2503
aI2351
aI2194
aI256
aI394
aI316
aI1645
aI45
aI97
aI5721
aI7
aI260
aI397
aI89
aI3060
aI639
aI1592
aI92
aI223
aI2503
aI2351
aI2194
aI34
aI2042
aI394
aI316
aI9931
aI63765
asg6
S'College Pell grants and other federal financial aid programs would be transferred to another branch of government during a transition period  following which all federal financial aid for education would be eliminated  .'
p11
ss.