(dp1
S'input'
p2
(dp3
S'encoded'
p4
(lp5
I64
aI2179
aI43
aI24
aI3
aI475
aI7
aI12436
aI3364
asS'ori'
p6
S'This house believes in the use of affirmative action'
p7
ssS'output'
p8
(dp9
g4
(lp10
I634
aI45
aI1195
aI589
aI3
aI2318
aI5
aI4155
aI45
aI725
aI248
aI1197
aI24
aI8863
aI7
aI5969
aI63765
asg6
S'Sit-ins continued to happen around the South and spread to many other places  in hopes of equality .'
p11
ss.