(dp1
S'input'
p2
(dp3
S'encoded'
p4
(lp5
I64
aI2179
aI43
aI63
aI3
aI4990
aI4991
aI116
aI4850
aI24
aI12166
aI3
aI475
aI7
aI3532
aI3290
aI7
aI4714
asS'ori'
p6
S'This house believes that the Catholic Church is justified in forbidding the use of barrier methods of contraception'
p7
ssS'output'
p8
(dp9
g4
(lp10
I3858
aI89
aI3315
aI1298
aI4229
aI1183
aI7
aI413
aI17
aI2351
aI5
aI6669
aI63765
asg6
S'Raising a child requires significant amounts of resources: time  social  financial  and environmental .'
p11
ss.