(dp1
S'input'
p2
(dp3
S'encoded'
p4
(lp5
I64
aI2179
aI43
aI63
aI134
aI116
aI400
aI21
aI34
aI3
aI260
aI45
aI3439
aI57
aI7
aI2381
asS'ori'
p6
S'This house believes that it is sometimes right for the government to restrict freedom of speech'
p7
ssS'output'
p8
(dp9
g4
(lp10
I24
aI3
aI33
aI57471
aI646
aI63765
aI9969
aI3
aI2482
aI2483
aI4555
aI743
aI63
aI3
aI2029
aI7
aI2446
aI2396
aI493
aI3
aI18487
aI4113
aI7
aI3
aI448
aI57472
aI493
aI120
aI7
aI2083
aI220
asg6
S'In the 1833 case Barron v . Baltimore  the Supreme Court specifically ruled that the Bill of Rights provided "security against the apprehended encroachments of the general governmentnot against those of local governments ."'
p11
ss.