(dp1
S'input'
p2
(dp3
S'encoded'
p4
(lp5
I64
aI2179
aI43
aI223
aI2138
aI11
aI89
aI21
aI45
aI2185
aI372
asS'ori'
p6
S'This house believes all nations have a right to nuclear weapons'
p7
ssS'output'
p8
(dp9
g4
(lp10
I37051
aI116
aI19370
aI2999
aI7
aI22
aI3707
aI311
aI22154
aI10172
aI5
aI19675
aI5520
aI2041
aI9703
aI311
aI3373
aI4750
aI63765
asg6
S'Waltz is Emeritus Professor of Political Science at UC Berkeley and Adjunct Senior Research Scholar at Columbia University .'
p11
ss.