(dp1
S'input'
p2
(dp3
S'encoded'
p4
(lp5
I64
aI2179
aI43
aI24
aI3
aI475
aI7
aI12436
aI3364
asS'ori'
p6
S'This house believes in the use of affirmative action'
p7
ssS'output'
p8
(dp9
g4
(lp10
I3
aI5125
aI7517
aI511
aI2130
aI41
aI261
aI41
aI77
aI10
aI569
aI7517
aI3237
aI779
aI9385
aI5489
aI12411
aI63765
asg6
S'The Equal Employment Opportunity Commission (EEOC) as well as certain state fair employment practices agencies (FEPAs) enforce Title VII (see ) .'
p11
ss.