(dp1
S'input'
p2
(dp3
S'encoded'
p4
(lp5
I64
aI2179
aI394
aI2773
aI12505
asS'ori'
p6
S'This house would embrace multiculturalism'
p7
ssS'output'
p8
(dp9
g4
(lp10
I248
aI3920
aI7704
aI7
aI45097
aI5964
aI159
aI41
aI3
aI59329
aI59332
aI5
aI10419
aI78
aI7704
aI7
aI45097
aI5964
aI159
aI41
aI3
aI59333
aI3
aI59334
aI5
aI3
aI10066
aI63765
asg6
S'Other native tribes of Peninsular Malaysia  such as the Orang Asli and Siamese people  andNon-native tribes of Peninsular Malaysia such as the Chettiars  the Peranakan and the Portuguese .'
p11
ss.