(dp1
S'input'
p2
(dp3
S'encoded'
p4
(lp5
I64
aI2179
aI43
aI63
aI3376
aI4938
aI417
aI316
aI3537
asS'ori'
p6
S'This house believes that endangered species should be protected'
p7
ssS'output'
p8
(dp9
g4
(lp10
I75
aI8699
aI64
aI155
aI417
aI316
aI1031
aI45
aI4574
aI8059
aI5
aI4723
aI7841
aI63
aI182
aI4620
aI34
aI271
aI2312
aI63765
asg6
S'By knowing this  they should be able to choose spatial and temporal scales that are appropriate for their experiment .'
p11
ss.