(dp1
S'input'
p2
(dp3
S'encoded'
p4
(lp5
I64
aI2179
aI394
aI4325
aI2042
aI270
aI89
aI11605
aI3324
asS'ori'
p6
S'This house would fund education using a voucher scheme'
p7
ssS'output'
p8
(dp9
g4
(lp10
I1260
aI192
aI8237
aI675
aI13125
aI12953
aI5
aI8227
aI24774
aI133
aI3210
aI139
aI79
aI60
aI938
aI149
aI260
aI54
aI63765
asg6
S'Free Market thinkers like Hayek  Friedman and von Mises believe markets can work with far less government regulation .'
p11
ss.