(dp1
S'input'
p2
(dp3
S'encoded'
p4
(lp5
I64
aI2179
aI43
aI63
aI3376
aI4938
aI417
aI316
aI3537
asS'ori'
p6
S'This house believes that endangered species should be protected'
p7
ssS'output'
p8
(dp9
g4
(lp10
I298
aI132
aI5945
aI1199
aI24793
aI155
aI83
aI1199
aI136
aI5117
aI75
aI11753
aI2597
aI73
aI136
aI8
aI5893
aI63
aI153
aI182
aI3150
aI14
aI3
aI5166
aI138
aI3492
aI6754
aI5
aI23653
aI3290
aI63765
asg6
S'When these industries become commercialized  they must become more efficient by utilizing larger or more modern machinery that often are worse on the habitat than traditional farming and logging methods .'
p11
ss.