(dp1
S'input'
p2
(dp3
S'encoded'
p4
(lp5
I64
aI2179
aI43
aI223
aI2138
aI11
aI89
aI21
aI45
aI2185
aI372
asS'ori'
p6
S'This house believes all nations have a right to nuclear weapons'
p7
ssS'output'
p8
(dp9
g4
(lp10
I233
aI45
aI2304
aI37083
aI30596
aI37084
aI42
aI440
aI89
aI7807
aI60
aI267
aI2304
aI4313
aI3344
aI89
aI41573
aI9276
aI24
aI63765
asg6
S'According to high-ranking Russian SVR defector Tretyakov  he had a meeting with two Russian businessman representing a state-created Chetek corporation in 1991 .'
p11
ss.