(dp1
S'input'
p2
(dp3
S'encoded'
p4
(lp5
I64
aI2179
aI13605
aI2258
aI45
aI2194
asS'ori'
p6
S'This house prefers trade to aid'
p7
ssS'output'
p8
(dp9
g4
(lp10
I508
aI1431
aI3
aI2891
aI1862
aI89
aI1341
aI2696
aI32264
aI3
aI2210
aI7
aI6678
aI47
aI153
aI316
aI9208
aI63765
asg6
S'Thus whatever the development strategy a particular country adopts  the role of agriculture will often be crucial .'
p11
ss.