(dp1
S'input'
p2
(dp3
S'encoded'
p4
(lp5
I64
aI2179
aI43
aI63
aI2659
aI417
aI1690
aI3
aI12048
aI7
aI19084
asS'ori'
p6
S'This house believes that Israel should lift the blockade of Gaza'
p7
ssS'output'
p8
(dp9
g4
(lp10
I3007
aI27278
aI524
aI864
aI63
aI93
aI7
aI3
aI27277
aI12375
aI10545
aI291
aI6056
aI2136
aI5
aI120
aI7
aI3
aI10782
aI116
aI99
aI15423
aI5
aI63
aI3
aI4659
aI24
aI92
aI155
aI182
aI221
aI116
aI3057
aI63765
asg6
S'Paul Igansky points out that one of the EUMC anti-Semitic behaviors  comparisons between Israeli policy and those of the Nazis  is "arguably not intrinsically antisemitic"  and that the context in which they are made is critical .'
p11
ss.