(dp1
S'input'
p2
(dp3
S'encoded'
p4
(lp5
I64
aI2179
aI43
aI63
aI2157
aI2565
aI493
aI19084
aI382
aI4850
asS'ori'
p6
S"This house believes that Israel's 2008-2009 military operations against Gaza were justified"
p7
ssS'output'
p8
(dp9
g4
(lp10
I24
aI89
aI3625
aI281
aI448
aI31121
aI31122
aI742
aI63
aI3
aI117
aI475
aI7
aI2416
aI19
aI3
aI6056
aI2674
aI972
aI122
aI24
aI820
aI2506
aI63765
asg6
S'In a 2009 interview  Major General Ido Nehushtan said that the only use of non-precision-guided munitions from the Israeli Air Force was in open areas  .'
p11
ss.