(dp1
S'input'
p2
(dp3
S'encoded'
p4
(lp5
I64
aI2179
aI43
aI223
aI2138
aI11
aI89
aI21
aI45
aI2185
aI372
asS'ori'
p6
S'This house believes all nations have a right to nuclear weapons'
p7
ssS'output'
p8
(dp9
g4
(lp10
I24
aI574
aI823
aI2215
aI89
aI2268
aI99
aI45
aI1274
aI3
aI2185
aI2957
aI5
aI311
aI3
aI312
aI7
aI155
aI2396
aI93
aI97
aI60
aI89
aI2924
aI6909
aI3
aI1860
aI7
aI223
aI271
aI2185
aI4975
aI113
aI114
aI3
aI5985
aI4812
aI382
aI1058
aI41
aI99
aI773
aI15337
aI4885
aI63765
asg6
S"In 1990 each side ratified a treaty not to attack the other's nuclear installations  and at the end of 1991 they provided one another with a list showing the location of all their nuclear plants  even though the respective lists were regarded as not being wholly accurate ."
p11
ss.