(dp1
S'input'
p2
(dp3
S'encoded'
p4
(lp5
I64
aI2179
aI43
aI63
aI3
aI28431
aI7
aI2157
aI4624
aI75
aI39939
aI27257
aI122
aI4850
asS'ori'
p6
S'This house believes that the leaking of military documents by Anat Kamm was justified'
p7
ssS'output'
p8
(dp9
g4
(lp10
I2201
aI742
aI63
aI3
aI22437
aI3565
aI2791
aI3
aI11152
aI45
aI30377
aI81
aI47
aI918
aI4849
aI7
aI131
aI99
aI5
aI5598
aI755
aI22437
aI3565
aI122
aI7593
aI34
aI63765
asg6
S'" WikiLeaks said that the Knight foundation announced the award to "\'12 Grantees who will impact future of news\'&nbsp; but not WikiLeaks" and questioned whether Knight foundation was "really looking for impact"  .'
p11
ss.