(dp1
S'input'
p2
(dp3
S'encoded'
p4
(lp5
I64
aI2179
aI394
aI60
aI23587
asS'ori'
p6
S'This house would re-engage with Myanmar'
p7
ssS'output'
p8
(dp9
g4
(lp10
I20392
aI41482
aI750
aI89
aI2609
aI2544
aI7
aI3
aI2157
aI6073
aI122
aI7896
aI3820
aI22
aI12715
aI24
aI2044
aI63765
asg6
S'Colonel Hla Win  a central member of the military junta  was reportedly seeking political asylum in Norway .'
p11
ss.