(dp1
S'input'
p2
(dp3
S'encoded'
p4
(lp5
I64
aI2179
aI43
aI17
aI4941
aI857
aI3211
asS'ori'
p6
S'This house believes social deprivation causes crime'
p7
ssS'output'
p8
(dp9
g4
(lp10
I116
aI117
aI93
aI7
aI89
aI696
aI7
aI1809
aI416
aI45
aI3553
aI3
aI1485
aI7
aI16858
aI2755
aI158
aI137
aI19
aI93
aI2696
aI45
aI97
aI63765
asg6
S"'Alternative remittance' is only one of a number of terms used to describe the practice of transferring value  including money  from one country to another ."
p11
ss.