(dp1
S'input'
p2
(dp3
S'encoded'
p4
(lp5
I64
aI2179
aI394
aI1499
aI3
aI8115
aI34564
aI17106
asS'ori'
p6
S'This house would build the Keystone XL pipeline'
p7
ssS'output'
p8
(dp9
g4
(lp10
I4176
aI2029
aI23954
aI55
aI6212
aI3
aI8115
aI5849
aI45
aI3
aI7683
aI6032
aI7
aI2023
aI3592
aI34
aI3
aI2032
aI7684
aI5172
aI282
aI1634
aI5
aI45
aI248
aI2068
aI1106
aI7
aI63765
aI260
aI3089
aI63
aI342
aI207
aI1411
aI1191
aI2023
aI63765
asg6
S'Commentator Bill Mann has linked the Keystone postponement to the Michigan Senate\'s rejection of Canadian funding for the proposed Detroit River International Crossing and to other recent instances of "U .S . government actions (and inactions) that show little concern about Canadian concerns" .'
p11
ss.