(dp1
S'input'
p2
(dp3
S'encoded'
p4
(lp5
I64
aI2179
aI43
aI63
aI1036
aI4828
aI33250
aI116
aI25073
aI45
aI3315
aI4562
asS'ori'
p6
S'This house believes that male infant circumcision is tantamount to child abuse'
p7
ssS'output'
p8
(dp9
g4
(lp10
I5047
aI63
aI3
aI7443
aI7
aI33250
aI887
aI5349
aI122
aI34
aI5349
aI4651
aI24
aI3
aI5
aI34
aI120
aI4651
aI24
aI3
aI63765
asg6
S'reported that the prevalence of circumcision among US-born males was 91% for males born in the 1970s and 84% for those born in the 1980s  .'
p11
ss.