(dp1
S'input'
p2
(dp3
S'encoded'
p4
(lp5
I64
aI2179
aI394
aI4325
aI2042
aI270
aI89
aI11605
aI3324
asS'ori'
p6
S'This house would fund education using a voucher scheme'
p7
ssS'output'
p8
(dp9
g4
(lp10
I155
aI382
aI10984
aI34
aI3
aI10868
aI24
aI2301
aI2300
aI4397
aI4396
aI2129
aI5
aI3572
aI131
aI3019
aI24
aI7713
aI2980
aI2500
aI7716
aI5
aI2318
aI7537
aI63765
asg6
S'They were qualified for the 2006 ballots in Arizona  California  Idaho  Montana  Nevada  and Washington  but failed in Colorado  Georgia  Missouri  Oklahoma  and South Carolina .'
p11
ss.