(dp1
S'input'
p2
(dp3
S'encoded'
p4
(lp5
I64
aI2179
aI43
aI63
aI3
aI4538
aI7
aI4434
aI7793
aI283
aI45
aI3586
aI417
aI316
aI577
asS'ori'
p6
S'This house believes that the sale of violent video games to minors should be banned'
p7
ssS'output'
p8
(dp9
g4
(lp10
I19
aI413
aI45
aI413
aI7793
aI283
aI11
aI12
aI3531
aI75
aI3136
aI17553
aI8850
aI5
aI100
aI2767
aI2142
aI34
aI9792
aI47102
aI2617
aI25655
aI5
aI3211
aI5
aI18311
aI3862
aI45
aI132
aI6543
aI63765
asg6
S"From time to time  video games have been criticized by parents' groups  psychologists  politicians  and some religious organizations for allegedly glorifying violence  cruelty  and crime and exposing children to these elements ."
p11
ss.