(dp1
S'input'
p2
(dp3
S'encoded'
p4
(lp5
I64
aI2179
aI394
aI1499
aI177
aI1819
aI34
aI160
asS'ori'
p6
S'This house would build high rises for housing'
p7
ssS'output'
p8
(dp9
g4
(lp10
I2035
aI2036
aI3
aI1592
aI4534
aI10514
aI34
aI3
aI2546
aI4394
aI2506
aI24
aI7
aI6025
aI4648
aI24
aI3
aI15172
aI456
aI7
aI6025
aI24
aI3
aI12051
aI456
aI5
aI24
aI3
aI12051
aI456
aI63765
asg6
S"Kneebone's study showed the following nationwide breakdown for the largest metropolitan areas in 2006: 21 .3% of jobs located in the inner ring  33 .6% of jobs in the 3-10 mile ring  and 45 .1% in the 10-35 mile ring ."
p11
ss.