(dp1
S'input'
p2
(dp3
S'encoded'
p4
(lp5
I64
aI2179
aI43
aI63
aI2157
aI2565
aI493
aI19084
aI382
aI4850
asS'ori'
p6
S"This house believes that Israel's 2008-2009 military operations against Gaza were justified"
p7
ssS'output'
p8
(dp9
g4
(lp10
I226
aI2659
aI116
aI99
aI89
aI171
aI45
aI3
aI16643
aI2233
aI2659
aI8404
aI211
aI3663
aI41
aI8006
aI7
aI6584
aI282
aI70
aI63765
asg6
S'While Israel is not a party to the Protocol I  Israel accepts its provisions as reflective of customary international law  .'
p11
ss.