(dp1
S'input'
p2
(dp3
S'encoded'
p4
(lp5
I64
aI2179
aI43
aI63
aI3
aI4538
aI7
aI4434
aI7793
aI283
aI45
aI3586
aI417
aI316
aI577
asS'ori'
p6
S'This house believes that the sale of violent video games to minors should be banned'
p7
ssS'output'
p8
(dp9
g4
(lp10
I24
aI425
aI3754
aI56865
aI122
aI24851
aI75
aI1353
aI17489
aI1130
aI366
aI51
aI143
aI2230
aI1902
aI7674
aI11057
aI7
aI1121
aI12486
aI5
aI24392
aI15104
aI63765
asg6
S"In January 2010  9-year-old Anthony Maldonado was stabbed by relative Alejandro Morales after an argument regarding Maldonado's recently purchased copy of Tony Hawk: Ride and PlayStation 3 console  ."
p11
ss.