(dp1
S'input'
p2
(dp3
S'encoded'
p4
(lp5
I64
aI2179
aI394
aI4261
aI8667
aI3
aI9361
aI5
aI17069
asS'ori'
p6
S'This house would prohibit burning the stars and stripes'
p7
ssS'output'
p8
(dp9
g4
(lp10
I3
aI237
aI3264
aI45
aI3
aI626
aI187
aI2475
aI57080
aI3
aI57
aI7
aI2381
aI41
aI89
aI2477
aI21
aI63765
asg6
S'The First Amendment to the United States Constitution codifies the freedom of speech as a constitutional right .'
p11
ss.