(dp1
S'input'
p2
(dp3
S'encoded'
p4
(lp5
I64
aI2179
aI43
aI63
aI3
aI4538
aI7
aI4434
aI7793
aI283
aI45
aI3586
aI417
aI316
aI577
asS'ori'
p6
S'This house believes that the sale of violent video games to minors should be banned'
p7
ssS'output'
p8
(dp9
g4
(lp10
I7793
aI319
aI2617
aI116
aI99
aI3
aI1334
aI15940
aI45
aI6217
aI2617
aI378
aI41
aI273
aI182
aI725
aI248
aI1356
aI311
aI6372
aI63765
asg6
S'Video game violence is not the primary contributor to societal violence  however  as there are many other factors at play  .'
p11
ss.