(dp1
S'input'
p2
(dp3
S'encoded'
p4
(lp5
I64
aI2179
aI235
aI3
aI2136
aI7
aI3
aI2306
aI7
aI2390
asS'ori'
p6
S'This house supports the one-child policy of the republic of China'
p7
ssS'output'
p8
(dp9
g4
(lp10
I2914
aI2589
aI52963
aI2589
aI2598
aI63765
asg6
S'Net migration rateNet migration rate: -0 .39 migrant(s)/1 000 population (2007)  .'
p11
ss.