(dp1
S'input'
p2
(dp3
S'encoded'
p4
(lp5
I64
aI2179
aI43
aI63
aI6670
aI546
aI417
aI316
aI89
aI1334
aI3108
aI7
aI4849
aI1886
aI2855
asS'ori'
p6
S'This house believes that wind power should be a primary focus of future energy supply'
p7
ssS'output'
p8
(dp9
g4
(lp10
I2136
aI7165
aI4620
aI1860
aI55
aI4284
aI2118
aI24
aI3
aI399
aI7
aI2083
aI30837
aI5
aI9659
aI4352
aI63765
asg6
S'Policy facilitating appropriate location has historically come in the form of local ordinances and permitting requirements .'
p11
ss.