(dp1
S'input'
p2
(dp3
S'encoded'
p4
(lp5
I64
aI2179
aI43
aI223
aI2138
aI11
aI89
aI21
aI45
aI2185
aI372
asS'ori'
p6
S'This house believes all nations have a right to nuclear weapons'
p7
ssS'output'
p8
(dp9
g4
(lp10
I24
aI2068
aI2439
aI273
aI11
aI12
aI5046
aI1191
aI874
aI2185
aI8811
aI5
aI2005
aI45
aI991
aI211
aI2326
aI45
aI13750
aI11695
aI5500
aI45
aI372
aI7353
aI63765
asg6
S"In recent years there have been concerns about North Korea's nuclear tests and Iran's refusal to stop its program to enrich uranium  potentially to weapons grade ."
p11
ss.