(dp1
S'input'
p2
(dp3
S'encoded'
p4
(lp5
I64
aI2179
aI43
aI63
aI6670
aI546
aI417
aI316
aI89
aI1334
aI3108
aI7
aI4849
aI1886
aI2855
asS'ori'
p6
S'This house believes that wind power should be a primary focus of future energy supply'
p7
ssS'output'
p8
(dp9
g4
(lp10
I3
aI18132
aI6670
aI6677
aI24
aI7596
aI116
aI51
aI1343
aI7
aI93
aI6670
aI6677
aI53
aI3
aI6669
aI918
aI7
aI3
aI2762
aI55
aI12
aI15519
aI620
aI6076
aI5
aI63765
asg6
S'The Intrepid Wind Farm  in Iowa  is an example of one wind farm where the environmental impact of the project has been minimized through consultation and co-operation  .'
p11
ss.