(dp1
S'input'
p2
(dp3
S'encoded'
p4
(lp5
I64
aI2179
aI235
aI3858
aI3
aI2240
aI4527
aI3485
aI45
asS'ori'
p6
S'This house supports raising the school leaving age to 18'
p7
ssS'output'
p8
(dp9
g4
(lp10
I93
aI7
aI3
aI217
aI1182
aI1760
aI24
aI2042
aI116
aI3
aI475
aI7
aI2186
aI63765
asg6
S'One of the most substantial uses in education is the use of technology .'
p11
ss.