(dp1
S'input'
p2
(dp3
S'encoded'
p4
(lp5
I64
aI2179
aI394
aI2017
aI262
asS'ori'
p6
S'This house would ban boxing'
p7
ssS'output'
p8
(dp9
g4
(lp10
I50511
aI382
aI4377
aI416
aI107
aI63765
asg6
S'Sandbags were traditionally used instead .'
p11
ss.