(dp1
S'input'
p2
(dp3
S'encoded'
p4
(lp5
I64
aI2179
aI43
aI63
aI2659
aI417
aI1690
aI3
aI12048
aI7
aI19084
asS'ori'
p6
S'This house believes that Israel should lift the blockade of Gaza'
p7
ssS'output'
p8
(dp9
g4
(lp10
I3727
aI382
aI17121
aI5
aI382
aI18264
aI840
aI63765
asg6
S'480 activists were detained and 48 were deported immediately  .'
p11
ss.