(dp1
S'input'
p2
(dp3
S'encoded'
p4
(lp5
I64
aI2179
aI394
aI117
aI7428
aI21151
aI34
aI11389
aI2042
aI24
aI4364
asS'ori'
p6
S'This house would only teach abstinence for sex education in schools'
p7
ssS'output'
p8
(dp9
g4
(lp10
I14779
aI2042
aI41
aI89
aI652
aI1811
aI1862
aI55
aI946
aI1016
aI3
aI2038
aI7
aI9583
aI7446
aI159
aI41
aI24
aI25486
aI53
aI64
aI1869
aI122
aI3
aI217
aI4386
aI7446
aI12090
aI63765
asg6
S'Peer education as a harm reduction strategy has especially reduced the risk of HIV infection  such as in Chad  where this method was the most cost-effective per infection prevented  .'
p11
ss.