(dp1
S'input'
p2
(dp3
S'encoded'
p4
(lp5
I64
aI2179
aI43
aI63
aI7382
aI116
aI400
aI4713
asS'ori'
p6
S'This house believes that bribery is sometimes acceptable'
p7
ssS'output'
p8
(dp9
g4
(lp10
I4667
aI16111
aI2022
aI5
aI2142
aI92
aI6970
aI3
aI260
aI63765
asg6
S'Lacking civic society and non-governmental organizations which monitor the government .'
p11
ss.