(dp1
S'input'
p2
(dp3
S'encoded'
p4
(lp5
I64
aI2179
aI394
aI2017
aI262
asS'ori'
p6
S'This house would ban boxing'
p7
ssS'output'
p8
(dp9
g4
(lp10
I89
aI1488
aI116
aI416
aI45
aI1489
aI1072
aI5
aI1449
aI826
aI950
aI226
aI89
aI1445
aI1490
aI1491
aI60
aI1492
aI89
aI1493
aI1494
aI73
aI1495
aI116
aI416
aI45
aI1485
aI546
aI826
aI5
aI760
aI592
aI63765
asg6
S'A small  tear-drop-shaped "speed bag" is used to hone reflexes and repetitive punching skills  while a large cylindrical "heavy bag" filled with sand  a synthetic substitute  or water is used to practice power punching and body blows .'
p11
ss.