(dp1
S'input'
p2
(dp3
S'encoded'
p4
(lp5
I64
aI2179
aI43
aI63
aI3
aI21
aI45
aI12715
aI417
aI99
aI316
aI2897
asS'ori'
p6
S'This house believes that the right to asylum should not be absolute'
p7
ssS'output'
p8
(dp9
g4
(lp10
I7477
aI5
aI28967
aI24
aI2806
aI399
aI291
aI5
aI7
aI211
aI2598
aI1191
aI2642
aI89
aI2639
aI7477
aI2856
aI9709
aI24
aI3
aI2696
aI1592
aI3
aI290
aI7
aI16653
aI2285
aI6078
aI1155
aI45
aI51
aI6
aI6070
aI5
aI6071
aI183
aI5
aI3
aI28967
aI19
aI2803
aI92
aI182
aI3
aI217
aI1872
aI311
aI289
aI63765
asg6
S'Refugees and IDPs in Serbia form between 7% and 7 .5% of its population  about half a million refugees sought refuge in the country following the series of Yugoslav wars (from Croatia mainly  to an extent Bosnia and Herzegovina too and the IDPs from Kosovo  which are the most numerous at over 200 000)  .'
p11
ss.