(dp1
S'input'
p2
(dp3
S'encoded'
p4
(lp5
I64
aI2179
aI43
aI17
aI4941
aI857
aI3211
asS'ori'
p6
S'This house believes social deprivation causes crime'
p7
ssS'output'
p8
(dp9
g4
(lp10
I8207
aI60
aI3290
aI7
aI23743
aI14147
aI7940
aI3
aI1160
aI7
aI3266
aI258
aI45
aI671
aI16
aI73
aI17
aI502
aI41
aI98
aI3
aI7210
aI7
aI3211
aI73
aI22
aI7170
aI134
aI116
aI5504
aI755
aI132
aI182
aI717
aI14
aI3064
aI546
aI73
aI63765
asg6
S'Preoccupation with methods of accumulating profit highlight the lack of legitimate means to achieve economic or social advantage  as does the organisation of white-collar crime or political corruption (though it is debatable whether these are based on wealth  power or both) .'
p11
ss.