(dp1
S'input'
p2
(dp3
S'encoded'
p4
(lp5
I64
aI2179
aI394
aI1499
aI177
aI1819
aI34
aI160
asS'ori'
p6
S'This house would build high rises for housing'
p7
ssS'output'
p8
(dp9
g4
(lp10
I14625
aI382
aI12090
aI19
aI35965
aI3
aI9417
aI7
aI132
aI2612
aI24
aI667
aI160
aI5
aI3
aI697
aI119
aI7664
aI324
aI7
aI136
aI4947
aI4492
aI3350
aI63765
asg6
S'Councils were prevented from reinvesting the proceeds of these sales in new housing  and the total available stock  particularly of more desirable homes  declined .'
p11
ss.