(dp1
S'input'
p2
(dp3
S'encoded'
p4
(lp5
I64
aI2179
aI394
aI4325
aI2042
aI270
aI89
aI11605
aI3324
asS'ori'
p6
S'This house would fund education using a voucher scheme'
p7
ssS'output'
p8
(dp9
g4
(lp10
I42
aI43
aI63
aI2280
aI575
aI75
aI2221
aI45
aI3
aI2164
aI45
aI13126
aI5
aI7760
aI49074
aI14
aI3
aI3338
aI182
aI2481
aI5
aI63
aI2221
aI958
aI138
aI3
aI2470
aI5721
aI417
aI9177
aI49074
aI63765
asg6
S'He believes that "fast track" powers  given by Congress to the President to devise and negotiate FTAs on the country\'s behalf  are unconstitutional  and that Congress  rather than the executive branch  should construct FTAs  .'
p11
ss.