(dp1
S'input'
p2
(dp3
S'encoded'
p4
(lp5
I64
aI2179
aI394
aI117
aI7428
aI21151
aI34
aI11389
aI2042
aI24
aI4364
asS'ori'
p6
S'This house would only teach abstinence for sex education in schools'
p7
ssS'output'
p8
(dp9
g4
(lp10
I779
aI159
aI41
aI3
aI282
aI3772
aI3773
aI2133
aI5
aI10798
aI37886
aI282
aI124
aI13788
aI702
aI34
aI5615
aI3495
aI3048
aI63765
asg6
S'Non-governmental agencies such as the International Planned Parenthood Federation and Marie Stopes International provide contraceptive advice for young women worldwide .'
p11
ss.