(dp1
S'input'
p2
(dp3
S'encoded'
p4
(lp5
I64
aI2179
aI43
aI63
aI2659
aI417
aI1690
aI3
aI12048
aI7
aI19084
asS'ori'
p6
S'This house believes that Israel should lift the blockade of Gaza'
p7
ssS'output'
p8
(dp9
g4
(lp10
I14
aI2116
aI1405
aI5354
aI2791
aI63
aI2702
aI9170
aI440
aI244
aI45
aI19211
aI12048
aI14
aI3
aI19084
aI966
aI5
aI3435
aI51
aI2961
aI4515
aI233
aI45
aI92
aI89
aI752
aI45
aI11544
aI3
aI12048
aI440
aI12
aI221
aI63765
asg6
S"On 17 June 2010  Israel's Prime Minister's Office announced that Israel's security cabinet had agreed to relax Israel's blockade on the Gaza Strip  and issued an English-language press release  according to which a decision to ease the blockade had been made ."
p11
ss.