(dp1
S'input'
p2
(dp3
S'encoded'
p4
(lp5
I64
aI2179
aI394
aI5284
aI150
aI3987
asS'ori'
p6
S'This house would reintroduce national service'
p7
ssS'output'
p8
(dp9
g4
(lp10
I114
aI3
aI877
aI7
aI3
aI7807
aI24120
aI500
aI99
aI4918
aI34
aI89
aI15890
aI7
aI3
aI5262
aI134
aI500
aI2463
aI5642
aI3987
aI2784
aI17554
aI45
aI1074
aI4294
aI75
aI3495
aI5
aI7
aI3057
aI950
aI63
aI463
aI2830
aI45
aI4726
aI2157
aI5
aI2893
aI1227
aI63765
asg6
S'Though the conclusion of the meeting memo did not call for a reinstatement of the draft  it did suggest Selective Service Act modifications to include registration by women and self-reporting of critical skills that could serve to meet military  homeland-defense  and humanitarian needs  .'
p11
ss.