(dp1
S'input'
p2
(dp3
S'encoded'
p4
(lp5
I64
aI2179
aI394
aI3830
aI3
aI475
aI7
aI9441
aI13132
aI3102
aI24
aI276
aI381
asS'ori'
p6
S'This house would permit the use of performance enhancing drugs in professional sports'
p7
ssS'output'
p8
(dp9
g4
(lp10
I3
aI25118
aI2036
aI42
aI440
aI788
aI19569
aI5
aI97
aI2613
aI44085
aI92
aI22982
aI3
aI1991
aI11574
aI63765
asg6
S'The autopsy showed he had taken amphetamine and another drug  Ronicol  which dilates the blood vessels .'
p11
ss.