(dp1
S'input'
p2
(dp3
S'encoded'
p4
(lp5
I64
aI2179
aI43
aI63
aI2659
aI417
aI1690
aI3
aI12048
aI7
aI19084
asS'ori'
p6
S'This house believes that Israel should lift the blockade of Gaza'
p7
ssS'output'
p8
(dp9
g4
(lp10
I3674
aI5
aI25189
aI174
aI13443
aI3
aI2386
aI475
aI7
aI972
aI41
aI976
aI63765
asg6
S'Dershowitz and Posner also defended the specific use of force as legal .'
p11
ss.