(dp1
S'input'
p2
(dp3
S'encoded'
p4
(lp5
I64
aI2179
aI43
aI63
aI134
aI116
aI400
aI21
aI34
aI3
aI260
aI45
aI3439
aI57
aI7
aI2381
asS'ori'
p6
S'This house believes that it is sometimes right for the government to restrict freedom of speech'
p7
ssS'output'
p8
(dp9
g4
(lp10
I2429
aI2513
aI291
aI50307
aI5
aI2874
aI3
aI5563
aI16874
aI7
aI3
aI667
aI150
aI2475
aI63765
asg6
S'Ideological conflict between Federalists and anti-Federalists threatened the final ratification of the new national Constitution .'
p11
ss.