(dp1
S'input'
p2
(dp3
S'encoded'
p4
(lp5
I64
aI2179
aI43
aI63
aI1036
aI4828
aI33250
aI116
aI25073
aI45
aI3315
aI4562
asS'ori'
p6
S'This house believes that male infant circumcision is tantamount to child abuse'
p7
ssS'output'
p8
(dp9
g4
(lp10
I3
aI2206
aI4790
aI34
aI4015
aI10256
aI487
aI5
aI54298
aI5
aI54299
aI394
aI302
aI45
aI316
aI5468
aI75
aI100
aI620
aI3
aI63765
asg6
S'The US "Orificial Surgery Society" for female "circumcision" operated until 1925  and clitoridectomies and infibulations would continue to be advocated by some through the 1930s .'
p11
ss.