(dp1
S'input'
p2
(dp3
S'encoded'
p4
(lp5
I64
aI2179
aI43
aI63
aI3
aI21
aI45
aI12715
aI417
aI99
aI316
aI2897
asS'ori'
p6
S'This house believes that the right to asylum should not be absolute'
p7
ssS'output'
p8
(dp9
g4
(lp10
I37556
aI2183
aI382
aI754
aI24
aI311
aI89
aI413
aI298
aI8907
aI440
aI45
aI316
aI353
aI63765
asg6
S'Embarkation controls were ended in 1998 at a time when savings had to be found  .'
p11
ss.