(dp1
S'input'
p2
(dp3
S'encoded'
p4
(lp5
I64
aI2179
aI394
aI117
aI7428
aI21151
aI34
aI11389
aI2042
aI24
aI4364
asS'ori'
p6
S'This house would only teach abstinence for sex education in schools'
p7
ssS'output'
p8
(dp9
g4
(lp10
I89
aI905
aI75
aI3
aI4701
aI927
aI6833
aI864
aI63
aI3271
aI2722
aI34
aI17092
aI1590
aI271
aI2838
aI24
aI5156
aI3
aI5031
aI7
aI3
aI21151
aI117
aI4276
aI24
aI3
aI626
aI187
aI63765
asg6
S'A 2010 report by the Guttmacher Institute pointed out that pregnancy rates for teens 15-19 reversed their decline in 2006  near the peak of the Abstinence Only campaign in the United States  .'
p11
ss.