(dp1
S'input'
p2
(dp3
S'encoded'
p4
(lp5
I64
aI2179
aI13605
aI2258
aI45
aI2194
asS'ori'
p6
S'This house prefers trade to aid'
p7
ssS'output'
p8
(dp9
g4
(lp10
I14
aI2927
aI3
aI285
aI16
aI3795
aI2273
aI420
aI63765
aI15079
aI887
aI3
aI5615
aI2148
aI3024
aI7
aI63765
asg6
S'On March 11  2008  The World Economic Forum named Mr . Shikwati among the 250 Young Global Leaders of 2008 .'
p11
ss.