(dp1
S'input'
p2
(dp3
S'encoded'
p4
(lp5
I64
aI2179
aI43
aI223
aI2138
aI11
aI89
aI21
aI45
aI2185
aI372
asS'ori'
p6
S'This house believes all nations have a right to nuclear weapons'
p7
ssS'output'
p8
(dp9
g4
(lp10
I3
aI2497
aI116
aI4857
aI15
aI19
aI3
aI258
aI7
aI271
aI4536
aI92
aI1230
aI3
aI4490
aI7
aI516
aI6543
aI45
aI89
aI3440
aI2417
aI1942
aI5
aI19
aI3
aI4640
aI23729
aI3
aI1999
aI45
aI5074
aI51
aI803
aI42467
aI34
aI3994
aI63765
asg6
S'The term is derived both from the means of their manufacture  which involves the incorporation of additional elements to a standard atomic weapon  and from the expression "to salt the earth"  meaning to render an area uninhabitable for generations .'
p11
ss.