(dp1
S'input'
p2
(dp3
S'encoded'
p4
(lp5
I64
aI2179
aI13605
aI2258
aI45
aI2194
asS'ori'
p6
S'This house prefers trade to aid'
p7
ssS'output'
p8
(dp9
g4
(lp10
I130
aI24
aI2404
aI3888
aI45
aI3
aI1160
aI7
aI125
aI2445
aI1227
aI2037
aI75
aI77
aI78
aI24
aI5025
aI2022
aI63765
asg6
S'Poverty in Africa refers to the lack of basic human needs faced by certain people in African society .'
p11
ss.