(dp1
S'input'
p2
(dp3
S'encoded'
p4
(lp5
I64
aI2179
aI394
aI190
aI3
aI21
aI45
aI3895
aI834
asS'ori'
p6
S'This house would limit the right to bear arms'
p7
ssS'output'
p8
(dp9
g4
(lp10
I3
aI63537
aI5
aI211
aI5277
aI55
aI174
aI3531
aI3
aI22
aI1862
aI14
aI1237
aI2920
aI63538
aI61
aI134
aI3293
aI41
aI271
aI3002
aI3108
aI14
aI14795
aI3856
aI4387
aI41
aI261
aI41
aI1708
aI3
aI4283
aI5
aI211
aI5277
aI45
aI8791
aI34
aI99
aI3467
aI1609
aI89
aI3968
aI291
aI2611
aI708
aI249
aI451
aI24
aI3
aI626
aI187
aI5
aI120
aI4544
aI75
aI3
aI17335
aI2306
aI5
aI2494
aI3
aI5834
aI3081
aI24
aI327
aI41
aI261
aI41
aI248
aI7338
aI73
aI45125
aI3199
aI63
aI382
aI1890
aI17677
aI63765
asg6
S"The JPFO and its leadership has also criticized the NRA's political strategy on several occasions  lambasting what it views as their counterproductive focus on Capitol Hill lobbying  as well as taking the NRA and its leadership to task for not explicitly making a connection between gun control measures introduced in the United States and those implemented by the Weimar Republic and subsequently the Nazi regime in pre-war Germany  as well as other totalitarian  or ineffectual regimes that were eventually overthrown  ."
p11
ss.