(dp1
S'input'
p2
(dp3
S'encoded'
p4
(lp5
I64
aI2179
aI43
aI223
aI2138
aI11
aI89
aI21
aI45
aI2185
aI372
asS'ori'
p6
S'This house believes all nations have a right to nuclear weapons'
p7
ssS'output'
p8
(dp9
g4
(lp10
I273
aI116
aI207
aI96
aI967
aI3
aI285
aI34
aI1444
aI667
aI2185
aI5181
aI89
aI3713
aI34
aI3
aI10619
aI3715
aI63765
asg6
S'There is little support across the world for building new nuclear reactors  a 2011 poll for the BBC indicates .'
p11
ss.