(dp1
S'input'
p2
(dp3
S'encoded'
p4
(lp5
I64
aI2179
aI43
aI8629
aI116
aI3
aI117
aI998
asS'ori'
p6
S'This house believes atheism is the only way'
p7
ssS'output'
p8
(dp9
g4
(lp10
I10642
aI3888
aI45
aI3
aI3961
aI7
aI3
aI10039
aI41
aI4035
aI1191
aI3
aI1012
aI7
aI8440
aI63765
aI104
aI75
aI51
aI926
aI6495
aI5
aI31164
aI17541
aI2273
aI34644
aI81
aI45
aI89
aI34645
aI5
aI21294
aI4990
aI63765
asg6
S'Hitchens refers to The Passion of the Christ as "a soap-opera film about the death of Jesus [ . .] produced by an Australian fascist and ham actor named Mel Gibson"  who "adheres to a crackpot and schismatic Catholic sect" .'
p11
ss.