(dp1
S'input'
p2
(dp3
S'encoded'
p4
(lp5
I64
aI2179
aI394
aI16756
aI20435
asS'ori'
p6
S'This house would criminalize blasphemy'
p7
ssS'output'
p8
(dp9
g4
(lp10
I24
aI20485
aI646
aI5344
aI2022
aI14057
aI4138
aI20447
aI742
aI63
aI64
aI122
aI89
aI604
aI13853
aI89
aI2382
aI122
aI443
aI149
aI1856
aI45
aI11430
aI89
aI405
aI138
aI13853
aI51
aI2382
aI63765
asg6
S'In Bowman v Secular Society Ltd (1917)  Lord Sumner said that this was a "strange dictum" because insulting a Jew\'s religion was no less likely to provoke a fight than insulting an episcopalian\'s religion  .'
p11
ss.