(dp1
S'input'
p2
(dp3
S'encoded'
p4
(lp5
I64
aI2179
aI43
aI63
aI2157
aI2565
aI493
aI19084
aI382
aI4850
asS'ori'
p6
S"This house believes that Israel's 2008-2009 military operations against Gaza were justified"
p7
ssS'output'
p8
(dp9
g4
(lp10
I311
aI3
aI1643
aI413
aI3313
aI2820
aI45
aI1945
aI864
aI1928
aI4134
aI5
aI1928
aI2136
aI75
aI51
aI903
aI760
aI604
aI24
aI732
aI234
aI3
aI2157
aI1019
aI1945
aI2126
aI5
aI134
aI55
aI45
aI316
aI12955
aI6668
aI87
aI725
aI78
aI440
aI12
aI3178
aI63765
asg6
S'At the same time  she urged to check out every incident and every policy by an independent body  because in her view the military cannot check itself and it has to be explained why so many people had been killed  .'
p11
ss.