(dp1
S'input'
p2
(dp3
S'encoded'
p4
(lp5
I64
aI2179
aI43
aI63
aI3357
aI5003
aI652
aI3
aI188
aI3262
asS'ori'
p6
S'This house believes that opinion polls harm the democratic process'
p7
ssS'output'
p8
(dp9
g4
(lp10
I237
aI1545
aI75
aI10675
aI5
aI10676
aI116
aI1047
aI41
aI3168
aI63765
aI64
aI3168
aI7029
aI63
aI89
aI1849
aI45
aI89
aI3713
aI88
aI99
aI1637
aI60
aI271
aI3614
aI4642
aI7
aI3
aI4288
aI6260
aI63765
aI24
aI1849
aI3
aI7532
aI116
aI1856
aI45
aI1304
aI89
aI24
aI92
aI155
aI836
aI3398
aI34
aI89
aI852
aI73
aI951
aI24
aI3
aI5003
aI63765
aI64
aI139
aI6223
aI73
aI1546
aI271
aI3357
aI7
aI3
aI10484
aI5
aI508
aI1466
aI5334
aI10670
asg6
S'first described by Petty and Cacioppo (1996) is known as "cognitive response" theory . This theory asserts that a voter\'s response to a poll may not line with their initial conception of the electoral reality . In response  the voter is likely to generate a "mental list" in which they create reasons for a party\'s loss or gain in the polls . This can reinforce or change their opinion of the candidate and thus affect voting behaviour'
p11
ss.