(dp1
S'input'
p2
(dp3
S'encoded'
p4
(lp5
I64
aI2179
aI394
aI1499
aI177
aI1819
aI34
aI160
asS'ori'
p6
S'This house would build high rises for housing'
p7
ssS'output'
p8
(dp9
g4
(lp10
I3
aI11279
aI6766
aI182
aI153
aI14342
aI589
aI39480
aI63
aI182
aI820
aI311
aI93
aI312
aI63765
asg6
S'The apartment buildings are often arranged around courtyards that are open at one end .'
p11
ss.