(dp1
S'input'
p2
(dp3
S'encoded'
p4
(lp5
I64
aI2179
aI394
aI5370
aI7146
aI4585
aI2446
asS'ori'
p6
S'This house would abolish intellectual property rights'
p7
ssS'output'
p8
(dp9
g4
(lp10
I5267
aI1609
aI93
aI4163
aI11057
aI7
aI89
aI79
aI73
aI24
aI725
aI3052
aI270
aI89
aI968
aI7
aI134
aI34
aI2188
aI792
aI47
aI99
aI316
aI513
aI569
aI475
aI63765
asg6
S'Indeed making one complete copy of a work  or in many cases using a portion of it  for commercial purposes will not be considered fair use .'
p11
ss.