(dp1
S'input'
p2
(dp3
S'encoded'
p4
(lp5
I64
aI2179
aI394
aI5370
aI7146
aI4585
aI2446
asS'ori'
p6
S'This house would abolish intellectual property rights'
p7
ssS'output'
p8
(dp9
g4
(lp10
I64
aI1104
aI55
aI99
aI12
aI689
aI24
aI351
aI480
aI3348
aI7
aI3
aI626
aI187
aI3744
aI63765
asg6
S'This technique has not been recognized in any published opinions of the United States courts .'
p11
ss.