(dp1
S'input'
p2
(dp3
S'encoded'
p4
(lp5
I64
aI2179
aI43
aI63
aI6670
aI546
aI417
aI316
aI89
aI1334
aI3108
aI7
aI4849
aI1886
aI2855
asS'ori'
p6
S'This house believes that wind power should be a primary focus of future energy supply'
p7
ssS'output'
p8
(dp9
g4
(lp10
I2274
aI134
aI122
aI60
aI3
aI475
aI7
aI4477
aI34
aI5958
aI5135
aI14162
aI5
aI34
aI934
aI5
aI211
aI475
aI139
aI316
aI3958
aI611
aI311
aI870
aI2639
aI2439
aI63765
asg6
S'Initially it was with the use of fire for light  heat  cooking and for safety  and its use can be traced back at least 1 .9 million years  .'
p11
ss.