(dp1
S'input'
p2
(dp3
S'encoded'
p4
(lp5
I64
aI2179
aI394
aI5284
aI150
aI3987
asS'ori'
p6
S'This house would reintroduce national service'
p7
ssS'output'
p8
(dp9
g4
(lp10
I2029
aI127
aI1453
aI99
aI6750
aI86
aI5
aI63
aI3
aI582
aI2914
aI5458
aI45
aI120
aI81
aI1453
aI116
aI149
aI138
aI63765
asg6
S'Bill benefits do not receive them  and that the average net payment to those who do is less than $2200 .'
p11
ss.