(dp1
S'input'
p2
(dp3
S'encoded'
p4
(lp5
I64
aI2179
aI394
aI16756
aI20435
asS'ori'
p6
S'This house would criminalize blasphemy'
p7
ssS'output'
p8
(dp9
g4
(lp10
I257
aI357
aI382
aI45
aI11
aI89
aI696
aI7
aI18019
aI14
aI93
aI1379
aI134
aI394
aI316
aI4620
aI45
aI4883
aI45
aI3
aI78
aI89
aI2802
aI14
aI3
aI4185
aI7
aI3
aI2475
aI4955
aI45
aI20436
aI5
aI32884
aI18231
aI63765
asg6
S'If we were to have a number of referendums on one day  it would be appropriate to put to the people a question on the section of the Constitution relating to blasphemous and seditious libel .'
p11
ss.