(dp1
S'input'
p2
(dp3
S'encoded'
p4
(lp5
I64
aI2179
aI43
aI3
aI626
aI187
aI116
aI1989
aI34
aI3102
aI2223
asS'ori'
p6
S"This house believes the United States is responsible for Mexico's drugs war"
p7
ssS'output'
p8
(dp9
g4
(lp10
I2445
aI2446
aI3601
aI4330
aI13733
aI5
aI248
aI6580
aI11
aI403
aI3
aI3524
aI7
aI4747
aI291
aI2789
aI7
aI3
aI8793
aI2157
aI5
aI3
aI23436
aI92
aI3
aI2145
aI63765
aI260
aI55
aI7872
aI41
aI89
aI7214
aI94
aI5
aI63
aI8793
aI2157
aI2640
aI11
aI860
aI2445
aI2446
aI3147
aI92
aI394
aI163
aI86
aI6604
aI34
aI2145
aI63765
aI2194
aI459
aI912
aI2511
aI63765
asg6
S'Human Rights Watch  congressional committees and other entities have documented the existence of connections between members of the Colombian military and the AUC  which the U .S . government has listed as a terrorist group  and that Colombian military personnel have committed human rights abuses which would make them ineligible for U .S . aid under current laws .'
p11
ss.