(dp1
S'input'
p2
(dp3
S'encoded'
p4
(lp5
I64
aI2179
aI394
aI60
aI23587
asS'ori'
p6
S'This house would re-engage with Myanmar'
p7
ssS'output'
p8
(dp9
g4
(lp10
I1592
aI1546
aI24
aI2136
aI3
aI705
aI5
aI1825
aI223
aI3
aI2025
aI5
aI22614
aI20
aI3
aI1260
aI3118
aI4317
aI5
aI2062
aI3
aI2145
aI63765
aI4276
aI34
aI3118
aI92
aI3232
aI3
aI1260
aI3118
aI3851
aI4160
aI5
aI189
aI63765
asg6
S"Following Zarni's change in policy  the staff and virtually all the group's supporters and funders left the Free Burma Coalition and founded the U .S . Campaign for Burma  which maintains the Free Burma Coalition's original mission and policies ."
p11
ss.