(dp1
S'input'
p2
(dp3
S'encoded'
p4
(lp5
I64
aI2179
aI43
aI223
aI2138
aI11
aI89
aI21
aI45
aI2185
aI372
asS'ori'
p6
S'This house believes all nations have a right to nuclear weapons'
p7
ssS'output'
p8
(dp9
g4
(lp10
I159
aI2203
aI394
aI99
aI11
aI3
aI22
aI47
aI73
aI710
aI45
aI2169
aI44
aI311
aI5254
aI773
aI1645
aI45
aI89
aI3059
aI171
aI63765
asg6
S'Such countries would not have the political will or ability to safeguard attempts at devices being transferred to a third party .'
p11
ss.