(dp1
S'input'
p2
(dp3
S'encoded'
p4
(lp5
I64
aI2179
aI394
aI15841
aI2736
asS'ori'
p6
S'This house would disband ASEAN'
p7
ssS'output'
p8
(dp9
g4
(lp10
I60
aI1260
aI17491
aI887
aI2736
aI2203
aI89
aI5619
aI4564
aI458
aI5
aI14
aI3
aI21
aI6903
aI45
aI687
aI51
aI2736
aI2178
aI24
aI3
aI2439
aI45
aI2118
aI63765
asg6
S'with free visa among ASEAN countries  a huge intra-ASEAN travel occurred and on the right track to establish an ASEAN Community in the years to come .'
p11
ss.