(dp1
S'input'
p2
(dp3
S'encoded'
p4
(lp5
I64
aI2179
aI394
aI2017
aI3807
aI314
aI3433
asS'ori'
p6
S'This house would ban partial birth abortions'
p7
ssS'output'
p8
(dp9
g4
(lp10
I3
aI2483
aI742
aI63
aI3
aI979
aI3744
aI440
aI27858
aI89
aI2609
aI14442
aI7
aI3774
aI63
aI3
aI10
aI55
aI51
aI376
aI24
aI3462
aI3460
aI3269
aI5
aI3
aI2483
aI557
aI63
aI3
aI2017
aI791
aI63
aI376
aI87
aI41
aI99
aI45
aI836
aI51
aI16530
aI4912
aI63765
asg6
S'The Court said that the lower courts had repudiated a central premise of Casey  that the state has an interest in preserving fetal life  and the Court held that the ban fit that interest so as not to create an undue burden .'
p11
ss.