(dp1
S'input'
p2
(dp3
S'encoded'
p4
(lp5
I64
aI2179
aI394
aI16642
aI1376
aI5269
asS'ori'
p6
S'This house would subsidize poor communities'
p7
ssS'output'
p8
(dp9
g4
(lp10
I100
aI5019
aI159
aI41
aI2204
aI11895
aI6037
aI351
aI159
aI1362
aI63765
asg6
S'Some economists  such as Robert Lawrence  dispute any such relationship .'
p11
ss.