(dp1
S'input'
p2
(dp3
S'encoded'
p4
(lp5
I64
aI2179
aI43
aI63
aI1036
aI4828
aI33250
aI116
aI25073
aI45
aI3315
aI4562
asS'ori'
p6
S'This house believes that male infant circumcision is tantamount to child abuse'
p7
ssS'output'
p8
(dp9
g4
(lp10
I24
aI4741
aI20336
aI37830
aI20776
aI5
aI37831
aI11
aI104
aI37832
aI33313
aI5
aI37135
aI86
aI14
aI37833
aI63765
asg6
S'In 2009 researchers Chen  Eberli  Yoo and Atala have produced bioengineered penises and implanted them on rabbits  .'
p11
ss.