(dp1
S'input'
p2
(dp3
S'encoded'
p4
(lp5
I64
aI2179
aI394
aI5284
aI150
aI3987
asS'ori'
p6
S'This house would reintroduce national service'
p7
ssS'output'
p8
(dp9
g4
(lp10
I5834
aI327
aI4354
aI134
aI5835
aI5
aI2100
aI1980
aI41
aI5615
aI41
aI5
aI41
aI5545
aI41
aI63765
asg6
S'Nazi Germany termed it Volkssturm ("People\'s Storm") and included men as young as 16 and as old as 60  .'
p11
ss.