(dp1
S'input'
p2
(dp3
S'encoded'
p4
(lp5
I64
aI2179
aI13605
aI2258
aI45
aI2194
asS'ori'
p6
S'This house prefers trade to aid'
p7
ssS'output'
p8
(dp9
g4
(lp10
I725
aI2899
aI5
aI2936
aI220
aI47
aI11
aI45
aI163
aI2034
aI2438
aI257
aI3
aI17972
aI11648
aI182
aI45
aI316
aI17973
aI63765
asg6
S'Many donor and recipient governments will have to make serious changes if the AAAs aims are to be fulfilled .'
p11
ss.