(dp1
S'input'
p2
(dp3
S'encoded'
p4
(lp5
I64
aI2179
aI43
aI63
aI11083
aI10046
aI417
aI316
aI89
aI3135
aI4603
asS'ori'
p6
S'This house believes that Holocaust denial should be a criminal offence'
p7
ssS'output'
p8
(dp9
g4
(lp10
I114
aI11466
aI55
aI12
aI153
aI5523
aI34
aI25
aI3419
aI1191
aI3
aI3398
aI34
aI3
aI11080
aI1012
aI13611
aI25
aI26
aI98
aI99
aI4934
aI3
aI11083
aI41
aI11083
aI42590
aI153
aI103
aI63765
asg6
S'Though Mayer has been often condemned for his statement about the reasons for the Auschwitz death toll  his book does not deny the Holocaust as Holocaust deniers often claim  .'
p11
ss.