(dp1
S'input'
p2
(dp3
S'encoded'
p4
(lp5
I64
aI2179
aI43
aI8629
aI116
aI3
aI117
aI998
asS'ori'
p6
S'This house believes atheism is the only way'
p7
ssS'output'
p8
(dp9
g4
(lp10
I100
aI2879
aI475
aI18569
aI24
aI3
aI2498
aI7
aI55891
aI63765
asg6
S'Some sources use agnostic in the sense of noncommittal  .'
p11
ss.