(dp1
S'input'
p2
(dp3
S'encoded'
p4
(lp5
I64
aI2179
aI43
aI63
aI3
aI28431
aI7
aI2157
aI4624
aI75
aI39939
aI27257
aI122
aI4850
asS'ori'
p6
S'This house believes that the leaking of military documents by Anat Kamm was justified'
p7
ssS'output'
p8
(dp9
g4
(lp10
I24
aI448
aI4624
aI60
aI64
aI6017
aI8088
aI34
aI843
aI1375
aI1972
aI656
aI60
aI56166
aI34
aI7147
aI6241
aI63765
asg6
S"In general documents with this classification  aren't cleared for internet-transmission either  unless clearly marked with RELEASABLE FOR INTERNET TRANSMISSION ."
p11
ss.