(dp1
S'input'
p2
(dp3
S'encoded'
p4
(lp5
I64
aI2179
aI43
aI63
aI3
aI4538
aI7
aI4434
aI7793
aI283
aI45
aI3586
aI417
aI316
aI577
asS'ori'
p6
S'This house believes that the sale of violent video games to minors should be banned'
p7
ssS'output'
p8
(dp9
g4
(lp10
I283
aI159
aI41
aI10095
aI5
aI56997
aI34
aI6396
aI11
aI3009
aI45
aI1292
aI4453
aI7
aI2617
aI75
aI270
aI3
aI56998
aI16011
aI60
aI2321
aI159
aI41
aI1970
aI20472
aI6408
aI366
aI3
aI18828
aI63
aI14999
aI11806
aI864
aI7
aI271
aI12053
aI73
aI22484
aI10782
aI56999
aI3871
aI45
aI57000
aI2767
aI248
aI5711
aI34506
aI283
aI159
aI41
aI8547
aI2223
aI11
aI3629
aI3
aI845
aI75
aI15359
aI3
aI234
aI63
aI4850
aI2617
aI116
aI4725
aI4713
aI63765
asg6
S'Games such as Revelation 7 and Xibalba  for instance  have attempted to avoid claims of violence by using "off the wall" absurdist humor with enemies such as flying  bat-winged clown heads (modeled after the biblical Jezebel) that shoot rays out of their nose  or alien Nazis (a mocking reference to Raelian religious beliefs) Other Christian FPS games such as Eternal War have avoided the issue by expressing the view that justified violence is morally acceptable  .'
p11
ss.