(dp1
S'input'
p2
(dp3
S'encoded'
p4
(lp5
I64
aI2179
aI43
aI63
aI323
aI417
aI10009
aI211
aI9035
aI249
aI45
aI3426
aI211
aI2144
aI595
aI17
aI96
asS'ori'
p6
S'This house believes that Europe should weaken its austerity measures to guarantee its citizens greater social support'
p7
ssS'output'
p8
(dp9
g4
(lp10
I1558
aI100
aI5019
aI186
aI63
aI8872
aI2158
aI116
aI2867
aI843
aI45
aI836
aI3
aI137
aI2855
aI73
aI45
aI4824
aI3497
aI34
aI8907
aI24
aI6966
aI7
aI61
aI139
aI316
aI8908
aI75
aI3249
aI2573
aI63765
asg6
S'Conversely  some Post-Keynesian economists argue that deficit spending is necessary  either to create the money supply (Chartalism) or to satisfy demand for savings in excess of what can be satisfied by private investment .'
p11
ss.