(dp1
S'input'
p2
(dp3
S'encoded'
p4
(lp5
I64
aI2179
aI43
aI3
aI626
aI187
aI116
aI1989
aI34
aI3102
aI2223
asS'ori'
p6
S"This house believes the United States is responsible for Mexico's drugs war"
p7
ssS'output'
p8
(dp9
g4
(lp10
I89
aI968
aI7
aI3
aI3592
aI459
aI3
aI8673
aI2345
aI47
aI316
aI5162
aI117
aI257
aI3
aI2145
aI63765
aI2159
aI7
aI10
aI2962
aI63
aI2299
aI8835
aI3
aI475
aI7
aI8836
aI63
aI55
aI12
aI4867
aI620
aI8798
aI89
aI2136
aI63
aI116
aI24
aI1637
aI60
aI1157
aI70
aI131
aI153
aI116
aI99
aI2778
aI63765
asg6
S'A portion of the funding under the Merida Initiative will be released only if the U .S . Secretary of State reports that Mexico bars the use of testimony that has been obtained through torture  a policy that is in line with Mexican law but often is not observed  .'
p11
ss.