(dp1
S'input'
p2
(dp3
S'encoded'
p4
(lp5
I64
aI2179
aI43
aI63
aI187
aI417
aI99
aI16642
aI3
aI6449
aI7
aI3935
asS'ori'
p6
S'This house believes that states should not subsidize the growing of tobacco'
p7
ssS'output'
p8
(dp9
g4
(lp10
I24
aI481
aI2962
aI382
aI5162
aI75
aI3
aI94
aI7074
aI282
aI176
aI63
aI3315
aI203
aI122
aI279
aI14
aI18973
aI7
aI7
aI3
aI2764
aI3935
aI6738
aI63765
asg6
S'In late 2009 reports were released by the London-based human-rights group Plan International  claiming that child labor was common on Malawi (producer of 1 .8% of the worlds tobacco) tobacco farms .'
p11
ss.