(dp1
S'input'
p2
(dp3
S'encoded'
p4
(lp5
I64
aI2179
aI394
aI2017
aI262
asS'ori'
p6
S'This house would ban boxing'
p7
ssS'output'
p8
(dp9
g4
(lp10
I395
aI155
aI5841
aI3
aI22437
aI7
aI21055
aI73
aI3
aI2934
aI73
aI400
aI3
aI7158
aI223
aI3909
aI25
aI16015
aI34
aI50514
aI524
aI5
aI50515
aI1931
aI19
aI25
aI1069
aI63765
asg6
S"Later  they tried the Knight of Lightning or the Fox or  sometimes  the Pirate  all celebrating his knack for snatching points and peeling away from his opponents' reach ."
p11
ss.