(dp1
S'input'
p2
(dp3
S'encoded'
p4
(lp5
I64
aI2179
aI43
aI63
aI3376
aI4938
aI417
aI316
aI3537
asS'ori'
p6
S'This house believes that endangered species should be protected'
p7
ssS'output'
p8
(dp9
g4
(lp10
I34
aI1343
aI3
aI8176
aI8177
aI6619
aI5
aI3
aI8178
aI7
aI3
aI2403
aI4395
aI440
aI7801
aI8179
aI442
aI5
aI2051
aI887
aI5749
aI60
aI3236
aI45
aI3
aI4494
aI7
aI8180
aI8181
aI63765
asg6
S'For example  the Alaskan Tlingit peoples and the Haida of the Pacific Northwest had resource boundaries  rules  and restrictions among clans with respect to the fishing of Sockeye Salmon .'
p11
ss.