(dp1
S'input'
p2
(dp3
S'encoded'
p4
(lp5
I64
aI2179
aI43
aI63
aI1036
aI4828
aI33250
aI116
aI25073
aI45
aI3315
aI4562
asS'ori'
p6
S'This house believes that male infant circumcision is tantamount to child abuse'
p7
ssS'output'
p8
(dp9
g4
(lp10
I24
aI100
aI8175
aI5349
aI83
aI316
aI33242
aI680
aI366
aI314
aI397
aI8544
aI73
aI589
aI26489
aI41
aI759
aI7
aI89
aI5990
aI7
aI4342
aI63765
asg6
S'In some cultures  males must be circumcised shortly after birth  during childhood  or around puberty as part of a rite of passage .'
p11
ss.