(dp1
S'input'
p2
(dp3
S'encoded'
p4
(lp5
I64
aI2179
aI43
aI24
aI3
aI475
aI7
aI12436
aI3364
asS'ori'
p6
S'This house believes in the use of affirmative action'
p7
ssS'output'
p8
(dp9
g4
(lp10
I397
aI285
aI2223
aI2236
aI3
aI626
aI187
aI123
aI28918
aI2424
aI34
aI2692
aI1560
aI2144
aI24
aI2384
aI63
aI155
aI394
aI316
aI416
aI41
aI4252
aI34
aI3
aI2692
aI63765
asg6
S'During World War II  the United States created internment camps for Japanese American citizens in fear that they would be used as spies for the Japanese  .'
p11
ss.