(dp1
S'input'
p2
(dp3
S'encoded'
p4
(lp5
I64
aI2179
aI43
aI63
aI3
aI28431
aI7
aI2157
aI4624
aI75
aI39939
aI27257
aI122
aI4850
asS'ori'
p6
S'This house believes that the leaking of military documents by Anat Kamm was justified'
p7
ssS'output'
p8
(dp9
g4
(lp10
I3
aI901
aI9436
aI63
aI134
aI9748
aI31016
aI3
aI897
aI31017
aI5
aI122
aI99
aI12403
aI45
aI3
aI20389
aI3685
aI73
aI3
aI31018
aI14414
aI3
aI7066
aI1966
aI8893
aI3611
aI25
aI29076
aI2175
aI75
aI1609
aI3
aI103
aI134
aI423
aI350
aI34
aI2223
aI4212
aI20505
aI63765
asg6
S'" The Post commented that it hardly merited the media hype and was not comparable to the Pentagon Papers or the MfS files The editorial argued Wikileaks\' founder revealed his organization\'s antiwar agenda by making the claim it contained evidence for war crimes prosecutions  .'
p11
ss.