(dp1
S'input'
p2
(dp3
S'encoded'
p4
(lp5
I64
aI2179
aI43
aI63
aI2659
aI417
aI1690
aI3
aI12048
aI7
aI19084
asS'ori'
p6
S'This house believes that Israel should lift the blockade of Gaza'
p7
ssS'output'
p8
(dp9
g4
(lp10
I3
aI3500
aI4453
aI63
aI3
aI873
aI691
aI51
aI4134
aI63
aI3
aI24839
aI4993
aI134
aI11591
aI55
aI3818
aI25
aI1059
aI45
aI12304
aI60
aI19122
aI29801
aI5
aI20403
aI29953
aI24
aI1889
aI3
aI8446
aI10
aI3089
aI2459
asg6
S'The article claims that "In the days since an incident that the IHH admits it provoked [Erdogan] has done his best to compete with Iran\'s Mahmoud Ahmadinejad and Hezbollah\'s Hassan Nasrallah in attacking the Jewish state [and calling] Israel\'s actions \'state terrorism .\''
p11
ss.