(dp1
S'input'
p2
(dp3
S'encoded'
p4
(lp5
I64
aI2179
aI43
aI17
aI4941
aI857
aI3211
asS'ori'
p6
S'This house believes social deprivation causes crime'
p7
ssS'output'
p8
(dp9
g4
(lp10
I64
aI783
aI174
aI1501
aI44331
aI8278
aI45
aI2083
aI12423
aI5
aI3437
aI86
aI45
aI10375
aI45
aI975
aI271
aI1392
aI24
aI3
aI667
aI1685
aI63765
asg6
S'This step also includes adapting programmes to local contexts and subjecting them to rigorous re-evaluation to ensure their effectiveness in the new setting .'
p11
ss.