(dp1
S'input'
p2
(dp3
S'encoded'
p4
(lp5
I64
aI2179
aI394
aI4325
aI2042
aI270
aI89
aI11605
aI3324
asS'ori'
p6
S'This house would fund education using a voucher scheme'
p7
ssS'output'
p8
(dp9
g4
(lp10
I24
aI96
aI7
aI2240
aI4662
aI5
aI2083
aI708
aI7
aI2042
aI42
aI55
aI451
aI736
aI1928
aI2221
aI691
aI249
aI45
aI124
aI5743
aI60
aI2042
aI4262
aI10781
aI63765
asg6
S'In support of school choice and local control of education  he has introduced into every Congress since 1997 measures to provide families with education tax credits  .'
p11
ss.