(dp1
S'input'
p2
(dp3
S'encoded'
p4
(lp5
I64
aI2179
aI43
aI63
aI2659
aI417
aI1690
aI3
aI12048
aI7
aI19084
asS'ori'
p6
S'This house believes that Israel should lift the blockade of Gaza'
p7
ssS'output'
p8
(dp9
g4
(lp10
I117
aI571
aI395
aI3
aI19187
aI2586
aI3
aI15185
aI19093
aI60
aI3281
aI3989
aI5
aI89
aI3059
aI11276
aI7
aI455
aI63765
asg6
S'Only 15 minutes later the commandos began the ship takeover with live ammunition and a third team of fighters .'
p11
ss.