(dp1
S'input'
p2
(dp3
S'encoded'
p4
(lp5
I64
aI2179
aI43
aI63
aI3357
aI5003
aI652
aI3
aI188
aI3262
asS'ori'
p6
S'This house believes that opinion polls harm the democratic process'
p7
ssS'output'
p8
(dp9
g4
(lp10
I51
aI3357
aI3713
aI400
aI1032
aI401
aI45
aI41
aI89
aI3713
aI116
aI89
aI4370
aI7
aI658
aI3357
aI19
aI89
aI1341
aI7028
aI63765
asg6
S'An opinion poll  sometimes simply referred to as a poll  is a survey of public opinion from a particular sample .'
p11
ss.