(dp1
S'input'
p2
(dp3
S'encoded'
p4
(lp5
I64
aI2179
aI43
aI63
aI3
aI21
aI45
aI12715
aI417
aI99
aI316
aI2897
asS'ori'
p6
S'This house believes that the right to asylum should not be absolute'
p7
ssS'output'
p8
(dp9
g4
(lp10
I3
aI350
aI7
aI40
aI9083
aI667
aI2280
aI382
aI1587
aI122
aI2396
aI24
aI89
aI5399
aI2802
aI19
aI92
aI1442
aI3
aI14576
aI7279
aI63
aI78
aI440
aI12
aI3141
aI12704
aI24
aI3
aI3130
aI3131
aI34
aI7165
aI1968
aI9107
aI5
aI78
aI440
aI12
aI794
aI41
aI1968
aI23530
aI63765
asg6
S'The evidence of how badly new powers were needed was provided in a parliamentary question from 1972 which gave the bald facts that 13 people had been successfully prosecuted in the previous 12 months for facilitating illegal entry and 10 people had been treated as illegal entrants  .'
p11
ss.