(dp1
S'input'
p2
(dp3
S'encoded'
p4
(lp5
I64
aI2179
aI394
aI2773
aI12505
asS'ori'
p6
S'This house would embrace multiculturalism'
p7
ssS'output'
p8
(dp9
g4
(lp10
I25789
aI7029
aI63
aI64
aI12174
aI4902
aI7
aI2646
aI5307
aI5195
aI640
aI19
aI89
aI2498
aI7
aI19381
aI289
aI3
aI2790
aI2223
aI131
aI174
aI5272
aI13824
aI234
aI63
aI136
aI2258
aI60
aI2646
aI2203
aI394
aI2118
aI60
aI89
aI2597
aI2646
aI2598
aI63765
asg6
S"Blainey asserts that this preferential treatment of Asian immigrants partly arose from a sense of guilt over the Vietnam War  but also reflected Canberra's misguided view that more trade with Asian countries would come with a larger Asian population ."
p11
ss.