(dp1
S'input'
p2
(dp3
S'encoded'
p4
(lp5
I64
aI2179
aI394
aI16756
aI20435
asS'ori'
p6
S'This house would criminalize blasphemy'
p7
ssS'output'
p8
(dp9
g4
(lp10
I132
aI2120
aI163
aI3
aI1068
aI34
aI392
aI2819
aI887
aI5
aI291
aI5269
aI7
aI384
aI9648
aI5
aI5462
aI7
aI384
aI2203
aI223
aI3
aI136
aI2842
aI63765
asg6
S'These events make the need for renewed dialogue  among and between communities of different faiths and authorities of different countries  all the more urgent .'
p11
ss.