(dp1
S'input'
p2
(dp3
S'encoded'
p4
(lp5
I64
aI2179
aI394
aI190
aI3
aI21
aI45
aI3895
aI834
asS'ori'
p6
S'This house would limit the right to bear arms'
p7
ssS'output'
p8
(dp9
g4
(lp10
I691
aI3
aI481
aI398
aI60
aI292
aI1277
aI3052
aI19
aI3
aI681
aI3
aI2482
aI2483
aI1934
aI743
aI63
aI3
aI1950
aI3264
aI3
aI2029
aI7
aI4488
aI117
aI3
aI2503
aI2221
aI5
aI99
aI3
aI187
aI24
aI3
aI54
aI7
aI1374
aI63765
asg6
S'Since the late 19th century  with three key cases from the pre-incorporation era  the Supreme Court consistently ruled that the Second Amendment (and the Bill of Rights) restricts only the federal Congress  and not the States  in the regulation of guns  .'
p11
ss.