(dp1
S'input'
p2
(dp3
S'encoded'
p4
(lp5
I64
aI2179
aI394
aI2017
aI223
aI9058
aI23653
asS'ori'
p6
S'This house would ban all unsustainable logging'
p7
ssS'output'
p8
(dp9
g4
(lp10
I397
aI64
aI639
aI33994
aI6754
aI373
aI2601
aI7668
aI63765
asg6
S'During this period mechanized farming became increasingly attractive  .'
p11
ss.