(dp1
S'input'
p2
(dp3
S'encoded'
p4
(lp5
I64
aI2179
aI13605
aI2258
aI45
aI2194
asS'ori'
p6
S'This house prefers trade to aid'
p7
ssS'output'
p8
(dp9
g4
(lp10
I93
aI3728
aI7
aI64
aI2136
aI18999
aI116
aI3
aI1620
aI45
aI2891
aI2910
aI480
aI75
aI3
aI1863
aI34
aI2148
aI2891
aI63765
asg6
S'One measure of this policy incoherence is the Commitment to Development Index (CDI) published by the Center for Global Development  .'
p11
ss.