(dp1
S'input'
p2
(dp3
S'encoded'
p4
(lp5
I64
aI2179
aI43
aI63
aI134
aI116
aI400
aI21
aI34
aI3
aI260
aI45
aI3439
aI57
aI7
aI2381
asS'ori'
p6
S'This house believes that it is sometimes right for the government to restrict freedom of speech'
p7
ssS'output'
p8
(dp9
g4
(lp10
I366
aI3
aI4035
aI122
aI729
aI2410
aI4674
aI4268
aI32926
aI5162
aI134
aI5955
aI3
aI237
aI6396
aI7
aI51
aI27661
aI2544
aI3098
aI14211
aI89
aI4035
aI63
aI11
aI51
aI4268
aI16107
aI63765
asg6
S"After the film was denied Production Code approval  MGM released it anyway  the first instance of an MPAA member company distributing a film that didn't have an approval certificate ."
p11
ss.