(dp1
S'input'
p2
(dp3
S'encoded'
p4
(lp5
I64
aI2179
aI394
aI5370
aI3
aI5286
asS'ori'
p6
S'This house would abolish the monarchy'
p7
ssS'output'
p8
(dp9
g4
(lp10
I3
aI878
aI6485
aI24
aI407
aI116
aI10421
aI6257
aI63765
asg6
S"The Sovereign's official residence in London is Buckingham Palace ."
p11
ss.