(dp1
S'input'
p2
(dp3
S'encoded'
p4
(lp5
I64
aI2179
aI43
aI63
aI187
aI417
aI99
aI16642
aI3
aI6449
aI7
aI3935
asS'ori'
p6
S'This house believes that states should not subsidize the growing of tobacco'
p7
ssS'output'
p8
(dp9
g4
(lp10
I626
aI187
aI7494
aI5
aI112
aI96
aI1047
aI2507
aI41
aI7408
aI14439
aI2824
aI864
aI7
aI8139
aI6677
aI112
aI5
aI2351
aI3214
aI92
aI2425
aI45
aI657
aI22
aI4859
aI63
aI3
aI192
aI145
aI122
aI99
aI4833
aI45181
aI6677
aI78
aI34
aI271
aI7408
aI16287
aI63765
asg6
S'United States price and income support  known otherwise as agricultural subsidy  grew out of acute farm income and financial crises  which led to widespread political beliefs that the market system was not adequately rewarding farm people for their agricultural commodities .'
p11
ss.