(dp1
S'input'
p2
(dp3
S'encoded'
p4
(lp5
I64
aI2179
aI43
aI24
aI3
aI475
aI7
aI12436
aI3364
asS'ori'
p6
S'This house believes in the use of affirmative action'
p7
ssS'output'
p8
(dp9
g4
(lp10
I2478
aI159
aI41
aI2869
aI13013
aI11
aI3444
aI63
aI443
aI4758
aI12938
aI55
aI89
aI21
aI45
aI7590
aI63
aI89
aI4750
aI47
aI4537
aI211
aI12912
aI189
aI24
aI89
aI998
aI63
aI13171
aI351
aI1341
aI1629
aI7
aI16112
aI63765
asg6
S'Scholars such as Ronald Dworkin have asserted that no college applicant has a right to expect that a university will design its admissions policies in a way that prizes any particular set of qualities  .'
p11
ss.