(dp1
S'input'
p2
(dp3
S'encoded'
p4
(lp5
I64
aI2179
aI394
aI5284
aI150
aI3987
asS'ori'
p6
S'This house would reintroduce national service'
p7
ssS'output'
p8
(dp9
g4
(lp10
I3876
aI2981
aI63
aI4374
aI2642
aI89
aI2639
aI5307
aI382
aI555
aI1854
aI3
aI2157
aI45
aI949
aI477
aI3808
aI63
aI427
aI2812
aI3802
aI736
aI404
aI63765
asg6
S'Ford (1997) shows that nearly half a million immigrants were drafted  forcing the military to develop training procedures that took ethnic differences into account .'
p11
ss.