(dp1
S'input'
p2
(dp3
S'encoded'
p4
(lp5
I64
aI2179
aI394
aI2773
aI12505
asS'ori'
p6
S'This house would embrace multiculturalism'
p7
ssS'output'
p8
(dp9
g4
(lp10
I15608
aI15608
aI122
aI3
aI237
aI2023
aI10326
aI45
aI3442
aI2474
aI14
aI12505
aI63765
asg6
S'Saskatchewan Saskatchewan was the first Canadian province to adopt legislation on multiculturalism  .'
p11
ss.