(dp1
S'input'
p2
(dp3
S'encoded'
p4
(lp5
I64
aI2179
aI394
aI190
aI3
aI21
aI45
aI3895
aI834
asS'ori'
p6
S'This house would limit the right to bear arms'
p7
ssS'output'
p8
(dp9
g4
(lp10
I3
aI1010
aI706
aI10545
aI182
aI9066
aI75
aI3
aI68
aI63
aI248
aI282
aI3802
aI41
aI126
aI7
aI1968
aI2613
aI3139
aI73
aI126
aI7
aI4526
aI14
aI631
aI88
aI17360
aI3
aI73
aI3802
aI41
aI89
aI2878
aI7
aI4900
aI24
aI4434
aI3211
aI2994
aI63765
asg6
S'The internationally controlled comparisons are flawed by the fact that other international differences (such as level of illegal drug trafficking or level of civil-rights limitations on police surveillance) may overwhelm the gun-restriction or gun-ownership differences as a source of difference in violent crime rate  .'
p11
ss.