(dp1
S'input'
p2
(dp3
S'encoded'
p4
(lp5
I64
aI2179
aI394
aI2773
aI12505
asS'ori'
p6
S'This house would embrace multiculturalism'
p7
ssS'output'
p8
(dp9
g4
(lp10
I3
aI10648
aI7058
aI42
aI742
aI342
aI63
aI2330
aI2022
aI83
aI1069
aI89
aI886
aI14
aI211
aI3527
aI5
aI89
aI6743
aI3440
aI7
aI2755
aI12507
asg6
S'The cartoon protests  he said  show that German society must reach a consensus on its "foundational values and a minimal standard of value orientation ."'
p11
ss.