(dp1
S'input'
p2
(dp3
S'encoded'
p4
(lp5
I64
aI2179
aI43
aI63
aI3
aI4538
aI7
aI4434
aI7793
aI283
aI45
aI3586
aI417
aI316
aI577
asS'ori'
p6
S'This house believes that the sale of violent video games to minors should be banned'
p7
ssS'output'
p8
(dp9
g4
(lp10
I311
aI3
aI1643
aI413
aI3495
aI182
aI174
aI333
aI24
aI21061
aI2210
aI4692
aI63
aI182
aI162
aI3365
aI45
aI10953
aI24
aI92
aI3
aI3833
aI3185
aI111
aI18899
aI73
aI959
aI9156
aI73
aI111
aI3492
aI3874
aI2864
aI63765
asg6
S'At the same time  women are also depicted in stereotypical role s that are usually related to sexuality in which the woman focuses upon beauty or physical attractiveness or upon traditional family roles  .'
p11
ss.