(dp1
S'input'
p2
(dp3
S'encoded'
p4
(lp5
I64
aI2179
aI43
aI223
aI2138
aI11
aI89
aI21
aI45
aI2185
aI372
asS'ori'
p6
S'This house believes all nations have a right to nuclear weapons'
p7
ssS'output'
p8
(dp9
g4
(lp10
I273
aI116
aI89
aI1411
aI1191
aI4849
aI10584
aI131
aI113
aI257
aI1198
aI11588
aI45
aI73
aI3
aI3091
aI155
aI47
aI4749
aI1198
aI155
aI182
aI637
aI869
aI73
aI863
aI2439
aI1931
aI19
aI89
aI1942
aI63765
asg6
S"there is a concern about Iran's future intentions  but even if you talk to MI6 or the CIA  they will tell you they are still four or five years away from a weapon ."
p11
ss.