(dp1
S'input'
p2
(dp3
S'encoded'
p4
(lp5
I64
aI2179
aI394
aI117
aI7428
aI21151
aI34
aI11389
aI2042
aI24
aI4364
asS'ori'
p6
S'This house would only teach abstinence for sex education in schools'
p7
ssS'output'
p8
(dp9
g4
(lp10
I4750
aI7
aI3572
aI4741
aI55934
aI60
aI55935
aI353
aI63
aI193
aI160
aI5
aI96
aI3205
aI34
aI9419
aI14759
aI5136
aI149
aI138
aI4527
aI86
aI14
aI3
aI1193
aI53
aI137
aI2605
aI1636
aI631
aI5
aI5148
aI3217
aI85
aI63765
asg6
S'University of Washington researchers  partnering with DESC  found that providing housing and support services for homeless alcoholics costs tax-payers less than leaving them on the street  where tax-payer money goes towards police and emergency health care .'
p11
ss.