(dp1
S'input'
p2
(dp3
S'encoded'
p4
(lp5
I64
aI2179
aI394
aI2017
aI262
asS'ori'
p6
S'This house would ban boxing'
p7
ssS'output'
p8
(dp9
g4
(lp10
I641
aI1074
aI1075
aI1076
aI1077
aI1078
aI1079
aI1080
aI1081
aI1082
aI1083
aI1084
aI1085
aI1086
aI1087
aI1088
aI1089
aI1090
aI1091
aI1092
aI1093
aI63765
aI1094
aI1095
aI5
aI1096
aI1097
aI1098
aI63765
asg6
S'Notable out-fighters include Muhammad Ali  Salvador Sanchez  Gene Tunney  Ezzard Charles  Willie Pep  Meldrick Taylor  Ricardo Lopez  Larry Holmes  Roy Jones  Jr .  Joe Calzaghe  and Sugar Ray Leonard .'
p11
ss.