(dp1
S'input'
p2
(dp3
S'encoded'
p4
(lp5
I64
aI2179
aI394
aI2741
aI3
aI1560
aI6025
aI2784
asS'ori'
p6
S'This house would pass the American Jobs Act'
p7
ssS'output'
p8
(dp9
g4
(lp10
I93
aI943
aI2576
aI9276
aI24
aI667
aI2086
aI10497
aI5139
aI89
aI1379
aI19
aI2625
aI3820
aI6025
aI24
aI3
aI943
aI2131
aI63765
asg6
S'One Soviet trading corporation in New York averaged 350 applications a day from Americans seeking jobs in the Soviet Union  .'
p11
ss.