(dp1
S'input'
p2
(dp3
S'encoded'
p4
(lp5
I64
aI2179
aI394
aI4261
aI8667
aI3
aI9361
aI5
aI17069
asS'ori'
p6
S'This house would prohibit burning the stars and stripes'
p7
ssS'output'
p8
(dp9
g4
(lp10
I3313
aI353
aI63
aI3
aI582
aI5
aI4979
aI3485
aI7
aI3
aI1980
aI122
aI5
aI63
aI292
aI864
aI7
aI869
aI415
aI19
aI14131
aI3651
aI73
aI9953
aI4750
aI63765
asg6
S'She found that the average and mean age of the men was 22  and that three out of four came from Harvard  Yale  or Boston University  .'
p11
ss.