(dp1
S'input'
p2
(dp3
S'encoded'
p4
(lp5
I64
aI2179
aI394
aI60
aI23587
asS'ori'
p6
S'This house would re-engage with Myanmar'
p7
ssS'output'
p8
(dp9
g4
(lp10
I89
aI905
aI2973
aI63
aI3
aI2157
aI394
aI1222
aI45
aI18302
aI2800
aI38214
aI75
aI5005
aI271
aI8315
aI45
aI1378
aI864
aI89
aI8672
aI12769
aI493
aI3
aI3087
aI13539
aI60
aI50586
aI8315
aI1854
aI3180
aI45
aI5873
aI24
aI63765
asg6
S'A report warned that the military would attempt to trick UN envoys by asking their followers to carry out a set-up protest  protesting against the genuine demonstrations  with SPDC followers forcing civilians to join in .'
p11
ss.