(dp1
S'input'
p2
(dp3
S'encoded'
p4
(lp5
I64
aI2179
aI43
aI63
aI820
aI12564
aI182
aI3
aI217
aI1112
aI1869
aI7
aI10656
aI4672
aI34
aI5276
asS'ori'
p6
S'This house believes that open primaries are the most effective method of selecting candidates for elections'
p7
ssS'output'
p8
(dp9
g4
(lp10
I378
aI42
aI6196
aI3
aI4168
aI493
aI6009
aI4319
aI2425
aI45
aI3
aI12236
aI63765
asg6
S'However  he lost the election against Davis; discontent soon led to the recall .'
p11
ss.