(dp1
S'input'
p2
(dp3
S'encoded'
p4
(lp5
I64
aI2179
aI43
aI63
aI1036
aI4828
aI33250
aI116
aI25073
aI45
aI3315
aI4562
asS'ori'
p6
S'This house believes that male infant circumcision is tantamount to child abuse'
p7
ssS'output'
p8
(dp9
g4
(lp10
I24
aI64
aI783
aI3
aI38965
aI394
aI54270
aI3
aI1991
aI19
aI3
aI33250
aI11225
aI60
aI25
aI1467
aI45
aI10662
aI61
aI122
aI5810
aI45
aI316
aI6730
aI6966
aI1991
aI63765
asg6
S'In this step the mohel would suck the blood from the circumcision wound with his mouth to remove what was believed to be bad excess blood .'
p11
ss.