(dp1
S'input'
p2
(dp3
S'encoded'
p4
(lp5
I64
aI2179
aI43
aI63
aI2157
aI2565
aI493
aI19084
aI382
aI4850
asS'ori'
p6
S"This house believes that Israel's 2008-2009 military operations against Gaza were justified"
p7
ssS'output'
p8
(dp9
g4
(lp10
I273
aI116
aI443
aI11995
aI4477
aI311
aI2659
aI273
aI316
aI6056
aI1687
aI14
aI19084
aI42
aI4001
aI884
aI63765
asg6
S'"If there is no rocket fire at Israel  there won\'t be Israeli attacks on Gaza " he told reporters .'
p11
ss.