(dp1
S'input'
p2
(dp3
S'encoded'
p4
(lp5
I64
aI2179
aI43
aI24
aI3
aI475
aI7
aI12436
aI3364
asS'ori'
p6
S'This house believes in the use of affirmative action'
p7
ssS'output'
p8
(dp9
g4
(lp10
I5489
aI12411
aI117
aI7177
aI45
aI9452
aI81
aI1026
aI73
aI136
aI3936
aI34
aI73
aI136
aI3286
aI24
aI3
aI912
aI73
aI9420
aI6046
aI3569
aI63765
asg6
S'Title VII only applies to employers who employ 15 or more employees for 20 or more weeks in the current or preceding calendar year () .'
p11
ss.