(dp1
S'input'
p2
(dp3
S'encoded'
p4
(lp5
I64
aI2179
aI394
aI16756
aI20435
asS'ori'
p6
S'This house would criminalize blasphemy'
p7
ssS'output'
p8
(dp9
g4
(lp10
I3
aI1447
aI169
aI7795
aI2054
aI122
aI20485
aI646
aI5344
aI2022
aI913
aI24
aI63765
asg6
S'The last British prosecution till 1977 was Bowman v Secular Society Limited in 1917  .'
p11
ss.