(dp1
S'input'
p2
(dp3
S'encoded'
p4
(lp5
I64
aI2179
aI43
aI63
aI3
aI28431
aI7
aI2157
aI4624
aI75
aI39939
aI27257
aI122
aI4850
asS'ori'
p6
S'This house believes that the leaking of military documents by Anat Kamm was justified'
p7
ssS'output'
p8
(dp9
g4
(lp10
I93
aI7
aI3
aI217
aI641
aI4702
aI7
aI3
aI3063
aI291
aI57
aI7
aI2381
aI5
aI2328
aI116
aI5420
aI50443
aI63765
aI42
aI3172
aI63
aI3
aI3445
aI7
aI2328
aI116
aI63
aI7
aI75
aI3
aI78
aI63765
aI34
aI159
aI89
aI145
aI45
aI79
aI51
aI7166
aI6341
aI116
aI2867
aI63765
aI24
aI128
aI45
aI316
aI6841
aI18787
aI273
aI83
aI316
aI443
aI8987
aI14
aI3
aI1260
aI3142
aI7
aI5224
aI5
aI7208
asg6
S'One of the most notable proponents of the link between freedom of speech and democracy is Alexander Meiklejohn . He argues that the concept of democracy is that of self-government by the people . For such a system to work an informed electorate is necessary . In order to be appropriately knowledgeable  there must be no constraints on the free flow of information and ideas'
p11
ss.