(dp1
S'input'
p2
(dp3
S'encoded'
p4
(lp5
I64
aI2179
aI43
aI63
aI134
aI116
aI400
aI21
aI34
aI3
aI260
aI45
aI3439
aI57
aI7
aI2381
asS'ori'
p6
S'This house believes that it is sometimes right for the government to restrict freedom of speech'
p7
ssS'output'
p8
(dp9
g4
(lp10
I3
aI2497
aI2445
aI2446
aI116
aI153
aI416
aI41
aI89
aI4417
aI7
aI3871
aI45
aI3553
aI132
aI2938
aI131
aI64
aI139
aI316
aI89
aI2878
aI7
aI4616
aI41
aI273
aI116
aI443
aI2341
aI4661
aI41
aI2445
aI2446
aI131
aI51
aI50481
aI145
aI7
aI13634
aI282
aI2213
aI2287
aI70
aI282
aI8281
aI5
aI22
aI684
aI63765
asg6
S'The term "international human rights law" is often used as a category of reference to describe these systems  but this can be a source of confusion as there is no separate entity as "international human rights law" but an interlocking system of non-binding conventions  international treaties  domestic law  international organisations and political bodies  .'
p11
ss.