(dp1
S'input'
p2
(dp3
S'encoded'
p4
(lp5
I64
aI2179
aI394
aI60
aI23587
asS'ori'
p6
S'This house would re-engage with Myanmar'
p7
ssS'output'
p8
(dp9
g4
(lp10
I2900
aI7
aI3
aI2598
aI3237
aI2900
aI2900
aI3492
aI40548
aI5
aI2900
aI1654
aI248
aI8313
aI158
aI19873
aI6656
aI9691
aI2087
aI2646
aI8313
aI5
aI3
aI2247
aI63765
asg6
S"4 percent of the population practices Christianity; 4 percent  Islam; 1 percent  traditional animistic beliefs; and 2 percent follow other religions  including Mahayana Buddhism  Hinduism  East Asian religions and the Baha'i Faith  ."
p11
ss.