(dp1
S'input'
p2
(dp3
S'encoded'
p4
(lp5
I64
aI2179
aI43
aI24
aI3
aI475
aI7
aI12436
aI3364
asS'ori'
p6
S'This house believes in the use of affirmative action'
p7
ssS'output'
p8
(dp9
g4
(lp10
I24
aI697
aI588
aI45
aI93
aI2639
aI4224
aI7
aI1157
aI5300
aI382
aI18264
aI2151
aI2900
aI7
aI120
aI147
aI382
aI2909
aI2145
aI63765
aI2144
aI63765
asg6
S'In total  up to one million persons of Mexican ancestry were deported  approximately 60 percent of those individuals were actually U .S . citizens  .'
p11
ss.