(dp1
S'input'
p2
(dp3
S'encoded'
p4
(lp5
I64
aI2179
aI43
aI63
aI3
aI4990
aI4991
aI116
aI4850
aI24
aI12166
aI3
aI475
aI7
aI3532
aI3290
aI7
aI4714
asS'ori'
p6
S'This house believes that the Catholic Church is justified in forbidding the use of barrier methods of contraception'
p7
ssS'output'
p8
(dp9
g4
(lp10
I18270
aI39767
aI39768
aI24
aI327
aI2062
aI89
aI314
aI708
aI2190
aI5
aI2433
aI89
aI290
aI7
aI976
aI4127
aI302
aI732
aI2612
aI63765
asg6
S'Captain Beate Uhse in Germany founded a birth control business  and fought a series of legal battles continue her sales  .'
p11
ss.