(dp1
S'input'
p2
(dp3
S'encoded'
p4
(lp5
I64
aI2179
aI394
aI163
aI959
aI2042
aI3557
asS'ori'
p6
S'This house would make physical education compulsory'
p7
ssS'output'
p8
(dp9
g4
(lp10
I226
aI3
aI4099
aI3217
aI6609
aI566
aI60
aI16329
aI182
aI1348
aI545
aI3
aI2015
aI2178
aI3
aI3217
aI4738
aI7
aI3
aI25313
aI4417
aI182
aI136
aI726
aI63765
asg6
S'While the negative health outcomes associated with obesity are accepted within the medical community  the health implications of the overweight category are more controversial .'
p11
ss.