(dp1
S'input'
p2
(dp3
S'encoded'
p4
(lp5
I64
aI2179
aI43
aI63
aI2157
aI2565
aI493
aI19084
aI382
aI4850
asS'ori'
p6
S"This house believes that Israel's 2008-2009 military operations against Gaza were justified"
p7
ssS'output'
p8
(dp9
g4
(lp10
I2763
aI14619
aI55
aI2686
aI248
aI16618
aI24
aI3
aI4948
aI6864
aI3424
aI2424
aI53
aI3862
aI382
aI1578
aI40
aI45
aI1781
aI89
aI19357
aI11995
aI28442
aI63765
asg6
S'Islamic Jihad has involved other Palestinians in the activities  running summer camps where children were taught how to hold a Qassam rocket launcher  .'
p11
ss.