(dp1
S'input'
p2
(dp3
S'encoded'
p4
(lp5
I64
aI2179
aI394
aI190
aI3
aI21
aI45
aI3895
aI834
asS'ori'
p6
S'This house would limit the right to bear arms'
p7
ssS'output'
p8
(dp9
g4
(lp10
I24
aI3
aI237
aI3427
aI7
aI2927
aI3
aI2145
aI63765
aI2482
aI2483
aI3391
aI3385
aI3384
aI24
aI3
aI22821
aI646
aI63765
aI4996
aI7
aI4248
aI33
aI45
aI1706
aI26054
aI3
aI845
aI7
aI1950
aI3264
aI2446
aI63765
asg6
S'In the first week of March  the U .S . Supreme Court heard oral arguments in the McDonald v . City of Chicago case to further clarify the issue of Second Amendment rights .'
p11
ss.