(dp1
S'input'
p2
(dp3
S'encoded'
p4
(lp5
I64
aI2179
aI43
aI63
aI1036
aI4828
aI33250
aI116
aI25073
aI45
aI3315
aI4562
asS'ori'
p6
S'This house believes that male infant circumcision is tantamount to child abuse'
p7
ssS'output'
p8
(dp9
g4
(lp10
I233
aI45
aI34866
aI5
aI3641
aI3
aI22063
aI7
aI33250
aI24
aI3
aI2809
aI55
aI2425
aI45
aI136
aI9992
aI8672
aI3300
aI63765
asg6
S'According to Darby and Cox  the persistence of circumcision in the USA has led to more vigorous protest movements  .'
p11
ss.