(dp1
S'input'
p2
(dp3
S'encoded'
p4
(lp5
I64
aI2179
aI394
aI117
aI7428
aI21151
aI34
aI11389
aI2042
aI24
aI4364
asS'ori'
p6
S'This house would only teach abstinence for sex education in schools'
p7
ssS'output'
p8
(dp9
g4
(lp10
I11389
aI2042
aI8497
aI21151
aI19
aI11389
aI1460
aI45
aI8559
aI5
aI5577
aI3290
aI159
aI41
aI4714
aI63765
asg6
S'Abstinence-only sex education emphasizes abstinence from sex prior to marriage and rejects methods such as contraception .'
p11
ss.