(dp1
S'input'
p2
(dp3
S'encoded'
p4
(lp5
I64
aI2179
aI394
aI117
aI7428
aI21151
aI34
aI11389
aI2042
aI24
aI4364
asS'ori'
p6
S'This house would only teach abstinence for sex education in schools'
p7
ssS'output'
p8
(dp9
g4
(lp10
I5090
aI1376
aI2203
aI159
aI41
aI35176
aI5
aI6064
aI11
aI938
aI136
aI11390
aI3534
aI2449
aI60
aI5090
aI7412
aI2203
aI159
aI41
aI4281
aI5
aI2371
aI63765
asg6
S'Economically poor countries such as Niger and Bangladesh have far more teenage mothers compared with economically rich countries such as Switzerland and Japan  .'
p11
ss.