(dp1
S'input'
p2
(dp3
S'encoded'
p4
(lp5
I64
aI2179
aI43
aI63
aI6670
aI546
aI417
aI316
aI89
aI1334
aI3108
aI7
aI4849
aI1886
aI2855
asS'ori'
p6
S'This house believes that wind power should be a primary focus of future energy supply'
p7
ssS'output'
p8
(dp9
g4
(lp10
I3518
aI7
aI12997
aI2992
aI3048
aI4446
aI63
aI3
aI516
aI5136
aI7
aI5253
aI6670
aI182
aI589
aI60
aI6670
aI1674
aI45
aI60
aI6670
asg6
S'"A review of integration studies  worldwide  suggests that the additional costs of integrating wind are around 2/MWh with 10% wind  rising to 3/MWh with 20% wind  ."'
p11
ss.