(dp1
S'input'
p2
(dp3
S'encoded'
p4
(lp5
I64
aI2179
aI43
aI63
aI3376
aI4938
aI417
aI316
aI3537
asS'ori'
p6
S'This house believes that endangered species should be protected'
p7
ssS'output'
p8
(dp9
g4
(lp10
I155
aI957
aI864
aI63
aI8063
aI8048
aI8064
aI3
aI596
aI7
aI3
aI17
aI5
aI6685
aI4747
aI45
aI2411
aI2506
aI7
aI3
aI6795
aI53
aI5095
aI99
aI7797
aI8065
aI2482
aI63765
asg6
S"They point out that emphasizing hotspots downplays the importance of the social and ecological connections to vast areas of the Earth's ecosystems where biomass  not biodiversity  reigns supreme  ."
p11
ss.