(dp1
S'input'
p2
(dp3
S'encoded'
p4
(lp5
I64
aI2179
aI394
aI2017
aI628
asS'ori'
p6
S'This house would ban gambling'
p7
ssS'output'
p8
(dp9
g4
(lp10
I42
aI5
aI767
aI248
aI147
aI440
aI12
aI2623
aI2162
aI24
aI89
aI17314
aI3687
aI60
aI844
aI7
aI2206
aI2503
aI2511
aI4955
aI45
aI1968
aI628
aI63765
asg6
S'He and ten other individuals had been previously charged in a sealed indictment with violations of US federal laws relating to illegal gambling .'
p11
ss.