(dp1
S'input'
p2
(dp3
S'encoded'
p4
(lp5
I64
aI2179
aI43
aI223
aI2138
aI11
aI89
aI21
aI45
aI2185
aI372
asS'ori'
p6
S'This house believes all nations have a right to nuclear weapons'
p7
ssS'output'
p8
(dp9
g4
(lp10
I3
aI11571
aI7
aI11572
aI122
aI416
aI4258
aI75
aI3
aI2145
aI63765
aI2700
aI397
aI211
aI5957
aI3056
aI92
aI754
aI24
aI63765
asg6
S'The port of Kobe was used heavily by the U .S . fleet during its postwar occupation  which ended in 1974 .'
p11
ss.