(dp1
S'input'
p2
(dp3
S'encoded'
p4
(lp5
I64
aI2179
aI394
aI16642
aI1376
aI5269
asS'ori'
p6
S'This house would subsidize poor communities'
p7
ssS'output'
p8
(dp9
g4
(lp10
I291
aI1191
aI5
aI15
aI3
aI57780
aI10
aI5
aI2503
aI220
aI843
aI5536
aI73
aI30700
aI5397
aI2589
aI45
aI6989
aI63765
asg6
S'Between about 1958 and 1986  both the Chiapas State and Federal governments either actively or passively favoured migration to undeveloped forest-land .'
p11
ss.