(dp1
S'input'
p2
(dp3
S'encoded'
p4
(lp5
I64
aI2179
aI394
aI16642
aI1376
aI5269
asS'ori'
p6
S'This house would subsidize poor communities'
p7
ssS'output'
p8
(dp9
g4
(lp10
I3
aI3904
aI3073
aI5
aI6826
aI2463
aI89
aI1445
aI3226
aI24
aI282
aI136
aI246
aI2887
aI291
aI5
aI63765
asg6
S'The existing data and estimates suggest a large increase in international (and more generally inter-macroregional) component between 1820 and 1960 .'
p11
ss.