(dp1
S'input'
p2
(dp3
S'encoded'
p4
(lp5
I64
aI2179
aI394
aI60
aI23587
asS'ori'
p6
S'This house would re-engage with Myanmar'
p7
ssS'output'
p8
(dp9
g4
(lp10
I5606
aI7
aI3
aI2445
aI2446
aI2042
aI927
aI7
aI3118
aI41475
aI50655
aI17449
aI742
aI116
aI419
aI4229
aI63765
aI63765
aI357
aI182
aI419
aI474
aI45
aI1792
aI3
aI16983
aI182
aI1708
aI588
aI3364
aI5
aI1708
aI588
aI2468
aI13539
aI24
aI3118
aI63765
asg6
S'Thai-based director of the Human Rights Education Institute of Burma  Aung Nyo Min  said "This is very significant . . we are very encouraged to see the monks are taking up action and taking up peaceful demonstrations in Burma .'
p11
ss.