(dp1
S'input'
p2
(dp3
S'encoded'
p4
(lp5
I64
aI2179
aI394
aI4325
aI2042
aI270
aI89
aI11605
aI3324
asS'ori'
p6
S'This house would fund education using a voucher scheme'
p7
ssS'output'
p8
(dp9
g4
(lp10
I64
aI4835
aI51379
aI7518
aI1735
aI725
aI45
aI7838
aI2369
aI3664
aI3089
aI63
aI3018
aI5257
aI546
aI226
aI2257
aI493
aI260
aI3089
aI3583
aI134
aI226
aI4300
aI132
aI16102
aI1589
aI459
aI3
aI8151
aI7
aI1260
aI73
asg6
S'This inherent definitional bias allows many to advocate strong governmental actions that promote corporate power  while advocating against government actions limiting it  while putting these dual positions under the umbrella of "pro free markets" or "anti-intervention ."'
p11
ss.