(dp1
S'input'
p2
(dp3
S'encoded'
p4
(lp5
I64
aI2179
aI394
aI5370
aI7146
aI4585
aI2446
asS'ori'
p6
S'This house would abolish intellectual property rights'
p7
ssS'output'
p8
(dp9
g4
(lp10
I24
aI8
aI6417
aI3
aI2497
aI11704
aI162
aI3888
aI45
aI3
aI21
aI4626
aI45
aI3739
aI81
aI37265
aI351
aI667
aI5185
aI5
aI3262
aI4448
aI3500
aI7
aI4536
aI73
aI5574
aI7
aI829
aI63765
asg6
S'In modern usage  the term patent usually refers to the right granted to anyone who invents any new  useful  and non-obvious process  machine  article of manufacture  or composition of matter .'
p11
ss.