(dp1
S'input'
p2
(dp3
S'encoded'
p4
(lp5
I64
aI2179
aI394
aI4261
aI8667
aI3
aI9361
aI5
aI17069
asS'ori'
p6
S'This house would prohibit burning the stars and stripes'
p7
ssS'output'
p8
(dp9
g4
(lp10
I52281
aI742
aI3
aI4265
aI9249
aI117
aI248
aI655
aI382
aI3418
aI10905
aI75
aI4265
aI8778
aI63765
asg6
S'Jezer said the FBI arrested only Rader; other participants were merely visited by FBI agents  .'
p11
ss.