(dp1
S'input'
p2
(dp3
S'encoded'
p4
(lp5
I64
aI2179
aI43
aI63
aI2157
aI2565
aI493
aI19084
aI382
aI4850
asS'ori'
p6
S"This house believes that Israel's 2008-2009 military operations against Gaza were justified"
p7
ssS'output'
p8
(dp9
g4
(lp10
I1347
aI19
aI100
aI5545
aI2884
aI2544
aI2203
aI55
aI2425
aI420
aI46376
aI45
aI33248
aI3
aI3419
aI5
aI20408
aI34
aI64
aI650
aI8526
aI7
aI3
aI912
aI2884
aI5367
aI63
aI122
aI99
aI547
aI45
aI1199
aI3
aI878
aI8526
aI7
aI3
aI2884
aI63765
asg6
S'Pressure from some old EU member countries has led Mr Potuznik to retract the statement and apologise for this actual attitude of the current EU presidency that was not allowed to become the official attitude of the EU  .'
p11
ss.