(dp1
S'input'
p2
(dp3
S'encoded'
p4
(lp5
I64
aI2179
aI394
aI163
aI959
aI2042
aI3557
asS'ori'
p6
S'This house would make physical education compulsory'
p7
ssS'output'
p8
(dp9
g4
(lp10
I134
aI55
aI378
aI99
aI579
aI994
aI291
aI5
aI60
aI3
aI217
aI2068
aI9067
aI6909
aI89
aI126
aI1640
aI289
aI2900
aI63765
asg6
S'It has however not changed significantly between 2000 and 2006 with the most recent statistics showing a level just over 17 percent  .'
p11
ss.