(dp1
S'input'
p2
(dp3
S'encoded'
p4
(lp5
I64
aI2179
aI394
aI190
aI3
aI21
aI45
aI3895
aI834
asS'ori'
p6
S'This house would limit the right to bear arms'
p7
ssS'output'
p8
(dp9
g4
(lp10
I14
aI2394
aI433
aI1314
aI15327
aI4626
aI63522
aI30597
aI5
aI6021
aI6460
aI4515
aI19
aI7568
aI63765
asg6
S'" On December 20  2010  Governor Chris Christie granted Aitken clemency and ordered Aitken\'s immediate release from prison  .'
p11
ss.