(dp1
S'input'
p2
(dp3
S'encoded'
p4
(lp5
I64
aI2179
aI394
aI2017
aI223
aI9058
aI23653
asS'ori'
p6
S'This house would ban all unsustainable logging'
p7
ssS'output'
p8
(dp9
g4
(lp10
I132
aI3537
aI2506
aI257
aI1518
aI6075
aI2750
aI45
aI881
aI51
aI2845
aI93
aI2155
aI8688
aI7
aI6695
aI19
aI773
aI1645
aI45
aI3
aI7954
aI620
aI7809
aI75
aI3
aI3569
aI63765
asg6
S'These protected areas  if fully enforced  aim to prevent an estimated one billion tons of carbon from being transferred to the atmosphere through deforestation by the year 2015  .'
p11
ss.