(dp1
S'input'
p2
(dp3
S'encoded'
p4
(lp5
I64
aI2179
aI43
aI63
aI2659
aI417
aI1690
aI3
aI12048
aI7
aI19084
asS'ori'
p6
S'This house believes that Israel should lift the blockade of Gaza'
p7
ssS'output'
p8
(dp9
g4
(lp10
I725
aI8394
aI427
aI238
aI545
aI3
aI2696
aI158
aI75
aI30030
aI6049
aI24
aI30031
aI30032
aI5
aI10185
aI8394
aI24
aI3
aI25148
aI4750
aI7
aI24892
aI18047
aI25086
aI4750
aI17220
aI4750
aI7
aI8434
aI5
aI19171
aI19172
aI4750
aI63765
asg6
S'Many pro-Israeli rallies took place within the country  including by Sderot residents  in Qiryat Shmona and student rallies in the Technion  University of Haifa  Ben Gurion University  Hebrew University of Jerusalem and Tel Aviv University .'
p11
ss.