(dp1
S'input'
p2
(dp3
S'encoded'
p4
(lp5
I64
aI2179
aI394
aI15841
aI2736
asS'ori'
p6
S'This house would disband ASEAN'
p7
ssS'output'
p8
(dp9
g4
(lp10
I4948
aI182
aI4544
aI75
aI3
aI9595
aI60
aI3
aI96
aI7
aI3
aI31850
aI2762
aI34
aI2056
aI717
aI311
aI31851
aI4750
aI2787
aI63765
asg6
S'AUN/SEED-Net activities are implemented by the AUN/SEED-Net Secretariat with the support of the JICA Project for AUN/SEED-Net  now based at Chulalongkorn University  Thailand .'
p11
ss.