(dp1
S'input'
p2
(dp3
S'encoded'
p4
(lp5
I64
aI2179
aI394
aI2773
aI12505
asS'ori'
p6
S'This house would embrace multiculturalism'
p7
ssS'output'
p8
(dp9
g4
(lp10
I89
aI2022
aI92
aI98
aI99
aI3236
aI2126
aI5851
aI150
aI174
aI55
aI443
aI2755
aI34
aI58761
aI2136
aI3192
aI5851
aI3657
aI13675
aI92
aI417
aI316
aI89
aI7463
aI24
aI2042
aI63765
asg6
S'a society which does not respect itself (its Dutch national identity) also has no value for immigrantsmulticultural policy ignored Dutch language acquisition  which should be a priority in education .'
p11
ss.