(dp1
S'input'
p2
(dp3
S'encoded'
p4
(lp5
I64
aI2179
aI43
aI63
aI3
aI4991
aI7
aI180
aI417
aI316
aI5396
aI19
aI3
aI169
aI10
asS'ori'
p6
S'This house believes that the Church of England should be separated from the British state'
p7
ssS'output'
p8
(dp9
g4
(lp10
I9982
aI3763
aI45
aI845
aI22792
aI7
aI21175
aI1969
aI45
aI1063
aI75
aI2221
aI397
aI25
aI5367
aI114
aI42
aI500
aI845
aI89
aI21175
aI5
aI10805
aI22735
aI41
aI433
aI7
aI4132
aI63765
asg6
S'Jefferson refused to issue Proclamations of Thanksgiving sent to him by Congress during his presidency  though he did issue a Thanksgiving and Prayer proclamation as Governor of Virginia  .'
p11
ss.