(dp1
S'input'
p2
(dp3
S'encoded'
p4
(lp5
I64
aI2179
aI394
aI117
aI7428
aI21151
aI34
aI11389
aI2042
aI24
aI4364
asS'ori'
p6
S'This house would only teach abstinence for sex education in schools'
p7
ssS'output'
p8
(dp9
g4
(lp10
I51
aI34616
aI21711
aI236
aI3495
aI493
aI267
aI34616
aI1486
aI92
aI521
aI7
aI25225
aI11832
aI41
aI261
aI41
aI267
aI1486
aI566
aI60
aI7
aI33298
aI37775
aI63765
asg6
S'An HPV vaccine protects women against two HPV types which cause 70% of cervical cancers as well as two types associated with 90% of genital warts  .'
p11
ss.