(dp1
S'input'
p2
(dp3
S'encoded'
p4
(lp5
I64
aI2179
aI43
aI63
aI1036
aI4828
aI33250
aI116
aI25073
aI45
aI3315
aI4562
asS'ori'
p6
S'This house believes that male infant circumcision is tantamount to child abuse'
p7
ssS'output'
p8
(dp9
g4
(lp10
I33255
aI10845
aI4047
aI63765
aI2463
aI63
aI357
aI2214
aI3
aI398
aI4620
aI976
aI3364
aI83
aI316
aI788
aI45
aI2169
aI3
aI959
aI33298
aI4657
aI7
aI1036
aI3862
asg6
S'Boyle et al . suggest that "As we enter the 21st century  appropriate legal action must be taken to safeguard the physical genital integrity of male children ."'
p11
ss.