(dp1
S'input'
p2
(dp3
S'encoded'
p4
(lp5
I64
aI2179
aI43
aI63
aI2157
aI2565
aI493
aI19084
aI382
aI4850
asS'ori'
p6
S"This house believes that Israel's 2008-2009 military operations against Gaza were justified"
p7
ssS'output'
p8
(dp9
g4
(lp10
I14
aI425
aI4374
aI11994
aI5
aI19289
aI382
aI17377
aI311
aI4232
aI2659
aI7521
aI89
aI2179
aI24
aI25094
aI63765
asg6
S'On January 12  nearly 30 rockets and mortars were fired at Southern Israel  damaging a house in Ashkelon . ]'
p11
ss.