(dp1
S'input'
p2
(dp3
S'encoded'
p4
(lp5
I64
aI2179
aI394
aI4325
aI2042
aI270
aI89
aI11605
aI3324
asS'ori'
p6
S'This house would fund education using a voucher scheme'
p7
ssS'output'
p8
(dp9
g4
(lp10
I3217
aI85
aI7074
aI1501
aI9048
aI9161
aI5829
aI34
aI14789
aI3217
aI85
aI34
aI223
aI2625
aI3481
aI34
aI75
aI197
aI46
aI200
aI5136
aI5359
aI11704
aI1795
aI34
aI20703
aI5
aI534
aI12342
aI2894
aI63765
asg6
S"Obama's health care plan includes implementing guaranteed eligibility for affordable health care for all Americans  paid for by insurance reform  reducing costs  removing patent protection for pharmaceuticals  and required employer contributions  ."
p11
ss.