(dp1
S'input'
p2
(dp3
S'encoded'
p4
(lp5
I64
aI2179
aI43
aI63
aI134
aI116
aI400
aI21
aI34
aI3
aI260
aI45
aI3439
aI57
aI7
aI2381
asS'ori'
p6
S'This house believes that it is sometimes right for the government to restrict freedom of speech'
p7
ssS'output'
p8
(dp9
g4
(lp10
I3
aI117
aI3904
aI33
aI70
aI2818
aI2230
aI64
aI3264
aI116
aI89
aI752
aI7
aI3
aI2483
aI7
aI3368
aI3509
aI126
aI291
aI3
aI2145
aI63765
aI3337
aI2483
aI5
aI3
aI2145
aI63765
aI2482
aI24
aI3
aI33
aI7
aI57469
aI646
aI63765
aI20534
aI63765
asg6
S'The only existing case law directly regarding this amendment is a decision of the Court of Appeals (the appellate level between the U .S . District Court and the U .S . Supreme Court) in the case of Engblom v . Carey  .'
p11
ss.