(dp1
S'input'
p2
(dp3
S'encoded'
p4
(lp5
I64
aI2179
aI394
aI2998
aI3
aI4360
aI7
aI3249
aI6804
aI24
aI3
aI102
asS'ori'
p6
S'This house would encourage the creation of private universities in the UK'
p7
ssS'output'
p8
(dp9
g4
(lp10
I132
aI1074
aI2190
aI2240
aI21587
aI24
aI5
aI21588
aI21589
aI34
aI3
aI16200
aI5938
aI60
aI211
aI349
aI12055
aI24
aI63765
asg6
S'These include Business School Notenboom (founded in 1958) and IVA Driebergen for the automotive industry with its earliest beginnings in 1930  .'
p11
ss.