(dp1
S'input'
p2
(dp3
S'encoded'
p4
(lp5
I64
aI2179
aI43
aI24
aI3
aI475
aI7
aI12436
aI3364
asS'ori'
p6
S'This house believes in the use of affirmative action'
p7
ssS'output'
p8
(dp9
g4
(lp10
I3
aI4099
aI782
aI7
aI2322
aI2812
aI26248
aI116
aI1352
aI298
aI7593
aI311
aI2597
aI2506
aI159
aI41
aI2138
aI2449
aI45
aI1932
aI2506
aI159
aI41
aI15794
aI63765
asg6
S'The negative effect of increased ethnic heterogeneity is stronger when looking at larger areas such as nations compared to smaller areas such as neighborhoods .'
p11
ss.