(dp1
S'input'
p2
(dp3
S'encoded'
p4
(lp5
I64
aI2179
aI235
aI3
aI2136
aI7
aI3
aI2306
aI7
aI2390
asS'ori'
p6
S'This house supports the one-child policy of the republic of China'
p7
ssS'output'
p8
(dp9
g4
(lp10
I24
aI25
aI4809
aI8219
aI22011
aI3619
aI89
aI3807
aI213
aI45
aI3
aI3661
aI3557
aI314
aI54
aI63765
aI63765
aI3
aI421
aI7
aI1788
aI37447
aI45
aI1495
aI7442
aI73
aI11954
aI3964
aI63765
asg6
S'In his concluding chapter  Ehrlich offered a partial solution to the "population problem ""[We need] compulsory birth regulation . . [through] the addition of temporary sterilants to water supplies or staple food .'
p11
ss.