(dp1
S'input'
p2
(dp3
S'encoded'
p4
(lp5
I64
aI2179
aI43
aI17
aI4941
aI857
aI3211
asS'ori'
p6
S'This house believes social deprivation causes crime'
p7
ssS'output'
p8
(dp9
g4
(lp10
I11344
aI5
aI17994
aI4955
aI13537
aI2722
aI45
aI132
aI8875
aI4935
aI685
aI1277
aI7279
aI1191
aI3
aI2178
aI21083
aI7
aI3211
aI5
aI2722
aI7
aI17076
aI13537
aI382
aI3843
aI60
aI51
aI6021
aI8059
aI1177
aI60
aI3
aI2810
aI2722
aI24
aI3
aI2506
aI5
aI2447
aI60
aI830
aI19
aI3
aI4996
aI1863
aI63765
asg6
S"Shaw and McKay's analyses relating delinquency rates to these structural characteristics established key facts about the community correlates of crime and delinquency:The rates of juvenile delinquency were consistent with an ordered spatial pattern with the highest rates in the inner-city areas and declining with distance from the city center ."
p11
ss.