(dp1
S'input'
p2
(dp3
S'encoded'
p4
(lp5
I64
aI2179
aI43
aI63
aI2203
aI60
aI51
aI997
aI2837
aI21716
aI1636
aI5349
aI417
aI2998
aI8532
aI45
aI3051
aI8578
asS'ori'
p6
S'This house believes that countries with an imbalanced male/female ratio skewed towards males should encourage parents to produce girls'
p7
ssS'output'
p8
(dp9
g4
(lp10
I382
aI504
aI45
aI11
aI89
aI1950
aI3315
aI298
aI3
aI237
aI3315
aI116
aI89
aI7
aI6426
aI11003
aI382
aI504
aI267
aI3862
aI917
aI7
aI271
aI5
aI1155
aI17786
aI440
aI443
aI190
aI311
aI223
aI63765
asg6
S"52 .9% were permitted to have a second child when the couple's first child is a girl; 9 .6% of Chinese couples were permitted two children  regardless of their gender; and 1 .6% - mainly Tibetans - had no limit at all  ."
p11
ss.