(dp1
S'input'
p2
(dp3
S'encoded'
p4
(lp5
I64
aI2179
aI43
aI63
aI6670
aI546
aI417
aI316
aI89
aI1334
aI3108
aI7
aI4849
aI1886
aI2855
asS'ori'
p6
S'This house believes that wind power should be a primary focus of future energy supply'
p7
ssS'output'
p8
(dp9
g4
(lp10
I51
aI2959
aI905
aI75
aI62546
aI30801
aI89
aI30801
aI3098
aI63
aI10124
aI24
aI22563
aI9343
aI187
aI63
aI838
aI197
aI7
aI2330
aI546
aI4975
aI493
aI2185
aI12119
aI394
aI3226
aI3
aI7494
aI7
aI2185
aI2881
aI75
aI45
aI257
aI3
aI838
aI1718
aI960
aI7779
aI7
aI2150
aI9064
aI116
aI45
aI316
aI316
aI3481
aI41
aI197
aI9011
aI289
aI89
aI413
aI8628
aI7
aI45
aI2439
aI63765
asg6
S'An April 2011 report by Versicherungsforen Leipzig  a Leipzig company that specializes in actuarial calculations states that full insurance of German power plants against nuclear disasters would increase the price of nuclear electricity by 0 .14/kWh ($0 .20/kWh) to 2 .36/kWh ($3 .40/kWh)  if the full potential damage sum of 6 trillion Euro is to be be paid as insurance fee over a time span of 10 to 100 years  .'
p11
ss.