(dp1
S'input'
p2
(dp3
S'encoded'
p4
(lp5
I64
aI2179
aI43
aI63
aI2157
aI2565
aI493
aI19084
aI382
aI4850
asS'ori'
p6
S"This house believes that Israel's 2008-2009 military operations against Gaza were justified"
p7
ssS'output'
p8
(dp9
g4
(lp10
I1237
aI2962
aI2173
aI63
aI16619
aI455
aI23673
aI271
aI23069
aI680
aI366
aI3
aI5099
aI7
aI3
aI1528
aI31098
aI63765
asg6
S'Several reports stated that Hamas fighters shed their uniforms shortly after the start of the ground incursion  .'
p11
ss.