(dp1
S'input'
p2
(dp3
S'encoded'
p4
(lp5
I64
aI2179
aI43
aI63
aI134
aI116
aI400
aI21
aI34
aI3
aI260
aI45
aI3439
aI57
aI7
aI2381
asS'ori'
p6
S'This house believes that it is sometimes right for the government to restrict freedom of speech'
p7
ssS'output'
p8
(dp9
g4
(lp10
I2381
aI116
aI513
aI45
aI316
aI2886
aI22
aI2381
aI459
aI3
aI2206
aI2475
aI5
aI351
aI10
aI3089
aI18236
aI60
aI2886
aI22
aI2381
aI182
aI2195
aI45
aI3
aI18811
aI2477
aI3441
asg6
S'(Such speech is considered to be core political speech under the US Constitution  and any state actions interfering with core political speech are subject to the strictest Constitutional scrutiny .)'
p11
ss.