(dp1
S'input'
p2
(dp3
S'encoded'
p4
(lp5
I64
aI2179
aI43
aI17
aI4941
aI857
aI3211
asS'ori'
p6
S'This house believes social deprivation causes crime'
p7
ssS'output'
p8
(dp9
g4
(lp10
I132
aI15794
aI174
aI1057
aI45
aI11
aI177
aI2598
aI26248
aI63765
asg6
S'These neighborhoods also tend to have high population heterogeneity  .'
p11
ss.