(dp1
S'input'
p2
(dp3
S'encoded'
p4
(lp5
I64
aI2179
aI394
aI190
aI3
aI21
aI45
aI3895
aI834
asS'ori'
p6
S'This house would limit the right to bear arms'
p7
ssS'output'
p8
(dp9
g4
(lp10
I64
aI10116
aI116
aI217
aI153
aI13837
aI75
aI2611
aI2446
aI2142
aI5
aI6159
aI73
aI101
aI81
aI84
aI89
aI136
aI7088
aI234
aI7
aI3
aI1950
aI3264
aI5
aI2029
aI7
aI2446
aI5
aI182
aI4415
aI41
aI773
aI149
aI12652
aI45
aI4308
aI14
aI132
aI214
aI5076
aI63765
asg6
S'This critique is most often voiced by gun rights organizations and libertarians or conservatives who take a more comprehensive view of the Second Amendment and Bill of Rights  and are viewed as being less amenable to compromise on these issues  e .g .'
p11
ss.