(dp1
S'input'
p2
(dp3
S'encoded'
p4
(lp5
I64
aI2179
aI43
aI17
aI4941
aI857
aI3211
asS'ori'
p6
S'This house believes social deprivation causes crime'
p7
ssS'output'
p8
(dp9
g4
(lp10
I3
aI2784
aI123
aI3
aI5354
aI7
aI17076
aI2248
aI5
aI13537
aI2466
aI545
aI3
aI2248
aI2176
aI45
aI733
aI2397
aI34
aI17076
aI256
aI117
aI1191
aI2666
aI89
aI17117
aI150
aI9067
aI14
aI17076
aI3211
aI4325
aI2041
aI14
aI9184
aI3211
aI5
aI733
aI869
aI17118
aI12497
aI2230
aI17076
aI12272
aI63765
asg6
S'The act created the Office of Juvenile Justice and Delinquency Prevention (OJJDP) within the Justice Department to administer grants for juvenile crime-combating programs (currently only about 900 000 dollars a year)  gather national statistics on juvenile crime  fund research on youth crime and administer four anticonfinement mandates regarding juvenile custody .'
p11
ss.