(dp1
S'input'
p2
(dp3
S'encoded'
p4
(lp5
I64
aI2179
aI43
aI17
aI4941
aI857
aI3211
asS'ori'
p6
S'This house believes social deprivation causes crime'
p7
ssS'output'
p8
(dp9
g4
(lp10
I878
aI2711
aI7
aI147
aI24
aI8803
aI67
aI3048
aI1569
aI63765
asg6
S'Official numbers of individuals in sexual slavery worldwide vary .'
p11
ss.