(dp1
S'input'
p2
(dp3
S'encoded'
p4
(lp5
I64
aI2179
aI43
aI63
aI2157
aI2565
aI493
aI19084
aI382
aI4850
asS'ori'
p6
S"This house believes that Israel's 2008-2009 military operations against Gaza were justified"
p7
ssS'output'
p8
(dp9
g4
(lp10
I3
aI2549
aI7
aI2662
aI3740
aI24082
aI3
aI7038
aI6056
aI2157
aI2565
aI92
aI11
aI4881
aI64
aI5113
aI3
aI4830
aI7
aI4752
aI7
aI19088
aI6590
aI24
aI19084
aI966
aI5
aI3740
aI24082
aI3
aI12618
aI475
aI7
aI972
aI5
aI3
aI27666
aI4048
aI7
aI89
aI9632
aI7
aI3
aI2135
aI5496
aI742
asg6
S'The Kingdom of Morocco strongly condemns the massive Israeli military operations which have claimed  this morning  the lives of dozens of Palestinian brothers in Gaza strip  and strongly condemns the disproportionate use of force and the tragic escalation of violence"  a communique of the Foreign ministry said'
p11
ss.