(dp1
S'input'
p2
(dp3
S'encoded'
p4
(lp5
I64
aI2179
aI394
aI60
aI23587
asS'ori'
p6
S'This house would re-engage with Myanmar'
p7
ssS'output'
p8
(dp9
g4
(lp10
I3
aI2016
aI7
aI2769
aI2646
aI2138
aI122
aI2820
aI45
aI5873
aI3
aI1579
aI34
aI89
aI2800
aI4160
aI45
aI23587
aI226
aI3
aI626
aI2138
aI2702
aI2132
aI2820
aI533
aI19
aI3
aI260
aI63765
asg6
S'The Association of Southeast Asian Nations was urged to join the push for a UN mission to Myanmar  while the United Nations Security Council urged restraint from the government .'
p11
ss.