(dp1
S'input'
p2
(dp3
S'encoded'
p4
(lp5
I64
aI2179
aI43
aI24
aI3
aI475
aI7
aI12436
aI3364
asS'ori'
p6
S'This house believes in the use of affirmative action'
p7
ssS'output'
p8
(dp9
g4
(lp10
I24
aI2138
aI53
aI5969
aI7
aI511
aI116
aI3132
aI134
aI139
aI7919
aI918
aI16
aI2234
aI233
aI45
aI100
aI93
aI905
aI24
aI4047
aI13023
aI3017
aI63
aI2657
aI5965
aI5
aI248
aI2653
aI2793
aI2138
aI382
aI13024
aI5090
aI24
aI759
aI604
aI7
aI89
aI13025
aI7
aI5125
aI511
aI63765
asg6
S'In nations where equality of opportunity is absent  it can negatively impact economic growth  according to some views; one report in Al Jazeera suggested that Egypt  Tunisia  and other Middle Eastern nations were stagnating economically in part because of a dearth of equal opportunity  .'
p11
ss.