(dp1
S'input'
p2
(dp3
S'encoded'
p4
(lp5
I64
aI2179
aI394
aI190
aI3
aI21
aI45
aI3895
aI834
asS'ori'
p6
S'This house would limit the right to bear arms'
p7
ssS'output'
p8
(dp9
g4
(lp10
I1381
aI1374
aI182
aI514
aI416
aI24
aI3
aI2145
aI63765
aI24
aI5024
aI4435
aI3
aI5777
aI350
aI10951
aI19
aI3
aI11397
aI3600
aI116
aI63
aI3
aI212
aI17348
aI116
aI17349
aI73
aI4729
aI1971
aI2356
aI63765
aI24
aI248
aI2203
aI248
aI3290
aI7
aI4435
aI182
aI416
aI311
aI113
aI166
aI2722
aI138
aI3
aI2145
aI63765
aI87
aI2611
aI3891
aI4664
aI3
aI1869
aI416
aI131
aI99
aI164
aI4435
aI2722
asg6
S'Although guns are frequently used in the U .S . in committing suicide  the overwhelming evidence compiled from the psychiatric literature is that the real culprit is untreated or poorly managed depression . In other countries  other methods of suicide are used at even higher rates than the U .S .  so gun availability affects the method used but not overall suicide rates '
p11
ss.