(dp1
S'input'
p2
(dp3
S'encoded'
p4
(lp5
I64
aI2179
aI43
aI63
aI1036
aI4828
aI33250
aI116
aI25073
aI45
aI3315
aI4562
asS'ori'
p6
S'This house believes that male infant circumcision is tantamount to child abuse'
p7
ssS'output'
p8
(dp9
g4
(lp10
I24
aI3
aI2668
aI7
aI3
aI39890
aI7
aI5420
aI3
aI325
aI378
aI6085
aI5339
aI7
aI33250
aI1058
aI89
aI460
aI41
aI1336
aI117
aI257
aI25
aI33223
aI122
aI2425
aI45
aI89
aI2838
aI24
aI211
aI4697
aI887
aI725
aI6619
aI63
aI440
aI2623
aI5652
aI134
aI63765
asg6
S'In the aftermath of the conquests of Alexander the Great  however  Greek dislike of circumcision (they regarded a man as truly "naked" only if his prepuce was retracted) led to a decline in its incidence among many peoples that had previously practiced it  .'
p11
ss.