(dp1
S'input'
p2
(dp3
S'encoded'
p4
(lp5
I64
aI2179
aI394
aI16756
aI20435
asS'ori'
p6
S'This house would criminalize blasphemy'
p7
ssS'output'
p8
(dp9
g4
(lp10
I3646
aI394
aI134
aI316
aI4727
aI34
aI159
aI10163
aI45
aI316
aI416
aI45
aI881
aI73
aI1632
aI2198
aI7
aI2767
aI3024
aI73
aI13716
aI14
aI2767
aI2860
aI5
aI18789
aI7
aI2247
aI63765
asg6
S'Nor would it be permissible for such prohibitions to be used to prevent or punish criticism of religious leaders or commentary on religious doctrine and tenets of faith .'
p11
ss.