(dp1
S'input'
p2
(dp3
S'encoded'
p4
(lp5
I64
aI2179
aI43
aI63
aI134
aI116
aI400
aI21
aI34
aI3
aI260
aI45
aI3439
aI57
aI7
aI2381
asS'ori'
p6
S'This house believes that it is sometimes right for the government to restrict freedom of speech'
p7
ssS'output'
p8
(dp9
g4
(lp10
I767
aI18222
aI382
aI575
aI11268
aI7
aI863
aI2439
aI5
aI3
aI31790
aI122
aI11201
aI45
aI292
aI2439
aI63765
asg6
S'Ten defendants were given sentences of five years and the eleventh was sentenced to three years .'
p11
ss.