(dp1
S'input'
p2
(dp3
S'encoded'
p4
(lp5
I64
aI2179
aI43
aI63
aI187
aI417
aI99
aI16642
aI3
aI6449
aI7
aI3935
asS'ori'
p6
S'This house believes that states should not subsidize the growing of tobacco'
p7
ssS'output'
p8
(dp9
g4
(lp10
I3
aI12861
aI2824
aI136
aI27366
aI60
aI3481
aI14138
aI27367
aI5
aI938
aI7950
aI4453
aI7
aI40
aI11946
aI19153
aI463
aI3204
aI828
aI3269
aI63765
asg6
S'The ads grew more extravagant with paid celebrity testimonials and far reaching claims of how Lucky Strikes could improve your life .'
p11
ss.