(dp1
S'input'
p2
(dp3
S'encoded'
p4
(lp5
I64
aI2179
aI394
aI5370
aI223
aI4013
aI10440
aI2446
aI4881
aI75
aI14482
aI11004
asS'ori'
p6
S'This house would abolish all collective bargaining rights claimed by trades unions'
p7
ssS'output'
p8
(dp9
g4
(lp10
I24
aI64
aI234
aI351
aI3226
aI24
aI195
aI394
aI48
aI14170
aI45
aI5918
aI4423
aI4527
aI6941
aI443
aI1796
aI1295
aI24
aI212
aI1809
aI63765
asg6
S'In this view  any increase in wages would lead manufacturers to raise prices leaving workers no better off in real terms .'
p11
ss.