(dp1
S'input'
p2
(dp3
S'encoded'
p4
(lp5
I64
aI2179
aI43
aI63
aI134
aI116
aI400
aI21
aI34
aI3
aI260
aI45
aI3439
aI57
aI7
aI2381
asS'ori'
p6
S'This house believes that it is sometimes right for the government to restrict freedom of speech'
p7
ssS'output'
p8
(dp9
g4
(lp10
I24716
aI440
aI89
aI11841
aI3569
aI7
aI7807
aI60
aI248
aI2445
aI2446
aI3238
aI24
aI174
aI1635
aI45
aI25125
aI60223
aI5964
aI60
aI89
aI2190
aI5052
aI27754
aI7
aI8945
aI223
aI248
aI9062
aI63765
asg6
S'Lynch had a busy year of meeting with other human rights defenders in 2008 however; also traveling to Kuala Lampur  Malaysia with a business class airfare of $8 893  plus all other expenses .'
p11
ss.