(dp1
S'input'
p2
(dp3
S'encoded'
p4
(lp5
I64
aI2179
aI394
aI2741
aI3
aI1560
aI6025
aI2784
asS'ori'
p6
S'This house would pass the American Jobs Act'
p7
ssS'output'
p8
(dp9
g4
(lp10
I2155
aI2155
aI34
aI10
aI5
aI2083
aI70
aI3353
aI2155
aI24
aI23071
aI14
aI376
aI6751
aI34
aI10
aI196
aI2207
aI6198
aI2155
aI24
aI953
aI34
aI3
aI2155
aI24
aI1630
aI3592
aI34
aI3315
aI96
aI3353
aI2639
aI34
aI34046
aI6937
aI23068
aI5
aI34046
aI3060
aI2042
aI2639
aI24
aI17529
aI197
aI15890
aI5
aI5148
aI2395
aI34
aI5677
aI2639
aI24
aI34047
aI2395
aI34
aI1488
aI3224
aI2639
aI34
aI3
aI17
aI2702
aI4445
aI45
aI3262
aI12461
aI5
aI1400
aI17488
aI2639
aI24
aI516
aI3592
aI34
aI27974
aI5
aI248
aI2178
aI3987
aI2142
aI2639
aI34
aI3926
aI5
aI3945
aI16
aI9449
aI256
aI2639
aI34
aI51
aI3226
aI7
aI4453
aI12028
aI2157
aI705
aI2639
aI24
aI2395
aI34
aI3945
aI3224
aI2639
aI34
aI3
aI150
aI3248
aI34
aI3
aI7985
aI45
aI96
aI7232
aI2639
aI34
aI3
aI150
aI34048
aI4445
aI63765
asg6
S'Total: $10 .6 billion $4 billion for state and local law enforcement agencies$1 .1 billion in waivers on interest payments for state unemployment trust funds $1 billion in preparation for the 2010 census$1 billion in added funding for child support enforcement $750 million for DTV conversion coupons and DTV transition education $749 million in crop insurance reinstatement  and emergency loans for farmers $730 million in SBA loans for small businesses $500 million for the Social Security Administration to process disability and retirement backlogs $201 million in additional funding for AmeriCorps and other community service organizations $150 million for Urban and Rural economic recovery programs $150 million for an increase of claims processing military staff $150 million in loans for rural businesses $50 million for the National Endowment for the Arts to support artists $50 million for the National Cemetery Administration  .'
p11
ss.