(dp1
S'input'
p2
(dp3
S'encoded'
p4
(lp5
I64
aI2179
aI394
aI163
aI959
aI2042
aI3557
asS'ori'
p6
S'This house would make physical education compulsory'
p7
ssS'output'
p8
(dp9
g4
(lp10
I24
aI3
aI1257
aI64
aI1104
aI463
aI117
aI316
aI3589
aI13221
aI75
aI5717
aI6195
aI60
aI10411
aI1498
aI131
aI134
aI116
aI2056
aI748
aI45
aI7771
aI3900
aI8351
aI14368
aI92
aI501
aI78
aI45
aI1453
aI64
aI777
aI60
aI89
aI151
aI7
aI477
aI63765
asg6
S'In the past  this technique could only be performed reliably by trained professionals with specialized equipment  but it is now possible to buy home testing kits which allow people to do this themselves with a minimum of training .'
p11
ss.