(dp1
S'input'
p2
(dp3
S'encoded'
p4
(lp5
I64
aI2179
aI394
aI4261
aI8667
aI3
aI9361
aI5
aI17069
asS'ori'
p6
S'This house would prohibit burning the stars and stripes'
p7
ssS'output'
p8
(dp9
g4
(lp10
I134
aI406
aI24
aI3956
aI10591
aI5
aI14
aI3953
aI16539
aI89
aI22
aI5323
aI291
aI120
aI81
aI2149
aI3
aI2145
aI63765
aI260
aI5
aI211
aI2157
aI2170
aI5
aI120
aI81
aI382
aI493
aI351
aI2145
aI63765
aI3186
aI24
aI2790
aI63765
asg6
S'It appeared in magazines  newspapers and on television  signaling a political divide between those who backed the U .S . government and its military goals and those who were against any U .S . involvement in Vietnam  .'
p11
ss.