(dp1
S'input'
p2
(dp3
S'encoded'
p4
(lp5
I64
aI2179
aI394
aI16756
aI20435
asS'ori'
p6
S'This house would criminalize blasphemy'
p7
ssS'output'
p8
(dp9
g4
(lp10
I134
aI116
aI174
aI2174
aI40
aI260
aI70
aI236
aI5344
aI6993
aI131
aI17363
aI3236
aI7
aI2767
aI6993
aI63765
asg6
S'It is also mentioned how government law protects secular symbols (national flags) but ignores respect of religious symbols  .'
p11
ss.