(dp1
S'input'
p2
(dp3
S'encoded'
p4
(lp5
I64
aI2179
aI43
aI63
aI3
aI4990
aI4991
aI116
aI4850
aI24
aI12166
aI3
aI475
aI7
aI3532
aI3290
aI7
aI4714
asS'ori'
p6
S'This house believes that the Catholic Church is justified in forbidding the use of barrier methods of contraception'
p7
ssS'output'
p8
(dp9
g4
(lp10
I34871
aI4881
aI45
aI11
aI3589
aI51
aI11742
aI3516
aI7
aI3
aI39698
aI33314
aI14
aI1980
aI5
aI5047
aI63
aI1354
aI7
aI86
aI440
aI17926
aI3
aI12063
aI4368
aI63765
asg6
S'Fallopio claimed to have performed an experimental trial of the linen sheath on 1100 men  and reported that none of them had contracted the dreaded disease  .'
p11
ss.