(dp1
S'input'
p2
(dp3
S'encoded'
p4
(lp5
I64
aI2179
aI235
aI3
aI2136
aI7
aI3
aI2306
aI7
aI2390
asS'ori'
p6
S'This house supports the one-child policy of the republic of China'
p7
ssS'output'
p8
(dp9
g4
(lp10
I3
aI4276
aI122
aI8274
aI75
aI9564
aI620
aI3953
aI883
aI6881
aI5
aI7147
aI63765
asg6
S'" The campaign was driven by large-scale propaganda through television  newspaper  radio and internet  .'
p11
ss.