(dp1
S'input'
p2
(dp3
S'encoded'
p4
(lp5
I64
aI2179
aI394
aI2976
aI12243
aI24
aI954
aI126
aI1560
aI10723
asS'ori'
p6
S'This house would implement playoffs in collegiate level American football'
p7
ssS'output'
p8
(dp9
g4
(lp10
I116
aI8826
aI257
aI3
aI903
aI4364
aI182
aI2100
aI24
aI3
aI34949
aI14718
asg6
S'(It is unclear if the independent schools are included in the BCS payout .)'
p11
ss.