(dp1
S'input'
p2
(dp3
S'encoded'
p4
(lp5
I64
aI2179
aI394
aI5370
aI7146
aI4585
aI2446
asS'ori'
p6
S'This house would abolish intellectual property rights'
p7
ssS'output'
p8
(dp9
g4
(lp10
I691
aI3293
aI3701
aI1619
aI63
aI3
aI16490
aI3874
aI316
aI15655
aI17760
aI19
aI3
aI52245
aI7
aI3
aI8193
aI5
aI691
aI113
aI24
aI3
aI481
aI398
aI63
aI122
aI89
aI330
aI234
aI45
aI3212
aI13119
aI2552
aI3293
aI24
aI25
aI237
aI21770
aI14
aI260
aI17140
aI1063
aI45
aI1629
aI864
aI25
aI284
aI3293
aI24
aI3
aI1950
aI21770
aI14
aI3202
aI260
aI63765
asg6
S"Since Filmer's views essentially require that the Stuart family be uniquely descended from the patriarchs of the Bible  and since even in the late 17th century that was a difficult view to uphold  Locke attacked Filmer's views in his First Treatise on Government  freeing him to set out his own views in the Second Treatise on Civil Government ."
p11
ss.