(dp1
S'input'
p2
(dp3
S'encoded'
p4
(lp5
I64
aI2179
aI394
aI4325
aI2042
aI270
aI89
aI11605
aI3324
asS'ori'
p6
S'This house would fund education using a voucher scheme'
p7
ssS'output'
p8
(dp9
g4
(lp10
I249
aI45
aI979
aI14173
aI6694
aI1074
aI166
aI7586
aI34
aI99
aI21543
aI60
aI11662
aI2140
aI6466
aI34
aI89
aI126
aI5600
aI7834
aI34
aI223
aI18105
aI9291
aI89
aI915
aI8420
aI1342
aI45
aI39470
aI2898
aI4262
aI8921
aI34
aI574
aI5
aI1928
aI14840
aI81
aI7766
aI89
aI5
aI17463
aI89
aI1182
aI439
aI45
aI3
aI14173
aI3098
aI63
aI15248
aI89
aI8420
aI16441
aI63765
asg6
S"McCain's measures to lower auto emissions include higher fines for not complying with CAFE standards  calling for a level playing field for all alcohol-based biofuels  issuing a Clean Car Challenge to automakers (a US$5 000 dollar tax credit for each and every customer who buys a zero-emissions car) and awarding a substantial prize to the auto company that develops a next-generation car battery  ."
p11
ss.