(dp1
S'input'
p2
(dp3
S'encoded'
p4
(lp5
I64
aI2179
aI394
aI10662
aI626
aI187
aI2157
aI2697
aI19
aI2371
asS'ori'
p6
S'This house would remove United States military bases from Japan'
p7
ssS'output'
p8
(dp9
g4
(lp10
I24
aI1341
aI3
aI2475
aI17784
aI3
aI5088
aI7
aI7145
aI5
aI2674
aI2219
asg6
S'In particular  the constitution forbids the maintenance of "land  sea  and air forces ."'
p11
ss.