(dp1
S'input'
p2
(dp3
S'encoded'
p4
(lp5
I64
aI2179
aI43
aI63
aI3376
aI4938
aI417
aI316
aI3537
asS'ori'
p6
S'This house believes that endangered species should be protected'
p7
ssS'output'
p8
(dp9
g4
(lp10
I273
aI182
aI725
aI4707
aI747
aI63
aI2445
aI4818
aI163
aI60
aI3236
aI45
aI3
aI3216
aI63765
asg6
S'There are many ethical decisions that human beings make with respect to the environment .'
p11
ss.