(dp1
S'input'
p2
(dp3
S'encoded'
p4
(lp5
I64
aI2179
aI43
aI17
aI4941
aI857
aI3211
asS'ori'
p6
S'This house believes social deprivation causes crime'
p7
ssS'output'
p8
(dp9
g4
(lp10
I3
aI9022
aI694
aI7
aI869
aI7745
aI14542
aI511
aI15673
aI1361
aI5
aI3186
aI63765
asg6
S'The bond consists of four positively correlated factors: opportunity  attachment  belief  and involvement  .'
p11
ss.