(dp1
S'input'
p2
(dp3
S'encoded'
p4
(lp5
I64
aI2179
aI43
aI17
aI4941
aI857
aI3211
asS'ori'
p6
S'This house believes social deprivation causes crime'
p7
ssS'output'
p8
(dp9
g4
(lp10
I29685
aI3
aI1039
aI7
aI15
aI59111
aI5
aI60573
aI60574
aI5
aI60574
aI6879
aI3211
aI48512
aI24
aI667
aI2086
aI5
aI248
aI385
aI63765
asg6
S'Furthering the approach of both Cressey and Albini  Ianni and Ianni studied Italian-American crime syndicates in New York and other cities  .'
p11
ss.