(dp1
S'input'
p2
(dp3
S'encoded'
p4
(lp5
I64
aI2179
aI43
aI17
aI4941
aI857
aI3211
asS'ori'
p6
S'This house believes social deprivation causes crime'
p7
ssS'output'
p8
(dp9
g4
(lp10
I59095
aI1781
aI63
aI4741
aI417
aI3108
aI14
aI1462
aI3
aI4596
aI63
aI17
aI3089
aI11
aI34
aI3
aI78
aI773
aI6879
aI63765
asg6
S'Interpretivists hold that researchers should focus on understanding the meanings that social actions have for the people being studied  .'
p11
ss.