(dp1
S'input'
p2
(dp3
S'encoded'
p4
(lp5
I64
aI2179
aI394
aI2017
aI223
aI9058
aI23653
asS'ori'
p6
S'This house would ban all unsustainable logging'
p7
ssS'output'
p8
(dp9
g4
(lp10
I311
aI713
aI2722
aI7808
aI18865
aI24
aI2756
aI394
aI316
aI23659
aI864
aI24
aI2439
aI6627
aI667
aI6628
aI24
aI45
aI2439
aI63765
asg6
S'at present rates  tropical rainforests in Indonesia would be logged out in 10 years  Papua New Guinea in 13 to 16 years  .'
p11
ss.