(dp1
S'input'
p2
(dp3
S'encoded'
p4
(lp5
I64
aI2179
aI394
aI190
aI3
aI21
aI45
aI3895
aI834
asS'ori'
p6
S'This house would limit the right to bear arms'
p7
ssS'output'
p8
(dp9
g4
(lp10
I14
aI492
aI5886
aI375
aI800
aI3
aI845
aI7
aI25
aI2029
aI5
aI2032
aI89
aI4145
aI2180
aI316
aI123
aI45
aI905
aI14
aI134
aI63765
asg6
S'On July 21  Madison again raised the issue of his Bill and proposed a select committee be created to report on it .'
p11
ss.