(dp1
S'input'
p2
(dp3
S'encoded'
p4
(lp5
I64
aI2179
aI43
aI223
aI2138
aI11
aI89
aI21
aI45
aI2185
aI372
asS'ori'
p6
S'This house believes all nations have a right to nuclear weapons'
p7
ssS'output'
p8
(dp9
g4
(lp10
I492
aI3
aI2800
aI2702
aI2132
aI227
aI487
aI2779
aI34
aI2046
aI45
aI18688
aI223
aI11695
aI16855
aI5
aI3365
aI4948
aI73
aI619
aI3
aI4528
aI7
aI9991
aI63765
asg6
S'31 July 2006: The UN Security Council gives until 31 August 2006 for Iran to suspend all uranium enrichment and related activities or face the prospect of sanctions  .'
p11
ss.