(dp1
S'input'
p2
(dp3
S'encoded'
p4
(lp5
I64
aI2179
aI394
aI2741
aI3
aI1560
aI6025
aI2784
asS'ori'
p6
S'This house would pass the American Jobs Act'
p7
ssS'output'
p8
(dp9
g4
(lp10
I2667
aI2211
aI2155
aI34
aI5440
aI4949
aI158
aI2155
aI34
aI4567
aI5
aI559
aI2955
aI5
aI5089
aI5
aI2155
aI34
aI4256
aI3115
aI5
aI15555
aI2155
aI34
aI3
aI202
aI5737
aI7
aI2155
aI34
aI658
aI160
aI2155
aI34
aI915
aI5
aI7439
aI1495
aI4949
aI63765
asg6
S'Infrastructure Senate  $46 billion for transportation projects  including $27 billion for highway and bridge construction and repair and $11 .5 billion for mass transit and rail projects; $4 .6 billion for the Army Corps of Engineers; $5 billion for public housing improvements; $6 .4 billion for clean and drinking water projects .'
p11
ss.