(dp1
S'input'
p2
(dp3
S'encoded'
p4
(lp5
I64
aI2179
aI394
aI117
aI7428
aI21151
aI34
aI11389
aI2042
aI24
aI4364
asS'ori'
p6
S'This house would only teach abstinence for sex education in schools'
p7
ssS'output'
p8
(dp9
g4
(lp10
I13778
aI159
aI41
aI16497
aI5254
aI39812
aI13788
aI37809
aI5
aI13788
aI13382
aI41
aI5
aI4341
aI20688
aI92
aI881
aI3271
aI34
aI3131
aI73
aI2439
aI311
aI89
aI413
aI182
aI136
aI1112
aI24
aI3495
aI81
aI11
aI510
aI30646
aI45
aI84
aI13454
aI73
aI270
aI3532
aI3290
aI1934
aI63765
asg6
S'Long-acting contraceptives such as intrauterine devices  subcutaneous contraceptive implants  and contraceptive injections (such as Depo-Provera and Combined injectable contraceptive)  which prevent pregnancy for months or years at a time  are more effective in women who have trouble remembering to take pills or using barrier methods consistently .'
p11
ss.