(dp1
S'input'
p2
(dp3
S'encoded'
p4
(lp5
I64
aI2179
aI394
aI2017
aI223
aI9058
aI23653
asS'ori'
p6
S'This house would ban all unsustainable logging'
p7
ssS'output'
p8
(dp9
g4
(lp10
I49
aI4386
aI5403
aI7
aI2148
aI6695
aI6694
aI182
aI1404
aI75
aI7809
aI5
aI87
aI28622
aI8254
aI852
aI116
aI89
aI3057
aI5
aI998
aI45
aI6849
aI2148
aI6850
aI63765
asg6
S'Almost 20 per cent of global carbon emissions are caused by deforestation   and so curbing forest loss is a critical and cost-effective way to mitigate global warming .'
p11
ss.