(dp1
S'input'
p2
(dp3
S'encoded'
p4
(lp5
I64
aI2179
aI394
aI15841
aI2736
asS'ori'
p6
S'This house would disband ASEAN'
p7
ssS'output'
p8
(dp9
g4
(lp10
I2719
aI88
aI296
aI291
aI3
aI150
aI5462
aI63765
asg6
S'Disagreements may result between the national authorities .'
p11
ss.