(dp1
S'input'
p2
(dp3
S'encoded'
p4
(lp5
I64
aI2179
aI394
aI60
aI23587
asS'ori'
p6
S'This house would re-engage with Myanmar'
p7
ssS'output'
p8
(dp9
g4
(lp10
I3
aI6881
aI5145
aI188
aI8641
aI7
aI3118
aI5047
aI63
aI2596
aI3180
aI158
aI2692
aI32459
aI50568
aI50569
aI440
aI12
aI1108
aI5
aI3178
aI75
aI3
aI2218
aI2219
aI63765
asg6
S'The radio station Democratic Voice of Burma reported that nine civilians  including Japanese photographer Kenji Nagai  had been shot and killed by the armed forces .'
p11
ss.