(dp1
S'input'
p2
(dp3
S'encoded'
p4
(lp5
I64
aI2179
aI43
aI24
aI3
aI475
aI7
aI12436
aI3364
asS'ori'
p6
S'This house believes in the use of affirmative action'
p7
ssS'output'
p8
(dp9
g4
(lp10
I1592
aI3
aI9789
aI7
aI217
aI57774
aI4307
aI19
aI3
aI40271
aI6622
aI3
aI1188
aI4307
aI5
aI5786
aI382
aI5175
aI45
aI5116
aI45
aI369
aI9867
aI1604
aI92
aI382
aI43643
aI5
aI12392
aI75
aI3
aI63765
asg6
S'Following the expulsion of most Sephardic Jews from the Iberian peninsula  the remaining Jews and Muslims were forced to convert to Roman Catholicism  becoming "New Christians" which were despised and discriminated by the "Old Christians" .'
p11
ss.