(dp1
S'input'
p2
(dp3
S'encoded'
p4
(lp5
I64
aI2179
aI394
aI163
aI959
aI2042
aI3557
asS'ori'
p6
S'This house would make physical education compulsory'
p7
ssS'output'
p8
(dp9
g4
(lp10
I93
aI2035
aI353
aI89
aI444
aI852
aI7
aI291
aI5
aI14
aI3
aI1380
aI7
aI3378
aI311
aI5
aI89
aI1811
aI24
aI223
aI521
aI4699
aI298
aI2449
aI45
aI3440
aI444
aI852
aI249
aI63765
asg6
S'One study found a weight loss of between 14% and 25% (depending on the type of procedure performed) at 10&nbsp;years  and a 29% reduction in all cause mortality when compared to standard weight loss measures  .'
p11
ss.