(dp1
S'input'
p2
(dp3
S'encoded'
p4
(lp5
I64
aI2179
aI43
aI63
aI3
aI21
aI45
aI12715
aI417
aI99
aI316
aI2897
asS'ori'
p6
S'This house believes that the right to asylum should not be absolute'
p7
ssS'output'
p8
(dp9
g4
(lp10
I100
aI1968
aI5307
aI3742
aI45
aI3281
aI60
aI10753
aI4259
aI159
aI41
aI89
aI17384
aI73
aI248
aI3874
aI2789
aI63765
asg6
S'Some illegal immigrants seek to live with loved ones  such as a spouse or other family members  .'
p11
ss.