(dp1
S'input'
p2
(dp3
S'encoded'
p4
(lp5
I64
aI2179
aI43
aI63
aI6670
aI546
aI417
aI316
aI89
aI1334
aI3108
aI7
aI4849
aI1886
aI2855
asS'ori'
p6
S'This house believes that wind power should be a primary focus of future energy supply'
p7
ssS'output'
p8
(dp9
g4
(lp10
I1671
aI546
aI4975
aI261
aI41
aI2185
aI475
aI1495
aI34
aI6923
aI5
aI1495
aI7520
aI397
aI7471
aI3424
aI3131
aI11
aI1909
aI891
aI24
aI3203
aI298
aI2448
aI55
aI440
aI45
aI316
aI16414
aI1052
aI24
aI2265
aI24
aI63765
asg6
S'Conventional power plants (as well as nuclear plants) use water for cooling  and water shortages during hot summer months have occasionally resulted in periods when output has had to be curtailed  notably in France in 2006  .'
p11
ss.