(dp1
S'input'
p2
(dp3
S'encoded'
p4
(lp5
I64
aI2179
aI43
aI63
aI323
aI417
aI10009
aI211
aI9035
aI249
aI45
aI3426
aI211
aI2144
aI595
aI17
aI96
asS'ori'
p6
S'This house believes that Europe should weaken its austerity measures to guarantee its citizens greater social support'
p7
ssS'output'
p8
(dp9
g4
(lp10
I80
aI186
aI63
aI604
aI7337
aI116
aI15
aI7327
aI75
aI5
aI7327
aI45
aI3249
aI147
aI273
aI116
aI443
aI2914
aI7337
aI4912
aI7
aI260
aI7337
aI1640
aI3064
aI1649
aI19
aI120
aI81
aI8901
aI7337
aI2149
aI75
aI4262
aI45
aI120
aI81
aI1781
aI7337
aI7
aI260
aI63765
asg6
S'Others argue that because debt is both owed by and owed to private individuals  there is no net debt burden of government debt  just wealth transfer (redistribution) from those who owe debt (government  backed by tax payers) to those who hold debt (holders of government bonds)  .'
p11
ss.