(dp1
S'input'
p2
(dp3
S'encoded'
p4
(lp5
I64
aI2179
aI43
aI3
aI626
aI187
aI116
aI1989
aI34
aI3102
aI2223
asS'ori'
p6
S"This house believes the United States is responsible for Mexico's drugs war"
p7
ssS'output'
p8
(dp9
g4
(lp10
I3866
aI24
aI25
aI26
aI3
aI10938
aI7
aI23476
aI3531
aI3
aI14774
aI7
aI3
aI2223
aI14
aI3102
aI75
aI1658
aI864
aI63
aI63765
asg6
S'Richard Davenport-Hines  in his book The Pursuit of Oblivion  criticized the efficacy of the War on Drugs by pointing out that   .'
p11
ss.