(dp1
S'input'
p2
(dp3
S'encoded'
p4
(lp5
I64
aI2179
aI394
aI190
aI3
aI21
aI45
aI3895
aI834
asS'ori'
p6
S'This house would limit the right to bear arms'
p7
ssS'output'
p8
(dp9
g4
(lp10
I14
aI2394
aI3
aI4649
aI3855
aI22802
aI3520
aI8865
aI34
aI4539
aI7
aI89
aI3899
aI366
aI206
aI12
aI4546
aI7
aI89
aI4554
aI3211
aI7
aI2287
aI2617
aI24
aI2521
aI7
aI63765
asg6
S"2010) - On December 30  2010  the Fourth Circuit vacated William Chester's conviction for possession of a firearm after having been convicted of a misdemeanor crime of domestic violence  in violation of  ."
p11
ss.