(dp1
S'input'
p2
(dp3
S'encoded'
p4
(lp5
I64
aI2179
aI394
aI190
aI3
aI21
aI45
aI3895
aI834
asS'ori'
p6
S'This house would limit the right to bear arms'
p7
ssS'output'
p8
(dp9
g4
(lp10
I3718
aI3
aI4284
aI706
aI2992
aI88
aI1253
aI248
aI3975
aI289
aI413
aI63765
asg6
S'Similarly  the historically controlled studies may miss other trends over time (e .g .'
p11
ss.