(dp1
S'input'
p2
(dp3
S'encoded'
p4
(lp5
I64
aI2179
aI43
aI63
aI3
aI21
aI45
aI12715
aI417
aI99
aI316
aI2897
asS'ori'
p6
S'This house believes that the right to asylum should not be absolute'
p7
ssS'output'
p8
(dp9
g4
(lp10
I3
aI2304
aI5462
aI182
aI18274
aI34
aI3555
aI3215
aI2554
aI45
aI12715
aI22768
aI60
aI3
aI4268
aI2994
aI34
aI3215
aI2554
aI311
aI117
aI7
aI10248
aI63765
asg6
S'The Russian authorities are notorious for denying refugee status to asylum seekers  with the approval rate for refugee status at only 2-5 % of applicants .'
p11
ss.