(dp1
S'input'
p2
(dp3
S'encoded'
p4
(lp5
I64
aI2179
aI394
aI1499
aI3
aI8115
aI34564
aI17106
asS'ori'
p6
S'This house would build the Keystone XL pipeline'
p7
ssS'output'
p8
(dp9
g4
(lp10
I132
aI5254
aI182
aI7233
aI19
aI6745
aI5
aI4564
aI620
aI3
aI17106
aI45
aI316
aI2933
aI311
aI351
aI248
aI5145
aI843
aI8015
aI35533
aI11853
aI5
aI7371
aI63
aI88
aI11
aI8956
aI822
aI3
aI1637
aI73
aI24845
aI5
aI8421
aI3
aI3016
aI7
aI3
aI1637
aI63765
asg6
S'These devices are launched from pig-launcher stations and travel through the pipeline to be received at any other station down-stream  either cleaning wax deposits and material that may have accumulated inside the line or inspecting and recording the condition of the line .'
p11
ss.