(dp1
S'input'
p2
(dp3
S'encoded'
p4
(lp5
I64
aI2179
aI13605
aI2258
aI45
aI2194
asS'ori'
p6
S'This house prefers trade to aid'
p7
ssS'output'
p8
(dp9
g4
(lp10
I9087
aI1179
aI2190
aI2352
aI7243
aI45
aI3
aI3249
aI7935
aI92
aI394
aI136
aI5115
aI475
aI3592
aI45
aI949
aI3
aI16326
aI7762
aI2867
aI45
aI7833
aI2234
aI63765
asg6
S'Sachs leaves business capital investments to the private sector  which would more efficiently use funding to develop the profitable enterprises necessary to sustain growth .'
p11
ss.