(dp1
S'input'
p2
(dp3
S'encoded'
p4
(lp5
I64
aI2179
aI43
aI24
aI3
aI475
aI7
aI12436
aI3364
asS'ori'
p6
S'This house believes in the use of affirmative action'
p7
ssS'output'
p8
(dp9
g4
(lp10
I4542
aI717
aI14
aI4226
aI11389
aI12410
aI12909
aI73
aI150
aI5304
aI24
aI658
aI7517
aI2042
aI5
aI18345
aI63765
asg6
S'I-200 prohibits "preferential treatment" based on race  sex  color  ethnicity  or national origin in public employment  education  and contracting .'
p11
ss.