(dp1
S'input'
p2
(dp3
S'encoded'
p4
(lp5
I64
aI2179
aI394
aI2017
aI223
aI9058
aI23653
asS'ori'
p6
S'This house would ban all unsustainable logging'
p7
ssS'output'
p8
(dp9
g4
(lp10
I2997
aI45
aI454
aI5
aI1853
aI7808
aI23577
aI6790
aI182
aI4066
aI5
aI657
aI63765
asg6
S'Efforts to protect and conserve tropical rainforest habitats are diverse and widespread .'
p11
ss.