(dp1
S'input'
p2
(dp3
S'encoded'
p4
(lp5
I64
aI2179
aI394
aI117
aI7428
aI21151
aI34
aI11389
aI2042
aI24
aI4364
asS'ori'
p6
S'This house would only teach abstinence for sex education in schools'
p7
ssS'output'
p8
(dp9
g4
(lp10
I41
aI500
aI3
aI267
aI3904
aI4678
aI1642
aI323
aI60
aI13757
aI287
aI9146
aI1863
aI685
aI24
aI88
aI41
aI89
aI3516
aI5
aI55920
aI2098
aI24
aI2555
aI63765
asg6
S"As did the two existing facilities outside Europe  with Sydney's Medically Supervised Injecting Center (MSIC) established in May 2001 as a trial and Vancouver's Insite  opened in September 2003  ."
p11
ss.