(dp1
S'input'
p2
(dp3
S'encoded'
p4
(lp5
I64
aI2179
aI43
aI63
aI3
aI21
aI45
aI12715
aI417
aI99
aI316
aI2897
asS'ori'
p6
S'This house believes that the right to asylum should not be absolute'
p7
ssS'output'
p8
(dp9
g4
(lp10
I1381
aI261
aI10725
aI211
aI1860
aI87
aI938
aI19
aI407
aI221
aI134
aI5626
aI60
aI21719
aI63765
asg6
S'Although well organised its location so far from London made it unpopular with carriers .'
p11
ss.