(dp1
S'input'
p2
(dp3
S'encoded'
p4
(lp5
I64
aI2179
aI43
aI223
aI2138
aI11
aI89
aI21
aI45
aI2185
aI372
asS'ori'
p6
S'This house believes all nations have a right to nuclear weapons'
p7
ssS'output'
p8
(dp9
g4
(lp10
I134
aI139
aI4477
aI843
aI3
aI73
aI3
aI1051
aI2940
aI63765
asg6
S'It can fire either the 250&nbsp;km or the 350&nbsp;km range missiles .'
p11
ss.