(dp1
S'input'
p2
(dp3
S'encoded'
p4
(lp5
I64
aI2179
aI43
aI63
aI3
aI4990
aI4991
aI116
aI4850
aI24
aI12166
aI3
aI475
aI7
aI3532
aI3290
aI7
aI4714
asS'ori'
p6
S'This house believes that the Catholic Church is justified in forbidding the use of barrier methods of contraception'
p7
ssS'output'
p8
(dp9
g4
(lp10
I298
aI416
aI1642
aI7
aI3
aI4990
aI3445
aI7
aI42595
aI132
aI3290
aI182
aI153
aI401
aI45
aI1032
aI41
aI13874
aI3290
aI958
aI138
aI42595
aI63765
asg6
S'When used outside of the Catholic concept of NFP  these methods are often referred to simply as fertility awareness-based methods rather than NFP  .'
p11
ss.