(dp1
S'input'
p2
(dp3
S'encoded'
p4
(lp5
I64
aI2179
aI394
aI16756
aI20435
asS'ori'
p6
S'This house would criminalize blasphemy'
p7
ssS'output'
p8
(dp9
g4
(lp10
I4224
aI5546
aI7
aI20435
aI41
aI261
aI41
aI631
aI12684
aI5
aI712
aI182
aI153
aI2195
aI45
aI17321
aI7188
aI1687
aI5
aI14655
aI298
aI20435
aI116
aI3
aI845
aI63765
asg6
S'Persons accused of blasphemy as well as police  lawyers  and judges are often subject to harassment  threats  attacks and murders when blasphemy is the issue  .'
p11
ss.