(dp1
S'input'
p2
(dp3
S'encoded'
p4
(lp5
I64
aI2179
aI43
aI63
aI3
aI4538
aI7
aI4434
aI7793
aI283
aI45
aI3586
aI417
aI316
aI577
asS'ori'
p6
S'This house believes that the sale of violent video games to minors should be banned'
p7
ssS'output'
p8
(dp9
g4
(lp10
I34
aI1343
aI273
aI116
aI350
aI63
aI368
aI897
aI673
aI24
aI2770
aI116
aI3
aI15081
aI972
aI1265
aI1691
aI17
aI134
aI116
aI41
aI257
aI3
aI5
aI3
aI382
aI18083
aI1544
aI63765
asg6
S'For example  there is evidence that Western media influence in Asia is the driving force behind rapid social change: it is as if the 1960s and the 1990s were compressed together .'
p11
ss.