(dp1
S'input'
p2
(dp3
S'encoded'
p4
(lp5
I64
aI2179
aI394
aI163
aI959
aI2042
aI3557
asS'ori'
p6
S'This house would make physical education compulsory'
p7
ssS'output'
p8
(dp9
g4
(lp10
I51498
aI51499
aI3780
aI49521
aI5
aI33966
aI51500
aI3780
aI51501
aI1991
aI51502
aI23239
aI51503
aI7321
aI25244
aI5
aI14004
aI14005
aI51504
aI22140
aI51505
aI51506
aI63765
asg6
S'|- Cardiology ischemic heart disease: angina and myocardial infarctioncongestive heart failurehigh blood pressureabnormal cholesterol levelsdeep vein thrombosis and pulmonary embolism Dermatology stretch marksacanthosis nigricanslymphedemacellulitishirsutismintertrigo .'
p11
ss.