(dp1
S'input'
p2
(dp3
S'encoded'
p4
(lp5
I64
aI2179
aI13605
aI2258
aI45
aI2194
asS'ori'
p6
S'This house prefers trade to aid'
p7
ssS'output'
p8
(dp9
g4
(lp10
I217
aI5025
aI187
aI3026
aI7528
aI7
aI2151
aI4386
aI3569
aI63765
asg6
S'Most African states saw inflation of approximately 10% per year .'
p11
ss.