(dp1
S'input'
p2
(dp3
S'encoded'
p4
(lp5
I64
aI2179
aI43
aI63
aI3
aI4990
aI4991
aI116
aI4850
aI24
aI12166
aI3
aI475
aI7
aI3532
aI3290
aI7
aI4714
asS'ori'
p6
S'This house believes that the Catholic Church is justified in forbidding the use of barrier methods of contraception'
p7
ssS'output'
p8
(dp9
g4
(lp10
I3
aI4990
aI4991
aI116
aI71
aI45
aI3284
aI4714
aI5
aI26005
aI1647
aI1642
aI7
aI3
aI4659
aI7
aI6242
aI2189
aI63765
asg6
S'The Catholic Church is opposed to artificial contraception and orgasmic acts outside of the context of marital intercourse  .'
p11
ss.