(dp1
S'input'
p2
(dp3
S'encoded'
p4
(lp5
I64
aI2179
aI394
aI2017
aI223
aI9058
aI23653
asS'ori'
p6
S'This house would ban all unsustainable logging'
p7
ssS'output'
p8
(dp9
g4
(lp10
I41
aI1167
aI3964
aI12743
aI3209
aI1167
aI3964
aI12743
aI83
aI3226
aI3
aI14953
aI7
aI271
aI6757
aI24
aI128
aI45
aI3051
aI136
aI2885
aI159
aI41
aI50726
aI5
aI19175
aI50727
aI63765
asg6
S'As fast food chains expand  fast food chains must increase the quantity of their livestock in order to produce more products such as hamburgers and chicken Mcnuggets .'
p11
ss.