(dp1
S'input'
p2
(dp3
S'encoded'
p4
(lp5
I64
aI2179
aI43
aI17
aI4941
aI857
aI3211
asS'ori'
p6
S'This house believes social deprivation causes crime'
p7
ssS'output'
p8
(dp9
g4
(lp10
I298
aI351
aI7
aI132
aI8947
aI182
aI17804
aI73
aI630
aI93
aI116
aI136
aI1856
aI45
aI2784
aI24
aI9850
aI63765
asg6
S'When any of these bonds are weakened or broken one is more likely to act in defiance .'
p11
ss.