(dp1
S'input'
p2
(dp3
S'encoded'
p4
(lp5
I64
aI2179
aI394
aI2773
aI12505
asS'ori'
p6
S'This house would embrace multiculturalism'
p7
ssS'output'
p8
(dp9
g4
(lp10
I19857
aI1057
aI45
aI316
aI71
aI45
aI256
aI63
aI24
aI271
aI234
aI1985
aI864
aI4604
aI4242
aI45
aI5275
aI311
aI3
aI7383
aI7
aI3
aI2471
aI63765
asg6
S'Assimilationists tend to be opposed to programs that  in their view  give out special privileges to minorities at the expense of the majority .'
p11
ss.