(dp1
S'input'
p2
(dp3
S'encoded'
p4
(lp5
I64
aI2179
aI43
aI63
aI2659
aI417
aI1690
aI3
aI12048
aI7
aI19084
asS'ori'
p6
S'This house believes that Israel should lift the blockade of Gaza'
p7
ssS'output'
p8
(dp9
g4
(lp10
I3
aI6056
aI5451
aI221
aI3614
aI1610
aI60
aI3
aI19096
aI311
aI63765
aI14
aI88
aI1191
aI4395
aI7
aI19084
aI1295
aI3
aI5738
aI7
aI4232
aI6101
aI24
aI282
aI2743
aI10531
aI3
aI2414
aI45
aI1654
aI86
aI45
aI11571
aI73
aI2507
aI316
aI19188
aI63765
asg6
S'The Israeli Navy made initial contact with the flotilla at 11&nbsp;p .m . (2000 UTC) on 30 May  about northwest of Gaza  off the coast of southern Lebanon  in international waters  ordering the ships to follow them to port or otherwise be boarded  .'
p11
ss.