(dp1
S'input'
p2
(dp3
S'encoded'
p4
(lp5
I64
aI2179
aI43
aI63
aI2659
aI417
aI1690
aI3
aI12048
aI7
aI19084
asS'ori'
p6
S'This house believes that Israel should lift the blockade of Gaza'
p7
ssS'output'
p8
(dp9
g4
(lp10
I3
aI6056
aI2218
aI2219
aI19197
aI5
aI4180
aI7
aI3
aI19084
aI19096
aI11574
aI122
aI3843
aI60
aI685
aI282
aI2348
aI1485
aI63765
asg6
S'The Israeli armed forces interception and capture of the Gaza flotilla vessels was consistent with established international naval practice  .'
p11
ss.