(dp1
S'input'
p2
(dp3
S'encoded'
p4
(lp5
I64
aI2179
aI394
aI163
aI959
aI2042
aI3557
asS'ori'
p6
S'This house would make physical education compulsory'
p7
ssS'output'
p8
(dp9
g4
(lp10
I443
aI4229
aI3802
aI382
aI344
aI887
aI1980
aI7
aI384
aI17
aI4416
aI63765
asg6
S'No significant differences were seen among men of different social classes .'
p11
ss.