(dp1
S'input'
p2
(dp3
S'encoded'
p4
(lp5
I64
aI2179
aI43
aI63
aI3
aI21
aI45
aI12715
aI417
aI99
aI316
aI2897
asS'ori'
p6
S'This house believes that the right to asylum should not be absolute'
p7
ssS'output'
p8
(dp9
g4
(lp10
I3
aI367
aI7
aI3
aI9491
aI5661
aI1607
aI60
aI134
aI89
aI667
aI22
aI6747
aI2098
aI588
aI4564
aI7470
aI572
aI816
aI5
aI7367
aI3
aI7
aI17853
aI92
aI440
aI12
aI28165
aI545
aI3
aI943
aI5336
aI63765
asg6
S'The fall of the Berlin Wall brought with it a new political landscape  opened up travel routes long closed and meant the re-emergence of nationalities which had been submerged within the Soviet bloc .'
p11
ss.