(dp1
S'input'
p2
(dp3
S'encoded'
p4
(lp5
I64
aI2179
aI43
aI63
aI187
aI417
aI99
aI16642
aI3
aI6449
aI7
aI3935
asS'ori'
p6
S'This house believes that states should not subsidize the growing of tobacco'
p7
ssS'output'
p8
(dp9
g4
(lp10
I311
aI78
aI14833
aI14868
aI7
aI9257
aI89
aI1379
aI64
aI6832
aI1819
aI45
aI4386
aI14868
aI588
aI45
aI4386
aI5
aI257
aI3
aI1394
aI7
aI14833
aI116
aI289
aI14868
aI89
aI1379
aI588
aI45
aI4386
aI2598
aI63765
asg6
S'At people smoking 0 .5 packs of cigarettes a day this figure rises to 51 .4 per 100 000  1-2 packs - up to 143 .9 per 100 000 and if the intensity of smoking is over 2 packs a day - up to 217 .3 per 100 000 population .'
p11
ss.