(dp1
S'input'
p2
(dp3
S'encoded'
p4
(lp5
I64
aI2179
aI43
aI63
aI134
aI116
aI400
aI21
aI34
aI3
aI260
aI45
aI3439
aI57
aI7
aI2381
asS'ori'
p6
S'This house believes that it is sometimes right for the government to restrict freedom of speech'
p7
ssS'output'
p8
(dp9
g4
(lp10
I3
aI3991
aI2804
aI7
aI2445
aI2446
aI122
aI1515
aI75
aI3
aI626
aI2138
aI448
aI6293
aI24
aI5195
aI24
aI1849
aI45
aI3
aI14653
aI7
aI285
aI2223
aI2236
aI63765
asg6
S'The Universal Declaration of Human Rights (UDHR) was adopted by the United Nations General Assembly in 1948  partly in response to the atrocities of World War II .'
p11
ss.