(dp1
S'input'
p2
(dp3
S'encoded'
p4
(lp5
I64
aI2179
aI394
aI2017
aI262
asS'ori'
p6
S'This house would ban boxing'
p7
ssS'output'
p8
(dp9
g4
(lp10
I275
aI262
aI139
aI316
aI513
aI351
aI275
aI405
aI311
aI89
aI2083
aI262
aI23556
aI131
aI273
aI182
aI1237
aI1943
aI63
aI84
aI238
aI45
aI1358
aI275
aI642
aI63765
asg6
S'Amateur boxing can be considered any amateur fight at a local boxing gym  but there are several tournaments that take place to determine amateur champions .'
p11
ss.