(dp1
S'input'
p2
(dp3
S'encoded'
p4
(lp5
I64
aI2179
aI394
aI2017
aI628
asS'ori'
p6
S'This house would ban gambling'
p7
ssS'output'
p8
(dp9
g4
(lp10
I132
aI7618
aI182
aI7783
aI24
aI1458
aI60
aI3
aI150
aI5930
aI131
aI1233
aI459
aI9402
aI3645
aI63765
asg6
S'These lotteries are sold in competition with the National Lottery but operate under tighter regulations .'
p11
ss.