(dp1
S'input'
p2
(dp3
S'encoded'
p4
(lp5
I64
aI2179
aI394
aI2773
aI12505
asS'ori'
p6
S'This house would embrace multiculturalism'
p7
ssS'output'
p8
(dp9
g4
(lp10
I8873
aI3716
aI3136
aI153
aI182
aI99
aI575
aI4375
aI4902
aI63765
asg6
S'Differing minority groups often are not given identical treatment .'
p11
ss.