(dp1
S'input'
p2
(dp3
S'encoded'
p4
(lp5
I64
aI2179
aI394
aI15841
aI2736
asS'ori'
p6
S'This house would disband ASEAN'
p7
ssS'output'
p8
(dp9
g4
(lp10
I3
aI31716
aI116
aI51
aI2603
aI75
aI3
aI2544
aI2138
aI7
aI2736
aI2286
aI2083
aI6703
aI24
aI223
aI2736
aI2203
aI63765
asg6
S'The AFTA is an agreement by the member nations of ASEAN concerning local manufacturing in all ASEAN countries .'
p11
ss.