(dp1
S'input'
p2
(dp3
S'encoded'
p4
(lp5
I64
aI2179
aI43
aI63
aI2659
aI417
aI1690
aI3
aI12048
aI7
aI19084
asS'ori'
p6
S'This house believes that Israel should lift the blockade of Gaza'
p7
ssS'output'
p8
(dp9
g4
(lp10
I3
aI2804
aI547
aI2659
aI45
aI881
aI3
aI1649
aI7
aI2881
aI5092
aI5
aI248
aI7442
aI736
aI19084
aI63765
asg6
S'The declaration allowed Israel to prevent the transfer of electricity  fuel  and other supplies into Gaza .'
p11
ss.