(dp1
S'input'
p2
(dp3
S'encoded'
p4
(lp5
I64
aI2179
aI43
aI63
aI134
aI116
aI400
aI21
aI34
aI3
aI260
aI45
aI3439
aI57
aI7
aI2381
asS'ori'
p6
S'This house believes that it is sometimes right for the government to restrict freedom of speech'
p7
ssS'output'
p8
(dp9
g4
(lp10
I89
aI696
aI7
aI3
aI187
aI775
aI440
aI685
aI6001
aI298
aI3
aI237
aI3264
aI122
aI2215
aI60
aI100
aI1188
aI736
aI3
aI320
aI621
aI398
aI63765
asg6
S'A number of the states effectively had established churches when the First Amendment was ratified  with some remaining into the early nineteenth century .'
p11
ss.