(dp1
S'input'
p2
(dp3
S'encoded'
p4
(lp5
I64
aI2179
aI43
aI63
aI6670
aI546
aI417
aI316
aI89
aI1334
aI3108
aI7
aI4849
aI1886
aI2855
asS'ori'
p6
S'This house believes that wind power should be a primary focus of future energy supply'
p7
ssS'output'
p8
(dp9
g4
(lp10
I1994
aI3661
aI9434
aI1074
aI6188
aI45
aI11224
aI3
aI5109
aI226
aI637
aI2978
aI6837
aI289
aI3
aI6670
aI6677
aI5
aI89
aI570
aI1869
aI15258
aI3
aI3166
aI766
aI63765
asg6
S'Permanent problem solving include Non-Initiation Window to hide the turbines while still tracking aircraft over the wind farm  and a similar method mitigates the false returns  .'
p11
ss.