(dp1
S'input'
p2
(dp3
S'encoded'
p4
(lp5
I64
aI2179
aI394
aI2976
aI12243
aI24
aI954
aI126
aI1560
aI10723
asS'ori'
p6
S'This house would implement playoffs in collegiate level American football'
p7
ssS'output'
p8
(dp9
g4
(lp10
I3
aI2248
aI9359
aI5
aI4400
aI3343
aI3831
aI182
aI15
aI1653
aI311
aI1854
aI3
aI34949
aI45
aI820
aI211
aI3955
aI92
aI155
aI182
aI41
aI89
aI534
aI45
aI1453
aI1928
aI3569
aI5
aI11
aI1301
aI3818
aI5
aI311
aI9364
aI755
aI3
aI34949
aI116
aI51
aI1968
aI2207
aI73
aI2616
aI717
aI14
aI18423
aI2784
aI7
aI3
aI15682
aI2784
aI7
aI5
aI3
aI4933
aI2784
aI63765
asg6
S"The Justice Department's investigation and Utah Attorney General's lawsuit are both aimed at forcing the BCS to open its books  which they are as a non-profit required to do every year and have never done  and at determining whether the BCS is an illegal trust or cartel based on Sherman Anti-Trust Act of 1890  the Clayton Anti-Trust Act of 1914 and the Robinson-Patman Anti-Price Discrimination Act ."
p11
ss.