(dp1
S'input'
p2
(dp3
S'encoded'
p4
(lp5
I64
aI2179
aI394
aI2017
aI3807
aI314
aI3433
asS'ori'
p6
S'This house would ban partial birth abortions'
p7
ssS'output'
p8
(dp9
g4
(lp10
I378
aI34
aI3
aI1257
aI267
aI388
aI155
aI11
aI12
aI794
aI41
aI4224
aI34
aI3
aI913
aI792
aI7
aI4603
aI493
aI3
aI2007
aI70
aI63765
asg6
S'However  for the past two centuries  they have been treated as persons for the limited purposes of Offence against the person law .'
p11
ss.