(dp1
S'input'
p2
(dp3
S'encoded'
p4
(lp5
I64
aI2179
aI43
aI63
aI188
aI220
aI417
aI1619
aI4275
aI45
aI713
aI14799
aI7533
aI311
aI3
aI3721
aI5145
asS'ori'
p6
S'This house believes that democratic governments should require voters to present photo identification at the polling station'
p7
ssS'output'
p8
(dp9
g4
(lp10
I116
aI34
aI10
aI3482
aI45
aI10513
aI3
aI5136
aI5
aI127
aI7
aI748
aI2438
aI45
aI271
aI4168
aI4533
aI5
aI271
aI3670
aI83
aI10869
aI1375
aI134
aI19288
aI89
aI5012
aI5
aI4952
aI164
aI4912
aI111
aI3
aI21
aI45
aI2490
aI73
aI116
aI1881
aI45
aI1707
aI89
aI1341
aI5052
asg6
S'"It is for state legislatures to weigh the costs and benefits of possible changes to their election codes  and their judgment must prevail unless it imposes a severe and unjustified overall burden upon the right to vote  or is intended to disadvantage a particular class ."'
p11
ss.