(dp1
S'input'
p2
(dp3
S'encoded'
p4
(lp5
I64
aI2179
aI235
aI3
aI2136
aI7
aI3
aI2306
aI7
aI2390
asS'ori'
p6
S'This house supports the one-child policy of the republic of China'
p7
ssS'output'
p8
(dp9
g4
(lp10
I3
aI4624
aI4001
aI7
aI89
aI7038
aI4562
aI7
aI20007
aI34
aI22
aI792
aI397
aI3
aI5277
aI7
aI14652
aI23467
aI397
aI92
aI3189
aI7
aI78
aI440
aI12
aI551
aI4730
aI4897
aI63765
asg6
S'The documents told of a massive abuse of psychiatry for political purposes during the leadership of Mao Zedong  during which millions of people had been declared mentally sick  .'
p11
ss.