(dp1
S'input'
p2
(dp3
S'encoded'
p4
(lp5
I64
aI2179
aI43
aI24
aI3
aI475
aI7
aI12436
aI3364
asS'ori'
p6
S'This house believes in the use of affirmative action'
p7
ssS'output'
p8
(dp9
g4
(lp10
I833
aI81
aI400
aI3943
aI63
aI12436
aI3364
aI116
aI1706
aI103
aI63
aI12436
aI3364
aI55
aI224
aI24
aI421
aI45
aI11388
aI45
aI671
aI211
aI2170
aI63765
asg6
S'Opponents  who sometimes say that affirmative action is "reverse discrimination"  further claim that affirmative action has undesirable side-effects in addition to failing to achieve its goals .'
p11
ss.