(dp1
S'input'
p2
(dp3
S'encoded'
p4
(lp5
I64
aI2179
aI13605
aI2258
aI45
aI2194
asS'ori'
p6
S'This house prefers trade to aid'
p7
ssS'output'
p8
(dp9
g4
(lp10
I3
aI886
aI116
aI63
aI3
aI137
aI55
aI440
aI207
aI572
aI2497
aI782
aI63765
asg6
S'The consensus is that the money has had little long term effect .'
p11
ss.