(dp1
S'input'
p2
(dp3
S'encoded'
p4
(lp5
I64
aI2179
aI43
aI8629
aI116
aI3
aI117
aI998
asS'ori'
p6
S'This house believes atheism is the only way'
p7
ssS'output'
p8
(dp9
g4
(lp10
I42
aI187
aI63
aI3
aI7
aI3
aI8193
aI116
aI89
aI296
aI7
aI3
aI68
aI63
aI487
aI1902
aI4983
aI2037
aI60
aI3384
aI493
aI3
aI3455
aI73
aI34648
aI7
aI3
aI8193
aI1032
aI5108
aI73
aI10540
aI9910
aI81
aI2200
aI351
aI17148
aI3369
aI63765
asg6
S'He states that the "feebleness" of the Bible is a result of the fact that until recently  Christians faced with arguments against the logic or factualness of the Bible "could simply burn or silence anybody who asked any inconvenient questions .'
p11
ss.