(dp1
S'input'
p2
(dp3
S'encoded'
p4
(lp5
I64
aI2179
aI43
aI17
aI4941
aI857
aI3211
asS'ori'
p6
S'This house believes social deprivation causes crime'
p7
ssS'output'
p8
(dp9
g4
(lp10
I3
aI4434
aI1036
aI22287
aI1189
aI116
aI153
aI1607
aI588
aI24
aI3247
aI7
aI2445
aI2617
aI63765
asg6
S'The violent male ape image is often brought up in discussions of human violence .'
p11
ss.