(dp1
S'input'
p2
(dp3
S'encoded'
p4
(lp5
I64
aI2179
aI394
aI60
aI23587
asS'ori'
p6
S'This house would re-engage with Myanmar'
p7
ssS'output'
p8
(dp9
g4
(lp10
I211
aI2258
aI5
aI5344
aI6375
aI3157
aI2676
aI89
aI2177
aI52
aI34
aI136
aI138
aI2439
aI63765
asg6
S'Its trade and secular administrative reforms built a prosperous economy for more than 80 years .'
p11
ss.