(dp1
S'input'
p2
(dp3
S'encoded'
p4
(lp5
I64
aI2179
aI43
aI8629
aI116
aI3
aI117
aI998
asS'ori'
p6
S'This house believes atheism is the only way'
p7
ssS'output'
p8
(dp9
g4
(lp10
I3148
aI233
aI45
aI4044
aI63765
aI1147
aI116
aI89
aI42509
aI73
aI3
aI3579
aI7
aI100
aI1228
aI92
aI6175
aI3762
aI45
aI3
aI580
aI7
aI3
aI10850
aI63765
asg6
S'Evil  according to St . Thomas  is a privation  or the absence of some good which belongs properly to the nature of the creature  .'
p11
ss.