(dp1
S'input'
p2
(dp3
S'encoded'
p4
(lp5
I64
aI2179
aI43
aI63
aI3
aI4990
aI4991
aI116
aI4850
aI24
aI12166
aI3
aI475
aI7
aI3532
aI3290
aI7
aI4714
asS'ori'
p6
S'This house believes that the Catholic Church is justified in forbidding the use of barrier methods of contraception'
p7
ssS'output'
p8
(dp9
g4
(lp10
I7332
aI182
aI416
aI24
aI3
aI7834
aI75
aI7015
aI45
aI2274
aI454
aI31142
aI11656
aI24
aI3
aI6704
aI73
aI21023
aI7
aI46253
aI1525
aI3274
aI17279
aI298
aI3971
aI3
aI5211
aI45
aI709
aI8100
aI5904
aI8811
aI45
aI1358
aI3
aI9531
aI1500
aI7
aI8100
aI63765
asg6
S'Condoms are used in the field by engineers to initially protect sensors embedded in the steel or aluminum nose-cones of Cone Penetration Test (CPT) probes when entering the surface to conduct soil resistance tests to determine the bearing strength of soil  .'
p11
ss.