(dp1
S'input'
p2
(dp3
S'encoded'
p4
(lp5
I64
aI2179
aI43
aI63
aI2659
aI417
aI1690
aI3
aI12048
aI7
aI19084
asS'ori'
p6
S'This house believes that Israel should lift the blockade of Gaza'
p7
ssS'output'
p8
(dp9
g4
(lp10
I24
aI667
aI2086
aI4996
aI89
aI696
aI7
aI4307
aI5697
aI45
aI342
aI271
aI96
aI34
aI2659
aI63765
asg6
S'In New York City  a number of pro-Israel Jews gathered to show their support for Israel  .'
p11
ss.