(dp1
S'input'
p2
(dp3
S'encoded'
p4
(lp5
I64
aI2179
aI43
aI8629
aI116
aI3
aI117
aI998
asS'ori'
p6
S'This house believes atheism is the only way'
p7
ssS'output'
p8
(dp9
g4
(lp10
I24
aI128
aI45
aI4824
aI120
aI81
aI133
aI3
aI4798
aI291
aI1228
aI5
aI3148
aI116
aI12429
aI14
aI3
aI3524
aI7
aI89
aI6296
aI70
aI3
aI8312
aI14442
aI139
aI316
aI2173
aI24
aI3
aI9033
aI399
aI273
aI116
aI89
aI1839
aI773
aI3148
aI63765
asg6
S'In order to satisfy those who believe the distinction between good and evil is grounded on the existence of a divine law  the factual premise "evil exists" can be stated in the conditional form "if there is a perfect being  evil exists" .'
p11
ss.