(dp1
S'input'
p2
(dp3
S'encoded'
p4
(lp5
I64
aI2179
aI394
aI16642
aI1376
aI5269
asS'ori'
p6
S'This house would subsidize poor communities'
p7
ssS'output'
p8
(dp9
g4
(lp10
I1950
aI93
aI83
aI1594
aI63
aI11606
aI6941
aI182
aI183
aI2038
aI63765
asg6
S'Second  one must assume that poorer workers are "not too risk averse"  .'
p11
ss.