(dp1
S'input'
p2
(dp3
S'encoded'
p4
(lp5
I64
aI2179
aI394
aI1499
aI3
aI8115
aI34564
aI17106
asS'ori'
p6
S'This house would build the Keystone XL pipeline'
p7
ssS'output'
p8
(dp9
g4
(lp10
I45623
aI182
aI416
aI45
aI6676
aI267
aI73
aI136
aI384
aI2885
aI24
aI17509
aI24
aI3
aI1643
aI17106
aI63765
asg6
S'Multi-product pipelines are used to transport two or more different products in sequence in the same pipeline .'
p11
ss.