(dp1
S'input'
p2
(dp3
S'encoded'
p4
(lp5
I64
aI2179
aI43
aI63
aI7382
aI116
aI400
aI4713
asS'ori'
p6
S'This house believes that bribery is sometimes acceptable'
p7
ssS'output'
p8
(dp9
g4
(lp10
I233
aI45
aI3
aI2533
aI3
aI6174
aI7
aI16102
aI5032
aI139
aI117
aI316
aI8304
aI14
aI53
aI3
aI115
aI394
aI1619
aI13000
aI3364
aI159
aI41
aI11653
aI73
aI6898
aI5
aI6468
aI5
aI187
aI4615
aI182
aI474
aI45
aI501
aI89
aI11707
aI2283
aI7
aI115
aI252
aI16102
aI5032
aI53
aI748
aI63765
asg6
S'According to the Convention  the principle of dual criminality can only be insisted on where the assistance would require coercive action such as arrest or search and seizure  and States Parties are encouraged to allow a wider scope of assistance without dual criminality where possible .'
p11
ss.