(dp1
S'input'
p2
(dp3
S'encoded'
p4
(lp5
I64
aI2179
aI43
aI63
aI2659
aI417
aI1690
aI3
aI12048
aI7
aI19084
asS'ori'
p6
S'This house believes that Israel should lift the blockade of Gaza'
p7
ssS'output'
p8
(dp9
g4
(lp10
I3673
aI3674
aI742
aI63
aI3364
aI788
aI24
aI282
aI2743
aI116
aI4727
aI257
aI89
aI976
aI12048
aI116
aI24
aI782
aI5
aI257
aI273
aI116
aI443
aI13787
aI63
aI3
aI849
aI2414
aI11
aI221
aI89
aI8824
aI9332
aI45
aI1746
aI3
aI12048
aI63765
asg6
S'Alan Dershowitz said that action taken in international waters is permissible if a legal blockade is in effect  and if there is no doubt that the offending ships have made a firm determination to break the blockade  .'
p11
ss.