(dp1
S'input'
p2
(dp3
S'encoded'
p4
(lp5
I64
aI2179
aI13605
aI2258
aI45
aI2194
asS'ori'
p6
S'This house prefers trade to aid'
p7
ssS'output'
p8
(dp9
g4
(lp10
I378
aI2891
aI116
aI99
aI243
aI89
aI69
aI3262
aI63765
asg6
S'However  development is not always a positive process .'
p11
ss.