(dp1
S'input'
p2
(dp3
S'encoded'
p4
(lp5
I64
aI2179
aI43
aI63
aI3
aI4990
aI4991
aI116
aI4850
aI24
aI12166
aI3
aI475
aI7
aI3532
aI3290
aI7
aI4714
asS'ori'
p6
S'This house believes that the Catholic Church is justified in forbidding the use of barrier methods of contraception'
p7
ssS'output'
p8
(dp9
g4
(lp10
I89
aI3874
aI3217
aI282
aI692
aI174
aI2729
aI3
aI234
aI63
aI2042
aI139
aI1476
aI3
aI2038
aI7
aI45876
aI5
aI45877
aI131
aI8497
aI63
aI136
aI2041
aI1227
aI45
aI316
aI3818
aI45
aI1358
aI223
aI7
aI3
aI857
aI7
aI45876
aI5
aI45877
aI63765
asg6
S'A Family Health International publication also offers the view that education can reduce the risk of breakage and slippage  but emphasizes that more research needs to be done to determine all of the causes of breakage and slippage  .'
p11
ss.