(dp1
S'input'
p2
(dp3
S'encoded'
p4
(lp5
I64
aI2179
aI394
aI2017
aI223
aI9058
aI23653
asS'ori'
p6
S'This house would ban all unsustainable logging'
p7
ssS'output'
p8
(dp9
g4
(lp10
I7038
aI7809
aI4995
aI3964
aI2702
aI24
aI100
aI5025
aI2203
aI63765
asg6
S'Massive deforestation threatens food security in some African countries  .'
p11
ss.