(dp1
S'input'
p2
(dp3
S'encoded'
p4
(lp5
I64
aI2179
aI43
aI63
aI323
aI417
aI10009
aI211
aI9035
aI249
aI45
aI3426
aI211
aI2144
aI595
aI17
aI96
asS'ori'
p6
S'This house believes that Europe should weaken its austerity measures to guarantee its citizens greater social support'
p7
ssS'output'
p8
(dp9
g4
(lp10
I3
aI1906
aI9164
aI7
aI8872
aI5
aI7337
aI2363
aI221
aI9165
aI7
aI3
aI3811
aI113
aI4787
aI5
aI9166
aI739
aI89
aI8959
aI9167
aI138
aI6859
aI2263
aI63765
asg6
S'The November 2010 revisions of 2009 deficit and debt levels made accomplishment of the 2010 targets even harder  and indications signaled a recession harsher than originally feared  .'
p11
ss.