(dp1
S'input'
p2
(dp3
S'encoded'
p4
(lp5
I64
aI2179
aI43
aI63
aI3
aI28431
aI7
aI2157
aI4624
aI75
aI39939
aI27257
aI122
aI4850
asS'ori'
p6
S'This house believes that the leaking of military documents by Anat Kamm was justified'
p7
ssS'output'
p8
(dp9
g4
(lp10
I3
aI883
aI122
aI1607
aI751
aI89
aI6011
aI7042
aI131
aI7324
aI382
aI1017
aI604
aI7
aI260
aI3615
aI45
aI713
aI89
aI7042
aI60
aI2146
aI8862
aI5224
aI2867
aI45
aI25083
aI3
aI6383
aI41
aI261
aI41
aI1411
aI63
aI89
aI3516
aI394
aI7397
aI136
aI703
aI45
aI3
aI33
aI63765
asg6
S'The newspaper was brought before a Grand Jury  but proceedings were halted because of government reluctance to present a jury with highly secret information necessary to prosecute the publishers as well as concern that a trial would attract more attention to the case  .'
p11
ss.