(dp1
S'input'
p2
(dp3
S'encoded'
p4
(lp5
I64
aI2179
aI394
aI2017
aI262
asS'ori'
p6
S'This house would ban boxing'
p7
ssS'output'
p8
(dp9
g4
(lp10
I45
aI1835
aI3
aI818
aI1822
aI89
aI468
aI1602
aI5
aI1840
aI3
aI21
aI34
aI1524
aI455
aI5
aI45
aI3
aI20
aI34
aI298
aI271
aI833
aI762
aI116
aI1841
aI1636
aI86
aI5
aI768
aI1602
aI611
aI1636
aI271
aI299
aI226
aI271
aI299
aI116
aI1804
aI271
aI1070
aI611
aI63765
asg6
S'To execute the shoulder lean a fighter rotates and ducks (to the right for orthodox fighters and to the left for southpaws) when their opponents punch is coming towards them and then rotates back towards their opponent while their opponent is bringing their hand back .'
p11
ss.