(dp1
S'input'
p2
(dp3
S'encoded'
p4
(lp5
I64
aI2179
aI43
aI63
aI2659
aI417
aI1690
aI3
aI12048
aI7
aI19084
asS'ori'
p6
S'This house believes that Israel should lift the blockade of Gaza'
p7
ssS'output'
p8
(dp9
g4
(lp10
I24
aI1341
aI3
aI7087
aI366
aI27081
aI136
aI138
aI6002
aI353
aI2010
aI350
aI34
aI7795
aI34
aI3
aI2223
aI4212
aI7
aI8798
aI73
aI19397
aI25164
aI850
aI325
aI4871
aI73
aI2034
aI806
aI45
aI760
aI73
aI459
aI3500
aI7
aI3
aI4649
aI9590
aI2533
aI63765
asg6
S'In particular  the panel  after interviewing more than 100 witnesses  found clear evidence for prosecution for the war crimes of "wilful killing; torture or inhuman treatment; wilfully causing great suffering or serious injury to body or health" under Article 147 of the Fourth Geneva Convention  .'
p11
ss.