(dp1
S'input'
p2
(dp3
S'encoded'
p4
(lp5
I64
aI2179
aI394
aI2773
aI12505
asS'ori'
p6
S'This house would embrace multiculturalism'
p7
ssS'output'
p8
(dp9
g4
(lp10
I3
aI727
aI1340
aI3
aI5653
aI7
aI223
aI655
aI45
aI3
aI3904
aI5597
aI41
aI261
aI41
aI667
aI4259
aI159
aI41
aI3
aI10891
aI7
aI3
aI237
aI267
aI2819
aI27547
aI92
aI1760
aI3
aI7854
aI7793
aI36618
aI2186
aI45
aI719
aI5615
aI78
aI24
aI384
aI1948
aI7
aI3
aI3
aI237
aI2333
aI7
aI3
aI2148
aI9184
aI3
aI4360
aI7
aI3
aI626
aI2138
aI4750
aI282
aI927
aI34
aI3
aI2266
aI7
aI5
aI19708
aI7
aI3
aI5119
aI2178
aI14
aI2589
aI5
aI12997
aI24
aI2574
aI60
aI3
aI282
aI2134
aI34
aI2589
aI63765
asg6
S'The results presented the commitments of all participants to the existing initiatives  as well as new ones  such as the inauguration of the first two Dialogue Cafes  which uses the latest video conferencing technology to connect young people in different parts of the world; the first conference of the Global Youth Movement; the creation of the United Nations University International Institute for the Alliance of Civilizations; and launching of the Online Community on Migration and Integration in partnership with the International Organization for Migration .'
p11
ss.