(dp1
S'input'
p2
(dp3
S'encoded'
p4
(lp5
I64
aI2179
aI43
aI223
aI2138
aI11
aI89
aI21
aI45
aI2185
aI372
asS'ori'
p6
S'This house believes all nations have a right to nuclear weapons'
p7
ssS'output'
p8
(dp9
g4
(lp10
I14
aI2394
aI33627
aI33628
aI89
aI9991
aI19365
aI34
aI3
aI2145
aI63765
aI742
aI63
aI41
aI938
aI41
aI42
aI5264
aI1354
aI7
aI3
aI2145
aI2544
aI2138
aI440
aI11242
aI3
aI9991
aI2180
aI1191
aI13410
aI7
aI2612
aI7
aI11695
aI45
aI2046
aI19
aI10919
aI63765
asg6
S"On 29 December 2009  Zongo Saidou  a sanctions advisor for the U .N .  said that as far as he knew  none of the U .N .'s member nations had alerted the sanctions committee about allegations of sales of uranium to Iran from Kazakhstan ."
p11
ss.