(dp1
S'input'
p2
(dp3
S'encoded'
p4
(lp5
I64
aI2179
aI235
aI3
aI2136
aI7
aI3
aI2306
aI7
aI2390
asS'ori'
p6
S'This house supports the one-child policy of the republic of China'
p7
ssS'output'
p8
(dp9
g4
(lp10
I24
aI3
aI734
aI7
aI2445
aI2446
aI3601
aI5546
aI2390
aI7
aI11447
aI588
aI40016
aI40017
aI2789
aI5
aI12881
aI24
aI89
aI696
aI7
aI6426
aI1043
aI3590
aI1971
aI75
aI3
aI658
aI2702
aI3933
aI63765
asg6
S'In the beginning of 2000s  Human Rights Watch accused China of locking up Falun Gong members and dissidents in a number of Chinese mental hospitals managed by the Public Security Bureau  .'
p11
ss.