(dp1
S'input'
p2
(dp3
S'encoded'
p4
(lp5
I64
aI2179
aI394
aI2017
aI223
aI9058
aI23653
asS'ori'
p6
S'This house would ban all unsustainable logging'
p7
ssS'output'
p8
(dp9
g4
(lp10
I1277
aI214
aI1729
aI311
aI45
aI18189
aI9041
aI7910
aI5
aI1476
aI3
aI1379
aI3026
aI3
aI8272
aI7
aI89
aI2753
aI886
aI63
aI3
aI4779
aI7
aI443
aI3364
aI14
aI1771
aI3
aI2764
aI7910
aI182
aI938
aI595
aI138
aI3
aI4779
aI7
aI1631
aI9046
aI60
aI2361
aI63765
asg6
S'Key issues discussed at FD4 include:Harnessing REDD+ to sustainably manage forests and reduce poverty: The day saw the emergence of a robust consensus that the risks of no action on protecting the worlds forests are far greater than the risks of moving ahead with less-than-perfect agreements .'
p11
ss.