(dp1
S'input'
p2
(dp3
S'encoded'
p4
(lp5
I64
aI2179
aI43
aI63
aI3
aI21
aI45
aI12715
aI417
aI99
aI316
aI2897
asS'ori'
p6
S'This house believes that the right to asylum should not be absolute'
p7
ssS'output'
p8
(dp9
g4
(lp10
I134
aI122
aI2010
aI63
aI487
aI3
aI2711
aI7
aI78
aI6907
aI34
aI12715
aI122
aI595
aI138
aI3
aI2711
aI773
aI56
aI131
aI1032
aI17633
aI93
aI19
aI3
aI248
aI500
aI99
aI79
aI63765
asg6
S'It was clear that  until 2006  the numbers of people applying for asylum was greater than the numbers being removed but simply subtracting one from the other did not work .'
p11
ss.