(dp1
S'input'
p2
(dp3
S'encoded'
p4
(lp5
I64
aI2179
aI394
aI60
aI23587
asS'ori'
p6
S'This house would re-engage with Myanmar'
p7
ssS'output'
p8
(dp9
g4
(lp10
I60628
aI1629
aI588
aI89
aI17286
aI45
aI316
aI1969
aI45
aI2800
aI2159
aI448
aI2017
aI45
aI163
aI3
aI4515
aI7
aI22
aI12418
aI24
aI3118
aI25
aI3446
aI7463
aI63765
asg6
S'BCUK set up a petition to be sent to UN Secretary General Ban Ki-moon to make the release of political prisoners in Burma his personal priority .'
p11
ss.