(dp1
S'input'
p2
(dp3
S'encoded'
p4
(lp5
I64
aI2179
aI394
aI2741
aI3
aI1560
aI6025
aI2784
asS'ori'
p6
S'This house would pass the American Jobs Act'
p7
ssS'output'
p8
(dp9
g4
(lp10
I3
aI2823
aI4446
aI63
aI195
aI182
aI99
aI4464
aI462
aI11584
aI45
aI1978
aI1069
aI196
aI63765
asg6
S'The Shapiro-Stiglitz model suggests that wages are not bid down sufficiently to ever reach 0% unemployment  .'
p11
ss.