(dp1
S'input'
p2
(dp3
S'encoded'
p4
(lp5
I64
aI2179
aI394
aI2017
aI3807
aI314
aI3433
asS'ori'
p6
S'This house would ban partial birth abortions'
p7
ssS'output'
p8
(dp9
g4
(lp10
I97
aI3874
aI7
aI3384
aI3
aI4185
aI14
aI3618
aI12508
aI45
aI651
aI16759
aI2802
aI7
aI755
aI3
aI4770
aI651
aI2446
aI2986
aI3257
aI113
aI257
aI3
aI16502
aI55
aI89
aI21
aI45
aI3269
aI63765
asg6
S'Another family of arguments (see the section on Thomson  below) relates to bodily rightsthe question of whether the womans bodily rights justify abortion even if the embryo has a right to life .'
p11
ss.