(dp1
S'input'
p2
(dp3
S'encoded'
p4
(lp5
I64
aI2179
aI43
aI63
aI3
aI21
aI45
aI12715
aI417
aI99
aI316
aI2897
asS'ori'
p6
S'This house believes that the right to asylum should not be absolute'
p7
ssS'output'
p8
(dp9
g4
(lp10
I3
aI7074
aI116
aI717
aI14
aI3
aI2337
aI7
aI3
aI6056
aI3912
aI2895
aI3532
aI5
aI47
aI316
aI2648
aI177
aI63765
asg6
S"The barrier's plan is based on the designs of the Israeli West Bank barrier and will be 3 .6 m (11 .8 ft) high ."
p11
ss.