(dp1
S'input'
p2
(dp3
S'encoded'
p4
(lp5
I64
aI2179
aI43
aI63
aI3376
aI4938
aI417
aI316
aI3537
asS'ori'
p6
S'This house believes that endangered species should be protected'
p7
ssS'output'
p8
(dp9
g4
(lp10
I378
aI99
aI223
aI6834
aI96
aI64
aI234
aI691
aI273
aI116
aI4967
aI41
aI45
aI40
aI3740
aI3
aI6674
aI781
aI116
aI3181
aI75
aI3
aI595
aI3891
aI5
aI3554
aI7
aI2068
aI33764
aI14036
aI63765
asg6
S'However  not all scientists support this view  since there is uncertainty as to how strongly the fossil record is biased by the greater availability and preservation of recent geologic sections .'
p11
ss.