(dp1
S'input'
p2
(dp3
S'encoded'
p4
(lp5
I64
aI2179
aI43
aI63
aI11083
aI10046
aI417
aI316
aI89
aI3135
aI4603
asS'ori'
p6
S'This house believes that Holocaust denial should be a criminal offence'
p7
ssS'output'
p8
(dp9
g4
(lp10
I3
aI2511
aI47
aI163
aI9956
aI864
aI7
aI120
aI9928
aI34
aI271
aI2521
asg6
S'the laws will make martyrs out of those imprisoned for their violation'
p11
ss.