(dp1
S'input'
p2
(dp3
S'encoded'
p4
(lp5
I64
aI2179
aI394
aI3830
aI3
aI475
aI7
aI9441
aI13132
aI3102
aI24
aI276
aI381
asS'ori'
p6
S'This house would permit the use of performance enhancing drugs in professional sports'
p7
ssS'output'
p8
(dp9
g4
(lp10
I3
aI20780
aI11875
aI15359
aI1411
aI34
aI4562
aI1718
aI16577
aI3
aI11898
aI5
aI743
aI63
aI3137
aI316
aI4883
aI24
aI13004
aI2233
aI3
aI706
aI10141
aI217
aI3301
aI4417
aI63765
asg6
S"The DEA administrator  expressing concern for abuse potential  overruled the recommendation and ruled that MDMA be put in Schedule I  the Controlled Substances Act's most restrictive category  ."
p11
ss.