(dp1
S'input'
p2
(dp3
S'encoded'
p4
(lp5
I64
aI2179
aI43
aI63
aI2157
aI2565
aI493
aI19084
aI382
aI4850
asS'ori'
p6
S"This house believes that Israel's 2008-2009 military operations against Gaza were justified"
p7
ssS'output'
p8
(dp9
g4
(lp10
I2039
aI34
aI2445
aI2173
aI3
aI6056
aI2157
aI10048
aI2015
aI4706
aI4533
aI397
aI211
aI20031
aI99
aI117
aI5999
aI45
aI30907
aI29728
aI5
aI11166
aI5743
aI131
aI174
aI5377
aI19088
aI2015
aI4144
aI19
aI7950
aI3
aI11166
asg6
S'Physicians for Human Rights-Israel (PHR) stated the Israeli military violated medical ethics codes during its offensive  not only refusing to evacuate besieged and wounded families  but also preventing Palestinian medical teams from reaching the wounded'
p11
ss.