(dp1
S'input'
p2
(dp3
S'encoded'
p4
(lp5
I64
aI2179
aI394
aI4261
aI8667
aI3
aI9361
aI5
aI17069
asS'ori'
p6
S'This house would prohibit burning the stars and stripes'
p7
ssS'output'
p8
(dp9
g4
(lp10
I24
aI132
aI3717
aI271
aI709
aI122
aI545
aI3
aI1795
aI7
aI3
aI1260
aI2381
aI2489
aI7
aI3
aI237
aI3264
aI5
aI3
aI1021
aI3262
aI2489
aI7
aI3
aI3263
asg6
S'In these circumstances  their conduct was within the protection of the Free Speech Clause of the First Amendment and the Due Process Clause of the Fourteenth ."'
p11
ss.