(dp1
S'input'
p2
(dp3
S'encoded'
p4
(lp5
I64
aI2179
aI43
aI63
aI187
aI417
aI99
aI16642
aI3
aI6449
aI7
aI3935
asS'ori'
p6
S'This house believes that states should not subsidize the growing of tobacco'
p7
ssS'output'
p8
(dp9
g4
(lp10
I233
aI45
aI3
aI282
aI2904
aI34
aI2041
aI14
aI5057
aI3217
aI6834
aI11
aI3017
aI63
aI14946
aI3935
aI417
aI316
aI416
aI24
aI14833
aI14986
aI8278
aI5
aI11
aI221
aI17383
aI73
aI14407
aI4453
aI63
aI211
aI475
aI394
aI5195
aI1476
aI3
aI1571
aI7
aI14832
aI45
aI25207
aI5
aI3
aI2038
aI34
aI5057
aI63765
asg6
S'According to the International Agency for Research on Cancer  "Some health scientists have suggested that smokeless tobacco should be used in smoking cessation programmes and have made implicit or explicit claims that its use would partly reduce the exposure of smokers to carcinogens and the risk for cancer .'
p11
ss.