(dp1
S'input'
p2
(dp3
S'encoded'
p4
(lp5
I64
aI2179
aI43
aI223
aI2138
aI11
aI89
aI21
aI45
aI2185
aI372
asS'ori'
p6
S'This house believes all nations have a right to nuclear weapons'
p7
ssS'output'
p8
(dp9
g4
(lp10
I24
aI421
aI880
aI823
aI463
aI316
aI4666
aI73
aI547
aI45
aI4833
aI776
aI2126
aI493
aI3
aI2185
aI2940
aI63765
asg6
S"In addition  neither side could be expected or allowed to adequately defend itself against the other's nuclear missiles ."
p11
ss.