(dp1
S'input'
p2
(dp3
S'encoded'
p4
(lp5
I64
aI2179
aI43
aI63
aI134
aI116
aI400
aI21
aI34
aI3
aI260
aI45
aI3439
aI57
aI7
aI2381
asS'ori'
p6
S'This house believes that it is sometimes right for the government to restrict freedom of speech'
p7
ssS'output'
p8
(dp9
g4
(lp10
I459
aI3
aI4505
aI3274
aI89
aI79
aI116
aI20896
aI8037
aI63
aI52736
aI150
aI52737
aI1964
aI755
aI3
aI7371
aI3368
aI45
aI3
aI31604
aI508
aI7371
aI88
aI316
aI300
aI20896
aI24
aI93
aI17479
aI131
aI99
aI24
aI97
aI63765
asg6
S'Under the Miller test  a work is obscene if: Note that "community" standardsnot national standardsare applied whether the material appeals to the prurient interest; thus  material may be deemed obscene in one locality but not in another .'
p11
ss.