(dp1
S'input'
p2
(dp3
S'encoded'
p4
(lp5
I64
aI2179
aI394
aI9385
aI2497
aI447
aI14
aI3
aI3578
aI5721
aI7
aI260
asS'ori'
p6
S'This house would enforce term limits on the legislative branch of government'
p7
ssS'output'
p8
(dp9
g4
(lp10
I3
aI2145
aI63765
aI2221
aI937
aI3
aI45729
aI752
aI7
aI252
aI4288
aI447
aI63765
asg6
S'The U .S . Congress remains (since the Thornton decision of 1995) without electoral limits .'
p11
ss.