(dp1
S'input'
p2
(dp3
S'encoded'
p4
(lp5
I64
aI2179
aI43
aI63
aI17574
aI417
aI316
aI3481
aI34
aI271
aI79
asS'ori'
p6
S'This house believes that housewives should be paid for their work'
p7
ssS'output'
p8
(dp9
g4
(lp10
I2643
aI273
aI182
aI869
aI1948
aI7
aI3
aI2190
aI4450
aI658
aI5
aI63765
asg6
S'Today  there are four parts of the economy: Business  Household  Public  and Non-profit .'
p11
ss.