(dp1
S'input'
p2
(dp3
S'encoded'
p4
(lp5
I64
aI2179
aI394
aI10662
aI626
aI187
aI2157
aI2697
aI19
aI2371
asS'ori'
p6
S'This house would remove United States military bases from Japan'
p7
ssS'output'
p8
(dp9
g4
(lp10
I3
aI7786
aI5
aI217
aI2758
aI2674
aI972
aI1548
aI24
aI2087
aI2770
aI33050
aI2674
aI1548
aI116
aI717
aI14
aI3
aI3
aI22806
aI7002
aI3
aI1548
aI2832
aI1445
aI1183
aI7
aI6693
aI5
aI116
aI5501
aI24
aI248
aI3708
aI63765
asg6
S'The biggest and most active air force base in east Asia  Kadena Air Base  is based on the island; the islanders complain the base produces large amounts of noise and is dangerous in other ways .'
p11
ss.