(dp1
S'input'
p2
(dp3
S'encoded'
p4
(lp5
I64
aI2179
aI394
aI2017
aI262
asS'ori'
p6
S'This house would ban boxing'
p7
ssS'output'
p8
(dp9
g4
(lp10
I3
aI266
aI7
aI262
aI55
aI267
aI1010
aI689
aI262
aI2057
aI7
aI3
aI282
aI262
aI2058
aI7
aI2059
aI5
aI3
aI285
aI262
aI2058
aI7
aI2059
aI60
aI3
aI2060
aI773
aI3
aI136
aI1360
aI689
aI262
aI2058
aI7
aI2059
aI63765
asg6
S'The sport of boxing has two internationally recognized boxing halls of fame; the International Boxing Hall of Fame (IBHOF) and the World Boxing Hall of Fame (WBHF)  with the IBHOF being the more widely recognized boxing hall of fame .'
p11
ss.