(dp1
S'input'
p2
(dp3
S'encoded'
p4
(lp5
I64
aI2179
aI394
aI2017
aI3807
aI314
aI3433
asS'ori'
p6
S'This house would ban partial birth abortions'
p7
ssS'output'
p8
(dp9
g4
(lp10
I24
aI448
aI3
aI3412
aI3531
aI3
aI28740
aI7
aI2015
aI75
aI12362
aI5
aI3
aI28741
aI7
aI5571
aI2015
aI17524
aI7
aI2146
aI5717
aI3535
aI63765
aI63765
aI41
aI906
aI75
aI63765
asg6
S'In general  the dissent criticized the usurpation of medical decision-making by legislators and the minimization of "the reasoned medical judgments of highly trained doctors . . as \'preferences\' motivated by \'mere convenience\' .'
p11
ss.