(dp1
S'input'
p2
(dp3
S'encoded'
p4
(lp5
I64
aI2179
aI43
aI63
aI820
aI12564
aI182
aI3
aI217
aI1112
aI1869
aI7
aI10656
aI4672
aI34
aI5276
asS'ori'
p6
S'This house believes that open primaries are the most effective method of selecting candidates for elections'
p7
ssS'output'
p8
(dp9
g4
(lp10
I9730
aI116
aI89
aI11590
aI1343
aI7
aI15
aI1356
aI311
aI3
aI1643
aI257
aI273
aI182
aI267
aI4672
aI4895
aI89
aI7532
aI2509
aI45
aI316
aI3
aI217
aI1856
aI45
aI750
aI3
aI7532
aI139
aI12603
aI271
aI918
aI14
aI3
aI269
aI291
aI132
aI4672
aI75
aI7514
aI3
aI10484
aI4895
aI155
aI675
aI136
aI24
aI237
aI238
aI5
aI7514
aI3
aI10484
aI4895
aI155
aI675
aI149
aI24
aI1447
aI238
aI63765
asg6
S'Here is a hypothetical example of both factors at the same time: If there are two candidates whom a voter considers to be the most likely to win  the voter can maximize their impact on the contest between these candidates by ranking the candidate whom they like more in first place  and ranking the candidate whom they like less in last place .'
p11
ss.