(dp1
S'input'
p2
(dp3
S'encoded'
p4
(lp5
I64
aI2179
aI394
aI2773
aI12505
asS'ori'
p6
S'This house would embrace multiculturalism'
p7
ssS'output'
p8
(dp9
g4
(lp10
I7423
aI8313
aI15758
aI3954
aI17415
aI5
aI8754
aI4793
aI19
aI238
aI45
aI238
aI545
aI3
aI2696
aI131
aI1920
aI1897
aI89
aI33041
aI63765
asg6
S"India's languages  religions  dance  music  architecture and customs differ from place to place within the country  but nevertheless possess a commonality ."
p11
ss.