(dp1
S'input'
p2
(dp3
S'encoded'
p4
(lp5
I64
aI2179
aI394
aI2017
aI223
aI9058
aI23653
asS'ori'
p6
S'This house would ban all unsustainable logging'
p7
ssS'output'
p8
(dp9
g4
(lp10
I1019
aI3895
aI3
aI5136
aI7
aI8254
aI6793
asg6
S'cannot bear the costs of forest conservation'
p11
ss.