(dp1
S'input'
p2
(dp3
S'encoded'
p4
(lp5
I64
aI2179
aI43
aI63
aI3
aI4538
aI7
aI4434
aI7793
aI283
aI45
aI3586
aI417
aI316
aI577
asS'ori'
p6
S'This house believes that the sale of violent video games to minors should be banned'
p7
ssS'output'
p8
(dp9
g4
(lp10
I233
aI45
aI3
aI24426
aI49
aI7
aI24470
aI24374
aI182
aI3495
aI10731
aI63765
asg6
S'According to the ESRB almost 41% of PC gamers are women (see Girl gamer) .'
p11
ss.