(dp1
S'input'
p2
(dp3
S'encoded'
p4
(lp5
I64
aI2179
aI43
aI223
aI2138
aI11
aI89
aI21
aI45
aI2185
aI372
asS'ori'
p6
S'This house believes all nations have a right to nuclear weapons'
p7
ssS'output'
p8
(dp9
g4
(lp10
I3
aI5048
aI7
aI2185
aI372
aI116
aI10985
aI45
aI3208
aI2223
asg6
S'the significance of nuclear weapons is purely to deter war'
p11
ss.