(dp1
S'input'
p2
(dp3
S'encoded'
p4
(lp5
I64
aI2179
aI394
aI163
aI959
aI2042
aI3557
asS'ori'
p6
S'This house would make physical education compulsory'
p7
ssS'output'
p8
(dp9
g4
(lp10
I3
aI2715
aI2038
aI5085
aI34
aI3315
aI16329
aI116
aI3
aI16329
aI7
aI15
aI8532
aI63765
asg6
S'The greatest risk factor for child obesity is the obesity of both parents .'
p11
ss.