(dp1
S'input'
p2
(dp3
S'encoded'
p4
(lp5
I64
aI2179
aI43
aI63
aI3
aI4990
aI4991
aI116
aI4850
aI24
aI12166
aI3
aI475
aI7
aI3532
aI3290
aI7
aI4714
asS'ori'
p6
S'This house believes that the Catholic Church is justified in forbidding the use of barrier methods of contraception'
p7
ssS'output'
p8
(dp9
g4
(lp10
I725
aI51943
aI7332
aI92
aI7690
aI174
aI182
aI311
aI3
aI1200
aI45
aI124
aI1417
aI19547
aI45
aI3
aI1036
aI63765
asg6
S'Many textured condoms which advertise "mutual pleasure" also are bulb-shaped at the top  to provide extra stimulation to the male  .'
p11
ss.