(dp1
S'input'
p2
(dp3
S'encoded'
p4
(lp5
I64
aI2179
aI43
aI63
aI2203
aI60
aI51
aI997
aI2837
aI21716
aI1636
aI5349
aI417
aI2998
aI8532
aI45
aI3051
aI8578
asS'ori'
p6
S'This house believes that countries with an imbalanced male/female ratio skewed towards males should encourage parents to produce girls'
p7
ssS'output'
p8
(dp9
g4
(lp10
I93
aI2035
aI353
aI63
aI3
aI11389
aI2837
aI24
aI3
aI2330
aI10
aI7
aI26627
aI8231
aI41
aI982
aI41
aI366
aI3
aI312
aI7
aI285
aI2223
aI2236
aI34
aI3
aI217
aI996
aI3493
aI3485
aI16197
aI291
aI5
aI2439
aI5545
aI24
aI63765
asg6
S'One study found that the male-to-female sex ratio in the German state of Bavaria fell as low as 0 .60 after the end of World War II for the most severely affected age cohort (those between 21 and 23 years old in 1946) .'
p11
ss.