(dp1
S'input'
p2
(dp3
S'encoded'
p4
(lp5
I64
aI2179
aI394
aI2773
aI12505
asS'ori'
p6
S'This house would embrace multiculturalism'
p7
ssS'output'
p8
(dp9
g4
(lp10
I2714
aI55
aI4001
aI3920
aI1560
aI3024
aI63
aI42
aI8467
aI45
aI3204
aI3
aI1362
aI291
aI3
aI626
aI187
aI5
aI3
aI7704
aI5
aI5089
aI630
aI19748
aI63765
asg6
S'Obama has told Native American leaders that he wants to improve the "nation-to-nation" relationship between the United States and the tribes and repair broken promises .'
p11
ss.