(dp1
S'input'
p2
(dp3
S'encoded'
p4
(lp5
I64
aI2179
aI394
aI2773
aI12505
asS'ori'
p6
S'This house would embrace multiculturalism'
p7
ssS'output'
p8
(dp9
g4
(lp10
I397
aI3
aI169
aI4116
aI306
aI273
aI182
aI2506
aI92
aI182
aI26451
aI4946
aI89
aI1445
aI2598
aI7
aI77
aI2812
aI3136
aI4532
aI24
aI2506
aI159
aI41
aI26418
aI59352
aI5
aI207
aI2450
aI24
aI6124
aI63765
asg6
S'During the British colonial rule  there are areas which are enclaves containing a large population of certain ethnic groups exist in areas such as Chinatown  Geylang and Little India in Singapore .'
p11
ss.