(dp1
S'input'
p2
(dp3
S'encoded'
p4
(lp5
I64
aI2179
aI43
aI63
aI3
aI4990
aI4991
aI116
aI4850
aI24
aI12166
aI3
aI475
aI7
aI3532
aI3290
aI7
aI4714
asS'ori'
p6
S'This house believes that the Catholic Church is justified in forbidding the use of barrier methods of contraception'
p7
ssS'output'
p8
(dp9
g4
(lp10
I41
aI33800
aI7505
aI4439
aI134
aI34891
aI122
aI237
aI13337
aI426
aI24
aI323
aI24
aI211
aI39710
aI153
aI7176
aI3
aI760
aI19
aI3
aI536
aI45
aI3
aI1677
aI1404
aI19215
aI45
aI367
aI19
aI7491
aI5
aI2425
aI45
aI1012
aI545
aI89
aI1896
aI3131
asg6
S'As Jared Diamond describes it  "when syphilis was first definitely recorded in Europe in 1495  its pustules often covered the body from the head to the knees  caused flesh to fall from people\'s faces  and led to death within a few months ."'
p11
ss.