(dp1
S'input'
p2
(dp3
S'encoded'
p4
(lp5
I64
aI2179
aI43
aI63
aI3
aI21
aI45
aI12715
aI417
aI99
aI316
aI2897
asS'ori'
p6
S'This house believes that the right to asylum should not be absolute'
p7
ssS'output'
p8
(dp9
g4
(lp10
I75
aI3
aI705
aI2711
aI545
aI3
aI2610
aI3987
aI440
aI7883
aI45
aI2151
aI958
aI136
aI138
aI4915
aI3
aI4445
aI6941
aI311
aI211
aI407
aI26623
aI63765
asg6
S'By 1970 the staff numbers within the Immigration Service had risen to approximately 1100 - rather more than double the administration workers at its London HQ  .'
p11
ss.