(dp1
S'input'
p2
(dp3
S'encoded'
p4
(lp5
I64
aI2179
aI43
aI63
aI134
aI116
aI400
aI21
aI34
aI3
aI260
aI45
aI3439
aI57
aI7
aI2381
asS'ori'
p6
S'This house believes that it is sometimes right for the government to restrict freedom of speech'
p7
ssS'output'
p8
(dp9
g4
(lp10
I257
aI2484
aI3
aI3846
aI685
aI47
aI775
aI38499
aI3
aI12511
aI2381
aI3545
aI34
aI4849
aI3052
aI63765
asg6
S'If upheld  the precedent established will effectively negate the hate speech provision for future cases .'
p11
ss.