(dp1
S'input'
p2
(dp3
S'encoded'
p4
(lp5
I64
aI2179
aI43
aI3
aI626
aI187
aI116
aI1989
aI34
aI3102
aI2223
asS'ori'
p6
S"This house believes the United States is responsible for Mexico's drugs war"
p7
ssS'output'
p8
(dp9
g4
(lp10
I155
aI297
aI14
aI89
aI1862
aI45
aI3114
aI5
aI6726
aI1263
aI834
aI3139
aI7276
aI958
aI138
aI28417
aI22866
aI63765
asg6
S'They decided on a strategy to identify and eliminate entire arms trafficking networks rather than lowlevel buyers  .'
p11
ss.