(dp1
S'input'
p2
(dp3
S'encoded'
p4
(lp5
I64
aI2179
aI394
aI2976
aI12243
aI24
aI954
aI126
aI1560
aI10723
asS'ori'
p6
S'This house would implement playoffs in collegiate level American football'
p7
ssS'output'
p8
(dp9
g4
(lp10
I903
aI256
aI202
aI5
aI5451
aI47
aI574
aI6750
aI34
aI1443
aI271
aI4144
aI45
aI6004
aI24
aI3
aI4584
aI34
aI34949
aI21656
aI63765
asg6
S'Independent programs Army and Navy will each receive $100 000 for allowing their teams to participate in the selection for BCS bowls .'
p11
ss.