(dp1
S'input'
p2
(dp3
S'encoded'
p4
(lp5
I64
aI2179
aI394
aI16756
aI20435
asS'ori'
p6
S'This house would criminalize blasphemy'
p7
ssS'output'
p8
(dp9
g4
(lp10
I44123
aI273
aI116
aI57
aI7
aI2381
aI9730
aI63765
asg6
S'(I am) Glad there is freedom of speech here .'
p11
ss.