(dp1
S'input'
p2
(dp3
S'encoded'
p4
(lp5
I64
aI2179
aI394
aI190
aI3
aI21
aI45
aI3895
aI834
asS'ori'
p6
S'This house would limit the right to bear arms'
p7
ssS'output'
p8
(dp9
g4
(lp10
I17078
aI217
aI153
aI12015
aI1374
aI19
aI3874
aI2716
aI2613
aI4421
aI5
aI1193
aI10075
aI63765
asg6
S'Juveniles most often acquire guns from family  friends  drug dealers  and street contacts  .'
p11
ss.