(dp1
S'input'
p2
(dp3
S'encoded'
p4
(lp5
I64
aI2179
aI43
aI3
aI626
aI187
aI116
aI1989
aI34
aI3102
aI2223
asS'ori'
p6
S"This house believes the United States is responsible for Mexico's drugs war"
p7
ssS'output'
p8
(dp9
g4
(lp10
I223
aI7
aI3
aI5723
aI7
aI3
aI19158
aI4292
aI24
aI89
aI2445
aI2446
aI3601
aI905
aI14
aI2932
aI382
aI14104
aI7
aI3
aI23430
aI158
aI3
aI3501
aI23431
aI24
aI20918
aI20917
aI23432
aI53
aI3
aI14278
aI23433
aI4045
aI458
aI63765
asg6
S'All of the commanders of the brigades highlighted in a 2001 Human Rights Watch report on Colombia were graduates of the SOA  including the III brigade in Valle del Cauca  where the 2001 Alto Naya Massacre occurred .'
p11
ss.