(dp1
S'input'
p2
(dp3
S'encoded'
p4
(lp5
I64
aI2179
aI43
aI63
aI6670
aI546
aI417
aI316
aI89
aI1334
aI3108
aI7
aI4849
aI1886
aI2855
asS'ori'
p6
S'This house believes that wind power should be a primary focus of future energy supply'
p7
ssS'output'
p8
(dp9
g4
(lp10
I24
aI6836
aI45
aI3492
aI6670
aI6228
aI2178
aI6670
aI3224
aI1057
aI45
aI949
aI4949
aI153
aI149
aI138
aI63765
asg6
S'In comparison to traditional wind companies  community wind businesses tend to develop smaller-scale projects  often less than 50&nbsp;megawatts (MW) .'
p11
ss.