(dp1
S'input'
p2
(dp3
S'encoded'
p4
(lp5
I64
aI2179
aI394
aI16756
aI20435
asS'ori'
p6
S'This house would criminalize blasphemy'
p7
ssS'output'
p8
(dp9
g4
(lp10
I5879
aI3581
aI89
aI70
aI493
aI20435
aI24
aI63765
asg6
S'Pennsylvania enacted a law against blasphemy in 1977 .'
p11
ss.