(dp1
S'input'
p2
(dp3
S'encoded'
p4
(lp5
I64
aI2179
aI43
aI63
aI134
aI116
aI400
aI21
aI34
aI3
aI260
aI45
aI3439
aI57
aI7
aI2381
asS'ori'
p6
S'This house believes that it is sometimes right for the government to restrict freedom of speech'
p7
ssS'output'
p8
(dp9
g4
(lp10
I3
aI7220
aI2804
aI7224
aI596
aI45
aI405
aI493
aI2445
aI2446
aI3147
aI60
aI3236
aI45
aI4509
aI3757
aI45
aI5224
aI14
aI3
aI5
aI62
aI111
aI3
aI7225
aI2178
aI45
aI3708
aI5
aI258
aI7
aI7226
aI10
aI4293
aI7149
aI7
aI3
aI5
aI2947
aI45
aI1342
aI5224
aI2446
aI63765
asg6
S'The Hacktivismo Declaration recognises "the importance to fight against human rights abuses with respect to reasonable access to information on the Internet" and calls upon the hacker community to "study ways and means of circumventing state sponsored censorship of the internet" and "implement technologies to challenge information rights violations" .'
p11
ss.