(dp1
S'input'
p2
(dp3
S'encoded'
p4
(lp5
I64
aI2179
aI43
aI63
aI3
aI21
aI45
aI12715
aI417
aI99
aI316
aI2897
asS'ori'
p6
S'This house believes that the right to asylum should not be absolute'
p7
ssS'output'
p8
(dp9
g4
(lp10
I24
aI3
aI3579
aI7
aI7184
aI362
aI5
aI351
aI212
aI3353
aI2635
aI102
aI2610
aI2357
aI14
aI11833
aI63765
asg6
S'In the absence of adequate records and any real enforcement resources UK immigration relied on bluff .'
p11
ss.