(dp1
S'input'
p2
(dp3
S'encoded'
p4
(lp5
I64
aI2179
aI43
aI3
aI626
aI187
aI116
aI1989
aI34
aI3102
aI2223
asS'ori'
p6
S"This house believes the United States is responsible for Mexico's drugs war"
p7
ssS'output'
p8
(dp9
g4
(lp10
I3099
aI1167
aI5
aI1389
aI75
aI938
aI3
aI2546
aI1626
aI2425
aI45
aI3
aI4538
aI7
aI289
aI3892
aI7
aI92
aI3179
aI138
aI382
aI8769
aI63765
asg6
S'Operation Fast and Furious  by far the largest "gunwalking" probe  led to the sale of over 2 000 firearms  of which fewer than 700 were recovered  .'
p11
ss.