(dp1
S'input'
p2
(dp3
S'encoded'
p4
(lp5
I64
aI2179
aI394
aI190
aI3
aI21
aI45
aI3895
aI834
asS'ori'
p6
S'This house would limit the right to bear arms'
p7
ssS'output'
p8
(dp9
g4
(lp10
I292
aI125
aI3454
aI4471
aI382
aI3619
aI45
aI3743
aI3
aI1950
aI63765
asg6
S'Three basic competing models were offered to interpret the Second Amendment:  .'
p11
ss.