(dp1
S'input'
p2
(dp3
S'encoded'
p4
(lp5
I64
aI2179
aI43
aI63
aI1036
aI4828
aI33250
aI116
aI25073
aI45
aI3315
aI4562
asS'ori'
p6
S'This house believes that male infant circumcision is tantamount to child abuse'
p7
ssS'output'
p8
(dp9
g4
(lp10
I42
aI14022
aI64
aI41
aI89
aI1165
aI24
aI12402
aI886
aI545
aI3
aI2015
aI4706
aI2180
aI63765
asg6
S'He identifies this as a difficulty in achieving consensus within the medical ethics committee .'
p11
ss.