(dp1
S'input'
p2
(dp3
S'encoded'
p4
(lp5
I64
aI2179
aI43
aI63
aI3376
aI4938
aI417
aI316
aI3537
asS'ori'
p6
S'This house believes that endangered species should be protected'
p7
ssS'output'
p8
(dp9
g4
(lp10
I378
aI78
aI8045
aI3970
aI289
aI4938
aI60
aI2445
aI17783
aI24
aI7808
aI2760
aI2203
aI273
aI55
aI12
aI7912
aI1347
aI14
aI7910
aI1021
aI45
aI3963
aI6678
aI158
aI7408
aI8008
aI63
aI139
aI1476
aI3376
aI6790
aI63765
asg6
S"However  people prioritize day-to-day survival over species conservation; with human overpopulation in tropical developing countries  there has been enormous pressure on forests due to subsistence agriculture  including slash-and-burn agricultural techniques that can reduce endangered species's habitats  ."
p11
ss.