(dp1
S'input'
p2
(dp3
S'encoded'
p4
(lp5
I64
aI2179
aI43
aI63
aI820
aI12564
aI182
aI3
aI217
aI1112
aI1869
aI7
aI10656
aI4672
aI34
aI5276
asS'ori'
p6
S'This house believes that open primaries are the most effective method of selecting candidates for elections'
p7
ssS'output'
p8
(dp9
g4
(lp10
I2219
aI22
aI4615
aI45
aI3749
aI58892
aI11
aI271
aI12205
aI5
aI2504
aI271
aI1589
aI695
aI58893
aI81
aI311
aI1059
aI11
aI3763
aI45
aI23905
aI60
aI3
aI171
aI5
aI311
aI3198
aI11
aI2476
aI10238
aI60
aI89
aI2261
aI3470
aI2248
aI3751
aI3765
aI34
aI3
aI2471
aI63765
asg6
S'"Proposition 198 forces political parties to associate withto have their nominees  and hence their positions  determined bythose who  at best  have refused to affiliate with the party  and  at worst  have expressly affiliated with a rival " wrote Justice Antonin Scalia for the majority .'
p11
ss.