(dp1
S'input'
p2
(dp3
S'encoded'
p4
(lp5
I64
aI2179
aI394
aI2017
aI3807
aI314
aI3433
asS'ori'
p6
S'This house would ban partial birth abortions'
p7
ssS'output'
p8
(dp9
g4
(lp10
I3389
aI699
aI3
aI2210
aI7
aI3399
aI3
aI3357
aI24
aI3254
aI261
aI41
aI45
aI3306
aI81
aI2586
aI3400
aI89
aI3401
aI3357
aI63
aI3402
aI61
aI42
aI3026
aI41
aI3
aI2298
aI3403
aI63765
asg6
S"Burger assigned the role of writing the Court's opinion in Roe (as well as Doe) to Blackmun  who began drafting a preliminary opinion that emphasized what he saw as the Texas law's vagueness  ."
p11
ss.