(dp1
S'input'
p2
(dp3
S'encoded'
p4
(lp5
I64
aI2179
aI43
aI63
aI11083
aI10046
aI417
aI316
aI89
aI3135
aI4603
asS'ori'
p6
S'This house believes that Holocaust denial should be a criminal offence'
p7
ssS'output'
p8
(dp9
g4
(lp10
I217
aI11083
aI10046
aI4453
aI168
aI73
aI9744
aI10
aI63
aI3
aI11083
aI116
aI89
aI22307
aI4877
aI864
aI7
aI89
aI4951
aI8446
aI13925
aI45
aI3220
aI3
aI376
aI7
aI4307
aI311
aI3
aI7383
aI7
aI248
aI6619
aI63765
asg6
S'Most Holocaust denial claims imply  or openly state  that the Holocaust is a hoax arising out of a deliberate Jewish conspiracy to advance the interest of Jews at the expense of other peoples .'
p11
ss.