(dp1
S'input'
p2
(dp3
S'encoded'
p4
(lp5
I64
aI2179
aI394
aI2017
aI3807
aI314
aI3433
asS'ori'
p6
S'This house would ban partial birth abortions'
p7
ssS'output'
p8
(dp9
g4
(lp10
I3
aI3073
aI34
aI5387
aI3433
aI382
aI136
aI22995
aI41
aI3
aI1643
aI1356
aI63
aI22996
aI89
aI3833
aI45
aI5387
aI3861
aI16513
aI88
aI174
aI22996
aI732
aI45
aI1043
aI3217
aI4607
aI63765
asg6
S'The data for multiple abortions were more equivocal  as the same factors that predispose a woman to multiple unwanted pregnancies may also predispose her to mental health difficulties  .'
p11
ss.