(dp1
S'input'
p2
(dp3
S'encoded'
p4
(lp5
I64
aI2179
aI43
aI223
aI2138
aI11
aI89
aI21
aI45
aI2185
aI372
asS'ori'
p6
S'This house believes all nations have a right to nuclear weapons'
p7
ssS'output'
p8
(dp9
g4
(lp10
I3
aI13671
aI19
aI2669
aI2396
aI3
aI10053
aI34
aI89
aI419
aI11827
aI7
aI61
aI16849
aI182
aI1881
aI45
aI671
aI63765
asg6
S'The revelations from Iraq provided the impetus for a very far-reaching reconsideration of what safeguards are intended to achieve .'
p11
ss.