(dp1
S'input'
p2
(dp3
S'encoded'
p4
(lp5
I64
aI2179
aI394
aI2773
aI12505
asS'ori'
p6
S'This house would embrace multiculturalism'
p7
ssS'output'
p8
(dp9
g4
(lp10
I3
aI1643
aI3569
aI10660
aI33044
aI7
aI3
aI282
aI2589
aI927
aI443
aI593
aI55
aI45
aI790
aI755
aI134
aI8467
aI45
aI1199
aI89
aI15307
aI2022
aI63765
asg6
S'The same year  Stephen Castles of the International Migration Institute argued:"Korea no longer has to decide whether it wants to become a multicultural society .'
p11
ss.