(dp1
S'input'
p2
(dp3
S'encoded'
p4
(lp5
I64
aI2179
aI43
aI63
aI3357
aI5003
aI652
aI3
aI188
aI3262
asS'ori'
p6
S'This house believes that opinion polls harm the democratic process'
p7
ssS'output'
p8
(dp9
g4
(lp10
I3
aI7147
aI1721
aI3
aI1839
aI238
aI45
aI154
aI384
aI3293
aI7
aI89
aI419
aI4066
aI94
aI7
aI78
aI81
aI182
aI311
aI3
aI1643
aI413
aI820
aI45
aI159
aI4900
aI5
aI3022
aI1587
aI34
aI24049
aI63765
asg6
S'The Internet seems the perfect place to find different views of a very diverse group of people who are at the same time open to such difference and disagreement needed for deliberation .'
p11
ss.