(dp1
S'input'
p2
(dp3
S'encoded'
p4
(lp5
I64
aI2179
aI43
aI63
aI2157
aI2565
aI493
aI19084
aI382
aI4850
asS'ori'
p6
S"This house believes that Israel's 2008-2009 military operations against Gaza were justified"
p7
ssS'output'
p8
(dp9
g4
(lp10
I33992
aI89
aI8390
aI122
aI557
aI1642
aI3
aI6056
aI2734
aI24
aI2932
aI53
aI10898
aI5697
aI45
aI6564
aI271
aI96
aI34
aI3099
aI63765
asg6
S"|- Bogota A pro-Israeli rally was held outside the Israeli Embassy in Colombia where crowds gathered to express their support for Israel's operation  ."
p11
ss.