(dp1
S'input'
p2
(dp3
S'encoded'
p4
(lp5
I64
aI2179
aI394
aI190
aI3
aI21
aI45
aI3895
aI834
asS'ori'
p6
S'This house would limit the right to bear arms'
p7
ssS'output'
p8
(dp9
g4
(lp10
I89
aI3892
aI934
aI2346
aI83
aI316
aI871
aI1460
aI45
aI6907
aI34
aI89
aI17200
aI63765
asg6
S'A firearms safety course must be passed prior to applying for a PAL .'
p11
ss.