(dp1
S'input'
p2
(dp3
S'encoded'
p4
(lp5
I64
aI2179
aI43
aI63
aI187
aI417
aI99
aI16642
aI3
aI6449
aI7
aI3935
asS'ori'
p6
S'This house believes that states should not subsidize the growing of tobacco'
p7
ssS'output'
p8
(dp9
g4
(lp10
I24
aI89
aI7780
aI4659
aI134
aI88
aI316
aI1038
aI41
aI16289
aI5136
aI24
aI3
aI658
aI3545
aI7
aI3249
aI7500
aI63765
asg6
S'In a budgetary context  it may be defined as unrecovered costs in the public provision of private goods  .'
p11
ss.