(dp1
S'input'
p2
(dp3
S'encoded'
p4
(lp5
I64
aI2179
aI235
aI3
aI2136
aI7
aI3
aI2306
aI7
aI2390
asS'ori'
p6
S'This house supports the one-child policy of the republic of China'
p7
ssS'output'
p8
(dp9
g4
(lp10
I167
aI19
aI5
aI182
aI5047
aI45
aI11
aI12
aI5
aI10106
aI3839
aI63765
asg6
S'Figures from 2006 and 2007 are reported to have been 1 010 and 470 executions  respectively  .'
p11
ss.