(dp1
S'input'
p2
(dp3
S'encoded'
p4
(lp5
I64
aI2179
aI394
aI5370
aI223
aI4013
aI10440
aI2446
aI4881
aI75
aI14482
aI11004
asS'ori'
p6
S'This house would abolish all collective bargaining rights claimed by trades unions'
p7
ssS'output'
p8
(dp9
g4
(lp10
I174
aI3
aI2793
aI1565
aI2203
aI63
aI11
aI1902
aI4012
aI736
aI3
aI2884
aI2118
aI2651
aI45
aI3
aI2823
aI63765
asg6
S'Also the Eastern European countries that have recently entered into the EU come closest to the Anglo-Saxon model .'
p11
ss.