(dp1
S'input'
p2
(dp3
S'encoded'
p4
(lp5
I64
aI2179
aI394
aI117
aI7428
aI21151
aI34
aI11389
aI2042
aI24
aI4364
asS'ori'
p6
S'This house would only teach abstinence for sex education in schools'
p7
ssS'output'
p8
(dp9
g4
(lp10
I273
aI182
aI100
aI535
aI3802
aI14
aI267
aI248
aI2879
aI63765
asg6
S'There are some striking differences on two other sources .'
p11
ss.