(dp1
S'input'
p2
(dp3
S'encoded'
p4
(lp5
I64
aI2179
aI43
aI63
aI3
aI4990
aI4991
aI116
aI4850
aI24
aI12166
aI3
aI475
aI7
aI3532
aI3290
aI7
aI4714
asS'ori'
p6
S'This house believes that the Catholic Church is justified in forbidding the use of barrier methods of contraception'
p7
ssS'output'
p8
(dp9
g4
(lp10
I24
aI2932
aI10758
aI12588
aI13855
aI13856
aI551
aI257
aI1560
aI13857
aI8671
aI6549
aI10004
aI357
aI1385
aI99
aI45
aI6750
aI93
aI5403
aI63765
asg6
S'In Colombia  Cardinal Anibal Munoz Duque declared  if American conditionality undermines Papal teachings  we prefer not to receive one cent  .'
p11
ss.