(dp1
S'input'
p2
(dp3
S'encoded'
p4
(lp5
I64
aI2179
aI43
aI63
aI2157
aI2565
aI493
aI19084
aI382
aI4850
asS'ori'
p6
S"This house believes that Israel's 2008-2009 military operations against Gaza were justified"
p7
ssS'output'
p8
(dp9
g4
(lp10
I3
aI475
aI7
aI965
aI31277
aI493
aI3180
aI116
aI577
aI459
aI282
aI70
aI131
aI134
aI116
aI976
aI45
aI475
aI3
aI13160
aI24
aI248
aI3020
aI159
aI41
aI45
aI24554
aI2506
aI397
aI4150
aI73
aI41
aI89
aI10873
aI14743
aI63765
asg6
S'The use of white phosphorus against civilians is banned under international law  but it is legal to use the substance in other conditions such as to illuminate areas during night or as a smoke screen .'
p11
ss.