(dp1
S'input'
p2
(dp3
S'encoded'
p4
(lp5
I64
aI2179
aI394
aI2998
aI3
aI4360
aI7
aI3249
aI6804
aI24
aI3
aI102
asS'ori'
p6
S'This house would encourage the creation of private universities in the UK'
p7
ssS'output'
p8
(dp9
g4
(lp10
I853
aI111
aI3
aI1380
aI7
aI2240
aI5
aI2326
aI2097
aI10438
aI2326
aI10245
aI139
aI1569
aI19
aI45
aI41
aI177
aI41
aI63765
asg6
S'Depending upon the type of school and program  annual graduate program tuition can vary from $15 000 to as high as $50 000 .'
p11
ss.