(dp1
S'input'
p2
(dp3
S'encoded'
p4
(lp5
I64
aI2179
aI394
aI2976
aI12243
aI24
aI954
aI126
aI1560
aI10723
asS'ori'
p6
S'This house would implement playoffs in collegiate level American football'
p7
ssS'output'
p8
(dp9
g4
(lp10
I378
aI3
aI34949
aI11663
aI500
aI99
aI84
aI736
aI404
aI413
aI7
aI852
aI87
aI3806
aI415
aI864
aI9046
aI7
aI7713
aI5
aI7717
aI3
aI886
aI24
aI15
aI2445
aI5003
aI24
aI3
aI63765
asg6
S'However  the BCS computers did not take into account time of loss  so one-loss Nebraska came out ahead of two-loss Colorado and one-loss Oregon  the consensus #2 in both human polls (but 4th in the BCS) .'
p11
ss.