(dp1
S'input'
p2
(dp3
S'encoded'
p4
(lp5
I64
aI2179
aI394
aI4325
aI2042
aI270
aI89
aI11605
aI3324
asS'ori'
p6
S'This house would fund education using a voucher scheme'
p7
ssS'output'
p8
(dp9
g4
(lp10
I397
aI3
aI2272
aI4276
aI3007
aI742
aI63
aI42
aI440
aI12
aI2758
aI24
aI3
aI14137
aI24346
aI4276
aI63765
asg6
S'During the 2008 presidential campaign Paul said that he had been active in the Green Scissors campaign  .'
p11
ss.