(dp1
S'input'
p2
(dp3
S'encoded'
p4
(lp5
I64
aI2179
aI43
aI63
aI1036
aI4828
aI33250
aI116
aI25073
aI45
aI3315
aI4562
asS'ori'
p6
S'This house believes that male infant circumcision is tantamount to child abuse'
p7
ssS'output'
p8
(dp9
g4
(lp10
I59206
aI695
aI45
aI972
aI3980
aI45
aI3281
aI3
aI6085
aI998
aI5
aI2968
aI3
aI8446
aI998
aI63765
asg6
S'Epiphanes determined to force everyone to live the Greek way and abandon the Jewish way .'
p11
ss.