(dp1
S'input'
p2
(dp3
S'encoded'
p4
(lp5
I64
aI2179
aI394
aI2773
aI12505
asS'ori'
p6
S'This house would embrace multiculturalism'
p7
ssS'output'
p8
(dp9
g4
(lp10
I3313
aI634
aI45
aI3943
aI63
aI5307
aI417
aI16273
aI5
aI3442
aI3905
aI5
aI3527
aI63765
asg6
S"She continued to say that immigrants should integrate and adopt Germany's culture and values ."
p11
ss.