(dp1
S'input'
p2
(dp3
S'encoded'
p4
(lp5
I64
aI2179
aI43
aI63
aI3
aI4990
aI4991
aI116
aI4850
aI24
aI12166
aI3
aI475
aI7
aI3532
aI3290
aI7
aI4714
asS'ori'
p6
S'This house believes that the Catholic Church is justified in forbidding the use of barrier methods of contraception'
p7
ssS'output'
p8
(dp9
g4
(lp10
I7444
aI24
aI1341
aI55
aI89
aI572
aI45887
aI49791
aI92
aI413
aI9583
aI2445
aI39770
aI8481
aI92
aI857
aI139
aI42420
aI5
aI3
aI4368
aI139
aI316
aI20997
aI45
aI49792
aI75
aI89
aI48998
aI639
aI92
aI4309
aI7456
aI45
aI1012
aI1375
aI794
aI63765
asg6
S'AIDS in particular has a long asymptomatic periodduring which time HIV (the human immunodeficiency virus  which causes AIDS) can replicate and the disease can be transmitted to othersfollowed by a symptomatic period  which leads rapidly to death unless treated .'
p11
ss.