(dp1
S'input'
p2
(dp3
S'encoded'
p4
(lp5
I64
aI2179
aI43
aI63
aI2157
aI2565
aI493
aI19084
aI382
aI4850
asS'ori'
p6
S"This house believes that Israel's 2008-2009 military operations against Gaza were justified"
p7
ssS'output'
p8
(dp9
g4
(lp10
I42
aI174
aI2173
aI63
aI2188
aI7500
aI83
aI316
aI547
aI24
aI5
aI864
aI691
aI19084
aI16618
aI99
aI2383
aI73
aI18567
aI45
aI316
aI5966
aI14
aI2893
aI5
aI63
aI3
aI7
aI2930
aI736
aI19084
aI302
aI3
aI1112
aI4013
aI1184
aI7
aI3
aI2224
aI2598
aI5
aI972
aI3
aI1055
aI14
aI19103
aI34
aI3993
aI5883
aI63765
asg6
S'He also stated that commercial goods must be allowed in and out  since Gaza Palestinians "do not want or deserve to be dependent on humanitarian aid" and that the "limited trickle" of items into Gaza continue the effective collective punishment of the civilian population and force the counter-productive reliance on tunnels for daily essentials  .'
p11
ss.