(dp1
S'input'
p2
(dp3
S'encoded'
p4
(lp5
I64
aI2179
aI394
aI2017
aI628
asS'ori'
p6
S'This house would ban gambling'
p7
ssS'output'
p8
(dp9
g4
(lp10
I14
aI492
aI89
aI667
aI70
aI427
aI782
aI24
aI3
aI10
aI7
aI2318
aI7537
aI53
aI3
aI3930
aI4539
aI5
aI3099
aI7
aI89
aI7793
aI7689
aI4448
aI843
aI34
aI2188
aI73
aI113
aI3446
aI475
aI373
aI1968
aI63765
asg6
S'On July 1  2000 a new law took effect in the State of South Carolina where the ownership  possession and operation of a video poker machine either for commercial or even personal use became illegal .'
p11
ss.