(dp1
S'input'
p2
(dp3
S'encoded'
p4
(lp5
I64
aI2179
aI43
aI24
aI3
aI475
aI7
aI12436
aI3364
asS'ori'
p6
S'This house believes in the use of affirmative action'
p7
ssS'output'
p8
(dp9
g4
(lp10
I646
aI63765
aI7175
aI3
aI2180
aI353
aI63
aI3
aI46444
aI260
aI440
aI3019
aI45
aI124
aI51
aI1112
aI5271
aI34
aI4933
aI3860
aI75
aI18240
aI366
aI3
aI18962
aI7
aI89
aI160
aI2762
aI14
aI2812
aI18
aI63765
asg6
S'v . Slovakia the Committee found that the Slovak government had failed to provide an effective remedy for discrimination suffered by Roma after the cancellation of a housing project on ethnic grounds  .'
p11
ss.