(dp1
S'input'
p2
(dp3
S'encoded'
p4
(lp5
I64
aI2179
aI43
aI223
aI2138
aI11
aI89
aI21
aI45
aI2185
aI372
asS'ori'
p6
S'This house believes all nations have a right to nuclear weapons'
p7
ssS'output'
p8
(dp9
g4
(lp10
I3
aI905
aI2173
aI2455
aI89
aI696
aI7
aI7585
aI214
aI92
aI1985
aI544
aI45
aI5046
aI5
aI92
aI1068
aI45
aI316
aI8282
aI45
aI13551
aI3
aI3524
aI7
aI748
aI2157
aI16995
aI45
aI2185
aI6856
asg6
S'The report stated "there remain a number of outstanding issues which give rise to concerns  and which need to be clarified to exclude the existence of possible military dimensions to Iran\'s nuclear programme ."'
p11
ss.