(dp1
S'input'
p2
(dp3
S'encoded'
p4
(lp5
I64
aI2179
aI43
aI8629
aI116
aI3
aI117
aI998
asS'ori'
p6
S'This house believes atheism is the only way'
p7
ssS'output'
p8
(dp9
g4
(lp10
I11006
aI3398
aI182
aI8358
aI41
aI116
aI3
aI4936
aI63
aI223
aI15467
aI7279
aI139
aI316
aI2778
aI73
aI63
aI7279
aI5
aI6348
aI7076
aI11
aI99
aI42488
aI182
aI5267
aI11006
aI63765
asg6
S'Hidden reasons are assumptions  as is the assumption that all pertinent facts can be observed  or that facts and theories humans have not discerned are indeed hidden .'
p11
ss.