(dp1
S'input'
p2
(dp3
S'encoded'
p4
(lp5
I64
aI2179
aI394
aI2017
aI3807
aI314
aI3433
asS'ori'
p6
S'This house would ban partial birth abortions'
p7
ssS'output'
p8
(dp9
g4
(lp10
I24
aI100
aI3052
aI3
aI3257
aI2196
aI55
aI2425
aI45
aI3
aI475
aI7
aI2617
aI63765
asg6
S'In some cases  the abortion debate has led to the use of violence .'
p11
ss.