(dp1
S'input'
p2
(dp3
S'encoded'
p4
(lp5
I64
aI2179
aI43
aI63
aI2203
aI60
aI51
aI997
aI2837
aI21716
aI1636
aI5349
aI417
aI2998
aI8532
aI45
aI3051
aI8578
asS'ori'
p6
S'This house believes that countries with an imbalanced male/female ratio skewed towards males should encourage parents to produce girls'
p7
ssS'output'
p8
(dp9
g4
(lp10
I131
aI311
aI3
aI1643
aI413
aI5743
aI60
aI3904
aI11048
aI406
aI419
aI1856
aI45
aI3458
aI351
aI1706
aI4015
aI4710
aI204
aI24
aI4258
aI21716
aI11389
aI17839
aI63765
asg6
S'But  at the same time  families with existing daughters appeared very likely to abort any further female fetuses  resulting in heavily skewed sex ratios  .'
p11
ss.