(dp1
S'input'
p2
(dp3
S'encoded'
p4
(lp5
I64
aI2179
aI43
aI63
aI2659
aI417
aI1690
aI3
aI12048
aI7
aI19084
asS'ori'
p6
S'This house believes that Israel should lift the blockade of Gaza'
p7
ssS'output'
p8
(dp9
g4
(lp10
I574
aI5798
aI122
aI5898
aI60
aI89
aI11276
aI7
aI20162
aI3727
aI308
aI86
aI1295
aI1255
aI5
aI24925
aI86
aI60
aI19193
aI372
aI63765
asg6
S'Each soldier was met with a team of resisting activists  throwing them off balance and assaulting them with makeshift weapons  .'
p11
ss.