(dp1
S'input'
p2
(dp3
S'encoded'
p4
(lp5
I64
aI2179
aI394
aI16756
aI20435
asS'ori'
p6
S'This house would criminalize blasphemy'
p7
ssS'output'
p8
(dp9
g4
(lp10
I2164
aI25582
aI9245
aI1966
aI63
aI57
aI7
aI2381
aI116
aI117
aI3580
aI41
aI89
aI12855
aI291
aI89
aI4278
aI5
aI89
aI1341
aI260
aI63765
asg6
S'President Vaclav Klaus argued that freedom of speech is only meaningful as a contract between a citizen and a particular government .'
p11
ss.