(dp1
S'input'
p2
(dp3
S'encoded'
p4
(lp5
I64
aI2179
aI394
aI2773
aI12505
asS'ori'
p6
S'This house would embrace multiculturalism'
p7
ssS'output'
p8
(dp9
g4
(lp10
I24
aI25
aI3399
aI4383
aI3467
aI5309
aI3
aI10250
aI62569
aI7
aI5948
aI5
aI89
aI2146
aI726
aI234
aI397
aI25
aI6444
aI63765
asg6
S'In his writing  Emerson explicitly welcomed the racial intermixing of whites and non-whites  a highly controversial view during his lifetime .'
p11
ss.