(dp1
S'input'
p2
(dp3
S'encoded'
p4
(lp5
I64
aI2179
aI394
aI2773
aI12505
asS'ori'
p6
S'This house would embrace multiculturalism'
p7
ssS'output'
p8
(dp9
g4
(lp10
I574
aI116
aI2676
aI14
aI3
aI2096
aI63
aI2811
aI116
aI9208
aI45
aI17
aI5
aI574
aI311
aI1727
aI55
aI12
aI2874
aI75
aI15
aI9745
aI5
aI89
aI26238
aI605
aI14
aI2637
aI12907
aI63765
asg6
S'Each is built on the idea that tolerance is crucial to social well-being  and each at times has been threatened by both intolerance and a heightened emphasis on cultural distinctions .'
p11
ss.