(dp1
S'input'
p2
(dp3
S'encoded'
p4
(lp5
I64
aI2179
aI43
aI63
aI187
aI417
aI99
aI16642
aI3
aI6449
aI7
aI3935
asS'ori'
p6
S'This house believes that states should not subsidize the growing of tobacco'
p7
ssS'output'
p8
(dp9
g4
(lp10
I60
aI132
aI4423
aI14815
aI12932
aI116
aI1694
aI5
aI2835
aI116
aI474
aI63765
asg6
S'With these prices  cigarette accessibility is easier and consumption is encouraged .'
p11
ss.