(dp1
S'input'
p2
(dp3
S'encoded'
p4
(lp5
I64
aI2179
aI43
aI223
aI2138
aI11
aI89
aI21
aI45
aI2185
aI372
asS'ori'
p6
S'This house believes all nations have a right to nuclear weapons'
p7
ssS'output'
p8
(dp9
g4
(lp10
I3
aI10643
aI122
aI89
aI929
aI4537
aI5
aI99
aI89
aI11915
aI793
aI289
aI177
aI5
aI4459
aI311
aI870
aI11916
aI1498
aI1630
aI51
aI516
aI41
aI134
aI463
aI99
aI11
aI12
aI3722
aI19
aI113
aI3
aI2546
aI11917
aI63765
asg6
S'The device was a prototype design and not a deliverable weapon: standing over 20&nbsp;ft (6 m) high and weighing at least 140 000&nbsp;lb (64 t) (its refrigeration equipment added an additional as well)  it could not have been dropped from even the largest planes .'
p11
ss.