(dp1
S'input'
p2
(dp3
S'encoded'
p4
(lp5
I64
aI2179
aI43
aI63
aI11083
aI10046
aI417
aI316
aI89
aI3135
aI4603
asS'ori'
p6
S'This house believes that Holocaust denial should be a criminal offence'
p7
ssS'output'
p8
(dp9
g4
(lp10
I100
aI7
aI3
aI2880
aI556
aI3
aI48024
aI10507
aI122
aI12024
aI24
aI620
aI3
aI11775
aI226
aI24
aI80
aI134
aI122
aI1596
aI24
aI620
aI3
aI6823
asg6
S'(In some of the gas chambers the Zyklon B was poured in through the roof  while in others it was thrown in through the windows .)'
p11
ss.