(dp1
S'input'
p2
(dp3
S'encoded'
p4
(lp5
I64
aI2179
aI43
aI63
aI6670
aI546
aI417
aI316
aI89
aI1334
aI3108
aI7
aI4849
aI1886
aI2855
asS'ori'
p6
S'This house believes that wind power should be a primary focus of future energy supply'
p7
ssS'output'
p8
(dp9
g4
(lp10
I6670
aI546
aI41
aI51
aI4834
aI45
aI6674
aI6715
aI116
aI7298
aI6844
aI1360
aI8060
aI915
aI2832
aI443
aI17153
aI2880
aI6694
aI397
aI3099
aI5
aI1760
aI207
aI1413
aI63765
asg6
S'Wind power  as an alternative to fossil fuels  is plentiful  renewable  widely distributed  clean  produces no greenhouse gas emissions during operation  and uses little land .'
p11
ss.