(dp1
S'input'
p2
(dp3
S'encoded'
p4
(lp5
I64
aI2179
aI43
aI63
aI134
aI116
aI400
aI21
aI34
aI3
aI260
aI45
aI3439
aI57
aI7
aI2381
asS'ori'
p6
S'This house believes that it is sometimes right for the government to restrict freedom of speech'
p7
ssS'output'
p8
(dp9
g4
(lp10
I3
aI32330
aI174
aI4881
aI63
aI3
aI3500
aI122
aI93
aI7
aI3567
aI725
aI441
aI75
aI46110
aI1191
aI5786
aI63765
asg6
S"The complainants also claimed that the article was one of twenty-two (22) Maclean's articles  many written by Steyn  about Muslims ."
p11
ss.