(dp1
S'input'
p2
(dp3
S'encoded'
p4
(lp5
I64
aI2179
aI394
aI190
aI3
aI21
aI45
aI3895
aI834
asS'ori'
p6
S'This house would limit the right to bear arms'
p7
ssS'output'
p8
(dp9
g4
(lp10
I1374
aI2981
aI182
aI4673
aI41
aI89
aI2878
aI34
aI1374
aI416
aI24
aI3211
aI378
aI2611
aI2981
aI3420
aI1640
aI93
aI7
aI3
aI629
aI63
aI2855
aI3892
aI34
aI3135
aI475
aI63765
asg6
S'Guns shows are cited as a source for guns used in crime  however  gun shows represent just one of the venues that supply firearms for criminal use .'
p11
ss.