(dp1
S'input'
p2
(dp3
S'encoded'
p4
(lp5
I64
aI2179
aI394
aI4325
aI2042
aI270
aI89
aI11605
aI3324
asS'ori'
p6
S'This house would fund education using a voucher scheme'
p7
ssS'output'
p8
(dp9
g4
(lp10
I3843
aI3609
aI45
aI3
aI2223
aI135
aI25
aI170
aI5
aI4409
aI4408
aI96
aI1548
aI45
aI1074
aI3409
aI242
aI63765
asg6
S"Paul's consistent opposition to the war expanded his conservative and libertarian Republican support base to include liberal Democrats  ."
p11
ss.