(dp1
S'input'
p2
(dp3
S'encoded'
p4
(lp5
I64
aI2179
aI43
aI63
aI187
aI417
aI99
aI16642
aI3
aI6449
aI7
aI3935
asS'ori'
p6
S'This house believes that states should not subsidize the growing of tobacco'
p7
ssS'output'
p8
(dp9
g4
(lp10
I273
aI182
aI4583
aI3802
aI24
aI40
aI165
aI574
aI7
aI132
aI3398
aI7747
aI60
aI5350
aI136
aI1856
aI138
aI5349
aI45
aI3143
aI8447
aI19547
aI5
aI17
aI14833
aI63765
asg6
S'There are gender differences in how much each of these reasons contribute  with females more likely than males to cite tension reduction/relaxation  stimulation and social smoking  .'
p11
ss.