(dp1
S'input'
p2
(dp3
S'encoded'
p4
(lp5
I64
aI2179
aI394
aI10662
aI626
aI187
aI2157
aI2697
aI19
aI2371
asS'ori'
p6
S'This house would remove United States military bases from Japan'
p7
ssS'output'
p8
(dp9
g4
(lp10
I3
aI2692
aI260
aI237
aI244
aI45
aI124
aI516
aI96
aI24
aI75
aI3922
aI3896
aI34
aI3
aI9
aI6751
aI7
aI2692
aI7398
aI1779
aI75
aI3
aI33053
aI63765
asg6
S'The Japanese government first agreed to provide additional support in 1978 by assuming responsibility for the welfare payments of Japanese nationals employed by the USFJ .'
p11
ss.