(dp1
S'input'
p2
(dp3
S'encoded'
p4
(lp5
I64
aI2179
aI43
aI3
aI626
aI187
aI116
aI1989
aI34
aI3102
aI2223
asS'ori'
p6
S"This house believes the United States is responsible for Mexico's drugs war"
p7
ssS'output'
p8
(dp9
g4
(lp10
I725
aI7
aI132
aI1643
aI1374
aI182
aI773
aI8769
aI19
aI3211
aI8555
aI24
aI2301
aI5
aI638
aI2299
aI92
aI116
aI12532
aI28329
aI8781
aI9067
aI7
aI2145
aI63765
aI5304
aI1374
aI5768
aI24
aI2299
aI63765
asg6
S"Many of these same guns are being recovered from crime scenes in Arizona and throughout Mexico  which is artificially inflating ATF's eTrace statistics of U .S . origin guns seized in Mexico ."
p11
ss.