(dp1
S'input'
p2
(dp3
S'encoded'
p4
(lp5
I64
aI2179
aI43
aI63
aI3376
aI4938
aI417
aI316
aI3537
asS'ori'
p6
S'This house believes that endangered species should be protected'
p7
ssS'output'
p8
(dp9
g4
(lp10
I24
aI128
aI45
aI136
aI1518
aI7817
aI3
aI4658
aI7
aI2768
aI14
aI3
aI4723
aI2465
aI7
aI6795
aI134
aI116
aI2867
aI45
aI2728
aI63
aI155
aI182
aI6244
aI45
aI2723
aI63765
asg6
S'In order to more fully understand the effects of diversity on the temporal stability of ecosystems it is necessary to recognize that they are bound to occur .'
p11
ss.