(dp1
S'input'
p2
(dp3
S'encoded'
p4
(lp5
I64
aI2179
aI394
aI2017
aI223
aI9058
aI23653
asS'ori'
p6
S'This house would ban all unsustainable logging'
p7
ssS'output'
p8
(dp9
g4
(lp10
I3
aI3661
aI116
aI12104
aI75
aI3
aI3223
aI7
aI3
aI23638
aI1592
aI8254
aI6828
aI34
aI7287
aI5677
aI5
aI366
aI117
aI89
aI3569
aI73
aI267
aI3
aI7987
aI373
aI17867
aI5
aI3
aI5677
aI182
aI5175
aI45
aI1893
aI667
aI2506
aI7
aI8254
aI45
aI1049
aI112
aI63765
asg6
S'The problem is worsened by the short-term productivity of the soils following forest removal for arable farmers and after only a year or two the fields became infertile and the farmers are forced to exploit new areas of forest to maintain income .'
p11
ss.