(dp1
S'input'
p2
(dp3
S'encoded'
p4
(lp5
I64
aI2179
aI43
aI24
aI3
aI475
aI7
aI12436
aI3364
asS'ori'
p6
S'This house believes in the use of affirmative action'
p7
ssS'output'
p8
(dp9
g4
(lp10
I3
aI4169
aI5496
aI7
aI5685
aI5841
aI24
aI45
aI1985
aI136
aI1398
aI166
aI2912
aI5
aI15081
aI16282
aI45
aI5615
aI4169
aI2377
aI60
aI5300
aI63765
asg6
S'The French Ministry of Defence tried in 1990 to give more easily higher ranks and driving licenses to young French soldiers with North-African ancestry .'
p11
ss.