(dp1
S'input'
p2
(dp3
S'encoded'
p4
(lp5
I64
aI2179
aI394
aI2017
aI3807
aI314
aI3433
asS'ori'
p6
S'This house would ban partial birth abortions'
p7
ssS'output'
p8
(dp9
g4
(lp10
I89
aI2886
aI2537
aI24
aI32338
aI70
aI32348
aI3
aI2554
aI7
aI3
aI3486
aI63765
asg6
S'A core text in rabbinic law crystallizes the status of the fetus .'
p11
ss.