(dp1
S'input'
p2
(dp3
S'encoded'
p4
(lp5
I64
aI2179
aI394
aI2017
aI262
asS'ori'
p6
S'This house would ban boxing'
p7
ssS'output'
p8
(dp9
g4
(lp10
I1697
aI14
aI760
aI444
aI5
aI1698
aI972
aI545
aI89
aI1699
aI1662
aI3
aI1700
aI139
aI316
aI89
aI1173
aI1701
aI131
aI134
aI116
aI153
aI89
aI1702
aI5
aI1703
aI762
aI63
aI1179
aI3
aI468
aI1704
aI134
aI1295
aI1255
aI5
aI60
aI51
aI820
aI1296
aI63765
asg6
S'Relying on body weight and centripetal force within a wide arc  the roundhouse can be a powerful blow  but it is often a wild and uncontrolled punch that leaves the fighter delivering it off balance and with an open guard .'
p11
ss.