(dp1
S'input'
p2
(dp3
S'encoded'
p4
(lp5
I64
aI2179
aI43
aI24
aI3
aI475
aI7
aI12436
aI3364
asS'ori'
p6
S'This house believes in the use of affirmative action'
p7
ssS'output'
p8
(dp9
g4
(lp10
I1792
aI174
aI7517
aI5981
aI24
aI2547
aI63765
asg6
S'See also  Employment equity in Canada .'
p11
ss.