(dp1
S'input'
p2
(dp3
S'encoded'
p4
(lp5
I64
aI2179
aI43
aI8629
aI116
aI3
aI117
aI998
asS'ori'
p6
S'This house believes atheism is the only way'
p7
ssS'output'
p8
(dp9
g4
(lp10
I134
aI116
aI604
aI5480
aI1019
aI18712
aI316
aI2843
aI63
aI25
aI3524
aI116
aI1185
aI45
aI2206
aI63765
asg6
S'It is because God cannot rationally be proven that his existence is important to us .'
p11
ss.