(dp1
S'input'
p2
(dp3
S'encoded'
p4
(lp5
I64
aI2179
aI43
aI63
aI11083
aI10046
aI417
aI316
aI89
aI3135
aI4603
asS'ori'
p6
S'This house believes that Holocaust denial should be a criminal offence'
p7
ssS'output'
p8
(dp9
g4
(lp10
I14
aI2805
aI48014
aI122
aI4546
aI14
aI14475
aI7
aI18436
aI459
aI35807
aI70
aI92
aI2024
aI3
aI18436
aI7
aI11095
aI493
aI89
aI968
aI7
aI3
aI2598
aI5
aI575
aI3
aI5086
aI904
aI7
aI863
aI2439
aI24
aI7568
aI63765
asg6
S"On February 15  2007  Zundel was convicted on 14 counts of incitement under Germany's Volksverhetzung law  which bans the incitement of hatred against a portion of the population  and given the maximum sentence of five years in prison  ."
p11
ss.