(dp1
S'input'
p2
(dp3
S'encoded'
p4
(lp5
I64
aI2179
aI43
aI8629
aI116
aI3
aI117
aI998
asS'ori'
p6
S'This house believes atheism is the only way'
p7
ssS'output'
p8
(dp9
g4
(lp10
I2204
aI60928
aI3172
aI63
aI3
aI2935
aI2962
aI1191
aI4435
aI1687
aI182
aI13367
aI116
aI207
aI3968
aI291
aI4435
aI2459
aI5
aI2763
aI14586
aI73
aI351
aI93
aI7
aI3
aI63765
asg6
S'Robert Pape argues that the news reports about suicide attacks are profoundly misleading: "There is little connection between suicide terrorism and Islamic fundamentalism  or any one of the world\'s religions" .'
p11
ss.