(dp1
S'input'
p2
(dp3
S'encoded'
p4
(lp5
I64
aI2179
aI394
aI5284
aI150
aI3987
asS'ori'
p6
S'This house would reintroduce national service'
p7
ssS'output'
p8
(dp9
g4
(lp10
I3
aI2548
aI461
aI19
aI89
aI5936
aI3983
aI882
aI60
aI177
aI196
aI5
aI335
aI24
aI45
aI89
aI5012
aI3983
aI5937
aI75
aI63765
asg6
S'The nation went from a surplus manpower pool with high unemployment and relief in 1940 to a severe manpower shortage by 1943 .'
p11
ss.