(dp1
S'input'
p2
(dp3
S'encoded'
p4
(lp5
I64
aI2179
aI43
aI3
aI626
aI187
aI116
aI1989
aI34
aI3102
aI2223
asS'ori'
p6
S"This house believes the United States is responsible for Mexico's drugs war"
p7
ssS'output'
p8
(dp9
g4
(lp10
I3
aI883
aI60
aI3
aI2546
aI6932
aI7
aI351
aI24
aI2299
aI55
aI89
aI6932
aI7
aI89
aI4838
aI1191
aI3
aI5933
aI7
aI3
aI25502
aI18798
aI3
aI16496
aI2546
aI24
aI3
aI626
aI187
aI63765
asg6
S'The newspaper with the largest circulation of any in Mexico has a circulation of a mere 385 000  about the size of the Houston Chronicle  the tenth largest in the United States  .'
p11
ss.