(dp1
S'input'
p2
(dp3
S'encoded'
p4
(lp5
I64
aI2179
aI43
aI63
aI1036
aI4828
aI33250
aI116
aI25073
aI45
aI3315
aI4562
asS'ori'
p6
S'This house believes that male infant circumcision is tantamount to child abuse'
p7
ssS'output'
p8
(dp9
g4
(lp10
I3
aI6085
aI1524
aI4991
aI40601
aI3
aI33250
aI7
aI10039
aI14
aI425
aI226
aI1524
aI6001
aI1592
aI3
aI18036
aI6046
aI4095
aI134
aI14
aI425
aI63765
asg6
S'The Greek Orthodox Church celebrates the Circumcision of Christ on 1 January  while Orthodox churches following the Julian calendar celebrate it on 14 January .'
p11
ss.