(dp1
S'input'
p2
(dp3
S'encoded'
p4
(lp5
I64
aI2179
aI43
aI63
aI2659
aI417
aI1690
aI3
aI12048
aI7
aI19084
asS'ori'
p6
S'This house believes that Israel should lift the blockade of Gaza'
p7
ssS'output'
p8
(dp9
g4
(lp10
I97
aI399
aI7
aI3
aI13123
aI383
aI75
aI8929
aI27180
aI2204
aI4692
aI63765
aI27181
aI5
aI27182
aI5422
aI3185
aI14
aI2198
aI7
aI27145
aI5
aI8398
aI63
aI100
aI274
aI7
aI324
aI1687
aI14
aI21
aI45
aI4532
aI182
aI24
aI580
aI63765
asg6
S"Another form of the equation  maintained by Abba Eban  Robert S . Wistrich  and Joschka Fischer  focuses on criticism of Zionism  and contends that some forms of anti-Zionism  particularly attacks on Israel's right to exist  are anti-Semitic in nature ."
p11
ss.