(dp1
S'input'
p2
(dp3
S'encoded'
p4
(lp5
I64
aI2179
aI43
aI63
aI3357
aI5003
aI652
aI3
aI188
aI3262
asS'ori'
p6
S'This house believes that opinion polls harm the democratic process'
p7
ssS'output'
p8
(dp9
g4
(lp10
I3059
aI26243
aI7670
aI5
aI26244
aI789
aI63
aI26241
aI17
aI4659
aI21072
aI7107
aI17282
aI5
aI2554
aI4925
aI24
aI4279
aI63765
asg6
S'Third  Keisler  Siegel  and McQuire observe that nonverbal social context cues convey formality and status inequality in face-to-face communication  .'
p11
ss.