(dp1
S'input'
p2
(dp3
S'encoded'
p4
(lp5
I64
aI2179
aI394
aI163
aI959
aI2042
aI3557
asS'ori'
p6
S'This house would make physical education compulsory'
p7
ssS'output'
p8
(dp9
g4
(lp10
I3
aI952
aI7
aI46267
aI2823
aI4364
aI6909
aI63
aI89
aI325
aI157
aI139
aI316
aI353
aI24
aI3
aI10579
aI7
aI3862
aI493
aI3168
aI7
aI3991
aI12970
aI24
aI28230
aI5
aI448
aI6809
aI24
aI3
aI13675
aI7
aI267
aI5268
aI1978
aI84
aI3
aI1643
aI1666
aI63765
asg6
S'The experience of Sudbury model schools showing that a great variety can be found in the minds of children  against Piaget\'s theory of universal steps in comprehension and general patterns in the acquisition of knowledge: "No two kids ever take the same path .'
p11
ss.