(dp1
S'input'
p2
(dp3
S'encoded'
p4
(lp5
I64
aI2179
aI43
aI63
aI134
aI116
aI400
aI21
aI34
aI3
aI260
aI45
aI3439
aI57
aI7
aI2381
asS'ori'
p6
S'This house believes that it is sometimes right for the government to restrict freedom of speech'
p7
ssS'output'
p8
(dp9
g4
(lp10
I3
aI13634
aI7
aI89
aI696
aI7
aI3
aI187
aI206
aI311
aI3
aI413
aI7
aI271
aI5818
aI3
aI2475
aI2244
aI89
aI3984
aI24
aI128
aI45
aI881
aI18468
aI73
aI4562
aI7
aI211
aI2280
aI63
aI1706
aI22978
aI5
aI3301
aI24791
aI417
aI316
aI5
aI41
aI6926
aI3
aI1528
aI7
aI658
aI2748
aI24
aI3
aI260
aI47
aI1059
aI975
aI3
aI57456
aI1667
aI7
aI211
aI232
aI63765
asg6
S'THE Conventions of a number of the States  having at the time of their adopting the Constitution  expressed a desire  in order to prevent misconstruction or abuse of its powers  that further declaratory and restrictive clauses should be added: And as extending the ground of public confidence in the Government  will best ensure the beneficent ends of its institution .'
p11
ss.