(dp1
S'input'
p2
(dp3
S'encoded'
p4
(lp5
I64
aI2179
aI394
aI163
aI959
aI2042
aI3557
asS'ori'
p6
S'This house would make physical education compulsory'
p7
ssS'output'
p8
(dp9
g4
(lp10
I3
aI3862
aI47
aI142
aI618
aI45
aI3
aI3939
aI136
aI1456
aI136
aI2944
aI7
aI1411
aI5
aI229
aI85
aI63765
asg6
S'The children will feel closer to the adults  more secure  more assured of concern and individual care .'
p11
ss.