(dp1
S'input'
p2
(dp3
S'encoded'
p4
(lp5
I64
aI2179
aI394
aI2017
aI262
asS'ori'
p6
S'This house would ban boxing'
p7
ssS'output'
p8
(dp9
g4
(lp10
I3
aI712
aI83
aI2961
aI89
aI1833
aI34
aI92
aI1978
aI731
aI155
aI142
aI969
aI89
aI525
aI1701
aI63765
asg6
S'The judges must press a button for which ever corner they feel lands a scoring blow .'
p11
ss.