(dp1
S'input'
p2
(dp3
S'encoded'
p4
(lp5
I64
aI2179
aI394
aI2017
aI628
asS'ori'
p6
S'This house would ban gambling'
p7
ssS'output'
p8
(dp9
g4
(lp10
I24
aI3
aI2145
aI63765
aI3343
aI34
aI3
aI4232
aI3337
aI7
aI667
aI2086
aI3335
aI626
aI187
aI646
aI63765
aI61923
aI89
aI2503
aI3135
aI33
aI493
aI3
aI12688
aI7
aI3
aI292
aI2546
aI5119
aI7689
aI6228
aI48759
aI838
aI21092
aI7689
aI5
aI61936
aI5
aI89
aI9154
aI7
aI271
aI3948
aI92
aI20774
aI63
aI3
aI18222
aI10048
aI3
aI4563
aI7147
aI628
aI3353
aI2784
aI5
aI8790
aI24
aI2895
aI7196
aI5
aI137
aI8675
aI24
aI128
aI45
aI3262
aI1621
aI45
aI5
aI19
aI271
aI7710
asg6
S'In 2011  the U .S . Attorney for the Southern District of New York filed United States v . Scheinberg  a federal criminal case against the founders of the three largest online poker companies  PokerStars  Full Tilt Poker and Cereus (Absolute Poker/Ultimatebet)  and a handful of their associates  which alleges that the defendants violated the Unlawful Internet Gambling Enforcement Act and engaged in bank fraud and money laundering in order to process transfers to and from their customers'
p11
ss.