(dp1
S'input'
p2
(dp3
S'encoded'
p4
(lp5
I64
aI2179
aI394
aI10662
aI626
aI187
aI2157
aI2697
aI19
aI2371
asS'ori'
p6
S'This house would remove United States military bases from Japan'
p7
ssS'output'
p8
(dp9
g4
(lp10
I298
aI5598
aI24
aI3
aI6327
aI1191
aI3
aI667
aI8713
aI24
aI2116
aI55353
aI221
aI89
aI290
aI7
aI5404
aI24
aI92
aI42
aI980
aI416
aI3
aI414
aI92
aI258
aI10655
aI73
aI63765
asg6
S'When questioned in the Diet about the new appropriation in June  Kanemaru made a series of statements in which he repeatedly used the word "omoiyari " which means sympathy or consideration:  .'
p11
ss.