(dp1
S'input'
p2
(dp3
S'encoded'
p4
(lp5
I64
aI2179
aI394
aI2017
aI262
asS'ori'
p6
S'This house would ban boxing'
p7
ssS'output'
p8
(dp9
g4
(lp10
I89
aI13900
aI88
aI34
aI1343
aI980
aI9012
aI3
aI1643
aI3369
aI316
aI1407
aI45
aI4823
aI45
aI3369
aI73
aI9771
aI11
aI89
aI28475
aI41243
aI73
aI11
aI41244
aI73
aI24568
aI2381
aI63765
asg6
S'A patient may  for example  repeatedly ask the same questions  be slow to respond to questions or directions  have a vacant stare  or have slurred or incoherent speech  .'
p11
ss.