(dp1
S'input'
p2
(dp3
S'encoded'
p4
(lp5
I64
aI2179
aI43
aI63
aI134
aI116
aI400
aI21
aI34
aI3
aI260
aI45
aI3439
aI57
aI7
aI2381
asS'ori'
p6
S'This house believes that it is sometimes right for the government to restrict freedom of speech'
p7
ssS'output'
p8
(dp9
g4
(lp10
I3500
aI2233
aI2493
aI75
aI7714
aI122
aI2215
aI117
aI75
aI187
aI5
aI653
aI395
aI16874
aI75
aI3883
aI187
aI3
aI3500
aI55
aI1301
aI691
aI2933
aI3
aI4268
aI7
aI868
aI187
aI34
aI134
aI45
aI1199
aI759
aI7
aI3
aI2475
aI63765
asg6
S'Article I  rejected by Delaware  was ratified only by 10/14 States (< 75%)  and despite later ratification by Kentucky (11/15 states < 75%)  the article has never since received the approval of enough states for it to become part of the Constitution .'
p11
ss.