(dp1
S'input'
p2
(dp3
S'encoded'
p4
(lp5
I64
aI2179
aI394
aI2741
aI3
aI1560
aI6025
aI2784
asS'ori'
p6
S'This house would pass the American Jobs Act'
p7
ssS'output'
p8
(dp9
g4
(lp10
I3
aI203
aI972
aI7600
aI2994
aI4655
aI40
aI51
aI3226
aI24
aI3
aI196
aI2994
aI139
aI2723
aI1754
aI60
aI51
aI3226
aI24
aI7517
aI63765
asg6
S'The labor force participation rate explains how an increase in the unemployment rate can occur simultaneously with an increase in employment .'
p11
ss.