(dp1
S'input'
p2
(dp3
S'encoded'
p4
(lp5
I64
aI2179
aI13605
aI2258
aI45
aI2194
asS'ori'
p6
S'This house prefers trade to aid'
p7
ssS'output'
p8
(dp9
g4
(lp10
I93
aI1342
aI34
aI13046
aI3
aI1392
aI7
aI2194
aI116
aI63
aI99
aI223
aI2194
aI116
aI1881
aI45
aI1304
aI16
aI2234
aI63765
asg6
S'One challenge for assessing the effectiveness of aid is that not all aid is intended to generate economic growth .'
p11
ss.