(dp1
S'input'
p2
(dp3
S'encoded'
p4
(lp5
I64
aI2179
aI394
aI4325
aI2042
aI270
aI89
aI11605
aI3324
asS'ori'
p6
S'This house would fund education using a voucher scheme'
p7
ssS'output'
p8
(dp9
g4
(lp10
I3
aI4132
aI448
aI6293
aI440
aI3581
aI2474
aI193
aI5207
aI11604
aI45
aI14898
aI106
aI7
aI4089
aI81
aI382
aI11166
aI73
aI440
aI2013
aI24
aI285
aI2223
aI2233
asg6
S'(In 1954  the Virginia General Assembly had enacted legislation providing educational vouchers to underage dependents of veterans who were wounded or had died in World War I .)'
p11
ss.