(dp1
S'input'
p2
(dp3
S'encoded'
p4
(lp5
I64
aI2179
aI394
aI2017
aI3807
aI314
aI3433
asS'ori'
p6
S'This house would ban partial birth abortions'
p7
ssS'output'
p8
(dp9
g4
(lp10
I248
aI1367
aI1416
aI570
aI4799
aI4809
aI63
aI3
aI16502
aI1153
aI89
aI21
aI45
aI3269
aI604
aI134
aI1153
aI73
aI4810
aI5
aI73
aI166
aI4817
aI158
aI63765
asg6
S"Other writers apply similar criteria  concluding that the embryo lacks a right to life because it lacks self-consciousness  or rationality and self-consciousness  or 'certain higher psychological capacities' including 'autonomy'  ."
p11
ss.