(dp1
S'input'
p2
(dp3
S'encoded'
p4
(lp5
I64
aI2179
aI394
aI9385
aI2497
aI447
aI14
aI3
aI3578
aI5721
aI7
aI260
asS'ori'
p6
S'This house would enforce term limits on the legislative branch of government'
p7
ssS'output'
p8
(dp9
g4
(lp10
I42
aI13605
aI32527
aI10472
aI249
aI958
aI138
aI4387
aI24
aI10
aI49146
aI63765
asg6
S'He prefers underwriting ballot measures rather than lobbying in state capitols  .'
p11
ss.