(dp1
S'input'
p2
(dp3
S'encoded'
p4
(lp5
I64
aI2179
aI394
aI4325
aI2042
aI270
aI89
aI11605
aI3324
asS'ori'
p6
S'This house would fund education using a voucher scheme'
p7
ssS'output'
p8
(dp9
g4
(lp10
I2233
aI3084
aI6668
aI357
aI417
aI5641
aI3218
aI8559
aI45
aI3
aI2503
aI260
aI63765
asg6
S"I don't know why we should register our marriage to the federal government ."
p11
ss.