(dp1
S'input'
p2
(dp3
S'encoded'
p4
(lp5
I64
aI2179
aI43
aI17
aI4941
aI857
aI3211
asS'ori'
p6
S'This house believes social deprivation causes crime'
p7
ssS'output'
p8
(dp9
g4
(lp10
I48857
aI6362
aI3
aI2035
aI7
aI2022
aI63
aI3185
aI14
aI3
aI4596
aI63
aI78
aI18971
aI45
aI271
aI17
aI285
aI63765
asg6
S'Interpretive sociology - The study of society that focuses on the meanings that people attach to their social world .'
p11
ss.