(dp1
S'input'
p2
(dp3
S'encoded'
p4
(lp5
I64
aI2179
aI394
aI5370
aI7146
aI4585
aI2446
asS'ori'
p6
S'This house would abolish intellectual property rights'
p7
ssS'output'
p8
(dp9
g4
(lp10
I17747
aI2441
aI64
aI3455
aI3683
aI63
aI12716
aI81
aI11
aI207
aI9331
aI7
aI1978
aI179
aI89
aI192
aI34
aI271
aI889
aI5
aI564
aI12717
aI116
aI41
aI89
aI296
aI1825
aI14172
aI11
aI24
aI3
aI1257
aI5
aI113
aI24
aI3
aI713
aI634
aI45
aI3411
aI63765
asg6
S'Liang challenges this logic  arguing that "many authors who have little hope of ever finding a market for their publications  and whose copyright is  as a result  virtually worthless  have in the past  and even in the present  continued to write .'
p11
ss.