(dp1
S'input'
p2
(dp3
S'encoded'
p4
(lp5
I64
aI2179
aI43
aI63
aI187
aI417
aI99
aI16642
aI3
aI6449
aI7
aI3935
asS'ori'
p6
S'This house believes that states should not subsidize the growing of tobacco'
p7
ssS'output'
p8
(dp9
g4
(lp10
I113
aI87
aI14833
aI7
aI15
aI3935
aI5
aI3106
aI139
aI316
aI89
aI17
aI364
aI92
aI948
aI41
aI89
aI14767
aI7
aI17
aI5143
aI5
aI116
aI759
aI7
aI3
aI2637
aI8186
aI7
aI725
aI5
aI4066
aI17
aI5
aI2812
aI3136
aI63765
asg6
S'Even so  smoking of both tobacco and cannabis can be a social activity which serves as a reinforcement of social structures and is part of the cultural rituals of many and diverse social and ethnic groups .'
p11
ss.