(dp1
S'input'
p2
(dp3
S'encoded'
p4
(lp5
I64
aI2179
aI43
aI63
aI1036
aI4828
aI33250
aI116
aI25073
aI45
aI3315
aI4562
asS'ori'
p6
S'This house believes that male infant circumcision is tantamount to child abuse'
p7
ssS'output'
p8
(dp9
g4
(lp10
I5047
aI14
aI89
aI36988
aI706
aI3516
aI7
aI655
aI7
aI4895
aI382
aI36988
aI45
aI316
aI33242
aI63765
asg6
S'reported on a randomised controlled trial of 2 784 participants  of whom 1 391 were randomised to be circumcised .'
p11
ss.