(dp1
S'input'
p2
(dp3
S'encoded'
p4
(lp5
I64
aI2179
aI13605
aI2258
aI45
aI2194
asS'ori'
p6
S'This house prefers trade to aid'
p7
ssS'output'
p8
(dp9
g4
(lp10
I298
aI11505
aI2118
aI45
aI89
aI3905
aI155
aI1792
aI17
aI27530
aI41
aI251
aI204
aI19
aI57846
aI5
aI15452
aI13084
aI63765
asg6
S'When missionaries come to a culture  they see social ills as problems resulting from innerworldly and unimportant struggles .'
p11
ss.