(dp1
S'input'
p2
(dp3
S'encoded'
p4
(lp5
I64
aI2179
aI394
aI1499
aI3
aI8115
aI34564
aI17106
asS'ori'
p6
S'This house would build the Keystone XL pipeline'
p7
ssS'output'
p8
(dp9
g4
(lp10
I273
aI116
aI100
aI143
aI41
aI45
aI298
aI3
aI237
aI12153
aI2579
aI17106
aI122
aI2676
aI63765
asg6
S'There is some argument as to when the first crude oil pipeline was built .'
p11
ss.