(dp1
S'input'
p2
(dp3
S'encoded'
p4
(lp5
I64
aI2179
aI394
aI5370
aI7146
aI4585
aI2446
asS'ori'
p6
S'This house would abolish intellectual property rights'
p7
ssS'output'
p8
(dp9
g4
(lp10
I3
aI2860
aI116
aI1047
aI41
aI1436
aI7
aI2446
aI24
aI248
aI2203
aI5
aI116
aI89
aI6174
aI92
aI174
aI7177
aI114
aI6044
aI12481
aI45
aI11704
aI5
aI10801
aI2446
aI63765
asg6
S'The first-sale doctrine is known as exhaustion of rights in other countries and is a principle which also applies  though somewhat differently  to patent and trademark rights .'
p11
ss.