(dp1
S'input'
p2
(dp3
S'encoded'
p4
(lp5
I64
aI2179
aI394
aI2017
aI3807
aI314
aI3433
asS'ori'
p6
S'This house would ban partial birth abortions'
p7
ssS'output'
p8
(dp9
g4
(lp10
I24
aI3
aI626
aI187
aI2483
aI7
aI3368
aI34
aI3
aI4742
aI3855
aI353
aI3
aI70
aI2481
aI14
aI3
aI18
aI63
aI134
aI606
aI89
aI1182
aI5
aI2481
aI11387
aI24
aI3
aI1666
aI7
aI3495
aI3820
aI3433
aI24
aI3
aI1950
aI3276
aI63765
asg6
S'In 1997  the United States Court of Appeals for the Sixth Circuit found the law unconstitutional on the grounds that it placed a substantial and unconstitutional obstacle in the path of women seeking pre-viability abortions in the second trimester .'
p11
ss.