(dp1
S'input'
p2
(dp3
S'encoded'
p4
(lp5
I64
aI2179
aI13605
aI2258
aI45
aI2194
asS'ori'
p6
S'This house prefers trade to aid'
p7
ssS'output'
p8
(dp9
g4
(lp10
I8678
aI18478
aI6941
aI24
aI27876
aI5945
aI5
aI8306
aI88
aI9575
aI24
aI3
aI3060
aI639
aI41
aI3
aI52
aI29430
aI45
aI579
aI191
aI5143
aI63765
asg6
S'Low-income consumers  unskilled workers in sheltered industries  and previously-shielded producers may suffer in the transition period as the economy adapts to changed incentive structures .'
p11
ss.