(dp1
S'input'
p2
(dp3
S'encoded'
p4
(lp5
I64
aI2179
aI43
aI63
aI187
aI417
aI99
aI16642
aI3
aI6449
aI7
aI3935
asS'ori'
p6
S'This house believes that states should not subsidize the growing of tobacco'
p7
ssS'output'
p8
(dp9
g4
(lp10
I64
aI122
aI3
aI237
aI413
aI3
aI6677
aI2029
aI122
aI4441
aI2818
aI75
aI5525
aI19
aI1642
aI3
aI281
aI6677
aI187
aI63765
asg6
S'This was the first time the farm bill was shaped directly by senators from outside the major farm states .'
p11
ss.