(dp1
S'input'
p2
(dp3
S'encoded'
p4
(lp5
I64
aI2179
aI13605
aI2258
aI45
aI2194
asS'ori'
p6
S'This house prefers trade to aid'
p7
ssS'output'
p8
(dp9
g4
(lp10
I3
aI1488
aI2548
aI7
aI2087
aI17203
aI378
aI55
aI12
aI22427
aI75
aI3202
aI9163
aI5
aI16
aI4967
aI3503
aI211
aI78
aI182
aI99
aI4024
aI1058
aI75
aI1560
aI2144
aI45
aI316
aI23274
aI63765
asg6
S'The small nation of East Timor  however  has been plagued by civil unrest and economic uncertainty  yet its people are not largely regarded by American citizens to be terrorists .'
p11
ss.