(dp1
S'input'
p2
(dp3
S'encoded'
p4
(lp5
I64
aI2179
aI394
aI117
aI7428
aI21151
aI34
aI11389
aI2042
aI24
aI4364
asS'ori'
p6
S'This house would only teach abstinence for sex education in schools'
p7
ssS'output'
p8
(dp9
g4
(lp10
I100
aI78
aI675
aI12713
aI55929
aI7
aI3
aI2613
aI2136
aI2266
aI11
aI3017
aI63
aI10725
aI8685
aI4609
aI394
aI2998
aI3456
aI475
aI5
aI14632
aI3
aI8312
aI7065
aI4658
aI19
aI1571
aI45
aI64
aI46886
aI229
aI4783
aI63765
asg6
S'Some people like Ethan Nadelmann of the Drug Policy Alliance have suggested that organised marijuana legalization would encourage safe use and reveal the factual adverse effects from exposure to this herbs individual chemicals .'
p11
ss.