(dp1
S'input'
p2
(dp3
S'encoded'
p4
(lp5
I64
aI2179
aI394
aI2017
aI262
asS'ori'
p6
S'This house would ban boxing'
p7
ssS'output'
p8
(dp9
g4
(lp10
I2438
aI45
aI3
aI442
aI73
aI3
aI3237
aI7
aI12463
aI3904
aI442
aI24
aI381
aI159
aI41
aI120
aI493
aI73
aI92
aI116
aI566
aI60
aI89
aI177
aI806
aI2994
aI88
aI174
aI881
aI41223
aI63765
asg6
S'Changes to the rules or the practices of enforcing existing rules in sports  such as those against "head-down tackling"  or "spearing"  which is associated with a high injury rate  may also prevent concussions  .'
p11
ss.