(dp1
S'input'
p2
(dp3
S'encoded'
p4
(lp5
I64
aI2179
aI394
aI5284
aI150
aI3987
asS'ori'
p6
S'This house would reintroduce national service'
p7
ssS'output'
p8
(dp9
g4
(lp10
I42
aI5956
aI24
aI63
aI1597
aI34
aI89
aI3569
aI63765
asg6
S'He stayed in that position for a year  .'
p11
ss.