(dp1
S'input'
p2
(dp3
S'encoded'
p4
(lp5
I64
aI2179
aI394
aI190
aI3
aI21
aI45
aI3895
aI834
asS'ori'
p6
S'This house would limit the right to bear arms'
p7
ssS'output'
p8
(dp9
g4
(lp10
I3
aI626
aI187
aI2482
aI2483
aI557
aI63
aI2625
aI11
aI51
aI229
aI21
aI1545
aI24
aI3
aI1950
aI3264
aI45
aI1897
aI3892
aI4377
aI4378
aI792
aI159
aI41
aI545
aI3
aI63765
asg6
S'07-290  the United States Supreme Court held that Americans have an individual right described in the Second Amendment to possess firearms "for traditionally lawful purposes  such as self-defense within the home" .'
p11
ss.