(dp1
S'input'
p2
(dp3
S'encoded'
p4
(lp5
I64
aI2179
aI394
aI5370
aI223
aI4013
aI10440
aI2446
aI4881
aI75
aI14482
aI11004
asS'ori'
p6
S'This house would abolish all collective bargaining rights claimed by trades unions'
p7
ssS'output'
p8
(dp9
g4
(lp10
I64
aI9930
aI24
aI1035
aI45
aI3
aI169
aI952
aI53
aI8905
aI667
aI2823
aI11004
aI1399
aI3
aI2131
aI910
aI19
aI3
aI398
aI5
aI53
aI2258
aI23799
aI122
aI1352
aI138
aI3
aI22
aI5428
aI910
aI487
aI3
aI6090
aI5
aI2234
aI7
aI3
aI5428
aI171
aI24
aI3
aI320
aI2439
aI7
aI3
aI398
aI63765
asg6
S'This stood in contrast to the British experience  where moderate New Model Unions dominated the union movement from the mid-19th century and where trade unionism was stronger than the political labour movement until the formation and growth of the Labour Party in the early years of the 20th century .'
p11
ss.