(dp1
S'input'
p2
(dp3
S'encoded'
p4
(lp5
I64
aI2179
aI235
aI3
aI2136
aI7
aI3
aI2306
aI7
aI2390
asS'ori'
p6
S'This house supports the one-child policy of the republic of China'
p7
ssS'output'
p8
(dp9
g4
(lp10
I6669
aI3698
aI22670
aI37224
aI55
aI742
aI63
aI8285
aI2598
aI5
aI3926
aI998
aI7
aI3269
aI11
aI12
aI7674
aI311
aI3
aI7383
aI7
aI2411
aI6795
aI5
aI6790
aI63765
aI63765
asg6
S'Environmental author Jeremy Rifkin has said that "our burgeoning population and urban way of life have been purchased at the expense of vast ecosystems and habitats . .'
p11
ss.