(dp1
S'input'
p2
(dp3
S'encoded'
p4
(lp5
I64
aI2179
aI394
aI2017
aI223
aI9058
aI23653
asS'ori'
p6
S'This house would ban all unsustainable logging'
p7
ssS'output'
p8
(dp9
g4
(lp10
I131
aI3
aI2764
aI7910
aI5
aI3
aI998
aI155
aI182
aI4359
aI11
aI579
aI7884
aI691
aI28607
aI122
aI685
aI63765
asg6
S'But the worlds forests and the way they are perceived have changed dramatically since CIFOR was established .'
p11
ss.