(dp1
S'input'
p2
(dp3
S'encoded'
p4
(lp5
I64
aI2179
aI43
aI63
aI17574
aI417
aI316
aI3481
aI34
aI271
aI79
asS'ori'
p6
S'This house believes that housewives should be paid for their work'
p7
ssS'output'
p8
(dp9
g4
(lp10
I1381
aI211
aI2543
aI2789
aI382
aI3250
aI717
aI24
aI3
aI2206
aI89
aI2471
aI7
aI912
aI2789
aI182
aI717
aI1642
aI7
aI3
aI2206
aI17655
aI2754
aI2134
aI2554
aI24
aI3
aI626
aI2138
aI63765
asg6
S"Although its founding members were mostly based in the US  a majority of IAFFE's current members are based outside of the US .In 1997  IAFFE gained Non-Governmental Organization status in the United Nations ."
p11
ss.