(dp1
S'input'
p2
(dp3
S'encoded'
p4
(lp5
I64
aI2179
aI43
aI63
aI3
aI21
aI45
aI12715
aI417
aI99
aI316
aI2897
asS'ori'
p6
S'This house believes that the right to asylum should not be absolute'
p7
ssS'output'
p8
(dp9
g4
(lp10
I89
aI3215
aI55
aI3
aI21
aI45
aI316
aI1260
aI19
aI10426
aI7887
aI45
aI3
aI18232
aI7
aI271
aI9107
aI45
aI73
aI5556
aI545
aI89
aI2696
aI257
aI134
aI139
aI316
aI8117
aI63
aI155
aI5557
aI24
aI1228
aI63
aI116
aI257
aI3
aI3215
aI43
aI63
aI273
aI122
aI1711
aI521
aI34
aI271
aI1968
aI2233
aI63765
asg6
S'A refugee has the right to be free from penalties pertaining to the illegality of their entry to or presence within a country  if it can be shown that they acted in good faith- that is  if the refugee believes that there was ample cause for their illegal entry/presence  i .e .'
p11
ss.