(dp1
S'input'
p2
(dp3
S'encoded'
p4
(lp5
I64
aI2179
aI394
aI2017
aI262
asS'ori'
p6
S'This house would ban boxing'
p7
ssS'output'
p8
(dp9
g4
(lp10
I89
aI285
aI3217
aI2134
aI2035
aI2845
aI63
aI291
aI5
aI7
aI536
aI772
aI63
aI6750
aI4902
aI182
aI8904
aI63765
asg6
S'A World Health Organization (WHO) study estimated that between 70 and 90% of head injuries that receive treatment are mild  .'
p11
ss.