(dp1
S'input'
p2
(dp3
S'encoded'
p4
(lp5
I64
aI2179
aI394
aI190
aI3
aI21
aI45
aI3895
aI834
asS'ori'
p6
S'This house would limit the right to bear arms'
p7
ssS'output'
p8
(dp9
g4
(lp10
I159
aI2992
aI182
aI49
aI1301
aI119
aI45
aI9518
aI658
aI2136
aI3369
aI63765
asg6
S'Such studies are almost never available to answer public policy questions .'
p11
ss.