(dp1
S'input'
p2
(dp3
S'encoded'
p4
(lp5
I64
aI2179
aI43
aI8629
aI116
aI3
aI117
aI998
asS'ori'
p6
S'This house believes atheism is the only way'
p7
ssS'output'
p8
(dp9
g4
(lp10
I3
aI3565
aI174
aI2729
aI14158
aI18760
aI5
aI3863
aI5941
aI5
aI5224
aI620
aI211
aI2127
aI63765
asg6
S'The foundation also offers humanist  rationalist and scientific materials and information through its website  .'
p11
ss.