(dp1
S'input'
p2
(dp3
S'encoded'
p4
(lp5
I64
aI2179
aI43
aI17
aI4941
aI857
aI3211
asS'ori'
p6
S'This house believes social deprivation causes crime'
p7
ssS'output'
p8
(dp9
g4
(lp10
I378
aI134
aI116
aI117
aI24
aI3
aI1447
aI2439
aI63
aI658
aI3217
aI55
aI11751
aI45
aI4506
aI2617
aI5
aI117
aI24
aI3
aI1447
aI1009
aI55
aI134
aI3818
aI87
aI311
aI3
aI2148
aI126
aI63765
asg6
S'However  it is only in the last 30 years that public health has begun to address violence  and only in the last fifteen has it done so at the global level  .'
p11
ss.