(dp1
S'input'
p2
(dp3
S'encoded'
p4
(lp5
I64
aI2179
aI43
aI63
aI2203
aI60
aI51
aI997
aI2837
aI21716
aI1636
aI5349
aI417
aI2998
aI8532
aI45
aI3051
aI8578
asS'ori'
p6
S'This house believes that countries with an imbalanced male/female ratio skewed towards males should encourage parents to produce girls'
p7
ssS'output'
p8
(dp9
g4
(lp10
I64
aI782
aI88
aI316
aI1404
aI75
aI9688
aI5
aI166
aI1036
aI4699
aI41
aI296
aI7
aI166
aI943
aI681
aI134
aI88
aI174
aI316
aI3365
aI45
aI3
aI7912
aI368
aI2994
aI7
aI14696
aI24
aI3
aI809
aI943
aI187
aI63765
asg6
S'This effect may be caused by emigration and higher male mortality as result of higher Soviet era deaths; it may also be related to the enormous (by western standards) rate of alcoholism in the former Soviet states .'
p11
ss.