(dp1
S'input'
p2
(dp3
S'encoded'
p4
(lp5
I64
aI2179
aI43
aI24
aI3
aI475
aI7
aI12436
aI3364
asS'ori'
p6
S'This house believes in the use of affirmative action'
p7
ssS'output'
p8
(dp9
g4
(lp10
I3
aI2035
aI3017
aI63
aI883
aI2156
aI6909
aI63
aI6508
aI19
aI292
aI3994
aI7
aI89
aI1107
aI3874
aI14
aI3
aI7800
aI311
aI3
aI4750
aI7
aI13061
aI382
aI99
aI13062
aI131
aI3725
aI89
aI1177
aI7
aI7381
aI638
aI9719
aI13060
aI63765
asg6
S'The study suggested that newspaper accounts showing that "nine relatives from three generations of a single family (were) on the economics faculty" at the University of Bari were not aberrations  but indicated a pattern of nepotism throughout Italian academia  .'
p11
ss.