(dp1
S'input'
p2
(dp3
S'encoded'
p4
(lp5
I64
aI2179
aI394
aI5284
aI150
aI3987
asS'ori'
p6
S'This house would reintroduce national service'
p7
ssS'output'
p8
(dp9
g4
(lp10
I14
aI2394
aI4089
aI2181
aI2159
aI1308
aI27969
aI298
aI2200
aI75
aI89
aI11342
aI755
aI3
aI5262
aI417
aI316
aI5002
aI45
aI163
aI3
aI2157
aI136
aI5125
aI742
aI1190
aI63
aI3218
aI2022
aI394
aI161
aI19
aI63
aI5585
aI5548
asg6
S'On December 21  2006  Veterans Affairs Secretary Jim Nicholson  when asked by a reporter whether the draft should be reinstated to make the military more equal  said  "I think that our society would benefit from that  yes sir ."'
p11
ss.