(dp1
S'input'
p2
(dp3
S'encoded'
p4
(lp5
I64
aI2179
aI43
aI63
aI3
aI21
aI45
aI12715
aI417
aI99
aI316
aI2897
asS'ori'
p6
S'This house believes that the right to asylum should not be absolute'
p7
ssS'output'
p8
(dp9
g4
(lp10
I3
aI10752
aI128
aI394
aI768
aI316
aI900
aI2340
aI75
aI3
aI3900
aI2159
aI5605
aI75
aI51
aI2610
aI4769
aI5
aI3
aI2610
aI3987
aI394
aI163
aI2829
aI34
aI3
aI4224
aI17531
aI63
aI155
aI463
aI4203
aI81
aI42
aI122
aI61
aI12420
aI42
aI122
aI463
aI3322
aI89
aI4564
aI11558
aI5
aI1368
aI351
aI3361
aI2446
aI5
aI248
aI63765
asg6
S'The Deportation Order would then be personally signed by the Home Secretary  served by an immigration officer and the Immigration Service would make arrangements for the persons departure  (provided that they could prove who he was  what nationality he was  could obtain a travel document and overcome any appeal rights and other barriers) .'
p11
ss.