(dp1
S'input'
p2
(dp3
S'encoded'
p4
(lp5
I64
aI2179
aI394
aI60
aI23587
asS'ori'
p6
S'This house would re-engage with Myanmar'
p7
ssS'output'
p8
(dp9
g4
(lp10
I725
aI2812
aI5275
aI324
aI3
aI16254
aI24
aI3
aI2769
aI5
aI3
aI59118
aI5
aI1187
aI81
aI26427
aI3
aI874
aI5
aI1485
aI8378
aI63765
asg6
S'Many ethnic minorities  particularly the Karen in the southeast  and the Kachin and Chin (people) who populate the north and north-east  practice Christianity  .'
p11
ss.