(dp1
S'input'
p2
(dp3
S'encoded'
p4
(lp5
I64
aI2179
aI394
aI2017
aI223
aI9058
aI23653
asS'ori'
p6
S'This house would ban all unsustainable logging'
p7
ssS'output'
p8
(dp9
g4
(lp10
I165
aI7
aI3
aI4839
aI1794
aI416
aI24
aI3504
aI3
aI960
aI1404
aI75
aI667
aI7938
aI116
aI637
aI4857
aI19
aI12633
aI1702
aI7664
aI63765
asg6
S'Much of the genetic variation used in evading the damage caused by new pests is still derived from resistant wild stock .'
p11
ss.