(dp1
S'input'
p2
(dp3
S'encoded'
p4
(lp5
I64
aI2179
aI43
aI63
aI3
aI21
aI45
aI12715
aI417
aI99
aI316
aI2897
asS'ori'
p6
S'This house believes that the right to asylum should not be absolute'
p7
ssS'output'
p8
(dp9
g4
(lp10
I53
aI134
aI116
aI99
aI748
aI45
aI1453
aI64
aI34
aI976
aI3398
aI159
aI41
aI51
aI7585
aI3361
aI73
aI53
aI3
aI2007
aI116
aI99
aI840
aI41902
aI34
aI248
aI3398
aI3480
aI116
aI575
aI45
aI755
aI155
aI417
aI316
aI17121
aI459
aI2610
aI2784
aI2280
aI73
aI755
aI155
aI139
aI316
aI4626
aI1788
aI63765
asg6
S'Where it is not possible to do this for legal reasons such as an outstanding appeal  or where the person is not immediately removable for other reasons  consideration is given to whether they should be detained under Immigration Act powers or whether they can be granted temporary release"  .'
p11
ss.