(dp1
S'input'
p2
(dp3
S'encoded'
p4
(lp5
I64
aI2179
aI43
aI63
aI17574
aI417
aI316
aI3481
aI34
aI271
aI79
asS'ori'
p6
S'This house believes that housewives should be paid for their work'
p7
ssS'output'
p8
(dp9
g4
(lp10
I3620
aI5019
aI186
aI34
aI292
aI1410
aI3708
aI7
aI17629
aI9347
aI511
aI5084
aI1869
aI215
aI5084
aI1869
aI5
aI5084
aI1869
aI63765
asg6
S'Feminist economists argue for three main ways of valuating unpaid work: opportunity cost method  replacement cost method  and input-output cost method .'
p11
ss.