(dp1
S'input'
p2
(dp3
S'encoded'
p4
(lp5
I64
aI2179
aI394
aI5370
aI7146
aI4585
aI2446
asS'ori'
p6
S'This house would abolish intellectual property rights'
p7
ssS'output'
p8
(dp9
g4
(lp10
I89
aI21
aI45
aI14147
aI19
aI3
aI79
aI55
aI12
aI3
aI8187
aI10987
aI34
aI165
aI2474
aI6926
aI3
aI5102
aI7
aI12717
aI45
aI3
aI3269
aI7
aI3
aI10934
aI5
aI3515
aI45
aI25
aI21601
aI63765
asg6
S'A right to profit from the work has been the philosophical underpinning for much legislation extending the duration of copyright  to the life of the creator and beyond  to his heirs .'
p11
ss.