(dp1
S'input'
p2
(dp3
S'encoded'
p4
(lp5
I64
aI2179
aI43
aI63
aI134
aI116
aI400
aI21
aI34
aI3
aI260
aI45
aI3439
aI57
aI7
aI2381
asS'ori'
p6
S'This house believes that it is sometimes right for the government to restrict freedom of speech'
p7
ssS'output'
p8
(dp9
g4
(lp10
I653
aI64
aI3
aI5048
aI7
aI3
aI18695
aI7
aI2445
aI2446
aI545
aI3
aI2800
aI2550
aI83
aI99
aI316
aI31340
aI63765
asg6
S'Despite this  the significance of the espousal of human rights within the UN charter must not be understated .'
p11
ss.