(dp1
S'input'
p2
(dp3
S'encoded'
p4
(lp5
I64
aI2179
aI394
aI117
aI7428
aI21151
aI34
aI11389
aI2042
aI24
aI4364
asS'ori'
p6
S'This house would only teach abstinence for sex education in schools'
p7
ssS'output'
p8
(dp9
g4
(lp10
I366
aI223
aI256
aI182
aI4066
aI3179
aI138
aI10375
aI2992
aI7
aI132
aI256
aI11
aI12
aI2566
aI864
aI5
aI2992
aI7
aI267
aI256
aI11
aI2396
aI27566
aI1987
aI727
aI63765
asg6
S'After all  programs are diverse  fewer than 10 rigorous studies of these programs have been carried out  and studies of two programs have provided modestly encouraging results .'
p11
ss.