(dp1
S'input'
p2
(dp3
S'encoded'
p4
(lp5
I64
aI2179
aI43
aI24
aI3
aI475
aI7
aI12436
aI3364
asS'ori'
p6
S'This house believes in the use of affirmative action'
p7
ssS'output'
p8
(dp9
g4
(lp10
I3567
aI620
aI7
aI3
aI2533
aI687
aI89
aI6037
aI9596
aI4550
aI291
aI4615
aI63765
asg6
S'Articles 11 through 13 of the Convention establish a dispute resolution mechanism between parties .'
p11
ss.