(dp1
S'input'
p2
(dp3
S'encoded'
p4
(lp5
I64
aI2179
aI43
aI63
aI187
aI417
aI99
aI16642
aI3
aI6449
aI7
aI3935
asS'ori'
p6
S'This house believes that states should not subsidize the growing of tobacco'
p7
ssS'output'
p8
(dp9
g4
(lp10
I89
aI905
aI187
aI63
aI1191
aI2639
aI78
aI3048
aI574
aI3569
aI6448
aI41
aI89
aI296
aI7
aI14833
asg6
S'A 2007 report states that about 4 .9 million people worldwide each year die as a result of smoking '
p11
ss.