(dp1
S'input'
p2
(dp3
S'encoded'
p4
(lp5
I64
aI2179
aI43
aI63
aI3
aI4990
aI4991
aI116
aI4850
aI24
aI12166
aI3
aI475
aI7
aI3532
aI3290
aI7
aI4714
asS'ori'
p6
S'This house believes that the Catholic Church is justified in forbidding the use of barrier methods of contraception'
p7
ssS'output'
p8
(dp9
g4
(lp10
I7332
aI182
aI153
aI3394
aI41
aI51
aI19675
aI45
aI136
aI1112
aI314
aI708
aI3290
aI41
aI24
aI6398
aI53
aI39758
aI1795
aI116
aI174
aI1852
aI63765
asg6
S'Condoms are often recommended as an adjunct to more effective birth control methods (such as IUD) in situations where STD protection is also desired  .'
p11
ss.