(dp1
S'input'
p2
(dp3
S'encoded'
p4
(lp5
I64
aI2179
aI394
aI5284
aI150
aI3987
asS'ori'
p6
S'This house would reintroduce national service'
p7
ssS'output'
p8
(dp9
g4
(lp10
I5831
aI382
aI75
aI3
aI202
aI257
aI155
aI3763
aI45
aI919
aI23069
aI3895
aI834
aI1782
aI125
aI4913
aI73
aI5744
aI45
aI2157
aI254
aI63765
asg6
S'Conscripts were court-martialed by the Army if they refused to wear uniforms  bear arms  perform basic duties or submit to military authority .'
p11
ss.