(dp1
S'input'
p2
(dp3
S'encoded'
p4
(lp5
I64
aI2179
aI43
aI63
aI3
aI4990
aI4991
aI116
aI4850
aI24
aI12166
aI3
aI475
aI7
aI3532
aI3290
aI7
aI4714
asS'ori'
p6
S'This house believes that the Catholic Church is justified in forbidding the use of barrier methods of contraception'
p7
ssS'output'
p8
(dp9
g4
(lp10
I64
aI1380
aI7
aI8935
aI116
aI3
aI1334
aI521
aI7
aI1511
aI475
aI807
aI71
aI45
aI1869
aI73
aI1839
aI475
aI63765
asg6
S'This type of behavior is the primary cause of typical use failure (as opposed to method or perfect use failure)  .'
p11
ss.