(dp1
S'input'
p2
(dp3
S'encoded'
p4
(lp5
I64
aI2179
aI394
aI117
aI7428
aI21151
aI34
aI11389
aI2042
aI24
aI4364
asS'ori'
p6
S'This house would only teach abstinence for sex education in schools'
p7
ssS'output'
p8
(dp9
g4
(lp10
I89
aI2330
aI2035
aI7
aI3104
aI14709
aI928
aI63
aI38042
aI122
aI994
aI136
aI1112
aI138
aI19813
aI24
aI1543
aI4821
aI24
aI4902
aI5
aI24
aI6798
aI271
aI3217
aI5
aI17
aI1780
aI63765
asg6
S'A German study of long-term heroin addicts demonstrated that diamorphine was significantly more effective than methadone in keeping patients in treatment and in improving their health and social situation  .'
p11
ss.