(dp1
S'input'
p2
(dp3
S'encoded'
p4
(lp5
I64
aI2179
aI43
aI63
aI187
aI417
aI99
aI16642
aI3
aI6449
aI7
aI3935
asS'ori'
p6
S'This house believes that states should not subsidize the growing of tobacco'
p7
ssS'output'
p8
(dp9
g4
(lp10
I164
aI3269
aI7511
aI116
aI174
aI1016
aI24
aI1949
aI14832
aI60
aI6826
aI1003
aI19
aI45
aI2439
aI3179
aI138
aI25213
aI63765
asg6
S'Overall life expectancy is also reduced in regular smokers  with estimates ranging from 10 to 17 .9  years fewer than nonsmokers  .'
p11
ss.