(dp1
S'input'
p2
(dp3
S'encoded'
p4
(lp5
I64
aI2179
aI43
aI8629
aI116
aI3
aI117
aI998
asS'ori'
p6
S'This house believes atheism is the only way'
p7
ssS'output'
p8
(dp9
g4
(lp10
I132
aI1044
aI382
aI223
aI2031
aI45
aI3397
aI1603
aI75
aI3
aI320
aI8446
aI5711
aI5
aI5761
aI10783
aI4718
aI158
aI32359
aI13772
aI7
aI25800
aI5
aI3839
aI63765
asg6
S'These attributes were all supported to varying degrees by the early Jewish  Christian and Muslim theologian philosophers  including Maimonides  Augustine of Hippo  and Al-Ghazali  respectively .'
p11
ss.