(dp1
S'input'
p2
(dp3
S'encoded'
p4
(lp5
I64
aI2179
aI394
aI117
aI7428
aI21151
aI34
aI11389
aI2042
aI24
aI4364
asS'ori'
p6
S'This house would only teach abstinence for sex education in schools'
p7
ssS'output'
p8
(dp9
g4
(lp10
I14
aI3
aI248
aI1070
aI4358
aI81
aI1516
aI588
aI5
aI11
aI18241
aI8803
aI21858
aI182
aI136
aI1856
aI45
aI1453
aI4729
aI24
aI2240
aI5
aI1192
aI979
aI13064
aI63765
asg6
S'On the other hand students who hook up and have casual sexual encounters are more likely to do poorly in school and get lower grades .'
p11
ss.