(dp1
S'input'
p2
(dp3
S'encoded'
p4
(lp5
I64
aI2179
aI394
aI5370
aI223
aI4013
aI10440
aI2446
aI4881
aI75
aI14482
aI11004
asS'ori'
p6
S'This house would abolish all collective bargaining rights claimed by trades unions'
p7
ssS'output'
p8
(dp9
g4
(lp10
I3
aI23839
aI45
aI7428
aI3
aI1560
aI63
aI42
aI122
aI89
aI237
aI5
aI89
aI17446
aI25958
aI28033
aI63765
aI366
aI63765
asg6
S'The KOL "tried to teach the American wage-earner that he was a wage-earner first and a bricklayer  carpenter  miner [ . .] after .'
p11
ss.