(dp1
S'input'
p2
(dp3
S'encoded'
p4
(lp5
I64
aI2179
aI394
aI5842
aI3569
aI446
aI13498
asS'ori'
p6
S'This house would introduce year round schooling'
p7
ssS'output'
p8
(dp9
g4
(lp10
I2240
aI764
aI1928
aI3569
aI14
aI2555
aI60
aI89
aI3427
aI1295
aI24
aI15279
aI3286
aI1295
aI311
aI9233
aI5
aI89
aI3427
aI24
aI10051
aI63765
asg6
S'School begins every year on September 1  with a week off in autumn  2 weeks off at Christmas and a week in spring .'
p11
ss.