(dp1
S'input'
p2
(dp3
S'encoded'
p4
(lp5
I64
aI2179
aI394
aI475
aI2135
aI2194
aI6198
aI45
aI2041
aI5
aI13926
aI8732
aI63
aI1735
aI12708
aI5
aI5599
aI24
aI2203
aI45
aI1397
aI7149
aI5
aI12311
aI271
aI5119
aI4948
asS'ori'
p6
S'This house would use foreign aid funds to research and distribute software that allows bloggers and journalists in non-democratic countries to evade censorship and conceal their online activities'
p7
ssS'output'
p8
(dp9
g4
(lp10
I31366
aI88
aI311
aI351
aI413
aI252
aI1460
aI4149
aI5
aI24
aI211
aI2486
aI6394
aI10662
aI159
aI7151
aI3449
aI89
aI404
aI34
aI7570
aI159
aI7371
aI24
aI2521
aI7
aI132
aI1809
aI7
aI47
aI10662
aI223
aI7151
aI257
aI3762
aI26259
aI63
aI159
aI7151
aI4382
aI14
aI7146
aI4585
aI5
aI2844
aI3
aI21
aI45
aI10662
aI7151
aI252
aI1460
aI63765
asg6
S'YouTube may at any time  without prior notice and in its sole discretion  remove such Content and/or terminate a user\'s account for submitting such material in violation of these Terms of Service"  "YouTube will remove all Content if properly notified that such Content infringes on another\'s intellectual property rights"  and "YouTube reserves the right to remove Content without prior notice"  .'
p11
ss.