(dp1
S'input'
p2
(dp3
S'encoded'
p4
(lp5
I64
aI2179
aI394
aI1499
aI3
aI8115
aI34564
aI17106
asS'ori'
p6
S'This house would build the Keystone XL pipeline'
p7
ssS'output'
p8
(dp9
g4
(lp10
I19268
aI116
aI89
aI13425
aI27454
aI399
aI7
aI12153
aI2579
aI87
aI528
aI5
aI23161
aI63
aI134
aI47
aI99
aI3142
aI1375
aI17206
aI73
aI5322
aI60
aI1463
aI25345
aI63765
asg6
S'Bitumen is a thick  sticky form of crude oil  so heavy and viscous (thick) that it will not flow unless heated or diluted with lighter hydrocarbons .'
p11
ss.