(dp1
S'input'
p2
(dp3
S'encoded'
p4
(lp5
I64
aI2179
aI235
aI3858
aI3
aI2240
aI4527
aI3485
aI45
asS'ori'
p6
S'This house supports raising the school leaving age to 18'
p7
ssS'output'
p8
(dp9
g4
(lp10
I3
aI912
aI3485
aI92
aI89
aI3315
aI139
aI4680
aI3557
aI2042
aI24
aI3
aI10
aI7
aI667
aI2318
aI499
aI122
aI800
aI45
aI24
aI88
aI63765
aI3
aI2042
aI2161
aI38137
aI38138
aI2173
aI3
aI2041
aI2981
aI63
aI257
aI4358
aI843
aI1192
aI271
aI166
aI2240
aI16107
aI73
aI51
aI4968
aI5236
aI12244
aI768
aI271
aI7517
aI7631
aI24
aI395
aI3269
aI182
aI938
aI595
aI5
aI87
aI116
aI271
aI4204
asg6
S'The current age which a child can leave compulsory education in the state of New South Wales was raised to 17 in May 2009 . The Education Minister Carmel Tebbutt stated "all the research shows that if students either get their Higher School Certificate or an equivalent vocational qualification  then their employment opportunities in later life are far greater and so is their income-earning capacity'
p11
ss.