(dp1
S'input'
p2
(dp3
S'encoded'
p4
(lp5
I64
aI2179
aI394
aI2017
aI3807
aI314
aI3433
asS'ori'
p6
S'This house would ban partial birth abortions'
p7
ssS'output'
p8
(dp9
g4
(lp10
I3
aI713
aI3304
aI116
aI5869
aI117
aI311
aI89
aI1869
aI7
aI3257
aI958
aI138
aI311
aI5377
aI351
aI3833
aI19
aI4286
aI51
aI3257
aI63765
asg6
S'The present statute is directed only at a method of abortion  rather than at preventing any woman from obtaining an abortion  .'
p11
ss.