(dp1
S'input'
p2
(dp3
S'encoded'
p4
(lp5
I64
aI2179
aI394
aI1499
aI3
aI8115
aI34564
aI17106
asS'ori'
p6
S'This house would build the Keystone XL pipeline'
p7
ssS'output'
p8
(dp9
g4
(lp10
I3
aI217
aI279
aI2186
aI45
aI454
aI132
aI3477
aI19
aI2278
aI20398
aI116
aI1047
aI41
aI36926
aI17106
aI7249
aI2938
aI73
aI56732
aI63765
asg6
S'The most common technology to protect these lines from occasional leaks is known as Computational Pipeline Monitoring Systems or CPM .'
p11
ss.