(dp1
S'input'
p2
(dp3
S'encoded'
p4
(lp5
I64
aI2179
aI394
aI60
aI23587
asS'ori'
p6
S'This house would re-engage with Myanmar'
p7
ssS'output'
p8
(dp9
g4
(lp10
I887
aI3
aI12800
aI45
aI79
aI311
aI3
aI2800
aI298
aI42
aI122
aI122
aI89
aI5615
aI41475
aI4347
aI41476
aI41477
aI81
aI461
aI14
aI45
aI1199
aI744
aI7
aI3
aI9486
aI2250
aI439
aI63765
asg6
S'Among the Burmese to work at the UN when he was Secretary-General was a young Aung San Suu Kyi  who went on to become winner of the 1991 Nobel Peace Prize .'
p11
ss.