(dp1
S'input'
p2
(dp3
S'encoded'
p4
(lp5
I64
aI2179
aI394
aI2773
aI12505
asS'ori'
p6
S'This house would embrace multiculturalism'
p7
ssS'output'
p8
(dp9
g4
(lp10
I89
aI4229
aI2117
aI24
aI64
aI4659
aI122
aI3
aI807
aI7
aI3
aI5
aI216
aI3300
aI24
aI323
aI45
aI8000
aI89
aI3609
aI45
aI285
aI2223
aI2233
aI63765
asg6
S"A significant event in this context was the failure of the social-democratic and socialist movements in Europe to mobilize a cross-border workers' opposition to World War I ."
p11
ss.