(dp1
S'input'
p2
(dp3
S'encoded'
p4
(lp5
I64
aI2179
aI43
aI63
aI2157
aI2565
aI493
aI19084
aI382
aI4850
asS'ori'
p6
S"This house believes that Israel's 2008-2009 military operations against Gaza were justified"
p7
ssS'output'
p8
(dp9
g4
(lp10
I492
aI46043
aI7
aI16618
aI96
aI16619
aI44
aI45
aI881
aI11995
aI19708
aI493
aI6056
aI3946
aI5
aI4406
aI63765
asg6
S'July 2010 PCPSR poll: 57% of Palestinians support Hamas attempts to prevent rocket launching against Israeli towns and 38% oppose  .'
p11
ss.