(dp1
S'input'
p2
(dp3
S'encoded'
p4
(lp5
I64
aI2179
aI394
aI2017
aI628
asS'ori'
p6
S'This house would ban gambling'
p7
ssS'output'
p8
(dp9
g4
(lp10
I574
aI413
aI64
aI116
aI47133
aI134
aI8083
aI45
aI2153
aI63765
asg6
S'Each time this $1 is transacted  it contributes to GDP  .'
p11
ss.