(dp1
S'input'
p2
(dp3
S'encoded'
p4
(lp5
I64
aI2179
aI43
aI63
aI2157
aI2565
aI493
aI19084
aI382
aI4850
asS'ori'
p6
S"This house believes that Israel's 2008-2009 military operations against Gaza were justified"
p7
ssS'output'
p8
(dp9
g4
(lp10
I3
aI626
aI2138
aI311
aI3
aI734
aI7
aI9806
aI89
aI5430
aI34
aI2159
aI448
aI2017
aI2173
aI63
aI2159
aI448
aI116
aI11094
aI30958
aI75
aI528
aI2617
aI5
aI24860
aI24
aI19084
aI5
aI3
aI15290
aI7
aI2617
aI24
aI4232
aI63765
asg6
S'|- The United Nations - At the beginning of "Operation Cast Lead"  a spokesperson for Secretary General Ban Ki-moon stated that "the secretary general is deeply alarmed by today\'s heavy violence and bloodshed in Gaza  and the continuation of violence in southern Israel" .'
p11
ss.