(dp1
S'input'
p2
(dp3
S'encoded'
p4
(lp5
I64
aI2179
aI394
aI5370
aI3
aI5286
asS'ori'
p6
S'This house would abolish the monarchy'
p7
ssS'output'
p8
(dp9
g4
(lp10
I64
aI116
aI89
aI399
aI7
aI260
aI24
aI92
aI89
aI10
aI73
aI3050
aI116
aI743
aI73
aI706
aI75
aI51
aI229
aI81
aI693
aI33851
aI3
aI6502
aI75
aI314
aI5
aI442
aI34
aI3269
aI73
aI487
aI6523
aI63765
asg6
S'This is a form of government in which a state or polity is ruled or controlled by an individual who typically inherits the throne by birth and rules for life or until abdication .'
p11
ss.