(dp1
S'input'
p2
(dp3
S'encoded'
p4
(lp5
I64
aI2179
aI394
aI5370
aI223
aI4013
aI10440
aI2446
aI4881
aI75
aI14482
aI11004
asS'ori'
p6
S'This house would abolish all collective bargaining rights claimed by trades unions'
p7
ssS'output'
p8
(dp9
g4
(lp10
I357
aI47
aI1546
aI3218
aI5428
aI910
aI75
aI1655
aI89
aI667
aI8641
aI34
aI6941
aI24
aI3218
aI5269
aI63765
asg6
S'We will change our labour movement by creating a new voice for workers in our communities .'
p11
ss.