(dp1
S'input'
p2
(dp3
S'encoded'
p4
(lp5
I64
aI2179
aI394
aI5370
aI7146
aI4585
aI2446
asS'ori'
p6
S'This house would abolish intellectual property rights'
p7
ssS'output'
p8
(dp9
g4
(lp10
I7151
aI21909
aI394
aI99
aI11
aI191
aI45
aI3051
aI271
aI2885
aI257
aI155
aI1019
aI316
aI9161
aI5458
asg6
S'content creators would not have incentive to produce their products if they cannot be guaranteed payment'
p11
ss.