(dp1
S'input'
p2
(dp3
S'encoded'
p4
(lp5
I64
aI2179
aI13605
aI2258
aI45
aI2194
asS'ori'
p6
S'This house prefers trade to aid'
p7
ssS'output'
p8
(dp9
g4
(lp10
I24
aI3
aI4199
aI7
aI398
aI2330
aI8928
aI13124
aI63765
asg6
S'In the words of 19th century German economist  Friedrich List:  .'
p11
ss.