(dp1
S'input'
p2
(dp3
S'encoded'
p4
(lp5
I64
aI2179
aI43
aI63
aI11083
aI10046
aI417
aI316
aI89
aI3135
aI4603
asS'ori'
p6
S'This house believes that Holocaust denial should be a criminal offence'
p7
ssS'output'
p8
(dp9
g4
(lp10
I89
aI1950
aI94
aI7
aI2478
aI35941
aI75
aI3
aI1560
aI3031
aI42588
aI42589
aI11
aI5841
aI45
aI5918
aI4724
aI7
aI3
aI3290
aI5
aI14748
aI7
aI11083
aI10046
aI252
aI25107
aI3
aI42590
aI777
aI63765
asg6
S'A second group of scholars  typified by the American historian Deborah Lipstadt  have tried to raise awareness of the methods and motivations of Holocaust denial without legitimizing the deniers themselves .'
p11
ss.