(dp1
S'input'
p2
(dp3
S'encoded'
p4
(lp5
I64
aI2179
aI43
aI63
aI187
aI417
aI99
aI16642
aI3
aI6449
aI7
aI3935
asS'ori'
p6
S'This house believes that states should not subsidize the growing of tobacco'
p7
ssS'output'
p8
(dp9
g4
(lp10
I24
aI5518
aI14833
aI116
aI2499
aI24
aI7462
aI6745
aI22271
aI1034
aI5
aI49626
aI1034
aI41
aI132
aI182
aI658
aI6776
aI53
aI10873
aI139
aI1466
aI3597
aI34
aI658
aI6676
aI5
aI691
aI492
aI116
aI2056
aI1258
aI45
aI223
aI21701
aI658
aI1197
aI63765
asg6
S'In Victoria  smoking is restricted in railway stations  bus stops and tram stops as these are public locations where second-hand smoke can affect non-smokers waiting for public transport  and since July 1  2007 is now extended to all indoor public places .'
p11
ss.