(dp1
S'input'
p2
(dp3
S'encoded'
p4
(lp5
I64
aI2179
aI394
aI60
aI23587
asS'ori'
p6
S'This house would re-engage with Myanmar'
p7
ssS'output'
p8
(dp9
g4
(lp10
I239
aI3
aI6
aI5
aI1061
aI7
aI3157
aI382
aI28129
aI5
aI990
aI6282
aI2338
aI45
aI19139
aI3
aI3220
aI7
aI169
aI7460
aI63765
asg6
S'Nonetheless  the extent and pace of reforms were uneven and ultimately proved insufficient to stem the advance of British colonialism .'
p11
ss.