(dp1
S'input'
p2
(dp3
S'encoded'
p4
(lp5
I64
aI2179
aI235
aI3
aI2136
aI7
aI3
aI2306
aI7
aI2390
asS'ori'
p6
S'This house supports the one-child policy of the republic of China'
p7
ssS'output'
p8
(dp9
g4
(lp10
I89
aI1107
aI3315
aI394
aI316
aI20
aI60
aI206
aI45
aI124
aI96
aI34
aI25
aI73
aI732
aI267
aI8532
aI5
aI869
aI17818
asg6
S'a single child would be left with having to provide support for his or her two parents and four grandparents'
p11
ss.