(dp1
S'input'
p2
(dp3
S'encoded'
p4
(lp5
I64
aI2179
aI394
aI3830
aI3
aI475
aI7
aI9441
aI13132
aI3102
aI24
aI276
aI381
asS'ori'
p6
S'This house would permit the use of performance enhancing drugs in professional sports'
p7
ssS'output'
p8
(dp9
g4
(lp10
I273
aI42
aI5898
aI89
aI2304
aI11713
aI81
aI289
aI1896
aI980
aI2200
aI182
aI1198
aI1710
aI828
aI5716
asg6
S'There he met a Russian physicist who  over "a few drinks"  repeatedly asked "What are you giving your boys ?"'
p11
ss.