(dp1
S'input'
p2
(dp3
S'encoded'
p4
(lp5
I64
aI2179
aI43
aI63
aI3
aI4538
aI7
aI4434
aI7793
aI283
aI45
aI3586
aI417
aI316
aI577
asS'ori'
p6
S'This house believes that the sale of violent video games to minors should be banned'
p7
ssS'output'
p8
(dp9
g4
(lp10
I57003
aI505
aI89
aI319
aI60
aI117
aI6669
aI6938
aI2125
aI89
aI15654
aI3
aI7740
aI83
aI40726
aI25
aI998
aI864
aI7
aI89
aI34278
aI1491
aI60
aI6938
aI63765
asg6
S'Narbacular Drop - A game with only environmental hazards featuring a non-violent main-character wherein the player must navigate his way out of a dungeon filled with hazards .'
p11
ss.