(dp1
S'input'
p2
(dp3
S'encoded'
p4
(lp5
I64
aI2179
aI394
aI16642
aI1376
aI5269
asS'ori'
p6
S'This house would subsidize poor communities'
p7
ssS'output'
p8
(dp9
g4
(lp10
I166
aI2363
aI7
aI16
aI4925
aI1057
aI45
aI24718
aI17
aI12406
aI5
aI246
aI7432
aI3
aI5229
aI7
aI17
aI2202
asg6
S'Higher levels of economic inequality tend to intensify social hierarchies and generally degrade the quality of social relations'
p11
ss.