(dp1
S'input'
p2
(dp3
S'encoded'
p4
(lp5
I64
aI2179
aI43
aI63
aI3
aI28431
aI7
aI2157
aI4624
aI75
aI39939
aI27257
aI122
aI4850
asS'ori'
p6
S'This house believes that the leaking of military documents by Anat Kamm was justified'
p7
ssS'output'
p8
(dp9
g4
(lp10
I4290
aI20779
aI29063
aI2032
aI89
aI12403
aI2282
aI7
aI3
aI475
aI7
aI3
aI1012
aI12472
aI3
aI1643
aI3569
aI63765
asg6
S'Senator Arlen Spector proposed a comparable expansion of the use of the death penalty the same year  .'
p11
ss.