(dp1
S'input'
p2
(dp3
S'encoded'
p4
(lp5
I64
aI2179
aI394
aI5370
aI223
aI4013
aI10440
aI2446
aI4881
aI75
aI14482
aI11004
asS'ori'
p6
S'This house would abolish all collective bargaining rights claimed by trades unions'
p7
ssS'output'
p8
(dp9
g4
(lp10
I89
aI2131
aI88
aI12015
aI3
aI2554
aI7
aI89
aI3284
aI976
aI60
aI89
aI6412
aI45
aI7760
aI60
aI9452
aI34
aI3
aI6941
aI134
aI978
aI63765
asg6
S'A union may acquire the status of a "juristic person" (an artificial legal entity)  with a mandate to negotiate with employers for the workers it represents .'
p11
ss.