(dp1
S'input'
p2
(dp3
S'encoded'
p4
(lp5
I64
aI2179
aI394
aI1499
aI177
aI1819
aI34
aI160
asS'ori'
p6
S'This house would build high rises for housing'
p7
ssS'output'
p8
(dp9
g4
(lp10
I2445
aI4818
aI226
aI17
aI3921
aI1068
aI4229
aI1183
aI7
aI17
aI1617
aI73
aI155
aI1199
aI15297
aI5
aI1946
asg6
S'human beings  while social animals  need significant amounts of social space or they become agitated and aggressive'
p11
ss.