(dp1
S'input'
p2
(dp3
S'encoded'
p4
(lp5
I64
aI2179
aI43
aI63
aI1036
aI4828
aI33250
aI116
aI25073
aI45
aI3315
aI4562
asS'ori'
p6
S'This house believes that male infant circumcision is tantamount to child abuse'
p7
ssS'output'
p8
(dp9
g4
(lp10
I2019
aI63765
aI22224
aI8844
aI63765
aI33263
aI24
aI667
aI116
aI51
aI1560
aI3379
aI81
aI95
aI41
aI89
aI7119
aI2999
aI24
aI25339
aI311
aI3
aI4750
aI7
aI2300
aI4347
aI4348
aI5
aI557
aI3
aI1597
aI7
aI14083
aI7
aI3
aI1560
aI4371
aI7
aI25339
aI8791
aI972
aI14
aI33250
aI63765
asg6
S'Dr . Edgar J . Schoen (born 1925 in New York) is an American physician  who works as a Clinical Professor in Pediatrics at the University of California  San Francisco  and held the position of Chair of the 1989 American Academy of Pediatrics Task Force on Circumcision .'
p11
ss.