(dp1
S'input'
p2
(dp3
S'encoded'
p4
(lp5
I64
aI2179
aI43
aI63
aI134
aI116
aI400
aI21
aI34
aI3
aI260
aI45
aI3439
aI57
aI7
aI2381
asS'ori'
p6
S'This house believes that it is sometimes right for the government to restrict freedom of speech'
p7
ssS'output'
p8
(dp9
g4
(lp10
I64
aI437
aI1528
aI139
aI117
aI316
aI416
aI298
aI51
aI7075
aI7
aI3
aI3393
aI14
aI3
aI3349
aI116
aI99
aI513
aI2867
aI5
aI53
aI3
aI7
aI3
aI3393
aI440
aI1719
aI12
aI513
aI75
aI89
aI150
aI2483
aI63765
asg6
S'This latter ground can only be used when an examination of the application on the merits is not considered necessary and where the subject-matter of the application had already been considered by a national court .'
p11
ss.