(dp1
S'input'
p2
(dp3
S'encoded'
p4
(lp5
I64
aI2179
aI394
aI16756
aI20435
asS'ori'
p6
S'This house would criminalize blasphemy'
p7
ssS'output'
p8
(dp9
g4
(lp10
I1216
aI15320
aI89
aI6954
aI2240
aI3707
aI8428
aI5
aI51
aI8636
aI122
aI9249
aI459
aI20518
aI20435
aI70
aI34
aI8991
aI20436
aI7793
aI7
aI24
aI2805
aI24
aI483
asg6
S'Michael Newman  a secondary school science teacher and an atheist  was arrested under Englands blasphemy law for selling Wingrove\'s blasphemous video  "Visions of Ecstasy" in February 1992 in Birmingham'
p11
ss.