(dp1
S'input'
p2
(dp3
S'encoded'
p4
(lp5
I64
aI2179
aI43
aI63
aI2157
aI2565
aI493
aI19084
aI382
aI4850
asS'ori'
p6
S"This house believes that Israel's 2008-2009 military operations against Gaza were justified"
p7
ssS'output'
p8
(dp9
g4
(lp10
I41
aI2173
aI75
aI1237
aI2879
aI158
aI3
aI2800
aI878
aI5
aI2445
aI2446
aI3601
aI905
aI480
aI24
aI2779
aI4951
aI5
aI5971
aI8069
aI7
aI3180
aI5
aI2224
aI14507
aI24
aI4232
aI2659
aI691
aI75
aI19088
aI2218
aI11995
aI1687
aI5627
aI282
aI2893
aI70
aI5
aI532
aI45
aI2223
aI4212
aI63765
asg6
S"As stated by several sources  including the UN official and Human Rights Watch report published in August 2009  deliberate and systematic targeting of civilians and civilian objects in southern Israel since 2001 by Palestinian armed groups' rocket attacks violates International Humanitarian Law and amount to war crimes  ."
p11
ss.