(dp1
S'input'
p2
(dp3
S'encoded'
p4
(lp5
I64
aI2179
aI13605
aI2258
aI45
aI2194
asS'ori'
p6
S'This house prefers trade to aid'
p7
ssS'output'
p8
(dp9
g4
(lp10
I226
aI3
aI3445
aI7
aI2891
aI2194
aI2605
aI611
aI45
aI3
aI4116
aI681
aI63
aI5304
aI7
aI8
aI2891
aI2194
aI8236
aI24
aI3
aI4659
aI7
aI2223
aI2236
aI5
aI3
aI2237
aI7233
aI41
aI89
aI2194
aI2326
aI75
aI3
aI626
aI187
aI24
aI3
aI1565
aI9449
aI2326
aI73
aI3469
aI7074
aI122
aI2853
aI60
aI2798
aI3
aI2591
aI45
aI3
aI3912
aI1565
aI187
aI45
aI11698
aI3
aI673
aI7
aI3
aI5970
aI63765
asg6
S'While the concept of development aid goes back to the colonial era  that origin of modern development aid roots in the context of Post-World War II and the Cold War: Launched as a large-scale aid program by the United States in 1948  the European Recovery Program  or Marshall Plan was concerned with strengthening the ties to the West European states to contain the influence of the USSR .'
p11
ss.