(dp1
S'input'
p2
(dp3
S'encoded'
p4
(lp5
I64
aI2179
aI43
aI63
aI7382
aI116
aI400
aI4713
asS'ori'
p6
S'This house believes that bribery is sometimes acceptable'
p7
ssS'output'
p8
(dp9
g4
(lp10
I89
aI7330
aI6099
aI693
aI727
aI24
aI725
aI2439
aI7
aI448
aI9510
aI5
aI4871
aI34
aI3
aI2411
aI2471
aI7
aI2144
aI41
aI3202
aI2022
aI5
aI3
aI306
aI7
aI70
aI9578
aI63765
asg6
S'A corrupt dictatorship typically results in many years of general hardship and suffering for the vast majority of citizens as civil society and the rule of law disintegrate .'
p11
ss.