(dp1
S'input'
p2
(dp3
S'encoded'
p4
(lp5
I64
aI2179
aI43
aI223
aI2138
aI11
aI89
aI21
aI45
aI2185
aI372
asS'ori'
p6
S'This house believes all nations have a right to nuclear weapons'
p7
ssS'output'
p8
(dp9
g4
(lp10
I3
aI27120
aI55
aI6833
aI864
aI63
aI2046
aI116
aI99
aI9048
aI3
aI4352
aI7
aI2800
aI2702
aI2132
aI11577
aI5
aI1227
aI45
aI16861
aI45
aI26054
aI7585
aI214
aI5
aI4726
aI5376
aI45
aI124
aI320
aI4537
aI5224
aI14
aI211
aI2185
aI4678
aI63765
asg6
S'" The IAEA has pointed out that Iran is not implementing the requirements of UN Security Council Resolutions and needs to cooperate to clarify outstanding issues and meet requirement to provide early design information on its nuclear facilities  .'
p11
ss.