(dp1
S'input'
p2
(dp3
S'encoded'
p4
(lp5
I64
aI2179
aI394
aI2741
aI3
aI1560
aI6025
aI2784
asS'ori'
p6
S'This house would pass the American Jobs Act'
p7
ssS'output'
p8
(dp9
g4
(lp10
I223
aI131
aI242
aI3382
aI34
aI3
aI2029
aI5
aI2359
aI3382
aI493
aI134
aI4408
aI500
aI99
aI63765
asg6
S'All but 11 Democrats voted for the bill  and 177 Republicans voted against it (one Republican did not vote)  .'
p11
ss.