(dp1
S'input'
p2
(dp3
S'encoded'
p4
(lp5
I64
aI2179
aI394
aI4261
aI8667
aI3
aI9361
aI5
aI17069
asS'ori'
p6
S'This house would prohibit burning the stars and stripes'
p7
ssS'output'
p8
(dp9
g4
(lp10
I24
aI3
aI366
aI3
aI1560
aI3034
aI2223
aI2196
aI289
aI3
aI9415
aI7
aI89
aI667
aI2475
aI891
aI24
aI89
aI1239
aI291
aI50307
aI159
aI41
aI5420
aI10366
aI81
aI2264
aI89
aI2369
aI2503
aI260
aI5
aI159
aI41
aI1147
aI9982
aI5
aI4135
aI1117
aI81
aI2264
aI89
aI1056
aI2503
aI260
aI63765
asg6
S'In the 1780s after the American Revolutionary War  debate over the adoption of a new Constitution resulted in a division between Federalists  such as Alexander Hamilton who favored a strong federal government  and Anti-Federalists  such as Thomas Jefferson and Patrick Henry who favored a weaker federal government .'
p11
ss.