(dp1
S'input'
p2
(dp3
S'encoded'
p4
(lp5
I64
aI2179
aI43
aI8629
aI116
aI3
aI117
aI998
asS'ori'
p6
S'This house believes atheism is the only way'
p7
ssS'output'
p8
(dp9
g4
(lp10
I5480
aI116
aI162
aI23651
aI41
aI1036
aI24
aI18828
aI2879
aI4015
aI24
aI5
aI89
aI3459
aI24
aI89
aI3459
aI38364
aI24
aI5
aI89
aI3459
aI38154
aI24
aI5
aI63765
asg6
S'God is usually characterised as male in Biblical sources  except: female in     and ; a mother in           ; a mother eagle in ; and a mother hen in and  .'
p11
ss.