(dp1
S'input'
p2
(dp3
S'encoded'
p4
(lp5
I64
aI2179
aI235
aI3858
aI3
aI2240
aI4527
aI3485
aI45
asS'ori'
p6
S'This house supports raising the school leaving age to 18'
p7
ssS'output'
p8
(dp9
g4
(lp10
I16065
aI470
aI3
aI3485
aI7
aI252
aI5954
aI12972
aI182
aI3619
aI3
aI5433
aI7
aI4159
aI3557
aI2042
aI534
aI75
aI9719
aI70
aI63765
asg6
S'Apprentices below the age of 18 without occupational qualifications are offered the option of completing compulsory education required by Italian law  .'
p11
ss.