(dp1
S'input'
p2
(dp3
S'encoded'
p4
(lp5
I64
aI2179
aI43
aI63
aI3
aI4538
aI7
aI4434
aI7793
aI283
aI45
aI3586
aI417
aI316
aI577
asS'ori'
p6
S'This house believes that the sale of violent video games to minors should be banned'
p7
ssS'output'
p8
(dp9
g4
(lp10
I2934
aI2935
aI5047
aI63
aI14967
aI3969
aI33
aI24
aI2547
aI122
aI2566
aI864
aI75
aI3
aI3135
aI29312
aI29313
aI81
aI116
aI89
aI7740
aI7
aI11900
aI15117
aI4045
aI564
aI17526
aI25353
aI60
aI2369
aI2617
aI2498
aI63765
asg6
S'Fox News reported that Montreal shooting case in Canada was carried out by the criminal Kimveer Gill  who is a player of Super Columbine Massacre  whose narrative attaches with strong violence sense .'
p11
ss.