(dp1
S'input'
p2
(dp3
S'encoded'
p4
(lp5
I64
aI2179
aI43
aI63
aI820
aI12564
aI182
aI3
aI217
aI1112
aI1869
aI7
aI10656
aI4672
aI34
aI5276
asS'ori'
p6
S'This house believes that open primaries are the most effective method of selecting candidates for elections'
p7
ssS'output'
p8
(dp9
g4
(lp10
I237
aI93
aI171
aI463
aI15508
aI211
aI4275
aI45
aI2490
aI24
aI3
aI248
aI1334
aI5
aI4574
aI3
aI10484
aI63
aI155
aI217
aI1461
aI60
aI73
aI63
aI155
aI1190
aI271
aI171
aI463
aI217
aI1398
aI1979
aI63765
asg6
S"First  one party could organize its voters to vote in the other party's primary and choose the candidate that they most agree with or that they think their party could most easily defeat ."
p11
ss.