(dp1
S'input'
p2
(dp3
S'encoded'
p4
(lp5
I64
aI2179
aI394
aI2017
aI262
asS'ori'
p6
S'This house would ban boxing'
p7
ssS'output'
p8
(dp9
g4
(lp10
I725
aI455
aI1569
aI271
aI598
aI723
aI638
aI89
aI313
aI24
aI128
aI45
aI1797
aI45
aI3
aI1780
aI7
aI3
aI1798
aI1799
aI3
aI1597
aI1059
aI1800
aI45
aI454
aI86
aI63765
asg6
S'Many fighters vary their defensive style throughout a bout in order to adapt to the situation of the moment  choosing the position best suited to protect them .'
p11
ss.