(dp1
S'input'
p2
(dp3
S'encoded'
p4
(lp5
I64
aI2179
aI43
aI63
aI134
aI116
aI400
aI21
aI34
aI3
aI260
aI45
aI3439
aI57
aI7
aI2381
asS'ori'
p6
S'This house believes that it is sometimes right for the government to restrict freedom of speech'
p7
ssS'output'
p8
(dp9
g4
(lp10
I3500
aI2236
aI122
aI2215
aI75
aI395
aI187
aI131
aI500
aI99
aI6750
aI3
aI2471
aI7
aI187
aI1587
aI34
aI16874
aI487
aI298
aI134
aI373
aI3
aI3264
aI63765
asg6
S'Article II was ratified by 6/14  later 7/15 states  but did not receive the 3/4 majority of States needed for ratification until 1992 when it became the 27th Amendment .'
p11
ss.