(dp1
S'input'
p2
(dp3
S'encoded'
p4
(lp5
I64
aI2179
aI43
aI63
aI3
aI4538
aI7
aI4434
aI7793
aI283
aI45
aI3586
aI417
aI316
aI577
asS'ori'
p6
S'This house believes that the sale of violent video games to minors should be banned'
p7
ssS'output'
p8
(dp9
g4
(lp10
I273
aI11
aI12
aI11825
aI63
aI1443
aI8678
aI45
aI3051
aI5224
aI620
aI3
aI7147
aI47
aI48
aI45
aI51
aI38894
aI7
aI5224
aI63765
asg6
S'There have been suggestions that allowing consumers to produce information through the internet will lead to an overload of information .'
p11
ss.