(dp1
S'input'
p2
(dp3
S'encoded'
p4
(lp5
I64
aI2179
aI43
aI24
aI3
aI475
aI7
aI12436
aI3364
asS'ori'
p6
S'This house believes in the use of affirmative action'
p7
ssS'output'
p8
(dp9
g4
(lp10
I4758
aI4358
aI81
aI440
aI3110
aI89
aI12379
aI3728
aI320
aI24
aI3
aI21646
aI3040
aI3
aI31222
aI7
aI1028
aI10248
aI5
aI8958
aI267
aI63765
asg6
S'College students who had completed a modern-symbolic prejudice measure early in the semester evaluated the resumes of 10 job applicants and recommend two .'
p11
ss.