(dp1
S'input'
p2
(dp3
S'encoded'
p4
(lp5
I64
aI2179
aI394
aI2998
aI3
aI4360
aI7
aI3249
aI6804
aI24
aI3
aI102
asS'ori'
p6
S'This house would encourage the creation of private universities in the UK'
p7
ssS'output'
p8
(dp9
g4
(lp10
I273
aI182
aI1896
aI3249
aI10275
aI5
aI155
aI182
aI2146
aI10305
aI159
aI41
aI10198
aI4758
aI12318
aI21584
aI4758
aI5
aI12318
aI2190
aI2240
aI63765
asg6
S'There are few private colleges  and they are highly specialised  such as Griffith College Dublin  Dorset College and Dublin Business School .'
p11
ss.