(dp1
S'input'
p2
(dp3
S'encoded'
p4
(lp5
I64
aI2179
aI43
aI3
aI2206
aI116
aI4850
aI24
aI270
aI972
aI45
aI881
aI187
aI19
aI10443
aI2185
aI372
asS'ori'
p6
S'This house believes the US is justified in using force to prevent states from acquiring nuclear weapons'
p7
ssS'output'
p8
(dp9
g4
(lp10
I134
aI122
aI3
aI237
aI5
aI117
aI2548
aI45
aI475
aI89
aI2185
aI2418
aI24
aI5640
aI63765
asg6
S'It was the first and only nation to use a nuclear bomb in wartime .'
p11
ss.