(dp1
S'input'
p2
(dp3
S'encoded'
p4
(lp5
I64
aI2179
aI43
aI63
aI3
aI21
aI45
aI12715
aI417
aI99
aI316
aI2897
asS'ori'
p6
S'This house believes that the right to asylum should not be absolute'
p7
ssS'output'
p8
(dp9
g4
(lp10
I5806
aI7
aI40747
aI3233
aI302
aI45
aI2038
aI3
aI2743
aI7
aI3
aI24630
aI7
aI2296
aI3820
aI1796
aI16
aI5
aI22
aI3020
aI24
aI3
aI2145
aI63765
asg6
S'Thousands of Cubans yearly continue to risk the waters of the Straits of Florida seeking better economic and political conditions in the U .S .'
p11
ss.