(dp1
S'input'
p2
(dp3
S'encoded'
p4
(lp5
I64
aI2179
aI43
aI223
aI2138
aI11
aI89
aI21
aI45
aI2185
aI372
asS'ori'
p6
S'This house believes all nations have a right to nuclear weapons'
p7
ssS'output'
p8
(dp9
g4
(lp10
I64
aI11898
aI122
aI99
aI244
aI60
aI75
aI3
aI2157
aI5723
aI3
aI3069
aI11762
aI1409
aI2180
aI588
aI7
aI248
aI73
aI3
aI8850
aI81
aI440
aI15405
aI736
aI3
aI475
aI7
aI3
aI1942
aI63765
asg6
S'This recommendation was not agreed with by the military commanders  the Los Alamos Target Committee (made up of other scientists)  or the politicians who had input into the use of the weapon .'
p11
ss.