(dp1
S'input'
p2
(dp3
S'encoded'
p4
(lp5
I64
aI2179
aI394
aI5370
aI3
aI5286
asS'ori'
p6
S'This house would abolish the monarchy'
p7
ssS'output'
p8
(dp9
g4
(lp10
I25
aI4331
aI5622
aI165
aI4169
aI2295
aI131
aI75
aI223
aI3
aI1808
aI440
aI12
aI6196
aI63765
asg6
S'His campaigns conquered much French territory  but by 1374 all the gains had been lost .'
p11
ss.