(dp1
S'input'
p2
(dp3
S'encoded'
p4
(lp5
I64
aI2179
aI394
aI2017
aI262
asS'ori'
p6
S'This house would ban boxing'
p7
ssS'output'
p8
(dp9
g4
(lp10
I153
aI897
aI898
aI899
aI89
aI303
aI47
aI900
aI715
aI3
aI303
aI5
aI901
aI271
aI902
aI41
aI51
aI903
aI904
aI24
aI271
aI905
aI63765
asg6
S'Often  media outlets covering a match will personally score the match  and post their scores as an independent sentence in their report .'
p11
ss.