(dp1
S'input'
p2
(dp3
S'encoded'
p4
(lp5
I64
aI2179
aI43
aI63
aI134
aI116
aI400
aI21
aI34
aI3
aI260
aI45
aI3439
aI57
aI7
aI2381
asS'ori'
p6
S'This house believes that it is sometimes right for the government to restrict freedom of speech'
p7
ssS'output'
p8
(dp9
g4
(lp10
I2023
aI495
aI11197
aI12228
aI122
aI263
aI111
aI75
aI3
aI626
aI2138
aI45
aI79
aI14
aI3
aI2762
aI5
aI373
aI3
aI6459
aI31393
aI63765
asg6
S"Canadian John Peters Humphrey was called upon by the United Nations Secretary-General to work on the project and became the Declaration's principal drafter  ."
p11
ss.