(dp1
S'input'
p2
(dp3
S'encoded'
p4
(lp5
I64
aI2179
aI43
aI63
aI134
aI116
aI400
aI21
aI34
aI3
aI260
aI45
aI3439
aI57
aI7
aI2381
asS'ori'
p6
S'This house believes that it is sometimes right for the government to restrict freedom of speech'
p7
ssS'output'
p8
(dp9
g4
(lp10
I64
aI458
aI397
aI3
aI3081
aI7
aI24066
aI13124
aI43554
aI564
aI237
aI2784
aI122
aI45
aI5370
aI3
aI5545
aI7149
aI2511
aI63765
asg6
S'This occurred during the regime of Johann Friedrich Struensee  whose first act was to abolish the old censorship laws .'
p11
ss.