(dp1
S'input'
p2
(dp3
S'encoded'
p4
(lp5
I64
aI2179
aI394
aI16756
aI20435
asS'ori'
p6
S'This house would criminalize blasphemy'
p7
ssS'output'
p8
(dp9
g4
(lp10
I3
aI2483
aI353
aI63
aI3
aI279
aI70
aI20435
aI9696
aI4555
aI500
aI99
aI1416
aI45
aI3517
aI19717
aI63765
aI7
aI3
aI14091
aI2784
aI5
aI19923
aI7
aI3
aI13200
aI2784
aI63765
asg6
S'The court found that the common law blasphemy offences specifically did not apply to stage productions (s . 2(4) of the Theatres Act 1968) and broadcasts (s .&nbsp;6 of the Broadcasting Act 1990)  .'
p11
ss.