(dp1
S'input'
p2
(dp3
S'encoded'
p4
(lp5
I64
aI2179
aI43
aI63
aI2157
aI2565
aI493
aI19084
aI382
aI4850
asS'ori'
p6
S"This house believes that Israel's 2008-2009 military operations against Gaza were justified"
p7
ssS'output'
p8
(dp9
g4
(lp10
I3
aI15700
aI1545
aI3
aI11995
aI41
aI1191
aI93
aI9277
aI24
aI6391
aI233
aI45
aI2445
aI2446
aI3601
aI31216
aI3
aI13270
aI7
aI3
aI13625
aI116
aI63765
asg6
S'The grandfather described the rocket as about one meter in length  According to Human Rights Watch extermination the diameter of the pipe is 120&nbsp;mm .'
p11
ss.