(dp1
S'input'
p2
(dp3
S'encoded'
p4
(lp5
I64
aI2179
aI43
aI63
aI11083
aI10046
aI417
aI316
aI89
aI3135
aI4603
asS'ori'
p6
S'This house believes that Holocaust denial should be a criminal offence'
p7
ssS'output'
p8
(dp9
g4
(lp10
I11083
aI7086
aI2204
aI9798
aI12217
aI48028
aI55
aI418
aI63
aI26
aI116
aI41
aI1102
aI41
aI89
aI8277
aI3031
aI55
aI1978
aI2118
aI45
aI2892
aI11083
aI10046
aI63765
asg6
S"Holocaust expert Robert Jan van Pelt has noted that Mayer's book is as close as a mainstream historian has ever come to supporting Holocaust denial  ."
p11
ss.