(dp1
S'input'
p2
(dp3
S'encoded'
p4
(lp5
I64
aI2179
aI43
aI63
aI3
aI21
aI45
aI12715
aI417
aI99
aI316
aI2897
asS'ori'
p6
S'This house believes that the right to asylum should not be absolute'
p7
ssS'output'
p8
(dp9
g4
(lp10
I53
aI3249
aI7259
aI182
aI10905
aI24
aI51
aI2419
aI45
aI8174
aI7582
aI3243
aI246
aI3742
aI45
aI951
aI3
aI2568
aI7
aI120
aI713
aI131
aI1453
aI11
aI77
aI2280
aI7
aI9107
aI5
aI88
aI3322
aI12333
aI45
aI6898
aI14934
aI63765
asg6
S'Where private addresses are visited in an effort to trace offenders officers generally seek to gain the cooperation of those present but do have certain powers of entry and may obtain warrants to search premises .'
p11
ss.