(dp1
S'input'
p2
(dp3
S'encoded'
p4
(lp5
I64
aI2179
aI394
aI117
aI7428
aI21151
aI34
aI11389
aI2042
aI24
aI4364
asS'ori'
p6
S'This house would only teach abstinence for sex education in schools'
p7
ssS'output'
p8
(dp9
g4
(lp10
I3495
aI81
aI373
aI3534
aI24
aI271
aI17092
aI4230
aI19
aI4913
aI75
aI271
aI481
aI5
aI320
aI45
aI3222
aI7517
aI226
aI11606
aI3495
aI81
aI16566
aI45
aI1199
aI15531
aI382
aI637
aI20667
aI311
aI3900
aI11837
aI271
aI5615
aI3862
aI11225
aI588
aI4142
aI136
aI24
aI6329
aI138
aI155
aI440
aI8218
aI24
aI9
aI63765
asg6
S'Women who became mothers in their teens  freed from child-raising duties by their late 20s and early 30s to pursue employment while poorer women who waited to become moms were still stuck at home watching their young children  wound up paying more in taxes than they had collected in welfare  .'
p11
ss.