(dp1
S'input'
p2
(dp3
S'encoded'
p4
(lp5
I64
aI2179
aI43
aI63
aI2659
aI417
aI1690
aI3
aI12048
aI7
aI19084
asS'ori'
p6
S'This house believes that Israel should lift the blockade of Gaza'
p7
ssS'output'
p8
(dp9
g4
(lp10
I260
aI174
aI2820
aI2659
aI99
aI45
aI84
aI351
aI3364
aI63
aI463
aI652
aI78
aI19363
aI3
aI19190
aI19195
aI19196
aI92
aI394
aI1378
aI211
aI2144
aI63765
asg6
S'" Malaysia\'s government also urged Israel not to take any action that could harm people aboard the Malaysian-funded MV Rachel Corrie which would carry its citizens .'
p11
ss.