(dp1
S'input'
p2
(dp3
S'encoded'
p4
(lp5
I64
aI2179
aI43
aI223
aI2138
aI11
aI89
aI21
aI45
aI2185
aI372
asS'ori'
p6
S'This house believes all nations have a right to nuclear weapons'
p7
ssS'output'
p8
(dp9
g4
(lp10
I311
aI3
aI413
aI93
aI7
aI3
aI11773
aI4338
aI4678
aI122
aI3
aI2546
aI10751
aI459
aI93
aI11775
aI63765
asg6
S"At the time  K-25  one of the Oak Ridge facilities  was the world's largest factory under one roof ."
p11
ss.