(dp1
S'input'
p2
(dp3
S'encoded'
p4
(lp5
I64
aI2179
aI394
aI16756
aI20435
asS'ori'
p6
S'This house would criminalize blasphemy'
p7
ssS'output'
p8
(dp9
g4
(lp10
I3
aI692
aI7
aI20589
aI14852
aI7
aI3
aI2763
aI9735
aI1075
aI24
aI3
aI6880
aI883
aI14
aI2555
aI2425
aI45
aI2617
aI10104
aI5317
aI5
aI2196
aI1191
aI3
aI2283
aI7
aI1260
aI2381
aI5
aI3
aI238
aI7
aI5786
aI24
aI3
aI3912
aI63765
asg6
S'The publication of satirical cartoons of the Islamic prophet Muhammad in the Danish newspaper Jyllands-Posten on September 30  2005 led to violence  arrests  inter-governmental tensions  and debate about the scope of free speech and the place of Muslims in the West .'
p11
ss.