(dp1
S'input'
p2
(dp3
S'encoded'
p4
(lp5
I64
aI2179
aI394
aI2017
aI628
asS'ori'
p6
S'This house would ban gambling'
p7
ssS'output'
p8
(dp9
g4
(lp10
I14758
aI366
aI14759
aI14725
aI14760
aI1760
aI89
aI2823
aI63
aI8497
aI89
aI1039
aI63765
asg6
S'Modeled after Alcoholics Anonymous  GA uses a 12-step model that emphasizes a mutual-support approach .'
p11
ss.