(dp1
S'input'
p2
(dp3
S'encoded'
p4
(lp5
I64
aI2179
aI394
aI5370
aI7146
aI4585
aI2446
asS'ori'
p6
S'This house would abolish intellectual property rights'
p7
ssS'output'
p8
(dp9
g4
(lp10
I64
aI1735
aI3
aI1926
aI45
aI8954
aI2352
aI19
aI4295
aI3
aI3688
aI5
aI88
aI501
aI5826
aI45
aI2723
aI604
aI42
aI73
aI3313
aI88
aI4574
aI45
aI99
aI9041
aI89
aI6703
aI22913
aI34
aI3
aI3688
aI63765
asg6
S'This allows the inventor to accumulate capital from licensing the invention and may allow innovation to occur because he or she may choose to not manage a manufacturing buildup for the invention .'
p11
ss.