(dp1
S'input'
p2
(dp3
S'encoded'
p4
(lp5
I64
aI2179
aI43
aI8629
aI116
aI3
aI117
aI998
asS'ori'
p6
S'This house believes atheism is the only way'
p7
ssS'output'
p8
(dp9
g4
(lp10
I155
aI373
aI2716
aI311
aI8611
aI5
aI1592
aI1012
aI24
aI8301
aI3470
aI25
aI22333
aI5
aI10725
aI89
aI5344
aI11091
aI3987
aI63765
asg6
S"They became friends at Oxford and following Hamilton's death in 2000  Dawkins wrote his obituary and organised a secular memorial service  ."
p11
ss.