(dp1
S'input'
p2
(dp3
S'encoded'
p4
(lp5
I64
aI2179
aI394
aI1499
aI3
aI8115
aI34564
aI17106
asS'ori'
p6
S'This house would build the Keystone XL pipeline'
p7
ssS'output'
p8
(dp9
g4
(lp10
I162
aI24
aI45623
aI273
aI116
aI443
aI959
aI6080
aI291
aI3
aI384
aI2885
aI63765
asg6
S'Usually in multi-product pipelines there is no physical separation between the different products .'
p11
ss.