(dp1
S'input'
p2
(dp3
S'encoded'
p4
(lp5
I64
aI2179
aI394
aI2741
aI3
aI1560
aI6025
aI2784
asS'ori'
p6
S'This house would pass the American Jobs Act'
p7
ssS'output'
p8
(dp9
g4
(lp10
I174
aI3
aI2145
aI63765
aI196
aI2994
aI394
aI316
aI311
aI870
aI166
aI257
aI12418
aI5
aI12415
aI18252
aI382
aI925
aI63765
asg6
S'Also  the U .S . unemployment rate would be at least 2% higher if prisoners and jail inmates were counted  .'
p11
ss.