(dp1
S'input'
p2
(dp3
S'encoded'
p4
(lp5
I64
aI2179
aI43
aI63
aI134
aI116
aI400
aI21
aI34
aI3
aI260
aI45
aI3439
aI57
aI7
aI2381
asS'ori'
p6
S'This house believes that it is sometimes right for the government to restrict freedom of speech'
p7
ssS'output'
p8
(dp9
g4
(lp10
I57
aI7
aI2961
aI116
aI14670
aI19
aI3
aI3500
aI7
aI3
aI2475
aI63765
asg6
S'Freedom of press is implied from the Article 19(1)(a) of the Constitution .'
p11
ss.