(dp1
S'input'
p2
(dp3
S'encoded'
p4
(lp5
I64
aI2179
aI43
aI63
aI3
aI4538
aI7
aI4434
aI7793
aI283
aI45
aI3586
aI417
aI316
aI577
asS'ori'
p6
S'This house believes that the sale of violent video games to minors should be banned'
p7
ssS'output'
p8
(dp9
g4
(lp10
I89
aI1445
aI696
aI7
aI3424
aI32032
aI4037
aI49194
aI89
aI3258
aI319
aI153
aI19708
aI311
aI3
aI1643
aI413
aI45
aI2572
aI3
aI7693
aI5136
aI63765
asg6
S'A large number of summer blockbuster films spawn a companion game  often launching at the same time to share the marketing costs .'
p11
ss.