(dp1
S'input'
p2
(dp3
S'encoded'
p4
(lp5
I64
aI2179
aI394
aI5284
aI150
aI3987
asS'ori'
p6
S'This house would reintroduce national service'
p7
ssS'output'
p8
(dp9
g4
(lp10
I42
aI55
aI485
aI89
aI2544
aI7
aI3
aI15677
aI1978
aI691
aI63765
asg6
S'He has remained a member of the caucus ever since .'
p11
ss.