(dp1
S'input'
p2
(dp3
S'encoded'
p4
(lp5
I64
aI2179
aI235
aI3
aI2136
aI7
aI3
aI2306
aI7
aI2390
asS'ori'
p6
S'This house supports the one-child policy of the republic of China'
p7
ssS'output'
p8
(dp9
g4
(lp10
I273
aI182
aI8026
aI7485
aI4607
aI24
aI1370
aI45
aI464
aI3
aI696
aI7
aI2767
aI78
aI5155
aI41
aI261
aI41
aI4607
aI6582
aI45
aI2390
aI63765
asg6
S'There are intrinsic logistical difficulties in trying to count the number of religious people anywhere  as well as difficulties peculiar to China .'
p11
ss.