(dp1
S'input'
p2
(dp3
S'encoded'
p4
(lp5
I64
aI2179
aI43
aI17
aI4941
aI857
aI3211
asS'ori'
p6
S'This house believes social deprivation causes crime'
p7
ssS'output'
p8
(dp9
g4
(lp10
I17
aI2513
aI3168
aI116
aI6879
aI14
aI89
aI16723
aI126
aI63765
asg6
S'Social Conflict theory is studied on a Macro level .'
p11
ss.