(dp1
S'input'
p2
(dp3
S'encoded'
p4
(lp5
I64
aI2179
aI394
aI4325
aI2042
aI270
aI89
aI11605
aI3324
asS'ori'
p6
S'This house would fund education using a voucher scheme'
p7
ssS'output'
p8
(dp9
g4
(lp10
I51826
aI394
aI48
aI3
aI2206
aI864
aI7
aI3
aI874
aI1560
aI5
aI3
aI2609
aI875
aI1260
aI2258
aI2361
aI63765
asg6
S'|-valign="top" Baldwin would lead the US out of the North American and the Central America Free Trade Agreements  .'
p11
ss.