(dp1
S'input'
p2
(dp3
S'encoded'
p4
(lp5
I64
aI2179
aI394
aI2976
aI12243
aI24
aI954
aI126
aI1560
aI10723
asS'ori'
p6
S'This house would implement playoffs in collegiate level American football'
p7
ssS'output'
p8
(dp9
g4
(lp10
I2296
aI174
aI2933
aI223
aI131
aI93
aI7
aI3
aI5561
aI24
aI3
aI5563
aI566
aI2961
aI3713
aI248
aI461
aI45
aI34957
aI10
aI81
aI6335
aI3
aI34959
aI20731
aI289
aI63765
asg6
S'Florida also received all but one of the 65 first-place votes in the final Associated Press poll (the other went to Boise State  who won the Fiesta Bowl over Oklahoma) .'
p11
ss.