(dp1
S'input'
p2
(dp3
S'encoded'
p4
(lp5
I64
aI2179
aI394
aI5370
aI3
aI5286
asS'ori'
p6
S'This house would abolish the monarchy'
p7
ssS'output'
p8
(dp9
g4
(lp10
I725
aI1565
aI5794
aI625
aI3
aI658
aI4640
aI7
aI3151
aI3293
aI5
aI3
aI3151
aI14229
aI2586
aI38460
aI116
aI38461
aI323
aI3526
aI63
aI6243
aI2263
aI34
aI271
aI24052
aI63765
asg6
S'Many European monarchies outlawed the public expression of communist views  and the Communist Manifesto began "A spectre is haunting Europe " suggesting that monarchs feared for their thrones .'
p11
ss.