(dp1
S'input'
p2
(dp3
S'encoded'
p4
(lp5
I64
aI2179
aI43
aI63
aI187
aI417
aI99
aI16642
aI3
aI6449
aI7
aI3935
asS'ori'
p6
S'This house believes that states should not subsidize the growing of tobacco'
p7
ssS'output'
p8
(dp9
g4
(lp10
I3
aI281
aI14815
aI14170
aI11
aI136
aI138
aI7557
aI3
aI696
aI7
aI9257
aI6722
aI24
aI3
aI1447
aI2439
aI63765
asg6
S'The major cigarette manufacturers have more than tripled the number of cigarettes exported in the last 35 years  .'
p11
ss.