(dp1
S'input'
p2
(dp3
S'encoded'
p4
(lp5
I64
aI2179
aI394
aI1499
aI177
aI1819
aI34
aI160
asS'ori'
p6
S'This house would build high rises for housing'
p7
ssS'output'
p8
(dp9
g4
(lp10
I251
aI60
aI3
aI3665
aI48
aI45
aI24489
aI734
aI24
aI5
aI273
aI116
aI2056
aI443
aI350
aI7
aI271
aI3524
aI63765
asg6
S'Long-term problems with the steel-frame structure lead to demolition  beginning in 1978 and there is now no evidence of their existence .'
p11
ss.