(dp1
S'input'
p2
(dp3
S'encoded'
p4
(lp5
I64
aI2179
aI43
aI63
aI134
aI116
aI400
aI21
aI34
aI3
aI260
aI45
aI3439
aI57
aI7
aI2381
asS'ori'
p6
S'This house believes that it is sometimes right for the government to restrict freedom of speech'
p7
ssS'output'
p8
(dp9
g4
(lp10
I273
aI182
aI100
aI708
aI2825
aI63
aI686
aI777
aI45
aI1292
aI773
aI4200
aI75
aI3
aI260
aI159
aI3
aI2023
aI2016
aI7
aI25631
aI3
aI7050
aI2961
aI2132
aI8090
aI956
aI5
aI5583
aI3136
aI63765
asg6
S'There are some inter-media control institutions that regulate themselves to avoid being regulated by the government such as: The Canadian Association of Broadcasters  the Ontario Press Council  publishes associations  and advertising groups .'
p11
ss.