(dp1
S'input'
p2
(dp3
S'encoded'
p4
(lp5
I64
aI2179
aI43
aI63
aI3376
aI4938
aI417
aI316
aI3537
asS'ori'
p6
S'This house believes that endangered species should be protected'
p7
ssS'output'
p8
(dp9
g4
(lp10
I174
aI3
aI2598
aI7
aI4368
aI18854
aI1343
aI5
aI3
aI16456
aI4938
aI139
aI316
aI508
aI3
aI16
aI852
aI2425
aI75
aI3
aI16456
aI4938
aI5
aI18854
aI139
aI316
aI1016
aI63765
asg6
S'Also  the population of disease vectors (for example  mosquitoes) and the invasive species can be controlled; thus  the economic loss led by the invasive species and vectors can be reduced .'
p11
ss.