(dp1
S'input'
p2
(dp3
S'encoded'
p4
(lp5
I64
aI2179
aI43
aI63
aI17574
aI417
aI316
aI3481
aI34
aI271
aI79
asS'ori'
p6
S'This house believes that housewives should be paid for their work'
p7
ssS'output'
p8
(dp9
g4
(lp10
I89
aI1950
aI3661
aI418
aI2286
aI64
aI4740
aI116
aI3
aI13707
aI7
aI17617
aI967
aI5989
aI63765
asg6
S'A second problem noted concerning this topic is the unease of comparability across societies .'
p11
ss.