(dp1
S'input'
p2
(dp3
S'encoded'
p4
(lp5
I64
aI2179
aI394
aI15841
aI2736
asS'ori'
p6
S'This house would disband ASEAN'
p7
ssS'output'
p8
(dp9
g4
(lp10
I134
aI122
aI89
aI1654
aI588
aI45
aI3
aI2603
aI753
aI24
aI425
aI751
aI63765
asg6
S'It was a follow up to the agreement reached in January before  .'
p11
ss.