(dp1
S'input'
p2
(dp3
S'encoded'
p4
(lp5
I64
aI2179
aI43
aI63
aI2659
aI417
aI1690
aI3
aI12048
aI7
aI19084
asS'ori'
p6
S'This house believes that Israel should lift the blockade of Gaza'
p7
ssS'output'
p8
(dp9
g4
(lp10
I567
aI3010
aI1560
aI2203
aI5523
aI6056
aI5010
aI3117
aI2452
aI6077
aI942
aI3120
aI2299
aI8722
aI3125
aI3126
aI16665
aI5
aI3127
aI63765
asg6
S'Twelve Latin American countries condemned Israeli actions: Argentina  Bolivia  Brazil  Chile  Cuba  Ecuador  Mexico  Nicaragua  Paraguay  Peru  Uruguay and Venezuela .'
p11
ss.