(dp1
S'input'
p2
(dp3
S'encoded'
p4
(lp5
I64
aI2179
aI43
aI63
aI3
aI4990
aI4991
aI116
aI4850
aI24
aI12166
aI3
aI475
aI7
aI3532
aI3290
aI7
aI4714
asS'ori'
p6
S'This house believes that the Catholic Church is justified in forbidding the use of barrier methods of contraception'
p7
ssS'output'
p8
(dp9
g4
(lp10
I24
aI89
aI4915
aI8367
aI3274
aI3
aI4059
aI21152
aI1442
aI89
aI4229
aI5973
aI63
aI134
aI122
aI1796
aI138
aI89
aI3440
aI21152
aI92
aI2322
aI3
aI33221
aI5933
aI5
aI593
aI9676
aI8803
aI952
aI34
aI3495
aI63765
asg6
S'In a double blind test the boosting condom gave a significant proportion that it was better than a standard condom which increased the penis size and longer lasting sexual experience for women .'
p11
ss.