(dp1
S'input'
p2
(dp3
S'encoded'
p4
(lp5
I64
aI2179
aI43
aI63
aI6670
aI546
aI417
aI316
aI89
aI1334
aI3108
aI7
aI4849
aI1886
aI2855
asS'ori'
p6
S'This house believes that wind power should be a primary focus of future energy supply'
p7
ssS'output'
p8
(dp9
g4
(lp10
I725
aI8995
aI16846
aI14
aI755
aI73
aI99
aI6670
aI55
aI351
aI252
aI2166
aI61
aI155
aI4979
aI75
aI64
aI5
aI211
aI15593
aI63765
asg6
S'Many commentators concentrate on whether or not wind has any "capacity credit" without defining what they mean by this and its relevance .'
p11
ss.