(dp1
S'input'
p2
(dp3
S'encoded'
p4
(lp5
I64
aI2179
aI43
aI24
aI3
aI475
aI7
aI12436
aI3364
asS'ori'
p6
S'This house believes in the use of affirmative action'
p7
ssS'output'
p8
(dp9
g4
(lp10
I134
aI174
aI2745
aI51
aI2175
aI7
aI3364
aI34
aI4300
aI51
aI312
aI45
aI63765
asg6
S'It also establishes an agenda of action for putting an end to sex-based discrimination:  .'
p11
ss.