(dp1
S'input'
p2
(dp3
S'encoded'
p4
(lp5
I64
aI2179
aI394
aI2773
aI12505
asS'ori'
p6
S'This house would embrace multiculturalism'
p7
ssS'output'
p8
(dp9
g4
(lp10
I604
aI7
aI64
aI2637
aI8713
aI116
aI400
aI4415
aI7919
aI5
aI55
aI12
aI263
aI7300
asg6
S'Because of this  cultural appropriation is sometimes viewed negatively  and has been called "cultural theft ."'
p11
ss.