(dp1
S'input'
p2
(dp3
S'encoded'
p4
(lp5
I64
aI2179
aI394
aI2741
aI3
aI1560
aI6025
aI2784
asS'ori'
p6
S'This house would pass the American Jobs Act'
p7
ssS'output'
p8
(dp9
g4
(lp10
I3
aI14467
aI34
aI3
aI3016
aI2605
aI45
aI32004
aI311
aI838
aI7517
aI41
aI89
aI296
aI63765
asg6
S'The curve for the no-shirking condition (labeled NSC) goes to infinity at full employment as a result .'
p11
ss.