(dp1
S'input'
p2
(dp3
S'encoded'
p4
(lp5
I64
aI2179
aI43
aI223
aI2138
aI11
aI89
aI21
aI45
aI2185
aI372
asS'ori'
p6
S'This house believes all nations have a right to nuclear weapons'
p7
ssS'output'
p8
(dp9
g4
(lp10
I3500
aI10501
aI1735
aI89
aI10
aI45
aI4680
aI3
aI2268
aI257
aI2120
aI3365
aI45
aI3
aI2195
aI829
aI7
aI64
aI2268
aI11
aI43613
aI3
aI2482
aI2444
aI7
aI211
aI1710
aI292
aI4149
aI63765
asg6
S'Article X allows a state to leave the treaty if "extraordinary events  related to the subject matter of this Treaty  have jeopardized the supreme interests of its country"  giving three months\' (ninety days\') notice .'
p11
ss.