(dp1
S'input'
p2
(dp3
S'encoded'
p4
(lp5
I64
aI2179
aI394
aI4261
aI8667
aI3
aI9361
aI5
aI17069
asS'ori'
p6
S'This house would prohibit burning the stars and stripes'
p7
ssS'output'
p8
(dp9
g4
(lp10
I89
aI19854
aI10874
aI158
aI1237
aI8778
aI7
aI3
aI2503
aI3933
aI7
aI9359
aI2423
aI3
aI2117
aI63765
asg6
S'A sizable crowd  including several agents of the Federal Bureau of Investigation  witnessed the event .'
p11
ss.