(dp1
S'input'
p2
(dp3
S'encoded'
p4
(lp5
I64
aI2179
aI394
aI16642
aI1376
aI5269
asS'ori'
p6
S'This house would subsidize poor communities'
p7
ssS'output'
p8
(dp9
g4
(lp10
I119
aI2154
aI19051
aI47
aI1817
aI1358
aI3
aI14774
aI7
aI934
aI2914
aI256
aI63765
asg6
S'Available budget allocations will greatly determine the efficacy of safety net programs .'
p11
ss.