(dp1
S'input'
p2
(dp3
S'encoded'
p4
(lp5
I64
aI2179
aI43
aI63
aI134
aI116
aI400
aI21
aI34
aI3
aI260
aI45
aI3439
aI57
aI7
aI2381
asS'ori'
p6
S'This house believes that it is sometimes right for the government to restrict freedom of speech'
p7
ssS'output'
p8
(dp9
g4
(lp10
I3
aI2196
aI122
aI755
aI16
aI5
aI17
aI2446
aI182
aI24729
aI41
aI6428
aI60
aI125
aI2445
aI2446
aI92
aI223
aI78
aI1897
aI10985
aI75
aI773
aI2445
aI604
aI16
aI5
aI17
aI2446
aI5114
aI14
aI3064
aI5
aI3
aI3891
aI7
aI2635
aI63765
asg6
S'The debate was whether economic and social rights are aspirational  as contrasted with basic human rights which all people possess purely by being human  because economic and social rights depend on wealth and the availability of resources .'
p11
ss.