(dp1
S'input'
p2
(dp3
S'encoded'
p4
(lp5
I64
aI2179
aI43
aI8629
aI116
aI3
aI117
aI998
asS'ori'
p6
S'This house believes atheism is the only way'
p7
ssS'output'
p8
(dp9
g4
(lp10
I24
aI64
aI234
aI3
aI4359
aI1160
aI7
aI351
aI3177
aI6987
aI19
aI3
aI11463
aI7
aI3
aI18504
aI7624
aI35
aI2120
aI32
aI3707
aI3
aI2486
aI7740
aI24
aI3
aI35
aI285
aI63765
asg6
S'In this view  the perceived lack of any empirical footprint from the magisterium of the supernatural onto natural events makes science the sole player in the natural world  .'
p11
ss.