(dp1
S'input'
p2
(dp3
S'encoded'
p4
(lp5
I64
aI2179
aI394
aI117
aI7428
aI21151
aI34
aI11389
aI2042
aI24
aI4364
asS'ori'
p6
S'This house would only teach abstinence for sex education in schools'
p7
ssS'output'
p8
(dp9
g4
(lp10
I725
aI3314
aI17092
aI182
aI2195
aI45
aI12988
aI5897
aI19
aI1376
aI11953
aI15498
aI279
aI24
aI5030
aI158
aI44
aI45
aI523
aI444
aI620
aI49657
aI33947
aI16385
aI3964
aI51035
aI51036
aI5
aI2835
aI7
aI1167
aI3964
aI63765
asg6
S'Many pregnant teens are subject to nutritional deficiencies from poor eating habits common in adolescence  including attempts to lose weight through dieting  skipping meals  food faddism  snacking  and consumption of fast food  .'
p11
ss.