(dp1
S'input'
p2
(dp3
S'encoded'
p4
(lp5
I64
aI2179
aI394
aI5284
aI150
aI3987
asS'ori'
p6
S'This house would reintroduce national service'
p7
ssS'output'
p8
(dp9
g4
(lp10
I5259
aI122
aI973
aI89
aI15679
aI3780
aI34
aI25
aI11186
aI3
aI13423
aI13309
aI60
aI15743
aI34
aI25
aI3089
aI24
aI3
aI619
aI7
aI1012
aI5
aI292
aI4148
aI9361
aI63765
asg6
S'Rangel was awarded a Purple Heart for his wounds  the Bronze Star with Valor for his actions in the face of death  and three battle stars  .'
p11
ss.