(dp1
S'input'
p2
(dp3
S'encoded'
p4
(lp5
I64
aI2179
aI394
aI117
aI7428
aI21151
aI34
aI11389
aI2042
aI24
aI4364
asS'ori'
p6
S'This house would only teach abstinence for sex education in schools'
p7
ssS'output'
p8
(dp9
g4
(lp10
I7447
aI19749
aI8578
aI47
aI9012
aI89
aI10722
aI324
aI89
aI7447
aI15856
aI10722
aI34
aI22604
aI5
aI5612
aI7
aI54758
aI5
aI42
aI785
aI675
aI89
aI5240
aI15820
aI5
aI768
aI3313
aI13155
aI86
aI589
aI63765
asg6
S'Sexually predatory girls will ask a boy  particularly a sexually naive boy  for photos  and "he\'s sort of flattered and he feels like a big guy and then she sends them around .'
p11
ss.