(dp1
S'input'
p2
(dp3
S'encoded'
p4
(lp5
I64
aI2179
aI394
aI2773
aI12505
asS'ori'
p6
S'This house would embrace multiculturalism'
p7
ssS'output'
p8
(dp9
g4
(lp10
I7
aI2652
aI2639
aI6049
aI3281
aI24
aI10120
aI8486
aI31287
aI63765
asg6
S"25% of London's seven million residents live in religiously segregated neighbourhoods  ."
p11
ss.