(dp1
S'input'
p2
(dp3
S'encoded'
p4
(lp5
I64
aI2179
aI43
aI63
aI2157
aI2565
aI493
aI19084
aI382
aI4850
asS'ori'
p6
S"This house believes that Israel's 2008-2009 military operations against Gaza were justified"
p7
ssS'output'
p8
(dp9
g4
(lp10
I27108
aI878
aI2173
aI63
aI11994
aI736
aI2224
aI2506
aI60
aI3
aI804
aI45
aI652
aI5
aI34674
aI17225
aI55
aI443
aI3566
aI8349
aI917
aI7
aI3089
aI24
aI63765
asg6
S'HRW official stated that "firing rockets into civilian areas with the intent to harm and terrorize Israelis has no justification whatsoever  regardless of Israel\'s actions in Gaza"  .'
p11
ss.