(dp1
S'input'
p2
(dp3
S'encoded'
p4
(lp5
I64
aI2179
aI43
aI63
aI3
aI21
aI45
aI12715
aI417
aI99
aI316
aI2897
asS'ori'
p6
S'This house believes that the right to asylum should not be absolute'
p7
ssS'output'
p8
(dp9
g4
(lp10
I159
aI3052
aI1074
aI3
aI18553
aI2646
aI28954
aI5
aI28955
aI3162
aI995
aI3
aI11941
aI7
aI28956
aI3
aI9743
aI24
aI2390
aI5
aI2450
aI5
aI3
aI6431
aI6619
aI397
aI3
aI2589
aI639
aI159
aI41
aI3
aI28957
aI28958
aI6615
aI7102
aI63765
asg6
S'Such cases include the Romans  Asian Bulgarians and Slavic populations dominating the natives of Thrace  the Mongols in China and India  and the Germanic peoples during the migration period such as the Visigoths  Ostrogoths  Franks  etc .'
p11
ss.