(dp1
S'input'
p2
(dp3
S'encoded'
p4
(lp5
I64
aI2179
aI394
aI16756
aI20435
asS'ori'
p6
S'This house would criminalize blasphemy'
p7
ssS'output'
p8
(dp9
g4
(lp10
I3
aI6011
aI8451
aI7
aI35781
aI10693
aI3
aI4035
aI3270
aI63
aI134
aI62943
aI5714
aI5
aI3
aI63765
asg6
S"The Grand Mufti of Kyrgyzstan denounced the film  saying that it defames Islam and the Qur'an ."
p11
ss.