(dp1
S'input'
p2
(dp3
S'encoded'
p4
(lp5
I64
aI2179
aI394
aI475
aI2135
aI2194
aI6198
aI45
aI2041
aI5
aI13926
aI8732
aI63
aI1735
aI12708
aI5
aI5599
aI24
aI2203
aI45
aI1397
aI7149
aI5
aI12311
aI271
aI5119
aI4948
asS'ori'
p6
S'This house would use foreign aid funds to research and distribute software that allows bloggers and journalists in non-democratic countries to evade censorship and conceal their online activities'
p7
ssS'output'
p8
(dp9
g4
(lp10
I3968
aI257
aI89
aI3130
aI60814
aI3968
aI116
aI7372
aI75
aI3
aI11679
aI4849
aI3968
aI44
aI19
aI15
aI1249
aI139
aI174
aI316
aI7372
aI34
aI100
aI5194
aI532
aI7
aI413
aI63765
asg6
S'Connection reset: If a previous TCP connection is blocked by the filter  future connection attempts from both sides can also be blocked for some variable amount of time .'
p11
ss.