(dp1
S'input'
p2
(dp3
S'encoded'
p4
(lp5
I64
aI2179
aI235
aI3
aI2136
aI7
aI3
aI2306
aI7
aI2390
asS'ori'
p6
S'This house supports the one-child policy of the republic of China'
p7
ssS'output'
p8
(dp9
g4
(lp10
I8641
aI7
aI875
aI8561
aI2985
aI81
aI186
aI63
aI134
aI8083
aI45
aI5175
aI3433
asg6
S'Voice of America cites critics who argue that it contributes to forced abortions'
p11
ss.