(dp1
S'input'
p2
(dp3
S'encoded'
p4
(lp5
I64
aI2179
aI43
aI63
aI323
aI417
aI10009
aI211
aI9035
aI249
aI45
aI3426
aI211
aI2144
aI595
aI17
aI96
asS'ori'
p6
S'This house believes that Europe should weaken its austerity measures to guarantee its citizens greater social support'
p7
ssS'output'
p8
(dp9
g4
(lp10
I9306
aI3
aI250
aI14
aI3
aI9284
aI7337
aI534
aI75
aI3
aI9240
aI41
aI89
aI3016
aI34
aI6926
aI136
aI2194
aI6282
aI330
aI24
aI320
aI60
aI9307
aI6198
aI773
aI3
aI217
aI330
aI45
aI9157
aI63765
asg6
S'Finalising the deal on the 50% PSI debt write-off  required by the troika as a condition for extending more aid  proved difficult in early 2012  with hedge funds being the most difficult to persuade  .'
p11
ss.