(dp1
S'input'
p2
(dp3
S'encoded'
p4
(lp5
I64
aI2179
aI43
aI63
aI11083
aI10046
aI417
aI316
aI89
aI3135
aI4603
asS'ori'
p6
S'This house believes that Holocaust denial should be a criminal offence'
p7
ssS'output'
p8
(dp9
g4
(lp10
I24
aI2670
aI24
aI3
aI2763
aI9801
aI48038
aI16965
aI8060
aI5806
aI7
aI18211
aI7
aI89
aI26
aI92
aI122
aI6859
aI480
aI3
aI3130
aI3569
aI3234
aI48039
aI48040
aI11083
aI5
aI34168
aI10558
aI4719
aI45
aI1560
aI5
aI1565
aI4364
aI5
aI10275
aI63765
asg6
S'In Turkey  in 1996  the Islamic preacher Harun Yahya distributed thousands of copies of a book which was originally published the previous year  entitled Soykrm Yalan ("The Holocaust Lie") and mailed unsolicited texts to American and European schools and colleges  .'
p11
ss.