(dp1
S'input'
p2
(dp3
S'encoded'
p4
(lp5
I64
aI2179
aI43
aI8629
aI116
aI3
aI117
aI998
asS'ori'
p6
S'This house believes atheism is the only way'
p7
ssS'output'
p8
(dp9
g4
(lp10
I34
aI1343
aI15359
aI51
aI2514
aI116
aI1352
aI138
aI15359
aI89
aI12179
aI5
aI77
aI3292
aI2747
aI159
aI41
aI3711
aI34
aI22527
aI116
aI182
aI246
aI1058
aI41
aI68
aI63765
asg6
S'For example  expressing an obligation is stronger than expressing a preference  and certain moral principles  such as "torturing babies for fun is wrong"  are generally regarded as fact  .'
p11
ss.