(dp1
S'input'
p2
(dp3
S'encoded'
p4
(lp5
I64
aI2179
aI394
aI5370
aI223
aI4013
aI10440
aI2446
aI4881
aI75
aI14482
aI11004
asS'ori'
p6
S'This house would abolish all collective bargaining rights claimed by trades unions'
p7
ssS'output'
p8
(dp9
g4
(lp10
I508
aI2131
aI11794
aI146
aI89
aI1777
aI10486
aI7
aI2131
aI3834
aI134
aI98
aI99
aI404
aI34
aI3
aI26052
aI63
aI24
aI100
aI2203
aI174
aI725
aI4224
aI459
aI2042
aI725
aI178
aI4224
aI725
aI3388
aI4224
aI725
aI4224
aI81
aI440
aI45
aI4680
aI79
aI1021
aI45
aI5954
aI772
aI88
aI174
aI316
aI2131
aI2789
aI63765
asg6
S'Thus  union density provides a rough picture of union membership only; it does not account for the circumstance that in some countries  also many persons under education  many unemployed persons  many retired persons and/or many persons who had to leave work due to occupational injuries may also be union members .'
p11
ss.