(dp1
S'input'
p2
(dp3
S'encoded'
p4
(lp5
I64
aI2179
aI43
aI63
aI6670
aI546
aI417
aI316
aI89
aI1334
aI3108
aI7
aI4849
aI1886
aI2855
asS'ori'
p6
S'This house believes that wind power should be a primary focus of future energy supply'
p7
ssS'output'
p8
(dp9
g4
(lp10
I24
aI36780
aI6335
aI89
aI260
aI1458
aI45
aI1199
aI89
aI2823
aI6844
aI1886
aI2178
aI63765
asg6
S'In 1997  Sams won a government competition to become a model renewable energy community .'
p11
ss.