(dp1
S'input'
p2
(dp3
S'encoded'
p4
(lp5
I64
aI2179
aI43
aI63
aI6670
aI546
aI417
aI316
aI89
aI1334
aI3108
aI7
aI4849
aI1886
aI2855
asS'ori'
p6
S'This house believes that wind power should be a primary focus of future energy supply'
p7
ssS'output'
p8
(dp9
g4
(lp10
I89
aI1103
aI7
aI31343
aI6819
aI3229
aI5
aI39274
aI182
aI416
aI45
aI1049
aI89
aI1299
aI3142
aI7
aI2881
aI63765
asg6
S'A combination of sub-stations  transformers  towers  cables  and piping are used to maintain a constant flow of electricity .'
p11
ss.