(dp1
S'input'
p2
(dp3
S'encoded'
p4
(lp5
I64
aI2179
aI394
aI16756
aI20435
asS'ori'
p6
S'This house would criminalize blasphemy'
p7
ssS'output'
p8
(dp9
g4
(lp10
I5711
aI8641
aI1964
aI45
aI11
aI64
aI2528
aI3853
aI75
aI3
aI177
aI2483
aI131
aI3
aI3393
aI122
aI2493
aI63765
asg6
S'Christian Voice applied to have this ruling overturned by the High Court  but the application was rejected .'
p11
ss.