(dp1
S'input'
p2
(dp3
S'encoded'
p4
(lp5
I64
aI2179
aI43
aI63
aI820
aI12564
aI182
aI3
aI217
aI1112
aI1869
aI7
aI10656
aI4672
aI34
aI5276
asS'ori'
p6
S'This house believes that open primaries are the most effective method of selecting candidates for elections'
p7
ssS'output'
p8
(dp9
g4
(lp10
I3
aI3303
aI816
aI1334
aI70
aI4275
aI24
aI351
aI22
aI171
aI1334
aI45
aI316
aI4384
aI2789
aI7
aI63
aI171
aI63765
asg6
S'The Connecticut closed primary law [required] voters in any political party primary to be registered members of that party .'
p11
ss.