(dp1
S'input'
p2
(dp3
S'encoded'
p4
(lp5
I64
aI2179
aI43
aI63
aI2659
aI417
aI1690
aI3
aI12048
aI7
aI19084
asS'ori'
p6
S'This house believes that Israel should lift the blockade of Gaza'
p7
ssS'output'
p8
(dp9
g4
(lp10
I2659
aI5
aI2657
aI174
aI708
aI3
aI3142
aI7
aI7500
aI24
aI5
aI864
aI63765
asg6
S'Israel and Egypt also control the flow of goods in and out .'
p11
ss.