(dp1
S'input'
p2
(dp3
S'encoded'
p4
(lp5
I64
aI2179
aI43
aI223
aI2138
aI11
aI89
aI21
aI45
aI2185
aI372
asS'ori'
p6
S'This house believes all nations have a right to nuclear weapons'
p7
ssS'output'
p8
(dp9
g4
(lp10
I24
aI2721
aI3
aI2206
aI12152
aI211
aI12011
aI6763
aI24
aI2670
aI1381
aI64
aI122
aI3818
aI9810
aI5
aI99
aI3867
aI3611
aI34
aI289
aI267
aI2467
aI63765
asg6
S'In exchange  the US dismantled its launch sites in Turkey  although this was done secretly and not publicly revealed for over two decades .'
p11
ss.