(dp1
S'input'
p2
(dp3
S'encoded'
p4
(lp5
I64
aI2179
aI43
aI223
aI2138
aI11
aI89
aI21
aI45
aI2185
aI372
asS'ori'
p6
S'This house believes all nations have a right to nuclear weapons'
p7
ssS'output'
p8
(dp9
g4
(lp10
I75
aI6836
aI298
aI3
aI24029
aI8366
aI48591
aI9043
aI24
aI1646
aI736
aI3
aI3569
aI252
aI89
aI3424
aI1021
aI45
aI3
aI2363
aI7
aI36859
aI134
aI7686
aI60
aI89
aI972
aI7
aI4166
aI11919
aI63765
asg6
S'By comparison  when the volcano Mount Tambora erupted in 1815 - turning 1816 into the Year Without A Summer due to the levels of ash expelled) - it exploded with a force of roughly 1 000 megatons .'
p11
ss.