(dp1
S'input'
p2
(dp3
S'encoded'
p4
(lp5
I64
aI2179
aI43
aI63
aI2157
aI2565
aI493
aI19084
aI382
aI4850
asS'ori'
p6
S"This house believes that Israel's 2008-2009 military operations against Gaza were justified"
p7
ssS'output'
p8
(dp9
g4
(lp10
I3
aI20031
aI122
aI3
aI296
aI7
aI19359
aI6864
aI289
aI3
aI11995
aI1687
asg6
S'the offensive was the result of Israels "patience running out" over the rocket attacks'
p11
ss.