(dp1
S'input'
p2
(dp3
S'encoded'
p4
(lp5
I64
aI2179
aI394
aI16756
aI20435
asS'ori'
p6
S'This house would criminalize blasphemy'
p7
ssS'output'
p8
(dp9
g4
(lp10
I24
aI3
aI2117
aI443
aI18019
aI382
aI557
aI751
aI3
aI24031
aI7
aI3
aI24612
aI24
aI425
aI63765
asg6
S'In the event  no referendums were held before the dissolution of the 30th Dail in January 2011 .'
p11
ss.