(dp1
S'input'
p2
(dp3
S'encoded'
p4
(lp5
I64
aI2179
aI394
aI2017
aI262
asS'ori'
p6
S'This house would ban boxing'
p7
ssS'output'
p8
(dp9
g4
(lp10
I24
aI3
aI1560
aI2016
aI7
aI276
aI714
aI2039
aI122
aI685
aI45
aI836
aI2015
aI2040
aI620
aI2041
aI5
aI2042
aI45
aI881
aI772
aI24
aI262
asg6
S'In 1997  the American Association of Professional Ringside Physicians was established to create medical protocols through research and education to prevent injuries in boxing '
p11
ss.