(dp1
S'input'
p2
(dp3
S'encoded'
p4
(lp5
I64
aI2179
aI43
aI8629
aI116
aI3
aI117
aI998
asS'ori'
p6
S'This house believes atheism is the only way'
p7
ssS'output'
p8
(dp9
g4
(lp10
I117
aI18790
aI5
aI8446
aI5527
aI18788
aI41
aI261
aI41
aI9776
aI5
aI10002
aI63765
asg6
S'Only Mormon and Jewish faithful scored as well as atheists and agnostics  .'
p11
ss.