(dp1
S'input'
p2
(dp3
S'encoded'
p4
(lp5
I64
aI2179
aI43
aI24
aI3
aI475
aI7
aI12436
aI3364
asS'ori'
p6
S'This house believes in the use of affirmative action'
p7
ssS'output'
p8
(dp9
g4
(lp10
I534
aI30186
aI7
aI5
aI5334
aI3073
aI24
aI6401
aI2506
aI568
aI75
aI3
aI2130
aI14
aI3202
aI2446
aI63765
asg6
S'Required compilation of voter-registration and voting data in geographic areas specified by the Commission on Civil Rights .'
p11
ss.