(dp1
S'input'
p2
(dp3
S'encoded'
p4
(lp5
I64
aI2179
aI394
aI1499
aI177
aI1819
aI34
aI160
asS'ori'
p6
S'This house would build high rises for housing'
p7
ssS'output'
p8
(dp9
g4
(lp10
I134
aI55
aI12
aI8117
aI45
aI316
aI89
aI6449
aI2229
aI24
aI4394
aI2506
aI63765
asg6
S"It has been shown to be a growing trend in America's metropolitan areas ."
p11
ss.