(dp1
S'input'
p2
(dp3
S'encoded'
p4
(lp5
I64
aI2179
aI394
aI4325
aI2042
aI270
aI89
aI11605
aI3324
asS'ori'
p6
S'This house would fund education using a voucher scheme'
p7
ssS'output'
p8
(dp9
g4
(lp10
I131
aI8905
aI51260
aI2219
aI2031
aI3
aI12566
aI2130
aI71
aI3
aI136
aI218
aI51255
aI5810
aI63
aI658
aI3357
aI122
aI1604
aI136
aI5
aI136
aI9535
aI493
aI63765
asg6
S'" But moderate segregationist forces (which supported the Gray Commission plan) opposed the more extreme segregationists (who believed that public opinion was becoming more and more inflamed against Brown)  .'
p11
ss.