(dp1
S'input'
p2
(dp3
S'encoded'
p4
(lp5
I64
aI2179
aI394
aI2773
aI12505
asS'ori'
p6
S'This house would embrace multiculturalism'
p7
ssS'output'
p8
(dp9
g4
(lp10
I1381
aI100
aI58765
aI10274
aI63
aI18438
aI88
aI296
aI24
aI89
aI1240
aI10311
aI2022
aI60
aI89
aI2369
aI2498
aI7
aI9750
aI155
aI9530
aI378
aI63
aI53
aI5275
aI182
aI3740
aI2820
aI45
aI18453
aI273
aI88
aI4466
aI3136
aI92
aI19192
aI4406
aI12997
aI63765
asg6
S'Although some multiculturalists admit that assimilation may result in a relatively homogeneous society  with a strong sense of nationalism  they warn however  that where minorities are strongly urged to assimilate  there may arise groups which fiercely oppose integration .'
p11
ss.