(dp1
S'input'
p2
(dp3
S'encoded'
p4
(lp5
I64
aI2179
aI394
aI2773
aI12505
asS'ori'
p6
S'This house would embrace multiculturalism'
p7
ssS'output'
p8
(dp9
g4
(lp10
I155
aI5810
aI63
aI4163
aI2637
aI18438
aI7
aI3
aI5307
aI19
aI4232
aI5
aI2793
aI323
aI122
aI99
aI89
aI213
aI45
aI3
aI3661
aI7
aI2610
aI604
aI17722
aI60
aI132
aI5307
aI394
aI9566
aI3
aI10250
aI13889
aI7
aI63765
asg6
S'They believed that complete cultural assimilation of the immigrants from Southern and Eastern Europe was not a solution to the problem of immigration because intermarriage with these immigrants would endanger the racial purity of Anglo-America .'
p11
ss.