(dp1
S'input'
p2
(dp3
S'encoded'
p4
(lp5
I64
aI2179
aI394
aI2017
aI628
asS'ori'
p6
S'This house would ban gambling'
p7
ssS'output'
p8
(dp9
g4
(lp10
I233
aI45
aI17579
aI63765
aI5295
aI33688
aI443
aI93
aI14
aI3
aI2333
aI2180
aI440
aI344
aI3
aI5563
aI3657
aI7
aI3
aI2029
aI751
aI134
aI122
aI871
aI63765
asg6
S'According to Sen . Frank Lautenberg (D-N .J .)  no one on the Senate-House Conference Committee had seen the final language of the bill before it was passed  .'
p11
ss.