(dp1
S'input'
p2
(dp3
S'encoded'
p4
(lp5
I64
aI2179
aI394
aI5370
aI7146
aI4585
aI2446
asS'ori'
p6
S'This house would abolish intellectual property rights'
p7
ssS'output'
p8
(dp9
g4
(lp10
I134
aI394
aI1199
aI89
aI6734
aI20334
aI14
aI3
aI2410
aI7
aI4577
aI3994
aI92
aI394
aI990
aI29936
aI86
aI63765
asg6
S'It would become a cumulative lien on the production of unborn generations  which would ultimately paralyze them .'
p11
ss.