(dp1
S'input'
p2
(dp3
S'encoded'
p4
(lp5
I64
aI2179
aI394
aI5370
aI223
aI4013
aI10440
aI2446
aI4881
aI75
aI14482
aI11004
asS'ori'
p6
S'This house would abolish all collective bargaining rights claimed by trades unions'
p7
ssS'output'
p8
(dp9
g4
(lp10
I100
aI2586
aI45
aI1102
aI3224
aI2586
aI45
aI4976
aI5
aI5806
aI7
aI78
aI6196
aI271
aI1413
asg6
S'Some began to close  businesses began to fail  and thousands of people lost their land ."'
p11
ss.