(dp1
S'input'
p2
(dp3
S'encoded'
p4
(lp5
I64
aI2179
aI394
aI4325
aI2042
aI270
aI89
aI11605
aI3324
asS'ori'
p6
S'This house would fund education using a voucher scheme'
p7
ssS'output'
p8
(dp9
g4
(lp10
I24
aI93
aI7
aI211
aI217
aI1185
aI2426
aI2489
aI3052
aI24
aI89
aI398
aI89
aI2801
aI2483
aI2484
aI51
aI4235
aI2240
aI11605
aI7074
aI63765
asg6
S'In one of its most important establishment clause cases in a century  a divided Court upheld an Ohio school voucher plan .'
p11
ss.