(dp1
S'input'
p2
(dp3
S'encoded'
p4
(lp5
I64
aI2179
aI394
aI2773
aI12505
asS'ori'
p6
S'This house would embrace multiculturalism'
p7
ssS'output'
p8
(dp9
g4
(lp10
I2017
aI10010
aI7
aI12511
aI19
aI1841
aI45
aI3
aI2671
aI2696
aI63765
asg6
S'Ban preachers of hate from coming to the host country .'
p11
ss.