(dp1
S'input'
p2
(dp3
S'encoded'
p4
(lp5
I64
aI2179
aI13605
aI2258
aI45
aI2194
asS'ori'
p6
S'This house prefers trade to aid'
p7
ssS'output'
p8
(dp9
g4
(lp10
I75
aI1879
aI4015
aI7600
aI24
aI3
aI203
aI972
aI3495
aI182
aI1031
aI45
aI7747
aI136
aI775
aI45
aI16
aI2234
aI5
aI112
aI5200
aI691
aI206
aI89
aI2878
aI7
aI112
aI30289
aI271
aI2351
aI5
aI17
aI2554
aI63765
asg6
S'By increasing female participation in the labor force  women are able to contribute more effectively to economic growth and income distribution since having a source of income elevates their financial and social status  .'
p11
ss.