(dp1
S'input'
p2
(dp3
S'encoded'
p4
(lp5
I64
aI2179
aI43
aI63
aI3
aI4990
aI4991
aI116
aI4850
aI24
aI12166
aI3
aI475
aI7
aI3532
aI3290
aI7
aI4714
asS'ori'
p6
S'This house believes that the Catholic Church is justified in forbidding the use of barrier methods of contraception'
p7
ssS'output'
p8
(dp9
g4
(lp10
I9047
aI3
aI4573
aI3007
aI10852
aI24
aI89
aI4772
aI45
aI3
aI2221
aI7
aI2330
aI5318
aI63765
aI3
aI13864
aI2196
aI11515
aI75
aI3218
aI10857
aI48
aI45
aI89
aI1796
aI6029
aI7
aI6427
aI47
aI63765
asg6
S'Acknowledging the controversy  Paul VI in a letter to the Congress of German Catholics (Aug . 30  1968)  stated: "May the lively debate aroused by our encyclical lead to a better knowledge of Gods will .'
p11
ss.