(dp1
S'input'
p2
(dp3
S'encoded'
p4
(lp5
I64
aI2179
aI13605
aI2258
aI45
aI2194
asS'ori'
p6
S'This house prefers trade to aid'
p7
ssS'output'
p8
(dp9
g4
(lp10
I24
aI421
aI217
aI5025
aI2138
aI11
aI311
aI870
aI100
aI6374
aI7398
aI5
aI2135
aI2194
aI153
aI1735
aI86
aI45
aI1292
aI4142
aI136
aI138
aI6351
aI6329
aI63765
asg6
S'In addition  most African nations have at least some wealthy nationals  and foreign aid often allows them to avoid paying more than negligible taxes .'
p11
ss.