(dp1
S'input'
p2
(dp3
S'encoded'
p4
(lp5
I64
aI2179
aI43
aI63
aI3
aI28431
aI7
aI2157
aI4624
aI75
aI39939
aI27257
aI122
aI4850
asS'ori'
p6
S'This house believes that the leaking of military documents by Anat Kamm was justified'
p7
ssS'output'
p8
(dp9
g4
(lp10
I7008
aI34
aI748
aI844
aI7
aI3
aI2784
aI88
aI316
aI5047
aI45
aI3
aI3261
aI9579
aI7
aI2547
aI63765
asg6
S'Complaints for possible violations of the Act may be reported to the Privacy Commissioner of Canada .'
p11
ss.