(dp1
S'input'
p2
(dp3
S'encoded'
p4
(lp5
I64
aI2179
aI43
aI3
aI626
aI187
aI116
aI1989
aI34
aI3102
aI2223
asS'ori'
p6
S"This house believes the United States is responsible for Mexico's drugs war"
p7
ssS'output'
p8
(dp9
g4
(lp10
I3
aI475
aI7
aI137
aI45
aI4325
aI2762
aI8788
aI116
aI726
aI575
aI3
aI4336
aI8509
aI7834
aI5047
aI2345
aI7
aI1443
aI1047
aI4285
aI2290
aI1374
aI24
aI51
aI2419
aI45
aI951
aI1306
aI14
aI3
aI8679
aI1167
aI5
aI63765
asg6
S'The use of "stimulus" money to fund Project Gunrunner is controversial  given the ATF Phoenix Field Division\'s reported initiative of allowing known criminals purchase guns in an effort to gain intelligence on the cartels (Operation Fast and Furious) .'
p11
ss.