(dp1
S'input'
p2
(dp3
S'encoded'
p4
(lp5
I64
aI2179
aI43
aI63
aI323
aI417
aI10009
aI211
aI9035
aI249
aI45
aI3426
aI211
aI2144
aI595
aI17
aI96
asS'ori'
p6
S'This house believes that Europe should weaken its austerity measures to guarantee its citizens greater social support'
p7
ssS'output'
p8
(dp9
g4
(lp10
I4099
aI918
aI7
aI9402
aI8818
aI2136
aI463
aI6792
aI3
aI69
aI918
asg6
S'negative impact of tighter fiscal policy could offset the positive impact'
p11
ss.