(dp1
S'input'
p2
(dp3
S'encoded'
p4
(lp5
I64
aI2179
aI43
aI63
aI134
aI116
aI400
aI21
aI34
aI3
aI260
aI45
aI3439
aI57
aI7
aI2381
asS'ori'
p6
S'This house believes that it is sometimes right for the government to restrict freedom of speech'
p7
ssS'output'
p8
(dp9
g4
(lp10
I3
aI3744
aI5571
aI63
aI3
aI4426
aI7
aI3
aI8302
aI23
aI92
aI913
aI3
aI511
aI34
aI3757
aI45
aI3
aI20180
aI123
aI89
aI1068
aI34
aI3
aI2860
aI63765
asg6
S'The courts reasoned that the scarcity of the broadcast spectrum  which limited the opportunity for access to the airwaves  created a need for the Doctrine .'
p11
ss.