(dp1
S'input'
p2
(dp3
S'encoded'
p4
(lp5
I64
aI2179
aI43
aI63
aI2157
aI2565
aI493
aI19084
aI382
aI4850
asS'ori'
p6
S"This house believes that Israel's 2008-2009 military operations against Gaza were justified"
p7
ssS'output'
p8
(dp9
g4
(lp10
I7217
aI382
aI5047
aI75
aI1237
aI2935
aI3
aI4689
aI11294
aI134
aI459
aI3
aI23372
aI2161
aI24196
aI7
aI19088
aI3
aI1727
aI2173
aI4995
aI45
aI1388
aI24
aI63765
asg6
S'Vilnai\'s comments were reported by several news agencies: The Guardian ran it under the headline "Israeli minister warns of Palestinian \'Holocaust\'"  The Times stated "Israel threatens to unleash \'Holocaust\' in Gaza"  .'
p11
ss.