(dp1
S'input'
p2
(dp3
S'encoded'
p4
(lp5
I64
aI2179
aI43
aI17
aI4941
aI857
aI3211
asS'ori'
p6
S'This house believes social deprivation causes crime'
p7
ssS'output'
p8
(dp9
g4
(lp10
I320
aI17552
aI382
aI59084
aI75
aI3
aI2411
aI3802
aI24
aI17
aI13127
aI3293
aI5
aI251
aI41
aI155
aI689
aI134
aI5
aI4354
aI64
aI38
aI5
aI24017
aI63765
asg6
S'Early sociologists were intrigued by the vast differences in social interactions  views  and problems as they recognized it and termed this movement: capitalism and industrialization .'
p11
ss.