(dp1
S'input'
p2
(dp3
S'encoded'
p4
(lp5
I64
aI2179
aI394
aI2017
aI628
asS'ori'
p6
S'This house would ban gambling'
p7
ssS'output'
p8
(dp9
g4
(lp10
I311
aI3
aI14337
aI7
aI3
aI3034
aI2223
aI3
aI5884
aI2221
aI416
aI7618
aI45
aI5918
aI137
aI45
aI96
aI3
aI4116
aI202
asg6
S'At the outset of the Revolutionary War  the Continental Congress used lotteries to raise money to support the Colonial Army'
p11
ss.