(dp1
S'input'
p2
(dp3
S'encoded'
p4
(lp5
I64
aI2179
aI43
aI63
aI3
aI4990
aI4991
aI116
aI4850
aI24
aI12166
aI3
aI475
aI7
aI3532
aI3290
aI7
aI4714
asS'ori'
p6
S'This house believes that the Catholic Church is justified in forbidding the use of barrier methods of contraception'
p7
ssS'output'
p8
(dp9
g4
(lp10
I24
aI66
aI2657
aI6095
aI5
aI6429
aI3271
aI2466
aI122
aI246
aI344
aI41
aI89
aI3896
aI5
aI3
aI117
aI261
aI403
aI4714
aI3290
aI382
aI5254
aI63765
asg6
S"In ancient Egypt  Greece  and Rome  pregnancy prevention was generally seen as a woman's responsibility  and the only well documented contraception methods were female-controlled devices  ."
p11
ss.