(dp1
S'input'
p2
(dp3
S'encoded'
p4
(lp5
I64
aI2179
aI43
aI223
aI2138
aI11
aI89
aI21
aI45
aI2185
aI372
asS'ori'
p6
S'This house believes all nations have a right to nuclear weapons'
p7
ssS'output'
p8
(dp9
g4
(lp10
I89
aI7346
aI7
aI64
aI437
aI2419
aI134
aI55
aI12
aI2845
aI63
aI3
aI4968
aI7
aI93
aI43618
aI24
aI1928
aI767
aI24
aI3
aI626
aI187
aI116
aI11887
aI75
aI2185
aI5092
aI56
aI19
aI11521
aI2623
aI9274
aI311
aI3
aI626
aI187
aI5
aI211
aI2370
aI397
aI3
aI2237
aI2223
asg6
S'(As a consequence of this latter effort  it has been estimated that the equivalent of one lightbulb in every ten in the United States is powered by nuclear fuel removed from warheads previously targeted at the United States and its allies during the Cold War  .)'
p11
ss.