(dp1
S'input'
p2
(dp3
S'encoded'
p4
(lp5
I64
aI2179
aI394
aI2773
aI12505
asS'ori'
p6
S'This house would embrace multiculturalism'
p7
ssS'output'
p8
(dp9
g4
(lp10
I24
aI3
aI1565
aI2483
aI7
aI2248
aI5397
aI89
aI2220
aI234
aI7
aI3905
aI3515
aI2637
aI3527
aI620
aI3
aI1795
aI7
aI4035
aI73
aI3
aI4676
aI7
aI3932
aI19856
aI2768
aI3503
aI2623
aI689
aI63765
asg6
S'In 2009  the European Court of Justice favoured a broad view of culture - beyond cultural values - through the protection of film or the objective of promoting linguistic diversity yet previously recognized .'
p11
ss.