(dp1
S'input'
p2
(dp3
S'encoded'
p4
(lp5
I64
aI2179
aI43
aI17
aI4941
aI857
aI3211
asS'ori'
p6
S'This house believes social deprivation causes crime'
p7
ssS'output'
p8
(dp9
g4
(lp10
I24
aI3
aI448
aI3168
aI273
aI116
aI742
aI45
aI4532
aI89
aI23
aI7
aI3760
aI2167
aI60
aI3
aI1862
aI7
aI6713
aI725
aI16828
aI60
aI207
aI3585
aI85
aI2786
aI41
aI8935
aI5
aI3
aI1862
aI7
aI6713
aI1896
aI16828
aI60
aI89
aI325
aI250
aI7
aI3585
aI85
aI2786
aI8935
aI63765
asg6
S"In the general theory  there is said to exist a spectrum of reproductive strategies  with the strategy of producing many offspring with little parental care designated as 'r'-type behavior and the strategy of producing few offspring with a great deal of parental care designated 'K'-type behavior ."
p11
ss.