(dp1
S'input'
p2
(dp3
S'encoded'
p4
(lp5
I64
aI2179
aI394
aI2017
aI628
asS'ori'
p6
S'This house would ban gambling'
p7
ssS'output'
p8
(dp9
g4
(lp10
I134
aI122
aI24
aI3
aI58264
aI63
aI24138
aI463
aI154
aI78
aI45
aI11588
aI45
aI13167
aI60
aI5
aI153
aI14674
aI60
aI63765
asg6
S'It was in the saloons that travelers could find people to talk to  drink with  and often gamble with .'
p11
ss.