(dp1
S'input'
p2
(dp3
S'encoded'
p4
(lp5
I64
aI2179
aI43
aI63
aI2659
aI417
aI1690
aI3
aI12048
aI7
aI19084
asS'ori'
p6
S'This house believes that Israel should lift the blockade of Gaza'
p7
ssS'output'
p8
(dp9
g4
(lp10
I41
aI89
aI296
aI3
aI5555
aI83
aI316
aI2294
aI24
aI128
aI34
aI2250
aI45
aI316
aI1803
aI63765
asg6
S'As a result  the territories must be ceded in order for peace to be achieved .'
p11
ss.