(dp1
S'input'
p2
(dp3
S'encoded'
p4
(lp5
I64
aI2179
aI13605
aI2258
aI45
aI2194
asS'ori'
p6
S'This house prefers trade to aid'
p7
ssS'output'
p8
(dp9
g4
(lp10
I24
aI32169
aI7284
aI89
aI10325
aI7
aI658
aI4445
aI19
aI14131
aI26100
aI3755
aI2240
aI7
aI260
aI63765
asg6
S'In 1997  Moyo earned a Master of Public Administration (MPA) from Harvard Universitys Kennedy School of Government  .'
p11
ss.