(dp1
S'input'
p2
(dp3
S'encoded'
p4
(lp5
I64
aI2179
aI43
aI63
aI3
aI4990
aI4991
aI116
aI4850
aI24
aI12166
aI3
aI475
aI7
aI3532
aI3290
aI7
aI4714
asS'ori'
p6
S'This house believes that the Catholic Church is justified in forbidding the use of barrier methods of contraception'
p7
ssS'output'
p8
(dp9
g4
(lp10
I41
aI10876
aI9630
aI9631
aI3525
aI864
aI1872
aI10939
aI4948
aI158
aI18217
aI967
aI3
aI285
aI5
aI24
aI3
aI6253
aI63765
asg6
S'As Pontiff  Benedict XVI carries out numerous Apostolic activities including journeys across the world and in the Vatican .'
p11
ss.