(dp1
S'input'
p2
(dp3
S'encoded'
p4
(lp5
I64
aI2179
aI43
aI8629
aI116
aI3
aI117
aI998
asS'ori'
p6
S'This house believes atheism is the only way'
p7
ssS'output'
p8
(dp9
g4
(lp10
I155
aI13866
aI63
aI99
aI773
aI1031
aI45
aI1792
aI73
aI1781
aI100
aI2386
aI1963
aI98
aI99
aI4937
aI38499
aI211
aI3524
aI41
aI24
aI3
aI33
aI7
aI13249
aI27560
aI73
aI1025
aI5
aI2428
aI63765
asg6
S'They affirm that not being able to see or hold some specific thing does not necessarily negate its existence  as in the case of gravity  entropy  or reason and thought .'
p11
ss.