(dp1
S'input'
p2
(dp3
S'encoded'
p4
(lp5
I64
aI2179
aI43
aI223
aI2138
aI11
aI89
aI21
aI45
aI2185
aI372
asS'ori'
p6
S'This house believes all nations have a right to nuclear weapons'
p7
ssS'output'
p8
(dp9
g4
(lp10
I3
aI2861
aI4445
aI5
aI11522
aI9170
aI440
aI12
aI9088
aI34
aI3
aI11523
aI691
aI2927
aI131
aI3
aI3703
aI10903
aI7576
aI24
aI3
aI6327
aI5
aI658
aI8672
aI63765
asg6
S'The Eisenhower Administration and Hatoyama Cabinet had been arranging for the deployment since March  but the announcement sparked outrage in the Diet and public protest .'
p11
ss.