(dp1
S'input'
p2
(dp3
S'encoded'
p4
(lp5
I64
aI2179
aI43
aI63
aI3
aI4990
aI4991
aI116
aI4850
aI24
aI12166
aI3
aI475
aI7
aI3532
aI3290
aI7
aI4714
asS'ori'
p6
S'This house believes that the Catholic Church is justified in forbidding the use of barrier methods of contraception'
p7
ssS'output'
p8
(dp9
g4
(lp10
I43793
aI8811
aI88
aI3274
aI34
aI89
aI1107
aI7446
aI73
aI961
aI7
aI89
aI696
aI7
aI229
aI8811
aI34
aI351
aI7
aI89
aI1699
aI1051
aI7
aI39860
aI158
aI8811
aI34
aI34891
aI39867
aI39744
aI39869
aI37778
aI17847
aI5
aI9583
aI8811
aI63765
asg6
S'STI tests may test for a single infection  or consist of a number of individual tests for any of a wide range of STIs  including tests for syphilis  trichomonas  gonorrhea  chlamydia  herpes  hepatitis and HIV tests .'
p11
ss.