(dp1
S'input'
p2
(dp3
S'encoded'
p4
(lp5
I64
aI2179
aI43
aI63
aI2157
aI2565
aI493
aI19084
aI382
aI4850
asS'ori'
p6
S"This house believes that Israel's 2008-2009 military operations against Gaza were justified"
p7
ssS'output'
p8
(dp9
g4
(lp10
I9627
aI9628
aI9627
aI9628
aI1545
aI3
aI7
aI6056
aI3089
aI24
aI19084
aI17539
aI3
aI15626
aI1068
aI34
aI8122
aI8104
aI5
aI2015
aI705
aI63765
asg6
S'|- Caritas Internationalis Caritas Internationalis described the "devastating consequences" of Israeli actions in Gaza highlighting the desperate need for beds  medicines and medical staff .'
p11
ss.