(dp1
S'input'
p2
(dp3
S'encoded'
p4
(lp5
I64
aI2179
aI43
aI223
aI2138
aI11
aI89
aI21
aI45
aI2185
aI372
asS'ori'
p6
S'This house believes all nations have a right to nuclear weapons'
p7
ssS'output'
p8
(dp9
g4
(lp10
I93
aI122
aI51
aI3226
aI24
aI4510
aI5
aI546
aI5
aI545
aI117
aI89
aI1896
aI2439
aI11682
aI2672
aI382
aI643
aI63
aI382
aI725
aI1727
aI136
aI1173
aI138
aI3
aI4259
aI123
aI397
aI285
aI2223
aI2236
aI63765
asg6
S'One was an increase in efficiency and power  and within only a few years fission bombs were developed that were many times more powerful than the ones created during World War II .'
p11
ss.