(dp1
S'input'
p2
(dp3
S'encoded'
p4
(lp5
I64
aI2179
aI43
aI24
aI3
aI475
aI7
aI12436
aI3364
asS'ori'
p6
S'This house believes in the use of affirmative action'
p7
ssS'output'
p8
(dp9
g4
(lp10
I24
aI3
aI2482
aI2483
aI353
aI63
aI89
aI10250
aI5891
aI34
aI2503
aI8733
aI122
aI504
aI63765
asg6
S'In 1990  the Supreme Court found that a 10% racial quota for federal contractors was permitted  .'
p11
ss.