(dp1
S'input'
p2
(dp3
S'encoded'
p4
(lp5
I64
aI2179
aI43
aI63
aI3
aI4990
aI4991
aI116
aI4850
aI24
aI12166
aI3
aI475
aI7
aI3532
aI3290
aI7
aI4714
asS'ori'
p6
S'This house believes that the Catholic Church is justified in forbidding the use of barrier methods of contraception'
p7
ssS'output'
p8
(dp9
g4
(lp10
I155
aI382
aI713
aI311
aI223
aI325
aI2767
aI5
aI150
aI25822
aI311
aI3
aI23842
aI7
aI6001
aI5
aI113
aI675
aI3
aI11307
aI427
aI759
aI24
aI3
aI24049
aI7
aI3
aI150
aI6333
aI63765
aI63765
asg6
S'they were present at all great religious and national solemnities  at the dedication of churches  and even  like the queens  took part in the deliberation of the national assemblies . ."  .'
p11
ss.