(dp1
S'input'
p2
(dp3
S'encoded'
p4
(lp5
I64
aI2179
aI394
aI5370
aI3
aI5286
asS'ori'
p6
S'This house would abolish the monarchy'
p7
ssS'output'
p8
(dp9
g4
(lp10
I5313
aI41
aI89
aI22
aI972
aI1010
aI55
aI1510
aI13648
aI691
aI3
aI312
aI7
aI3
aI1950
aI285
aI2223
aI114
aI134
aI440
aI51
aI1185
aI2210
aI24
aI3
aI5756
aI2232
aI5
aI174
aI2757
aI89
aI2210
aI24
aI3
aI8
aI22
aI2181
aI7
aI6112
aI63765
asg6
S'Monarchism as a political force internationally has substantially diminished since the end of the Second World War  though it had an important role in the 1979 Iranian Revolution and also played a role in the modern political affairs of Nepal .'
p11
ss.