(dp1
S'input'
p2
(dp3
S'encoded'
p4
(lp5
I64
aI2179
aI394
aI9385
aI2497
aI447
aI14
aI3
aI3578
aI5721
aI7
aI260
asS'ori'
p6
S'This house would enforce term limits on the legislative branch of government'
p7
ssS'output'
p8
(dp9
g4
(lp10
I4275
aI139
aI1719
aI10662
aI8850
aI620
aI1949
aI5276
aI73
aI75
aI12236
asg6
S'Voters can already remove politicians through regular elections or by recall'
p11
ss.