(dp1
S'input'
p2
(dp3
S'encoded'
p4
(lp5
I64
aI2179
aI394
aI15841
aI2736
asS'ori'
p6
S'This house would disband ASEAN'
p7
ssS'output'
p8
(dp9
g4
(lp10
I3
aI2488
aI2712
aI1423
aI34
aI292
aI873
aI63765
asg6
S'The formal summit meets for three days .'
p11
ss.