(dp1
S'input'
p2
(dp3
S'encoded'
p4
(lp5
I64
aI2179
aI43
aI63
aI2659
aI417
aI1690
aI3
aI12048
aI7
aI19084
asS'ori'
p6
S'This house believes that Israel should lift the blockade of Gaza'
p7
ssS'output'
p8
(dp9
g4
(lp10
I233
aI45
aI3
aI282
aI2180
aI7
aI3
aI4156
aI1633
aI9510
aI2037
aI75
aI78
aI1019
aI316
aI4669
aI75
aI193
aI2893
aI2194
aI63765
aI3
aI117
aI6806
aI213
aI116
aI45
aI1690
aI3
aI9561
aI5532
aI3
aI12048
aI2126
aI155
aI401
aI45
aI134
aI41
aI4013
aI1184
aI2052
aI24
aI2010
aI2521
aI7
aI2975
aI459
aI282
aI2893
asg6
S'According to the International Committee of the Red Cross  "The hardship faced by Gaza\'s 1 .5&nbsp;million people cannot be addressed by providing humanitarian aid . The only sustainable solution is to lift the closure ." Describing the blockade itself  they referred to it as "a collective punishment imposed in clear violation of Israel\'s obligations under international humanitarian law" '
p11
ss.