(dp1
S'input'
p2
(dp3
S'encoded'
p4
(lp5
I64
aI2179
aI43
aI223
aI2138
aI11
aI89
aI21
aI45
aI2185
aI372
asS'ori'
p6
S'This house believes all nations have a right to nuclear weapons'
p7
ssS'output'
p8
(dp9
g4
(lp10
I311
aI3
aI1643
aI413
aI3
aI260
aI3725
aI63
aI11521
aI45
aI124
aI89
aI2867
aI12028
aI7561
aI5
aI34
aI1022
aI7250
aI382
aI99
aI2100
aI24
aI3
aI138
aI6832
aI63765
asg6
S'At the same time  the government indicated that warheads "required to provide a necessary processing margin and for technical surveillance purposes" were not included in the "fewer than 200" figure  .'
p11
ss.