(dp1
S'input'
p2
(dp3
S'encoded'
p4
(lp5
I64
aI2179
aI394
aI10662
aI626
aI187
aI2157
aI2697
aI19
aI2371
asS'ori'
p6
S'This house would remove United States military bases from Japan'
p7
ssS'output'
p8
(dp9
g4
(lp10
I2371
aI2397
aI5
aI3
aI626
aI187
aI7
aI875
aI8404
aI3
aI21
aI111
aI3
aI1841
aI736
aI972
aI7
aI3
aI2268
aI7
aI2250
aI5
aI7
aI64
aI2268
aI45
aI15342
aI626
aI187
aI1413
aI2674
aI5
aI7145
aI2219
aI24
aI5
aI1191
aI2371
aI63765
asg6
S'Japan grants  and the United States of America accepts  the right  upon the coming into force of the Treaty of Peace and of this Treaty  to dispose United States land  air and sea forces in and about Japan .'
p11
ss.