(dp1
S'input'
p2
(dp3
S'encoded'
p4
(lp5
I64
aI2179
aI43
aI24
aI3
aI475
aI7
aI12436
aI3364
asS'ori'
p6
S'This house believes in the use of affirmative action'
p7
ssS'output'
p8
(dp9
g4
(lp10
I120
aI7
aI2653
aI2793
aI7292
aI81
aI182
aI24
aI3
aI626
aI187
aI2157
aI619
aI10535
aI19
aI5036
aI2377
aI63765
asg6
S'Those of Middle Eastern descent who are in the United States military face racism from fellow soldiers .'
p11
ss.