(dp1
S'input'
p2
(dp3
S'encoded'
p4
(lp5
I64
aI2179
aI43
aI63
aI2659
aI417
aI1690
aI3
aI12048
aI7
aI19084
asS'ori'
p6
S'This house believes that Israel should lift the blockade of Gaza'
p7
ssS'output'
p8
(dp9
g4
(lp10
I233
aI45
aI89
aI136
aI3057
aI1039
aI282
aI2194
aI24
aI3
aI2644
aI2031
aI6290
aI5
aI20876
aI6347
aI3
aI42901
aI7
aI22
aI546
aI131
aI24
aI89
aI998
aI63
aI500
aI99
aI13188
aI260
aI4204
aI5
aI12391
aI3
aI63734
aI63765
asg6
S"According to a more critical approach  international aid in the mid 1990s supported PNA's bureaucracy and belatedly promoted the centralization of political power  but in a way that did not enhance government capacity and harmed the PNGOs  ."
p11
ss.