(dp1
S'input'
p2
(dp3
S'encoded'
p4
(lp5
I64
aI2179
aI43
aI24
aI3
aI475
aI7
aI12436
aI3364
asS'ori'
p6
S'This house believes in the use of affirmative action'
p7
ssS'output'
p8
(dp9
g4
(lp10
I3
aI2306
aI7
aI2390
aI24
aI55
aI174
aI2215
aI3
aI2268
aI24
aI211
aI5508
aI131
aI116
aI23333
aI75
aI3
aI626
aI2138
aI5
aI116
aI89
aI171
aI45
aI3
aI2268
aI117
aI33519
aI63765
asg6
S'The Republic of China (Taiwan) in 2007 has also ratified the treaty in its legislature  but is unrecognized by the United Nations and is a party to the treaty only unofficially  .'
p11
ss.