(dp1
S'input'
p2
(dp3
S'encoded'
p4
(lp5
I64
aI2179
aI394
aI4261
aI8667
aI3
aI9361
aI5
aI17069
asS'ori'
p6
S'This house would prohibit burning the stars and stripes'
p7
ssS'output'
p8
(dp9
g4
(lp10
I132
aI382
aI1488
aI965
aI1290
aI9531
aI3
aI8934
aI5224
aI3
aI3109
aI5
aI238
aI7
aI4294
aI5
aI89
aI2556
aI5642
aI3987
aI696
aI63765
asg6
S"These were small white cards bearing the registrant's identifying information  the date and place of registration  and a unique Selective Service number ."
p11
ss.