(dp1
S'input'
p2
(dp3
S'encoded'
p4
(lp5
I64
aI2179
aI394
aI5370
aI223
aI4013
aI10440
aI2446
aI4881
aI75
aI14482
aI11004
asS'ori'
p6
S'This house would abolish all collective bargaining rights claimed by trades unions'
p7
ssS'output'
p8
(dp9
g4
(lp10
I2131
aI833
aI4823
aI63
aI64
aI116
aI51
aI1343
aI7
aI3
aI630
aI6188
aI2131
aI2025
aI1594
aI63
aI137
aI116
aI136
aI4943
aI24
aI3
aI531
aI7
aI23808
aI6941
aI138
aI24
aI3
aI531
aI7
aI10481
aI866
aI394
aI3322
aI134
aI24
aI3
aI3579
aI63765
asg6
S"Union opponents respond that this is an example of the broken window fallacy; union supporters assume that money is more valuable in the hands of unionized workers than in the hands of whoever else would obtain it in the union's absence ."
p11
ss.