(dp1
S'input'
p2
(dp3
S'encoded'
p4
(lp5
I64
aI2179
aI394
aI1499
aI3
aI8115
aI34564
aI17106
asS'ori'
p6
S'This house would build the Keystone XL pipeline'
p7
ssS'output'
p8
(dp9
g4
(lp10
I3
aI57206
aI145
aI311
aI3
aI1410
aI708
aI3380
aI1762
aI223
aI3
aI7834
aI3073
aI5
aI4931
aI134
aI45
aI3
aI17106
aI10541
aI620
aI89
aI1629
aI7
aI29401
aI73
aI2445
aI4448
aI17504
aI6909
aI3
aI5123
aI3020
aI7
aI3
aI17106
aI63765
asg6
S'The SCADA system at the Main Control Room receives all the field data and presents it to the pipeline operator through a set of screens or Human Machine Interface  showing the operational conditions of the pipeline .'
p11
ss.