(dp1
S'input'
p2
(dp3
S'encoded'
p4
(lp5
I64
aI2179
aI43
aI63
aI2203
aI60
aI51
aI997
aI2837
aI21716
aI1636
aI5349
aI417
aI2998
aI8532
aI45
aI3051
aI8578
asS'ori'
p6
S'This house believes that countries with an imbalanced male/female ratio skewed towards males should encourage parents to produce girls'
p7
ssS'output'
p8
(dp9
g4
(lp10
I3862
aI4651
aI24
aI8273
aI2203
aI182
aI99
aI925
aI459
aI3
aI2136
aI257
aI155
aI1453
aI99
aI3322
aI6426
aI4223
aI63765
asg6
S'Children born in overseas countries are not counted under the policy if they do not obtain Chinese citizenship .'
p11
ss.