(dp1
S'input'
p2
(dp3
S'encoded'
p4
(lp5
I64
aI2179
aI43
aI63
aI6670
aI546
aI417
aI316
aI89
aI1334
aI3108
aI7
aI4849
aI1886
aI2855
asS'ori'
p6
S'This house believes that wind power should be a primary focus of future energy supply'
p7
ssS'output'
p8
(dp9
g4
(lp10
I93
aI2035
aI2962
aI6927
aI63
aI342
aI6928
aI2438
aI24
aI2148
aI2456
aI34
aI419
aI177
aI6670
aI6677
aI6417
aI14
aI3
aI128
aI7
aI7
aI3
aI1413
aI803
aI63765
asg6
S"One study reports simulations that show detectable changes in global climate for very high wind farm usage  on the order of 10% of the world's land area ."
p11
ss.