(dp1
S'input'
p2
(dp3
S'encoded'
p4
(lp5
I64
aI2179
aI43
aI223
aI2138
aI11
aI89
aI21
aI45
aI2185
aI372
asS'ori'
p6
S'This house believes all nations have a right to nuclear weapons'
p7
ssS'output'
p8
(dp9
g4
(lp10
I357
aI83
aI16996
aI89
aI2346
aI2368
aI63
aI2028
aI63765
asg6
S'we must chart a course toward that goal .'
p11
ss.