(dp1
S'input'
p2
(dp3
S'encoded'
p4
(lp5
I64
aI2179
aI394
aI3830
aI3
aI475
aI7
aI9441
aI13132
aI3102
aI24
aI276
aI381
asS'ori'
p6
S'This house would permit the use of performance enhancing drugs in professional sports'
p7
ssS'output'
p8
(dp9
g4
(lp10
I526
aI3
aI2533
aI4439
aI3
aI4160
aI7
aI3
aI7249
aI94
aI1629
aI588
aI24
aI128
aI45
aI6970
aI211
aI2877
aI5
aI8718
aI3
aI2924
aI7
aI472
aI10141
aI5
aI3290
aI92
aI139
aI316
aI353
aI24
aI16738
aI45
aI3
aI1410
aI2537
aI63765
asg6
S'Furthermore the Convention describes the mission of the Monitoring Group set up in order to monitor its implementation and periodically re-examine the List of prohibited substances and methods which can be found in annex to the main text .'
p11
ss.