(dp1
S'input'
p2
(dp3
S'encoded'
p4
(lp5
I64
aI2179
aI43
aI63
aI3376
aI4938
aI417
aI316
aI3537
asS'ori'
p6
S'This house believes that endangered species should be protected'
p7
ssS'output'
p8
(dp9
g4
(lp10
I33785
aI139
aI1199
aI89
aI1380
aI7
aI33841
aI298
aI159
aI2747
aI182
aI99
aI7650
aI63765
asg6
S'Bioprospecting can become a type of biopiracy when such principles are not respected .'
p11
ss.