(dp1
S'input'
p2
(dp3
S'encoded'
p4
(lp5
I64
aI2179
aI43
aI63
aI2157
aI2565
aI493
aI19084
aI382
aI4850
asS'ori'
p6
S"This house believes that Israel's 2008-2009 military operations against Gaza were justified"
p7
ssS'output'
p8
(dp9
g4
(lp10
I14
aI4705
aI2962
aI3
aI2800
aI2173
aI63
aI51
aI6460
aI47
aI316
aI1031
aI45
aI4506
aI3
aI2893
aI5
aI1795
aI2979
aI63
aI7491
aI3
aI78
aI7
aI63765
asg6
S'On subsequent reports  the UN stated that "only an immediate cease-fire will be able to address the large-scale humanitarian and protection crisis that faces the people of Gaza"  .'
p11
ss.