(dp1
S'input'
p2
(dp3
S'encoded'
p4
(lp5
I64
aI2179
aI394
aI4325
aI2042
aI270
aI89
aI11605
aI3324
asS'ori'
p6
S'This house would fund education using a voucher scheme'
p7
ssS'output'
p8
(dp9
g4
(lp10
I4290
aI42
aI55
aI9930
aI60
aI3
aI10921
aI1560
aI2178
aI24
aI6466
aI34
aI17962
aI7
aI3
aI10921
aI8579
aI5
aI235
aI211
aI2437
aI63765
asg6
S"Senator  he has stood with the Armenian American community in calling for Turkey's acknowledgement of the Armenian Genocide  and supports its recognition ."
p11
ss.