(dp1
S'input'
p2
(dp3
S'encoded'
p4
(lp5
I64
aI2179
aI43
aI63
aI3376
aI4938
aI417
aI316
aI3537
asS'ori'
p6
S'This house believes that endangered species should be protected'
p7
ssS'output'
p8
(dp9
g4
(lp10
I25
aI3399
aI116
aI4982
aI534
aI4196
aI34
aI120
aI24
aI3
aI7837
aI63765
asg6
S'His writing is oftentimes required reading for those in the profession .'
p11
ss.