(dp1
S'input'
p2
(dp3
S'encoded'
p4
(lp5
I64
aI2179
aI394
aI4325
aI2042
aI270
aI89
aI11605
aI3324
asS'ori'
p6
S'This house would fund education using a voucher scheme'
p7
ssS'output'
p8
(dp9
g4
(lp10
I24
aI3
aI626
aI187
aI658
aI4364
aI83
aI75
aI70
aI7246
aI351
aI10185
aI917
aI7
aI4226
aI4583
aI2382
aI12461
aI7102
aI63765
asg6
S'In the United States  public schools must by law accept any student regardless of race  gender  religion  disability  etc .'
p11
ss.