(dp1
S'input'
p2
(dp3
S'encoded'
p4
(lp5
I64
aI2179
aI43
aI24
aI3
aI475
aI7
aI12436
aI3364
asS'ori'
p6
S'This house believes in the use of affirmative action'
p7
ssS'output'
p8
(dp9
g4
(lp10
I10
aI10535
aI4329
aI41
aI261
aI45
aI3
aI6090
aI7
aI3
aI3119
aI3914
aI5
aI4434
aI3089
aI474
aI75
aI3119
aI3664
aI26408
aI493
aI40745
aI5
aI78
aI63765
asg6
S'State racism contributed as well to the formation of the Dominican Republic\'s identity  and violent actions encouraged by Dominican governmental xenophobia against Haitians and "Haitian looking" people .'
p11
ss.