(dp1
S'input'
p2
(dp3
S'encoded'
p4
(lp5
I64
aI2179
aI394
aI2017
aI262
asS'ori'
p6
S'This house would ban boxing'
p7
ssS'output'
p8
(dp9
g4
(lp10
I257
aI3
aI978
aI7687
aI54839
aI1191
aI262
aI3
aI1067
aI1047
aI41
aI3
aI73
aI153
aI1519
aI34
aI7687
aI17744
aI24
aI3
aI266
aI63765
asg6
S"If the out-fighter represents everything classy about boxing  the brawler (also known as the 'slugger'  'hard hitter' or 'one puncher') often stands for everything that's brutal in the sport ."
p11
ss.