(dp1
S'input'
p2
(dp3
S'encoded'
p4
(lp5
I64
aI2179
aI394
aI2773
aI12505
asS'ori'
p6
S'This house would embrace multiculturalism'
p7
ssS'output'
p8
(dp9
g4
(lp10
I187
aI4197
aI84
aI1112
aI249
aI24
aI6076
aI5
aI2568
aI60
aI3
aI10070
aI6619
aI2853
aI45
aI265
aI12379
aI5
aI6726
aI4933
aI5
aI45
aI3018
aI2811
aI1462
aI5
aI1228
aI2202
aI887
aI10070
aI6619
aI5
aI223
aI248
aI24579
aI7
aI2022
aI63765
asg6
S'States shall take effective measures  in consultation and cooperation with the indigenous peoples concerned  to combat prejudice and eliminate discrimination and to promote tolerance  understanding and good relations among indigenous peoples and all other segments of society .'
p11
ss.