(dp1
S'input'
p2
(dp3
S'encoded'
p4
(lp5
I64
aI2179
aI43
aI17
aI4941
aI857
aI3211
asS'ori'
p6
S'This house believes social deprivation causes crime'
p7
ssS'output'
p8
(dp9
g4
(lp10
I3
aI57572
aI18172
aI100
aI15800
aI4285
aI41
aI5
aI100
aI41
aI63765
asg6
S'The NCVS classifies some Hispanic criminals as "white" and some as "other race" .'
p11
ss.