(dp1
S'input'
p2
(dp3
S'encoded'
p4
(lp5
I64
aI2179
aI43
aI8629
aI116
aI3
aI117
aI998
asS'ori'
p6
S'This house believes atheism is the only way'
p7
ssS'output'
p8
(dp9
g4
(lp10
I273
aI182
aI6815
aI24
aI89
aI3173
aI7
aI64
aI285
aI5
aI273
aI243
aI47
aI316
aI63765
asg6
S'There are gaps in a physical-chemical explanation of this world  and there always will be .'
p11
ss.