(dp1
S'input'
p2
(dp3
S'encoded'
p4
(lp5
I64
aI2179
aI394
aI4325
aI2042
aI270
aI89
aI11605
aI3324
asS'ori'
p6
S'This house would fund education using a voucher scheme'
p7
ssS'output'
p8
(dp9
g4
(lp10
I357
aI2463
aI2166
aI89
aI41
aI89
aI444
aI7
aI7632
aI7
aI89
aI77
aI49015
aI10382
aI63765
asg6
S"We suggest defining a 'dollar' as a weight of gold of a certain fineness   .999 fine ."
p11
ss.