(dp1
S'input'
p2
(dp3
S'encoded'
p4
(lp5
I64
aI2179
aI13605
aI2258
aI45
aI2194
asS'ori'
p6
S'This house prefers trade to aid'
p7
ssS'output'
p8
(dp9
g4
(lp10
I3052
aI159
aI41
aI57874
aI19071
aI342
aI63
aI3
aI7631
aI58
aI123
aI47
aI99
aI316
aI788
aI502
aI7
aI257
aI14471
aI189
aI2825
aI5
aI3
aI2573
aI2456
aI182
aI99
aI15904
aI63765
asg6
S'Cases such as Haitis post-1986 liberalization show that the opportunities thereby created will not be taken advantage of if macroeconomic policies  institutions  and the investment climate are not favorable .'
p11
ss.