(dp1
S'input'
p2
(dp3
S'encoded'
p4
(lp5
I64
aI2179
aI394
aI5370
aI7146
aI4585
aI2446
asS'ori'
p6
S'This house would abolish intellectual property rights'
p7
ssS'output'
p8
(dp9
g4
(lp10
I41
aI4981
aI63
aI12716
aI5
aI6383
aI47
aI302
aI45
aI3051
aI252
aI7157
aI42
aI8561
aI3
aI68
aI63
aI4136
aI7
aI5806
aI7
aI3567
aI182
aI56545
aI7624
aI3
aI7147
aI75
aI271
aI12716
aI1928
aI1379
aI119
aI45
aI3739
aI24
aI3
aI285
aI34
aI1260
aI5
aI63
aI4374
aI223
aI95
aI441
aI751
aI182
aI24
aI3
aI658
aI11673
aI3503
aI95
aI182
aI637
aI480
aI5
aI637
aI5656
aI63765
asg6
S'As proof that authors and publishers will continue to produce without copyrights  he cites the fact that hundreds of thousands of articles are uploaded onto the Internet by their authors every day  available to anyone in the world for free and that nearly all works written before 1900 are in the public domain  yet pre-1900 works are still published  and still sell  .'
p11
ss.