(dp1
S'input'
p2
(dp3
S'encoded'
p4
(lp5
I64
aI2179
aI13605
aI2258
aI45
aI2194
asS'ori'
p6
S'This house prefers trade to aid'
p7
ssS'output'
p8
(dp9
g4
(lp10
I6375
aI2203
aI182
aI400
aI5546
aI7
aI270
aI271
aI380
aI6375
aI442
aI63765
asg6
S'Administrative barriers: Countries are sometimes accused of using their various administrative rules (e .g .'
p11
ss.