(dp1
S'input'
p2
(dp3
S'encoded'
p4
(lp5
I64
aI2179
aI43
aI63
aI2157
aI2565
aI493
aI19084
aI382
aI4850
asS'ori'
p6
S"This house believes that Israel's 2008-2009 military operations against Gaza were justified"
p7
ssS'output'
p8
(dp9
g4
(lp10
I14
aI2805
aI16619
aI3
aI939
aI5904
aI13733
aI5
aI3
aI19088
aI2763
aI14619
aI17377
aI89
aI11995
aI24945
aI24
aI92
aI155
aI17377
aI34
aI3
aI237
aI413
aI1530
aI31353
aI2940
aI311
aI3
aI2409
aI4996
aI7
aI25094
aI63765
aI226
aI117
aI89
aI1896
aI78
aI382
aI19330
aI993
aI3
aI1274
aI440
aI89
aI8666
aI4817
aI918
aI63765
aI3
aI6056
aI1405
aI2161
aI5
aI1237
aI248
aI2161
aI4146
aI89
aI4054
aI1849
aI63765
aI3
aI1608
aI1379
aI3
aI6054
aI2951
aI51
aI3099
aI45
aI12169
aI73
aI311
aI870
aI8953
aI3
aI11995
aI4477
asg6
S'On February 27  2008  Hamas  the Popular Resistance Committees and the Palestinian Islamic Jihad fired a rocket barrage  in which they fired for the first time six Grad missiles at the industrial city of Ashkelon . While only a few people were lightly injured  the attack had a profound psychological impact . The Israeli Prime Minister and several other minister vowed a tough response . The next day  the IDF started an operation to halt  or at least decrease the rocket fire'
p11
ss.