(dp1
S'input'
p2
(dp3
S'encoded'
p4
(lp5
I64
aI2179
aI394
aI4261
aI8667
aI3
aI9361
aI5
aI17069
asS'ori'
p6
S'This house would prohibit burning the stars and stripes'
p7
ssS'output'
p8
(dp9
g4
(lp10
I3
aI3327
aI4279
aI75
aI3739
aI7
aI73
aI51
aI1222
aI73
aI13925
aI45
aI4804
aI159
aI3073
aI116
aI472
aI63765
asg6
S'The unauthorized communication by anyone of "Restricted Data"  or an attempt or conspiracy to communicate such data  is prohibited .'
p11
ss.