(dp1
S'input'
p2
(dp3
S'encoded'
p4
(lp5
I64
aI2179
aI13605
aI2258
aI45
aI2194
asS'ori'
p6
S'This house prefers trade to aid'
p7
ssS'output'
p8
(dp9
g4
(lp10
I1950
aI12905
aI45
aI2258
aI204
aI19
aI2287
aI5
aI8489
aI2851
aI96
aI622
aI24
aI3
aI399
aI7
aI10400
aI131
aI174
aI158
aI34
aI1343
aI2882
aI10781
aI63765
asg6
S'Second  barriers to trade resulting from domestic and external producer support  primarily in the form of subsidies  but also including  for example  export credits .'
p11
ss.