(dp1
S'input'
p2
(dp3
S'encoded'
p4
(lp5
I64
aI2179
aI43
aI63
aI3
aI4990
aI4991
aI116
aI4850
aI24
aI12166
aI3
aI475
aI7
aI3532
aI3290
aI7
aI4714
asS'ori'
p6
S'This house believes that the Catholic Church is justified in forbidding the use of barrier methods of contraception'
p7
ssS'output'
p8
(dp9
g4
(lp10
I645
aI63765
aI6645
aI21191
aI1093
aI63765
aI2164
aI7
aI3
aI4232
aI8506
aI6298
aI10756
aI3444
aI845
aI7
aI4801
aI937
aI93
aI7
aI3
aI21192
aI4592
aI14
aI3
aI5323
aI5
aI667
aI6787
aI34
aI21193
aI10439
aI182
aI1856
aI45
aI11884
aI89
aI6298
aI21045
aI63765
asg6
S'R . Albert Mohler  Jr .  president of the Southern Baptist Theological Seminary  asserted "The issue of Mary remains one of the hottest debates on the Protestant/Catholic divide  and new proposals for Marian doctrines are likely to ignite a theological conflagration .'
p11
ss.