(dp1
S'input'
p2
(dp3
S'encoded'
p4
(lp5
I64
aI2179
aI43
aI17
aI4941
aI857
aI3211
asS'ori'
p6
S'This house believes social deprivation causes crime'
p7
ssS'output'
p8
(dp9
g4
(lp10
I378
aI3
aI27195
aI7
aI100
aI3211
aI41
aI5052
aI5
aI18399
aI134
aI41
aI89
aI1849
aI45
aI4922
aI116
aI6200
aI63765
asg6
S'However  the characterization of some crime as "working class crime" and portraying it as a response to oppression is problematic .'
p11
ss.