(dp1
S'input'
p2
(dp3
S'encoded'
p4
(lp5
I64
aI2179
aI13605
aI2258
aI45
aI2194
asS'ori'
p6
S'This house prefers trade to aid'
p7
ssS'output'
p8
(dp9
g4
(lp10
I24
aI697
aI2901
aI2135
aI2194
aI45
aI223
aI2760
aI2203
aI122
aI2155
aI63765
asg6
S'In 2002  total gross foreign aid to all developing countries was $76 billion .'
p11
ss.