(dp1
S'input'
p2
(dp3
S'encoded'
p4
(lp5
I64
aI2179
aI394
aI2017
aI628
asS'ori'
p6
S'This house would ban gambling'
p7
ssS'output'
p8
(dp9
g4
(lp10
I233
aI45
aI3
aI7689
aI12338
aI2266
aI89
aI2134
aI34
aI7689
aI12338
aI2503
aI13415
aI6021
aI9224
aI24241
aI36998
aI5
aI25530
aI2895
aI5
aI2266
aI2895
aI7
aI2301
aI45
aI9105
aI3
aI2156
aI7
aI2320
aI2938
aI5
aI404
aI3205
aI63765
asg6
S'According to the Poker Players Alliance  a grass-roots organization for poker players  federal prosecutors ordered Citibank  Wells Fargo and Goldwater Bank and Alliance Bank of Arizona to freeze the accounts of Allied Systems and Account Services  .'
p11
ss.