(dp1
S'input'
p2
(dp3
S'encoded'
p4
(lp5
I64
aI2179
aI235
aI3
aI2136
aI7
aI3
aI2306
aI7
aI2390
asS'ori'
p6
S'This house supports the one-child policy of the republic of China'
p7
ssS'output'
p8
(dp9
g4
(lp10
I5489
aI10501
aI116
aI89
aI2857
aI2878
aI7
aI3592
aI34
aI3874
aI2569
aI3591
aI638
aI3
aI2548
aI92
aI124
aI3760
aI3217
aI85
aI63765
asg6
S'Title X is a vital source of funding for family planning clinics throughout the nation  which provide reproductive health care .'
p11
ss.