(dp1
S'input'
p2
(dp3
S'encoded'
p4
(lp5
I64
aI2179
aI43
aI63
aI3
aI21
aI45
aI12715
aI417
aI99
aI316
aI2897
asS'ori'
p6
S'This house believes that the right to asylum should not be absolute'
p7
ssS'output'
p8
(dp9
g4
(lp10
I24
aI3
aI3579
aI7
aI351
aI350
aI7
aI17531
aI5
aI3
aI41834
aI206
aI12
aI1518
aI41841
aI45
aI3
aI4528
aI7
aI271
aI18482
aI11653
aI3
aI631
aI394
aI316
aI7241
aI45
aI2772
aI3
aI1447
aI1047
aI4506
aI63765
asg6
S'In the absence of any evidence of departure  and the overstayer having been fully awakened to the prospect of their impending arrest  the police would be invited to visit the last known address .'
p11
ss.