(dp1
S'input'
p2
(dp3
S'encoded'
p4
(lp5
I64
aI2179
aI43
aI63
aI323
aI417
aI10009
aI211
aI9035
aI249
aI45
aI3426
aI211
aI2144
aI595
aI17
aI96
asS'ori'
p6
S'This house believes that Europe should weaken its austerity measures to guarantee its citizens greater social support'
p7
ssS'output'
p8
(dp9
g4
(lp10
I89
aI641
aI8926
aI122
aI8927
aI1560
aI8928
aI8929
aI4194
aI63765
aI8930
aI81
aI2062
aI3
aI2240
aI7
aI5
aI5468
aI8872
aI2158
aI24
aI25
aI3168
aI7
aI4795
aI8885
aI63765
asg6
S'A notable proponent was Ukrainian American economist Abba P . Lerner  who founded the school of Neo-Chartalism  and advocated deficit spending in his theory of functional finance .'
p11
ss.