(dp1
S'input'
p2
(dp3
S'encoded'
p4
(lp5
I64
aI2179
aI394
aI2017
aI628
asS'ori'
p6
S'This house would ban gambling'
p7
ssS'output'
p8
(dp9
g4
(lp10
I3
aI1305
aI7177
aI45
aI223
aI5216
aI628
aI3987
aI4748
aI755
aI717
aI24
aI1005
aI73
aI6784
aI755
aI926
aI73
aI2135
aI4443
aI63765
asg6
S'The offense applies to all interactive gambling service providers  whether based in Australia or offshore  whether Australian or foreign owned .'
p11
ss.