(dp1
S'input'
p2
(dp3
S'encoded'
p4
(lp5
I64
aI2179
aI43
aI63
aI11083
aI10046
aI417
aI316
aI89
aI3135
aI4603
asS'ori'
p6
S'This house believes that Holocaust denial should be a criminal offence'
p7
ssS'output'
p8
(dp9
g4
(lp10
I3
aI2483
aI3083
aI63
aI24
aI3393
aI7
aI3500
aI7
aI3
aI32677
aI3
aI16526
aI3361
aI45
aI3
aI1795
aI7
aI3500
aI32677
aI16308
aI63
aI42
aI8467
aI45
aI475
aI3
aI57
aI7
aI4640
aI45
aI6037
aI4212
aI493
aI7275
aI63765
asg6
S"The court concludes that in application of article 17 of the ECHR  the plaintiff can't appeal to the protection of article 10 ECHR  insofar that he wants to use the freedom of expression to dispute crimes against humanity  ."
p11
ss.