(dp1
S'input'
p2
(dp3
S'encoded'
p4
(lp5
I64
aI2179
aI394
aI2976
aI12243
aI24
aI954
aI126
aI1560
aI10723
asS'ori'
p6
S'This house would implement playoffs in collegiate level American football'
p7
ssS'output'
p8
(dp9
g4
(lp10
I1237
aI566
aI2961
aI4275
aI382
aI29728
aI75
aI15029
aI30413
aI5
aI7467
aI62
aI3438
aI45
aI1737
aI271
aI5561
aI3544
aI12147
aI19
aI34996
aI45
aI12206
aI2298
aI9046
aI7
aI248
aI13031
aI4144
aI63765
asg6
S'Several Associated Press (AP) voters were besieged by fan emails and phone calls attempting to sway their votes  apparently spurred from Brown\'s pleas to rank Texas ahead of other "less deserving teams .'
p11
ss.