(dp1
S'input'
p2
(dp3
S'encoded'
p4
(lp5
I64
aI2179
aI43
aI63
aI3
aI4990
aI4991
aI116
aI4850
aI24
aI12166
aI3
aI475
aI7
aI3532
aI3290
aI7
aI4714
asS'ori'
p6
S'This house believes that the Catholic Church is justified in forbidding the use of barrier methods of contraception'
p7
ssS'output'
p8
(dp9
g4
(lp10
I725
aI3217
aI6941
aI5
aI113
aI100
aI2767
aI167
aI142
aI155
aI182
aI923
aI3
aI117
aI258
aI45
aI991
aI3
aI7943
aI63765
asg6
S'Many health workers and even some religious figures feel they are currently the only means to stop the epidemic .'
p11
ss.