(dp1
S'input'
p2
(dp3
S'encoded'
p4
(lp5
I64
aI2179
aI43
aI63
aI1036
aI4828
aI33250
aI116
aI25073
aI45
aI3315
aI4562
asS'ori'
p6
S'This house believes that male infant circumcision is tantamount to child abuse'
p7
ssS'output'
p8
(dp9
g4
(lp10
I42
aI174
aI2973
aI63
aI134
aI116
aI34
aI89
aI3833
aI60
aI4895
aI51
aI33239
aI460
aI55
aI440
aI8803
aI2189
aI45
aI2341
aI19
aI1063
aI63765
asg6
S'He also warned that it is "hard for a woman with whom an uncircumcised man has had sexual intercourse to separate from him .'
p11
ss.