(dp1
S'input'
p2
(dp3
S'encoded'
p4
(lp5
I64
aI2179
aI43
aI63
aI3
aI21
aI45
aI12715
aI417
aI99
aI316
aI2897
asS'ori'
p6
S'This house believes that the right to asylum should not be absolute'
p7
ssS'output'
p8
(dp9
g4
(lp10
I233
aI45
aI93
aI6201
aI17082
aI4367
aI24
aI2451
aI4793
aI207
aI19
aI3
aI13714
aI12419
aI63765
asg6
S'According to one specialist  detention centers in Russia differ little from the countrys prisons .'
p11
ss.