(dp1
S'input'
p2
(dp3
S'encoded'
p4
(lp5
I64
aI2179
aI394
aI2017
aI628
asS'ori'
p6
S'This house would ban gambling'
p7
ssS'output'
p8
(dp9
g4
(lp10
I604
aI3
aI7704
aI182
aI513
aI4634
aI2138
aI155
aI182
aI153
aI4570
aI19
aI10
aI2511
aI3756
aI628
aI5
aI182
aI107
aI4200
aI459
aI2503
aI70
aI63765
asg6
S'Because the tribes are considered sovereign nations  they are often exempt from state laws restricting gambling  and are instead regulated under federal law .'
p11
ss.