(dp1
S'input'
p2
(dp3
S'encoded'
p4
(lp5
I64
aI2179
aI394
aI117
aI7428
aI21151
aI34
aI11389
aI2042
aI24
aI4364
asS'ori'
p6
S'This house would only teach abstinence for sex education in schools'
p7
ssS'output'
p8
(dp9
g4
(lp10
I4741
aI311
aI3
aI4750
aI7
aI2300
aI4347
aI4348
aI133
aI63
aI100
aI17092
aI5
aI324
aI8578
aI268
aI24
aI3385
aI11389
aI41
aI89
aI998
aI45
aI1292
aI16890
aI2189
aI63765
asg6
S'Researchers at the University of California  San Francisco believe that some teens  and particularly girls  engage in oral sex as a way to avoid vaginal intercourse  .'
p11
ss.