(dp1
S'input'
p2
(dp3
S'encoded'
p4
(lp5
I64
aI2179
aI43
aI3
aI626
aI187
aI116
aI1989
aI34
aI3102
aI2223
asS'ori'
p6
S"This house believes the United States is responsible for Mexico's drugs war"
p7
ssS'output'
p8
(dp9
g4
(lp10
I24
aI7
aI15283
aI5047
aI206
aI6675
aI3101
aI3102
aI24
aI271
aI75
aI63
aI6832
aI440
aI7883
aI45
aI63765
asg6
S'In 1994  28 .5% of Canadians reported having consumed illicit drugs in their life; by 2004  that figure had risen to 45% .'
p11
ss.