(dp1
S'input'
p2
(dp3
S'encoded'
p4
(lp5
I64
aI2179
aI43
aI63
aI2659
aI417
aI1690
aI3
aI12048
aI7
aI19084
asS'ori'
p6
S'This house believes that Israel should lift the blockade of Gaza'
p7
ssS'output'
p8
(dp9
g4
(lp10
I479
aI19249
aI1844
aI12259
aI1508
aI5
aI12951
aI9160
aI11
aI12
aI311
aI1727
aI577
aI34
aI4422
aI63765
asg6
S'A4 paper  crayons  stationary  soccer balls  and musical instruments have been  at times  banned for import  .'
p11
ss.