(dp1
S'input'
p2
(dp3
S'encoded'
p4
(lp5
I64
aI2179
aI394
aI4261
aI8667
aI3
aI9361
aI5
aI17069
asS'ori'
p6
S'This house would prohibit burning the stars and stripes'
p7
ssS'output'
p8
(dp9
g4
(lp10
I3
aI10
aI440
aI742
aI63
aI211
aI2444
aI382
aI136
aI1185
aI138
aI6249
aI2381
aI2446
aI604
aI134
aI3478
aI45
aI10008
aI3
aI5449
aI41
aI89
aI3997
aI7
aI150
aI6218
aI5
aI604
aI134
aI3478
aI45
aI1049
aI128
aI63765
asg6
S"The State had said that its interests were more important than Johnson's symbolic speech rights because it wanted to preserve the flag as a symbol of national unity  and because it wanted to maintain order ."
p11
ss.