(dp1
S'input'
p2
(dp3
S'encoded'
p4
(lp5
I64
aI2179
aI43
aI63
aI7382
aI116
aI400
aI4713
asS'ori'
p6
S'This house believes that bribery is sometimes acceptable'
p7
ssS'output'
p8
(dp9
g4
(lp10
I24
aI3950
aI2390
aI18324
aI1708
aI55
aI1199
aI87
aI24692
aI63
aI93
aI171
aI2159
aI24
aI89
aI1376
aI3342
aI2933
aI988
aI1012
aI7188
aI34
aI4198
aI289
aI43658
aI24
aI5915
aI397
aI25
aI6392
aI63765
asg6
S'" In contemporary China  bribe taking has become so entrenched that one party secretary in a poor county received repeated death threats for rejecting over 600 000 Renminbi in bribes during his tenure .'
p11
ss.