(dp1
S'input'
p2
(dp3
S'encoded'
p4
(lp5
I64
aI2179
aI43
aI24
aI3
aI475
aI7
aI12436
aI3364
asS'ori'
p6
S'This house believes in the use of affirmative action'
p7
ssS'output'
p8
(dp9
g4
(lp10
I273
aI116
aI448
aI2603
aI63
aI5969
aI7
aI511
aI116
aI1228
aI34
aI2022
aI1381
aI273
aI182
aI4066
aI3293
aI1191
aI40
aI134
aI116
aI1228
aI691
aI134
aI116
aI89
aI2755
aI4605
aI63765
asg6
S'There is general agreement that equality of opportunity is good for society  although there are diverse views about how it is good  since it is a value judgement  .'
p11
ss.