(dp1
S'input'
p2
(dp3
S'encoded'
p4
(lp5
I64
aI2179
aI43
aI63
aI6670
aI546
aI417
aI316
aI89
aI1334
aI3108
aI7
aI4849
aI1886
aI2855
asS'ori'
p6
S'This house believes that wind power should be a primary focus of future energy supply'
p7
ssS'output'
p8
(dp9
g4
(lp10
I1488
aI3716
aI7
aI120
aI7098
aI905
aI7099
aI5
aI7071
aI566
aI60
aI6693
aI3174
aI63765
aI116
aI99
aI89
aI4368
asg6
S'"A small minority of those exposed report annoyance and stress associated with noise perception . ." [however] "Annoyance is not a disease ."'
p11
ss.