(dp1
S'input'
p2
(dp3
S'encoded'
p4
(lp5
I64
aI2179
aI394
aI16642
aI1376
aI5269
asS'ori'
p6
S'This house would subsidize poor communities'
p7
ssS'output'
p8
(dp9
g4
(lp10
I97
aI143
aI116
aI63
aI3
aI7412
aI1893
aI3
aI1376
aI73
aI2507
aI951
aI5855
aI127
aI5
aI508
aI417
aI738
aI100
aI7
aI120
aI127
aI63765
asg6
S'Another argument is that the rich exploit the poor or otherwise gain unfair benefits  and thus should return some of those benefits .'
p11
ss.