(dp1
S'input'
p2
(dp3
S'encoded'
p4
(lp5
I64
aI2179
aI394
aI5370
aI7146
aI4585
aI2446
asS'ori'
p6
S'This house would abolish intellectual property rights'
p7
ssS'output'
p8
(dp9
g4
(lp10
I3
aI2809
aI500
aI99
aI2267
aI3
aI24171
aI2533
aI487
aI63765
asg6
S'The USA did not sign the Berne Convention until 1989  .'
p11
ss.