(dp1
S'input'
p2
(dp3
S'encoded'
p4
(lp5
I64
aI2179
aI235
aI3
aI2136
aI7
aI3
aI2306
aI7
aI2390
asS'ori'
p6
S'This house supports the one-child policy of the republic of China'
p7
ssS'output'
p8
(dp9
g4
(lp10
I3
aI281
aI8313
aI5652
aI24
aI17779
aI182
aI6656
aI5
aI3492
aI4859
aI60
aI89
aI1932
aI3716
aI176
aI443
aI2767
aI1361
aI63765
asg6
S'The major religions practiced in Macau are Buddhism and traditional beliefs with a smaller minority claiming no religious belief .'
p11
ss.