(dp1
S'input'
p2
(dp3
S'encoded'
p4
(lp5
I64
aI2179
aI43
aI63
aI3
aI4538
aI7
aI4434
aI7793
aI283
aI45
aI3586
aI417
aI316
aI577
asS'ori'
p6
S'This house believes that the sale of violent video games to minors should be banned'
p7
ssS'output'
p8
(dp9
g4
(lp10
I22277
aI48738
aI7
aI3
aI48732
aI418
aI63
aI4849
aI4592
aI289
aI4434
aI7793
aI283
aI88
aI1944
aI658
aI3357
aI24
aI421
aI45
aI667
aI2474
aI3848
aI63
aI2319
aI60
aI6383
aI5
aI8532
aI223
aI11
aI89
aI2210
aI24
aI1543
aI5268
aI1931
aI19
aI132
aI283
aI63765
asg6
S'Sean Bersell of the EMA noted that future debates over violent video games may involve public opinion in addition to new legislation  noting that "Retailers along with publishers and parents all have a role in keeping kids away from these games .'
p11
ss.