(dp1
S'input'
p2
(dp3
S'encoded'
p4
(lp5
I64
aI2179
aI394
aI2998
aI3
aI4360
aI7
aI3249
aI6804
aI24
aI3
aI102
asS'ori'
p6
S'This house would encourage the creation of private universities in the UK'
p7
ssS'output'
p8
(dp9
g4
(lp10
I767
aI2639
aI13273
aI24
aI3249
aI5981
aI3592
aI122
aI2494
aI800
aI45
aI1616
aI5136
aI34
aI267
aI2439
aI60
aI3
aI12356
aI63
aI14029
aI394
aI1746
aI113
aI75
aI3
aI3059
aI63765
asg6
S'Ten million pounds in private equity funding was subsequently raised to cover costs for two years  with the expectation that NCH would break even by the third  .'
p11
ss.