(dp1
S'input'
p2
(dp3
S'encoded'
p4
(lp5
I64
aI2179
aI394
aI16642
aI1376
aI5269
asS'ori'
p6
S'This house would subsidize poor communities'
p7
ssS'output'
p8
(dp9
g4
(lp10
I8069
aI7142
aI4439
aI40
aI658
aI2158
aI116
aI8060
aI967
aI2598
aI3136
aI755
aI1038
aI41
aI23148
aI73
aI1376
aI1421
aI16203
aI1376
aI63765
asg6
S'Targeting assessment describes how public spending is distributed across population groups  whether defined as deciles or poor versus non poor .'
p11
ss.