(dp1
S'input'
p2
(dp3
S'encoded'
p4
(lp5
I64
aI2179
aI43
aI17
aI4941
aI857
aI3211
asS'ori'
p6
S'This house believes social deprivation causes crime'
p7
ssS'output'
p8
(dp9
g4
(lp10
I42
aI174
aI15377
aI63
aI2825
aI708
aI78
aI620
aI3
aI475
aI7
aI7982
aI63765
asg6
S'He also theorized that institutions control people through the use of discipline  .'
p11
ss.