(dp1
S'input'
p2
(dp3
S'encoded'
p4
(lp5
I64
aI2179
aI43
aI63
aI3
aI4990
aI4991
aI116
aI4850
aI24
aI12166
aI3
aI475
aI7
aI3532
aI3290
aI7
aI4714
asS'ori'
p6
S'This house believes that the Catholic Church is justified in forbidding the use of barrier methods of contraception'
p7
ssS'output'
p8
(dp9
g4
(lp10
I8652
aI495
aI662
aI63765
aI13872
aI4453
aI63
aI1825
aI77
aI63
aI495
aI3007
aI2233
aI394
aI99
aI11
aI1590
aI3007
aI13878
aI5204
aI324
aI691
aI42
aI122
aI443
aI13879
aI8275
aI63765
asg6
S'Journalist John L . Allen claims that "it\'s virtually certain that John Paul I would not have reversed Paul VIs teaching  particularly since he was no doctrinal radical .'
p11
ss.