(dp1
S'input'
p2
(dp3
S'encoded'
p4
(lp5
I64
aI2179
aI235
aI3
aI2136
aI7
aI3
aI2306
aI7
aI2390
asS'ori'
p6
S'This house supports the one-child policy of the republic of China'
p7
ssS'output'
p8
(dp9
g4
(lp10
I24
aI3
aI5982
aI7
aI64
aI21
aI155
aI417
aI84
aI736
aI404
aI3
aI1227
aI7
aI271
aI3976
aI5
aI4849
aI3862
aI5
aI271
aI6447
aI1636
aI3
aI2178
aI63765
asg6
S'In the exercise of this right  they should take into account the needs of their living and future children and their responsibilities towards the community .'
p11
ss.