(dp1
S'input'
p2
(dp3
S'encoded'
p4
(lp5
I64
aI2179
aI394
aI2017
aI262
asS'ori'
p6
S'This house would ban boxing'
p7
ssS'output'
p8
(dp9
g4
(lp10
I366
aI3
aI762
aI1747
aI1295
aI3
aI611
aI1070
aI116
aI24
aI1839
aI1597
aI45
aI801
aI271
aI299
aI63765
asg6
S"After the punch glances off  the fighter's back hand is in perfect position to hit their out-of-position opponent ."
p11
ss.