(dp1
S'input'
p2
(dp3
S'encoded'
p4
(lp5
I64
aI2179
aI43
aI63
aI3
aI4991
aI7
aI180
aI417
aI316
aI5396
aI19
aI3
aI169
aI10
asS'ori'
p6
S'This house believes that the Church of England should be separated from the British state'
p7
ssS'output'
p8
(dp9
g4
(lp10
I24
aI59922
aI646
aI63765
aI3881
aI2145
aI63765
aI3
aI2482
aI2483
aI513
aI51
aI3881
aI70
aI63
aI221
aI134
aI89
aI3211
aI7428
aI3
aI3168
aI73
aI2860
aI63
aI8269
aI2650
aI73
aI17760
aI19
aI89
aI979
aI128
aI7
aI3921
aI73
aI3442
aI73
aI475
aI24
aI351
aI159
aI232
aI89
aI8512
aI63
aI64
aI3168
aI24
aI351
aI2240
aI73
aI4750
aI63
aI2933
aI658
aI6198
aI63765
asg6
S'In Epperson v . Arkansas  393 U .S . 97 (1968)  the Supreme Court considered an Arkansas law that made it a crime "to teach the theory or doctrine that mankind ascended or descended from a lower order of animals " or "to adopt or use in any such institution a textbook that teaches" this theory in any school or university that received public funds .'
p11
ss.