(dp1
S'input'
p2
(dp3
S'encoded'
p4
(lp5
I64
aI2179
aI43
aI63
aI7382
aI116
aI400
aI4713
asS'ori'
p6
S'This house believes that bribery is sometimes acceptable'
p7
ssS'output'
p8
(dp9
g4
(lp10
I3
aI5578
aI17616
aI3081
aI24
aI2390
aI230
aI7631
aI34
aI37482
aI45
aI1893
aI5
aI708
aI3
aI1691
aI2234
aI7
aI16
aI5
aI226
aI13215
aI45
aI7170
aI8123
aI1112
aI22708
aI2219
aI182
aI3132
aI63765
asg6
S'The politically unchallenged regime in China creates opportunities for cadres to exploit and control the rapid growth of economic opportunities; and while incentives to corruption grow  effective countervailing forces are absent  .'
p11
ss.