(dp1
S'input'
p2
(dp3
S'encoded'
p4
(lp5
I64
aI2179
aI43
aI24
aI3
aI475
aI7
aI12436
aI3364
asS'ori'
p6
S'This house believes in the use of affirmative action'
p7
ssS'output'
p8
(dp9
g4
(lp10
I226
aI134
aI116
aI3107
aI63
aI5903
aI10535
aI116
aI6418
aI2643
aI2985
aI15974
aI63
aI136
aI2527
aI274
aI11
aI788
aI211
aI238
aI63765
asg6
S'While it is true that overt racism is rare today  critics insist that more covert forms have taken its place .'
p11
ss.