(dp1
S'input'
p2
(dp3
S'encoded'
p4
(lp5
I64
aI2179
aI43
aI63
aI2157
aI2565
aI493
aI19084
aI382
aI4850
asS'ori'
p6
S"This house believes that Israel's 2008-2009 military operations against Gaza were justified"
p7
ssS'output'
p8
(dp9
g4
(lp10
I3
aI18368
aI3316
aI4477
aI466
aI100
aI7
aI3
aI19136
aI226
aI24
aI31180
aI51
aI6056
aI10617
aI17377
aI89
aI1828
aI736
aI51
aI5839
aI1444
aI41
aI25186
aI23431
aI2377
aI382
aI1708
aI1616
aI24
aI134
aI3188
aI2377
aI5
aI11030
aI63765
asg6
S'The patrol returned fire  hitting some of the gunmen  while in Jabalya  an Israeli tank fired a shell into an abandoned building as Golani Brigade soldiers were taking cover in it  killing 3 soldiers and wounding 24 .'
p11
ss.