(dp1
S'input'
p2
(dp3
S'encoded'
p4
(lp5
I64
aI2179
aI394
aI5370
aI3
aI5286
asS'ori'
p6
S'This house would abolish the monarchy'
p7
ssS'output'
p8
(dp9
g4
(lp10
I24
aI667
aI6113
aI1251
aI24
aI3
aI626
aI2549
aI3
aI878
aI6186
aI116
aI89
aI658
aI9310
aI5
aI116
aI8939
aI24
aI3
aI237
aI10571
aI24
aI2116
aI63765
asg6
S"In New Zealand  unlike in the United Kingdom  the Queen's Official Birthday is a public holiday and is celebrated in the first Monday in June ."
p11
ss.