(dp1
S'input'
p2
(dp3
S'encoded'
p4
(lp5
I64
aI2179
aI235
aI3858
aI3
aI2240
aI4527
aI3485
aI45
asS'ori'
p6
S'This house supports raising the school leaving age to 18'
p7
ssS'output'
p8
(dp9
g4
(lp10
I10401
aI2042
aI116
aI3508
aI788
aI45
aI1074
aI8360
aI5
aI10308
aI2042
aI41
aI261
aI41
aI5236
aI2042
aI5
aI477
aI63765
asg6
S'Tertiary education is normally taken to include undergraduate and postgraduate education  as well as vocational education and training .'
p11
ss.