(dp1
S'input'
p2
(dp3
S'encoded'
p4
(lp5
I64
aI2179
aI43
aI63
aI3
aI4990
aI4991
aI116
aI4850
aI24
aI12166
aI3
aI475
aI7
aI3532
aI3290
aI7
aI4714
asS'ori'
p6
S'This house believes that the Catholic Church is justified in forbidding the use of barrier methods of contraception'
p7
ssS'output'
p8
(dp9
g4
(lp10
I7447
aI20997
aI20270
aI174
aI2623
aI401
aI45
aI41
aI7447
aI20997
aI7438
aI5
aI35244
aI7438
aI182
aI17085
aI63
aI11
aI89
aI4229
aI1880
aI7
aI6241
aI291
aI7076
aI75
aI258
aI7
aI2445
aI8803
aI8935
aI158
aI16890
aI2189
aI3385
aI11389
aI5
aI31613
aI11389
aI63765
asg6
S'Sexually transmitted infections (STI)  also previously referred to as sexually transmitted diseases (STD) and venereal diseases (VD)  are illnesses that have a significant probability of transmission between humans by means of human sexual behavior  including vaginal intercourse  oral sex  and anal sex .'
p11
ss.