(dp1
S'input'
p2
(dp3
S'encoded'
p4
(lp5
I64
aI2179
aI43
aI223
aI2138
aI11
aI89
aI21
aI45
aI2185
aI372
asS'ori'
p6
S'This house believes all nations have a right to nuclear weapons'
p7
ssS'output'
p8
(dp9
g4
(lp10
I134
aI55
aI89
aI1051
aI7
aI5
aI116
aI3981
aI7
aI3982
aI89
aI33674
aI7
aI1671
aI73
aI2185
aI13253
aI63765
asg6
S'It has a range of 600&nbsp;km and is capable of carrying a payload of one-tonne conventional or nuclear warhead .'
p11
ss.