(dp1
S'input'
p2
(dp3
S'encoded'
p4
(lp5
I64
aI2179
aI43
aI8629
aI116
aI3
aI117
aI998
asS'ori'
p6
S'This house believes atheism is the only way'
p7
ssS'output'
p8
(dp9
g4
(lp10
I653
aI64
aI42
aI1966
aI18773
aI637
aI2784
aI41
aI257
aI4588
aI116
aI3580
aI2645
aI45
aI89
aI1361
aI63
aI4588
aI116
aI18818
aI73
aI835
aI4676
aI10933
aI63765
asg6
S'Despite this  he argued  naturalists still act as if morality is meaningful  leading to a belief that morality is normative  or holds objective truth .'
p11
ss.