(dp1
S'input'
p2
(dp3
S'encoded'
p4
(lp5
I64
aI2179
aI394
aI4325
aI2042
aI270
aI89
aI11605
aI3324
asS'ori'
p6
S'This house would fund education using a voucher scheme'
p7
ssS'output'
p8
(dp9
g4
(lp10
I378
aI35062
aI500
aI4477
aI89
aI6459
aI3313
aI440
aI12533
aI2652
aI3286
aI751
aI24
aI25916
aI51348
aI2240
aI24
aI3
aI1740
aI4395
aI15703
aI63765
asg6
S'However  Rhee did fire a principal she had hired seven weeks before in Shepherd Elementaryanother high-performing school in the upper Northwest neighborhood  .'
p11
ss.