(dp1
S'input'
p2
(dp3
S'encoded'
p4
(lp5
I64
aI2179
aI394
aI2773
aI12505
asS'ori'
p6
S'This house would embrace multiculturalism'
p7
ssS'output'
p8
(dp9
g4
(lp10
I217
aI7
aI2068
aI1405
aI9322
aI11
aI12
aI19
aI12088
aI5
aI508
aI11
aI5841
aI45
aI3204
aI2202
aI60
aI3
aI10326
aI60
aI89
aI696
aI7
aI633
aI1052
aI878
aI12504
aI92
aI534
aI3
aI3545
aI7
aI89
aI696
aI7
aI3205
aI24
aI15
aI878
aI7423
aI5
aI887
aI248
aI194
aI534
aI63
aI223
aI2188
aI14821
aI24
aI2547
aI116
aI14921
aI24
aI4169
aI5
aI28
aI63765
asg6
S"Most of Canada's recent prime ministers have been from Quebec  and thus have tried to improve relations with the province with a number of tactics  notably official bilingualism which required the provision of a number of services in both official languages and  among other things  required that all commercial packaging in Canada is printed in French and English ."
p11
ss.