(dp1
S'input'
p2
(dp3
S'encoded'
p4
(lp5
I64
aI2179
aI43
aI63
aI3
aI4990
aI4991
aI116
aI4850
aI24
aI12166
aI3
aI475
aI7
aI3532
aI3290
aI7
aI4714
asS'ori'
p6
S'This house believes that the Catholic Church is justified in forbidding the use of barrier methods of contraception'
p7
ssS'output'
p8
(dp9
g4
(lp10
I3
aI317
aI7
aI3284
aI3290
aI7
aI314
aI708
aI116
aI768
aI4881
aI45
aI296
aI24
aI1237
aI4099
aI6203
aI887
aI86
aI89
aI5033
aI7
aI3292
aI204
aI19
aI11389
aI252
aI6203
aI5
aI3
aI786
aI63
aI1980
aI88
aI1476
aI3495
aI773
aI89
aI4838
aI2889
aI34
aI3
aI3797
aI7
aI284
aI2405
aI4562
aI7
aI546
aI75
aI658
aI5462
aI5
aI89
aI3166
aI2498
aI7
aI4811
aI63765
asg6
S'The acceptance of artificial methods of birth control is then claimed to result in several negative consequences  among them a "general lowering of moral standards" resulting from sex without consequences  and the danger that men may reduce women "to being a mere instrument for the satisfaction of [their] own desires"; finally  abuse of power by public authorities  and a false sense of autonomy  .'
p11
ss.