(dp1
S'input'
p2
(dp3
S'encoded'
p4
(lp5
I64
aI2179
aI394
aI4325
aI2042
aI270
aI89
aI11605
aI3324
asS'ori'
p6
S'This house would fund education using a voucher scheme'
p7
ssS'output'
p8
(dp9
g4
(lp10
I836
aI10245
aI2397
aI45
aI2998
aI3386
aI4358
aI45
aI4680
aI965
aI4364
aI63765
asg6
S'Create tuition grants to encourage black students to leave white schools .'
p11
ss.