(dp1
S'input'
p2
(dp3
S'encoded'
p4
(lp5
I64
aI2179
aI43
aI63
aI2157
aI2565
aI493
aI19084
aI382
aI4850
asS'ori'
p6
S"This house believes that Israel's 2008-2009 military operations against Gaza were justified"
p7
ssS'output'
p8
(dp9
g4
(lp10
I64
aI752
aI122
aI12082
aI75
aI2445
aI2446
aI2142
aI63765
asg6
S'This decision was protested by human rights organizations  .'
p11
ss.