(dp1
S'input'
p2
(dp3
S'encoded'
p4
(lp5
I64
aI2179
aI394
aI2773
aI12505
asS'ori'
p6
S'This house would embrace multiculturalism'
p7
ssS'output'
p8
(dp9
g4
(lp10
I134
aI116
aI246
aI1614
aI63
aI10668
aI122
aI2794
aI75
aI5548
aI13834
aI39676
aI298
aI42
aI3470
aI1191
aI3
aI7
aI63765
asg6
S'It is generally recognised that Cameron was influenced by Sir Karl Popper when he wrote about the "paradox of tolerance" .'
p11
ss.