(dp1
S'input'
p2
(dp3
S'encoded'
p4
(lp5
I64
aI2179
aI394
aI4325
aI2042
aI270
aI89
aI11605
aI3324
asS'ori'
p6
S'This house would fund education using a voucher scheme'
p7
ssS'output'
p8
(dp9
g4
(lp10
I24
aI88
aI35062
aI2822
aI24
aI1561
aI7
aI2240
aI4662
aI11308
aI3
aI7719
aI4408
aI433
aI4220
aI27677
aI311
aI51
aI2117
aI7732
aI75
aI3
aI1560
aI2133
aI34
aI3862
aI89
aI4662
aI2042
aI2134
aI2062
aI5
aI3251
aI75
aI45742
aI51357
aI63765
asg6
S'In May 2011  Rhee spoke in favor of school choice alongside the Wisconsin Republican Governor Scott Walker at an event hosted by the American Federation for Children  a pro-school choice education organization founded and funded by Betsy DeVos  .'
p11
ss.