(dp1
S'input'
p2
(dp3
S'encoded'
p4
(lp5
I64
aI2179
aI13605
aI2258
aI45
aI2194
asS'ori'
p6
S'This house prefers trade to aid'
p7
ssS'output'
p8
(dp9
g4
(lp10
I36320
aI22311
aI3
aI2145
aI63765
aI2159
aI7
aI10
aI487
aI5810
aI64
aI5
aI1966
aI63
aI41
aI2258
aI12905
aI61973
aI60
aI2223
aI87
aI1260
aI2258
aI98
aI60
aI2250
aI63765
asg6
S'Cordell Hull  the U .S . secretary of state until 1944  believed this  and argued that as trade barriers dovetail with war  so free trade does with peace .'
p11
ss.