(dp1
S'input'
p2
(dp3
S'encoded'
p4
(lp5
I64
aI2179
aI394
aI60
aI23587
asS'ori'
p6
S'This house would re-engage with Myanmar'
p7
ssS'output'
p8
(dp9
g4
(lp10
I3
aI3093
aI122
aI1688
aI75
aI51
aI16
aI3324
aI263
aI3
aI12800
aI998
aI45
aI18401
aI89
aI7074
aI45
aI60749
aI223
aI5945
aI60
aI3
aI3461
aI7
aI6678
aI63765
asg6
S"The 1962 coup d'etat was followed by an economic scheme called the Burmese Way to Socialism  a plan to nationalise all industries  with the exception of agriculture ."
p11
ss.