(dp1
S'input'
p2
(dp3
S'encoded'
p4
(lp5
I64
aI2179
aI394
aI16642
aI1376
aI5269
asS'ori'
p6
S'This house would subsidize poor communities'
p7
ssS'output'
p8
(dp9
g4
(lp10
I132
aI182
aI1240
aI2068
aI256
aI63
aI382
aI4544
aI24
aI2404
aI24
aI3
aI437
aI759
aI7
aI3
aI23123
aI3
aI4099
aI4658
aI14
aI3
aI1376
aI7
aI3
aI578
aI7
aI9017
aI24
aI3
aI3217
aI5
aI2042
aI7178
aI24
aI3
aI63765
asg6
S'These are relatively recent programs that were implemented in Africa in the latter part of the 1990s  counterbalancing the negative effects on the poor of the introduction of fees in the health and education sectors in the 1980s .'
p11
ss.