(dp1
S'input'
p2
(dp3
S'encoded'
p4
(lp5
I64
aI2179
aI394
aI2998
aI3
aI4360
aI7
aI3249
aI6804
aI24
aI3
aI102
asS'ori'
p6
S'This house would encourage the creation of private universities in the UK'
p7
ssS'output'
p8
(dp9
g4
(lp10
I6419
aI10275
aI10256
aI14
aI7700
aI7680
aI75
aI100
aI3452
aI689
aI7704
aI182
aI174
aI658
aI2825
aI63765
asg6
S'Tribal colleges operated on Indian reservations by some federally recognized tribes are also public institutions .'
p11
ss.