(dp1
S'input'
p2
(dp3
S'encoded'
p4
(lp5
I64
aI2179
aI43
aI63
aI3
aI21
aI45
aI12715
aI417
aI99
aI316
aI2897
asS'ori'
p6
S'This house believes that the right to asylum should not be absolute'
p7
ssS'output'
p8
(dp9
g4
(lp10
I134
aI116
aI1856
aI378
aI63
aI3
aI4270
aI697
aI116
aI8006
aI7
aI3179
aI705
aI24
aI3130
aI2439
aI63765
asg6
S'It is likely however that the lesser total is reflective of fewer staff in previous years .'
p11
ss.