(dp1
S'input'
p2
(dp3
S'encoded'
p4
(lp5
I64
aI2179
aI43
aI63
aI17574
aI417
aI316
aI3481
aI34
aI271
aI79
asS'ori'
p6
S'This house believes that housewives should be paid for their work'
p7
ssS'output'
p8
(dp9
g4
(lp10
I3398
aI34
aI64
aI5624
aI134
aI88
aI48
aI45
aI3
aI877
aI63
aI3
aI192
aI146
aI1839
aI5651
aI34
aI79
aI3
aI152
aI104
aI24
aI3
aI192
aI34
aI3205
aI88
aI99
aI15250
aI4614
aI650
aI511
aI5084
aI7
aI413
aI698
aI24
aI4450
aI5
aI3
aI195
aI416
aI24
aI17630
aI3290
aI2118
aI19
aI5945
aI53
aI195
aI182
aI1719
aI17634
aI604
aI7
aI4583
aI4959
aI5
aI87
aI47
aI99
aI15250
aI2755
aI9347
aI79
aI63765
asg6
S'Reasons for this objection include: it may lead to the conclusion that the market provides perfect substitutes for non-market work ; the wage produced in the market for services may not accurately reflect "the actual opportunity cost of time spent in household production"; and the wages used in valuation methods come from industries where wages are already depressed because of gender inequalities  and so will not accurately value unpaid work  .'
p11
ss.