(dp1
S'input'
p2
(dp3
S'encoded'
p4
(lp5
I64
aI2179
aI394
aI2017
aI628
asS'ori'
p6
S'This house would ban gambling'
p7
ssS'output'
p8
(dp9
g4
(lp10
I2129
aI5
aI7666
aI7667
aI24
aI1341
aI373
aI3
aI1863
aI7
aI7607
aI24
aI3
aI2145
aI63765
asg6
S'Nevada  and Las Vegas in particular  became the center of gaming in the U .S .'
p11
ss.