(dp1
S'input'
p2
(dp3
S'encoded'
p4
(lp5
I64
aI2179
aI394
aI190
aI3
aI21
aI45
aI3895
aI834
asS'ori'
p6
S'This house would limit the right to bear arms'
p7
ssS'output'
p8
(dp9
g4
(lp10
I3
aI217
aI2068
aI9113
aI45
aI2611
aI70
aI24
aI6013
aI458
aI24
aI1906
aI298
aI3
aI260
aI89
aI667
aI2884
aI14914
aI4190
aI3
aI3982
aI7
aI3892
aI75
aI75
aI5359
aI3
aI710
aI7
aI45
aI1378
aI3923
aI4437
aI459
aI3585
aI10371
aI63765
asg6
S"The most recent update to gun law in Finland occurred in November 2007 when the government pre-empted a new EU directive prohibiting the carrying of firearms by under-18's by removing the ability of 1518-year-olds to carry hunting rifles under parental guidance ."
p11
ss.