(dp1
S'input'
p2
(dp3
S'encoded'
p4
(lp5
I64
aI2179
aI13605
aI2258
aI45
aI2194
asS'ori'
p6
S'This house prefers trade to aid'
p7
ssS'output'
p8
(dp9
g4
(lp10
I19082
aI174
aI3172
aI63
aI880
aI1228
aI6390
aI73
aI2328
aI116
aI6806
aI252
aI3
aI248
aI63765
asg6
S'Santiso also argues that neither good governance or democracy is sustainable without the other .'
p11
ss.