(dp1
S'input'
p2
(dp3
S'encoded'
p4
(lp5
I64
aI2179
aI43
aI3
aI626
aI187
aI116
aI1989
aI34
aI3102
aI2223
asS'ori'
p6
S"This house believes the United States is responsible for Mexico's drugs war"
p7
ssS'output'
p8
(dp9
g4
(lp10
I3
aI314
aI7
aI223
aI1157
aI2613
aI8679
aI116
aI3958
aI45
aI809
aI1157
aI3347
aI2503
aI631
aI7865
aI1149
aI21815
aI18425
aI58916
aI81
aI2062
aI3
aI58923
aI2616
aI24
aI5
aI706
aI223
aI1968
aI2613
aI2258
aI24
aI2299
aI5
aI3
aI3139
aI29563
aI967
aI3
aI2581
aI638
aI3
aI63765
asg6
S"The birth of all Mexican drug cartels is traced to former Mexican Judicial Federal Police agent Miguel Angel Felix Gallardo ('The Godfather')  who founded the Guadalajara Cartel in 1980 and controlled all illegal drug trade in Mexico and the trafficking corridors across the Mexico-USA border throughout the 1980s  ."
p11
ss.