(dp1
S'input'
p2
(dp3
S'encoded'
p4
(lp5
I64
aI2179
aI43
aI8629
aI116
aI3
aI117
aI998
asS'ori'
p6
S'This house believes atheism is the only way'
p7
ssS'output'
p8
(dp9
g4
(lp10
I42
aI8561
aI89
aI14612
aI53
aI3866
aI21846
aI10253
aI63
aI89
aI6643
aI3173
aI116
aI1796
aI131
aI3398
aI63
aI14523
aI116
aI6643
aI604
aI134
aI117
aI20764
aI89
aI1107
aI13160
aI5480
aI41
aI89
aI521
aI5
aI24557
aI7
aI1928
aI248
aI4514
aI63765
asg6
S'He cites a paragraph where Richard Swinburne agrees that a simpler explanation is better but reasons that theism is simpler because it only invokes a single substance  God  as a cause and maintainer of every other object .'
p11
ss.