(dp1
S'input'
p2
(dp3
S'encoded'
p4
(lp5
I64
aI2179
aI394
aI2017
aI628
asS'ori'
p6
S'This house would ban gambling'
p7
ssS'output'
p8
(dp9
g4
(lp10
I475
aI7
aI3
aI414
aI24
aI3
aI1257
aI5
aI8
aI475
aI24
aI100
aI2203
aI98
aI99
aI4937
aI1944
aI628
aI63765
asg6
S'Use of the word in the past  and modern use in some countries  does not necessarily involve gambling .'
p11
ss.