(dp1
S'input'
p2
(dp3
S'encoded'
p4
(lp5
I64
aI2179
aI394
aI5370
aI223
aI4013
aI10440
aI2446
aI4881
aI75
aI14482
aI11004
asS'ori'
p6
S'This house would abolish all collective bargaining rights claimed by trades unions'
p7
ssS'output'
p8
(dp9
g4
(lp10
I131
aI23884
aI427
aI1931
aI19
aI64
aI952
aI3
aI8865
aI63
aI203
aI1587
aI136
aI99
aI149
aI2409
aI23799
aI63765
asg6
S'But Haywood took away from this experience the conviction that labor needed more  not less  industrial unionism .'
p11
ss.