(dp1
S'input'
p2
(dp3
S'encoded'
p4
(lp5
I64
aI2179
aI394
aI4261
aI8667
aI3
aI9361
aI5
aI17069
asS'ori'
p6
S'This house would prohibit burning the stars and stripes'
p7
ssS'output'
p8
(dp9
g4
(lp10
I134
aI55
aI13475
aI4156
aI5
aI965
aI17069
aI3344
aI3
aI8747
aI2624
aI5
aI3
aI169
aI2131
aI452
aI24
aI89
aI6802
aI24
aI3
aI1740
aI731
aI63765
asg6
S'It has 13 alternate red and white stripes representing the Thirteen Colonies and the British Union Jack  in a square in the upper left-hand corner  .'
p11
ss.