(dp1
S'input'
p2
(dp3
S'encoded'
p4
(lp5
I64
aI2179
aI43
aI223
aI2138
aI11
aI89
aI21
aI45
aI2185
aI372
asS'ori'
p6
S'This house believes all nations have a right to nuclear weapons'
p7
ssS'output'
p8
(dp9
g4
(lp10
I3
aI7700
aI260
aI41526
aI4850
aI64
aI378
aI75
aI176
aI63
aI12146
aI9782
aI122
aI89
aI2185
aI9325
asg6
S'The Indian government controversially justified this  however  by claiming that Smiling Buddha was a "peaceful nuclear explosion ."'
p11
ss.