(dp1
S'input'
p2
(dp3
S'encoded'
p4
(lp5
I64
aI2179
aI43
aI63
aI2659
aI417
aI1690
aI3
aI12048
aI7
aI19084
asS'ori'
p6
S'This house believes that Israel should lift the blockade of Gaza'
p7
ssS'output'
p8
(dp9
g4
(lp10
I93
aI7024
aI742
aI155
aI382
aI99
aI547
aI45
aI1610
aI12684
aI5
aI382
aI25101
aI638
aI63765
asg6
S'One activist said they were not allowed to contact lawyers and were videotaped throughout  .'
p11
ss.