(dp1
S'input'
p2
(dp3
S'encoded'
p4
(lp5
I64
aI2179
aI43
aI63
aI3
aI4990
aI4991
aI116
aI4850
aI24
aI12166
aI3
aI475
aI7
aI3532
aI3290
aI7
aI4714
asS'ori'
p6
S'This house believes that the Catholic Church is justified in forbidding the use of barrier methods of contraception'
p7
ssS'output'
p8
(dp9
g4
(lp10
I24
aI3
aI4326
aI7
aI3
aI6246
aI8803
aI4562
aI7194
aI100
aI2985
aI11
aI2162
aI63
aI10977
aI9835
aI122
aI89
aI6197
aI5085
aI63765
asg6
S'In the wake of the clergy sexual abuse scandals  some critics have charged that priestly celibacy was a contributing factor .'
p11
ss.