(dp1
S'input'
p2
(dp3
S'encoded'
p4
(lp5
I64
aI2179
aI394
aI2773
aI12505
asS'ori'
p6
S'This house would embrace multiculturalism'
p7
ssS'output'
p8
(dp9
g4
(lp10
I233
aI45
aI53616
aI5
aI1015
aI3
aI15801
aI3708
aI182
aI226
aI3
aI2671
aI5989
aI3708
aI182
aI4886
aI5
aI4620
aI63765
asg6
S'According to Gudykunst and Kim (2003) the newcomers ways are "ethnocentric" while the host societies ways are realistic and appropriate (p .&nbsp;363  369  378  380) .'
p11
ss.