(dp1
S'input'
p2
(dp3
S'encoded'
p4
(lp5
I64
aI2179
aI43
aI63
aI2659
aI417
aI1690
aI3
aI12048
aI7
aI19084
asS'ori'
p6
S'This house believes that Israel should lift the blockade of Gaza'
p7
ssS'output'
p8
(dp9
g4
(lp10
I2161
aI34
aI2135
aI2181
aI19398
aI9813
aI742
aI42
aI122
aI1191
aI3
aI2962
aI7
aI311
aI870
aI767
aI78
aI773
aI3178
aI63765
asg6
S'Minister for Foreign Affairs Micheal Martin said he was "gravely concerned" about the reports of at least ten people being killed .'
p11
ss.