(dp1
S'input'
p2
(dp3
S'encoded'
p4
(lp5
I64
aI2179
aI394
aI4261
aI8667
aI3
aI9361
aI5
aI17069
asS'ori'
p6
S'This house would prohibit burning the stars and stripes'
p7
ssS'output'
p8
(dp9
g4
(lp10
I653
aI3
aI1712
aI3
aI1488
aI94
aI7
aI4358
aI5544
aI45
aI1378
aI864
aI271
aI3412
aI5
aI382
aI9400
aI5001
aI63765
asg6
S'Despite the warning  the small group of students proceeded to carry out their dissent  and were duly suspended .'
p11
ss.