(dp1
S'input'
p2
(dp3
S'encoded'
p4
(lp5
I64
aI2179
aI43
aI24
aI3
aI475
aI7
aI12436
aI3364
asS'ori'
p6
S'This house believes in the use of affirmative action'
p7
ssS'output'
p8
(dp9
g4
(lp10
I17029
aI182
aI693
aI3272
aI24
aI3
aI9998
aI24
aI6076
aI60
aI51
aI12342
aI73
aI2258
aI2131
aI73
aI60
aI702
aI19
aI89
aI11233
aI54698
aI73
aI3
aI2144
aI702
aI3933
aI89
aI103
aI88
aI316
aI1607
aI24
aI51
aI7517
aI9938
aI63765
asg6
S'Disputes are typically resolved in the workplace in consultation with an employer or trade union  or with advice from a solicitor  ACAS or the Citizens Advice Bureau a claim may be brought in an employment tribunal .'
p11
ss.