(dp1
S'input'
p2
(dp3
S'encoded'
p4
(lp5
I64
aI2179
aI43
aI17
aI4941
aI857
aI3211
asS'ori'
p6
S'This house believes social deprivation causes crime'
p7
ssS'output'
p8
(dp9
g4
(lp10
I155
aI139
aI6972
aI18688
aI3
aI4529
aI7
aI13541
aI75
aI2760
aI2270
aI45
aI27623
aI63765
asg6
S'they can temporarily suspend the applicability of norms by developing attitudes "favorable to deviant behavior" .'
p11
ss.