(dp1
S'input'
p2
(dp3
S'encoded'
p4
(lp5
I64
aI2179
aI43
aI17
aI4941
aI857
aI3211
asS'ori'
p6
S'This house believes social deprivation causes crime'
p7
ssS'output'
p8
(dp9
g4
(lp10
I1334
aI5
aI6954
aI23493
aI116
aI61
aI857
aI78
aI45
aI1199
aI4787
aI4285
aI63765
asg6
S'Primary And Secondary Deviation is what causes people to become harder criminals .'
p11
ss.