(dp1
S'input'
p2
(dp3
S'encoded'
p4
(lp5
I64
aI2179
aI394
aI5370
aI3
aI5286
asS'ori'
p6
S'This house would abolish the monarchy'
p7
ssS'output'
p8
(dp9
g4
(lp10
I11485
aI40973
aI40974
aI40975
aI40976
aI40972
aI2556
aI117
aI24
aI5631
aI40974
aI7
aI5489
aI416
aI34
aI2544
aI7
aI3
aI21295
aI5770
aI63765
asg6
S'|- Archduke Archduchess Archduchy Archducal Arci Dux Historical: Unique only in Austria  Archduchy of Austria; title used for member of the Habsburg dynasty .'
p11
ss.