(dp1
S'input'
p2
(dp3
S'encoded'
p4
(lp5
I64
aI2179
aI394
aI5370
aI7146
aI4585
aI2446
asS'ori'
p6
S'This house would abolish intellectual property rights'
p7
ssS'output'
p8
(dp9
g4
(lp10
I24
aI3
aI17484
aI7233
aI3
aI24223
aI2550
aI1653
aI311
aI1655
aI51
aI282
aI2136
aI3419
aI45
aI16923
aI40
aI220
aI417
aI163
aI1562
aI7146
aI4585
aI70
aI63765
asg6
S'In 2005 the RSA launched the Adelphi Charter  aimed at creating an international policy statement to frame how governments should make balanced intellectual property law .'
p11
ss.