(dp1
S'input'
p2
(dp3
S'encoded'
p4
(lp5
I64
aI2179
aI394
aI5370
aI7146
aI4585
aI2446
asS'ori'
p6
S'This house would abolish intellectual property rights'
p7
ssS'output'
p8
(dp9
g4
(lp10
I257
aI89
aI29205
aI14870
aI73
aI29206
aI79
aI116
aI89
aI5185
aI3500
aI134
aI116
aI20849
aI117
aI257
aI211
aI6990
aI4815
aI182
aI13598
aI19
aI211
aI5049
aI4815
aI63765
asg6
S'If a pictorial  graphic or sculptural work is a useful article  it is copyrighted only if its aesthetic features are separable from its utilitarian features .'
p11
ss.