(dp1
S'input'
p2
(dp3
S'encoded'
p4
(lp5
I64
aI2179
aI13605
aI2258
aI45
aI2194
asS'ori'
p6
S'This house prefers trade to aid'
p7
ssS'output'
p8
(dp9
g4
(lp10
I19005
aI2155
aI34
aI7337
aI335
aI2397
aI63765
asg6
S'Subtract $6 billion for debt relief grants .'
p11
ss.