(dp1
S'input'
p2
(dp3
S'encoded'
p4
(lp5
I64
aI2179
aI43
aI63
aI134
aI116
aI400
aI21
aI34
aI3
aI260
aI45
aI3439
aI57
aI7
aI2381
asS'ori'
p6
S'This house believes that it is sometimes right for the government to restrict freedom of speech'
p7
ssS'output'
p8
(dp9
g4
(lp10
I2460
aI19
aI884
aI252
aI2288
aI12206
aI3
aI626
aI187
aI24
aI3
aI285
aI24
aI1809
aI24
aI271
aI2961
aI57
aI2910
aI9073
aI19
aI1640
aI267
aI2439
aI2388
aI5195
aI604
aI7
aI3623
aI45
aI3
aI15998
aI910
aI63765
asg6
S'Analysts from Reporters Without Borders rank the United States 47th in the world in terms in their Press Freedom Index  falling from 20th just two years earlier partly because of reaction to the Occupy movement .'
p11
ss.