(dp1
S'input'
p2
(dp3
S'encoded'
p4
(lp5
I64
aI2179
aI43
aI223
aI2138
aI11
aI89
aI21
aI45
aI2185
aI372
asS'ori'
p6
S'This house believes all nations have a right to nuclear weapons'
p7
ssS'output'
p8
(dp9
g4
(lp10
I174
aI7
aI8037
aI116
aI63
aI3
aI626
aI187
aI1515
aI89
aI2136
aI24
aI7
aI1443
aI3
aI8069
aI7
aI211
aI2185
aI372
aI311
aI9617
aI2218
aI60
aI372
aI7
aI4256
aI2945
aI63765
asg6
S'Also of note is that the United States adopted a policy in 1996 of allowing the targeting of its nuclear weapons at non-state actors armed with weapons of mass destruction  .'
p11
ss.