(dp1
S'input'
p2
(dp3
S'encoded'
p4
(lp5
I64
aI2179
aI394
aI5284
aI150
aI3987
asS'ori'
p6
S'This house would reintroduce national service'
p7
ssS'output'
p8
(dp9
g4
(lp10
I397
aI3
aI1447
aI3569
aI298
aI5610
aI122
aI2758
aI1980
aI382
aI5676
aI45
aI2830
aI1530
aI3131
aI843
aI24
aI3
aI2157
aI92
aI155
aI463
aI4898
aI5
aI1453
aI4834
aI2224
aI3987
aI73
aI16058
aI3987
aI351
aI34
aI311
aI870
aI1530
aI3131
aI24
aI89
aI3202
aI1795
aI7210
aI63765
asg6
S'During the last year when conscription was active  men were obliged to serve six months either in the military  which they could refuse  and do alternative civilian service  or honorary service (like any volunteer) for at least six months in a civil protection organisation .'
p11
ss.