(dp1
S'input'
p2
(dp3
S'encoded'
p4
(lp5
I64
aI2179
aI394
aI5370
aI223
aI4013
aI10440
aI2446
aI4881
aI75
aI14482
aI11004
asS'ori'
p6
S'This house would abolish all collective bargaining rights claimed by trades unions'
p7
ssS'output'
p8
(dp9
g4
(lp10
I11004
aI182
aI3981
aI7
aI3858
aI3223
aI75
aI200
aI23573
aI75
aI1879
aI12190
aI291
aI6941
aI5
aI6801
aI5
aI75
aI1879
aI14704
aI63765
asg6
S"Unions are capable of raising productivity by reducing turnover  by increasing coordination between workers and management  and by increasing workers' motivation  ."
p11
ss.