(dp1
S'input'
p2
(dp3
S'encoded'
p4
(lp5
I64
aI2179
aI13605
aI2258
aI45
aI2194
asS'ori'
p6
S'This house prefers trade to aid'
p7
ssS'output'
p8
(dp9
g4
(lp10
I134
aI174
aI29334
aI311
aI24
aI3
aI3572
aI901
aI5
aI24
aI3
aI5661
aI1193
aI2014
aI63765
asg6
S'It also debuted at #4 in the Washington Post and #2 in the Wall Street Journal  .'
p11
ss.