(dp1
S'input'
p2
(dp3
S'encoded'
p4
(lp5
I64
aI2179
aI394
aI3830
aI3
aI475
aI7
aI9441
aI13132
aI3102
aI24
aI276
aI381
asS'ori'
p6
S'This house would permit the use of performance enhancing drugs in professional sports'
p7
ssS'output'
p8
(dp9
g4
(lp10
I24
aI3
aI8652
aI6645
aI44015
aI1688
aI3
aI8436
aI1136
aI2265
aI34
aI3
aI4169
aI883
aI6664
aI39721
aI44016
aI63765
asg6
S'In 1924 the journalist Albert Londres followed the Tour de France for the French newspaper  Le Petit Parisien .'
p11
ss.