(dp1
S'input'
p2
(dp3
S'encoded'
p4
(lp5
I64
aI2179
aI43
aI63
aI7382
aI116
aI400
aI4713
asS'ori'
p6
S'This house believes that bribery is sometimes acceptable'
p7
ssS'output'
p8
(dp9
g4
(lp10
I93
aI83
aI316
aI9174
aI7
aI8873
aI17
aI5
aI2637
aI13541
aI298
aI7268
aI7382
aI63765
asg6
S'One must be careful of differing social and cultural norms when examining bribery .'
p11
ss.