(dp1
S'input'
p2
(dp3
S'encoded'
p4
(lp5
I64
aI2179
aI394
aI117
aI7428
aI21151
aI34
aI11389
aI2042
aI24
aI4364
asS'ori'
p6
S'This house would only teach abstinence for sex education in schools'
p7
ssS'output'
p8
(dp9
g4
(lp10
I2999
aI495
aI51040
aI311
aI3
aI927
aI7
aI17
aI5
aI16
aI2041
aI311
aI39232
aI4750
aI5
aI2019
aI1330
aI51041
aI5606
aI7
aI3
aI1851
aI7
aI8803
aI3217
aI311
aI32679
aI4750
aI353
aI63
aI12581
aI11390
aI3534
aI60
aI248
aI8578
aI60
aI3718
aI4957
aI18493
aI6730
aI2240
aI4766
aI5
aI982
aI5207
aI22237
aI3
aI4900
aI24
aI271
aI5985
aI3269
aI10665
aI122
aI6351
aI63765
asg6
S'Professor John Ermisch at the institute of social and economic research at Essex University and Dr Roger Ingham  director of the centre of sexual health at Southampton University  found that comparing teenage mothers with other girls with similarly deprived social-economic profiles  bad school experiences and low educational aspirations  the difference in their respective life chances was negligible  .'
p11
ss.