(dp1
S'input'
p2
(dp3
S'encoded'
p4
(lp5
I64
aI2179
aI394
aI10662
aI626
aI187
aI2157
aI2697
aI19
aI2371
asS'ori'
p6
S'This house would remove United States military bases from Japan'
p7
ssS'output'
p8
(dp9
g4
(lp10
I93
aI3168
aI4453
aI63
aI3
aI349
aI5329
aI7
aI132
aI6635
aI7449
aI89
aI41111
aI1413
aI559
aI19
aI2390
aI60
aI395
aI17041
aI7
aI52775
aI52776
aI5
aI2692
aI28186
aI60
aI3
aI2598
aI63765
asg6
S'One theory claims that the earliest inhabitants of these islands crossed a prehistoric land bridge from modern-day China  with later additions of Austronesians  Micronesians  and Japanese merging with the population  .'
p11
ss.