(dp1
S'input'
p2
(dp3
S'encoded'
p4
(lp5
I64
aI2179
aI394
aI2773
aI12505
asS'ori'
p6
S'This house would embrace multiculturalism'
p7
ssS'output'
p8
(dp9
g4
(lp10
I2622
aI3527
aI836
aI2251
aI63765
asg6
S'Shared values create harmony .'
p11
ss.