(dp1
S'input'
p2
(dp3
S'encoded'
p4
(lp5
I64
aI2179
aI43
aI63
aI6670
aI546
aI417
aI316
aI89
aI1334
aI3108
aI7
aI4849
aI1886
aI2855
asS'ori'
p6
S'This house believes that wind power should be a primary focus of future energy supply'
p7
ssS'output'
p8
(dp9
g4
(lp10
I89
aI6670
aI5105
aI6908
aI174
aI1047
aI41
aI89
aI6670
aI1886
aI6908
aI116
aI89
aI2679
aI4443
aI5
aI2989
aI706
aI6225
aI63
aI4953
aI3
aI6908
aI2823
aI3533
aI24
aI6670
aI5109
aI73
aI6670
aI6738
aI63765
asg6
S'A wind turbine cooperative  also known as a wind energy cooperative  is a jointly owned and democratically controlled enterprise that follows the cooperative model  investing in wind turbines or wind farms  .'
p11
ss.