(dp1
S'input'
p2
(dp3
S'encoded'
p4
(lp5
I64
aI2179
aI394
aI3830
aI3
aI475
aI7
aI9441
aI13132
aI3102
aI24
aI276
aI381
asS'ori'
p6
S'This house would permit the use of performance enhancing drugs in professional sports'
p7
ssS'output'
p8
(dp9
g4
(lp10
I378
aI15
aI3
aI3968
aI291
aI2438
aI24
aI3
aI3665
aI7
aI3
aI20
aI43914
aI5
aI1472
aI25243
aI6424
aI41
aI261
aI41
aI3
aI3968
aI45
aI12350
aI475
aI11
aI12
aI2580
aI63765
asg6
S'However  both the connection between changes in the structure of the left ventricle and decreased cardiac function  as well as the connection to steroid use have been disputed  .'
p11
ss.