(dp1
S'input'
p2
(dp3
S'encoded'
p4
(lp5
I64
aI2179
aI394
aI190
aI3
aI21
aI45
aI3895
aI834
asS'ori'
p6
S'This house would limit the right to bear arms'
p7
ssS'output'
p8
(dp9
g4
(lp10
I257
aI3989
aI34
aI3
aI1374
aI182
aI1408
aI119
aI155
aI11
aI45
aI316
aI221
aI8292
aI34
aI3969
aI63765
asg6
S'If ammunition for the guns are easy available they have to be made useless for shooting .'
p11
ss.