(dp1
S'input'
p2
(dp3
S'encoded'
p4
(lp5
I64
aI2179
aI43
aI24
aI3
aI475
aI7
aI12436
aI3364
asS'ori'
p6
S'This house believes in the use of affirmative action'
p7
ssS'output'
p8
(dp9
g4
(lp10
I45
aI3423
aI1260
aI192
aI38
aI60
aI17
aI38
aI5
aI45
aI3423
aI2328
aI60
aI89
aI1518
aI3175
aI20587
aI2306
aI459
aI89
aI20587
aI2475
aI63765
asg6
S'6) To replace free market capitalism with social capitalism  and to replace Democracy with a fully transparent Meritocratic Republic  under a Meritocratic Constitution .'
p11
ss.