(dp1
S'input'
p2
(dp3
S'encoded'
p4
(lp5
I64
aI2179
aI394
aI190
aI3
aI21
aI45
aI3895
aI834
asS'ori'
p6
S'This house would limit the right to bear arms'
p7
ssS'output'
p8
(dp9
g4
(lp10
I132
aI292
aI30837
aI382
aI89
aI2017
aI14
aI4311
aI4294
aI89
aI5376
aI63
aI223
aI3892
aI24
aI89
aI3900
aI316
aI843
aI13641
aI73
aI11
aI89
aI3880
aI38787
aI5
aI4295
aI5376
aI63
aI4542
aI3982
aI51
aI17222
aI3899
aI24
aI3
aI3900
aI159
aI41
aI19
aI93
aI3380
aI45
aI97
aI63765
asg6
S'These three ordinances were a ban on handgun registration  a requirement that all firearms in a home be either disassembled or have a trigger lock  and licensing requirement that prohibits carrying an unlicensed firearm in the home  such as from one room to another .'
p11
ss.