(dp1
S'input'
p2
(dp3
S'encoded'
p4
(lp5
I64
aI2179
aI43
aI8629
aI116
aI3
aI117
aI998
asS'ori'
p6
S'This house believes atheism is the only way'
p7
ssS'output'
p8
(dp9
g4
(lp10
I12581
aI3
aI34632
aI42
aI2509
aI3
aI667
aI8571
aI89
aI79
aI7
aI12153
aI16218
aI34633
aI1544
aI572
aI366
aI211
aI6528
aI2120
aI5
aI838
aI7
aI13706
aI44
aI45
aI163
aI194
aI2118
aI864
aI21
asg6
S'Comparing the Testaments  he considers the New Testament "also a work of crude carpentry  hammered together long after its purported events  and full of improvised attempts to make things come out right ."'
p11
ss.