(dp1
S'input'
p2
(dp3
S'encoded'
p4
(lp5
I64
aI2179
aI394
aI2017
aI3807
aI314
aI3433
asS'ori'
p6
S'This house would ban partial birth abortions'
p7
ssS'output'
p8
(dp9
g4
(lp10
I2631
aI3476
aI3
aI237
aI3276
aI1637
aI226
aI3390
aI742
aI3
aI3477
aI382
aI5
aI3478
aI136
aI3479
aI5
aI3480
aI3481
aI45
aI3
aI10
aI3482
aI114
aI42
aI2343
aI752
aI63765
asg6
S'" Douglas preferred the first trimester line  while Stewart said the lines were "legislative" and wanted more flexibility and consideration paid to the state legislatures  though he joined Blackmun\'s decision  .'
p11
ss.