(dp1
S'input'
p2
(dp3
S'encoded'
p4
(lp5
I64
aI2179
aI43
aI63
aI2157
aI2565
aI493
aI19084
aI382
aI4850
asS'ori'
p6
S"This house believes that Israel's 2008-2009 military operations against Gaza were justified"
p7
ssS'output'
p8
(dp9
g4
(lp10
I19134
aI5409
aI20403
aI29953
aI55
aI2973
aI63
aI273
aI122
aI89
aI7454
aI7
aI43151
aI97
aI2513
aI63765
asg6
S'Hezbollah leader Hassan Nasrallah has warned that there was a possibility of renewing another conflict .'
p11
ss.