(dp1
S'input'
p2
(dp3
S'encoded'
p4
(lp5
I64
aI2179
aI394
aI2976
aI12243
aI24
aI954
aI126
aI1560
aI10723
asS'ori'
p6
S'This house would implement playoffs in collegiate level American football'
p7
ssS'output'
p8
(dp9
g4
(lp10
I311
aI870
aI292
aI4275
aI742
aI155
aI394
aI13337
aI2490
aI3
aI34987
aI1375
aI3
aI35045
aI18209
aI6335
aI31236
aI63765
asg6
S'At least three voters said they would definitely vote the Tigers #1 unless the Crimson Tide won decisively .'
p11
ss.