(dp1
S'input'
p2
(dp3
S'encoded'
p4
(lp5
I64
aI2179
aI394
aI2773
aI12505
asS'ori'
p6
S'This house would embrace multiculturalism'
p7
ssS'output'
p8
(dp9
g4
(lp10
I100
aI4718
aI5
aI2478
aI186
aI63
aI3
aI4676
aI5
aI722
aI3020
aI4877
aI24
aI2556
aI1420
aI1798
aI51
aI1756
aI7857
aI11240
aI7
aI10065
aI230
aI89
aI16135
aI1718
aI34
aI3
aI8272
aI7
aI89
aI9674
aI3914
aI41
aI2148
aI2144
aI5
aI748
aI6090
aI7
aI89
aI2148
aI2144
aI910
aI63765
asg6
S"Some philosophers and scholars argue that the objective and subjective conditions arising in today's unique historical moment  an emerging planetary phase of civilization  creates a latent potential for the emergence of a cosmopolitan identity as global citizens and possible formation of a global citizens movement  ."
p11
ss.