(dp1
S'input'
p2
(dp3
S'encoded'
p4
(lp5
I64
aI2179
aI394
aI5370
aI7146
aI4585
aI2446
asS'ori'
p6
S'This house would abolish intellectual property rights'
p7
ssS'output'
p8
(dp9
g4
(lp10
I223
aI7
aI3
aI2510
aI13188
aI16
aI2234
aI63765
asg6
S'All of the above enhance economic growth  .'
p11
ss.