(dp1
S'input'
p2
(dp3
S'encoded'
p4
(lp5
I64
aI2179
aI43
aI17
aI4941
aI857
aI3211
asS'ori'
p6
S'This house believes social deprivation causes crime'
p7
ssS'output'
p8
(dp9
g4
(lp10
I134
aI153
aI4258
aI12615
aI14
aI3
aI3863
aI1869
aI92
aI11648
aI34
aI932
aI5
aI44
aI45
aI1292
aI6883
aI2755
aI17524
aI63765
asg6
S'It often heavily relies on the scientific method  which aims for objectivity  and attempts to avoid passing value judgments .'
p11
ss.