(dp1
S'input'
p2
(dp3
S'encoded'
p4
(lp5
I64
aI2179
aI235
aI3
aI2136
aI7
aI3
aI2306
aI7
aI2390
asS'ori'
p6
S'This house supports the one-child policy of the republic of China'
p7
ssS'output'
p8
(dp9
g4
(lp10
I311
aI3
aI7457
aI2333
aI1237
aI187
aI221
aI2488
aI7680
aI843
aI45
aI3
aI3445
aI7
aI3760
aI2446
aI73
aI45
aI211
aI2386
aI7151
aI63765
asg6
S'At the Cairo Conference  several states made formal reservations either to the concept of reproductive rights or to its specific content .'
p11
ss.