(dp1
S'input'
p2
(dp3
S'encoded'
p4
(lp5
I64
aI2179
aI394
aI117
aI7428
aI21151
aI34
aI11389
aI2042
aI24
aI4364
asS'ori'
p6
S'This house would only teach abstinence for sex education in schools'
p7
ssS'output'
p8
(dp9
g4
(lp10
I3
aI2722
aI7
aI11390
aI3271
aI1569
aI5
aI1051
aI19
aI4386
aI8578
aI24
aI100
aI5025
aI2203
aI45
aI4386
aI24
aI2318
aI2047
aI63765
asg6
S'The rates of teenage pregnancy vary and range from 143 per 1000 girls in some sub-Saharan African countries to 2 .9 per 1000 in South Korea .'
p11
ss.