(dp1
S'input'
p2
(dp3
S'encoded'
p4
(lp5
I64
aI2179
aI43
aI63
aI3
aI4538
aI7
aI4434
aI7793
aI283
aI45
aI3586
aI417
aI316
aI577
asS'ori'
p6
S'This house believes that the sale of violent video games to minors should be banned'
p7
ssS'output'
p8
(dp9
g4
(lp10
I147
aI1199
aI9280
aI4091
aI7
aI3166
aI8467
aI3
aI8467
aI92
aI2143
aI11
aI1638
aI111
aI86
aI5
aI302
aI45
aI1638
aI111
aI86
aI620
aI15
aI3
aI5583
aI24
aI3
aI897
aI211
aI7870
aI26867
aI45
aI5
aI620
aI3
aI4022
aI2835
aI3905
aI134
aI42379
aI63765
asg6
S'Individuals become irrational victims of false wants - the wants which corporations have thrust upon them  and continue to thrust upon them  through both the advertising in the media (with its continual exhortation to consume) and through the individualist consumption culture it promulgates .'
p11
ss.