(dp1
S'input'
p2
(dp3
S'encoded'
p4
(lp5
I64
aI2179
aI43
aI223
aI2138
aI11
aI89
aI21
aI45
aI2185
aI372
asS'ori'
p6
S'This house believes all nations have a right to nuclear weapons'
p7
ssS'output'
p8
(dp9
g4
(lp10
I495
aI27185
aI394
aI99
aI96
aI8966
aI24
aI3
aI2471
aI7
aI1718
aI378
aI42
aI55
aI1966
aI34
aI2185
aI2457
aI41
aI2136
aI24
aI77
aI1197
aI159
aI41
aI30287
aI2223
aI323
aI63765
asg6
S"John Mearsheimer would not support Waltz's optimism in the majority of potential instances; however  he has argued for nuclear proliferation as policy in certain places  such as postCold War Europe ."
p11
ss.