(dp1
S'input'
p2
(dp3
S'encoded'
p4
(lp5
I64
aI2179
aI235
aI3
aI2136
aI7
aI3
aI2306
aI7
aI2390
asS'ori'
p6
S'This house supports the one-child policy of the republic of China'
p7
ssS'output'
p8
(dp9
g4
(lp10
I6426
aI5726
aI1401
aI63
aI7743
aI52940
aI3147
aI7
aI3
aI2326
aI458
asg6
S'Chinese officials admitted that isolated  uncondoned abuses of the program occurred'
p11
ss.