(dp1
S'input'
p2
(dp3
S'encoded'
p4
(lp5
I64
aI2179
aI43
aI223
aI2138
aI11
aI89
aI21
aI45
aI2185
aI372
asS'ori'
p6
S'This house believes all nations have a right to nuclear weapons'
p7
ssS'output'
p8
(dp9
g4
(lp10
I33576
aI60
aI89
aI9023
aI4968
aI45
aI7
aI11821
aI3
aI11801
aI5
aI5153
aI7622
aI7
aI3
aI2418
aI3158
aI4374
aI6766
aI5
aI3178
aI2151
aI78
aI63765
asg6
S'Exploding with a yield equivalent to 12 500&nbsp;tonnes of TNT  the blast and thermal wave of the bomb destroyed nearly 50 000 buildings and killed approximately 75 000 people  .'
p11
ss.