(dp1
S'input'
p2
(dp3
S'encoded'
p4
(lp5
I64
aI2179
aI394
aI5370
aI7146
aI4585
aI2446
asS'ori'
p6
S'This house would abolish intellectual property rights'
p7
ssS'output'
p8
(dp9
g4
(lp10
I397
aI3
aI5406
aI7
aI5352
aI9855
aI3
aI12684
aI7
aI3
aI28
aI2483
aI643
aI3
aI5376
aI63
aI89
aI441
aI7991
aI7
aI3
aI3688
aI83
aI316
aI8771
aI63765
asg6
S'During the reign of Queen Anne (170214)  the lawyers of the English Court developed the requirement that a written description of the invention must be submitted  .'
p11
ss.