(dp1
S'input'
p2
(dp3
S'encoded'
p4
(lp5
I64
aI2179
aI43
aI63
aI7382
aI116
aI400
aI4713
asS'ori'
p6
S'This house believes that bribery is sometimes acceptable'
p7
ssS'output'
p8
(dp9
g4
(lp10
I257
aI155
aI768
aI2931
aI45
aI316
aI6407
aI24
aI3
aI2444
aI7
aI120
aI4615
aI63
aI3251
aI86
aI134
aI463
aI316
aI513
aI7170
aI63765
asg6
S'If they then appear to be acting in the interests of those parties that funded them  it could be considered corruption .'
p11
ss.