(dp1
S'input'
p2
(dp3
S'encoded'
p4
(lp5
I64
aI2179
aI43
aI63
aI3
aI21
aI45
aI12715
aI417
aI99
aI316
aI2897
asS'ori'
p6
S'This house believes that the right to asylum should not be absolute'
p7
ssS'output'
p8
(dp9
g4
(lp10
I64
aI3938
aI7177
aI45
aI223
aI2135
aI4285
aI3375
aI53
aI155
aI367
aI545
aI93
aI7
aI3
aI5069
aI24
aI4185
aI63765
asg6
S'This duty applies to all foreign criminals except where they fall within one of the exceptions in section 33 .'
p11
ss.