(dp1
S'input'
p2
(dp3
S'encoded'
p4
(lp5
I64
aI2179
aI394
aI16756
aI20435
asS'ori'
p6
S'This house would criminalize blasphemy'
p7
ssS'output'
p8
(dp9
g4
(lp10
I45747
aI7102
aI63765
aI7
aI5781
aI63765
asg6
S"Defiling  etc .  of Holy Qur'an  ."
p11
ss.