(dp1
S'input'
p2
(dp3
S'encoded'
p4
(lp5
I64
aI2179
aI43
aI63
aI2157
aI2565
aI493
aI19084
aI382
aI4850
asS'ori'
p6
S"This house believes that Israel's 2008-2009 military operations against Gaza were justified"
p7
ssS'output'
p8
(dp9
g4
(lp10
I19122
aI89
aI2759
aI16619
aI5409
aI4881
aI63
aI2659
aI6196
aI24
aI3099
aI7471
aI4255
aI5
aI63
aI132
aI382
aI3386
aI873
aI34
aI19413
aI5
aI19169
aI63765
asg6
S'Mahmoud az-Zahar  a prominent Hamas leader  claimed that Israel lost in Operation Hot Winter  and that these were 5 black days for Barak and Olmert  .'
p11
ss.