(dp1
S'input'
p2
(dp3
S'encoded'
p4
(lp5
I64
aI2179
aI43
aI63
aI17574
aI417
aI316
aI3481
aI34
aI271
aI79
asS'ori'
p6
S'This house believes that housewives should be paid for their work'
p7
ssS'output'
p8
(dp9
g4
(lp10
I3
aI532
aI7
aI137
aI8532
aI1985
aI588
aI45
aI271
aI3862
aI116
aI117
aI137
aI155
aI182
aI1708
aI1931
aI19
aI64
aI116
aI51
aI218
aI85
aI12472
aI63765
asg6
S'The amount of money parents give up to their children is only money they are taking away from themselves; this is an extreme care penalty .'
p11
ss.