(dp1
S'input'
p2
(dp3
S'encoded'
p4
(lp5
I64
aI2179
aI43
aI223
aI2138
aI11
aI89
aI21
aI45
aI2185
aI372
asS'ori'
p6
S'This house believes all nations have a right to nuclear weapons'
p7
ssS'output'
p8
(dp9
g4
(lp10
I3
aI12039
aI7
aI12040
aI415
aI24
aI320
aI298
aI51
aI1560
aI12041
aI1917
aI12042
aI89
aI290
aI7
aI12011
aI6763
aI34
aI2939
aI2940
aI773
aI5660
aI14
aI3
aI2730
aI7
aI942
aI1640
aI1295
aI3
aI5738
aI7
aI3
aI4232
aI626
aI187
aI734
aI61
aI373
aI1047
aI41
aI3
aI12043
aI2950
aI2979
aI63765
asg6
S'The climax of brinksmanship came in early 1962  when an American U-2 spy plane photographed a series of launch sites for medium-range ballistic missiles being constructed on the island of Cuba  just off the coast of the southern United States  beginning what became known as the Cuban Missile Crisis .'
p11
ss.