(dp1
S'input'
p2
(dp3
S'encoded'
p4
(lp5
I64
aI2179
aI43
aI63
aI3
aI4991
aI7
aI180
aI417
aI316
aI5396
aI19
aI3
aI169
aI10
asS'ori'
p6
S'This house believes that the Church of England should be separated from the British state'
p7
ssS'output'
p8
(dp9
g4
(lp10
I725
aI320
aI15871
aI3136
aI4172
aI45
aI875
aI45
aI8379
aI3465
aI324
aI366
aI3
aI28
aI3202
aI2223
aI5
aI2767
aI2513
aI24
aI2265
aI5
aI327
aI63765
asg6
S'Many early immigrant groups traveled to America to worship freely  particularly after the English Civil War and religious conflict in France and Germany  .'
p11
ss.