(dp1
S'input'
p2
(dp3
S'encoded'
p4
(lp5
I64
aI2179
aI394
aI2017
aI628
asS'ori'
p6
S'This house would ban gambling'
p7
ssS'output'
p8
(dp9
g4
(lp10
I24
aI88
aI3
aI10
aI7
aI4393
aI800
aI137
aI60
aI89
aI5930
aI34
aI3
aI493
aI2547
asg6
S'In May 1758  the State of Massachusetts raised money with a lottery for the "Expedition against Canada ."'
p11
ss.