(dp1
S'input'
p2
(dp3
S'encoded'
p4
(lp5
I64
aI2179
aI43
aI8629
aI116
aI3
aI117
aI998
asS'ori'
p6
S'This house believes atheism is the only way'
p7
ssS'output'
p8
(dp9
g4
(lp10
I14
aI4859
aI7
aI5711
aI2247
aI10078
aI5
aI4718
aI163
aI89
aI4798
aI89
aI63765
aI21929
aI7
aI2247
aI5
aI10507
aI63765
aI3567
aI7
aI2247
aI63765
asg6
S'On beliefs of Christian faith  theologians and philosophers make a distinction between: a . preambles of faith and b . articles of faith .'
p11
ss.