(dp1
S'input'
p2
(dp3
S'encoded'
p4
(lp5
I64
aI2179
aI43
aI63
aI134
aI116
aI400
aI21
aI34
aI3
aI260
aI45
aI3439
aI57
aI7
aI2381
asS'ori'
p6
S'This house believes that it is sometimes right for the government to restrict freedom of speech'
p7
ssS'output'
p8
(dp9
g4
(lp10
I42
aI122
aI2200
aI24
aI89
aI39477
aI1447
aI3569
aI42
aI1442
aI25
aI3446
aI223
aI12
aI14039
aI864
aI7
aI5973
aI63765
asg6
S"He was asked in a hallway last year  he gave his personal view''and it's all been blown out of proportion ."
p11
ss.