(dp1
S'input'
p2
(dp3
S'encoded'
p4
(lp5
I64
aI2179
aI394
aI2017
aI262
asS'ori'
p6
S'This house would ban boxing'
p7
ssS'output'
p8
(dp9
g4
(lp10
I257
aI42
aI116
aI482
aI868
aI42
aI88
aI113
aI1416
aI1417
aI1347
aI24
aI3
aI395
aI295
aI24
aI51
aI1222
aI45
aI671
aI89
aI770
aI63765
asg6
S'If he is successful enough  he may even apply extra pressure in the later rounds in an attempt to achieve a knockout .'
p11
ss.