(dp1
S'input'
p2
(dp3
S'encoded'
p4
(lp5
I64
aI2179
aI43
aI17
aI4941
aI857
aI3211
asS'ori'
p6
S'This house believes social deprivation causes crime'
p7
ssS'output'
p8
(dp9
g4
(lp10
I3
aI8004
aI7
aI229
aI8472
aI3896
aI19381
aI5
aI57920
aI182
aI2609
aI45
aI3135
aI1039
aI45
aI2617
aI5
aI93
aI7
aI3
aI3135
aI2248
aI1410
aI15422
aI116
aI45
aI2233
aI63765
asg6
S'The notions of individual blame  responsibility  guilt  and culpability are central to criminal justice\'s approach to violence and one of the criminal justice system\'s main tasks is to "do justice"  i .e .'
p11
ss.