(dp1
S'input'
p2
(dp3
S'encoded'
p4
(lp5
I64
aI2179
aI43
aI63
aI3
aI28431
aI7
aI2157
aI4624
aI75
aI39939
aI27257
aI122
aI4850
asS'ori'
p6
S'This house believes that the leaking of military documents by Anat Kamm was justified'
p7
ssS'output'
p8
(dp9
g4
(lp10
I20391
aI55
aI3345
aI63
aI3
aI1485
aI7
aI11130
aI4024
aI30420
aI4846
aI5224
aI5119
aI463
aI93
aI1379
aI48
aI3
aI2127
aI45
aI11
aI14
aI3218
aI531
aI63765
asg6
S'Assange has acknowledged that the practice of posting largely unfiltered classified information online could one day lead the website to have "blood on our hands .'
p11
ss.