(dp1
S'input'
p2
(dp3
S'encoded'
p4
(lp5
I64
aI2179
aI394
aI5370
aI7146
aI4585
aI2446
asS'ori'
p6
S'This house would abolish intellectual property rights'
p7
ssS'output'
p8
(dp9
g4
(lp10
I691
aI3
aI407
aI2603
aI4012
aI736
aI972
aI14
aI88
aI64
aI18782
aI116
aI378
aI443
aI593
aI691
aI3179
aI18531
aI182
aI534
aI63765
asg6
S'Since the London Agreement entered into force on May 1  2008  this estimation is however no longer up-to-date  since fewer translations are required .'
p11
ss.