(dp1
S'input'
p2
(dp3
S'encoded'
p4
(lp5
I64
aI2179
aI394
aI5284
aI150
aI3987
asS'ori'
p6
S'This house would reintroduce national service'
p7
ssS'output'
p8
(dp9
g4
(lp10
I3
aI5673
aI800
aI24
aI64
aI998
aI2433
aI41
aI5674
aI459
aI2083
aI5675
aI63765
asg6
S'The levies raised in this way fought as infantry under local superiors .'
p11
ss.