(dp1
S'input'
p2
(dp3
S'encoded'
p4
(lp5
I64
aI2179
aI43
aI63
aI6670
aI546
aI417
aI316
aI89
aI1334
aI3108
aI7
aI4849
aI1886
aI2855
asS'ori'
p6
S'This house believes that wind power should be a primary focus of future energy supply'
p7
ssS'output'
p8
(dp9
g4
(lp10
I6693
aI2363
aI311
aI7003
aI6769
aI88
aI316
aI1971
aI620
aI3
aI6691
aI7
aI5109
aI3
aI7012
aI3262
aI34
aI6670
aI6738
aI5
aI5123
aI6801
aI7
aI3
aI6670
aI6677
aI63765
asg6
S'Noise levels at nearby residences may be managed through the siting of turbines  the approvals process for wind farms  and operational management of the wind farm  .'
p11
ss.