(dp1
S'input'
p2
(dp3
S'encoded'
p4
(lp5
I64
aI2179
aI43
aI63
aI3
aI21
aI45
aI12715
aI417
aI99
aI316
aI2897
asS'ori'
p6
S'This house believes that the right to asylum should not be absolute'
p7
ssS'output'
p8
(dp9
g4
(lp10
I5046
aI289
aI3690
aI24
aI12715
aI3291
aI24
aI3
aI626
aI187
aI11
aI2425
aI100
aI8995
aI45
aI3553
aI3
aI3262
aI41
aI3215
aI63
aI116
aI89
aI145
aI24
aI92
aI3
aI3914
aI7
aI3
aI16359
aI958
aI138
aI3
aI1500
aI7
aI3
aI12715
aI103
aI116
aI3
aI9364
aI5085
aI24
aI438
aI51
aI12715
aI103
aI63765
asg6
S"Concerns over arbitrariness in asylum adjudication in the United States have led some commentators to describe the process as refugee roulette; that is  a system in which the identity of the adjudicator  rather than the strength of the asylum seeker's claim  is the determining factor in winning an asylum claim ."
p11
ss.