(dp1
S'input'
p2
(dp3
S'encoded'
p4
(lp5
I64
aI2179
aI394
aI5370
aI3
aI5286
asS'ori'
p6
S'This house would abolish the monarchy'
p7
ssS'output'
p8
(dp9
g4
(lp10
I24
aI3
aI2784
aI7
aI2131
aI2602
aI3
aI2549
aI7
aI325
aI326
aI5
aI3
aI2549
aI7
aI4581
aI736
aI3
aI626
aI2549
aI7
aI325
aI326
aI5
aI4581
aI63765
asg6
S'In 1800  the Act of Union merged the kingdom of Great Britain and the kingdom of Ireland into the United Kingdom of Great Britain and Ireland .'
p11
ss.