(dp1
S'input'
p2
(dp3
S'encoded'
p4
(lp5
I64
aI2179
aI43
aI223
aI2138
aI11
aI89
aI21
aI45
aI2185
aI372
asS'ori'
p6
S'This house believes all nations have a right to nuclear weapons'
p7
ssS'output'
p8
(dp9
g4
(lp10
I3
aI2268
aI14
aI3
aI7
aI2185
aI372
aI1480
aI1047
aI41
aI3
aI2268
aI73
aI11570
aI116
aI89
aI3256
aI282
aI2268
aI564
aI4676
aI116
aI45
aI881
aI3
aI4155
aI7
aI2185
aI372
aI5
aI372
aI2186
aI45
aI3018
aI2568
aI24
aI3
aI2468
aI1760
aI7
aI2185
aI1886
aI5
aI45
aI1706
aI3
aI2028
aI7
aI12402
aI2185
aI2349
aI5
aI448
aI5
aI4163
aI2349
aI63765
asg6
S'The Treaty on the Non-Proliferation of Nuclear Weapons  commonly known as the Non-Proliferation Treaty or NPT  is a landmark international treaty whose objective is to prevent the spread of nuclear weapons and weapons technology  to promote cooperation in the peaceful uses of nuclear energy and to further the goal of achieving nuclear disarmament and general and complete disarmament .'
p11
ss.