(dp1
S'input'
p2
(dp3
S'encoded'
p4
(lp5
I64
aI2179
aI394
aI5370
aI223
aI4013
aI10440
aI2446
aI4881
aI75
aI14482
aI11004
asS'ori'
p6
S'This house would abolish all collective bargaining rights claimed by trades unions'
p7
ssS'output'
p8
(dp9
g4
(lp10
I8902
aI5019
aI159
aI41
aI2204
aI4194
aI63765
aI15335
aI378
aI6037
aI64
aI3683
aI63
aI3
aI3226
aI24
aI3
aI5084
aI7
aI5428
aI1032
aI258
aI63
aI149
aI7
aI248
aI7500
aI139
aI316
aI2302
aI63765
asg6
S'Austrian economists such as Robert P . Murphy  however  dispute this  arguing that the increase in the cost of labour simply means that less of other goods can be bought .'
p11
ss.