(dp1
S'input'
p2
(dp3
S'encoded'
p4
(lp5
I64
aI2179
aI13605
aI2258
aI45
aI2194
asS'ori'
p6
S'This house prefers trade to aid'
p7
ssS'output'
p8
(dp9
g4
(lp10
I2893
aI2194
aI73
aI5148
aI2194
aI116
aI1691
aI115
aI575
aI45
aI78
aI24
aI6460
aI16933
aI75
aI147
aI8281
aI73
aI220
aI45
aI14512
aI4871
aI397
aI5
aI366
aI18951
aI5
aI35
aI12119
aI63765
asg6
S'Humanitarian aid or emergency aid is rapid assistance given to people in immediate distress by individuals  organisations  or governments to relieve suffering  during and after man-made emergencies (like wars) and natural disasters .'
p11
ss.