(dp1
S'input'
p2
(dp3
S'encoded'
p4
(lp5
I64
aI2179
aI43
aI63
aI134
aI116
aI400
aI21
aI34
aI3
aI260
aI45
aI3439
aI57
aI7
aI2381
asS'ori'
p6
S'This house believes that it is sometimes right for the government to restrict freedom of speech'
p7
ssS'output'
p8
(dp9
g4
(lp10
I89
aI2528
aI7
aI3
aI2179
aI7
aI19965
aI3
aI768
aI2810
aI2483
aI7
aI3361
aI911
aI3
aI4517
aI5685
aI24
aI92
aI12687
aI3227
aI24
aI3
aI658
aI376
aI4197
aI1384
aI89
aI4163
aI5685
aI493
aI89
aI18231
aI3336
aI63765
asg6
S'A ruling of the House of Lords - the then highest court of appeal - revived the so-called Reynolds Defence  in which journalism undertaken in the public interest shall enjoy a complete defence against a libel suit .'
p11
ss.