(dp1
S'input'
p2
(dp3
S'encoded'
p4
(lp5
I64
aI2179
aI394
aI2017
aI628
asS'ori'
p6
S'This house would ban gambling'
p7
ssS'output'
p8
(dp9
g4
(lp10
I3
aI3661
aI628
aI14752
aI2910
aI116
aI5688
aI7
aI2596
aI2930
aI19
aI3
aI593
aI14753
aI63765
asg6
S'The Problem Gambling Severity Index (PGSI) is composed of nine items from the longer CPGI .'
p11
ss.