(dp1
S'input'
p2
(dp3
S'encoded'
p4
(lp5
I64
aI2179
aI394
aI163
aI959
aI2042
aI3557
asS'ori'
p6
S'This house would make physical education compulsory'
p7
ssS'output'
p8
(dp9
g4
(lp10
I28174
aI6238
aI159
aI41
aI444
aI477
aI4795
aI477
aI33948
aI477
aI73
aI33949
aI3226
aI13429
aI1500
aI63765
asg6
S'Anaerobic exercises  such as weight training  functional training  eccentric training or sprinting  increase short-term muscle strength  .'
p11
ss.