(dp1
S'input'
p2
(dp3
S'encoded'
p4
(lp5
I64
aI2179
aI43
aI63
aI323
aI417
aI10009
aI211
aI9035
aI249
aI45
aI3426
aI211
aI2144
aI595
aI17
aI96
asS'ori'
p6
S'This house believes that Europe should weaken its austerity measures to guarantee its citizens greater social support'
p7
ssS'output'
p8
(dp9
g4
(lp10
I100
aI7
aI3
aI9342
aI9343
aI3017
aI63
aI6095
aI394
aI2056
aI1068
aI51
aI9344
aI9032
aI311
aI2155
aI5
aI155
aI382
aI637
aI1856
aI45
aI3849
aI3
aI7337
aI126
aI24
aI63765
asg6
S'Some of the newest calculations suggested that Greece would now need an enhanced bailout at 136 billion  and they were still likely to exceed the 120% debt level in 2020 .'
p11
ss.