(dp1
S'input'
p2
(dp3
S'encoded'
p4
(lp5
I64
aI2179
aI394
aI4261
aI8667
aI3
aI9361
aI5
aI17069
asS'ori'
p6
S'This house would prohibit burning the stars and stripes'
p7
ssS'output'
p8
(dp9
g4
(lp10
I1792
aI1089
aI2365
aI63765
aI57082
aI89
aI26084
aI3
aI2234
aI7
aI1260
aI2381
aI24
aI320
aI875
aI2961
aI63765
asg6
S'See Larry D . Eldridge  A Distant Heritage: The Growth of Free Speech in Early America (NYU Press  1994) .'
p11
ss.