(dp1
S'input'
p2
(dp3
S'encoded'
p4
(lp5
I64
aI2179
aI394
aI5284
aI150
aI3987
asS'ori'
p6
S'This house would reintroduce national service'
p7
ssS'output'
p8
(dp9
g4
(lp10
I5610
aI116
aI3
aI3557
aI5611
aI7
aI78
aI24
aI100
aI5612
aI7
aI150
aI3987
aI217
aI153
aI2157
aI3987
aI63765
asg6
S'Conscription is the compulsory enlistment of people in some sort of national service  most often military service  .'
p11
ss.