(dp1
S'input'
p2
(dp3
S'encoded'
p4
(lp5
I64
aI2179
aI394
aI2017
aI223
aI9058
aI23653
asS'ori'
p6
S'This house would ban all unsustainable logging'
p7
ssS'output'
p8
(dp9
g4
(lp10
I545
aI3
aI19768
aI2041
aI2326
aI3
aI2041
aI3108
aI116
aI10725
aI736
aI863
aI4656
aI60
aI3
aI2010
aI4676
aI7
aI13132
aI3
aI6801
aI5
aI475
aI7
aI7910
aI28612
aI5
aI18859
aI4839
aI2635
aI967
aI3
aI6747
aI19
aI7910
aI45
aI6738
aI63765
asg6
S'Within the consortium research program  the research focus is organised into five components with the clear objective of enhancing the management and use of forests  agroforestry and tree genetic resources across the landscape from forests to farms .'
p11
ss.