(dp1
S'input'
p2
(dp3
S'encoded'
p4
(lp5
I64
aI2179
aI43
aI3
aI626
aI187
aI116
aI1989
aI34
aI3102
aI2223
asS'ori'
p6
S"This house believes the United States is responsible for Mexico's drugs war"
p7
ssS'output'
p8
(dp9
g4
(lp10
I2145
aI63765
aI5462
aI182
aI3182
aI89
aI16299
aI24
aI4964
aI20367
aI5
aI3900
aI4487
aI6421
aI45
aI8679
aI5
aI311
aI870
aI2625
aI382
aI3178
aI24
aI63765
asg6
S"U .S . authorities are reporting a spike in killings  kidnappings and home invasions connected to Mexico's cartels  and at least 19 Americans were killed in 2008  ."
p11
ss.