(dp1
S'input'
p2
(dp3
S'encoded'
p4
(lp5
I64
aI2179
aI394
aI16642
aI1376
aI5269
asS'ori'
p6
S'This house would subsidize poor communities'
p7
ssS'output'
p8
(dp9
g4
(lp10
I1021
aI45
aI7932
aI1347
aI691
aI3
aI481
aI5
aI946
aI24
aI3
aI1191
aI248
aI7723
aI10162
aI24
aI3
aI41174
aI7
aI57780
aI11
aI6521
aI1948
aI7
aI3
aI8254
aI803
aI63765
asg6
S'Due to demographic pressure  since the late 1950s and especially in the 1970s  about 80 000 other Indians originating in the highlands of Chiapas have occupied parts of the forest area .'
p11
ss.