(dp1
S'input'
p2
(dp3
S'encoded'
p4
(lp5
I64
aI2179
aI43
aI63
aI2659
aI417
aI1690
aI3
aI12048
aI7
aI19084
asS'ori'
p6
S'This house believes that Israel should lift the blockade of Gaza'
p7
ssS'output'
p8
(dp9
g4
(lp10
I6013
aI2135
aI2161
aI5420
aI29833
aI2244
aI311
aI3
aI6056
aI19236
aI19097
aI5
aI263
aI34
aI51
aI3173
aI7
aI3
aI4134
aI5
aI14
aI3
aI3717
aI1858
aI134
aI63765
asg6
S'Finland Foreign Minister  Alexander Stubb  expressed "shock" at the Israeli commando raid and called for an explanation of the incident and on the circumstances surrounding it .'
p11
ss.