(dp1
S'input'
p2
(dp3
S'encoded'
p4
(lp5
I64
aI2179
aI43
aI63
aI2157
aI2565
aI493
aI19084
aI382
aI4850
asS'ori'
p6
S"This house believes that Israel's 2008-2009 military operations against Gaza were justified"
p7
ssS'output'
p8
(dp9
g4
(lp10
I51
aI878
aI3419
aI75
aI3
aI10716
aI260
aI742
aI63
aI42
aI8681
aI7
aI21
aI45
aI776
aI211
aI2144
aI19
aI3
aI7214
aI1687
aI7
aI16619
aI63765
asg6
S'An official statement by the Lithuanian government said that he "is aware of Israel\'s right to defend its citizens from the terrorist attacks of Hamas .'
p11
ss.