(dp1
S'input'
p2
(dp3
S'encoded'
p4
(lp5
I64
aI2179
aI43
aI63
aI3
aI21
aI45
aI12715
aI417
aI99
aI316
aI2897
asS'ori'
p6
S'This house believes that the right to asylum should not be absolute'
p7
ssS'output'
p8
(dp9
g4
(lp10
I725
aI7477
aI24
aI2404
aI1633
aI736
aI9142
aI2203
aI45
aI154
aI153
aI5025
aI2203
aI182
aI1754
aI2203
aI7
aI5304
aI34
aI7477
aI5
aI2203
aI7
aI12715
aI34
aI248
aI7477
aI63765
asg6
S'Many refugees in Africa cross into neighboring countries to find haven; often  African countries are simultaneously countries of origin for refugees and countries of asylum for other refugees .'
p11
ss.