(dp1
S'input'
p2
(dp3
S'encoded'
p4
(lp5
I64
aI2179
aI43
aI63
aI1036
aI4828
aI33250
aI116
aI25073
aI45
aI3315
aI4562
asS'ori'
p6
S'This house believes that male infant circumcision is tantamount to child abuse'
p7
ssS'output'
p8
(dp9
g4
(lp10
I5047
aI89
aI2914
aI5084
aI7
aI5
aI89
aI161
aI7
aI767
aI873
aI7
aI3269
aI63765
asg6
S'(1991) reported a net cost of $25 .00 and a benefit of ten days of life .'
p11
ss.