(dp1
S'input'
p2
(dp3
S'encoded'
p4
(lp5
I64
aI2179
aI394
aI4261
aI8667
aI3
aI9361
aI5
aI17069
asS'ori'
p6
S'This house would prohibit burning the stars and stripes'
p7
ssS'output'
p8
(dp9
g4
(lp10
I24
aI37967
aI646
aI63765
aI18721
aI37968
aI903
aI2178
aI2240
aI3337
aI3
aI2482
aI2483
aI1258
aI2220
aI237
aI3264
aI1795
aI45
aI3862
aI8491
aI658
aI4364
aI4190
aI7149
aI1375
aI273
aI116
aI3013
aI60
aI2240
aI7982
aI73
aI3
aI2446
aI7
aI63765
asg6
S'In Tinker v . Des Moines Independent Community School District (1969)  the Supreme Court extended broad First Amendment protection to children attending public schools  prohibiting censorship unless there is "substantial interference with school discipline or the rights of others" .'
p11
ss.