(dp1
S'input'
p2
(dp3
S'encoded'
p4
(lp5
I64
aI2179
aI43
aI223
aI2138
aI11
aI89
aI21
aI45
aI2185
aI372
asS'ori'
p6
S'This house believes all nations have a right to nuclear weapons'
p7
ssS'output'
p8
(dp9
g4
(lp10
I3
aI598
aI1849
aI75
aI3
aI2206
aI122
aI45
aI2970
aI89
aI245
aI2369
aI7473
aI7
aI2971
aI6837
aI5
aI2940
aI675
aI3
aI42238
aI5
aI1374
aI675
aI3
aI48582
aI5156
aI2597
aI385
aI63765
asg6
S'The defensive response by the US was to deploy a fairly strong "layered defense" consisting of interceptor aircraft and anti-aircraft missiles  like the Nike  and guns  like the Skysweeper  near larger cities .'
p11
ss.