(dp1
S'input'
p2
(dp3
S'encoded'
p4
(lp5
I64
aI2179
aI43
aI8629
aI116
aI3
aI117
aI998
asS'ori'
p6
S'This house believes atheism is the only way'
p7
ssS'output'
p8
(dp9
g4
(lp10
I132
aI893
aI3143
aI34
aI1343
aI3
aI11496
aI10730
aI5
aI3
aI34534
aI3516
aI5
aI3319
aI63
aI132
aI382
aI99
aI10985
aI1106
aI7
aI2513
aI291
aI3707
aI5
aI3446
aI5
aI22
aI1356
aI174
aI18130
aI4258
aI24
aI3
aI2891
aI7
aI574
aI63765
asg6
S'These historians cite  for example  the Galileo affair and the Scopes trial  and assert that these were not purely instances of conflict between science and religion; personal and political factors also weighed heavily in the development of each .'
p11
ss.