(dp1
S'input'
p2
(dp3
S'encoded'
p4
(lp5
I64
aI2179
aI43
aI63
aI2157
aI2565
aI493
aI19084
aI382
aI4850
asS'ori'
p6
S"This house believes that Israel's 2008-2009 military operations against Gaza were justified"
p7
ssS'output'
p8
(dp9
g4
(lp10
I233
aI45
aI2041
aI3818
aI75
aI46003
aI5018
aI4758
aI589
aI78
aI19
aI30030
aI182
aI4871
aI19
aI39841
aI5
aI182
aI794
aI545
aI3
aI11397
aI2178
aI233
aI45
aI89
aI21728
aI2035
aI34
aI4091
aI7
aI2928
aI5
aI3818
aI24
aI291
aI45
aI7
aI30030
aI3862
aI9575
aI19
aI6033
aI7
aI39841
aI226
aI7
aI3862
aI2909
aI11
aI39841
aI63765
asg6
S'According to research done by Sapir Academic college  around 15 000 people from Sderot are suffering from PTSD and 1000 are treated within the psychiatric community According to a NATAL study (Center for Victims of Terror and War) done in 2008  between 70% to 94% of Sderot children suffer from symptoms of PTSD while 28% of children actually have PTSD .'
p11
ss.