(dp1
S'input'
p2
(dp3
S'encoded'
p4
(lp5
I64
aI2179
aI43
aI63
aI1036
aI4828
aI33250
aI116
aI25073
aI45
aI3315
aI4562
asS'ori'
p6
S'This house believes that male infant circumcision is tantamount to child abuse'
p7
ssS'output'
p8
(dp9
g4
(lp10
I33284
aI2557
aI3
aI33218
aI116
aI263
aI39811
aI63765
asg6
S'Balanitis involving the foreskin is called balanoposthitis .'
p11
ss.