(dp1
S'input'
p2
(dp3
S'encoded'
p4
(lp5
I64
aI2179
aI43
aI63
aI3
aI4990
aI4991
aI116
aI4850
aI24
aI12166
aI3
aI475
aI7
aI3532
aI3290
aI7
aI4714
asS'ori'
p6
S'This house believes that the Catholic Church is justified in forbidding the use of barrier methods of contraception'
p7
ssS'output'
p8
(dp9
g4
(lp10
I248
aI214
aI174
aI3288
aI26703
aI73
aI26704
aI7
aI2446
aI45
aI34
aI6396
aI100
aI11368
aI8032
aI7
aI10068
aI6423
aI3754
aI1136
aI26705
aI382
aI3
aI2195
aI7
aI89
aI63765
asg6
S'Other issues also prompted condemnations or revocations of rights to teach: for instance  some posthumous writings of Jesuit priest Anthony de Mello were the subject of a "notification" .'
p11
ss.