(dp1
S'input'
p2
(dp3
S'encoded'
p4
(lp5
I64
aI2179
aI394
aI60
aI23587
asS'ori'
p6
S'This house would re-engage with Myanmar'
p7
ssS'output'
p8
(dp9
g4
(lp10
I528
aI23653
aI691
aI3
aI667
aI18848
aI70
aI461
aI736
aI782
aI55
aI992
aI1016
aI8254
aI23475
aI5
aI6687
aI5166
aI63765
asg6
S'Heavy logging since the new 1995 forestry law went into effect has seriously reduced forest acreage and wildlife habitat  .'
p11
ss.