(dp1
S'input'
p2
(dp3
S'encoded'
p4
(lp5
I64
aI2179
aI43
aI63
aI1036
aI4828
aI33250
aI116
aI25073
aI45
aI3315
aI4562
asS'ori'
p6
S'This house believes that male infant circumcision is tantamount to child abuse'
p7
ssS'output'
p8
(dp9
g4
(lp10
I3
aI17220
aI8193
aI22701
aI4307
aI45
aI34796
aI271
aI1036
aI3862
aI14
aI3
aI10370
aI1379
aI7
aI3269
aI5
aI45
aI34796
aI271
aI1036
aI4218
aI63765
asg6
S'The Hebrew Bible commands Jews to circumcise their male children on the eighth day of life  and to circumcise their male slaves () .'
p11
ss.