(dp1
S'input'
p2
(dp3
S'encoded'
p4
(lp5
I64
aI2179
aI394
aI10662
aI626
aI187
aI2157
aI2697
aI19
aI2371
asS'ori'
p6
S'This house would remove United States military bases from Japan'
p7
ssS'output'
p8
(dp9
g4
(lp10
I7035
aI33203
aI29359
aI1093
aI63765
aI122
aI3178
aI397
aI3
aI15948
aI873
aI7
aI3
aI4148
aI7
aI11542
aI75
aI7254
aI13656
aI4477
aI1609
aI1063
aI3
aI2206
aI2157
aI4769
aI45
aI11
aI12
aI3178
aI75
aI7254
aI4477
aI397
aI285
aI2223
aI2236
aI63765
asg6
S'Lieutenant-General Simon Bolivar Buckner  Jr . was killed during the closing days of the Battle of Okinawa by enemy artillery fire  making him the highest-ranking US military officer to have been killed by enemy fire during World War II .'
p11
ss.