(dp1
S'input'
p2
(dp3
S'encoded'
p4
(lp5
I64
aI2179
aI43
aI63
aI3
aI4990
aI4991
aI116
aI4850
aI24
aI12166
aI3
aI475
aI7
aI3532
aI3290
aI7
aI4714
asS'ori'
p6
S'This house believes that the Catholic Church is justified in forbidding the use of barrier methods of contraception'
p7
ssS'output'
p8
(dp9
g4
(lp10
I3
aI369
aI4990
aI237
aI426
aI878
aI3419
aI14
aI2718
aI21151
aI45
aI1292
aI3271
aI116
aI19
aI53
aI89
aI2528
aI7
aI3
aI10790
aI29077
aI4669
aI3
aI4740
aI7
aI2718
aI21151
aI45
aI1292
aI3271
aI63765
asg6
S'" The Roman Catholic Church\'s first recorded official statement on periodic abstinence to avoid pregnancy is from 1853  where a ruling of the church\'s Sacred Penitentiary addressed the topic of periodic abstinence to avoid pregnancy .'
p11
ss.