(dp1
S'input'
p2
(dp3
S'encoded'
p4
(lp5
I64
aI2179
aI43
aI63
aI1036
aI4828
aI33250
aI116
aI25073
aI45
aI3315
aI4562
asS'ori'
p6
S'This house believes that male infant circumcision is tantamount to child abuse'
p7
ssS'output'
p8
(dp9
g4
(lp10
I42
aI174
aI3017
aI63
aI3
aI33268
aI3364
aI748
aI117
aI298
aI273
aI122
aI868
aI14923
aI8136
aI14
aI3
aI28172
aI7
aI3
aI33221
aI948
aI45
aI8963
aI3
aI33231
aI7748
aI620
aI1610
aI60
aI3
aI37737
aI7
aI3
aI33220
aI33221
aI397
aI16890
aI2189
aI63765
asg6
S'He also suggested that the gliding action  possible only when there was enough loose skin on the shaft of the penis  serves to stimulate the ridged band through contact with the corona of the glans penis during vaginal intercourse  .'
p11
ss.