(dp1
S'input'
p2
(dp3
S'encoded'
p4
(lp5
I64
aI2179
aI394
aI4325
aI2042
aI270
aI89
aI11605
aI3324
asS'ori'
p6
S'This house would fund education using a voucher scheme'
p7
ssS'output'
p8
(dp9
g4
(lp10
I24
aI88
aI311
aI870
aI93
aI10
aI27786
aI2820
aI3
aI448
aI6293
aI45
aI4918
aI2126
aI736
aI4604
aI9621
aI63765
asg6
S'In May  at least one state delegate urged the General Assembly to call itself into special session  .'
p11
ss.