(dp1
S'input'
p2
(dp3
S'encoded'
p4
(lp5
I64
aI2179
aI43
aI63
aI2659
aI417
aI1690
aI3
aI12048
aI7
aI19084
asS'ori'
p6
S'This house believes that Israel should lift the blockade of Gaza'
p7
ssS'output'
p8
(dp9
g4
(lp10
I3
aI2145
aI63765
aI260
aI5309
aI3
aI752
aI15359
aI3
aI1361
aI63
aI3
aI8949
aI394
aI994
aI3204
aI3
aI4830
aI7
aI19084
aI966
aI6049
aI5
aI881
aI372
aI2614
aI63765
asg6
S'" The U .S . government welcomed the decision  expressing the belief that the easing would significantly improve the lives of Gaza Strip residents and prevent weapons smuggling  .'
p11
ss.