(dp1
S'input'
p2
(dp3
S'encoded'
p4
(lp5
I64
aI2179
aI394
aI3830
aI3
aI475
aI7
aI9441
aI13132
aI3102
aI24
aI276
aI381
asS'ori'
p6
S'This house would permit the use of performance enhancing drugs in professional sports'
p7
ssS'output'
p8
(dp9
g4
(lp10
I3
aI63630
aI3364
aI7
aI13922
aI12269
aI507
aI298
aI3
aI17517
aI12270
aI19456
aI3
aI28526
aI7
aI3
aI1409
aI10560
aI5
aI23175
aI45
aI51
aI13950
aI19493
aI4648
aI24
aI3
aI63631
aI7
aI63
aI10560
aI63765
asg6
S'The pharmacodynamic action of anabolic steroids begin when the exogenous hormone penetrates the membrane of the target cell and binds to an androgen receptor located in the cytoplasm of that cell .'
p11
ss.