(dp1
S'input'
p2
(dp3
S'encoded'
p4
(lp5
I64
aI2179
aI43
aI223
aI2138
aI11
aI89
aI21
aI45
aI2185
aI372
asS'ori'
p6
S'This house believes all nations have a right to nuclear weapons'
p7
ssS'output'
p8
(dp9
g4
(lp10
I3
aI282
aI2417
aI1886
aI2904
aI116
aI51
aI282
aI2134
aI63
aI1048
aI45
aI3018
aI3
aI2468
aI475
aI7
aI2185
aI1886
aI5
aI45
aI19578
aI211
aI475
aI34
aI351
aI2157
aI3014
aI158
aI2185
aI372
aI63765
asg6
S'The International Atomic Energy Agency (IAEA) is an international organization that seeks to promote the peaceful use of nuclear energy  and to inhibit its use for any military purpose  including nuclear weapons .'
p11
ss.