(dp1
S'input'
p2
(dp3
S'encoded'
p4
(lp5
I64
aI2179
aI235
aI3
aI2136
aI7
aI3
aI2306
aI7
aI2390
asS'ori'
p6
S'This house supports the one-child policy of the republic of China'
p7
ssS'output'
p8
(dp9
g4
(lp10
I3
aI17779
aI125
aI70
aI3718
aI3241
aI57
aI7
aI2382
aI114
aI3
aI2767
aI57
aI10358
aI1298
aI4294
aI7
aI2767
aI2142
aI63765
asg6
S'The Macau Basic Law similarly recognizes freedom of religion though the Religious Freedom Ordinance requires registration of religious organizations .'
p11
ss.