(dp1
S'input'
p2
(dp3
S'encoded'
p4
(lp5
I64
aI2179
aI394
aI10662
aI626
aI187
aI2157
aI2697
aI19
aI2371
asS'ori'
p6
S'This house would remove United States military bases from Japan'
p7
ssS'output'
p8
(dp9
g4
(lp10
I298
aI3
aI55356
aI415
aI45
aI89
aI2490
aI24
aI3
aI2692
aI6327
aI134
aI122
aI71
aI75
aI3
aI18281
aI242
aI5
aI17
aI242
aI2645
aI45
aI211
aI807
aI45
aI2741
aI3
aI1740
aI2179
aI63765
asg6
S'When the 2008 SMA came to a vote in the Japanese Diet  it was opposed by the Communists  Democrats  and Social Democrats  leading to its failure to pass the Upper House .'
p11
ss.