(dp1
S'input'
p2
(dp3
S'encoded'
p4
(lp5
I64
aI2179
aI43
aI17
aI4941
aI857
aI3211
asS'ori'
p6
S'This house believes social deprivation causes crime'
p7
ssS'output'
p8
(dp9
g4
(lp10
I28359
aI27624
aI2840
aI869
aI1410
aI45
aI24
aI3292
aI2485
aI7
aI45
aI5
aI24
aI1671
aI63765
asg6
S'Travis Hirschi identified four main characteristics: "attachment to others"  "belief in moral validity of rules"  "commitment to achievement" and "involvement in conventional activities"  .'
p11
ss.