(dp1
S'input'
p2
(dp3
S'encoded'
p4
(lp5
I64
aI2179
aI43
aI63
aI3
aI21
aI45
aI12715
aI417
aI99
aI316
aI2897
asS'ori'
p6
S'This house believes that the right to asylum should not be absolute'
p7
ssS'output'
p8
(dp9
g4
(lp10
I64
aI1235
aI2231
aI116
aI1881
aI45
aI8174
aI3
aI2891
aI7
aI3
aI102
aI2610
aI708
aI545
aI3
aI102
aI19
aI51
aI5123
aI8424
aI63765
asg6
S'This short history is intended to trace the development of the UK immigration control within the UK from an operational standpoint .'
p11
ss.