(dp1
S'input'
p2
(dp3
S'encoded'
p4
(lp5
I64
aI2179
aI394
aI4325
aI2042
aI270
aI89
aI11605
aI3324
asS'ori'
p6
S'This house would fund education using a voucher scheme'
p7
ssS'output'
p8
(dp9
g4
(lp10
I887
aI132
aI8358
aI182
aI1237
aI92
aI182
aI6278
aI45
aI1518
aI671
aI24
aI89
aI212
aI192
aI159
aI41
aI4163
aI5224
aI12914
aI7500
aI5
aI3205
aI5
aI1160
aI7
aI192
aI546
aI63765
asg6
S'Among these assumptions are several which are impossible to fully achieve in a real market  such as complete information  interchangeable goods and services  and lack of market power .'
p11
ss.