(dp1
S'input'
p2
(dp3
S'encoded'
p4
(lp5
I64
aI2179
aI43
aI63
aI3
aI4990
aI4991
aI116
aI4850
aI24
aI12166
aI3
aI475
aI7
aI3532
aI3290
aI7
aI4714
asS'ori'
p6
S'This house believes that the Catholic Church is justified in forbidding the use of barrier methods of contraception'
p7
ssS'output'
p8
(dp9
g4
(lp10
I3985
aI63
aI3
aI11641
aI7
aI120
aI300
aI45
aI316
aI9790
aI382
aI24
aI786
aI7
aI773
aI21282
aI45
aI8540
aI3
aI5462
aI416
aI1431
aI258
aI155
aI513
aI2867
aI45
aI4576
aI1191
aI89
aI21283
aI63765
asg6
S'Believing that the souls of those deemed to be heretics were in danger of being consigned to hell  the authorities used whatever means they considered necessary to bring about a recantation .'
p11
ss.