(dp1
S'input'
p2
(dp3
S'encoded'
p4
(lp5
I64
aI2179
aI13605
aI2258
aI45
aI2194
asS'ori'
p6
S'This house prefers trade to aid'
p7
ssS'output'
p8
(dp9
g4
(lp10
I2789
aI7
aI3
aI2344
aI4443
aI10207
aI5866
aI5
aI5810
aI63
aI2518
aI7
aI3
aI15276
aI70
aI394
aI501
aI626
aI2549
aI45
aI5656
aI21652
aI11436
aI45
aI2138
aI63765
asg6
S'Members of the league owned textile factories  and believed that repeal of the Corn Law import-ban would allow 1830s United Kingdom to sell cotton clothing to wheat-exporting nations .'
p11
ss.