(dp1
S'input'
p2
(dp3
S'encoded'
p4
(lp5
I64
aI2179
aI394
aI2773
aI12505
asS'ori'
p6
S'This house would embrace multiculturalism'
p7
ssS'output'
p8
(dp9
g4
(lp10
I63
aI98
aI99
aI4979
aI63
aI273
aI116
aI99
aI12379
aI291
aI3136
aI63765
asg6
S'That does not mean that there is not prejudice between groups .'
p11
ss.