(dp1
S'input'
p2
(dp3
S'encoded'
p4
(lp5
I64
aI2179
aI394
aI2773
aI12505
asS'ori'
p6
S'This house would embrace multiculturalism'
p7
ssS'output'
p8
(dp9
g4
(lp10
I41
aI261
aI41
aI3
aI136
aI1178
aI2637
aI3802
aI63
aI4532
aI291
aI78
aI159
aI41
aI3657
aI9809
aI5
aI3787
aI273
aI182
aI174
aI4229
aI5041
aI24
aI3
aI998
aI5989
aI15508
aI777
aI24
aI271
aI2622
aI4642
aI7
aI4588
aI5
aI24
aI3
aI3708
aI155
aI6900
aI60
aI271
aI3216
aI63765
asg6
S'As well as the more obvious cultural differences that exist between people  such as language  dress and traditions  there are also significant variations in the way societies organize themselves  in their shared conception of morality  and in the ways they interact with their environment .'
p11
ss.