(dp1
S'input'
p2
(dp3
S'encoded'
p4
(lp5
I64
aI2179
aI43
aI63
aI187
aI417
aI99
aI16642
aI3
aI6449
aI7
aI3935
asS'ori'
p6
S'This house believes that states should not subsidize the growing of tobacco'
p7
ssS'output'
p8
(dp9
g4
(lp10
I3
aI27376
aI13933
aI3
aI267
aI9361
aI7
aI3
aI342
aI60
aI89
aI8158
aI8417
aI7
aI9812
aI15010
aI9257
aI63765
asg6
S'The opener featured the two stars of the show with a giant pack of Philip Morris cigarettes .'
p11
ss.