(dp1
S'input'
p2
(dp3
S'encoded'
p4
(lp5
I64
aI2179
aI43
aI8629
aI116
aI3
aI117
aI998
asS'ori'
p6
S'This house believes atheism is the only way'
p7
ssS'output'
p8
(dp9
g4
(lp10
I725
aI8574
aI501
aI34
aI3
aI3524
aI7
aI248
aI149
aI1173
aI6268
aI4818
aI5
aI1985
aI86
aI2072
aI159
aI41
aI21187
aI10041
aI38849
aI21232
aI5
aI38850
aI63765
asg6
S'Many believers allow for the existence of other  less powerful spiritual beings  and give them names such as angels  saints  djinni  demons  and devas .'
p11
ss.