(dp1
S'input'
p2
(dp3
S'encoded'
p4
(lp5
I64
aI2179
aI43
aI63
aI134
aI116
aI400
aI21
aI34
aI3
aI260
aI45
aI3439
aI57
aI7
aI2381
asS'ori'
p6
S'This house believes that it is sometimes right for the government to restrict freedom of speech'
p7
ssS'output'
p8
(dp9
g4
(lp10
I3
aI2645
aI2985
aI7
aI3
aI70
aI1147
aI9982
aI5
aI411
aI5886
aI1966
aI34
aI3
aI4516
aI717
aI14
aI3
aI237
aI3264
aI887
aI248
aI2477
aI3663
aI63765
asg6
S"The leading critics of the law  Thomas Jefferson and James Madison  argued for the Acts' unconstitutionality based on the First Amendment  among other Constitutional provisions (e .g ."
p11
ss.