(dp1
S'input'
p2
(dp3
S'encoded'
p4
(lp5
I64
aI2179
aI43
aI63
aI134
aI116
aI400
aI21
aI34
aI3
aI260
aI45
aI3439
aI57
aI7
aI2381
asS'ori'
p6
S'This house believes that it is sometimes right for the government to restrict freedom of speech'
p7
ssS'output'
p8
(dp9
g4
(lp10
I4663
aI24
aI64
aI234
aI89
aI399
aI7
aI4279
aI1019
aI41
aI159
aI1453
aI7094
aI6730
aI3375
aI25556
aI63765
asg6
S'Fundamentally  in this view  a form of communication cannot  as such  do anything bad except offend  .'
p11
ss.