(dp1
S'input'
p2
(dp3
S'encoded'
p4
(lp5
I64
aI2179
aI394
aI5370
aI3
aI5286
asS'ori'
p6
S'This house would abolish the monarchy'
p7
ssS'output'
p8
(dp9
g4
(lp10
I24
aI5761
aI285
aI3
aI5672
aI7
aI2655
aI2656
aI116
aI89
aI536
aI7
aI10
aI81
aI116
aI15
aI89
aI2897
aI5301
aI7
aI2696
aI5
aI6550
aI7
aI3
aI267
aI5781
aI6551
aI7
aI5714
aI63765
asg6
S'In Muslim World  The King of Saudi Arabia is a head of state who is both a absolute monarch of country  and Custodian of the Two Holy Mosques of Islam (  ) .'
p11
ss.