(dp1
S'input'
p2
(dp3
S'encoded'
p4
(lp5
I64
aI2179
aI394
aI2773
aI12505
asS'ori'
p6
S'This house would embrace multiculturalism'
p7
ssS'output'
p8
(dp9
g4
(lp10
I3
aI3445
aI7
aI2637
aI3461
aI2032
aI75
aI2265
aI24
aI3
aI448
aI2603
aI14
aI2358
aI5
aI2258
aI2952
aI24
aI122
aI51
aI1343
aI7
aI89
aI3728
aI1653
aI311
aI1771
aI2083
aI8175
aI63765
asg6
S'The concept of Cultural exception proposed by France in the General Agreement on Tariffs and Trade (GATT) negotiations in 1993 was an example of a measure aimed at protecting local cultures  .'
p11
ss.