(dp1
S'input'
p2
(dp3
S'encoded'
p4
(lp5
I64
aI2179
aI43
aI8629
aI116
aI3
aI117
aI998
asS'ori'
p6
S'This house believes atheism is the only way'
p7
ssS'output'
p8
(dp9
g4
(lp10
I18739
aI18580
aI835
aI63
aI223
aI12200
aI3365
aI45
aI4803
aI5
aI3
aI3777
aI182
aI7083
aI45
aI73
aI42414
aI111
aI580
aI63765
asg6
S'Metaphysical naturalism holds that all properties related to consciousness and the mind are reducible to  or supervene upon  nature .'
p11
ss.