(dp1
S'input'
p2
(dp3
S'encoded'
p4
(lp5
I64
aI2179
aI43
aI63
aI1036
aI4828
aI33250
aI116
aI25073
aI45
aI3315
aI4562
asS'ori'
p6
S'This house believes that male infant circumcision is tantamount to child abuse'
p7
ssS'output'
p8
(dp9
g4
(lp10
I3535
aI81
aI34796
aI3862
aI83
aI84
aI85
aI63
aI223
aI4531
aI442
aI2230
aI7166
aI654
aI182
aI8908
aI63765
asg6
S'Doctors who circumcise children must take care that all applicable rules regarding informed consent are satisfied .'
p11
ss.