(dp1
S'input'
p2
(dp3
S'encoded'
p4
(lp5
I64
aI2179
aI13605
aI2258
aI45
aI2194
asS'ori'
p6
S'This house prefers trade to aid'
p7
ssS'output'
p8
(dp9
g4
(lp10
I63
aI155
aI7246
aI6025
aI19
aI6228
aI24
aI643
aI2203
aI2981
aI63
aI271
aI248
aI7517
aI7891
aI182
aI3150
aI63765
asg6
S'That they accept low-paying jobs from companies in developed countries shows that their other employment prospects are worse .'
p11
ss.