(dp1
S'input'
p2
(dp3
S'encoded'
p4
(lp5
I64
aI2179
aI43
aI63
aI3357
aI5003
aI652
aI3
aI188
aI3262
asS'ori'
p6
S'This house believes that opinion polls harm the democratic process'
p7
ssS'output'
p8
(dp9
g4
(lp10
I26251
aI7515
aI64
aI12027
aI41
aI93
aI7
aI3
aI8889
aI524
aI7
aI3
aI2141
aI139
aI1934
aI1476
aI3
aI903
aI673
aI7
aI2554
aI134
aI47
aI11
aI89
aI1173
aI502
aI289
aI63765
asg6
S'Gastil sees this feature as one of the strongest points of the Internet: "if computer-mediated interaction can consistently reduce the independent influence of status  it will have a powerful advantage over face-to-face deliberation"  .'
p11
ss.