(dp1
S'input'
p2
(dp3
S'encoded'
p4
(lp5
I64
aI2179
aI43
aI63
aI3
aI4538
aI7
aI4434
aI7793
aI283
aI45
aI3586
aI417
aI316
aI577
asS'ori'
p6
S'This house believes that the sale of violent video games to minors should be banned'
p7
ssS'output'
p8
(dp9
g4
(lp10
I5491
aI675
aI285
aI7
aI24406
aI5
aI29266
aI11
aI3189
aI7
aI12338
aI63765
asg6
S'Titles like World of Warcraft and RuneScape have millions of players .'
p11
ss.