(dp1
S'input'
p2
(dp3
S'encoded'
p4
(lp5
I64
aI2179
aI43
aI223
aI2138
aI11
aI89
aI21
aI45
aI2185
aI372
asS'ori'
p6
S'This house believes all nations have a right to nuclear weapons'
p7
ssS'output'
p8
(dp9
g4
(lp10
I546
aI7058
aI10174
aI3
aI5083
aI7
aI3
aI41648
aI26931
aI47354
aI47355
aI2233
aI41990
aI41991
aI3886
aI26931
aI5
aI1191
aI89
aI5104
aI248
aI2185
aI546
aI4975
aI63765
asg6
S'Anti-nuclear power protests preceded the shutdown of the Shoreham  Yankee Rowe  Millstone I  Rancho Seco  Maine Yankee  and about a dozen other nuclear power plants  .'
p11
ss.