(dp1
S'input'
p2
(dp3
S'encoded'
p4
(lp5
I64
aI2179
aI235
aI3858
aI3
aI2240
aI4527
aI3485
aI45
asS'ori'
p6
S'This house supports raising the school leaving age to 18'
p7
ssS'output'
p8
(dp9
g4
(lp10
I3
aI1546
aI47
aI316
aI38136
aI545
aI292
aI2439
aI7
aI3
aI70
aI773
aI871
aI63765
asg6
S'The change will be implemen within three years of the law being passed  .'
p11
ss.