(dp1
S'input'
p2
(dp3
S'encoded'
p4
(lp5
I64
aI2179
aI43
aI8629
aI116
aI3
aI117
aI998
asS'ori'
p6
S'This house believes atheism is the only way'
p7
ssS'output'
p8
(dp9
g4
(lp10
I132
aI3199
aI9344
aI3
aI4099
aI956
aI7
aI8629
aI946
aI53
aI9534
aI122
aI2369
aI24
aI3
aI626
aI187
aI653
aI3
aI68
aI63
aI2759
aI9776
aI382
aI63765
asg6
S'These regimes enhanced the negative associations of atheism  especially where anti-communist sentiment was strong in the United States  despite the fact that prominent atheists were anti-communist  .'
p11
ss.