(dp1
S'input'
p2
(dp3
S'encoded'
p4
(lp5
I64
aI2179
aI43
aI63
aI3376
aI4938
aI417
aI316
aI3537
asS'ori'
p6
S'This house believes that endangered species should be protected'
p7
ssS'output'
p8
(dp9
g4
(lp10
I22121
aI22122
aI22123
aI22124
aI22125
aI22126
aI22127
aI22128
aI22129
aI22130
aI22131
aI22132
aI22133
aI63765
asg6
S'MerwinArne NssDavid OrtonDaniel QuinnTheodore RoszakSavitri Devi (controversial)John SeedPaul ShepardGary SnyderRichard SylvanDouglas TompkinsOberon Zell-RavenheartJohn ZerzanVandana Shiva  .'
p11
ss.