(dp1
S'input'
p2
(dp3
S'encoded'
p4
(lp5
I64
aI2179
aI394
aI4325
aI2042
aI270
aI89
aI11605
aI3324
asS'ori'
p6
S'This house would fund education using a voucher scheme'
p7
ssS'output'
p8
(dp9
g4
(lp10
I24
aI3007
aI742
aI63
aI298
aI875
aI1048
aI2223
aI134
aI83
aI316
aI2856
aI117
aI45
aI454
aI2144
aI134
aI83
aI316
aI551
aI75
aI3
aI2145
aI63765
aI2221
aI5
aI134
aI83
aI316
aI3041
aI298
aI3
aI730
aI116
aI4163
aI41
aI2623
aI3772
aI92
aI394
aI501
aI223
aI2635
aI45
aI316
aI4071
aI45
aI42
aI1630
aI1560
aI658
aI19962
aI2010
aI2170
aI5
aI89
aI23487
aI9189
aI1862
aI24
aI2669
aI63765
asg6
S'In 2003  Paul said that when America seeks war  it must be sought only to protect citizens  it must be declared by the U .S . Congress  and it must be concluded when the victory is complete as previously planned  which would allow all resources to be dedicated to victory; he added  "The American public deserves clear goals and a definite exit strategy in Iraq .'
p11
ss.