(dp1
S'input'
p2
(dp3
S'encoded'
p4
(lp5
I64
aI2179
aI43
aI63
aI187
aI417
aI99
aI16642
aI3
aI6449
aI7
aI3935
asS'ori'
p6
S'This house believes that states should not subsidize the growing of tobacco'
p7
ssS'output'
p8
(dp9
g4
(lp10
I2547
aI1005
aI2787
aI2045
aI5
aI2452
aI11
aI174
aI2052
aI4612
aI111
aI14815
aI14868
aI1712
aI14832
aI7
aI3
aI4658
aI5
aI155
aI1074
aI14870
aI5225
aI7
aI3
aI1718
aI3217
aI4658
aI7
aI14833
aI63765
asg6
S'Canada  Australia  Thailand  Iceland and Brazil have also imposed labels upon cigarette packs warning smokers of the effects  and they include graphic images of the potential health effects of smoking .'
p11
ss.