(dp1
S'input'
p2
(dp3
S'encoded'
p4
(lp5
I64
aI2179
aI43
aI63
aI3
aI4538
aI7
aI4434
aI7793
aI283
aI45
aI3586
aI417
aI316
aI577
asS'ori'
p6
S'This house believes that the sale of violent video games to minors should be banned'
p7
ssS'output'
p8
(dp9
g4
(lp10
I3
aI217
aI2068
aI2145
aI63765
aI3073
aI14
aI4434
aI3211
aI24
aI92
aI5251
aI382
aI9274
aI4753
aI63
aI2900
aI2900
aI24
aI3926
aI7
aI5251
aI24
aI382
aI2195
aI45
aI7188
aI7
aI806
aI75
aI4358
aI63765
asg6
S'The most recent U .S . data on violent crime in which teachers were targeted indicate that 7 percent (10 percent in urban schools) of teachers in 2003 were subject to threats of injury by students .'
p11
ss.