(dp1
S'input'
p2
(dp3
S'encoded'
p4
(lp5
I64
aI2179
aI43
aI63
aI3
aI21
aI45
aI12715
aI417
aI99
aI316
aI2897
asS'ori'
p6
S'This house believes that the right to asylum should not be absolute'
p7
ssS'output'
p8
(dp9
g4
(lp10
I132
aI257
aI273
aI116
aI89
aI3135
aI7853
aI493
aI3
aI12938
aI34
aI9792
aI5024
aI89
aI3211
aI24
aI3
aI33
aI7
aI1449
aI3
aI33
aI24
aI92
aI3
aI12938
aI55
aI2933
aI89
aI4099
aI752
aI14
aI3215
aI2554
aI24
aI351
aI10
aI63
aI55
aI16837
aI3
aI3
aI6174
aI7
aI3456
aI3059
aI2696
aI3
aI33
aI24
aI92
aI51
aI12715
aI20601
aI4373
aI24
aI2451
aI19
aI89
aI2696
aI53
aI42
aI463
aI11
aI4881
aI3
aI33
aI7
aI12715
aI22768
aI81
aI500
aI99
aI11752
aI9665
aI5
aI81
aI182
aI3434
aI45
aI738
aI12110
aI45
aI2384
aI7
aI1184
aI34
aI271
aI1968
aI17531
aI73
aI34
aI97
aI4603
aI860
aI24
aI271
aI3900
aI2696
aI3
aI33
aI7
aI12715
aI22768
aI81
aI4272
aI2214
aI2451
aI5
aI1453
aI99
aI1416
aI34
aI3215
aI2554
aI545
aI5101
aI19
aI3
aI1798
aI7
aI9107
aI63765
asg6
S'These include: (1) if there is a criminal proceeding against the applicant for allegedly committing a crime in Russia; (2) the case of repetitive applications; (3) the case in which the applicant has received a negative decision on refugee status in any State that has acceded the 1951 Convention; (4) the principle of safe third country  the case in which an asylum seeker arrived in Russia from a country where he could have claimed asylum; (5) the case of asylum seekers who did not flee persecution and who are unwilling to return owing to fear of punishment for their illegal departure or for another offence committed in their home country  and; (6) the case of asylum seekers who illegally enter Russia and do not apply for refugee status within 24 hours from the moment of entry .'
p11
ss.