(dp1
S'input'
p2
(dp3
S'encoded'
p4
(lp5
I64
aI2179
aI394
aI5284
aI150
aI3987
asS'ori'
p6
S'This house would reintroduce national service'
p7
ssS'output'
p8
(dp9
g4
(lp10
I134
aI153
aI6036
aI3
aI413
aI45
aI6037
aI64
aI103
aI63765
asg6
S"It often wasn't worth the Army's time to dispute this claim ."
p11
ss.