(dp1
S'input'
p2
(dp3
S'encoded'
p4
(lp5
I64
aI2179
aI43
aI63
aI3
aI21
aI45
aI12715
aI417
aI99
aI316
aI2897
asS'ori'
p6
S'This house believes that the right to asylum should not be absolute'
p7
ssS'output'
p8
(dp9
g4
(lp10
I491
aI5995
aI440
aI572
aI12
aI1614
aI41
aI183
aI1488
aI45
aI250
aI60
aI4849
aI1227
aI5
aI2405
aI816
aI211
aI15552
aI45
aI2188
aI7013
aI24
aI63765
asg6
S'Croydon Airport had long been recognised as too small to deal with future needs and finally closed its doors to commercial traffic in 1959 .'
p11
ss.