(dp1
S'input'
p2
(dp3
S'encoded'
p4
(lp5
I64
aI2179
aI43
aI63
aI134
aI116
aI400
aI21
aI34
aI3
aI260
aI45
aI3439
aI57
aI7
aI2381
asS'ori'
p6
S'This house believes that it is sometimes right for the government to restrict freedom of speech'
p7
ssS'output'
p8
(dp9
g4
(lp10
I273
aI182
aI2503
aI3135
aI70
aI4211
aI10163
aI899
aI223
aI3
aI279
aI70
aI5069
aI248
aI138
aI20787
aI7
aI92
aI273
aI182
aI3202
aI70
aI4211
aI10163
aI41
aI261
aI41
aI1609
aI3166
aI5404
aI24
aI545
aI3
aI7
aI3
aI2503
aI260
aI2381
aI3365
aI45
aI5224
aI5827
aI45
aI316
aI3365
aI45
aI150
aI2702
aI159
aI41
aI2157
aI5
aI4846
aI5224
aI3166
aI5583
aI20873
aI9889
aI7509
aI2258
aI2208
aI12717
aI5
aI7156
aI63765
asg6
S'There are federal criminal law statutory prohibitions covering all the common law exceptions other than defamation  of which there are civil law statutory prohibitions  as well as making false statements in "matters within the jurisdiction" of the federal government  speech related to information decreed to be related to national security such as military and classified information  false advertising  perjury  privileged communications  trade secrets  copyright  and patents .'
p11
ss.