(dp1
S'input'
p2
(dp3
S'encoded'
p4
(lp5
I64
aI2179
aI43
aI63
aI3
aI28431
aI7
aI2157
aI4624
aI75
aI39939
aI27257
aI122
aI4850
asS'ori'
p6
S'This house believes that the leaking of military documents by Anat Kamm was justified'
p7
ssS'output'
p8
(dp9
g4
(lp10
I3
aI22
aI3487
aI7
aI2702
aI55
aI12
aI3619
aI75
aI11107
aI51690
aI46570
aI51691
aI51692
aI1136
aI51693
aI41
aI51
aI1185
aI2887
aI7
aI150
aI2702
aI22
aI2702
aI116
aI1191
aI3
aI2465
aI7
aI3
aI17
aI128
aI63765
asg6
S'The political aspect of security has been offered by Barry Buzan  Ole Wver  Jaap de Wilde as an important component of national security  Political security is about the stability of the social order .'
p11
ss.