(dp1
S'input'
p2
(dp3
S'encoded'
p4
(lp5
I64
aI2179
aI394
aI163
aI959
aI2042
aI3557
asS'ori'
p6
S'This house would make physical education compulsory'
p7
ssS'output'
p8
(dp9
g4
(lp10
I273
aI182
aI1237
aI15004
aI545
aI3
aI51566
aI63
aI7747
aI45
aI211
aI2210
aI24
aI5253
aI15646
aI3
aI51567
aI16230
aI773
aI3
aI217
aI261
aI4635
aI63765
asg6
S'There are several circuits within the hypothalamus that contribute to its role in integrating appetite  the melanocortin pathway being the most well understood  .'
p11
ss.