(dp1
S'input'
p2
(dp3
S'encoded'
p4
(lp5
I64
aI2179
aI394
aI5370
aI7146
aI4585
aI2446
asS'ori'
p6
S'This house would abolish intellectual property rights'
p7
ssS'output'
p8
(dp9
g4
(lp10
I34
aI4722
aI45
aI316
aI5090
aI7455
aI134
aI83
aI4937
aI11
aI3
aI20826
aI4585
aI63
aI475
aI75
aI93
aI2007
aI18191
aI80
aI19
aI270
aI134
aI63765
asg6
S'For something to be economically scarce  it must necessarily have the exclusivity property - that use by one person excludes others from using it .'
p11
ss.