(dp1
S'input'
p2
(dp3
S'encoded'
p4
(lp5
I64
aI2179
aI394
aI60
aI23587
asS'ori'
p6
S'This house would re-engage with Myanmar'
p7
ssS'output'
p8
(dp9
g4
(lp10
I7528
aI116
aI89
aI2034
aI3661
aI34
aI3
aI52
aI63765
asg6
S'Inflation is a serious problem for the economy .'
p11
ss.