(dp1
S'input'
p2
(dp3
S'encoded'
p4
(lp5
I64
aI2179
aI43
aI63
aI3376
aI4938
aI417
aI316
aI3537
asS'ori'
p6
S'This house believes that endangered species should be protected'
p7
ssS'output'
p8
(dp9
g4
(lp10
I64
aI18739
aI2096
aI116
aI21996
aI24
aI21997
aI103
aI63
aI357
aI5
aI223
aI248
aI4818
aI182
aI7
aI89
aI1107
aI12294
aI63765
asg6
S'This metaphysical idea is elucidated in Warwick Fox\'s claim that we and all other beings are "aspects of a single unfolding reality"  .'
p11
ss.