(dp1
S'input'
p2
(dp3
S'encoded'
p4
(lp5
I64
aI2179
aI43
aI24
aI3
aI475
aI7
aI12436
aI3364
asS'ori'
p6
S'This house believes in the use of affirmative action'
p7
ssS'output'
p8
(dp9
g4
(lp10
I17498
aI4446
aI63
aI10250
aI3237
aI397
aI3
aI1308
aI18251
aI681
aI382
aI693
aI5903
aI5
aI1972
aI10250
aI5072
aI2643
aI155
aI1057
aI45
aI316
aI2527
aI8890
aI5
aI3544
aI43758
aI63765
asg6
S'Eduardo Bonilla-Silva suggests that racial practices during the Jim Crow Era were typically overt and clearly racial  whereas today they tend to be covert  institutional  and apparently nonracial  .'
p11
ss.