(dp1
S'input'
p2
(dp3
S'encoded'
p4
(lp5
I64
aI2179
aI394
aI2741
aI3
aI1560
aI6025
aI2784
asS'ori'
p6
S'This house would pass the American Jobs Act'
p7
ssS'output'
p8
(dp9
g4
(lp10
I233
aI45
aI13834
aI17584
aI196
aI116
aI4835
aI545
aI3
aI5308
aI210
aI145
aI5
aI2718
aI3214
aI7
aI4256
aI196
aI182
aI45
aI316
aI4666
aI63765
asg6
S'According to Karl Marx  unemployment is inherent within the unstable capitalist system and periodic crises of mass unemployment are to be expected .'
p11
ss.