(dp1
S'input'
p2
(dp3
S'encoded'
p4
(lp5
I64
aI2179
aI43
aI63
aI6670
aI546
aI417
aI316
aI89
aI1334
aI3108
aI7
aI4849
aI1886
aI2855
asS'ori'
p6
S'This house believes that wind power should be a primary focus of future energy supply'
p7
ssS'output'
p8
(dp9
g4
(lp10
I41
aI7
aI2805
aI15121
aI6670
aI6677
aI24
aI3
aI626
aI2549
aI116
aI3
aI2546
aI6784
aI6670
aI6677
aI24
aI3
aI285
aI311
aI6775
aI1688
aI75
aI15122
aI174
aI24
aI3
aI626
aI2549
aI63765
asg6
S'As of February 2012  Walney Wind Farm in the United Kingdom is the largest offshore wind farm in the world at 367 MW  followed by Thanet (300 MW)  also in the United Kingdom .'
p11
ss.