(dp1
S'input'
p2
(dp3
S'encoded'
p4
(lp5
I64
aI2179
aI394
aI16642
aI1376
aI5269
asS'ori'
p6
S'This house would subsidize poor communities'
p7
ssS'output'
p8
(dp9
g4
(lp10
I134
aI187
aI63
aI725
aI78
aI60
aI470
aI582
aI112
aI1453
aI99
aI96
aI166
aI4262
aI2722
aI604
aI7
aI89
aI1361
aI24
aI271
aI4528
aI34
aI9097
aI1161
aI63765
asg6
S'It states that many people with below average income do not support higher tax rates because of a belief in their prospect for upward mobility  .'
p11
ss.