(dp1
S'input'
p2
(dp3
S'encoded'
p4
(lp5
I64
aI2179
aI394
aI190
aI3
aI21
aI45
aI3895
aI834
asS'ori'
p6
S'This house would limit the right to bear arms'
p7
ssS'output'
p8
(dp9
g4
(lp10
I79
aI55
aI174
aI773
aI996
aI3531
aI604
aI42
aI17363
aI1356
aI159
aI41
aI1374
aI773
aI416
aI45
aI454
aI4585
aI3810
aI4830
aI5
aI3208
aI3211
aI252
aI3188
aI3
aI17339
aI5
aI80
aI186
aI2156
aI34
aI3
aI1445
aI2471
aI7
aI598
aI2611
aI1760
aI63765
asg6
S"Kellerman's work has also being severely criticized because he ignores factors such as guns being used to protect property  save lives and deter crime without killing the criminal&mdash;which  Kleck and others argue  accounts for the large majority of defensive gun uses  ."
p11
ss.