(dp1
S'input'
p2
(dp3
S'encoded'
p4
(lp5
I64
aI2179
aI43
aI63
aI3
aI4990
aI4991
aI116
aI4850
aI24
aI12166
aI3
aI475
aI7
aI3532
aI3290
aI7
aI4714
asS'ori'
p6
S'This house believes that the Catholic Church is justified in forbidding the use of barrier methods of contraception'
p7
ssS'output'
p8
(dp9
g4
(lp10
I7
aI25866
aI5
aI9891
aI134
aI1228
aI260
aI7
aI3
aI4990
aI6409
aI1607
aI3
aI2469
aI7
aI2293
aI45
aI211
aI25873
aI5
aI16408
aI63
aI5445
aI63765
asg6
S'Of Isabella and Ferdinand  it says: "The good government of the Catholic sovereigns brought the prosperity of Spain to its apogee  and inaugurated that country\'s Golden Age"  .'
p11
ss.