(dp1
S'input'
p2
(dp3
S'encoded'
p4
(lp5
I64
aI2179
aI394
aI5284
aI150
aI3987
asS'ori'
p6
S'This house would reintroduce national service'
p7
ssS'output'
p8
(dp9
g4
(lp10
I3
aI27946
aI2969
aI1074
aI3495
aI5
aI1980
aI5755
aI24
aI384
aI1028
aI2890
aI63765
asg6
S'The HCPDS plans include women and men ages 2054 in 57 different job categories  .'
p11
ss.