(dp1
S'input'
p2
(dp3
S'encoded'
p4
(lp5
I64
aI2179
aI394
aI2017
aI3807
aI314
aI3433
asS'ori'
p6
S'This house would ban partial birth abortions'
p7
ssS'output'
p8
(dp9
g4
(lp10
I23016
aI2032
aI3
aI565
aI45
aI3553
aI64
aI8164
aI63765
asg6
S'Rue proposed the name "post-abortion syndrome" (PAS) to describe this phenomenon  .'
p11
ss.