(dp1
S'input'
p2
(dp3
S'encoded'
p4
(lp5
I64
aI2179
aI394
aI1499
aI177
aI1819
aI34
aI160
asS'ori'
p6
S'This house would build high rises for housing'
p7
ssS'output'
p8
(dp9
g4
(lp10
I22866
aI3497
aI2891
aI5
aI604
aI4275
aI1057
aI45
aI4406
aI177
aI11794
aI6782
aI5156
aI86
aI63765
asg6
S'Buyers demand low-density development and because voters tend to oppose high density developments near them  .'
p11
ss.