(dp1
S'input'
p2
(dp3
S'encoded'
p4
(lp5
I64
aI2179
aI43
aI8629
aI116
aI3
aI117
aI998
asS'ori'
p6
S'This house believes atheism is the only way'
p7
ssS'output'
p8
(dp9
g4
(lp10
I3
aI18811
aI2498
aI7
aI69
aI8629
aI98
aI99
aI4963
aI351
aI2386
aI4859
aI1642
aI7
aI18542
aI24
aI351
aI41
aI159
aI9776
aI139
aI1781
aI351
aI696
aI7
aI6268
aI4859
aI63765
asg6
S'The strictest sense of positive atheism does not entail any specific beliefs outside of disbelief in any deity; as such  atheists can hold any number of spiritual beliefs .'
p11
ss.