(dp1
S'input'
p2
(dp3
S'encoded'
p4
(lp5
I64
aI2179
aI43
aI63
aI6670
aI546
aI417
aI316
aI89
aI1334
aI3108
aI7
aI4849
aI1886
aI2855
asS'ori'
p6
S'This house believes that wind power should be a primary focus of future energy supply'
p7
ssS'output'
p8
(dp9
g4
(lp10
I5124
aI116
aI3
aI6
aI45
aI92
aI89
aI546
aI2878
aI88
aI4805
aI20020
aI73
aI1703
aI2438
aI24
aI2448
aI63765
asg6
S'Variability is the extent to which a power source may exhibit undesired or uncontrolled changes in output  .'
p11
ss.