(dp1
S'input'
p2
(dp3
S'encoded'
p4
(lp5
I64
aI2179
aI394
aI190
aI3
aI21
aI45
aI3895
aI834
asS'ori'
p6
S'This house would limit the right to bear arms'
p7
ssS'output'
p8
(dp9
g4
(lp10
I24
aI46537
aI667
aI2086
aI7
aI5615
aI5349
aI11
aI2566
aI89
aI3899
aI4272
aI114
aI217
aI34
aI117
aI89
aI1235
aI639
aI7
aI413
aI63765
asg6
S'In Rochester  New York  22% of young males have carried a firearm illegally  though most for only a short period of time  .'
p11
ss.