(dp1
S'input'
p2
(dp3
S'encoded'
p4
(lp5
I64
aI2179
aI43
aI63
aI187
aI417
aI99
aI16642
aI3
aI6449
aI7
aI3935
asS'ori'
p6
S'This house believes that states should not subsidize the growing of tobacco'
p7
ssS'output'
p8
(dp9
g4
(lp10
I25398
aI3935
aI252
aI992
aI7521
aI3
aI11040
aI24
aI3
aI1235
aI2497
aI534
aI14833
aI117
aI1488
aI2412
aI311
aI89
aI413
aI270
aI89
aI13625
aI675
aI3
aI49307
aI73
aI49308
aI73
aI14833
aI2453
aI473
aI49309
aI159
aI41
aI3
aI49310
aI73
aI3
aI25437
aI49311
aI31816
aI34
aI89
aI8
aI4994
aI7
aI64
aI63765
asg6
S'Inhaling "rough" tobacco without seriously damaging the lungs in the short term required smoking only small quantities at a time using a pipe like the midwakh or kiseru or smoking newly invented waterpipes such as the bong or the hookah (See Thuoc lao for a modern continuance of this practice) .'
p11
ss.