(dp1
S'input'
p2
(dp3
S'encoded'
p4
(lp5
I64
aI2179
aI394
aI5284
aI150
aI3987
asS'ori'
p6
S'This house would reintroduce national service'
p7
ssS'output'
p8
(dp9
g4
(lp10
I15677
aI15803
aI4330
aI3386
aI15677
aI2179
aI188
aI15677
aI282
aI6793
aI15804
aI7985
aI15677
aI63765
asg6
S'Caucus memberships Congressional Black Caucus House Democratic Caucus International Conservation CaucusCongressional Arts Caucus  .'
p11
ss.