(dp1
S'input'
p2
(dp3
S'encoded'
p4
(lp5
I64
aI2179
aI394
aI2017
aI3807
aI314
aI3433
asS'ori'
p6
S'This house would ban partial birth abortions'
p7
ssS'output'
p8
(dp9
g4
(lp10
I2318
aI2404
aI1735
aI3257
aI14
aI3497
aI459
aI211
aI4662
aI14
aI3510
aI7
aI3271
aI2784
aI63765
asg6
S'South Africa allows abortion on demand under its Choice on Termination of Pregnancy Act .'
p11
ss.