(dp1
S'input'
p2
(dp3
S'encoded'
p4
(lp5
I64
aI2179
aI394
aI163
aI959
aI2042
aI3557
asS'ori'
p6
S'This house would make physical education compulsory'
p7
ssS'output'
p8
(dp9
g4
(lp10
I24
aI223
aI132
aI3052
aI273
aI116
aI443
aI8915
aI3503
aI1453
aI357
aI99
aI7434
aI24
aI64
aI998
aI63764
asg6
S'In all these cases  there is no constraint exercised; yet do we not learn in this way ?'
p11
ss.