(dp1
S'input'
p2
(dp3
S'encoded'
p4
(lp5
I64
aI2179
aI394
aI15841
aI2736
asS'ori'
p6
S'This house would disband ASEAN'
p7
ssS'output'
p8
(dp9
g4
(lp10
I155
aI174
aI4415
aI3
aI7210
aI41
aI30708
aI63
aI4995
aI3
aI6349
aI63765
asg6
S"They also viewed the organisation as imperialistic that threatens the country's sovereignty  ."
p11
ss.