(dp1
S'input'
p2
(dp3
S'encoded'
p4
(lp5
I64
aI2179
aI43
aI63
aI134
aI116
aI400
aI21
aI34
aI3
aI260
aI45
aI3439
aI57
aI7
aI2381
asS'ori'
p6
S'This house believes that it is sometimes right for the government to restrict freedom of speech'
p7
ssS'output'
p8
(dp9
g4
(lp10
I24
aI52717
aI646
aI63765
aI4235
aI5276
aI2130
aI3
aI2483
aI3396
aI462
aI51
aI4235
aI3304
aI63
aI221
aI134
aI89
aI3211
aI45
aI13926
aI14725
aI4276
aI3600
aI63765
asg6
S'In McIntyre v . Ohio Elections Commission    the Court struck down an Ohio statute that made it a crime to distribute anonymous campaign literature .'
p11
ss.