(dp1
S'input'
p2
(dp3
S'encoded'
p4
(lp5
I64
aI2179
aI394
aI117
aI7428
aI21151
aI34
aI11389
aI2042
aI24
aI4364
asS'ori'
p6
S'This house would only teach abstinence for sex education in schools'
p7
ssS'output'
p8
(dp9
g4
(lp10
I8499
aI17784
aI2189
aI1642
aI8559
aI116
aI4354
aI50970
aI73
aI131
aI55
aI443
aI6535
aI7
aI13891
aI63765
asg6
S'Judaism forbids intercourse outside marriage (which is termed zenuth or promiscuity)  but has no ideal of chastity .'
p11
ss.