(dp1
S'input'
p2
(dp3
S'encoded'
p4
(lp5
I64
aI2179
aI394
aI10662
aI626
aI187
aI2157
aI2697
aI19
aI2371
asS'ori'
p6
S'This house would remove United States military bases from Japan'
p7
ssS'output'
p8
(dp9
g4
(lp10
I3
aI6552
aI52829
aI382
aI3550
aI311
aI267
aI7
aI86
aI5
aI89
aI697
aI7
aI4358
aI5
aI5251
aI1890
aI2343
aI3
aI94
aI63765
asg6
S'The Princess Lilies were organized at two of them  and a total of 297 students and teachers eventually joined the group .'
p11
ss.