(dp1
S'input'
p2
(dp3
S'encoded'
p4
(lp5
I64
aI2179
aI394
aI2017
aI628
asS'ori'
p6
S'This house would ban gambling'
p7
ssS'output'
p8
(dp9
g4
(lp10
I3
aI2195
aI45
aI3890
aI116
aI3075
aI45
aI1074
aI7147
aI7689
aI24
aI3
aI2784
aI63765
asg6
S'The "game subject to chance" restriction is designed to include Internet poker in the act  .'
p11
ss.