(dp1
S'input'
p2
(dp3
S'encoded'
p4
(lp5
I64
aI2179
aI43
aI63
aI3357
aI5003
aI652
aI3
aI188
aI3262
asS'ori'
p6
S'This house believes that opinion polls harm the democratic process'
p7
ssS'output'
p8
(dp9
g4
(lp10
I51
aI4168
aI9189
aI3713
aI116
aI89
aI3713
aI7
aI4275
aI788
aI840
aI366
aI155
aI11
aI30732
aI3
aI3721
aI6745
aI63765
asg6
S'An election exit poll is a poll of voters taken immediately after they have exited the polling stations .'
p11
ss.