(dp1
S'input'
p2
(dp3
S'encoded'
p4
(lp5
I64
aI2179
aI43
aI63
aI134
aI116
aI400
aI21
aI34
aI3
aI260
aI45
aI3439
aI57
aI7
aI2381
asS'ori'
p6
S'This house believes that it is sometimes right for the government to restrict freedom of speech'
p7
ssS'output'
p8
(dp9
g4
(lp10
I7252
aI2938
aI139
aI316
aI5110
aI270
aI23775
aI5
aI4458
aI1498
aI5
aI139
aI1233
aI19
aI351
aI2148
aI3370
aI63765
asg6
S'Web-based publishing systems can be run using ubiquitous and inexpensive equipment and can operate from any global jurisdiction .'
p11
ss.