(dp1
S'input'
p2
(dp3
S'encoded'
p4
(lp5
I64
aI2179
aI394
aI117
aI7428
aI21151
aI34
aI11389
aI2042
aI24
aI4364
asS'ori'
p6
S'This house would only teach abstinence for sex education in schools'
p7
ssS'output'
p8
(dp9
g4
(lp10
I24
aI3
aI10735
aI1191
aI3
aI3859
aI6260
aI24
aI3
aI10735
aI1191
aI3
aI7128
aI6260
aI24
aI10046
aI1191
aI64
aI1963
aI63
aI55
aI1199
aI89
aI2613
aI24
aI3218
aI3905
aI958
aI138
aI51
aI4640
aI1191
aI13794
aI2202
aI63765
asg6
S"They're in the dark about the emotional reality  they're in the dark about the biological reality  they're in denial about this thing that has become a drug in our culture  rather than an expression about intimate relations ."
p11
ss.