(dp1
S'input'
p2
(dp3
S'encoded'
p4
(lp5
I64
aI2179
aI43
aI63
aI3376
aI4938
aI417
aI316
aI3537
asS'ori'
p6
S'This house believes that endangered species should be protected'
p7
ssS'output'
p8
(dp9
g4
(lp10
I24
aI3
aI398
aI3089
aI24
aI3
aI626
aI2549
aI626
aI187
aI5
aI2547
aI3402
aI3
aI1795
aI7
aI5166
aI2506
aI4184
aI45
aI8240
aI7
aI159
aI78
aI41
aI495
aI8166
aI4029
aI2366
aI5
aI8013
aI8014
aI63765
asg6
S'In the 20th century  actions in the United Kingdom  United States  and Canada emphasized the protection of habitat areas pursuant to visions of such people as John Muir  Theodore Roosevelt  and Aldo Leopold .'
p11
ss.