(dp1
S'input'
p2
(dp3
S'encoded'
p4
(lp5
I64
aI2179
aI43
aI24
aI3
aI475
aI7
aI12436
aI3364
asS'ori'
p6
S'This house believes in the use of affirmative action'
p7
ssS'output'
p8
(dp9
g4
(lp10
I7376
aI725
aI6228
aI11
aI3629
aI2282
aI7
aI4948
aI24
aI128
aI45
aI1292
aI3
aI6621
aI3930
aI5891
aI63765
asg6
S'Moreover  many Chinese-owned companies have avoided expansion of activities in order to avoid the 30 % Malay ownership quota .'
p11
ss.