(dp1
S'input'
p2
(dp3
S'encoded'
p4
(lp5
I64
aI2179
aI13605
aI2258
aI45
aI2194
asS'ori'
p6
S'This house prefers trade to aid'
p7
ssS'output'
p8
(dp9
g4
(lp10
I1237
aI279
aI7408
aI2136
aI3157
aI2287
aI96
aI34
aI16315
aI41
aI4328
aI75
aI9346
aI2851
aI96
aI6826
aI3350
aI117
aI16691
aI19
aI51
aI582
aI7
aI2901
aI6677
aI8946
aI24
aI45
aI589
aI24
asg6
S'(Despite several Common Agricultural Policy reforms  domestic support for wheat - as measured by OECD producer support estimates - declined only marginally from an average 52% of gross farm receipts in 1986-88  to around 48% in 1998-2000  .)'
p11
ss.