(dp1
S'input'
p2
(dp3
S'encoded'
p4
(lp5
I64
aI2179
aI43
aI24
aI3
aI475
aI7
aI12436
aI3364
asS'ori'
p6
S'This house believes in the use of affirmative action'
p7
ssS'output'
p8
(dp9
g4
(lp10
I34
aI1343
aI14131
aI4750
aI4993
aI7
aI2795
aI10248
aI5
aI89
aI2493
aI965
aI12938
aI116
aI136
aI1856
aI45
aI11
aI12
aI7479
aI75
aI89
aI2795
aI10185
aI138
aI75
aI93
aI81
aI7318
aI19
aI12436
aI3364
aI63765
asg6
S'For example  Harvard University admits 35-40% of legacy applicants  and a rejected white applicant is more likely to have been displaced by a legacy student than by one who benefited from affirmative action .'
p11
ss.