(dp1
S'input'
p2
(dp3
S'encoded'
p4
(lp5
I64
aI2179
aI394
aI2017
aI223
aI9058
aI23653
asS'ori'
p6
S'This house would ban all unsustainable logging'
p7
ssS'output'
p8
(dp9
g4
(lp10
I653
aI773
aI3
aI26925
aI7
aI44683
aI44684
aI5
aI3
aI2878
aI34
aI93
aI7
aI3
aI2764
aI24308
aI44692
aI912
aI1620
aI7
aI3
aI3048
aI3332
aI5938
aI45
aI1853
aI3
aI7910
aI116
aI6351
aI63765
asg6
S'Despite being the birthplace of Coffea arabica and the source for one of the worlds finest coffees  current commitment of the worldwide coffee industry to conserve the forests is negligible .'
p11
ss.