(dp1
S'input'
p2
(dp3
S'encoded'
p4
(lp5
I64
aI2179
aI394
aI16756
aI20435
asS'ori'
p6
S'This house would criminalize blasphemy'
p7
ssS'output'
p8
(dp9
g4
(lp10
I3
aI2977
aI260
aI174
aI742
aI155
aI182
aI1483
aI31192
aI63
aI3
aI883
aI62845
aI174
aI9706
aI5786
aI63765
asg6
S'The Polish government also said they are quite sorry that the newspaper Rzeczpospolita also offended Muslims .'
p11
ss.