(dp1
S'input'
p2
(dp3
S'encoded'
p4
(lp5
I64
aI2179
aI394
aI5370
aI3
aI5286
asS'ori'
p6
S'This house would abolish the monarchy'
p7
ssS'output'
p8
(dp9
g4
(lp10
I3508
aI4262
aI2666
aI5878
aI117
aI34
aI3
aI5136
aI566
aI60
aI3
aI5
aI4233
aI41
aI9160
aI7
aI3
aI254
aI158
aI4564
aI2702
aI6769
aI3079
aI6525
aI5
aI3
aI675
aI63765
asg6
S"Normally  tax dollars pay only for the costs associated with the Governor-General and Queen's Representative as instruments of the Queen's authority  including travel  security  residences  offices  ceremonies  and the like ."
p11
ss.