(dp1
S'input'
p2
(dp3
S'encoded'
p4
(lp5
I64
aI2179
aI43
aI63
aI11083
aI10046
aI417
aI316
aI89
aI3135
aI4603
asS'ori'
p6
S'This house believes that Holocaust denial should be a criminal offence'
p7
ssS'output'
p8
(dp9
g4
(lp10
I3
aI2330
aI3031
aI42591
aI2031
aI11202
aI459
aI3
aI18
aI63
aI10046
aI7
aI159
aI51
aI11431
aI4257
aI7
aI3189
aI93
aI3059
aI7
aI4895
aI382
aI3862
aI459
aI3
aI3485
aI7
aI1019
aI1032
aI316
aI1348
aI41
aI4722
aI3537
aI75
aI3
aI57
aI7
asg6
S'The German historian Hans-Ulrich Wehler supported Irving\'s imprisonment under the grounds that "The denial of such an unimaginable murder of millions  one third of whom were children under the age of 14  cannot simply be accepted as something protected by the freedom of speech" '
p11
ss.