(dp1
S'input'
p2
(dp3
S'encoded'
p4
(lp5
I64
aI2179
aI43
aI63
aI2157
aI2565
aI493
aI19084
aI382
aI4850
asS'ori'
p6
S"This house believes that Israel's 2008-2009 military operations against Gaza were justified"
p7
ssS'output'
p8
(dp9
g4
(lp10
I29823
aI174
aI2173
aI63
aI905
aI227
aI1136
aI2733
aI624
aI45
aI7214
aI5597
aI5
aI17363
aI3
aI2514
aI5
aI21
aI7
aI1928
aI2696
aI45
aI776
aI2126
aI41
aI3
aI2800
aI2126
aI440
aI1972
aI2173
aI42
aI1630
aI63
aI3
aI905
aI45
aI2855
aI351
aI248
aI998
aI34
aI16619
aI4477
aI45
aI991
aI63765
aI3
aI2565
aI11
aI4041
aI3
aI3912
aI52
aI26236
aI6101
aI19
aI19134
aI2928
aI5
aI547
aI19130
aI45
aI1613
aI24582
aI63765
aI3
aI6056
aI260
aI9328
aI5
aI16619
aI2586
aI89
aI22688
aI31372
aI12073
aI5806
aI7
aI13657
aI14
aI3495
aI5
aI3862
aI4794
aI3180
aI107
aI7
aI19423
aI19084
aI5
aI15425
aI34
aI3
aI9
asg6
S'Peres also stated that "the report gives de facto legitimacy to terrorist initiatives and ignores the obligation and right of every country to defend itself  as the UN itself had clearly stated ." He added that the report "Failed to supply any other way for Hamas fire to stop . The IDF\'s operations have boosted the West Bank\'s economy  liberated Lebanon from Hezbollah terror and allowed Gazans to resume normalcy . The Israeli government withdrew (from Gaza) and Hamas began a murderous rampage  firing thousands of shells on women and children  innocent civilians  instead of rebuilding Gaza and caring for the population\'s welfare'
p11
ss.