(dp1
S'input'
p2
(dp3
S'encoded'
p4
(lp5
I64
aI2179
aI43
aI17
aI4941
aI857
aI3211
asS'ori'
p6
S'This house believes social deprivation causes crime'
p7
ssS'output'
p8
(dp9
g4
(lp10
I174
aI3365
aI45
aI4436
aI24
aI3
aI7
aI3
aI14655
aI63
aI2686
aI17076
aI17079
aI41
aI3
aI7582
aI174
aI2686
aI51
aI3822
aI4553
aI63765
asg6
S'Also related to homicides  in the 1980s 25% of the murders that involved juvenile delinquents as the offenders also involved an adult offender .'
p11
ss.