(dp1
S'input'
p2
(dp3
S'encoded'
p4
(lp5
I64
aI2179
aI43
aI17
aI4941
aI857
aI3211
asS'ori'
p6
S'This house believes social deprivation causes crime'
p7
ssS'output'
p8
(dp9
g4
(lp10
I23072
aI60
aI14722
aI15072
aI116
aI89
aI281
aI521
aI7
aI3211
aI63765
asg6
S'Interacting with antisocial peers is a major cause of crime .'
p11
ss.