(dp1
S'input'
p2
(dp3
S'encoded'
p4
(lp5
I64
aI2179
aI43
aI63
aI2157
aI2565
aI493
aI19084
aI382
aI4850
asS'ori'
p6
S"This house believes that Israel's 2008-2009 military operations against Gaza were justified"
p7
ssS'output'
p8
(dp9
g4
(lp10
I136
aI246
aI3
aI2800
aI905
aI3394
aI63
aI3480
aI417
aI316
aI575
aI45
aI3593
aI3
aI475
aI7
aI965
aI31277
aI24
aI2506
aI63765
asg6
S'More generally  the UN report recommended that "serious consideration should be given to banning the use of white phosphorus in built-up areas .'
p11
ss.