(dp1
S'input'
p2
(dp3
S'encoded'
p4
(lp5
I64
aI2179
aI394
aI2998
aI3
aI4360
aI7
aI3249
aI6804
aI24
aI3
aI102
asS'ori'
p6
S'This house would encourage the creation of private universities in the UK'
p7
ssS'output'
p8
(dp9
g4
(lp10
I24
aI64
aI2496
aI3
aI22641
aI5458
aI19
aI3
aI9178
aI4538
aI6226
aI45
aI3
aI6459
aI532
aI7
aI3
aI7180
aI226
aI3
aI9417
aI19
aI3
aI6369
aI9003
aI8952
aI45
aI4216
aI376
aI6751
aI3
aI6380
aI139
aI316
aI513
aI12991
aI3
aI1643
aI41
aI89
aI4216
aI7180
aI114
aI134
aI116
aI16063
aI41
aI89
aI4538
aI63765
asg6
S'In this interpretation  the upfront payment from the privatization sale corresponds to the principal amount of the loan  while the proceeds from the underlying asset correspond to secured interest payments  the transaction can be considered substantively the same as a secured loan  though it is structured as a sale  .'
p11
ss.