(dp1
S'input'
p2
(dp3
S'encoded'
p4
(lp5
I64
aI2179
aI43
aI63
aI7382
aI116
aI400
aI4713
asS'ori'
p6
S'This house believes that bribery is sometimes acceptable'
p7
ssS'output'
p8
(dp9
g4
(lp10
I24
aI421
aI45
aI270
aI7382
aI34
aI3249
aI2351
aI951
aI155
aI182
aI174
aI416
aI45
aI519
aI5
aI31877
aI521
aI652
aI45
aI97
aI63765
asg6
S'In addition to using bribery for private financial gain  they are also used to intentionally and maliciously cause harm to another (i .e .'
p11
ss.