(dp1
S'input'
p2
(dp3
S'encoded'
p4
(lp5
I64
aI2179
aI394
aI2017
aI223
aI9058
aI23653
asS'ori'
p6
S'This house would ban all unsustainable logging'
p7
ssS'output'
p8
(dp9
g4
(lp10
I24
aI1343
aI134
aI116
aI24
aI574
aI376
aI45
aI4883
aI574
aI12975
aI8118
aI42
aI24681
aI7624
aI3
aI1413
aI113
aI257
aI3
aI3982
aI4204
aI7
aI3
aI279
aI116
aI2834
aI5
aI134
aI116
aI6972
aI73
aI7554
aI11022
aI34
aI223
aI41
aI89
aI296
aI63765
asg6
S"In Hardin's example  it is in each herder's interest to put each succeeding cow he acquires onto the land  even if the carrying capacity of the common is exceeded and it is temporarily or permanently damaged for all as a result ."
p11
ss.