(dp1
S'input'
p2
(dp3
S'encoded'
p4
(lp5
I64
aI2179
aI394
aI5842
aI3569
aI446
aI13498
asS'ori'
p6
S'This house would introduce year round schooling'
p7
ssS'output'
p8
(dp9
g4
(lp10
I1334
aI4364
aI182
aI1295
aI45
aI12931
aI14
aI2116
aI5
aI312
aI14
aI2555
aI63765
asg6
S'Primary schools are off to vacation on June 1 and end on September 14 .'
p11
ss.