(dp1
S'input'
p2
(dp3
S'encoded'
p4
(lp5
I64
aI2179
aI394
aI5370
aI223
aI4013
aI10440
aI2446
aI4881
aI75
aI14482
aI11004
asS'ori'
p6
S'This house would abolish all collective bargaining rights claimed by trades unions'
p7
ssS'output'
p8
(dp9
g4
(lp10
I6359
aI11317
aI25907
aI24
aI25
aI27995
aI493
aI3
aI14653
aI6941
aI2037
aI5
aI5953
aI63
aI6941
aI417
aI316
aI4626
aI77
aI2446
aI5
aI934
aI3645
aI63765
asg6
S'Pope Leo XIII in his "Magna Carta"Rerum Novarumspoke against the atrocities workers faced and demanded that workers should be granted certain rights and safety regulations  .'
p11
ss.