(dp1
S'input'
p2
(dp3
S'encoded'
p4
(lp5
I64
aI2179
aI43
aI63
aI2659
aI417
aI1690
aI3
aI12048
aI7
aI19084
asS'ori'
p6
S'This house believes that Israel should lift the blockade of Gaza'
p7
ssS'output'
p8
(dp9
g4
(lp10
I298
aI2200
aI1191
aI51
aI282
aI9359
aI51
aI5777
aI5810
aI134
aI417
aI316
aI3714
aI75
aI51
aI282
aI94
aI63765
asg6
S'When asked about an international investigation  an overwhelming 74% believed it should be conducted by an international group .'
p11
ss.