(dp1
S'input'
p2
(dp3
S'encoded'
p4
(lp5
I64
aI2179
aI394
aI15841
aI2736
asS'ori'
p6
S'This house would disband ASEAN'
p7
ssS'output'
p8
(dp9
g4
(lp10
I24
aI421
aI2736
aI116
aI923
aI9185
aI89
aI1260
aI2258
aI2603
aI60
aI3
aI1565
aI2131
aI63765
asg6
S'In addition  ASEAN is currently negotiating a free trade agreement with the European Union  .'
p11
ss.