(dp1
S'input'
p2
(dp3
S'encoded'
p4
(lp5
I64
aI2179
aI43
aI63
aI2659
aI417
aI1690
aI3
aI12048
aI7
aI19084
asS'ori'
p6
S'This house believes that Israel should lift the blockade of Gaza'
p7
ssS'output'
p8
(dp9
g4
(lp10
I3
aI20361
aI9671
aI458
aI24
aI3
aI4192
aI19084
aI966
aI53
aI448
aI27897
aI58055
aI89
aI5520
aI2216
aI7
aI3
aI7186
aI2702
aI972
aI2013
aI298
aI89
aI11995
aI801
aI25
aI3900
aI63765
asg6
S'The deadliest clashes occurred in the northern Gaza Strip  where General Muhammed Gharib  a senior commander of the Fatah-dominated Preventative Security Force  died when a rocket hit his home .'
p11
ss.