(dp1
S'input'
p2
(dp3
S'encoded'
p4
(lp5
I64
aI2179
aI394
aI117
aI7428
aI21151
aI34
aI11389
aI2042
aI24
aI4364
asS'ori'
p6
S'This house would only teach abstinence for sex education in schools'
p7
ssS'output'
p8
(dp9
g4
(lp10
I658
aI3357
aI5003
aI3714
aI289
aI3
aI2439
aI11
aI353
aI63
aI3
aI2411
aI2471
aI7
aI2625
aI1561
aI2495
aI11389
aI2042
aI256
aI289
aI120
aI63
aI7428
aI117
aI21151
asg6
S'Public opinion polls conducted over the years have found that the vast majority of Americans favor broader sex education programs over those that teach only abstinence'
p11
ss.