(dp1
S'input'
p2
(dp3
S'encoded'
p4
(lp5
I64
aI2179
aI394
aI2976
aI12243
aI24
aI954
aI126
aI1560
aI10723
asS'ori'
p6
S'This house would implement playoffs in collegiate level American football'
p7
ssS'output'
p8
(dp9
g4
(lp10
I24
aI4398
aI122
aI3473
aI45
aI6372
aI34964
aI24
aI89
aI32812
aI291
aI3
aI267
aI256
aI653
aI892
aI3
aI2388
aI1419
aI5
aI99
aI438
aI271
aI1239
aI8196
aI2487
aI271
aI2333
aI63765
aI64
aI12983
aI63
aI89
aI11276
aI63
aI463
aI99
aI113
aI750
aI271
aI2333
aI5489
aI116
aI973
aI3
aI5489
aI7
aI1059
aI11276
aI24
aI3
aI2548
aI653
aI3
aI1178
aI5556
aI7
aI89
aI1796
aI17304
aI545
aI271
aI284
aI2333
aI41
aI122
aI3
aI33
aI60
aI4398
aI24
asg6
S'In 2011  Alabama was selected to play LSU in a rematch between the two programs despite losing the earlier matchup and not winning their division  let alone their conference . This entails that a team that could not even win their conference title is awarded the title of best team in the nation  despite the obvious presence of a better squad within their own conference  as was the case with Alabama in 2011'
p11
ss.