(dp1
S'input'
p2
(dp3
S'encoded'
p4
(lp5
I64
aI2179
aI43
aI8629
aI116
aI3
aI117
aI998
asS'ori'
p6
S'This house believes atheism is the only way'
p7
ssS'output'
p8
(dp9
g4
(lp10
I3
aI26
aI11591
aI51
aI6460
aI1849
aI15
aI69
aI5
aI4099
aI5
aI122
aI480
aI60
aI14139
aI19
aI6834
aI159
aI41
aI9486
aI9487
aI5
aI7
aI3
aI3665
aI7
aI13969
aI411
aI2365
aI63765
aI14061
aI14131
aI8533
aI3061
aI22202
aI41
aI261
aI41
aI939
aI1367
aI7
aI21771
aI5
aI3
aI29611
aI9922
aI5
aI11886
aI63765
asg6
S'The book provoked an immediate response  both positive and negative  and was published with endorsements from scientists  such as Nobel laureate and co-discoverer of the structure of DNA James D . Watson  Harvard psychologist Steven Pinker  as well as popular writers of fiction and the illusionists Penn and Teller  .'
p11
ss.