(dp1
S'input'
p2
(dp3
S'encoded'
p4
(lp5
I64
aI2179
aI394
aI2773
aI12505
asS'ori'
p6
S'This house would embrace multiculturalism'
p7
ssS'output'
p8
(dp9
g4
(lp10
I10070
aI6619
aI11
aI3
aI21
aI45
aI1049
aI5
aI949
aI271
aI22
aI16
aI5
aI17
aI2938
aI73
aI2825
aI45
aI316
aI1456
aI24
aI3
aI17641
aI7
aI271
aI284
aI258
aI7
aI3963
aI5
aI2891
aI5
aI45
aI268
aI3465
aI24
aI223
aI271
aI3492
aI5
aI248
aI16
aI4948
aI63765
asg6
S'Indigenous peoples have the right to maintain and develop their political  economic and social systems or institutions  to be secure in the enjoyment of their own means of subsistence and development  and to engage freely in all their traditional and other economic activities .'
p11
ss.