(dp1
S'input'
p2
(dp3
S'encoded'
p4
(lp5
I64
aI2179
aI394
aI2017
aI223
aI9058
aI23653
asS'ori'
p6
S'This house would ban all unsustainable logging'
p7
ssS'output'
p8
(dp9
g4
(lp10
I3
aI3136
aI2750
aI45
aI687
aI89
aI1620
aI291
aI3
aI7178
aI7
aI3
aI260
aI5
aI2022
aI45
aI1853
aI3
aI23577
aI5
aI182
aI1652
aI34
aI51
aI164
aI1811
aI24
aI7809
aI7
aI6802
aI6803
aI24
aI2652
aI2439
aI63765
asg6
S'The groups aim to establish a wide-ranging commitment between the sectors of the government and society to conserve the rainforest and are aiming for an overall reduction in deforestation of 68 737 .8 square kilometres in seven years .'
p11
ss.