(dp1
S'input'
p2
(dp3
S'encoded'
p4
(lp5
I64
aI2179
aI394
aI2017
aI3807
aI314
aI3433
asS'ori'
p6
S'This house would ban partial birth abortions'
p7
ssS'output'
p8
(dp9
g4
(lp10
I4702
aI7
aI3
aI3168
aI246
aI186
aI63
aI691
aI3861
aI3862
aI182
aI136
aI1856
aI45
aI1199
aI4285
aI5
aI63
aI51
aI4703
aI4704
aI116
aI2778
aI291
aI3
aI3891
aI7
aI3257
aI5
aI4705
aI3211
aI63765
asg6
S'Proponents of the theory generally argue that since unwanted children are more likely to become criminals and that an inverse correlation is observed between the availability of abortion and subsequent crime .'
p11
ss.