(dp1
S'input'
p2
(dp3
S'encoded'
p4
(lp5
I64
aI2179
aI394
aI60
aI23587
asS'ori'
p6
S'This house would re-engage with Myanmar'
p7
ssS'output'
p8
(dp9
g4
(lp10
I131
aI24
aI89
aI2801
aI626
aI2138
aI448
aI6293
aI3382
aI620
aI89
aI9596
aI63
aI3740
aI263
aI111
aI3
aI260
aI7
aI3118
aI45
aI312
aI211
aI5971
aI844
aI7
aI2445
aI2446
aI63765
asg6
S'But in 2006 a divided United Nations General Assembly voted through a resolution that strongly called upon the government of Burma to end its systematic violations of human rights  .'
p11
ss.