(dp1
S'input'
p2
(dp3
S'encoded'
p4
(lp5
I64
aI2179
aI394
aI9385
aI2497
aI447
aI14
aI3
aI3578
aI5721
aI7
aI260
asS'ori'
p6
S'This house would enforce term limits on the legislative branch of government'
p7
ssS'output'
p8
(dp9
g4
(lp10
I7412
aI1545
aI25
aI212
aI9313
aI2302
aI6766
aI298
aI443
aI93
aI866
aI3478
aI86
aI768
aI2233
aI7783
aI86
aI63765
asg6
S'Rich described his real estate strategy: "I bought buildings when no one else wanted them  then I sold them .'
p11
ss.