(dp1
S'input'
p2
(dp3
S'encoded'
p4
(lp5
I64
aI2179
aI43
aI63
aI3
aI4538
aI7
aI4434
aI7793
aI283
aI45
aI3586
aI417
aI316
aI577
asS'ori'
p6
S'This house believes that the sale of violent video games to minors should be banned'
p7
ssS'output'
p8
(dp9
g4
(lp10
I24337
aI382
aI2623
aI279
aI5173
aI5254
aI34
aI7793
aI319
aI3073
aI131
aI1021
aI45
aI8114
aI14810
aI217
aI7793
aI283
aI182
aI2056
aI8095
aI14
aI7335
aI73
aI166
aI4204
aI22234
aI73
aI3
aI23696
aI416
aI75
aI3
aI24392
aI63765
asg6
S'Cartridges were previously common storage devices for video game data  but due to technological advances  most video games are now stored on CDs  or higher capacity DVDs  or the Blu-ray Disc used by the PlayStation 3 .'
p11
ss.