(dp1
S'input'
p2
(dp3
S'encoded'
p4
(lp5
I64
aI2179
aI394
aI2017
aI223
aI9058
aI23653
asS'ori'
p6
S'This house would ban all unsustainable logging'
p7
ssS'output'
p8
(dp9
g4
(lp10
I3
aI2497
aI7177
aI45
aI35
aI2635
aI159
aI1702
aI18856
aI4975
aI6756
aI41177
aI6830
aI8072
aI7910
aI5
aI1495
aI39071
aI63765
asg6
S'The term applies to natural resources such as: wild medicinal plants  grazing pastures  fish stocks  forests and water aquifers .'
p11
ss.