(dp1
S'input'
p2
(dp3
S'encoded'
p4
(lp5
I64
aI2179
aI43
aI63
aI3357
aI5003
aI652
aI3
aI188
aI3262
asS'ori'
p6
S'This house believes that opinion polls harm the democratic process'
p7
ssS'output'
p8
(dp9
g4
(lp10
I97
aI2878
aI7
aI10032
aI2740
aI19
aI10512
aI7932
aI4471
aI75
aI3732
aI81
aI10513
aI271
aI10504
aI75
aI1341
aI7970
aI159
aI41
aI171
aI7533
aI24
aI51
aI4168
aI63765
asg6
S'Another source of error stems from faulty demographic models by pollsters who weigh their samples by particular variables such as party identification in an election .'
p11
ss.