(dp1
S'input'
p2
(dp3
S'encoded'
p4
(lp5
I64
aI2179
aI43
aI63
aI3
aI4990
aI4991
aI116
aI4850
aI24
aI12166
aI3
aI475
aI7
aI3532
aI3290
aI7
aI4714
asS'ori'
p6
S'This house believes that the Catholic Church is justified in forbidding the use of barrier methods of contraception'
p7
ssS'output'
p8
(dp9
g4
(lp10
I14
aI2394
aI3
aI6359
aI2586
aI371
aI3
aI26975
aI3
aI3492
aI4156
aI6549
aI9999
aI162
aI977
aI24
aI3
aI4255
aI63765
asg6
S'On 21 December 2005  the pope began wearing the camauro  the traditional red papal hat usually worn in the winter .'
p11
ss.