(dp1
S'input'
p2
(dp3
S'encoded'
p4
(lp5
I64
aI2179
aI43
aI63
aI820
aI12564
aI182
aI3
aI217
aI1112
aI1869
aI7
aI10656
aI4672
aI34
aI5276
asS'ori'
p6
S'This house believes that open primaries are the most effective method of selecting candidates for elections'
p7
ssS'output'
p8
(dp9
g4
(lp10
I319
aI3168
aI139
aI174
aI316
aI416
aI45
aI10525
aI3
aI12625
aI5
aI12626
aI7
aI384
aI3290
aI63765
asg6
S'Game theory can also be used to analyze the pros and cons of different methods .'
p11
ss.