(dp1
S'input'
p2
(dp3
S'encoded'
p4
(lp5
I64
aI2179
aI43
aI63
aI3
aI4538
aI7
aI4434
aI7793
aI283
aI45
aI3586
aI417
aI316
aI577
asS'ori'
p6
S'This house believes that the sale of violent video games to minors should be banned'
p7
ssS'output'
p8
(dp9
g4
(lp10
I24
aI2555
aI24
aI4235
aI12468
aI56854
aI56855
aI864
aI7
aI25
aI26511
aI6188
aI45
aI2290
aI3
aI319
aI29327
aI493
aI3
aI987
aI7
aI25
aI4928
aI89
aI2161
aI311
aI667
aI3269
aI6293
aI7
aI5480
aI24
aI10361
aI4235
aI2145
aI63765
asg6
S'In September 2007 in Ohio  16-year-old Daniel Petric snuck out of his bedroom window to purchase the game Halo 3 against the orders of his father  a minister at New Life Assembly of God in Wellington  Ohio  U .S  .'
p11
ss.