(dp1
S'input'
p2
(dp3
S'encoded'
p4
(lp5
I64
aI2179
aI43
aI63
aI1036
aI4828
aI33250
aI116
aI25073
aI45
aI3315
aI4562
asS'ori'
p6
S'This house believes that male infant circumcision is tantamount to child abuse'
p7
ssS'output'
p8
(dp9
g4
(lp10
I34
aI1980
aI81
aI8790
aI622
aI24
aI43810
aI31613
aI11389
aI89
aI920
aI2016
aI122
aI5047
aI131
aI134
aI183
aI122
aI99
aI5043
aI4229
aI63765
asg6
S'For men who engaged primarily in insertive anal sex  a protective association was reported  but it too was not statistically significant .'
p11
ss.