(dp1
S'input'
p2
(dp3
S'encoded'
p4
(lp5
I64
aI2179
aI43
aI63
aI134
aI116
aI400
aI21
aI34
aI3
aI260
aI45
aI3439
aI57
aI7
aI2381
asS'ori'
p6
S'This house believes that it is sometimes right for the government to restrict freedom of speech'
p7
ssS'output'
p8
(dp9
g4
(lp10
I50426
aI3172
aI63
aI57
aI7
aI3
aI2961
aI116
aI1032
aI89
aI399
aI7
aI4585
aI21
aI6315
aI588
aI75
aI3
aI6174
aI137
aI443
aI63765
asg6
S'Lichtenberg argues that freedom of the press is simply a form of property right summed up by the principle "no money  no voice"  .'
p11
ss.