(dp1
S'input'
p2
(dp3
S'encoded'
p4
(lp5
I64
aI2179
aI394
aI4325
aI2042
aI270
aI89
aI11605
aI3324
asS'ori'
p6
S'This house would fund education using a voucher scheme'
p7
ssS'output'
p8
(dp9
g4
(lp10
I693
aI9375
aI182
aI99
aI547
aI45
aI4576
aI3336
aI493
aI3
aI260
aI2230
aI40
aI6329
aI182
aI698
aI604
aI806
aI394
aI316
aI10985
aI11889
aI63765
asg6
S'Typically  taxpayers are not allowed to bring suit against the government regarding how taxes are spent because injury would be purely speculative .'
p11
ss.