(dp1
S'input'
p2
(dp3
S'encoded'
p4
(lp5
I64
aI2179
aI43
aI63
aI3376
aI4938
aI417
aI316
aI3537
asS'ori'
p6
S'This house believes that endangered species should be protected'
p7
ssS'output'
p8
(dp9
g4
(lp10
I3791
aI22005
aI103
aI45
aI3114
aI60
aI580
aI5
aI24
aI1864
aI87
aI175
aI120
aI81
aI103
aI63
aI1227
aI73
aI2444
aI182
aI22058
aI73
aI21974
aI63765
asg6
S"Deep ecologists claim to identify with non-human nature  and in doing so  criticise those who claim that non-human (or non-sentient) lifeforms' needs or interests are inexistant or unknowable ."
p11
ss.