(dp1
S'input'
p2
(dp3
S'encoded'
p4
(lp5
I64
aI2179
aI43
aI63
aI134
aI116
aI400
aI21
aI34
aI3
aI260
aI45
aI3439
aI57
aI7
aI2381
asS'ori'
p6
S'This house believes that it is sometimes right for the government to restrict freedom of speech'
p7
ssS'output'
p8
(dp9
g4
(lp10
I93
aI7
aI3
aI5832
aI368
aI10988
aI7
aI2445
aI2446
aI116
aI63
aI155
aI182
aI89
aI8942
aI7
aI89
aI35
aI70
aI7440
aI19
aI384
aI8187
aI73
aI2767
aI18
aI63765
asg6
S'One of the oldest Western philosophies of human rights is that they are a product of a natural law  stemming from different philosophical or religious grounds .'
p11
ss.