(dp1
S'input'
p2
(dp3
S'encoded'
p4
(lp5
I64
aI2179
aI43
aI63
aI187
aI417
aI99
aI16642
aI3
aI6449
aI7
aI3935
asS'ori'
p6
S'This house believes that states should not subsidize the growing of tobacco'
p7
ssS'output'
p8
(dp9
g4
(lp10
I24
aI3
aI398
aI17553
aI159
aI41
aI11890
aI49613
aI643
aI89
aI14656
aI4335
aI34
aI3
aI1511
aI14867
aI7
aI63
aI33913
aI122
aI566
aI60
aI14833
aI5
aI14832
aI2814
aI45
aI316
aI16009
aI14683
aI2038
aI1708
aI5
aI147
aI63765
asg6
S'In the mid-20th century psychologists such as Hans Eysenck developed a personality profile for the typical smoker of that period; extraversion was associated with smoking  and smokers tended to be sociable  impulsive  risk taking  and excitement-seeking individuals  .'
p11
ss.