(dp1
S'input'
p2
(dp3
S'encoded'
p4
(lp5
I64
aI2179
aI43
aI63
aI323
aI417
aI10009
aI211
aI9035
aI249
aI45
aI3426
aI211
aI2144
aI595
aI17
aI96
asS'ori'
p6
S'This house believes that Europe should weaken its austerity measures to guarantee its citizens greater social support'
p7
ssS'output'
p8
(dp9
g4
(lp10
I24
aI2116
aI89
aI2471
aI7
aI3
aI5019
aI5267
aI244
aI45
aI8958
aI51
aI6028
aI9025
aI1373
aI1931
aI41
aI134
aI122
aI4489
aI45
aI316
aI6791
aI34
aI6095
aI311
aI3
aI572
aI2497
aI5
aI63
aI89
aI9139
aI24
aI9140
aI51
aI6028
aI9025
aI9187
aI6095
aI136
aI137
aI638
aI89
aI1896
aI136
aI394
aI1640
aI6670
aI588
aI2026
aI2884
aI9141
aI5
aI9142
aI1565
aI2203
aI113
aI136
aI63765
asg6
S'In June 2011  a majority of the economists indeed agreed to recommend an orderly default straight away  as it was predicted to be unavoidable for Greece at the long term  and that a delay in organising an orderly default (by lending Greece more money throughout a few more years)  would just wind up hurting EU lenders and neighboring European countries even more  .'
p11
ss.