(dp1
S'input'
p2
(dp3
S'encoded'
p4
(lp5
I64
aI2179
aI394
aI2017
aI223
aI9058
aI23653
asS'ori'
p6
S'This house would ban all unsustainable logging'
p7
ssS'output'
p8
(dp9
g4
(lp10
I3964
aI2635
aI545
aI3
aI8254
aI182
aI449
aI24276
aI1021
aI45
aI3
aI177
aI7128
aI2768
aI5
aI61
aI3964
aI98
aI4532
aI116
aI4024
aI2499
aI45
aI3
aI19924
aI5
aI1298
aI1793
aI1886
aI45
aI3322
aI63765
asg6
S'Food resources within the forest are extremely dispersed due to the high biological diversity and what food does exist is largely restricted to the canopy and requires considerable energy to obtain .'
p11
ss.