(dp1
S'input'
p2
(dp3
S'encoded'
p4
(lp5
I64
aI2179
aI394
aI5370
aI3
aI5286
asS'ori'
p6
S'This house would abolish the monarchy'
p7
ssS'output'
p8
(dp9
g4
(lp10
I2438
aI159
aI41
aI132
aI382
aI773
aI1607
aI1191
aI4111
aI382
aI2973
aI75
aI1896
aI147
aI81
aI7350
aI182
aI2425
aI75
aI120
aI564
aI7623
aI45
aI3
aI169
aI2475
aI116
aI159
aI63
aI155
aI394
aI6176
aI351
aI5
aI1928
aI1963
aI45
aI12060
aI134
aI462
aI24
aI128
aI63
aI155
aI876
aI1499
aI588
aI89
aI2306
aI14
aI211
aI15362
aI63765
asg6
S'Changes such as these were being brought about  colonists were warned  by "a few individuals  who unfortunately  are led by those  whose hostility to the British constitution is such  that they would sacrifice any and every thing to pull it down  in order that they might build up a Republic on its ruins .'
p11
ss.