(dp1
S'input'
p2
(dp3
S'encoded'
p4
(lp5
I64
aI2179
aI394
aI4261
aI8667
aI3
aI9361
aI5
aI17069
asS'ori'
p6
S'This house would prohibit burning the stars and stripes'
p7
ssS'output'
p8
(dp9
g4
(lp10
I24
aI1193
aI646
aI63765
aI667
aI2086
aI2145
aI63765
aI3
aI626
aI187
aI2482
aI2483
aI557
aI63
aI89
aI667
aI2086
aI10
aI70
aI1609
aI134
aI89
aI3211
aI30850
aI48855
aI52721
aI73
aI33856
aI20823
aI111
aI73
aI9806
aI18409
aI111
aI843
aI75
aI4199
aI73
aI2784
aI5449
aI7
aI3
aI626
aI122
aI24
aI759
aI2481
aI604
aI134
aI472
aI2381
aI493
aI3
aI5449
aI63765
asg6
S'In Street v . New York  394 U .S . 576 (1969)  the United States Supreme Court held that a New York state law making it a crime "publicly [to] mutilate  deface  defile  or defy  trample upon  or cast contempt upon either by words or act [any flag of the United States]" was  in part  unconstitutional because it prohibited speech against the flag .'
p11
ss.