(dp1
S'input'
p2
(dp3
S'encoded'
p4
(lp5
I64
aI2179
aI394
aI163
aI959
aI2042
aI3557
asS'ori'
p6
S'This house would make physical education compulsory'
p7
ssS'output'
p8
(dp9
g4
(lp10
I78
aI81
aI11
aI23026
aI41913
aI23969
aI5
aI23135
aI19609
aI23026
aI88
aI951
aI444
aI226
aI78
aI81
aI1719
aI182
aI25313
aI88
aI949
aI23026
aI2811
aI5
aI24
aI3
aI572
aI5110
aI1380
aI2236
aI23969
aI63765
asg6
S'People who have insulin dependant diabetes and chronically overdose insulin may gain weight  while people who already are overweight may develop insulin tolerance  and in the long run type II diabetes .'
p11
ss.