(dp1
S'input'
p2
(dp3
S'encoded'
p4
(lp5
I64
aI2179
aI394
aI2741
aI3
aI1560
aI6025
aI2784
asS'ori'
p6
S'This house would pass the American Jobs Act'
p7
ssS'output'
p8
(dp9
g4
(lp10
I24
aI3
aI3019
aI1580
aI45
aI11788
aI45
aI358
aI3
aI2474
aI242
aI3382
aI24
aI1561
aI7
aI5560
aI2196
aI14
aI3
aI2474
aI5
aI2359
aI5525
aI2343
aI75
aI188
aI5525
aI19235
aI18047
aI3382
aI443
aI63765
asg6
S'In the failed motion to proceed to consider the legislation  51 Democrats voted in favor of opening debate on the legislation and 47 Republicans Senators  joined by 2 Democratic Senators (Joseph Lieberman & Ben Nelson) voted no  .'
p11
ss.