(dp1
S'input'
p2
(dp3
S'encoded'
p4
(lp5
I64
aI2179
aI394
aI16642
aI1376
aI5269
asS'ori'
p6
S'This house would subsidize poor communities'
p7
ssS'output'
p8
(dp9
g4
(lp10
I226
aI3
aI4224
aI701
aI14437
aI19
aI159
aI256
aI88
aI1385
aI45
aI316
aI2818
aI575
aI3252
aI132
aI256
aI88
aI316
aI136
aI14438
aI45
aI2022
aI41
aI134
aI227
aI2022
aI100
aI3728
aI7
aI708
aI289
aI40
aI3
aI6198
aI182
aI698
aI63765
asg6
S'While the persons receiving redistributions from such programs may prefer to be directly given cash  these programs may be more palatable to society  as it gives society some measure of control over how the funds are spent  .'
p11
ss.