(dp1
S'input'
p2
(dp3
S'encoded'
p4
(lp5
I64
aI2179
aI394
aI117
aI7428
aI21151
aI34
aI11389
aI2042
aI24
aI4364
asS'ori'
p6
S'This house would only teach abstinence for sex education in schools'
p7
ssS'output'
p8
(dp9
g4
(lp10
I8803
aI709
aI291
aI3939
aI5
aI20123
aI494
aI138
aI3
aI2083
aI3485
aI7
aI654
aI116
aI1968
aI5
aI24
aI100
aI2763
aI2203
aI351
aI90
aI7
aI8803
aI364
aI1642
aI8559
aI116
aI472
aI63765
asg6
S'Sexual conduct between adults and adolescents younger than the local age of consent is illegal  and in some Islamic countries any kind of sexual activity outside marriage is prohibited .'
p11
ss.