(dp1
S'input'
p2
(dp3
S'encoded'
p4
(lp5
I64
aI2179
aI394
aI117
aI7428
aI21151
aI34
aI11389
aI2042
aI24
aI4364
asS'ori'
p6
S'This house would only teach abstinence for sex education in schools'
p7
ssS'output'
p8
(dp9
g4
(lp10
I13891
aI116
aI534
aI7
aI3
aI5985
aI6548
aI987
aI63765
asg6
S'Chastity is required of the respective sacerdotal orders .'
p11
ss.