(dp1
S'input'
p2
(dp3
S'encoded'
p4
(lp5
I64
aI2179
aI43
aI24
aI3
aI475
aI7
aI12436
aI3364
asS'ori'
p6
S'This house believes in the use of affirmative action'
p7
ssS'output'
p8
(dp9
g4
(lp10
I260
aI1589
aI24
aI89
aI12913
aI394
aI316
aI575
aI45
aI147
aI717
aI111
aI4539
aI7
aI77
aI3349
aI92
aI463
aI1051
aI19
aI1306
aI45
aI4588
aI45
aI448
aI13003
aI45
aI2386
aI6029
aI63765
asg6
S'Government positions in a meritocracy would be given to individuals based upon possession of certain merits which could range from intelligence to morality to general aptitude to specific knowledge .'
p11
ss.