(dp1
S'input'
p2
(dp3
S'encoded'
p4
(lp5
I64
aI2179
aI43
aI63
aI3376
aI4938
aI417
aI316
aI3537
asS'ori'
p6
S'This house believes that endangered species should be protected'
p7
ssS'output'
p8
(dp9
g4
(lp10
I7145
aI8120
aI8127
aI14
aI8121
aI226
aI7145
aI8119
aI8127
aI14
aI7145
aI8120
aI63765
asg6
S'Sea urchins feed on kelp  while sea otters feed on sea urchins .'
p11
ss.