(dp1
S'input'
p2
(dp3
S'encoded'
p4
(lp5
I64
aI2179
aI43
aI63
aI3
aI4991
aI7
aI180
aI417
aI316
aI5396
aI19
aI3
aI169
aI10
asS'ori'
p6
S'This house believes that the Church of England should be separated from the British state'
p7
ssS'output'
p8
(dp9
g4
(lp10
I24
aI298
aI3520
aI5
aI4801
aI415
aI45
aI3
aI28
aI6502
aI155
aI16837
aI45
aI7161
aI45
aI17276
aI3
aI3851
aI4137
aI2550
aI63765
asg6
S'In 1689  when William and Mary came to the English throne  they acceded to demands to revoke the original royal charter .'
p11
ss.