(dp1
S'input'
p2
(dp3
S'encoded'
p4
(lp5
I64
aI2179
aI43
aI63
aI6670
aI546
aI417
aI316
aI89
aI1334
aI3108
aI7
aI4849
aI1886
aI2855
asS'ori'
p6
S'This house believes that wind power should be a primary focus of future energy supply'
p7
ssS'output'
p8
(dp9
g4
(lp10
I717
aI14
aI3
aI23719
aI7
aI7311
aI5
aI17529
aI18185
aI73
aI271
aI28137
aI1688
aI75
aI23719
aI7
aI3
aI2880
aI63765
asg6
S'Bio-energy  based on the combustion of crops and crop residues  or their gasification followed by combustion of the gas .'
p11
ss.