(dp1
S'input'
p2
(dp3
S'encoded'
p4
(lp5
I64
aI2179
aI394
aI16756
aI20435
asS'ori'
p6
S'This house would criminalize blasphemy'
p7
ssS'output'
p8
(dp9
g4
(lp10
I3
aI2482
aI2483
aI743
aI63
aI3
aI2475
aI440
aI6950
aI3
aI279
aI70
aI4603
aI2618
aI116
aI330
aI45
aI1792
aI40
aI3
aI279
aI70
aI3211
aI7
aI20435
aI3365
aI41
aI134
aI122
aI45
aI51
aI685
aI4991
aI5
aI51
aI685
aI2382
aI463
aI3514
aI89
aI2475
aI9382
aI57
aI7
aI4930
aI5
aI3
aI1260
aI7837
aI5
aI1485
aI7
aI2382
aI63765
asg6
S'The Supreme Court ruled that the 1937 Constitution had extinguished the common law offence  stating "It is difficult to see how the common law crime of blasphemy  related as it was to an established Church and an established religion could survive in. a Constitution guaranteeing freedom of conscience  and the free profession and practice of religion .'
p11
ss.