(dp1
S'input'
p2
(dp3
S'encoded'
p4
(lp5
I64
aI2179
aI43
aI63
aI2157
aI2565
aI493
aI19084
aI382
aI4850
asS'ori'
p6
S"This house believes that Israel's 2008-2009 military operations against Gaza were justified"
p7
ssS'output'
p8
(dp9
g4
(lp10
I3
aI1942
aI9024
aI588
aI45
aI572
aI16279
aI56385
aI289
aI89
aI6802
aI9277
aI803
aI63765
asg6
S'The anti-personnel weapon spreads up to 8000 4&nbsp;cm long metal darts over a 30 000 square meter area  .'
p11
ss.