(dp1
S'input'
p2
(dp3
S'encoded'
p4
(lp5
I64
aI2179
aI13605
aI2258
aI45
aI2194
asS'ori'
p6
S'This house prefers trade to aid'
p7
ssS'output'
p8
(dp9
g4
(lp10
I1864
aI87
aI47
aI5918
aI3
aI5084
aI7
aI2833
aI5
aI979
aI3
aI5084
aI7
aI2362
aI2645
aI45
aI51
aI4350
aI24
aI211
aI2258
aI1255
aI63765
asg6
S'Doing so will raise the cost of imports and lower the cost of exports  leading to an improvement in its trade balance .'
p11
ss.