(dp1
S'input'
p2
(dp3
S'encoded'
p4
(lp5
I64
aI2179
aI394
aI2017
aI223
aI9058
aI23653
asS'ori'
p6
S'This house would ban all unsustainable logging'
p7
ssS'output'
p8
(dp9
g4
(lp10
I3
aI697
aI696
aI7
aI6762
aI9085
aI45
aI316
aI1191
aI2155
aI5
aI7
aI1413
aI4256
aI2322
aI24
aI8254
aI3183
aI63765
asg6
S"The total number of trees amounted to be about 35 billion and 4 .55% of China's land mass increased in forest coverage ."
p11
ss.