(dp1
S'input'
p2
(dp3
S'encoded'
p4
(lp5
I64
aI2179
aI394
aI60
aI23587
asS'ori'
p6
S'This house would re-engage with Myanmar'
p7
ssS'output'
p8
(dp9
g4
(lp10
I24
aI89
aI3492
aI10792
aI3
aI23537
aI116
aI3
aI1851
aI7
aI2637
aI3269
aI63765
asg6
S'In a traditional village  the monastery is the centre of cultural life .'
p11
ss.