(dp1
S'input'
p2
(dp3
S'encoded'
p4
(lp5
I64
aI2179
aI394
aI190
aI3
aI21
aI45
aI3895
aI834
asS'ori'
p6
S'This house would limit the right to bear arms'
p7
ssS'output'
p8
(dp9
g4
(lp10
I3
aI10782
aI59
aI64
aI70
aI60
aI3
aI372
aI70
aI7
aI2927
aI92
aI122
aI419
aI570
aI24
aI3665
aI5
aI5391
aI131
aI13509
aI2611
aI708
aI4352
aI34
aI3
aI448
aI2598
aI63765
asg6
S'The Nazis replaced this law with the Weapons Law of March 18  1938  which was very similar in structure and wording  but relaxed gun control requirements for the general population .'
p11
ss.