(dp1
S'input'
p2
(dp3
S'encoded'
p4
(lp5
I64
aI2179
aI394
aI60
aI23587
asS'ori'
p6
S'This house would re-engage with Myanmar'
p7
ssS'output'
p8
(dp9
g4
(lp10
I14
aI2927
aI3
aI2157
aI2425
aI75
aI448
aI35676
aI750
aI427
aI708
aI7
aI3118
aI620
aI89
aI3093
aI5
aI3
aI260
aI55
aI12
aI459
aI839
aI73
aI6568
aI708
aI75
aI3
aI2157
aI691
aI768
aI63765
asg6
S"On 2 March 1962  the military led by General Ne Win took control of Burma through a coup d'etat and the government has been under direct or indirect control by the military since then ."
p11
ss.