(dp1
S'input'
p2
(dp3
S'encoded'
p4
(lp5
I64
aI2179
aI43
aI63
aI3
aI4990
aI4991
aI116
aI4850
aI24
aI12166
aI3
aI475
aI7
aI3532
aI3290
aI7
aI4714
asS'ori'
p6
S'This house believes that the Catholic Church is justified in forbidding the use of barrier methods of contraception'
p7
ssS'output'
p8
(dp9
g4
(lp10
I21193
aI11148
aI7653
aI1685
aI89
aI2823
aI7
aI3463
aI6658
aI311
aI3
aI3780
aI7
aI368
aI10065
aI63765
asg6
S'Marian devotion blossomed  setting a model of maternal virtue at the heart of Western civilization .'
p11
ss.