(dp1
S'input'
p2
(dp3
S'encoded'
p4
(lp5
I64
aI2179
aI394
aI5370
aI7146
aI4585
aI2446
asS'ori'
p6
S'This house would abolish intellectual property rights'
p7
ssS'output'
p8
(dp9
g4
(lp10
I217
aI778
aI2728
aI12717
aI4526
aI1443
aI5069
aI45
aI3
aI20826
aI7
aI12717
aI5
aI1710
aI1517
aI77
aI2446
aI63765
asg6
S'Most jurisdictions recognize copyright limitations  allowing "fair" exceptions to the creator\'s exclusivity of copyright  and giving users certain rights .'
p11
ss.