(dp1
S'input'
p2
(dp3
S'encoded'
p4
(lp5
I64
aI2179
aI394
aI5370
aI3
aI5286
asS'ori'
p6
S'This house would abolish the monarchy'
p7
ssS'output'
p8
(dp9
g4
(lp10
I411
aI2868
aI1082
aI2233
aI1004
aI9983
aI6006
aI60
aI3
aI28
aI4679
aI3365
aI45
aI3
aI845
aI7
aI4137
aI5
aI5399
aI2280
aI946
aI3
aI546
aI45
aI6476
aI6329
aI63765
asg6
S"James I's successor  Charles I  experienced frequent conflicts with the English Parliament related to the issue of royal and parliamentary powers  especially the power to impose taxes ."
p11
ss.