(dp1
S'input'
p2
(dp3
S'encoded'
p4
(lp5
I64
aI2179
aI43
aI63
aI1036
aI4828
aI33250
aI116
aI25073
aI45
aI3315
aI4562
asS'ori'
p6
S'This house believes that male infant circumcision is tantamount to child abuse'
p7
ssS'output'
p8
(dp9
g4
(lp10
I34794
aI5047
aI63
aI33250
aI116
aI117
aI5652
aI75
aI3
aI5702
aI54238
aI33435
aI54239
aI3
aI7
aI5
aI41614
aI81
aI24735
aI1191
aI3
aI7450
aI54240
aI5
aI54241
aI41
aI261
aI41
aI271
aI11632
aI3
aI54242
aI5
aI63765
asg6
S'Herodotus reported that circumcision is only practiced by the Egyptians  Colchians  Ethiopians  Phoenicians  the \'Syrians of Palestine\'  and "the Syrians who dwell about the rivers Thermodon and Parthenius  as well as their neighbours the Macronians and Macrones" .'
p11
ss.