(dp1
S'input'
p2
(dp3
S'encoded'
p4
(lp5
I64
aI2179
aI394
aI1499
aI177
aI1819
aI34
aI160
asS'ori'
p6
S'This house would build high rises for housing'
p7
ssS'output'
p8
(dp9
g4
(lp10
I3
aI2497
aI11279
aI116
aI2264
aI24
aI874
aI875
aI5072
aI3
aI2497
aI15128
aI116
aI1480
aI131
aI99
aI9358
aI416
aI24
aI3
aI626
aI2549
aI4581
aI6124
aI5521
aI5522
aI5
aI217
aI278
aI2138
aI63765
asg6
S'The term apartment is favored in North America  whereas the term flat is commonly  but not exclusively  used in the United Kingdom  Ireland  Singapore  Hong Kong and most Commonwealth nations .'
p11
ss.