(dp1
S'input'
p2
(dp3
S'encoded'
p4
(lp5
I64
aI2179
aI43
aI63
aI3
aI21
aI45
aI12715
aI417
aI99
aI316
aI2897
asS'ori'
p6
S'This house believes that the right to asylum should not be absolute'
p7
ssS'output'
p8
(dp9
g4
(lp10
I691
aI2293
aI55
aI8549
aI136
aI138
aI292
aI2639
aI5307
aI6449
aI211
aI2598
aI75
aI49
aI63765
asg6
S'Since 2000  Spain has absorbed more than three million immigrants  growing its population by almost 10% .'
p11
ss.