(dp1
S'input'
p2
(dp3
S'encoded'
p4
(lp5
I64
aI2179
aI43
aI8629
aI116
aI3
aI117
aI998
asS'ori'
p6
S'This house believes atheism is the only way'
p7
ssS'output'
p8
(dp9
g4
(lp10
I32842
aI19
aI19183
aI10075
aI3
aI60890
aI145
aI60
aI14736
aI24
aI132
aI5
aI248
aI2009
aI2317
aI5122
aI89
aI2498
aI7
aI22264
aI6218
aI18557
aI1999
aI5
aI2767
aI26569
aI63765
asg6
S'Psilocybin from mushrooms contacts the serotonergic system  with terminals in these and other brain regions  generating a sense of cosmic unity  transcendental meaning and religious ecstasy .'
p11
ss.