(dp1
S'input'
p2
(dp3
S'encoded'
p4
(lp5
I64
aI2179
aI43
aI63
aI6670
aI546
aI417
aI316
aI89
aI1334
aI3108
aI7
aI4849
aI1886
aI2855
asS'ori'
p6
S'This house believes that wind power should be a primary focus of future energy supply'
p7
ssS'output'
p8
(dp9
g4
(lp10
I22658
aI47
aI15247
aI2693
aI7
aI211
aI18136
aI6670
aI5109
aI34
aI15188
aI311
aI3
aI15187
aI6670
aI6677
aI45
aI316
aI4648
aI14
aI3
aI11192
aI3856
aI1051
aI92
aI116
aI5239
aI2151
aI15161
aI874
aI7
aI10192
aI63765
asg6
S'Suzlon will install 45 units of its S88  2 .1 megawatt wind turbines for AGL at the Hallett Wind Farm to be located on the Brown Hill Range  which is situated approximately 220 kilometers north of Adelaide  .'
p11
ss.