(dp1
S'input'
p2
(dp3
S'encoded'
p4
(lp5
I64
aI2179
aI43
aI63
aI17574
aI417
aI316
aI3481
aI34
aI271
aI79
asS'ori'
p6
S'This house believes that housewives should be paid for their work'
p7
ssS'output'
p8
(dp9
g4
(lp10
I136
aI5073
aI155
aI1338
aI3620
aI2815
aI5
aI3620
aI3168
aI45
aI342
aI40
aI5269
aI7
aI6029
aI11655
aI15253
aI271
aI8974
aI2230
aI4620
aI655
aI24
aI271
aI5269
aI45
aI3
aI6591
aI7
aI2789
aI63765
asg6
S'More broadly  they incorporate feminist frameworks and feminist theory to show how communities of knowledge inherently signal their expectations regarding appropriate participants in their communities  to the exclusion of non-in-group members .'
p11
ss.