(dp1
S'input'
p2
(dp3
S'encoded'
p4
(lp5
I64
aI2179
aI43
aI8629
aI116
aI3
aI117
aI998
asS'ori'
p6
S'This house believes atheism is the only way'
p7
ssS'output'
p8
(dp9
g4
(lp10
I691
aI5480
aI3
aI90
aI45
aI92
aI3
aI3384
aI116
aI880
aI51
aI4661
aI24
aI3
aI3782
aI3646
aI89
aI12196
aI4514
aI134
aI116
aI99
aI1178
aI61
aI5208
aI7
aI182
aI4825
aI45
aI3524
aI63765
asg6
S"Since God (of the kind to which the arguments relate) is neither an entity in the universe nor a mathematical object  it is not obvious what kinds of arguments/proofs are relevant to God's existence ."
p11
ss.