(dp1
S'input'
p2
(dp3
S'encoded'
p4
(lp5
I64
aI2179
aI43
aI63
aI11083
aI10046
aI417
aI316
aI89
aI3135
aI4603
asS'ori'
p6
S'This house believes that Holocaust denial should be a criminal offence'
p7
ssS'output'
p8
(dp9
g4
(lp10
I24
aI18382
aI221
aI267
aI20902
aI24
aI5631
aI93
aI24
aI2532
aI5
aI3
aI248
aI24
aI42581
aI3555
aI3
aI11083
aI3
aI20902
aI2100
aI89
aI4918
aI34
aI51
aI312
aI45
aI3
aI556
aI24537
aI5
aI4453
aI63
aI6286
aI13936
aI440
aI2385
aI4307
aI5
aI63
aI3
aI11083
aI122
aI89
aI63765
asg6
S'In 1989 Irving made two speeches in Austria  one in Vienna and the other in Leoben denying the holocaust  The speeches included a call for an end to the "gas chambers fairy tale"  and claims that Adolf Hitler had helped Europe\'s Jews and that the Holocaust was a "myth"  .'
p11
ss.