(dp1
S'input'
p2
(dp3
S'encoded'
p4
(lp5
I64
aI2179
aI43
aI63
aI3
aI21
aI45
aI12715
aI417
aI99
aI316
aI2897
asS'ori'
p6
S'This house believes that the right to asylum should not be absolute'
p7
ssS'output'
p8
(dp9
g4
(lp10
I249
aI2186
aI4604
aI31142
aI45
aI6861
aI5
aI22239
aI10755
aI3300
aI545
aI31819
aI4503
aI2089
aI3
aI13596
aI41804
aI5
aI1097
aI8741
aI5
aI17279
aI416
aI45
aI6861
aI3
aI25230
aI25234
aI7
aI10755
aI23530
aI24
aI3
aI41805
aI7
aI4503
aI63765
asg6
S'Measures included:Heartbeat Technology - special sensors to detect and analyse clandestine movements within freight vehicles via the vehicle chassis and super-structure X/Gamma Ray Scanners and CO2 probes used to detect the exhaled breath of clandestine entrants in the trailers of vehicles .'
p11
ss.