(dp1
S'input'
p2
(dp3
S'encoded'
p4
(lp5
I64
aI2179
aI43
aI63
aI7382
aI116
aI400
aI4713
asS'ori'
p6
S'This house believes that bribery is sometimes acceptable'
p7
ssS'output'
p8
(dp9
g4
(lp10
I8219
aI10852
aI7
aI3
aI16834
aI116
aI4071
aI45
aI1022
aI115
aI1999
aI96
aI3619
aI45
aI2760
aI5
aI3060
aI2203
aI24
aI9048
aI3
aI2533
aI63765
asg6
S'Chapter VI of the UNCAC is dedicated to technical assistance  meaning support offered to developing and transition countries in implementing the Convention .'
p11
ss.