(dp1
S'input'
p2
(dp3
S'encoded'
p4
(lp5
I64
aI2179
aI43
aI63
aI187
aI417
aI99
aI16642
aI3
aI6449
aI7
aI3935
asS'ori'
p6
S'This house believes that states should not subsidize the growing of tobacco'
p7
ssS'output'
p8
(dp9
g4
(lp10
I134
aI11670
aI63
aI3
aI2913
aI2203
aI3165
aI2155
aI4386
aI3569
aI10432
aI271
aI284
aI5677
aI49
aI7502
aI41
aI165
aI41
aI155
aI3165
aI14
aI2135
aI2194
aI63765
asg6
S'It finds that the richest countries spend $106 billion per year subsidizing their own farmers - almost exactly as much as they spend on foreign aid  .'
p11
ss.