(dp1
S'input'
p2
(dp3
S'encoded'
p4
(lp5
I64
aI2179
aI394
aI4325
aI2042
aI270
aI89
aI11605
aI3324
asS'ori'
p6
S'This house would fund education using a voucher scheme'
p7
ssS'output'
p8
(dp9
g4
(lp10
I5565
aI51838
aI46
aI5295
aI51833
aI63765
asg6
S'|- Ted Weill Reform Frank McEnulty  .'
p11
ss.