(dp1
S'input'
p2
(dp3
S'encoded'
p4
(lp5
I64
aI2179
aI394
aI163
aI959
aI2042
aI3557
asS'ori'
p6
S'This house would make physical education compulsory'
p7
ssS'output'
p8
(dp9
g4
(lp10
I16329
aI4696
aI3
aI2038
aI7
aI725
aI959
aI5
aI1043
aI3020
aI63765
asg6
S'Obesity increases the risk of many physical and mental conditions .'
p11
ss.