(dp1
S'input'
p2
(dp3
S'encoded'
p4
(lp5
I64
aI2179
aI394
aI2773
aI12505
asS'ori'
p6
S'This house would embrace multiculturalism'
p7
ssS'output'
p8
(dp9
g4
(lp10
I57
aI24
aI3
aI2306
aI7
aI2390
aI5
aI3
aI626
aI187
aI7
aI875
asg6
S'"Academic Freedom In The People\'s Republic Of China And The United States Of America ."'
p11
ss.