(dp1
S'input'
p2
(dp3
S'encoded'
p4
(lp5
I64
aI2179
aI43
aI24
aI3
aI475
aI7
aI12436
aI3364
asS'ori'
p6
S'This house believes in the use of affirmative action'
p7
ssS'output'
p8
(dp9
g4
(lp10
I8803
aI17321
aI55
aI174
aI12
aI557
aI24
aI89
aI745
aI752
aI441
aI75
aI2248
aI3765
aI45
aI316
aI472
aI75
aI5489
aI12411
aI646
aI63765
aI55339
aI6784
aI3205
aI4312
aI63765
aI4692
aI63765
asg6
S'Same-sex sexual harassment has also been held in a unanimous decision written by Justice Scalia to be prohibited by Title VII (Oncale v . Sundowner Offshore Services  Inc .    118 S .Ct .'
p11
ss.