(dp1
S'input'
p2
(dp3
S'encoded'
p4
(lp5
I64
aI2179
aI43
aI223
aI2138
aI11
aI89
aI21
aI45
aI2185
aI372
asS'ori'
p6
S'This house believes all nations have a right to nuclear weapons'
p7
ssS'output'
p8
(dp9
g4
(lp10
I134
aI122
aI4617
aI63
aI3
aI11695
aI2418
aI463
aI768
aI316
aI10797
aI19
aI134
aI63765
asg6
S'It was assumed that the uranium gun-type bomb could then be adapted from it .'
p11
ss.