(dp1
S'input'
p2
(dp3
S'encoded'
p4
(lp5
I64
aI2179
aI43
aI63
aI3
aI21
aI45
aI12715
aI417
aI99
aI316
aI2897
asS'ori'
p6
S'This house believes that the right to asylum should not be absolute'
p7
ssS'output'
p8
(dp9
g4
(lp10
I136
aI1902
aI3
aI79
aI7
aI708
aI3243
aI5
aI3353
aI3243
aI55
aI12
aI333
aI24
aI3
aI6876
aI14
aI3
aI5661
aI20861
aI10596
aI8300
aI290
aI102
aI2581
aI972
aI92
aI237
aI15133
aI24
aI63765
asg6
S'More recently  the work of on-entry control officers and enforcement officers has been depicted in the fly on the wall  Sky TV  documentary series UK Border Force which first screened in 2008 .'
p11
ss.