(dp1
S'input'
p2
(dp3
S'encoded'
p4
(lp5
I64
aI2179
aI394
aI2998
aI3
aI4360
aI7
aI3249
aI6804
aI24
aI3
aI102
asS'ori'
p6
S'This house would encourage the creation of private universities in the UK'
p7
ssS'output'
p8
(dp9
g4
(lp10
I3
aI626
aI2546
aI17657
aI382
aI9272
aI7
aI169
aI29319
aI5
aI169
aI2880
aI397
aI3
aI459
aI3
aI170
aI260
aI7
aI4916
aI28008
aI298
aI725
aI4388
aI382
aI7783
aI1295
aI45
aI3
aI3249
aI7935
aI63765
asg6
S"The United Kingdom's largest public-share offerings were privatizations of British Telecom and British Gas during the 1980s under the Conservative government of Margaret Thatcher  when many state-run firms were sold off to the private sector ."
p11
ss.