(dp1
S'input'
p2
(dp3
S'encoded'
p4
(lp5
I64
aI2179
aI394
aI2017
aI3807
aI314
aI3433
asS'ori'
p6
S'This house would ban partial birth abortions'
p7
ssS'output'
p8
(dp9
g4
(lp10
I3
aI2145
aI63765
aI2482
aI2483
aI55
aI557
aI63
aI3
aI1809
aI5
aI3595
aI5
aI182
aI13549
aI16919
aI63765
asg6
S'The U .S . Supreme Court has held that the terms "partial-birth abortion" and "intact dilation and extraction" are basically synonymous  .'
p11
ss.