(dp1
S'input'
p2
(dp3
S'encoded'
p4
(lp5
I64
aI2179
aI43
aI63
aI187
aI417
aI99
aI16642
aI3
aI6449
aI7
aI3935
asS'ori'
p6
S'This house believes that states should not subsidize the growing of tobacco'
p7
ssS'output'
p8
(dp9
g4
(lp10
I2356
aI116
aI174
aI279
aI24
aI11390
aI17092
aI81
aI10873
aI182
aI869
aI1727
aI41
aI1856
aI45
aI949
aI19668
aI6033
aI41
aI271
aI25407
aI15072
aI63765
asg6
S'Depression is also common in teenage smokers; teens who smoke are four times as likely to develop depressive symptoms as their nonsmoking peers  .'
p11
ss.