(dp1
S'input'
p2
(dp3
S'encoded'
p4
(lp5
I64
aI2179
aI43
aI63
aI3
aI21
aI45
aI12715
aI417
aI99
aI316
aI2897
asS'ori'
p6
S'This house believes that the right to asylum should not be absolute'
p7
ssS'output'
p8
(dp9
g4
(lp10
I132
aI78
aI461
aI45
aI4232
aI2299
aI5
aI3
aI2145
aI63765
aI19
aI620
aI1592
aI3
aI2157
aI3093
aI493
aI2164
aI12889
aI5806
aI7
aI40745
aI7480
aI2617
aI5
aI9751
aI75
aI6918
aI63765
asg6
S"These people went to Southern Mexico and the U .S . From 1991 through 1994  following the military coup d'etat against President Jean-Bertrand Aristide  thousands of Haitians fled violence and repression by boat ."
p11
ss.