(dp1
S'input'
p2
(dp3
S'encoded'
p4
(lp5
I64
aI2179
aI394
aI5370
aI3
aI5286
asS'ori'
p6
S'This house would abolish the monarchy'
p7
ssS'output'
p8
(dp9
g4
(lp10
I89
aI4370
aI788
aI75
aI15668
aI41
aI9869
aI75
aI3
aI150
aI3953
aI897
aI3790
aI2036
aI63
aI7
aI15283
aI3
aI5286
aI417
aI4593
aI73
aI3253
aI211
aI2210
aI24
aI2547
aI226
aI3367
aI12180
aI63
aI3
aI5286
aI417
aI316
aI5639
aI5
aI3367
aI3740
aI1191
aI3
aI1643
aI63765
asg6
S'A survey taken by COMPAS  as commissioned by the National Post/Global Television media outlet  showed that 63% of Canadians "believe the monarchy should retain or strengthen its role in Canada " while 12% felt moderately that the monarchy should be abolished  and 18% felt strongly about the same .'
p11
ss.