(dp1
S'input'
p2
(dp3
S'encoded'
p4
(lp5
I64
aI2179
aI43
aI63
aI3
aI4990
aI4991
aI116
aI4850
aI24
aI12166
aI3
aI475
aI7
aI3532
aI3290
aI7
aI4714
asS'ori'
p6
S'This house believes that the Catholic Church is justified in forbidding the use of barrier methods of contraception'
p7
ssS'output'
p8
(dp9
g4
(lp10
I421
aI725
aI42595
aI3591
aI5
aI5204
aI2142
aI182
aI99
aI4555
aI566
aI60
aI3
aI4990
aI4991
aI63765
asg6
S')In addition  many NFP clinics and teaching organizations are not specifically associated with the Catholic Church .'
p11
ss.