(dp1
S'input'
p2
(dp3
S'encoded'
p4
(lp5
I64
aI2179
aI43
aI24
aI3
aI475
aI7
aI12436
aI3364
asS'ori'
p6
S'This house believes in the use of affirmative action'
p7
ssS'output'
p8
(dp9
g4
(lp10
I3
aI2180
aI47
aI2741
aI14
aI3
aI13115
aI5
aI257
aI134
aI116
aI99
aI3272
aI291
aI3
aI267
aI4615
aI88
aI687
aI51
aI2827
aI2828
aI40798
aI2130
aI45
aI12352
aI5
aI163
aI5572
aI14
aI3
aI829
aI63765
asg6
S'The Committee will pass on the complaint  and if it is not resolved between the two parties  may establish an ad hoc Conciliation Commission to investigate and make recommendations on the matter  .'
p11
ss.