(dp1
S'input'
p2
(dp3
S'encoded'
p4
(lp5
I64
aI2179
aI43
aI223
aI2138
aI11
aI89
aI21
aI45
aI2185
aI372
asS'ori'
p6
S'This house believes all nations have a right to nuclear weapons'
p7
ssS'output'
p8
(dp9
g4
(lp10
I604
aI159
aI89
aI1445
aI803
aI463
aI99
aI316
aI13443
aI493
aI64
aI5777
aI1274
aI24
aI351
aI14330
aI998
aI3
aI5970
aI394
aI523
aI351
aI2721
aI63765
asg6
S'Because such a large area could not be defended against this overwhelming attack in any credible way  the USSR would lose any exchange .'
p11
ss.