(dp1
S'input'
p2
(dp3
S'encoded'
p4
(lp5
I64
aI2179
aI43
aI63
aI3376
aI4938
aI417
aI316
aI3537
asS'ori'
p6
S'This house believes that endangered species should be protected'
p7
ssS'output'
p8
(dp9
g4
(lp10
I2533
aI14
aI282
aI2258
aI24
aI3376
aI4938
aI7
aI1702
aI23603
aI5
aI29552
aI3572
aI63765
asg6
S'|- 1975 Convention on International Trade in Endangered Species of Wild Fauna and Flora (CITES)  1973  Washington  .'
p11
ss.