(dp1
S'input'
p2
(dp3
S'encoded'
p4
(lp5
I64
aI2179
aI43
aI63
aI3
aI28431
aI7
aI2157
aI4624
aI75
aI39939
aI27257
aI122
aI4850
asS'ori'
p6
S'This house believes that the leaking of military documents by Anat Kamm was justified'
p7
ssS'output'
p8
(dp9
g4
(lp10
I24
aI2871
aI3
aI94
aI5162
aI89
aI8723
aI7
aI49
aI4624
aI263
aI3
aI2669
aI2223
aI20348
aI24
aI12190
aI60
aI281
aI2188
aI897
aI8281
aI63765
asg6
S'In October 2010  the group released a package of almost 400 000 documents called the Iraq War Logs in coordination with major commercial media organisations .'
p11
ss.