(dp1
S'input'
p2
(dp3
S'encoded'
p4
(lp5
I64
aI2179
aI394
aI2773
aI12505
asS'ori'
p6
S'This house would embrace multiculturalism'
p7
ssS'output'
p8
(dp9
g4
(lp10
I279
aI26058
aI13541
aI41
aI15527
aI26059
aI34
aI5229
aI399
aI3
aI2259
aI7
aI3
aI8508
aI63765
asg6
S'Common cultureWASP norms as invisible barometer for quality form the basis of the curriculum .'
p11
ss.