(dp1
S'input'
p2
(dp3
S'encoded'
p4
(lp5
I64
aI2179
aI43
aI63
aI1036
aI4828
aI33250
aI116
aI25073
aI45
aI3315
aI4562
asS'ori'
p6
S'This house believes that male infant circumcision is tantamount to child abuse'
p7
ssS'output'
p8
(dp9
g4
(lp10
I24
aI89
aI2035
aI7
aI33242
aI1980
aI5
aI33239
aI1980
aI1015
aI5
aI62319
aI5047
aI443
aI5043
aI4229
aI4900
aI24
aI33271
aI73
aI33271
aI32537
aI413
aI291
aI33242
aI5
aI33239
aI655
aI63765
asg6
S'In a study of 255 circumcised men and 118 uncircumcised men  Kim and Pang reported no statistically significant difference in ejaculation or ejaculation latency time between circumcised and uncircumcised participants  .'
p11
ss.