(dp1
S'input'
p2
(dp3
S'encoded'
p4
(lp5
I64
aI2179
aI394
aI2017
aI628
asS'ori'
p6
S'This house would ban gambling'
p7
ssS'output'
p8
(dp9
g4
(lp10
I18242
aI726
aI1235
aI8580
aI3
aI5930
aI116
aI89
aI641
aI1343
aI7
aI2198
aI7
aI7618
aI63765
asg6
S"Shirley Jackson's controversial short story The Lottery is a notable example of criticism of lotteries ."
p11
ss.