(dp1
S'input'
p2
(dp3
S'encoded'
p4
(lp5
I64
aI2179
aI394
aI1499
aI177
aI1819
aI34
aI160
asS'ori'
p6
S'This house would build high rises for housing'
p7
ssS'output'
p8
(dp9
g4
(lp10
I2132
aI160
aI122
aI246
aI35941
aI75
aI2472
aI60
aI13747
aI6939
aI7608
aI45
aI3
aI490
aI312
aI7
aI3
aI3249
aI324
aI120
aI2676
aI24
aI3
aI366
aI3
aI4379
aI15010
aI2140
aI382
aI451
aI63765
asg6
S'Council housing was generally typified by houses with generously sized rooms (compared to the bottom end of the private sector)  particularly those built in the 1970s after the Parker Morris standards were introduced .'
p11
ss.