(dp1
S'input'
p2
(dp3
S'encoded'
p4
(lp5
I64
aI2179
aI43
aI223
aI2138
aI11
aI89
aI21
aI45
aI2185
aI372
asS'ori'
p6
S'This house believes all nations have a right to nuclear weapons'
p7
ssS'output'
p8
(dp9
g4
(lp10
I3
aI36707
aI6834
aI174
aI11
aI742
aI63
aI257
aI36681
aI116
aI482
aI5
aI2905
aI45
aI1292
aI19822
aI2939
aI2950
aI15257
aI768
aI3
aI2950
aI139
aI113
aI316
aI416
aI45
aI3204
aI3
aI36690
aI5
aI24940
aI2938
aI63765
asg6
S'The DRDO scientists also have said that if Shaurya is successful and manages to avoid anti ballistic missile radars then the missile can even be used to improve the AAD and PAD systems .'
p11
ss.