(dp1
S'input'
p2
(dp3
S'encoded'
p4
(lp5
I64
aI2179
aI43
aI63
aI2157
aI2565
aI493
aI19084
aI382
aI4850
asS'ori'
p6
S"This house believes that Israel's 2008-2009 military operations against Gaza were justified"
p7
ssS'output'
p8
(dp9
g4
(lp10
I14
aI2927
aI226
aI17225
aI461
aI45
aI448
aI5276
aI3
aI237
aI31109
aI11995
aI19
aI19084
aI122
aI17377
aI311
aI2659
aI63765
asg6
S'On March 28  2006  while Israelis went to general elections  the first Katyusha rocket from Gaza was fired at Israel .'
p11
ss.