(dp1
S'input'
p2
(dp3
S'encoded'
p4
(lp5
I64
aI2179
aI43
aI8629
aI116
aI3
aI117
aI998
asS'ori'
p6
S'This house believes atheism is the only way'
p7
ssS'output'
p8
(dp9
g4
(lp10
I8652
aI3754
aI9943
aI2162
aI63
aI211
aI3014
aI116
aI20401
aI3
aI4408
aI171
aI41
aI3
aI171
aI7
aI2287
aI9959
aI7279
aI316
aI22729
aI63765
asg6
S'" Journalist Anthony Williams charged that its purpose is "to smear the Republican Party as the party of domestic Theocracy  facts be damned .'
p11
ss.