(dp1
S'input'
p2
(dp3
S'encoded'
p4
(lp5
I64
aI2179
aI394
aI5370
aI3
aI5286
asS'ori'
p6
S'This house would abolish the monarchy'
p7
ssS'output'
p8
(dp9
g4
(lp10
I3
aI2706
aI370
aI19
aI45
aI122
aI51
aI370
aI7
aI2047
aI63
aI2347
aI3
aI37637
aI5770
aI63
aI743
aI3
aI2548
aI289
aI3
aI1257
aI2439
aI63765
asg6
S'The Korean Empire (Korean:   Hanja: ) from 1897 to 1910 - was an empire of Korea that succeeded the Joseon Dynasty that ruled the nation over the past 500 years .'
p11
ss.