(dp1
S'input'
p2
(dp3
S'encoded'
p4
(lp5
I64
aI2179
aI43
aI17
aI4941
aI857
aI3211
asS'ori'
p6
S'This house believes social deprivation causes crime'
p7
ssS'output'
p8
(dp9
g4
(lp10
I223
aI132
aI25656
aI7
aI12527
aI382
aI245
aI2281
aI291
aI285
aI2223
aI2233
aI5
aI63765
asg6
S'All these indexes of deviance were fairly steady between World War I and 1955 .'
p11
ss.