(dp1
S'input'
p2
(dp3
S'encoded'
p4
(lp5
I64
aI2179
aI43
aI63
aI134
aI116
aI400
aI21
aI34
aI3
aI260
aI45
aI3439
aI57
aI7
aI2381
asS'ori'
p6
S'This house believes that it is sometimes right for the government to restrict freedom of speech'
p7
ssS'output'
p8
(dp9
g4
(lp10
I16557
aI768
aI2173
aI2511
aI7
aI3
aI2145
aI63765
aI4692
aI63765
aI182
aI45
aI316
aI6569
aI45
aI10
aI10001
aI7
aI2446
asg6
S'Mason then stated "The Laws of the U . S . are to be paramount to State Bills of Rights ."'
p11
ss.