(dp1
S'input'
p2
(dp3
S'encoded'
p4
(lp5
I64
aI2179
aI394
aI5284
aI150
aI3987
asS'ori'
p6
S'This house would reintroduce national service'
p7
ssS'output'
p8
(dp9
g4
(lp10
I378
aI64
aI6199
aI449
aI6200
aI24
aI89
aI2022
aI53
aI5207
aI2363
aI182
aI177
aI5
aI53
aI3
aI6194
aI116
aI2146
aI644
aI5
aI89
aI215
aI34
aI89
aI5628
aI6201
aI116
aI330
aI45
aI154
aI63765
asg6
S'However  this proves extremely problematic in a post-industrial society where educational levels are high and where the workforce is highly sophisticated and a replacement for a conscripted specialist is difficult to find .'
p11
ss.