(dp1
S'input'
p2
(dp3
S'encoded'
p4
(lp5
I64
aI2179
aI13605
aI2258
aI45
aI2194
asS'ori'
p6
S'This house prefers trade to aid'
p7
ssS'output'
p8
(dp9
g4
(lp10
I93
aI143
aI493
aI2135
aI2194
aI12413
aI24
aI3
aI2891
aI7
aI89
aI1376
aI2548
aI116
aI63
aI134
aI1032
aI98
aI99
aI79
aI63765
asg6
S'One argument against foreign aid assisting in the development of a poor nation is that it simply does not work .'
p11
ss.