(dp1
S'input'
p2
(dp3
S'encoded'
p4
(lp5
I64
aI2179
aI43
aI63
aI2203
aI60
aI51
aI997
aI2837
aI21716
aI1636
aI5349
aI417
aI2998
aI8532
aI45
aI3051
aI8578
asS'ori'
p6
S'This house believes that countries with an imbalanced male/female ratio skewed towards males should encourage parents to produce girls'
p7
ssS'output'
p8
(dp9
g4
(lp10
I4658
aI7
aI4904
aI3216
aI857
aI7
aI7071
aI397
aI4904
aI159
aI41
aI3463
aI23108
aI246
aI2931
aI45
aI3226
aI3460
aI457
aI324
aI887
aI5349
aI204
aI24
aI89
aI979
aI10722
aI45
aI10731
aI2837
aI311
aI314
aI63765
asg6
S'Effects of gestation environment Causes of stress during gestation  such as maternal malnutrition generally appear to increase fetal deaths particularly among males  resulting in a lower boy to girl ratio at birth .'
p11
ss.