(dp1
S'input'
p2
(dp3
S'encoded'
p4
(lp5
I64
aI2179
aI394
aI190
aI3
aI21
aI45
aI3895
aI834
asS'ori'
p6
S'This house would limit the right to bear arms'
p7
ssS'output'
p8
(dp9
g4
(lp10
I3892
aI708
aI122
aI4687
aI397
aI169
aI306
aI5
aI136
aI73
aI149
aI3784
aI2643
aI63765
asg6
S'Firearms control was inherited during British rule and more or less retained today .'
p11
ss.