(dp1
S'input'
p2
(dp3
S'encoded'
p4
(lp5
I64
aI2179
aI43
aI8629
aI116
aI3
aI117
aI998
asS'ori'
p6
S'This house believes atheism is the only way'
p7
ssS'output'
p8
(dp9
g4
(lp10
I378
aI41
aI45
aI755
aI21835
aI73
aI18602
aI3702
aI116
aI136
aI4943
aI637
aI937
aI89
aI829
aI7
aI2196
aI60
aI3
aI448
aI877
aI773
aI63
aI880
aI116
aI2759
aI63765
asg6
S'However as to whether inductive or deductive reasoning is more valuable still remains a matter of debate  with the general conclusion being that neither is prominent  .'
p11
ss.