(dp1
S'input'
p2
(dp3
S'encoded'
p4
(lp5
I64
aI2179
aI43
aI63
aI3
aI28431
aI7
aI2157
aI4624
aI75
aI39939
aI27257
aI122
aI4850
asS'ori'
p6
S'This house believes that the leaking of military documents by Anat Kamm was justified'
p7
ssS'output'
p8
(dp9
g4
(lp10
I18036
aI20391
aI55
aI742
aI63
aI3
aI7261
aI182
aI4648
aI24
aI2048
aI3
aI248
aI604
aI120
aI2138
aI9036
aI976
aI1795
aI45
aI3
aI16850
aI221
aI14
aI3
aI63765
asg6
S'Julian Assange has said that the servers are located in Sweden (and the other countries) "specifically because those nations offer legal protection to the disclosures made on the site" .'
p11
ss.