(dp1
S'input'
p2
(dp3
S'encoded'
p4
(lp5
I64
aI2179
aI43
aI63
aI6670
aI546
aI417
aI316
aI89
aI1334
aI3108
aI7
aI4849
aI1886
aI2855
asS'ori'
p6
S'This house believes that wind power should be a primary focus of future energy supply'
p7
ssS'output'
p8
(dp9
g4
(lp10
I89
aI6670
aI6677
aI116
aI89
aI94
aI7
aI6670
aI5109
aI24
aI3
aI1643
aI1860
aI416
aI45
aI3051
aI7373
aI546
aI63765
asg6
S'A wind farm is a group of wind turbines in the same location used to produce electric power .'
p11
ss.