(dp1
S'input'
p2
(dp3
S'encoded'
p4
(lp5
I64
aI2179
aI43
aI63
aI3
aI21
aI45
aI12715
aI417
aI99
aI316
aI2897
asS'ori'
p6
S'This house believes that the right to asylum should not be absolute'
p7
ssS'output'
p8
(dp9
g4
(lp10
I3
aI2394
aI70
aI55
aI913
aI22
aI12715
aI1710
aI267
aI1410
aI473
aI3
aI4
aI7
aI3
aI8734
aI88
aI316
aI2493
aI257
aI3
aI21539
aI88
aI161
aI19
aI22
aI12715
aI14
aI89
aI968
aI7
aI3
aI2295
aI7
aI3
aI37706
aI37707
aI31472
aI13524
aI1137
aI1795
aI18721
aI37708
aI10845
aI37709
aI4169
aI5354
aI34
aI3
aI1795
aI7
aI7477
aI5
aI37052
aI4224
aI2056
aI32
aI89
aI2924
aI7
aI9792
aI92
aI3236
aI22
aI2446
aI5
aI2747
aI7
aI3447
aI63765
asg6
S'The December 10  2003 law has limited political asylum  giving two main restrictions:it invented the notion of "internal asylum": the request may be rejected if the foreigner may benefit from political asylum on a portion of the territory of the statethe OFPRA (Office francais pour la protection des refugies et apatrides  French Office for the Protection of Refugees and Stateless Persons ) now makes a list of allegedly "safe countries" which respect political rights and principles of liberty .'
p11
ss.