(dp1
S'input'
p2
(dp3
S'encoded'
p4
(lp5
I64
aI2179
aI394
aI475
aI2135
aI2194
aI6198
aI45
aI2041
aI5
aI13926
aI8732
aI63
aI1735
aI12708
aI5
aI5599
aI24
aI2203
aI45
aI1397
aI7149
aI5
aI12311
aI271
aI5119
aI4948
asS'ori'
p6
S'This house would use foreign aid funds to research and distribute software that allows bloggers and journalists in non-democratic countries to evade censorship and conceal their online activities'
p7
ssS'output'
p8
(dp9
g4
(lp10
I24
aI1849
aI89
aI4256
aI5
aI4276
aI122
aI2951
aI92
aI2100
aI5224
aI14
aI31127
aI52911
aI5
aI399
aI6035
aI63765
asg6
S'In response  a mass e-mail and E-bulletin-board campaign was started  which included information on contacting Lotus and form letters .'
p11
ss.