(dp1
S'input'
p2
(dp3
S'encoded'
p4
(lp5
I64
aI2179
aI43
aI63
aI187
aI417
aI99
aI16642
aI3
aI6449
aI7
aI3935
asS'ori'
p6
S'This house believes that states should not subsidize the growing of tobacco'
p7
ssS'output'
p8
(dp9
g4
(lp10
I2068
aI2992
aI11
aI6212
aI14833
aI45
aI7019
aI14678
aI3526
aI3
aI4704
aI7973
aI88
aI316
aI3365
aI45
aI3
aI2220
aI5052
aI7
aI7019
aI14678
aI5
aI99
aI913
aI45
aI1640
aI2356
aI63765
asg6
S'Recent studies have linked smoking to anxiety disorders  suggesting the correlation (and possibly mechanism) may be related to the broad class of anxiety disorders  and not limited to just depression .'
p11
ss.