(dp1
S'input'
p2
(dp3
S'encoded'
p4
(lp5
I64
aI2179
aI394
aI2017
aI628
asS'ori'
p6
S'This house would ban gambling'
p7
ssS'output'
p8
(dp9
g4
(lp10
I34
aI6396
aI24
aI3
aI21496
aI7
aI628
aI4948
aI116
aI263
aI3
aI628
aI2130
aI3
aI7607
aI63765
asg6
S'For instance  in the&nbsp;UK  the regulator of gambling activities is called the Gambling Commission (not the Gaming Commission)  .'
p11
ss.