(dp1
S'input'
p2
(dp3
S'encoded'
p4
(lp5
I64
aI2179
aI43
aI63
aI134
aI116
aI400
aI21
aI34
aI3
aI260
aI45
aI3439
aI57
aI7
aI2381
asS'ori'
p6
S'This house believes that it is sometimes right for the government to restrict freedom of speech'
p7
ssS'output'
p8
(dp9
g4
(lp10
I508
aI24
aI89
aI646
aI626
aI2549
aI3
aI2483
aI4693
aI89
aI103
aI63
aI89
aI54916
aI20754
aI75
aI3
aI169
aI260
aI24
aI1849
aI45
aI3
aI2555
aI1687
aI122
aI16942
aI131
aI461
aI14
aI45
aI154
aI63
aI249
aI788
aI75
aI3
aI626
aI2549
aI459
aI63
aI54916
aI382
aI12618
aI63765
asg6
S'Thus in A v United Kingdom  the Court dismissed a claim that a derogation lodged by the British government in response to the September 11 attacks was invalid  but went on to find that measures taken by the United Kingdom under that derogation were disproportionate  .'
p11
ss.