(dp1
S'input'
p2
(dp3
S'encoded'
p4
(lp5
I64
aI2179
aI394
aI163
aI959
aI2042
aI3557
asS'ori'
p6
S'This house would make physical education compulsory'
p7
ssS'output'
p8
(dp9
g4
(lp10
I51
aI1560
aI2035
aI5162
aI24
aI353
aI3
aI136
aI3534
aI79
aI3
aI136
aI3862
aI182
aI136
aI1856
aI45
aI316
aI25313
aI73
aI35984
aI63765
asg6
S'An American study released in 2011 found the more mothers work the more children are more likely to be overweight or obese  .'
p11
ss.