(dp1
S'input'
p2
(dp3
S'encoded'
p4
(lp5
I64
aI2179
aI43
aI63
aI2157
aI2565
aI493
aI19084
aI382
aI4850
asS'ori'
p6
S"This house believes that Israel's 2008-2009 military operations against Gaza were justified"
p7
ssS'output'
p8
(dp9
g4
(lp10
I3
aI6434
aI19386
aI263
aI14
aI2659
aI5
aI16619
aI45
aI709
aI903
aI8745
aI736
aI3
aI13410
aI7
aI2223
aI4212
aI63765
asg6
S'The Swiss ambassador called on Israel and Hamas to conduct independent investigations into the allegations of war crimes .'
p11
ss.