(dp1
S'input'
p2
(dp3
S'encoded'
p4
(lp5
I64
aI2179
aI43
aI8629
aI116
aI3
aI117
aI998
asS'ori'
p6
S'This house believes atheism is the only way'
p7
ssS'output'
p8
(dp9
g4
(lp10
I1136
aI23347
aI5722
aI291
aI61
aI42
aI263
aI18580
aI89
aI16851
aI1869
aI63
aI2538
aI3819
aI1191
aI3524
aI5
aI18580
aI92
aI3
aI3524
aI7
aI89
aI21760
aI5480
aI63765
asg6
S'De Vries distinguished between what he called "methodological naturalism " a disciplinary method that says nothing about God\'s existence  and "metaphysical naturalism " which "denies the existence of a transcendent God .'
p11
ss.