(dp1
S'input'
p2
(dp3
S'encoded'
p4
(lp5
I64
aI2179
aI394
aI16642
aI1376
aI5269
asS'ori'
p6
S'This house would subsidize poor communities'
p7
ssS'output'
p8
(dp9
g4
(lp10
I311
aI271
aI3198
aI155
aI454
aI3941
aI1563
aI1273
aI1727
aI19
aI9073
aI736
aI9495
aI130
aI5
aI3709
aI86
aI9041
aI2038
aI75
aI1443
aI86
aI45
aI1049
aI1186
aI14
aI92
aI271
aI19102
aI182
aI717
aI63765
asg6
S'At their worst  they protect households facing hard times from falling into deeper poverty and help them manage risk by allowing them to maintain assets on which their livelihoods are based .'
p11
ss.