(dp1
S'input'
p2
(dp3
S'encoded'
p4
(lp5
I64
aI2179
aI43
aI63
aI187
aI417
aI99
aI16642
aI3
aI6449
aI7
aI3935
asS'ori'
p6
S'This house believes that states should not subsidize the growing of tobacco'
p7
ssS'output'
p8
(dp9
g4
(lp10
I725
aI4702
aI7
aI3168
aI41526
aI133
aI64
aI20490
aI122
aI89
aI258
aI7
aI13903
aI51
aI1189
aI7
aI1565
aI2925
aI289
aI211
aI2624
aI5
aI89
aI3174
aI7
aI3
aI1036
aI8005
aI7
aI89
aI15464
aI30691
aI63765
asg6
S'Many proponents of post-colonial theory controversially believe this portrayal was a means of projecting an image of European superiority over its colonies and a perception of the male dominance of a feminized Orient .'
p11
ss.