(dp1
S'input'
p2
(dp3
S'encoded'
p4
(lp5
I64
aI2179
aI43
aI63
aI3
aI4991
aI7
aI180
aI417
aI316
aI5396
aI19
aI3
aI169
aI10
asS'ori'
p6
S'This house believes that the Church of England should be separated from the British state'
p7
ssS'output'
p8
(dp9
g4
(lp10
I2068
aI44
aI75
aI3
aI170
aI260
aI45
aI14854
aI8603
aI1404
aI51
aI11517
aI24
aI2670
aI5
aI122
aI344
aI41
aI51
aI1222
aI45
aI2505
aI2763
aI3527
aI131
aI80
aI957
aI864
aI63
aI3
aI2474
aI122
aI1881
aI45
aI265
aI10137
aI92
aI116
aI637
aI279
aI24
aI3945
aI2506
aI1381
aI99
aI689
aI118
aI63765
asg6
S'Recent attempts by the conservative government to outlaw adultery caused an outcry in Turkey and was seen as an attempt to legislate Islamic values  but others point out that the legislation was intended to combat polygamy which is still common in rural areas  although not recognized legally .'
p11
ss.