(dp1
S'input'
p2
(dp3
S'encoded'
p4
(lp5
I64
aI2179
aI394
aI2998
aI3
aI4360
aI7
aI3249
aI6804
aI24
aI3
aI102
asS'ori'
p6
S'This house would encourage the creation of private universities in the UK'
p7
ssS'output'
p8
(dp9
g4
(lp10
I24
aI3
aI102
aI51
aI232
aI139
aI117
aI475
aI3
aI5489
aI73
aI257
aI134
aI55
aI12
aI4626
aI75
aI3
aI6277
aI2132
aI459
aI3
aI1809
aI7
aI3
aI1706
aI5
aI166
aI2042
aI2784
aI63765
asg6
S'In the UK  an institution can only use the title "University" or "University College" if it has been granted by the Privy Council  under the terms of the Further and Higher Education Act 1992  .'
p11
ss.