(dp1
S'input'
p2
(dp3
S'encoded'
p4
(lp5
I64
aI2179
aI394
aI2773
aI12505
asS'ori'
p6
S'This house would embrace multiculturalism'
p7
ssS'output'
p8
(dp9
g4
(lp10
I3
aI49475
aI580
aI7
aI21330
aI116
aI324
aI641
aI24
aI3
aI7829
aI7
aI7423
aI63765
asg6
S'The transactional nature of acculturation is particularly notable in the evolution of languages .'
p11
ss.