(dp1
S'input'
p2
(dp3
S'encoded'
p4
(lp5
I64
aI2179
aI394
aI16642
aI1376
aI5269
asS'ori'
p6
S'This house would subsidize poor communities'
p7
ssS'output'
p8
(dp9
g4
(lp10
I134
aI116
aI2010
aI63
aI89
aI4262
aI2994
aI8375
aI443
aI7619
aI131
aI3
aI14466
aI14467
aI5058
aI116
aI63
aI89
aI4262
aI2994
aI47
aI174
aI1304
aI443
aI7619
aI604
aI311
aI159
aI89
aI2994
aI273
aI116
aI443
aI593
aI351
aI191
aI34
aI89
aI12598
aI9523
aI45
aI8680
aI351
aI112
aI508
aI3
aI7619
aI800
aI47
aI316
aI7
aI3819
aI63765
asg6
S'It is clear that a 0% tax rate raises no revenue  but the Laffer curve hypothesis is that a 100% tax rate will also generate no revenue because at such a rate there is no longer any incentive for a rational taxpayer to earn any income  thus the revenue raised will be 100% of nothing .'
p11
ss.