(dp1
S'input'
p2
(dp3
S'encoded'
p4
(lp5
I64
aI2179
aI43
aI63
aI3376
aI4938
aI417
aI316
aI3537
asS'ori'
p6
S'This house believes that endangered species should be protected'
p7
ssS'output'
p8
(dp9
g4
(lp10
I3
aI2096
aI122
aI63
aI4975
aI117
aI6570
aI45
aI8127
aI3921
aI5
aI3921
aI117
aI6570
aI45
aI8127
aI460
aI63765
asg6
S'The idea was that plants only existed to feed animals and animals only existed to feed man .'
p11
ss.