(dp1
S'input'
p2
(dp3
S'encoded'
p4
(lp5
I64
aI2179
aI43
aI63
aI6670
aI546
aI417
aI316
aI89
aI1334
aI3108
aI7
aI4849
aI1886
aI2855
asS'ori'
p6
S'This house believes that wind power should be a primary focus of future energy supply'
p7
ssS'output'
p8
(dp9
g4
(lp10
I6830
aI6687
aI3987
aI4412
aI24
aI4881
aI63
aI6670
aI5109
aI2011
aI6797
aI4386
aI3569
aI60
aI4849
aI4699
aI4666
aI45
aI3226
aI994
aI41
aI6670
aI546
aI105
aI6831
aI75
aI45
aI2363
aI1191
aI1727
aI166
aI138
aI2363
aI63765
asg6
S'Fish & Wildlife Service (USFWS) scientist in 2009 claimed that wind turbines kill 440 000 birds per year  with future mortality expected to increase significantly as wind power generation expands by 2030 to levels about 12 times higher than 2009 levels  .'
p11
ss.