(dp1
S'input'
p2
(dp3
S'encoded'
p4
(lp5
I64
aI2179
aI43
aI3
aI626
aI187
aI116
aI1989
aI34
aI3102
aI2223
asS'ori'
p6
S"This house believes the United States is responsible for Mexico's drugs war"
p7
ssS'output'
p8
(dp9
g4
(lp10
I226
aI64
aI8734
aI1501
aI1498
aI5
aI477
aI134
aI98
aI99
aI1944
aI351
aI3252
aI1621
aI73
aI137
aI45
aI316
aI2396
aI2818
aI45
aI3
aI260
aI7
aI2299
aI73
aI211
aI3249
aI8733
aI63765
asg6
S'While this request includes equipment and training  it does not involve any cash transfers or money to be provided directly to the Government of Mexico or its private contractors .'
p11
ss.