(dp1
S'input'
p2
(dp3
S'encoded'
p4
(lp5
I64
aI2179
aI394
aI60
aI23587
asS'ori'
p6
S'This house would re-engage with Myanmar'
p7
ssS'output'
p8
(dp9
g4
(lp10
I13498
aI116
aI3557
aI487
aI3
aI312
aI7
aI10727
aI2240
aI6847
aI1191
aI2439
aI5545
aI226
aI3
aI3557
aI13498
aI3485
aI116
aI73
aI311
aI282
aI126
aI63765
asg6
S'Schooling is compulsory until the end of elementary school  probably about 9 years old  while the compulsory schooling age is 15 or 16 at international level .'
p11
ss.