(dp1
S'input'
p2
(dp3
S'encoded'
p4
(lp5
I64
aI2179
aI394
aI2017
aI223
aI9058
aI23653
asS'ori'
p6
S'This house would ban all unsustainable logging'
p7
ssS'output'
p8
(dp9
g4
(lp10
I41
aI759
aI7
aI3
aI626
aI2138
aI2804
aI7
aI41
aI3
aI282
aI3569
aI7
aI7910
aI28607
aI17881
aI3
aI7910
aI2756
aI2333
aI14
aI2555
aI311
aI12297
aI24
aI28638
aI63765
asg6
S'As part of the United Nations declaration of 2011 as the International Year of Forests  CIFOR convened the Forests Indonesia (Hutan Indonesia) conference on 27 September 2011 at Shangri-La Hotel in Jakarta .'
p11
ss.