(dp1
S'input'
p2
(dp3
S'encoded'
p4
(lp5
I64
aI2179
aI394
aI2017
aI223
aI9058
aI23653
asS'ori'
p6
S'This house would ban all unsustainable logging'
p7
ssS'output'
p8
(dp9
g4
(lp10
I200
aI6694
aI19
aI3
aI7808
aI7809
aI5
aI8254
aI7992
aI24
aI2760
aI2203
aI55
aI5461
aI41
aI667
aI1718
aI45
aI8871
aI3889
aI2456
aI189
aI63765
asg6
S'Reducing emissions from the tropical deforestation and forest degradation (REDD) in developing countries has emerged as new potential to complement ongoing climate policies .'
p11
ss.