(dp1
S'input'
p2
(dp3
S'encoded'
p4
(lp5
I64
aI2179
aI43
aI63
aI2203
aI60
aI51
aI997
aI2837
aI21716
aI1636
aI5349
aI417
aI2998
aI8532
aI45
aI3051
aI8578
asS'ori'
p6
S'This house believes that countries with an imbalanced male/female ratio skewed towards males should encourage parents to produce girls'
p7
ssS'output'
p8
(dp9
g4
(lp10
I11389
aI4584
aI116
aI890
aI472
aI24
aI2390
aI131
aI3
aI6426
aI260
aI4993
aI63
aI3
aI1485
aI116
aI657
aI946
aI24
aI3945
aI2506
aI7
aI2390
aI5
aI887
aI18437
aI3136
aI159
aI41
aI37179
aI18967
aI6941
aI24
aI385
aI27109
aI75
aI3
aI63765
asg6
S'Sex selection is officially prohibited in China  but the Chinese government admits that the practice is widespread  especially in rural areas of China and among lawless groups such as ghettoized migrant workers in cities (despite denials by the government-sponsored studies)  .'
p11
ss.