(dp1
S'input'
p2
(dp3
S'encoded'
p4
(lp5
I64
aI2179
aI394
aI60
aI23587
asS'ori'
p6
S'This house would re-engage with Myanmar'
p7
ssS'output'
p8
(dp9
g4
(lp10
I41
aI89
aI6655
aI5
aI41
aI89
aI5798
aI2233
aI139
aI3943
aI63
aI134
aI47
aI316
aI419
aI330
aI34
aI3
aI12800
aI260
aI45
aI475
aI2617
aI45
aI14899
aI462
aI14
aI3
aI16983
aI63765
asg6
S'As a Buddhist and as a soldier  I can say that it will be very difficult for the Burmese government to use violence to crack down on the monks .'
p11
ss.