(dp1
S'input'
p2
(dp3
S'encoded'
p4
(lp5
I64
aI2179
aI394
aI5370
aI3
aI5286
asS'ori'
p6
S'This house would abolish the monarchy'
p7
ssS'output'
p8
(dp9
g4
(lp10
I2157
aI6493
aI7
aI3
aI5301
aI55
aI458
aI24
aI8
aI2787
aI5
aI24
aI5669
aI2371
aI89
aI5337
aI2157
aI2217
aI3
aI6494
aI122
aI3
aI1136
aI2733
aI6416
aI1381
aI3
aI2692
aI6465
aI6389
aI63765
asg6
S'Military domination of the monarch has occurred in modern Thailand and in medieval Japan (where a hereditary military chief  the shogun was the de facto ruler  although the Japanese emperor nominally ruled) .'
p11
ss.