(dp1
S'input'
p2
(dp3
S'encoded'
p4
(lp5
I64
aI2179
aI43
aI63
aI1036
aI4828
aI33250
aI116
aI25073
aI45
aI3315
aI4562
asS'ori'
p6
S'This house believes that male infant circumcision is tantamount to child abuse'
p7
ssS'output'
p8
(dp9
g4
(lp10
I155
aI10
aI63
aI2039
aI417
aI99
aI5793
aI8532
aI131
aI417
aI2677
aI8532
aI24
aI271
aI752
aI75
aI3
aI1718
aI127
aI5
aI4779
aI5
aI75
aI13216
aI63
aI155
aI7817
aI63
aI33250
aI116
aI51
aI4631
aI3378
asg6
S'They state that physicians should not coerce parents  but should assist parents in their decision by "explaining the potential benefits and risks and by ensuring that they [the parents] understand that circumcision is an elective procedure ."'
p11
ss.