(dp1
S'input'
p2
(dp3
S'encoded'
p4
(lp5
I64
aI2179
aI394
aI4261
aI8667
aI3
aI9361
aI5
aI17069
asS'ori'
p6
S'This house would prohibit burning the stars and stripes'
p7
ssS'output'
p8
(dp9
g4
(lp10
I2051
aI7
aI2188
aI2381
aI182
aI2195
aI45
aI89
aI12079
aI3441
aI63765
asg6
S'Restrictions of commercial speech are subject to a four-element intermediate scrutiny .'
p11
ss.