(dp1
S'input'
p2
(dp3
S'encoded'
p4
(lp5
I64
aI2179
aI43
aI17
aI4941
aI857
aI3211
asS'ori'
p6
S'This house believes social deprivation causes crime'
p7
ssS'output'
p8
(dp9
g4
(lp10
I2041
aI4446
aI63
aI631
aI182
aI136
aI1856
aI45
aI163
aI51
aI11653
aI257
aI3
aI4603
aI116
aI2034
aI257
aI8698
aI182
aI713
aI73
aI257
aI3
aI4745
aI116
aI7
aI89
aI15011
aI3716
aI63765
asg6
S'Research suggests that police are more likely to make an arrest if the offence is serious  if bystanders are present  or if the suspect is of a visible minority  .'
p11
ss.