(dp1
S'input'
p2
(dp3
S'encoded'
p4
(lp5
I64
aI2179
aI43
aI223
aI2138
aI11
aI89
aI21
aI45
aI2185
aI372
asS'ori'
p6
S'This house believes all nations have a right to nuclear weapons'
p7
ssS'output'
p8
(dp9
g4
(lp10
I64
aI47
aI1944
aI595
aI4605
aI14
aI3
aI759
aI7
aI27120
aI5
aI3
aI2891
aI7
aI1112
aI10577
aI92
aI11555
aI11570
aI187
aI63765
asg6
S'This will involve greater judgement on the part of IAEA and the development of effective methodologies which reassure NPT States .'
p11
ss.