(dp1
S'input'
p2
(dp3
S'encoded'
p4
(lp5
I64
aI2179
aI394
aI16642
aI1376
aI5269
asS'ori'
p6
S'This house would subsidize poor communities'
p7
ssS'output'
p8
(dp9
g4
(lp10
I41
aI2131
aI546
aI55
aI3350
aI5
aI9441
aI3365
aI5878
aI55
aI1199
aI136
aI657
aI16
aI4925
aI55
aI24697
aI15438
aI4925
aI63765
asg6
S'As union power has declined  and performance related pay has become more widespread  economic inequality has mirrored productive inequality  .'
p11
ss.