(dp1
S'input'
p2
(dp3
S'encoded'
p4
(lp5
I64
aI2179
aI43
aI63
aI6670
aI546
aI417
aI316
aI89
aI1334
aI3108
aI7
aI4849
aI1886
aI2855
asS'ori'
p6
S'This house believes that wind power should be a primary focus of future energy supply'
p7
ssS'output'
p8
(dp9
g4
(lp10
I4915
aI8921
aI83
aI316
aI575
aI257
aI3
aI6844
aI1886
aI116
aI104
aI311
aI89
aI2503
aI5140
aI14
aI2503
aI969
aI73
aI3920
aI1560
aI969
aI63765
asg6
S'Double credit must be given if the renewable energy is produced at a Federal facility  on Federal lands or Native American Lands .'
p11
ss.