(dp1
S'input'
p2
(dp3
S'encoded'
p4
(lp5
I64
aI2179
aI394
aI2773
aI12505
asS'ori'
p6
S'This house would embrace multiculturalism'
p7
ssS'output'
p8
(dp9
g4
(lp10
I12997
aI12997
aI985
aI298
aI147
aI182
aI1031
aI45
aI3442
aI3
aI2637
aI13541
aI7
aI3
aI941
aI73
aI2671
aI3905
aI226
aI2751
aI271
aI3905
aI7
aI5304
aI63765
asg6
S'Integration  Integration occurs when individuals are able to adopt the cultural norms of the dominant or host culture while maintaining their culture of origin .'
p11
ss.