(dp1
S'input'
p2
(dp3
S'encoded'
p4
(lp5
I64
aI2179
aI43
aI17
aI4941
aI857
aI3211
asS'ori'
p6
S'This house believes social deprivation causes crime'
p7
ssS'output'
p8
(dp9
g4
(lp10
I271
aI16085
aI55
aI2118
aI45
aI316
aI1047
aI41
aI24
aI3
aI2378
aI857
aI7
aI3211
aI63765
asg6
S'Their thesis has come to be known as "racial invariance" in the fundamental causes of crime .'
p11
ss.