(dp1
S'input'
p2
(dp3
S'encoded'
p4
(lp5
I64
aI2179
aI394
aI2017
aI628
asS'ori'
p6
S'This house would ban gambling'
p7
ssS'output'
p8
(dp9
g4
(lp10
I64
aI88
aI1074
aI1647
aI7
aI7300
aI14691
aI7196
aI73
aI14692
aI63765
asg6
S'This may include acts of theft  embezzlement  fraud  or forgery .'
p11
ss.