(dp1
S'input'
p2
(dp3
S'encoded'
p4
(lp5
I64
aI2179
aI43
aI17
aI4941
aI857
aI3211
asS'ori'
p6
S'This house believes social deprivation causes crime'
p7
ssS'output'
p8
(dp9
g4
(lp10
I132
aI2864
aI2830
aI41
aI89
aI16499
aI8103
aI2819
aI5
aI3364
aI34
aI3
aI4083
aI78
aI24
aI63765
asg6
S'These roles serve as a script  supplying dialogue and action for the characters (the people in reality)  .'
p11
ss.