(dp1
S'input'
p2
(dp3
S'encoded'
p4
(lp5
I64
aI2179
aI394
aI2976
aI12243
aI24
aI954
aI126
aI1560
aI10723
asS'ori'
p6
S'This house would implement playoffs in collegiate level American football'
p7
ssS'output'
p8
(dp9
g4
(lp10
I990
aI3
aI1096
aI20731
aI3473
aI4132
aI11651
aI5
aI7683
aI11332
aI34957
aI10
aI5
aI4428
aI10
aI63765
asg6
S'Ultimately  the Sugar Bowl selected #11 Virginia Tech and #13 Michigan  bypassing #7 Boise State and #8 Kansas State .'
p11
ss.