(dp1
S'input'
p2
(dp3
S'encoded'
p4
(lp5
I64
aI2179
aI13605
aI2258
aI45
aI2194
asS'ori'
p6
S'This house prefers trade to aid'
p7
ssS'output'
p8
(dp9
g4
(lp10
I64
aI4959
aI5
aI725
aI80
aI2052
aI111
aI2760
aI2203
aI11
aI2909
aI7318
aI3
aI2899
aI958
aI138
aI3
aI2936
aI3052
aI1972
aI14468
aI3
aI7829
aI7
aI2891
aI2194
aI115
aI19
aI193
aI2351
aI7801
aI45
aI5092
aI2891
aI45
aI773
aI89
aI2135
aI2136
aI1623
aI416
aI75
aI2899
aI2203
aI45
aI3018
aI271
aI2287
aI2444
aI63765
asg6
S'This inequalities and many others imposed upon developing countries have actually benefited the donor rather than the recipient .This cases clearly illustrate the evolution of development aid assistance from providing financial resource to fuel development to being a foreign policy tool used by donor countries to promote their domestic interests .'
p11
ss.