(dp1
S'input'
p2
(dp3
S'encoded'
p4
(lp5
I64
aI2179
aI43
aI3
aI626
aI187
aI116
aI1989
aI34
aI3102
aI2223
asS'ori'
p6
S"This house believes the United States is responsible for Mexico's drugs war"
p7
ssS'output'
p8
(dp9
g4
(lp10
I24
aI421
aI3
aI1157
aI260
aI55
aI4881
aI63
aI271
aI1334
aI3108
aI116
aI14
aI28393
aI3
aI1173
aI2613
aI8679
aI958
aI138
aI14
aI2613
aI3139
aI2466
aI92
aI116
aI20
aI45
aI2145
aI63765
aI36199
aI63765
asg6
S'In addition  the Mexican government has claimed that their primary focus is on dismantling the powerful drug cartels  rather than on drug trafficking prevention  which is left to U .S . functionaries  .'
p11
ss.