(dp1
S'input'
p2
(dp3
S'encoded'
p4
(lp5
I64
aI2179
aI394
aI2741
aI3
aI1560
aI6025
aI2784
asS'ori'
p6
S'This house would pass the American Jobs Act'
p7
ssS'output'
p8
(dp9
g4
(lp10
I51
aI229
aI81
aI1019
aI843
aI5873
aI51
aI6225
aI73
aI836
aI89
aI1028
aI116
aI178
aI63765
asg6
S'An individual who cannot either join an enterprise or create a job is unemployed .'
p11
ss.