(dp1
S'input'
p2
(dp3
S'encoded'
p4
(lp5
I64
aI2179
aI13605
aI2258
aI45
aI2194
asS'ori'
p6
S'This house prefers trade to aid'
p7
ssS'output'
p8
(dp9
g4
(lp10
I3
aI795
aI7
aI3
aI3795
aI24
aI17899
aI547
aI2318
aI2047
aI45
aI2572
aI211
aI284
aI2891
aI952
aI92
aI55
aI3488
aI89
aI1793
aI532
aI7
aI2041
aI24
aI3
aI2696
aI691
aI63765
asg6
S'The holding of the Forum in Busan allowed South Korea to share its own development experience  which has attracted a considerable amount of research in the country since 2008  .'
p11
ss.