(dp1
S'input'
p2
(dp3
S'encoded'
p4
(lp5
I64
aI2179
aI43
aI63
aI3
aI4538
aI7
aI4434
aI7793
aI283
aI45
aI3586
aI417
aI316
aI577
asS'ori'
p6
S'This house believes that the sale of violent video games to minors should be banned'
p7
ssS'output'
p8
(dp9
g4
(lp10
I1381
aI725
aI7793
aI283
aI6310
aI89
aI56825
aI3914
aI34
aI1036
aI4083
aI64
aI88
aI24
aI68
aI4614
aI912
aI4583
aI2864
aI5
aI15457
aI353
aI24
aI368
aI5072
aI7793
aI283
aI10162
aI19
aI2770
aI153
aI1074
aI54524
aI1036
aI4083
aI2794
aI75
aI24387
aI60
aI19368
aI684
aI39368
aI7491
aI5240
aI1990
aI5
aI572
aI5860
aI159
aI41
aI3
aI15781
aI4083
aI7
aI56826
aI24
aI5563
aI13987
aI12411
aI5
aI3063
aI24
aI3
aI17698
aI7
aI29329
aI63765
asg6
S'Although many video games emphasize a hypermasculine identity for male characters  this may in fact reflect current gender roles and stereotypes found in Western society; whereas  video games originating from Asia often include androgynous male characters  influenced by anime  with thinner bodies  softer faces  big eyes and long hair  such as the iconic characters of Sephiroth in Final Fantasy VII and Link in the Legend of Zelda .'
p11
ss.