(dp1
S'input'
p2
(dp3
S'encoded'
p4
(lp5
I64
aI2179
aI394
aI2773
aI12505
asS'ori'
p6
S'This house would embrace multiculturalism'
p7
ssS'output'
p8
(dp9
g4
(lp10
I28
aI5
aI4169
aI2455
aI3
aI117
aI878
aI7423
aI378
aI248
aI7423
aI88
aI316
aI416
aI63765
asg6
S'English and French remain the only official languages  however other languages may be used .'
p11
ss.