(dp1
S'input'
p2
(dp3
S'encoded'
p4
(lp5
I64
aI2179
aI394
aI4325
aI2042
aI270
aI89
aI11605
aI3324
asS'ori'
p6
S'This house would fund education using a voucher scheme'
p7
ssS'output'
p8
(dp9
g4
(lp10
I24
aI6077
aI273
aI116
aI51
aI2705
aI11605
aI145
aI24
aI92
aI3
aI10
aI10302
aI3249
aI5
aI4431
aI4364
aI2818
aI717
aI14
aI10185
aI5856
aI63765
asg6
S'In Chile  there is an extensive voucher system in which the State pays private and municipal schools directly based on student attendance .'
p11
ss.