(dp1
S'input'
p2
(dp3
S'encoded'
p4
(lp5
I64
aI2179
aI43
aI63
aI7382
aI116
aI400
aI4713
asS'ori'
p6
S'This house believes that bribery is sometimes acceptable'
p7
ssS'output'
p8
(dp9
g4
(lp10
I653
aI132
aI10488
aI3
aI2148
aI3183
aI7
aI132
aI22869
aI55
aI2425
aI45
aI271
aI657
aI9415
aI217
aI1052
aI75
aI3
aI337
aI1342
aI9276
aI63765
asg6
S'Despite these weaknesses  the global coverage of these datasets has led to their widespread adoption  most notably by the Millennium Challenge Corporation  .'
p11
ss.