(dp1
S'input'
p2
(dp3
S'encoded'
p4
(lp5
I64
aI2179
aI394
aI5370
aI7146
aI4585
aI2446
asS'ori'
p6
S'This house would abolish intellectual property rights'
p7
ssS'output'
p8
(dp9
g4
(lp10
I3
aI12717
aI2489
aI7
aI3
aI626
aI187
aI2475
aI5925
aI12717
aI3018
aI3
aI8252
aI7
aI3707
aI5
aI5185
aI7985
aI75
aI12963
aI34
aI913
aI1727
aI45
aI12716
aI5
aI12636
aI3
aI2508
aI21
aI45
aI271
aI5985
aI8032
aI5
aI10981
asg6
S'The Copyright Clause of the United States Constitution (1787) authorized copyright legislation: "To promote the Progress of Science and useful Arts  by securing for limited Times to Authors and Inventors the exclusive Right to their respective Writings and Discoveries ."'
p11
ss.