(dp1
S'input'
p2
(dp3
S'encoded'
p4
(lp5
I64
aI2179
aI43
aI8629
aI116
aI3
aI117
aI998
asS'ori'
p6
S'This house believes atheism is the only way'
p7
ssS'output'
p8
(dp9
g4
(lp10
I42
aI1630
aI63
aI116
aI958
aI675
aI89
aI22228
aI1841
aI14
aI89
aI4257
aI366
aI3
aI8413
aI63765
aI63765
aI3
aI22228
aI2909
aI344
aI3
aI4257
aI84
aI238
aI7
aI2346
aI63765
asg6
S'He added that "it is rather like a detective coming on a murder after the scene . . the detective hasn\'t actually seen the murder take place  of course .'
p11
ss.