(dp1
S'input'
p2
(dp3
S'encoded'
p4
(lp5
I64
aI2179
aI43
aI63
aI6670
aI546
aI417
aI316
aI89
aI1334
aI3108
aI7
aI4849
aI1886
aI2855
asS'ori'
p6
S'This house believes that wind power should be a primary focus of future energy supply'
p7
ssS'output'
p8
(dp9
g4
(lp10
I155
aI1499
aI5
aI1233
aI6670
aI8165
aI24
aI223
aI2317
aI7
aI3
aI3140
aI63765
asg6
S'They build and operate wind parks in all regions of the Netherlands .'
p11
ss.