(dp1
S'input'
p2
(dp3
S'encoded'
p4
(lp5
I64
aI2179
aI43
aI8629
aI116
aI3
aI117
aI998
asS'ori'
p6
S'This house believes atheism is the only way'
p7
ssS'output'
p8
(dp9
g4
(lp10
I3707
aI5
aI7983
aI182
aI742
aI45
aI399
aI89
aI11473
aI233
aI45
aI64
aI234
aI63765
asg6
S'Science and philosophy are said to form a continuum  according to this view .'
p11
ss.