(dp1
S'input'
p2
(dp3
S'encoded'
p4
(lp5
I64
aI2179
aI43
aI63
aI3
aI4990
aI4991
aI116
aI4850
aI24
aI12166
aI3
aI475
aI7
aI3532
aI3290
aI7
aI4714
asS'ori'
p6
S'This house believes that the Catholic Church is justified in forbidding the use of barrier methods of contraception'
p7
ssS'output'
p8
(dp9
g4
(lp10
I378
aI691
aI89
aI3034
aI2035
aI9869
aI75
aI3
aI4990
aI6298
aI2022
aI7
aI875
aI24
aI217
aI8
aI4990
aI10078
aI1781
aI63
aI51
aI2784
aI7
aI21148
aI417
aI316
aI774
aI545
aI211
aI3269
aI4659
aI63765
asg6
S'However  since a revolutionary study commissioned by the Catholic Theological Society of America in 1972  most modern Catholic theologians hold that an act of masturbation should be judged within its life context .'
p11
ss.