(dp1
S'input'
p2
(dp3
S'encoded'
p4
(lp5
I64
aI2179
aI394
aI4325
aI2042
aI270
aI89
aI11605
aI3324
asS'ori'
p6
S'This house would fund education using a voucher scheme'
p7
ssS'output'
p8
(dp9
g4
(lp10
I42
aI3172
aI63
aI374
aI197
aI6228
aI182
aI534
aI75
aI260
aI45
aI18357
aI493
aI28755
aI443
aI593
aI197
aI89
aI17
aI9
aI6412
aI5
aI47
aI296
aI24
aI49045
aI3
aI197
aI6228
aI73
aI155
aI47
aI316
aI16033
aI864
aI75
aI89
aI260
aI14439
aI1706
aI49045
aI3
aI260
aI63765
asg6
S"He argues that once insurance companies are required by government to insure against preconditions  it's no longer insurance  it's a social welfare mandate and will result in bankrupting the insurance companies  or they will be bailed out by a government subsidy  further bankrupting the government ."
p11
ss.