(dp1
S'input'
p2
(dp3
S'encoded'
p4
(lp5
I64
aI2179
aI43
aI63
aI2157
aI2565
aI493
aI19084
aI382
aI4850
asS'ori'
p6
S"This house believes that Israel's 2008-2009 military operations against Gaza were justified"
p7
ssS'output'
p8
(dp9
g4
(lp10
I42
aI174
aI263
aI34
aI3
aI312
aI7
aI12048
aI24
aI19084
aI63765
asg6
S"He also called for the end of Israel's blockade in Gaza  ."
p11
ss.