(dp1
S'input'
p2
(dp3
S'encoded'
p4
(lp5
I64
aI2179
aI43
aI63
aI6670
aI546
aI417
aI316
aI89
aI1334
aI3108
aI7
aI4849
aI1886
aI2855
asS'ori'
p6
S'This house believes that wind power should be a primary focus of future energy supply'
p7
ssS'output'
p8
(dp9
g4
(lp10
I134
aI116
aI2845
aI63
aI15167
aI7
aI6890
aI6670
aI1718
aI1967
aI868
aI45
aI124
aI6982
aI7
aI1886
aI63765
asg6
S'It is estimated that 11 .5 GW of onshore wind potential exists  enough to provide 45 TWh of energy .'
p11
ss.