(dp1
S'input'
p2
(dp3
S'encoded'
p4
(lp5
I64
aI2179
aI394
aI2998
aI3
aI4360
aI7
aI3249
aI6804
aI24
aI3
aI102
asS'ori'
p6
S'This house would encourage the creation of private universities in the UK'
p7
ssS'output'
p8
(dp9
g4
(lp10
I24
aI667
aI2086
aI3
aI2015
aI2176
aI7
aI4758
aI122
aI685
aI24
aI5
aI24
aI973
aI3
aI237
aI1560
aI2648
aI63765
asg6
S"In New York  the medical department of King's College was established in 1767  and in 1770 awarded the first American M .D ."
p11
ss.