(dp1
S'input'
p2
(dp3
S'encoded'
p4
(lp5
I64
aI2179
aI43
aI63
aI187
aI417
aI99
aI16642
aI3
aI6449
aI7
aI3935
asS'ori'
p6
S'This house believes that states should not subsidize the growing of tobacco'
p7
ssS'output'
p8
(dp9
g4
(lp10
I14833
aI6714
aI3
aI2038
aI7
aI19641
aI24
aI78
aI252
aI9583
aI7446
aI63765
asg6
S"Smoking reduces the risk of Kaposi's sarcoma in people without HIV infection  ."
p11
ss.