(dp1
S'input'
p2
(dp3
S'encoded'
p4
(lp5
I64
aI2179
aI394
aI3830
aI3
aI475
aI7
aI9441
aI13132
aI3102
aI24
aI276
aI381
asS'ori'
p6
S'This house would permit the use of performance enhancing drugs in professional sports'
p7
ssS'output'
p8
(dp9
g4
(lp10
I3
aI912
aI2136
aI7
aI3
aI16754
aI33609
aI12338
aI252
aI5878
aI81
aI3274
aI69
aI34
aI577
aI10141
aI41
aI134
aI55
aI691
aI869
aI283
aI34
aI3
aI237
aI1305
aI2152
aI7
aI3
aI1949
aI784
aI283
aI34
aI89
aI1950
aI1305
aI7
aI3
aI1949
aI5
aI3131
aI34
aI89
aI3059
aI1305
aI63765
asg6
S'The current policy of the NFL suspends players without pay who test positive for banned substances as it has since 1989: four games for the first offense (a quarter of the regular season)  eight games for a second offense (half of the regular season)  and 12 months for a third offense  .'
p11
ss.