(dp1
S'input'
p2
(dp3
S'encoded'
p4
(lp5
I64
aI2179
aI13605
aI2258
aI45
aI2194
asS'ori'
p6
S'This house prefers trade to aid'
p7
ssS'output'
p8
(dp9
g4
(lp10
I41
aI159
aI725
aI2453
aI188
aI2138
aI24
aI2404
aI182
aI7336
aI60
aI7337
aI5110
aI588
aI75
aI7338
aI3199
aI63765
asg6
S'As such  many newly democratic nations in Africa are saddled with debt run up by totalitarian regimes .'
p11
ss.