(dp1
S'input'
p2
(dp3
S'encoded'
p4
(lp5
I64
aI2179
aI394
aI2017
aI223
aI9058
aI23653
asS'ori'
p6
S'This house would ban all unsustainable logging'
p7
ssS'output'
p8
(dp9
g4
(lp10
I64
aI2533
aI116
aI3
aI117
aI282
aI118
aI2473
aI3278
aI1629
aI588
aI45
aI4506
aI36821
aI5
aI116
aI717
aI14
aI3
aI2747
aI7
aI7600
aI2574
aI5
aI11475
aI63765
asg6
S'This convention is the only international  legally binding framework set up to address desertification and is based on the principles of participation  partnership and decentralisation .'
p11
ss.