(dp1
S'input'
p2
(dp3
S'encoded'
p4
(lp5
I64
aI2179
aI394
aI190
aI3
aI21
aI45
aI3895
aI834
asS'ori'
p6
S'This house would limit the right to bear arms'
p7
ssS'output'
p8
(dp9
g4
(lp10
I7295
aI136
aI3892
aI138
aI64
aI1298
aI89
aI3564
aI1025
aI63765
asg6
S'Owning more firearms than this requires a valid reason .'
p11
ss.