(dp1
S'input'
p2
(dp3
S'encoded'
p4
(lp5
I64
aI2179
aI394
aI2017
aI3807
aI314
aI3433
asS'ori'
p6
S'This house would ban partial birth abortions'
p7
ssS'output'
p8
(dp9
g4
(lp10
I3362
aI3624
aI174
aI3335
aI89
aI2341
aI3357
aI63765
aI42
aI418
aI63
aI260
aI440
aI443
aI21
aI45
aI972
aI3535
aI45
aI1782
aI351
aI3378
aI248
aI138
aI61
aI155
aI3367
aI394
aI316
aI3
aI3816
asg6
S'Justices Stevens also filed a separate opinion . He noted that government had no right to force doctors to perform any procedure other than what they felt would be the safest'
p11
ss.