(dp1
S'input'
p2
(dp3
S'encoded'
p4
(lp5
I64
aI2179
aI394
aI2017
aI3807
aI314
aI3433
asS'ori'
p6
S'This house would ban partial birth abortions'
p7
ssS'output'
p8
(dp9
g4
(lp10
I89
aI3518
aI75
aI4741
aI19
aI3
aI4750
aI7
aI2300
aI4347
aI4348
aI24
aI4751
aI3041
aI63
aI3073
aI19
aI4752
aI7
aI2015
aI2962
aI5
aI2992
aI4753
aI63
aI4710
aI182
aI1722
aI45
aI142
aI805
aI487
aI3
aI3059
aI3276
aI7
aI3271
aI63765
asg6
S'A review by researchers from the University of California  San Francisco in JAMA concluded that data from dozens of medical reports and studies indicate that fetuses are unlikely to feel pain until the third trimester of pregnancy  .'
p11
ss.