(dp1
S'input'
p2
(dp3
S'encoded'
p4
(lp5
I64
aI2179
aI43
aI63
aI3
aI28431
aI7
aI2157
aI4624
aI75
aI39939
aI27257
aI122
aI4850
asS'ori'
p6
S'This house believes that the leaking of military documents by Anat Kamm was justified'
p7
ssS'output'
p8
(dp9
g4
(lp10
I3
aI3744
aI2357
aI14
aI29091
aI646
aI63765
aI626
aI187
aI34
aI3846
aI63765
asg6
S'The courts relied on Gorin v . United States (1941) for precedent .'
p11
ss.