(dp1
S'input'
p2
(dp3
S'encoded'
p4
(lp5
I64
aI2179
aI43
aI63
aI2659
aI417
aI1690
aI3
aI12048
aI7
aI19084
asS'ori'
p6
S'This house believes that Israel should lift the blockade of Gaza'
p7
ssS'output'
p8
(dp9
g4
(lp10
I863
aI440
aI22863
aI11186
aI45
aI3
aI536
aI5
aI311
aI870
aI869
aI382
aI1108
aI19
aI15
aI611
aI5
aI1523
aI63765
asg6
S'Five had gunshot wounds to the head and at least four were shot from both back and front  .'
p11
ss.