(dp1
S'input'
p2
(dp3
S'encoded'
p4
(lp5
I64
aI2179
aI43
aI63
aI3
aI21
aI45
aI12715
aI417
aI99
aI316
aI2897
asS'ori'
p6
S'This house believes that the right to asylum should not be absolute'
p7
ssS'output'
p8
(dp9
g4
(lp10
I89
aI2068
aI2035
aI736
aI23232
aI2610
aI187
aI63
aI23232
aI15575
aI11
aI860
aI6375
aI9696
aI958
aI138
aI89
aI2034
aI63765
asg6
S'A recent study into irregular immigration states that "most irregular migrants have committed administrative offences rather than a serious crime"  .'
p11
ss.