(dp1
S'input'
p2
(dp3
S'encoded'
p4
(lp5
I64
aI2179
aI43
aI63
aI1036
aI4828
aI33250
aI116
aI25073
aI45
aI3315
aI4562
asS'ori'
p6
S'This house believes that male infant circumcision is tantamount to child abuse'
p7
ssS'output'
p8
(dp9
g4
(lp10
I24
aI89
aI13978
aI2483
aI353
aI63
aI89
aI3089
aI24
aI206
aI732
aI6271
aI33242
aI122
aI1968
aI63765
asg6
S"In 2006  a Finnish court found that a parent's actions in having her 4-year-old son circumcised was illegal  ."
p11
ss.