(dp1
S'input'
p2
(dp3
S'encoded'
p4
(lp5
I64
aI2179
aI43
aI63
aI3
aI4991
aI7
aI180
aI417
aI316
aI5396
aI19
aI3
aI169
aI10
asS'ori'
p6
S'This house believes that the Church of England should be separated from the British state'
p7
ssS'output'
p8
(dp9
g4
(lp10
I134
aI3888
aI843
aI45
aI3
aI6080
aI291
aI4991
aI5
aI10
aI73
aI3
aI2178
aI7
aI2144
aI63
aI4796
aI2382
aI5
aI1654
aI89
aI5344
aI998
aI7
aI3269
aI159
aI41
aI63765
asg6
S'It refers either to the separation between Church and State or the community of citizens that reject religion and follow a secular way of life  such as free-thinkers .'
p11
ss.