(dp1
S'input'
p2
(dp3
S'encoded'
p4
(lp5
I64
aI2179
aI43
aI63
aI187
aI417
aI99
aI16642
aI3
aI6449
aI7
aI3935
asS'ori'
p6
S'This house believes that states should not subsidize the growing of tobacco'
p7
ssS'output'
p8
(dp9
g4
(lp10
I17579
aI63765
aI18047
aI2109
aI2031
aI14439
aI10423
aI133
aI2319
aI60
aI217
aI54344
aI63
aI3218
aI6677
aI2326
aI417
aI184
aI6336
aI24
aI6678
aI63765
aI63765
asg6
S'Sen . Ben Nelson (D-NE) supported subsidy caps "I believe  along with most Nebraskans  that our farm program should discourage consolidation in agriculture . .'
p11
ss.