(dp1
S'input'
p2
(dp3
S'encoded'
p4
(lp5
I64
aI2179
aI394
aI16642
aI1376
aI5269
asS'ori'
p6
S'This house would subsidize poor communities'
p7
ssS'output'
p8
(dp9
g4
(lp10
I17
aI2248
aI1298
aI7399
aI7
aI177
aI3065
aI5
aI1445
aI17184
aI7
aI3064
aI24
aI89
aI998
aI63
aI9024
aI134
aI136
aI1360
aI24
aI128
aI45
aI3
aI2902
aI221
aI75
aI223
aI14036
aI7
aI3
aI2178
aI45
aI1444
aI3
aI3064
aI7505
aI5
aI3754
aI24777
aI2116
aI667
asg6
S'social justice requires redistribution of high incomes and large concentrations of wealth in a way that spreads it more widely  in order to "recognise the contribution made by all sections of the community to building the nation\'s wealth ." (Patrick Diamond and Anthony Giddens  27 June 2005  New Statesman)'
p11
ss.