(dp1
S'input'
p2
(dp3
S'encoded'
p4
(lp5
I64
aI2179
aI394
aI2017
aI628
asS'ori'
p6
S'This house would ban gambling'
p7
ssS'output'
p8
(dp9
g4
(lp10
I3
aI2813
aI4445
aI440
aI2623
aI1515
aI3
aI1597
aI63
aI134
aI394
aI99
aI9380
aI351
aI306
aI4705
aI45
aI1906
aI63765
asg6
S'The Bush administration had previously adopted the position that it would not finalize any rule subsequent to November 1  2008 .'
p11
ss.