(dp1
S'input'
p2
(dp3
S'encoded'
p4
(lp5
I64
aI2179
aI394
aI16642
aI1376
aI5269
asS'ori'
p6
S'This house would subsidize poor communities'
p7
ssS'output'
p8
(dp9
g4
(lp10
I41
aI4328
aI75
aI3
aI14435
aI2910
aI6095
aI41
aI7
aI440
aI136
aI112
aI4925
aI138
aI3
aI5090
aI7993
aI327
aI63765
asg6
S'As measured by the Gini index  Greece as of 2008 had more income inequality than the economically healthy Germany  .'
p11
ss.