(dp1
S'input'
p2
(dp3
S'encoded'
p4
(lp5
I64
aI2179
aI394
aI5370
aI7146
aI4585
aI2446
asS'ori'
p6
S'This house would abolish intellectual property rights'
p7
ssS'output'
p8
(dp9
g4
(lp10
I7156
aI11
aI12
aI4626
aI34
aI3976
aI5179
aI24
aI3
aI2206
aI77
aI3976
aI5179
aI11
aI12
aI24213
aI34
aI289
aI89
aI5
aI15001
aI11
aI12
aI24214
aI63765
asg6
S'Patents have been granted for living organisms  (and in the US  certain living organisms have been patentable for over a century) and colors have been trademarked  .'
p11
ss.