(dp1
S'input'
p2
(dp3
S'encoded'
p4
(lp5
I64
aI2179
aI43
aI63
aI3
aI21
aI45
aI12715
aI417
aI99
aI316
aI2897
asS'ori'
p6
S'This house believes that the right to asylum should not be absolute'
p7
ssS'output'
p8
(dp9
g4
(lp10
I14360
aI2450
aI116
aI19295
aI89
aI19143
aI2319
aI3
aI2581
aI45
aI3439
aI1968
aI7013
aI19
aI6064
aI63765
asg6
S'Presently  India is constructing a fence along the border to restrict illegal traffic from Bangladesh  .'
p11
ss.