(dp1
S'input'
p2
(dp3
S'encoded'
p4
(lp5
I64
aI2179
aI394
aI2773
aI12505
asS'ori'
p6
S'This house would embrace multiculturalism'
p7
ssS'output'
p8
(dp9
g4
(lp10
I89
aI1376
aI14684
aI1021
aI45
aI1160
aI7
aI2637
aI1462
aI34
aI1343
aI139
aI11
aI15868
aI6203
aI946
aI24
aI2015
aI3987
aI11676
aI63765
asg6
S'A poor diagnosis due to lack of cultural understanding  for example  can have fatal consequences  especially in medical service delivery .'
p11
ss.