(dp1
S'input'
p2
(dp3
S'encoded'
p4
(lp5
I64
aI2179
aI43
aI63
aI2203
aI60
aI51
aI997
aI2837
aI21716
aI1636
aI5349
aI417
aI2998
aI8532
aI45
aI3051
aI8578
asS'ori'
p6
S'This house believes that countries with an imbalanced male/female ratio skewed towards males should encourage parents to produce girls'
p7
ssS'output'
p8
(dp9
g4
(lp10
I4583
aI6973
aI116
aI1706
aI2322
aI75
aI3
aI93
aI3315
aI2136
aI1381
aI4531
aI117
aI24
aI217
aI3926
aI3162
aI63765
asg6
S"China's gender imbalance is further increased by the One Child Policy  although applicable only in most urban populations ."
p11
ss.