(dp1
S'input'
p2
(dp3
S'encoded'
p4
(lp5
I64
aI2179
aI394
aI16642
aI1376
aI5269
asS'ori'
p6
S'This house would subsidize poor communities'
p7
ssS'output'
p8
(dp9
g4
(lp10
I691
aI320
aI1872
aI3057
aI3567
aI24
aI1191
aI59476
aI11
aI12
aI480
aI24
aI1157
aI10591
aI1137
aI3956
aI59520
aI5
aI14
aI12749
aI7
aI2083
aI5
aI282
aI63765
asg6
S"Since early 2004 numerous critical articles (varying in factuality) about Prodesis have been published in Mexican newspapers (mainly La Jornada)  magazines (Proceso   Contralinea )  and on websites of local and international NGO's ."
p11
ss.