(dp1
S'input'
p2
(dp3
S'encoded'
p4
(lp5
I64
aI2179
aI394
aI2741
aI3
aI1560
aI6025
aI2784
asS'ori'
p6
S'This house would pass the American Jobs Act'
p7
ssS'output'
p8
(dp9
g4
(lp10
I3
aI1188
aI73
aI2155
aI116
aI10313
aI45
aI2503
aI2158
aI256
aI159
aI41
aI5440
aI4279
aI5152
aI1495
aI5
aI29422
aI2667
aI1886
aI4510
aI15106
aI24
aI3249
aI5
aI2503
aI1606
aI7
aI2503
aI196
aI5
aI3863
aI2041
aI256
aI63765
asg6
S'The remaining 45% or $357 billion is allocated to federal spending programs such as transportation  communication  waste water and sewer infrastructure improvements; energy efficiency upgrades in private and federal buildings; extension of federal unemployment benefits; and scientific research programs .'
p11
ss.