(dp1
S'input'
p2
(dp3
S'encoded'
p4
(lp5
I64
aI2179
aI43
aI63
aI3
aI4538
aI7
aI4434
aI7793
aI283
aI45
aI3586
aI417
aI316
aI577
asS'ori'
p6
S'This house believes that the sale of violent video games to minors should be banned'
p7
ssS'output'
p8
(dp9
g4
(lp10
I248
aI7090
aI4753
aI63
aI24
aI5716
aI320
aI6200
aI4502
aI950
aI17581
aI4607
aI5
aI4196
aI251
aI6995
aI395
aI5315
aI14722
aI709
aI63765
asg6
S'Other findings indicate that in boys early problematic motor skills  attentional difficulties  and reading problems predict later persistent antisocial conduct  .'
p11
ss.