(dp1
S'input'
p2
(dp3
S'encoded'
p4
(lp5
I64
aI2179
aI43
aI63
aI3
aI4538
aI7
aI4434
aI7793
aI283
aI45
aI3586
aI417
aI316
aI577
asS'ori'
p6
S'This house believes that the sale of violent video games to minors should be banned'
p7
ssS'output'
p8
(dp9
g4
(lp10
I64
aI116
aI344
aI24
aI3
aI33
aI7
aI5349
aI81
aI1594
aI3
aI29306
aI7
aI3
aI4015
aI4583
aI5
aI3
aI11649
aI7
aI732
aI4583
aI773
aI12902
aI20108
aI6979
aI63765
aI63765
aI1406
aI45
aI21339
aI5
aI27524
aI3904
aI15457
aI7
aI63765
aI63765
aI63765
aI3495
aI63765
aI63765
aI63765
asg6
S"This is seen in the case of males who assume the personas of the female gender  and the character's representation of her gender being overly sexualized and/or passive  ' . . .this tends to perpetuate and accentuate existing stereotypes of . . . women . . .' (Nakamura) ."
p11
ss.