(dp1
S'input'
p2
(dp3
S'encoded'
p4
(lp5
I64
aI2179
aI43
aI223
aI2138
aI11
aI89
aI21
aI45
aI2185
aI372
asS'ori'
p6
S'This house believes all nations have a right to nuclear weapons'
p7
ssS'output'
p8
(dp9
g4
(lp10
I132
aI1074
aI3
aI863
aI2185
aI372
aI187
aI689
aI75
aI3
aI3
aI2306
aI7
aI2390
aI2265
aI2304
aI2133
aI3
aI102
aI5
aI3
aI626
aI187
aI63765
asg6
S"These include the five Nuclear Weapons States (NWS) recognized by the NPT: the People's Republic of China  France  Russian Federation  the UK  and the United States ."
p11
ss.