(dp1
S'input'
p2
(dp3
S'encoded'
p4
(lp5
I64
aI2179
aI394
aI16756
aI20435
asS'ori'
p6
S'This house would criminalize blasphemy'
p7
ssS'output'
p8
(dp9
g4
(lp10
I680
aI5505
aI3
aI10591
aI244
aI99
aI45
aI32978
aI3
aI14852
aI5
aI667
aI6113
aI5761
aI3136
aI226
aI13773
aI3
aI14852
aI11
aI2200
aI5761
aI2203
aI99
aI45
aI11952
aI667
aI6113
aI7500
aI63765
asg6
S'Shortly thereafter the newspapers agreed not to republish the cartoons  and New Zealand Muslim groups  while condemning the cartoons  have asked Muslim countries not to boycott New Zealand goods .'
p11
ss.