(dp1
S'input'
p2
(dp3
S'encoded'
p4
(lp5
I64
aI2179
aI394
aI4325
aI2042
aI270
aI89
aI11605
aI3324
asS'ori'
p6
S'This house would fund education using a voucher scheme'
p7
ssS'output'
p8
(dp9
g4
(lp10
I100
aI3708
aI63
aI2048
aI116
aI29244
aI132
aI2170
aI116
aI75
aI1609
aI8784
aI1928
aI3315
aI139
aI867
aI45
aI17642
aI41210
aI63765
asg6
S'Some ways that Sweden is accomplishing these goals is by making sure every child can go to daycare affordably .'
p11
ss.