(dp1
S'input'
p2
(dp3
S'encoded'
p4
(lp5
I64
aI2179
aI235
aI3
aI2136
aI7
aI3
aI2306
aI7
aI2390
asS'ori'
p6
S'This house supports the one-child policy of the republic of China'
p7
ssS'output'
p8
(dp9
g4
(lp10
I24
aI89
aI2935
aI8580
aI27710
aI5047
aI182
aI51
aI2845
aI2639
aI24646
aI78
aI5
aI136
aI138
aI89
aI2155
aI513
aI25313
aI3048
asg6
S'In a 2006 news story  MSNBC reported  "There are an estimated 800 million undernourished people and more than a billion considered overweight worldwide ."'
p11
ss.