(dp1
S'input'
p2
(dp3
S'encoded'
p4
(lp5
I64
aI2179
aI394
aI2017
aI262
asS'ori'
p6
S'This house would ban boxing'
p7
ssS'output'
p8
(dp9
g4
(lp10
I273
aI55
aI12
aI93
aI4902
aI2987
aI63
aI55
aI8117
aI45
aI316
aI324
aI1112
aI63765
asg6
S'There has been one treatment intervention that has shown to be particularly effective .'
p11
ss.