(dp1
S'input'
p2
(dp3
S'encoded'
p4
(lp5
I64
aI2179
aI43
aI63
aI3
aI21
aI45
aI12715
aI417
aI99
aI316
aI2897
asS'ori'
p6
S'This house believes that the right to asylum should not be absolute'
p7
ssS'output'
p8
(dp9
g4
(lp10
I4169
aI70
aI4542
aI3739
aI19
aI12413
aI73
aI1370
aI45
aI2677
aI9107
aI910
aI73
aI23232
aI1223
aI7
aI89
aI21539
aI24
aI2265
asg6
S'French law prohibits anyone from assisting or trying to assist "the entry  movement  or irregular stay of a foreigner in France ."'
p11
ss.