(dp1
S'input'
p2
(dp3
S'encoded'
p4
(lp5
I64
aI2179
aI43
aI63
aI3
aI4990
aI4991
aI116
aI4850
aI24
aI12166
aI3
aI475
aI7
aI3532
aI3290
aI7
aI4714
asS'ori'
p6
S'This house believes that the Catholic Church is justified in forbidding the use of barrier methods of contraception'
p7
ssS'output'
p8
(dp9
g4
(lp10
I217
aI3290
aI7
aI4714
aI3375
aI34
aI77
aI274
aI7
aI5
aI3
aI3532
aI3290
aI182
aI99
aI1112
aI311
aI5377
aI3
aI4155
aI7
aI39860
aI63765
asg6
S'Most methods of contraception  except for certain forms of "outercourse" and the barrier methods  are not effective at preventing the spread of STIs .'
p11
ss.