(dp1
S'input'
p2
(dp3
S'encoded'
p4
(lp5
I64
aI2179
aI43
aI63
aI3376
aI4938
aI417
aI316
aI3537
asS'ori'
p6
S'This house believes that endangered species should be protected'
p7
ssS'output'
p8
(dp9
g4
(lp10
I132
aI2506
aI7747
aI89
aI325
aI8078
aI7
aI2598
aI126
aI7797
aI5
aI7826
aI3205
aI158
aI2637
aI2755
aI5
aI7857
aI7963
aI7964
aI63765
asg6
S'These areas contribute a great abundance of population (not species) level biodiversity and ecosystem services  including cultural value and planetary nutrient cycling  .'
p11
ss.