(dp1
S'input'
p2
(dp3
S'encoded'
p4
(lp5
I64
aI2179
aI394
aI163
aI959
aI2042
aI3557
asS'ori'
p6
S'This house would make physical education compulsory'
p7
ssS'output'
p8
(dp9
g4
(lp10
I8939
aI3
aI3059
aI13495
aI24
aI2116
aI574
aI3569
aI116
aI3425
aI311
aI79
aI1379
aI63765
asg6
S'Celebrated the third Thursday in June each year is Recess At Work Day .'
p11
ss.