(dp1
S'input'
p2
(dp3
S'encoded'
p4
(lp5
I64
aI2179
aI43
aI17
aI4941
aI857
aI3211
asS'ori'
p6
S'This house believes social deprivation causes crime'
p7
ssS'output'
p8
(dp9
g4
(lp10
I45
aI687
aI89
aI3057
aI1462
aI7
aI40
aI3
aI6460
aI5
aI8875
aI17
aI3216
aI227
aI544
aI45
aI3211
aI5
aI48747
aI3020
aI63765
asg6
S'to establish a critical understanding of how the immediate and structural social environment gives rise to crime and criminogenic conditions .'
p11
ss.