(dp1
S'input'
p2
(dp3
S'encoded'
p4
(lp5
I64
aI2179
aI43
aI63
aI2157
aI2565
aI493
aI19084
aI382
aI4850
asS'ori'
p6
S"This house believes that Israel's 2008-2009 military operations against Gaza were justified"
p7
ssS'output'
p8
(dp9
g4
(lp10
I42
aI4513
aI34
aI6460
aI12169
aI45
aI223
aI2617
aI3130
aI62
aI34
aI2893
aI7442
aI45
aI316
aI547
aI736
aI19084
aI45
aI2194
aI3
aI35833
aI2224
aI2598
aI63765
asg6
S'He appealed for "an immediate halt to all violence [and reiterated] previous calls for humanitarian supplies to be allowed into Gaza to aid the distressed civilian population .'
p11
ss.