(dp1
S'input'
p2
(dp3
S'encoded'
p4
(lp5
I64
aI2179
aI43
aI63
aI3
aI21
aI45
aI12715
aI417
aI99
aI316
aI2897
asS'ori'
p6
S'This house believes that the right to asylum should not be absolute'
p7
ssS'output'
p8
(dp9
g4
(lp10
I2083
aI12997
aI114
aI693
aI4947
aI116
aI51
aI20113
aI2028
aI34
aI217
aI12715
aI22768
aI41
aI3
aI2304
aI260
aI98
aI99
aI2728
aI3
aI2800
aI4363
aI7477
aI63765
asg6
S'Local integration  though typically desirable  is an unrealistic goal for most asylum seekers as the Russian government does not recognize the UN mandated refugees .'
p11
ss.