(dp1
S'input'
p2
(dp3
S'encoded'
p4
(lp5
I64
aI2179
aI394
aI190
aI3
aI21
aI45
aI3895
aI834
asS'ori'
p6
S'This house would limit the right to bear arms'
p7
ssS'output'
p8
(dp9
g4
(lp10
I41
aI60
aI4417
aI2682
aI1928
aI8902
aI4278
aI311
aI3
aI3485
aI7
aI73
aI289
aI139
aI7771
aI5
aI284
aI64
aI1380
aI7
aI1942
aI252
aI1706
aI4294
aI73
aI14195
aI691
aI443
aI4304
aI4305
aI182
aI3589
aI174
aI2144
aI139
aI7771
aI86
aI252
aI251
aI63765
asg6
S'As with category C  every Austrian citizen at the age of 18 or over can buy and own this type of weapon without further registration or permission  since no background checks are performed also EU/EEA citizens can buy them without problems .'
p11
ss.