(dp1
S'input'
p2
(dp3
S'encoded'
p4
(lp5
I64
aI2179
aI394
aI2017
aI223
aI9058
aI23653
asS'ori'
p6
S'This house would ban all unsustainable logging'
p7
ssS'output'
p8
(dp9
g4
(lp10
I8254
aI1379
aI2586
aI41
aI89
aI18241
aI3869
aI24
aI8611
aI180
aI24
aI2805
aI291
aI267
aI6834
aI81
aI3367
aI3
aI285
aI122
aI47751
aI3
aI596
aI7
aI7910
aI24
aI14848
aI6695
aI6694
aI5
aI3026
aI89
aI38992
aI1068
aI34
aI3
aI7854
aI18848
aI2041
aI5
aI3659
aI45
aI12858
aI2148
aI2136
aI9126
aI5
aI32416
aI9319
aI63765
asg6
S'Forest Day began as a casual conversation in Oxford  England  in February 2007  between two scientists who felt the world was underestimating the importance of forests in mitigating carbon emissions and saw a glaring need for the latest forestry research and thinking to inform global policy makers and UNFCCC negotiators .'
p11
ss.