(dp1
S'input'
p2
(dp3
S'encoded'
p4
(lp5
I64
aI2179
aI394
aI4325
aI2042
aI270
aI89
aI11605
aI3324
asS'ori'
p6
S'This house would fund education using a voucher scheme'
p7
ssS'output'
p8
(dp9
g4
(lp10
I24724
aI2722
aI394
aI316
aI2900
aI979
aI138
aI61
aI2164
aI1206
aI2839
aI63765
aI2813
aI2032
aI24
aI25
aI4262
aI1024
aI63765
asg6
S'Dividend rates would be 39 percent lower than what President George W . Bush proposed in his 2001 tax cut  .'
p11
ss.