(dp1
S'input'
p2
(dp3
S'encoded'
p4
(lp5
I64
aI2179
aI394
aI2773
aI12505
asS'ori'
p6
S'This house would embrace multiculturalism'
p7
ssS'output'
p8
(dp9
g4
(lp10
I3
aI1200
aI767
aI8313
aI24
aI1005
aI404
aI34
aI149
aI138
aI7
aI3
aI2598
aI63765
asg6
S'The top ten religions in Australia account for less than 63% of the population  .'
p11
ss.