(dp1
S'input'
p2
(dp3
S'encoded'
p4
(lp5
I64
aI2179
aI43
aI63
aI1036
aI4828
aI33250
aI116
aI25073
aI45
aI3315
aI4562
asS'ori'
p6
S'This house believes that male infant circumcision is tantamount to child abuse'
p7
ssS'output'
p8
(dp9
g4
(lp10
I34790
aI3172
aI63
aI24
aI66
aI6095
aI3
aI33218
aI122
aI8030
aI5
aI63
aI6085
aI5
aI369
aI44
aI45
aI5370
aI15351
aI33250
aI382
aI3288
aI75
aI2893
aI5046
aI63765
asg6
S'Hodges argues that in Ancient Greece the foreskin was valued and that Greek and Roman attempts to abolish ritual circumcision were prompted by humanitarian concerns  .'
p11
ss.