(dp1
S'input'
p2
(dp3
S'encoded'
p4
(lp5
I64
aI2179
aI43
aI63
aI134
aI116
aI400
aI21
aI34
aI3
aI260
aI45
aI3439
aI57
aI7
aI2381
asS'ori'
p6
S'This house believes that it is sometimes right for the government to restrict freedom of speech'
p7
ssS'output'
p8
(dp9
g4
(lp10
I4526
aI45
aI57
aI7
aI2381
aI88
aI2723
aI620
aI976
aI14286
aI73
aI17
aI50446
aI73
aI15
aI63765
asg6
S'Limitations to freedom of speech may occur through legal sanction or social disapprobation  or both  .'
p11
ss.