(dp1
S'input'
p2
(dp3
S'encoded'
p4
(lp5
I64
aI2179
aI43
aI17
aI4941
aI857
aI3211
asS'ori'
p6
S'This house believes social deprivation causes crime'
p7
ssS'output'
p8
(dp9
g4
(lp10
I42
aI6534
aI3
aI4810
aI24
aI3
aI752
aI755
aI45
aI268
aI24
aI3211
aI5
aI1966
aI63
aI89
aI2007
aI122
aI149
aI1856
aI45
aI4574
aI3211
aI257
aI155
aI440
aI2369
aI17
aI8947
aI63765
asg6
S'He stressed the rationality in the decision whether to engage in crime and argued that a person was less likely to choose crime if they had strong social bonds .'
p11
ss.