(dp1
S'input'
p2
(dp3
S'encoded'
p4
(lp5
I64
aI2179
aI43
aI63
aI3
aI4538
aI7
aI4434
aI7793
aI283
aI45
aI3586
aI417
aI316
aI577
asS'ori'
p6
S'This house believes that the sale of violent video games to minors should be banned'
p7
ssS'output'
p8
(dp9
g4
(lp10
I29337
aI5
aI182
aI174
aI2100
aI24
aI437
aI17
aI4764
aI6348
aI63765
asg6
S'Desensitization and arousal/excitation are also included in latter social cognitive theories .'
p11
ss.