(dp1
S'input'
p2
(dp3
S'encoded'
p4
(lp5
I64
aI2179
aI43
aI8629
aI116
aI3
aI117
aI998
asS'ori'
p6
S'This house believes atheism is the only way'
p7
ssS'output'
p8
(dp9
g4
(lp10
I42
aI174
aI1040
aI3
aI511
aI45
aI2209
aI325
aI326
aI45
aI828
aI2219
aI1295
aI3218
aI2387
aI8473
aI828
aI8473
aI828
aI3495
asg6
S'He also takes the opportunity to advise Great Britain to "take your forces off our lands; correct yourselves; fix your society; fix your women ."'
p11
ss.