(dp1
S'input'
p2
(dp3
S'encoded'
p4
(lp5
I64
aI2179
aI43
aI63
aI3
aI4990
aI4991
aI116
aI4850
aI24
aI12166
aI3
aI475
aI7
aI3532
aI3290
aI7
aI4714
asS'ori'
p6
S'This house believes that the Catholic Church is justified in forbidding the use of barrier methods of contraception'
p7
ssS'output'
p8
(dp9
g4
(lp10
I3
aI12562
aI27012
aI116
aI7215
aI27013
aI26649
aI7
aI564
aI3954
aI3
aI6359
aI3954
aI116
aI75
aI443
aI258
aI1640
aI134
aI4228
aI3
aI3730
aI11098
aI7
aI2445
aI3524
aI63765
asg6
S'The Pontiff\'s favorite composer is Wolfgang Amadeus Mozart  of whose music the Pope said: "His music is by no means just entertainment; it contains the whole tragedy of human existence .'
p11
ss.