(dp1
S'input'
p2
(dp3
S'encoded'
p4
(lp5
I64
aI2179
aI394
aI117
aI7428
aI21151
aI34
aI11389
aI2042
aI24
aI4364
asS'ori'
p6
S'This house would only teach abstinence for sex education in schools'
p7
ssS'output'
p8
(dp9
g4
(lp10
I3333
aI43222
aI7
aI14956
aI6833
aI864
aI63
aI273
aI122
aI443
aI8881
aI7
aI51
aI24
aI17089
aI3271
aI2722
aI298
aI11389
aI2042
aI3592
aI122
aI2322
aI397
aI3
aI2172
aI2439
aI131
aI24
aI68
aI89
aI1488
aI2838
aI63765
asg6
S'Sarah Kliff of Newsweek pointed out that there was no corresponding "indication of an uptick" in teen pregnancy rates when abstinence-only sex education funding was increased during the Clinton years  but in fact a small decline  .'
p11
ss.