(dp1
S'input'
p2
(dp3
S'encoded'
p4
(lp5
I64
aI2179
aI43
aI63
aI3
aI21
aI45
aI12715
aI417
aI99
aI316
aI2897
asS'ori'
p6
S'This house believes that the right to asylum should not be absolute'
p7
ssS'output'
p8
(dp9
g4
(lp10
I2992
aI19
aI3
aI3719
aI15800
aI1863
aI11
aI8117
aI63
aI3
aI2042
aI5
aI152
aI2363
aI7
aI1968
aI1157
aI5307
aI24
aI3
aI2206
aI182
aI589
aI3
aI12646
aI34
aI2299
aI5
aI63
aI206
aI3874
aI81
aI11
aI18448
aI73
aI773
aI19
aI89
aI2178
aI60
aI725
aI28925
aI116
aI89
aI165
aI1796
aI25298
aI7
aI4662
aI45
aI7481
aI63765
asg6
S"Studies from the Pew Hispanic Center have shown that the education and wage levels of illegal Mexican immigrants in the US are around the median for Mexico  and that having family who have emigrated or being from a community with many emigrants is a much better predictor of one's choice to emigrate  ."
p11
ss.