(dp1
S'input'
p2
(dp3
S'encoded'
p4
(lp5
I64
aI2179
aI394
aI2017
aI3807
aI314
aI3433
asS'ori'
p6
S'This house would ban partial birth abortions'
p7
ssS'output'
p8
(dp9
g4
(lp10
I3306
aI3698
aI7
aI3
aI3254
aI3357
aI2173
aI24
aI25
aI3412
aI63
aI965
aI3755
aI5
aI3404
aI382
aI5
aI63
aI155
aI3767
aI45
aI316
aI2162
aI60
aI5
aI3768
aI5
aI63
aI271
aI3074
aI3357
aI3769
aI34
aI3
aI70
aI63765
asg6
S'Blackmun  author of the Roe opinion  stated in his dissent that White  Kennedy and Rehnquist were "callous" and "deceptive " that they deserved to be charged with "cowardice and illegitimacy " and that their plurality opinion "foments disregard for the law .'
p11
ss.