(dp1
S'input'
p2
(dp3
S'encoded'
p4
(lp5
I64
aI2179
aI43
aI17
aI4941
aI857
aI3211
asS'ori'
p6
S'This house believes social deprivation causes crime'
p7
ssS'output'
p8
(dp9
g4
(lp10
I34
aI5224
aI14
aI17076
aI13537
aI24
aI448
aI10529
aI1792
aI3
aI17076
aI13537
aI4761
aI63765
asg6
S'For information on juvenile delinquency in general  please see the juvenile delinquency page .'
p11
ss.