(dp1
S'input'
p2
(dp3
S'encoded'
p4
(lp5
I64
aI2179
aI394
aI16642
aI1376
aI5269
asS'ori'
p6
S'This house would subsidize poor communities'
p7
ssS'output'
p8
(dp9
g4
(lp10
I195
aI79
aI24
aI3
aI1643
aI998
aI41
aI4423
aI34
aI351
aI248
aI1228
aI63765
asg6
S'Wages work in the same way as prices for any other good .'
p11
ss.