(dp1
S'input'
p2
(dp3
S'encoded'
p4
(lp5
I64
aI2179
aI394
aI163
aI959
aI2042
aI3557
asS'ori'
p6
S'This house would make physical education compulsory'
p7
ssS'output'
p8
(dp9
g4
(lp10
I100
aI2992
aI11
aI8117
aI63
aI9992
aI5982
aI1955
aI75
aI7993
aI147
aI139
aI3226
aI33959
aI33960
aI63765
asg6
S'Some studies have shown that vigorous exercise executed by healthy individuals can increase opioid peptides (a .k .a .'
p11
ss.