(dp1
S'input'
p2
(dp3
S'encoded'
p4
(lp5
I64
aI2179
aI394
aI163
aI959
aI2042
aI3557
asS'ori'
p6
S'This house would make physical education compulsory'
p7
ssS'output'
p8
(dp9
g4
(lp10
I311
aI93
aI413
aI4347
aI3862
aI382
aI23272
aI24
aI3
aI1410
aI2240
aI1444
aI5
aI3
aI4347
aI1444
aI416
aI41
aI3
aI7039
aI63765
asg6
S'At one time  San children were housed in the main school building  and the San building used as the library .'
p11
ss.