(dp1
S'input'
p2
(dp3
S'encoded'
p4
(lp5
I64
aI2179
aI43
aI63
aI3
aI4990
aI4991
aI116
aI4850
aI24
aI12166
aI3
aI475
aI7
aI3532
aI3290
aI7
aI4714
asS'ori'
p6
S'This house believes that the Catholic Church is justified in forbidding the use of barrier methods of contraception'
p7
ssS'output'
p8
(dp9
g4
(lp10
I42
aI122
aI2227
aI21263
aI7
aI3
aI8383
aI34
aI3
aI2860
aI7
aI3
aI2247
aI75
aI6359
aI495
aI3007
aI2236
aI24
aI5
aI122
aI174
aI699
aI3
aI26639
aI5489
aI7
aI3
aI10758
aI4213
aI7
aI14
aI2959
aI63765
asg6
S'He was appointed Prefect of the Congregation for the Doctrine of the Faith by Pope John Paul II in 1981 and was also assigned the honorific title of the cardinal bishop of Velletri-Segni on 5 April 1993 .'
p11
ss.