(dp1
S'input'
p2
(dp3
S'encoded'
p4
(lp5
I64
aI2179
aI43
aI63
aI7382
aI116
aI400
aI4713
asS'ori'
p6
S'This house believes that bribery is sometimes acceptable'
p7
ssS'output'
p8
(dp9
g4
(lp10
I17
aI3020
aI816
aI26223
aI5
aI10722
aI63765
asg6
S'Social conditions Self-interested closed cliques and "Good ol\' boy networks" .'
p11
ss.