(dp1
S'input'
p2
(dp3
S'encoded'
p4
(lp5
I64
aI2179
aI394
aI1499
aI3
aI8115
aI34564
aI17106
asS'ori'
p6
S'This house would build the Keystone XL pipeline'
p7
ssS'output'
p8
(dp9
g4
(lp10
I24
aI23658
aI55386
aI5
aI55387
aI182
aI267
aI528
aI2579
aI15177
aI11853
aI60
aI89
aI9013
aI261
aI1719
aI6713
aI1488
aI1183
aI7
aI2579
aI24
aI55386
aI63765
asg6
S'In Madagascar  Tsimiroro and Bemolanga are two heavy oil sands deposits with a pilot well already producing small amounts of oil in Tsimiroro  .'
p11
ss.