(dp1
S'input'
p2
(dp3
S'encoded'
p4
(lp5
I64
aI2179
aI43
aI223
aI2138
aI11
aI89
aI21
aI45
aI2185
aI372
asS'ori'
p6
S'This house believes all nations have a right to nuclear weapons'
p7
ssS'output'
p8
(dp9
g4
(lp10
I2450
aI55
aI51
aI2705
aI3202
aI5
aI2157
aI2185
aI2326
aI92
aI1501
aI311
aI870
aI2185
aI5181
aI11695
aI6719
aI5
aI36656
aI6763
aI528
aI1495
aI2410
aI4678
aI89
aI11695
aI16855
aI1344
aI5092
aI33580
aI4678
aI5
aI2705
aI2185
aI2041
aI7832
aI63765
asg6
S'India has an extensive civil and military nuclear program  which includes at least 10 nuclear reactors  uranium mining and milling sites  heavy water production facilities  a uranium enrichment plant  fuel fabrication facilities  and extensive nuclear research capabilities .'
p11
ss.