(dp1
S'input'
p2
(dp3
S'encoded'
p4
(lp5
I64
aI2179
aI43
aI63
aI3
aI28431
aI7
aI2157
aI4624
aI75
aI39939
aI27257
aI122
aI4850
asS'ori'
p6
S'This house believes that the leaking of military documents by Anat Kamm was justified'
p7
ssS'output'
p8
(dp9
g4
(lp10
I25
aI3330
aI12447
aI252
aI1350
aI63
aI3
aI3687
aI122
aI16942
aI3683
aI63
aI3
aI11869
aI2784
aI98
aI99
aI1616
aI3
aI4948
aI7
aI89
aI2135
aI4278
aI1642
aI3
aI626
aI187
aI63765
asg6
S'His attorneys contended without success that the indictment was invalid  arguing that the Espionage Act does not cover the activities of a foreign citizen outside the United States  .'
p11
ss.