(dp1
S'input'
p2
(dp3
S'encoded'
p4
(lp5
I64
aI2179
aI394
aI190
aI3
aI21
aI45
aI3895
aI834
asS'ori'
p6
S'This house would limit the right to bear arms'
p7
ssS'output'
p8
(dp9
g4
(lp10
I4283
aI3550
aI89
aI11276
aI620
aI89
aI10468
aI275
aI4274
aI666
aI63765
asg6
S'NRA organized a team through a subsidiary Amateur Rifle Club .'
p11
ss.