(dp1
S'input'
p2
(dp3
S'encoded'
p4
(lp5
I64
aI2179
aI394
aI2998
aI3
aI4360
aI7
aI3249
aI6804
aI24
aI3
aI102
asS'ori'
p6
S'This house would encourage the creation of private universities in the UK'
p7
ssS'output'
p8
(dp9
g4
(lp10
I658
aI6804
aI153
aI11
aI165
aI979
aI10245
aI138
aI3249
aI6804
aI604
aI10400
aI182
aI2396
aI75
aI10
aI220
aI63765
asg6
S'Public universities often have much lower tuition than private universities because subsidies are provided by state governments .'
p11
ss.