(dp1
S'input'
p2
(dp3
S'encoded'
p4
(lp5
I64
aI2179
aI43
aI63
aI1036
aI4828
aI33250
aI116
aI25073
aI45
aI3315
aI4562
asS'ori'
p6
S'This house believes that male infant circumcision is tantamount to child abuse'
p7
ssS'output'
p8
(dp9
g4
(lp10
I5047
aI63
aI3
aI7443
aI7
aI33250
aI887
aI5349
aI122
aI2151
aI5
aI34
aI120
aI4651
aI24
aI5
aI3839
aI63765
asg6
S'reported that the prevalence of circumcision among US-born males was approximately 70%  80%  85%  and 77% for those born in 1945  1955  1965  and 1971 respectively  .'
p11
ss.