(dp1
S'input'
p2
(dp3
S'encoded'
p4
(lp5
I64
aI2179
aI43
aI223
aI2138
aI11
aI89
aI21
aI45
aI2185
aI372
asS'ori'
p6
S'This house believes all nations have a right to nuclear weapons'
p7
ssS'output'
p8
(dp9
g4
(lp10
I3
aI2097
aI6048
aI658
aI3357
aI3713
aI4370
aI7
aI3
aI30027
aI30297
aI14083
aI34
aI2250
aI5
aI2891
aI311
aI3
aI4750
aI7
aI3887
aI4758
aI8267
aI3714
aI24
aI2657
aI2658
aI6101
aI2662
aI2655
aI2656
aI5
aI3
aI24014
aI24
aI2927
aI418
aI3
aI1592
aI41
aI89
aI1277
aI179
aI63765
asg6
S'The 2008 Annual Arab Public Opinion Poll  Survey of the Anwar Sadat Chair for Peace and Development at the University of Maryland  College Park conducted in Egypt  Jordan  Lebanon  Morocco  Saudi Arabia and the UAE in March 2008 noted the following as a key finding  .'
p11
ss.