(dp1
S'input'
p2
(dp3
S'encoded'
p4
(lp5
I64
aI2179
aI43
aI63
aI3
aI4990
aI4991
aI116
aI4850
aI24
aI12166
aI3
aI475
aI7
aI3532
aI3290
aI7
aI4714
asS'ori'
p6
S'This house believes that the Catholic Church is justified in forbidding the use of barrier methods of contraception'
p7
ssS'output'
p8
(dp9
g4
(lp10
I100
aI5462
aI8958
aI63
aI120
aI270
aI21151
aI41
aI89
aI1334
aI1869
aI11
aI23785
aI119
aI41
aI7332
aI73
aI5148
aI13788
aI63765
asg6
S'Some authorities recommend that those using abstinence as a primary method have backup method(s) available (such as condoms or emergency contraceptive pills)  .'
p11
ss.