(dp1
S'input'
p2
(dp3
S'encoded'
p4
(lp5
I64
aI2179
aI394
aI2741
aI3
aI1560
aI6025
aI2784
asS'ori'
p6
S'This house would pass the American Jobs Act'
p7
ssS'output'
p8
(dp9
g4
(lp10
I42
aI2238
aI134
aI41
aI249
aI3075
aI45
aI1192
aI2625
aI611
aI45
aI79
aI5
aI42
aI980
aI2820
aI2221
aI45
aI2741
aI3
aI2029
aI42
aI174
aI742
aI63
aI3
aI2029
aI394
aI99
aI4549
aI45
aI3
aI150
aI8872
aI5
aI394
aI316
aI1518
aI3481
aI34
aI63765
asg6
S'He characterized it as non-controversial measures designed to get Americans back to work  and he repeatedly urged Congress to pass the bill "right away"; he also said that the bill would not add to the national deficit and would be fully paid for  .'
p11
ss.