(dp1
S'input'
p2
(dp3
S'encoded'
p4
(lp5
I64
aI2179
aI43
aI17
aI4941
aI857
aI3211
asS'ori'
p6
S'This house believes social deprivation causes crime'
p7
ssS'output'
p8
(dp9
g4
(lp10
I15496
aI2204
aI12605
aI63765
aI17028
aI5810
aI12527
aI3979
aI14
aI14444
aI4462
aI7
aI1350
aI5
aI3
aI5256
aI7
aI147
aI45
aI671
aI1350
aI620
aI8051
aI1038
aI31228
aI63765
aI5032
aI1577
aI7668
aI298
aI8974
aI7
aI773
aI1031
aI45
aI9639
aI2170
aI12402
aI75
aI3266
aI258
aI1019
aI316
aI17973
asg6
S'Sociologist Robert K . Merton believed deviance depended on societys definition of success  and the desires of individuals to achieve success through socially defined avenues . Criminality becomes attractive when expectations of being able to fulfil goals (therefore achieving success) by legitimate means cannot be fulfilled '
p11
ss.