(dp1
S'input'
p2
(dp3
S'encoded'
p4
(lp5
I64
aI2179
aI43
aI8629
aI116
aI3
aI117
aI998
asS'ori'
p6
S'This house believes atheism is the only way'
p7
ssS'output'
p8
(dp9
g4
(lp10
I89
aI4370
aI353
aI63
aI120
aI8934
aI777
aI41
aI9776
aI73
aI10002
aI182
aI14
aI582
aI136
aI18787
aI1191
aI2382
aI138
aI8315
aI7
aI281
aI9648
aI63765
asg6
S'A 2010 survey found that those identifying themselves as atheists or agnostics are on average more knowledgeable about religion than followers of major faiths .'
p11
ss.