(dp1
S'input'
p2
(dp3
S'encoded'
p4
(lp5
I64
aI2179
aI394
aI2017
aI628
asS'ori'
p6
S'This house would ban gambling'
p7
ssS'output'
p8
(dp9
g4
(lp10
I260
aI706
aI7618
aI2056
aI9036
aI271
aI283
aI5119
aI63765
asg6
S'Government controlled lotteries now offer their games online .'
p11
ss.