(dp1
S'input'
p2
(dp3
S'encoded'
p4
(lp5
I64
aI2179
aI43
aI3
aI626
aI187
aI116
aI1989
aI34
aI3102
aI2223
asS'ori'
p6
S"This house believes the United States is responsible for Mexico's drugs war"
p7
ssS'output'
p8
(dp9
g4
(lp10
I42
aI440
aI12
aI311
aI4301
aI60
aI4336
aI6801
aI691
aI42
aI3335
aI89
aI13115
aI289
aI633
aI24
aI51
aI15947
aI33
aI24
aI63765
asg6
S'He had been at odds with ATF management since he filed a complaint over tactics in an unrelated case in 2005 .'
p11
ss.