(dp1
S'input'
p2
(dp3
S'encoded'
p4
(lp5
I64
aI2179
aI394
aI1499
aI177
aI1819
aI34
aI160
asS'ori'
p6
S'This house would build high rises for housing'
p7
ssS'output'
p8
(dp9
g4
(lp10
I273
aI55
aI174
aI12
aI89
aI5408
aI3226
aI24
aI3
aI532
aI7
aI10185
aI11279
aI6766
aI24
aI2506
aI159
aI41
aI38104
aI24
aI10194
aI63765
asg6
S'There has also been a sharp increase in the amount of student apartment buildings in areas such as Carlton in Melbourne .'
p11
ss.