(dp1
S'input'
p2
(dp3
S'encoded'
p4
(lp5
I64
aI2179
aI43
aI63
aI187
aI417
aI99
aI16642
aI3
aI6449
aI7
aI3935
asS'ori'
p6
S'This house believes that states should not subsidize the growing of tobacco'
p7
ssS'output'
p8
(dp9
g4
(lp10
I3385
aI5
aI25433
aI3935
aI3226
aI3
aI2038
aI34
aI25277
aI89
aI5696
aI45
aI3385
aI5057
aI63765
asg6
S'" Oral and spit tobacco increase the risk for leukoplakia a precursor to oral cancer  .'
p11
ss.