(dp1
S'input'
p2
(dp3
S'encoded'
p4
(lp5
I64
aI2179
aI394
aI5370
aI3
aI5286
asS'ori'
p6
S'This house would abolish the monarchy'
p7
ssS'output'
p8
(dp9
g4
(lp10
I1082
aI3501
aI5672
aI7
aI2293
aI19
aI45
aI5841
aI45
aI9265
aI25
aI370
aI19
aI16442
aI620
aI3157
aI159
aI41
aI19848
aI3
aI4991
aI5
aI211
aI16984
aI3932
aI3707
aI5
aI4750
aI2041
aI7165
aI2258
aI5
aI2228
aI8726
aI6678
aI5
aI2284
aI2285
aI63765
asg6
S'" Charles III  king of Spain from 1759 to 1788  tried to rescue his empire from decay through far-reaching reforms such as weakening the Church and its monasteries  promoting science and university research  facilitating trade and commerce  modernizing agriculture and avoiding wars .'
p11
ss.