(dp1
S'input'
p2
(dp3
S'encoded'
p4
(lp5
I64
aI2179
aI43
aI8629
aI116
aI3
aI117
aI998
asS'ori'
p6
S'This house believes atheism is the only way'
p7
ssS'output'
p8
(dp9
g4
(lp10
I1442
aI379
aI12962
aI7
aI3
aI11553
aI17
aI5
aI22
aI6398
aI545
aI132
aI385
aI92
aI42
aI1044
aI45
aI2382
aI63765
asg6
S'"He gave detailed descriptions of the tense social and political situations within these cities  which he attributes to religion .'
p11
ss.