(dp1
S'input'
p2
(dp3
S'encoded'
p4
(lp5
I64
aI2179
aI394
aI16756
aI20435
asS'ori'
p6
S'This house would criminalize blasphemy'
p7
ssS'output'
p8
(dp9
g4
(lp10
I3
aI9495
aI845
aI9730
aI378
aI116
aI99
aI5761
aI29698
aI131
aI2763
aI36000
aI63765
asg6
S'The deeper issue here  however  is not Muslim hypocrisy but Islamic supremacism .'
p11
ss.