(dp1
S'input'
p2
(dp3
S'encoded'
p4
(lp5
I64
aI2179
aI394
aI2773
aI12505
asS'ori'
p6
S'This house would embrace multiculturalism'
p7
ssS'output'
p8
(dp9
g4
(lp10
I13385
aI56814
aI809
aI188
aI433
aI7
aI3
aI2206
aI10
aI7
aI7713
aI3470
aI24
aI25
aI12521
aI11
aI89
aI7074
aI45
aI11955
aI63765
asg6
S'Dick Lamm  former three-term Democratic governor of the US state of Colorado  wrote in his essay "I have a plan to destroy America":  .'
p11
ss.