(dp1
S'input'
p2
(dp3
S'encoded'
p4
(lp5
I64
aI2179
aI394
aI2017
aI3807
aI314
aI3433
asS'ori'
p6
S'This house would ban partial birth abortions'
p7
ssS'output'
p8
(dp9
g4
(lp10
I3806
aI2039
aI81
aI3589
aI3
aI3378
aI4980
aI45
aI3
aI70
aI382
aI2195
aI45
aI206
aI271
aI2015
aI16282
aI11638
aI63765
asg6
S'Nebraska physicians who performed the procedure contrary to the law were subject to having their medical licenses revoked .'
p11
ss.