(dp1
S'input'
p2
(dp3
S'encoded'
p4
(lp5
I64
aI2179
aI43
aI8629
aI116
aI3
aI117
aI998
asS'ori'
p6
S'This house believes atheism is the only way'
p7
ssS'output'
p8
(dp9
g4
(lp10
I5390
aI45
aI3
aI3661
aI7
aI3148
aI11
aI400
aI12
aI4846
aI41
aI1627
aI73
aI21893
aI63765
asg6
S'Responses to the problem of evil have sometimes been classified as defenses or theodicies .'
p11
ss.