(dp1
S'input'
p2
(dp3
S'encoded'
p4
(lp5
I64
aI2179
aI43
aI63
aI2659
aI417
aI1690
aI3
aI12048
aI7
aI19084
asS'ori'
p6
S'This house believes that Israel should lift the blockade of Gaza'
p7
ssS'output'
p8
(dp9
g4
(lp10
I3
aI626
aI2138
aI2445
aI2446
aI2132
aI871
aI89
aI9596
aI75
aI5561
aI45
aI60
aI89
aI696
aI7
aI5562
aI24
aI92
aI134
aI5523
aI24
aI3
aI8889
aI1809
aI3
aI23356
aI1274
aI75
aI3
aI6056
aI2219
aI92
aI891
aI24
aI3
aI3188
aI5
aI24977
aI7
aI725
aI4794
aI3180
aI19
aI384
aI2203
aI5
aI297
aI45
aI12990
aI51
aI903
aI282
aI68
aI179
aI4160
aI45
aI12352
aI844
aI7
aI282
aI70
aI204
aI19
aI3
aI6056
aI1274
aI63765
asg6
S'The United Nations Human Rights Council passed a resolution by 32 votes to 3  with a number of abstentions  in which it condemned in the strongest terms the outrageous attack by the Israeli forces which resulted in the killing and injuring of many innocent civilians from different countries  and decided to dispatch an independent international fact finding mission to investigate violations of international law resulting from the Israeli attack  .'
p11
ss.