(dp1
S'input'
p2
(dp3
S'encoded'
p4
(lp5
I64
aI2179
aI394
aI2998
aI3
aI4360
aI7
aI3249
aI6804
aI24
aI3
aI102
asS'ori'
p6
S'This house would encourage the creation of private universities in the UK'
p7
ssS'output'
p8
(dp9
g4
(lp10
I89
aI260
aI2904
aI14
aI3
aI248
aI1070
aI394
aI11
aI3
aI1263
aI2157
aI7
aI89
aI2548
aI45
aI3960
aI111
aI34
aI2702
aI564
aI8126
aI7
aI2636
aI116
aI1972
aI1038
aI63765
asg6
S'A government agency  on the other hand  would have the entire military of a nation to draw upon for security  whose chain of command is clearly defined .'
p11
ss.