(dp1
S'input'
p2
(dp3
S'encoded'
p4
(lp5
I64
aI2179
aI394
aI16756
aI20435
asS'ori'
p6
S'This house would criminalize blasphemy'
p7
ssS'output'
p8
(dp9
g4
(lp10
I24
aI2805
aI20890
aI3335
aI3336
aI45
aI11
aI3
aI3545
aI493
aI20435
aI3396
aI462
aI41
aI2481
aI63765
asg6
S'In February 2009  Kalman filed suit to have the provision against blasphemy struck down as unconstitutional  .'
p11
ss.