(dp1
S'input'
p2
(dp3
S'encoded'
p4
(lp5
I64
aI2179
aI43
aI63
aI3
aI4538
aI7
aI4434
aI7793
aI283
aI45
aI3586
aI417
aI316
aI577
asS'ori'
p6
S'This house believes that the sale of violent video games to minors should be banned'
p7
ssS'output'
p8
(dp9
g4
(lp10
I3
aI673
aI7
aI3
aI897
aI14
aI5615
aI11448
aI760
aI1189
aI11
aI2425
aI4741
aI45
aI16525
aI63
aI897
aI876
aI174
aI6372
aI51
aI1185
aI2210
aI24
aI4099
aI12375
aI159
aI41
aI11953
aI14678
aI63765
asg6
S'The influence of the media on young womens body image have led researchers to speculate that media might also play an important role in negative behaviors such as eating disorders .'
p11
ss.