(dp1
S'input'
p2
(dp3
S'encoded'
p4
(lp5
I64
aI2179
aI394
aI2017
aI223
aI9058
aI23653
asS'ori'
p6
S'This house would ban all unsustainable logging'
p7
ssS'output'
p8
(dp9
g4
(lp10
I7
aI3
aI1530
aI16889
aI2506
aI7797
aI2456
aI1546
aI5
aI1413
aI7992
aI182
aI324
aI4825
aI45
aI7910
aI63765
asg6
S"Of the GEF's six focal areas  biodiversity  climate change and land degradation are particularly relevant to forests ."
p11
ss.