(dp1
S'input'
p2
(dp3
S'encoded'
p4
(lp5
I64
aI2179
aI394
aI2773
aI12505
asS'ori'
p6
S'This house would embrace multiculturalism'
p7
ssS'output'
p8
(dp9
g4
(lp10
I1356
aI159
aI41
aI40
aI384
aI3
aI267
aI23072
aI8175
aI182
aI5
aI40
aI1398
aI147
aI139
aI16273
aI132
aI267
aI8175
aI3914
aI88
aI2916
aI6365
aI6668
aI448
aI5404
aI1191
aI9636
aI45
aI21330
aI182
aI99
aI971
aI24
aI13489
aI482
aI17921
aI63765
asg6
S'Factors such as how different the two interacting cultures are  and how easily individuals can integrate these two cultures (bicultural identity integration) may partially explain why general statements about approaches to acculturation are not sufficient in predicting successful adaptation .'
p11
ss.