(dp1
S'input'
p2
(dp3
S'encoded'
p4
(lp5
I64
aI2179
aI394
aI5370
aI7146
aI4585
aI2446
asS'ori'
p6
S'This house would abolish intellectual property rights'
p7
ssS'output'
p8
(dp9
g4
(lp10
I44432
aI1136
aI1327
aI55
aI1966
aI63
aI51
aI1185
aI4174
aI7
aI210
aI192
aI52
aI116
aI3
aI4637
aI10
aI1795
aI7
aI4585
aI2446
aI24
aI89
aI2488
aI4585
aI145
aI53
aI3930
aI5
aI7709
aI182
aI1972
aI426
aI63765
asg6
S'Hernando de Soto has argued that an important characteristic of capitalist market economy is the functioning state protection of property rights in a formal property system where ownership and transactions are clearly recorded .'
p11
ss.