(dp1
S'input'
p2
(dp3
S'encoded'
p4
(lp5
I64
aI2179
aI394
aI2773
aI12505
asS'ori'
p6
S'This house would embrace multiculturalism'
p7
ssS'output'
p8
(dp9
g4
(lp10
I53657
aI116
aI89
aI1801
aI3657
aI63
aI55
aI643
aI45
aI3709
aI4279
aI291
aI2789
aI7
aI384
aI8175
aI24
aI1610
aI162
aI4782
aI24
aI6398
aI7
aI2258
aI73
aI7460
aI63765
asg6
S'Pidgin is a mixed language that has developed to help communication between members of different cultures in contact  usually occurring in situations of trade or colonialism  .'
p11
ss.