(dp1
S'input'
p2
(dp3
S'encoded'
p4
(lp5
I64
aI2179
aI43
aI17
aI4941
aI857
aI3211
asS'ori'
p6
S'This house believes social deprivation causes crime'
p7
ssS'output'
p8
(dp9
g4
(lp10
I1038
aI75
aI13247
aI18002
aI41
aI3211
aI860
aI75
aI4224
aI7
aI177
aI17
aI1597
aI24
aI3
aI2346
aI7
aI271
aI3056
aI5
aI59111
aI63765
asg6
S'White-collar crime: defined by Edwin Sutherland as crime committed by persons of high social position in the course of their occupation (Sutherland and Cressey  1978:44)  .'
p11
ss.