(dp1
S'input'
p2
(dp3
S'encoded'
p4
(lp5
I64
aI2179
aI394
aI2773
aI12505
asS'ori'
p6
S'This house would embrace multiculturalism'
p7
ssS'output'
p8
(dp9
g4
(lp10
I45
aI84
aI159
aI89
aI19
aI211
aI8442
aI116
aI136
aI138
aI89
aI7300
aI134
aI116
aI20435
aI3472
aI4711
aI7
aI1012
aI63765
asg6
S'To take such a statue/god from its temple is more than a theft  it is blasphemy perhaps worthy of death .'
p11
ss.