(dp1
S'input'
p2
(dp3
S'encoded'
p4
(lp5
I64
aI2179
aI43
aI63
aI3
aI28431
aI7
aI2157
aI4624
aI75
aI39939
aI27257
aI122
aI4850
asS'ori'
p6
S'This house believes that the leaking of military documents by Anat Kamm was justified'
p7
ssS'output'
p8
(dp9
g4
(lp10
I100
aI17216
aI182
aI15446
aI5
aI80
aI182
aI6268
aI73
aI7146
aI63765
asg6
S'Some valuables are tangible and earthy; others are spiritual or intellectual .'
p11
ss.