(dp1
S'input'
p2
(dp3
S'encoded'
p4
(lp5
I64
aI2179
aI394
aI9385
aI2497
aI447
aI14
aI3
aI3578
aI5721
aI7
aI260
asS'ori'
p6
S'This house would enforce term limits on the legislative branch of government'
p7
ssS'output'
p8
(dp9
g4
(lp10
I24
aI2999
aI1089
aI8844
aI63765
aI45730
aI911
aI3
aI2196
aI289
aI2497
aI447
aI75
aI3683
aI24
aI89
aI136
aI1839
aI2475
aI63
aI3
aI1350
aI5
aI678
aI7
aI2497
aI447
aI311
aI3
aI10
aI126
aI4446
aI63
aI155
aI417
aI316
aI1515
aI311
aI3
aI2503
aI126
aI41
aI261
asg6
S'In 2007  Professor Larry J . Sabato revived the debate over term limits by arguing in A More Perfect Constitution that the success and popularity of term limits at the state level suggests that they should be adopted at the federal level as well'
p11
ss.