(dp1
S'input'
p2
(dp3
S'encoded'
p4
(lp5
I64
aI2179
aI43
aI63
aI134
aI116
aI400
aI21
aI34
aI3
aI260
aI45
aI3439
aI57
aI7
aI2381
asS'ori'
p6
S'This house believes that it is sometimes right for the government to restrict freedom of speech'
p7
ssS'output'
p8
(dp9
g4
(lp10
I24
aI2871
aI3
aI2482
aI2483
aI7
aI2547
aI6180
aI743
aI63
aI5119
aI889
aI1019
aI316
aI353
aI4890
aI34
aI16229
aI45
aI52738
aI7371
aI41
aI572
aI41
aI3
aI16229
aI2126
aI116
aI99
aI52738
aI63765
asg6
S'In October 2011 the Supreme Court of Canada unanimously ruled that online publications cannot be found liable for linking to defamatory material as long as the linking itself is not defamatory  .'
p11
ss.