(dp1
S'input'
p2
(dp3
S'encoded'
p4
(lp5
I64
aI2179
aI43
aI24
aI3
aI475
aI7
aI12436
aI3364
asS'ori'
p6
S'This house believes in the use of affirmative action'
p7
ssS'output'
p8
(dp9
g4
(lp10
I24
aI667
aI2086
aI8460
aI11317
aI5295
aI122
aI23922
aI75
aI3
aI2453
aI28934
aI366
aI773
aI4546
aI7
aI3323
aI5
aI11201
aI45
aI1012
aI1184
aI122
aI29066
aI45
aI3269
aI63765
asg6
S'In 1915  Texas-born  New York Jew Leo Frank was lynched by the newly re-formed Klan  after being convicted of rape and sentenced to death (his punishment was commuted to life imprisonment)  .'
p11
ss.