(dp1
S'input'
p2
(dp3
S'encoded'
p4
(lp5
I64
aI2179
aI43
aI63
aI134
aI116
aI400
aI21
aI34
aI3
aI260
aI45
aI3439
aI57
aI7
aI2381
asS'ori'
p6
S'This house believes that it is sometimes right for the government to restrict freedom of speech'
p7
ssS'output'
p8
(dp9
g4
(lp10
I1193
aI122
aI9249
aI5
aI2162
aI60
aI89
aI667
aI2086
aI10
aI70
aI1609
aI134
aI89
aI3211
aI30850
aI48855
aI52721
aI73
aI33856
aI20823
aI111
aI73
aI9806
aI18409
aI111
aI843
aI75
aI4199
aI73
aI2784
aI5449
aI7
aI3
aI626
aI63765
asg6
S'" Street was arrested and charged with a New York state law making it a crime "publicly [to] mutilate  deface  defile  or defy  trample upon  or cast contempt upon either by words or act [any flag of the United States] .'
p11
ss.