(dp1
S'input'
p2
(dp3
S'encoded'
p4
(lp5
I64
aI2179
aI394
aI163
aI959
aI2042
aI3557
asS'ori'
p6
S'This house would make physical education compulsory'
p7
ssS'output'
p8
(dp9
g4
(lp10
I136
aI2068
aI2041
aI3715
aI63
aI33962
aI88
aI6372
aI89
aI595
aI2210
aI138
aI33961
aI24
aI63765
asg6
S'More recent research indicates that anandamide may play a greater role than endorphins in "runner\'s high" .'
p11
ss.