(dp1
S'input'
p2
(dp3
S'encoded'
p4
(lp5
I64
aI2179
aI394
aI5370
aI3
aI5286
asS'ori'
p6
S'This house would abolish the monarchy'
p7
ssS'output'
p8
(dp9
g4
(lp10
I3
aI6516
aI278
aI5365
aI5
aI6625
aI1005
aI3116
aI6626
aI6068
aI2547
aI6096
aI3122
aI667
aI6113
aI6627
aI667
aI6628
aI4254
aI6629
aI5
aI6630
aI4254
aI6631
aI4254
aI6632
aI5
aI3
aI6633
aI6634
aI6635
aI6636
aI5
aI626
aI2549
aI7
aI325
aI326
aI5
aI4192
aI223
aI2572
aI5352
aI5405
aI2236
aI41
aI5301
aI24
aI89
aI3446
aI2131
aI5635
aI63765
asg6
S'The sixteen Commonwealth realms (Antigua and Barbuda  Australia  Bahamas  Barbados  Belize  Canada  Grenada  Jamaica  New Zealand  Papua New Guinea  Saint Kitts and Nevis  Saint Lucia  Saint Vincent and the Grenadines  Solomon Islands  Tuvalu and United Kingdom of Great Britain and Northern Ireland) all share Queen Elizabeth II as monarch in a personal union arrangement .'
p11
ss.