(dp1
S'input'
p2
(dp3
S'encoded'
p4
(lp5
I64
aI2179
aI394
aI60
aI23587
asS'ori'
p6
S'This house would re-engage with Myanmar'
p7
ssS'output'
p8
(dp9
g4
(lp10
I24
aI425
aI2451
aI5
aI2390
aI5952
aI89
aI5262
aI9596
aI751
aI3
aI626
aI2138
aI2702
aI2132
aI6466
aI14
aI3
aI260
aI7
aI3118
aI45
aI3236
aI2445
aI2446
aI5
aI507
aI89
aI188
aI3060
aI63765
asg6
S'In January 2007  Russia and China vetoed a draft resolution before the United Nations Security Council calling on the government of Burma to respect human rights and begin a democratic transition .'
p11
ss.