(dp1
S'input'
p2
(dp3
S'encoded'
p4
(lp5
I64
aI2179
aI43
aI17
aI4941
aI857
aI3211
asS'ori'
p6
S'This house believes social deprivation causes crime'
p7
ssS'output'
p8
(dp9
g4
(lp10
I17516
aI2617
aI116
aI2801
aI736
aI267
aI3874
aI5
aI13794
aI2577
aI2617
aI63
aI116
aI2617
aI4024
aI291
aI3874
aI2789
aI5
aI13794
aI9247
aI162
aI114
aI99
aI9358
aI1708
aI238
aI24
aI3
aI3900
aI63765
asg6
S'Interpersonal violence is divided into two subcategories: Family and intimate partner violence  that is  violence largely between family members and intimate partners  usually  though not exclusively  taking place in the home .'
p11
ss.