(dp1
S'input'
p2
(dp3
S'encoded'
p4
(lp5
I64
aI2179
aI43
aI63
aI323
aI417
aI10009
aI211
aI9035
aI249
aI45
aI3426
aI211
aI2144
aI595
aI17
aI96
asS'ori'
p6
S'This house believes that Europe should weaken its austerity measures to guarantee its citizens greater social support'
p7
ssS'output'
p8
(dp9
g4
(lp10
I63
aI3703
aI5
aI211
aI4738
aI92
aI2100
aI89
aI7
aI10185
aI10245
aI9017
aI19
aI271
aI3130
aI2363
aI588
aI45
aI89
aI667
aI12433
aI7
aI2425
aI45
aI89
aI5619
aI3161
aI1365
aI4358
aI81
aI49
aI840
aI427
aI45
aI3
aI8686
aI289
aI380
aI873
aI493
aI64
aI3703
aI24601
aI1295
aI60
aI631
aI14
aI1237
aI2920
aI158
aI51
aI6396
aI53
aI100
aI4358
aI24602
aI4012
aI3
aI170
aI15946
aI5
aI24603
aI6823
aI5
aI3158
aI211
aI7354
aI63765
asg6
S'That announcement and its implications  which included a near-tripling of student tuition fees from their previous levels up to a new ceiling of 9000/year  led to a huge backlash amongst students who almost immediately took to the streets over various non-sequential days against this announcement  squaring off with police on several occasions including an instance where some students angrily entered the Conservative headquarters and smashed windows and destroyed its interior  .'
p11
ss.