(dp1
S'input'
p2
(dp3
S'encoded'
p4
(lp5
I64
aI2179
aI43
aI223
aI2138
aI11
aI89
aI21
aI45
aI2185
aI372
asS'ori'
p6
S'This house believes all nations have a right to nuclear weapons'
p7
ssS'output'
p8
(dp9
g4
(lp10
I2233
aI5607
aI99
aI8994
aI45
aI3
aI5756
aI2326
aI92
aI3
aI33551
aI3943
aI116
aI34
aI2468
aI792
aI63765
asg6
S'I am not referring to the Iranian program  which the Iranians say is for peaceful purposes .'
p11
ss.