(dp1
S'input'
p2
(dp3
S'encoded'
p4
(lp5
I64
aI2179
aI43
aI63
aI187
aI417
aI99
aI16642
aI3
aI6449
aI7
aI3935
asS'ori'
p6
S'This house believes that states should not subsidize the growing of tobacco'
p7
ssS'output'
p8
(dp9
g4
(lp10
I3
aI1334
aI4779
aI7
aI3935
aI6417
aI1074
aI725
aI274
aI7
aI5057
aI324
aI14834
aI5057
aI4872
aI5057
aI5057
aI7
aI3
aI25201
aI5
aI536
aI5
aI824
aI4907
aI5057
aI25216
aI5057
aI5057
aI7
aI3
aI25217
aI5057
aI7
aI3
aI23027
aI5
aI24853
aI5057
aI63765
asg6
S'The primary risks of tobacco usage include many forms of cancer  particularly lung cancer  kidney cancer  cancer of the larynx and head and neck  breast cancer  bladder cancer  cancer of the esophagus  cancer of the pancreas and stomach cancer  .'
p11
ss.