(dp1
S'input'
p2
(dp3
S'encoded'
p4
(lp5
I64
aI2179
aI43
aI63
aI1036
aI4828
aI33250
aI116
aI25073
aI45
aI3315
aI4562
asS'ori'
p6
S'This house believes that male infant circumcision is tantamount to child abuse'
p7
ssS'output'
p8
(dp9
g4
(lp10
I298
aI3589
aI14
aI4822
aI5
aI3862
aI134
aI5627
aI3
aI2445
aI2446
asg6
S"when performed on infants and children  it violates the individual's human rights"
p11
ss.