(dp1
S'input'
p2
(dp3
S'encoded'
p4
(lp5
I64
aI2179
aI394
aI190
aI3
aI21
aI45
aI3895
aI834
asS'ori'
p6
S'This house would limit the right to bear arms'
p7
ssS'output'
p8
(dp9
g4
(lp10
I38566
aI344
aI24
aI2289
aI3
aI10514
aI7
aI70
aI5
aI128
aI24
aI3
aI2668
aI7
aI7750
aI116
aI7502
aI3
aI90
aI7
aI1780
aI53
aI3
aI1950
aI3264
aI122
aI1881
aI45
aI501
aI2144
aI45
aI454
aI777
aI63517
aI742
aI63765
asg6
S'"What weve seen in Louisiana  the breakdown of law and order in the aftermath of disaster  is exactly the kind of situation where the Second Amendment was intended to allow citizens to protect themselves " LaPierre said .'
p11
ss.