(dp1
S'input'
p2
(dp3
S'encoded'
p4
(lp5
I64
aI2179
aI394
aI2773
aI12505
asS'ori'
p6
S'This house would embrace multiculturalism'
p7
ssS'output'
p8
(dp9
g4
(lp10
I366
aI285
aI2223
aI2236
aI3
aI2096
aI7
aI15310
aI4351
aI5
aI24
aI3
aI237
aI3517
aI134
aI122
aI1191
aI89
aI2610
aI63
aI373
aI89
aI759
aI7
aI150
aI3269
aI63765
asg6
S'After World War II  the idea of biculturalism strengthened and in the first stage it was about a large-scale immigration that became a part of national life .'
p11
ss.