(dp1
S'input'
p2
(dp3
S'encoded'
p4
(lp5
I64
aI2179
aI43
aI223
aI2138
aI11
aI89
aI21
aI45
aI2185
aI372
asS'ori'
p6
S'This house believes all nations have a right to nuclear weapons'
p7
ssS'output'
p8
(dp9
g4
(lp10
I24
aI51
aI2959
aI3625
aI60
aI3
aI10619
aI809
aI27120
aI5606
aI448
aI25683
aI33537
aI742
aI368
aI2138
aI382
aI3820
aI9167
aI9991
aI7
aI63765
asg6
S'In an April 2010 interview with the BBC  former IAEA Director General Mohamed ElBaradei said Western nations were seeking harsher sanctions "out of frustration" .'
p11
ss.