(dp1
S'input'
p2
(dp3
S'encoded'
p4
(lp5
I64
aI2179
aI394
aI5370
aI3
aI5286
asS'ori'
p6
S'This house would abolish the monarchy'
p7
ssS'output'
p8
(dp9
g4
(lp10
I3
aI3445
aI7
aI5286
aI6570
aI24
aI3
aI8868
aI572
aI751
aI3
aI4056
aI7
aI1565
aI6577
aI63765
asg6
S'The concept of monarchy existed in the Americas long before the arrival of European colonialists  .'
p11
ss.