(dp1
S'input'
p2
(dp3
S'encoded'
p4
(lp5
I64
aI2179
aI394
aI2017
aI223
aI9058
aI23653
asS'ori'
p6
S'This house would ban all unsustainable logging'
p7
ssS'output'
p8
(dp9
g4
(lp10
I60
aI3
aI4038
aI7
aI6678
aI2597
aI2506
aI2586
aI45
aI316
aI36819
aI5
aI4477
aI373
aI3
aI1405
aI1623
aI45
aI2010
aI1413
aI34
aI7311
aI63765
asg6
S'With the advent of agriculture  larger areas began to be deforested  and fire became the prime tool to clear land for crops .'
p11
ss.