(dp1
S'input'
p2
(dp3
S'encoded'
p4
(lp5
I64
aI2179
aI43
aI24
aI3
aI475
aI7
aI12436
aI3364
asS'ori'
p6
S'This house believes in the use of affirmative action'
p7
ssS'output'
p8
(dp9
g4
(lp10
I34
aI1343
aI24
aI4395
aI5555
aI24
aI3
aI2023
aI874
aI11504
aI78
aI182
aI575
aI12179
aI34
aI6025
aI5
aI2042
aI5
aI182
aI513
aI45
aI11
aI2554
aI63765
asg6
S'For example  in Northwest Territories in the Canadian north  aboriginal people are given preference for jobs and education and are considered to have P1 status .'
p11
ss.