(dp1
S'input'
p2
(dp3
S'encoded'
p4
(lp5
I64
aI2179
aI394
aI5842
aI3569
aI446
aI13498
asS'ori'
p6
S'This house would introduce year round schooling'
p7
ssS'output'
p8
(dp9
g4
(lp10
I24
aI181
aI2240
aI3424
aI9716
aI5099
aI24
aI481
aI2116
aI5
aI1447
aI34
aI1191
aI1530
aI73
aI2652
aI3286
aI60
aI217
aI4364
aI16871
aI589
aI2779
aI63765
asg6
S'In Scotland  school summer holidays start in late June and last for about six or seven weeks  with most schools returning around August 20 .'
p11
ss.