(dp1
S'input'
p2
(dp3
S'encoded'
p4
(lp5
I64
aI2179
aI394
aI4325
aI2042
aI270
aI89
aI11605
aI3324
asS'ori'
p6
S'This house would fund education using a voucher scheme'
p7
ssS'output'
p8
(dp9
g4
(lp10
I24
aI2116
aI12189
aI742
aI117
aI998
aI45
aI3226
aI3
aI9023
aI14
aI17
aI2702
aI2666
aI116
aI75
aI1443
aI6941
aI45
aI163
aI2573
aI747
aI34
aI75
aI12572
aI1560
aI5743
aI45
aI8052
aI24
aI217
aI2753
aI8096
aI89
aI968
aI7
aI271
aI14492
aI34
aI17
aI2702
aI63
aI155
aI394
aI2507
aI5878
aI24
aI6329
aI45
aI17
aI2702
aI63765
asg6
S'|-valign="top" In June 1999  McCain said "The only way to increase the yield on Social Security dollars is by allowing workers to make investment decisions for themselves; by empowering American families to invest  in most robust portfolios  a portion of their earnings for Social Security that they would otherwise pay in taxes to Social Security .'
p11
ss.