(dp1
S'input'
p2
(dp3
S'encoded'
p4
(lp5
I64
aI2179
aI394
aI3830
aI3
aI475
aI7
aI9441
aI13132
aI3102
aI24
aI276
aI381
asS'ori'
p6
S'This house would permit the use of performance enhancing drugs in professional sports'
p7
ssS'output'
p8
(dp9
g4
(lp10
I155
aI2915
aI1063
aI45
aI25
aI11340
aI45
aI881
aI7094
aI520
aI1986
aI375
aI63765
asg6
S'They tied him to his bed to prevent anything going wrong again .'
p11
ss.