(dp1
S'input'
p2
(dp3
S'encoded'
p4
(lp5
I64
aI2179
aI13605
aI2258
aI45
aI2194
asS'ori'
p6
S'This house prefers trade to aid'
p7
ssS'output'
p8
(dp9
g4
(lp10
I3
aI8387
aI3611
aI2936
aI220
aI3367
aI7367
aI9642
aI417
aI124
aI3592
aI545
aI3
aI9116
aI2121
aI3
aI2332
aI2804
aI79
aI14
aI51
aI2097
aI2259
aI5
aI32
aI443
aI4798
aI291
aI3
aI237
aI5
aI4649
aI2152
aI63765
asg6
S'The interviews revealed recipient governments felt "predictability" meant donors should provide funding within the quarters scheduled  the Paris Declaration work on an annual basis and makes no distinction between the first and fourth quarter .'
p11
ss.