(dp1
S'input'
p2
(dp3
S'encoded'
p4
(lp5
I64
aI2179
aI43
aI24
aI3
aI475
aI7
aI12436
aI3364
asS'ori'
p6
S'This house believes in the use of affirmative action'
p7
ssS'output'
p8
(dp9
g4
(lp10
I226
aI24
aI2300
aI2435
aI4012
aI3
aI2131
aI41
aI89
aI1260
aI10
aI60
aI3236
aI45
aI3
aI845
aI7
aI67
aI3
aI1485
aI7
aI7700
aI16202
aI6164
aI122
aI99
aI625
aI75
aI3
aI2300
aI5508
aI487
aI63765
asg6
S'While in 1850  California formally entered the Union as a free state  with respect to the issue of slavery  the practice of Indian indentured servitude was not outlawed by the California Legislature until 1863  .'
p11
ss.