(dp1
S'input'
p2
(dp3
S'encoded'
p4
(lp5
I64
aI2179
aI43
aI63
aI11083
aI10046
aI417
aI316
aI89
aI3135
aI4603
asS'ori'
p6
S'This house believes that Holocaust denial should be a criminal offence'
p7
ssS'output'
p8
(dp9
g4
(lp10
I24
aI2805
aI18382
aI122
aI9249
aI24
aI5631
aI53
aI11083
aI10046
aI116
aI1968
aI34
aI89
aI2381
aI42
aI440
aI221
aI24
aI24
aI92
aI42
aI729
aI3
aI3524
aI7
aI2880
aI556
aI311
aI11080
aI63765
asg6
S'In February 2006 Irving was arrested in Austria  where Holocaust denial is illegal  for a speech he had made in 1989 in which he denied the existence of gas chambers at Auschwitz  .'
p11
ss.