(dp1
S'input'
p2
(dp3
S'encoded'
p4
(lp5
I64
aI2179
aI394
aI16756
aI20435
asS'ori'
p6
S'This house would criminalize blasphemy'
p7
ssS'output'
p8
(dp9
g4
(lp10
I751
aI20505
aI382
aI136
aI63765
asg6
S'Before 1883  prosecutions were "much more common"  .'
p11
ss.