(dp1
S'input'
p2
(dp3
S'encoded'
p4
(lp5
I64
aI2179
aI43
aI24
aI3
aI475
aI7
aI12436
aI3364
asS'ori'
p6
S'This house believes in the use of affirmative action'
p7
ssS'output'
p8
(dp9
g4
(lp10
I3
aI13483
aI4308
aI5175
aI75
aI6048
aI3615
aI45
aI8377
aI21287
aI122
aI34
aI267
aI11577
aI93
aI6466
aI34
aI89
aI2804
aI5
aI5262
aI2533
aI1653
aI311
aI5506
aI10250
aI4933
aI3
aI248
aI1864
aI3
aI1643
aI34
aI2767
aI9745
aI63765
asg6
S"The eventual compromise  forced by Arab nations' reluctance to discuss antisemitism was for two resolutions  one calling for a declaration and draft convention aimed at eliminating racial discrimination  the other doing the same for religious intolerance  ."
p11
ss.