(dp1
S'input'
p2
(dp3
S'encoded'
p4
(lp5
I64
aI2179
aI43
aI63
aI2659
aI417
aI1690
aI3
aI12048
aI7
aI19084
asS'ori'
p6
S'This house believes that Israel should lift the blockade of Gaza'
p7
ssS'output'
p8
(dp9
g4
(lp10
I60
aI5004
aI45
aI3
aI27045
aI2603
aI17525
aI27046
aI89
aI3648
aI5
aI809
aI5430
aI34
aI3
aI8452
aI5667
aI2134
aI742
aI63
aI2659
aI551
aI3
aI10047
aI5293
aI5327
aI24
aI5
aI2909
aI19362
aI3
aI2361
aI87
aI63
aI89
aI4918
aI45
aI3
aI4529
aI7
aI3
aI2603
aI116
aI99
aI4840
aI63765
asg6
S'With regard to the GazaJericho Agreement  Diana Buttu  a Palestinian-Canadian lawyer and former spokesperson for the Palestine Liberation Organization  said that Israel declared the Oslo Accords dead in 2001  and actually breached the agreements  so that a call to the applicability of the Gaza-Jericho Agreement is not plausible  .'
p11
ss.