(dp1
S'input'
p2
(dp3
S'encoded'
p4
(lp5
I64
aI2179
aI43
aI63
aI2659
aI417
aI1690
aI3
aI12048
aI7
aI19084
asS'ori'
p6
S'This house believes that Israel should lift the blockade of Gaza'
p7
ssS'output'
p8
(dp9
g4
(lp10
I3
aI2877
aI7
aI132
aI4949
aI122
aI3363
aI75
aI3
aI9107
aI4268
aI3262
aI34
aI5941
aI5
aI3
aI913
aI5560
aI7
aI3
aI19121
aI1634
aI63765
asg6
S'The implementation of these projects was delayed by the entry approval process for materials and the limited opening of the Karni crossing  .'
p11
ss.