(dp1
S'input'
p2
(dp3
S'encoded'
p4
(lp5
I64
aI2179
aI394
aI5370
aI7146
aI4585
aI2446
asS'ori'
p6
S'This house would abolish intellectual property rights'
p7
ssS'output'
p8
(dp9
g4
(lp10
I3
aI912
aI12717
aI145
aI8671
aI211
aI284
aI2028
asg6
S'the current (international) copyright system undermines its own goal'
p11
ss.