(dp1
S'input'
p2
(dp3
S'encoded'
p4
(lp5
I64
aI2179
aI43
aI63
aI3
aI21
aI45
aI12715
aI417
aI99
aI316
aI2897
asS'ori'
p6
S'This house believes that the right to asylum should not be absolute'
p7
ssS'output'
p8
(dp9
g4
(lp10
I2164
aI495
aI10450
aI24
aI2340
aI3
aI22484
aI5
aI20509
aI1647
aI92
aI913
aI3
aI710
aI7
aI5307
aI946
aI6177
aI19
aI2265
aI5
aI4581
aI45
aI951
aI838
aI22
aI2446
aI5
aI155
aI373
aI89
aI281
aI22
aI845
aI24
aI3
aI4168
aI63765
asg6
S'President John Adams in 1798 signed the Alien and Sedition Acts which limited the ability of immigrants  especially radicals from France and Ireland  to gain full political rights  and they became a major political issue in the 1800 election  .'
p11
ss.