(dp1
S'input'
p2
(dp3
S'encoded'
p4
(lp5
I64
aI2179
aI235
aI839
aI4168
aI7
aI4996
aI34759
asS'ori'
p6
S'This house supports direct election of city mayors'
p7
ssS'output'
p8
(dp9
g4
(lp10
I64
aI437
aI116
aI89
aI913
aI2924
aI158
aI747
aI14
aI2569
aI5
aI4295
aI5
aI77
aI6405
aI7517
aI5
aI976
aI747
aI63765
asg6
S'This latter is a limited list  including quasi-judicial decisions on planning and licensing  and certain ceremonial  employment and legal decisions .'
p11
ss.