(dp1
S'input'
p2
(dp3
S'encoded'
p4
(lp5
I64
aI2179
aI394
aI16642
aI1376
aI5269
asS'ori'
p6
S'This house would subsidize poor communities'
p7
ssS'output'
p8
(dp9
g4
(lp10
I97
aI3168
aI34
aI3
aI25979
aI1351
aI7
aI130
aI116
aI63
aI1376
aI78
aI11
aI271
aI284
aI3905
aI60
aI89
aI384
aI1629
aI7
aI3527
aI5
aI4859
aI92
aI1576
aI86
aI15728
aI545
aI63
aI1351
aI105
aI45
aI105
aI63765
aI64
aI3168
aI55
aI12
aI4101
aI75
aI4337
aI12605
aI63765
aI24419
aI24
aI732
aI26
aI89
aI3278
aI34
aI1462
aI130
aI63765
aI24
aI64
aI26
aI3313
aI4655
aI40
aI273
aI116
aI89
aI5052
aI145
aI24
aI3
aI626
aI187
aI53
aI273
aI116
aI89
aI6374
aI1740
aI5052
aI89
aI2653
aI5052
aI5
aI3
aI108
aI1376
aI5052
aI63765
aI132
aI4416
aI574
aI11
aI271
aI284
aI1629
aI7
aI442
aI5
aI3527
aI92
aI4793
aI19
aI574
aI248
aI63765
aI24
aI128
aI45
aI7817
aI3
aI3905
aI7
aI130
aI5
aI40
aI3
aI1376
aI60616
aI1629
aI7
aI442
aI1057
aI45
aI1576
aI86
aI15728
aI24
aI64
aI7870
aI1351
aI24419
aI4439
aI132
aI442
aI5
aI40
aI155
aI1466
aI3
aI1376
aI5052
aI63765
aI413
aI116
aI4722
aI63
aI116
aI794
aI12481
aI75
aI3
aI155
aI246
aI1453
aI99
aI7074
aI9046
aI131
aI1032
aI3281
aI24
aI3
aI1798
aI92
aI1259
aI86
aI19
aI8985
aI137
aI92
aI47
aI3709
aI271
aI3862
aI9944
aI130
asg6
S'Another theory for the perpetual cycle of poverty is that poor people have their own culture with a different set of values and beliefs which keep them trapped within that cycle generation to generation . This theory has been explored by Ruby K . Payne in her book A Framework for Understanding Poverty . In this book she explains how there is a class system in the United States where there is a wealthy upper class  a middle class  and the working poor class . These classes each have their own set of rules and values which differ from each other . In order to understand the culture of poverty and how the poor classs set of rules tend to keep them trapped in this continual cycle Payne describes these rules and how they affect the poor class . Time is something that is treated differently by the poor; they generally do not plan ahead but simply live in the moment which keeps them from saving money which will help their children escape poverty'
p11
ss.