(dp1
S'input'
p2
(dp3
S'encoded'
p4
(lp5
I64
aI2179
aI43
aI63
aI3376
aI4938
aI417
aI316
aI3537
asS'ori'
p6
S'This house believes that endangered species should be protected'
p7
ssS'output'
p8
(dp9
g4
(lp10
I691
aI4938
aI1199
aI7862
aI3
aI3
aI7926
aI7
aI89
aI1896
aI136
aI47
aI99
aI11955
aI3
aI7826
asg6
S'since species become extinct "all the time" the disappearance of a few more will not destroy the ecosystem'
p11
ss.