(dp1
S'input'
p2
(dp3
S'encoded'
p4
(lp5
I64
aI2179
aI394
aI4325
aI2042
aI270
aI89
aI11605
aI3324
asS'ori'
p6
S'This house would fund education using a voucher scheme'
p7
ssS'output'
p8
(dp9
g4
(lp10
I235
aI4262
aI10781
aI45
aI8532
aI81
aI475
aI3249
aI2042
aI73
aI39641
aI63765
asg6
S'Supports state-level tax credits to parents who use private education or homeschool .'
p11
ss.