(dp1
S'input'
p2
(dp3
S'encoded'
p4
(lp5
I64
aI2179
aI43
aI63
aI134
aI116
aI400
aI21
aI34
aI3
aI260
aI45
aI3439
aI57
aI7
aI2381
asS'ori'
p6
S'This house believes that it is sometimes right for the government to restrict freedom of speech'
p7
ssS'output'
p8
(dp9
g4
(lp10
I420
aI63765
aI9813
aI742
aI63
aI12511
aI4212
aI27232
aI5
aI18231
aI394
aI637
aI316
aI625
aI459
aI3
aI3135
aI4674
aI226
aI25
aI1580
aI394
aI991
aI23989
aI3530
aI2051
aI14
aI57
aI7
aI2381
aI270
aI137
aI63765
asg6
S"Mr . Martin said that hate crimes  slander and libel would still be outlawed under the Criminal Code  while his motion would stop human-rights tribunals imposing restrictions on freedom of speech using taxpayers' money ."
p11
ss.