(dp1
S'input'
p2
(dp3
S'encoded'
p4
(lp5
I64
aI2179
aI43
aI63
aI3
aI4990
aI4991
aI116
aI4850
aI24
aI12166
aI3
aI475
aI7
aI3532
aI3290
aI7
aI4714
asS'ori'
p6
S'This house believes that the Catholic Church is justified in forbidding the use of barrier methods of contraception'
p7
ssS'output'
p8
(dp9
g4
(lp10
I159
aI3205
aI2385
aI3495
aI881
aI51
aI2845
aI2639
aI4851
aI16513
aI5
aI3433
aI63765
asg6
S'Such services helped women prevent an estimated 1 .94 million unintended pregnancies and 810 000 abortions  .'
p11
ss.