(dp1
S'input'
p2
(dp3
S'encoded'
p4
(lp5
I64
aI2179
aI43
aI63
aI6670
aI546
aI417
aI316
aI89
aI1334
aI3108
aI7
aI4849
aI1886
aI2855
asS'ori'
p6
S'This house believes that wind power should be a primary focus of future energy supply'
p7
ssS'output'
p8
(dp9
g4
(lp10
I34
aI217
aI2938
aI3048
aI3904
aI1525
aI2363
aI182
aI994
aI979
aI138
aI6733
aI73
aI5507
aI34
aI1343
aI89
aI102
aI2035
aI353
aI63
aI116
aI2010
aI63
aI16422
aI105
aI1068
aI99
aI4308
aI2881
aI145
aI10551
aI311
aI351
aI126
aI7
aI1525
aI13494
aI24
aI326
aI289
aI3
aI1608
aI2439
aI1381
aI134
aI88
aI3226
aI5136
aI63765
asg6
S'For most systems worldwide  existing penetration levels are significantly lower than practical or theoretical maximums; for example  a UK study found that "it is clear that intermittent generation need not compromise electricity system reliability at any level of penetration foreseeable in Britain over the next 20 years  although it may increase costs .'
p11
ss.