(dp1
S'input'
p2
(dp3
S'encoded'
p4
(lp5
I64
aI2179
aI43
aI17
aI4941
aI857
aI3211
asS'ori'
p6
S'This house believes social deprivation causes crime'
p7
ssS'output'
p8
(dp9
g4
(lp10
I4649
aI350
aI116
aI734
aI45
aI8954
aI63
aI89
aI658
aI3217
aI1039
aI116
aI1112
aI311
aI5377
aI17516
aI2617
aI63765
asg6
S'Fourth  evidence is beginning to accumulate that a science-based public health approach is effective at preventing interpersonal violence .'
p11
ss.