(dp1
S'input'
p2
(dp3
S'encoded'
p4
(lp5
I64
aI2179
aI394
aI3830
aI3
aI475
aI7
aI9441
aI13132
aI3102
aI24
aI276
aI381
asS'ori'
p6
S'This house would permit the use of performance enhancing drugs in professional sports'
p7
ssS'output'
p8
(dp9
g4
(lp10
I809
aI12349
aI5
aI5726
aI415
aI864
aI493
aI3
aI50212
aI63765
aI87
aI725
aI2439
aI2233
aI3940
aI134
aI63765
aI2233
aI5264
aI64
aI122
aI520
aI14
aI131
aI5944
aI3819
aI1198
aI139
aI1453
aI41
aI51
aI2027
aI63765
aI1198
aI11
aI45
aI133
aI690
aI684
aI182
aI1864
aI61
aI155
aI182
aI2966
aI45
aI1453
aI63765
aI5
aI134
aI116
aI1178
aI155
aI500
aI742
aI809
aI1560
aI13399
aI5
aI277
aI410
aI21310
aI50213
asg6
S'Former athletes and officials came out against the USOC cover-up . "For so many years I lived it . I knew this was going on  but there\'s absolutely nothing you can do as an athlete . You have to believe governing bodies are doing what they are supposed to do . And it is obvious they did not"  said former American sprinter and 1984 Olympic champion  Evelyn Ashford '
p11
ss.