(dp1
S'input'
p2
(dp3
S'encoded'
p4
(lp5
I64
aI2179
aI43
aI63
aI2659
aI417
aI1690
aI3
aI12048
aI7
aI19084
asS'ori'
p6
S'This house believes that Israel should lift the blockade of Gaza'
p7
ssS'output'
p8
(dp9
g4
(lp10
I3
aI2533
aI14
aI3
aI70
aI7
aI3
aI7145
aI4524
aI63
aI89
aI5681
aI10
aI88
aI358
aI2987
aI257
aI89
aI15185
aI116
aI8790
aI24
aI834
aI5
aI2613
aI2614
aI3
aI5709
aI2258
aI73
aI7214
aI4948
aI63765
asg6
S'the Convention on the Law of the Sea stipulates that a coastal state may consider intervention if a ship is engaged in arms and drug smuggling  the slave trade or terrorist activities .'
p11
ss.