(dp1
S'input'
p2
(dp3
S'encoded'
p4
(lp5
I64
aI2179
aI394
aI2017
aI3807
aI314
aI3433
asS'ori'
p6
S'This house would ban partial birth abortions'
p7
ssS'output'
p8
(dp9
g4
(lp10
I32383
aI768
aI2729
aI89
aI4179
aI3443
aI34
aI3555
aI3
aI7266
aI3257
aI63765
asg6
S'Bachrach then offers a novel rationale for denying the requested abortion .'
p11
ss.