(dp1
S'input'
p2
(dp3
S'encoded'
p4
(lp5
I64
aI2179
aI43
aI223
aI2138
aI11
aI89
aI21
aI45
aI2185
aI372
asS'ori'
p6
S'This house believes all nations have a right to nuclear weapons'
p7
ssS'output'
p8
(dp9
g4
(lp10
I24
aI89
aI281
aI831
aI7
aI6249
aI11216
aI12135
aI14
aI425
aI2791
aI63
aI2451
aI3772
aI45
aI991
aI8069
aI626
aI187
aI385
aI60
aI2185
aI372
aI63765
asg6
S'In a major move of symbolic de-escalation  Boris Yeltsin  on January 26  1992  announced that Russia planned to stop targeting United States cities with nuclear weapons .'
p11
ss.