(dp1
S'input'
p2
(dp3
S'encoded'
p4
(lp5
I64
aI2179
aI394
aI1499
aI3
aI8115
aI34564
aI17106
asS'ori'
p6
S'This house would build the Keystone XL pipeline'
p7
ssS'output'
p8
(dp9
g4
(lp10
I223
aI132
aI3539
aI84
aI1445
aI1183
aI7
aI1886
aI5
aI1495
aI226
aI50116
aI136
aI6695
aI6696
aI138
aI1671
aI2579
aI63765
asg6
S'All these processes take large amounts of energy and water  while emitting more carbon dioxide than conventional oil .'
p11
ss.