(dp1
S'input'
p2
(dp3
S'encoded'
p4
(lp5
I64
aI2179
aI43
aI63
aI3
aI21
aI45
aI12715
aI417
aI99
aI316
aI2897
asS'ori'
p6
S'This house believes that the right to asylum should not be absolute'
p7
ssS'output'
p8
(dp9
g4
(lp10
I116
aI3353
aI122
aI2031
aI75
aI267
aI2693
aI564
aI6424
aI122
aI45
aI24205
aI667
aI3052
aI14
aI3
aI2609
aI3047
aI34
aI64
aI3014
aI63765
asg6
S'IS enforcement was supported by two units whose function was to log new cases on the central database for this purpose  (HOMIES) .'
p11
ss.