(dp1
S'input'
p2
(dp3
S'encoded'
p4
(lp5
I64
aI2179
aI394
aI3830
aI3
aI475
aI7
aI9441
aI13132
aI3102
aI24
aI276
aI381
asS'ori'
p6
S'This house would permit the use of performance enhancing drugs in professional sports'
p7
ssS'output'
p8
(dp9
g4
(lp10
I378
aI3
aI3891
aI7
aI1493
aI2234
aI12270
aI92
aI55
aI3179
aI823
aI4658
aI32
aI64
aI89
aI6954
aI4902
aI63765
asg6
S'However  the availability of synthetic growth hormone  which has fewer side effects  makes this a secondary treatment .'
p11
ss.