(dp1
S'input'
p2
(dp3
S'encoded'
p4
(lp5
I64
aI2179
aI394
aI163
aI959
aI2042
aI3557
asS'ori'
p6
S'This house would make physical education compulsory'
p7
ssS'output'
p8
(dp9
g4
(lp10
I3
aI444
aI63
aI116
aI4415
aI41
aI51
aI6535
aI55
aI1199
aI979
aI691
aI3
aI63765
asg6
S'The weight that is viewed as an ideal has become lower since the 1920s .'
p11
ss.