(dp1
S'input'
p2
(dp3
S'encoded'
p4
(lp5
I64
aI2179
aI43
aI223
aI2138
aI11
aI89
aI21
aI45
aI2185
aI372
asS'ori'
p6
S'This house believes all nations have a right to nuclear weapons'
p7
ssS'output'
p8
(dp9
g4
(lp10
I134
aI122
aI174
aI1989
aI34
aI3
aI834
aI4226
aI41
aI15
aI2138
aI670
aI45
aI1576
aI2185
aI13528
aI73
aI311
aI870
aI4593
aI5201
aI63765
asg6
S'It was also responsible for the arms race  as both nations struggled to keep nuclear parity  or at least retain second-strike capability .'
p11
ss.