(dp1
S'input'
p2
(dp3
S'encoded'
p4
(lp5
I64
aI2179
aI394
aI190
aI3
aI21
aI45
aI3895
aI834
asS'ori'
p6
S'This house would limit the right to bear arms'
p7
ssS'output'
p8
(dp9
g4
(lp10
I79
aI8332
aI1636
aI570
aI96
aI34
aI3899
aI2446
aI75
aI6909
aI63
aI3
aI696
aI7
aI2625
aI81
aI905
aI4122
aI53
aI271
aI1374
aI12070
aI89
aI2731
aI20684
aI7913
aI120
aI81
aI905
aI773
aI3
aI4944
aI7
aI89
aI3211
asg6
S"Kleck's work speaks towards similar support for firearm rights by showing that the number of Americans who report incidents where their guns averted a threat vastly outnumber those who report being the victim of a firearm-related crime "
p11
ss.