(dp1
S'input'
p2
(dp3
S'encoded'
p4
(lp5
I64
aI2179
aI394
aI5370
aI7146
aI4585
aI2446
asS'ori'
p6
S'This house would abolish intellectual property rights'
p7
ssS'output'
p8
(dp9
g4
(lp10
I3
aI3304
aI7
aI9855
aI122
aI3
aI237
aI212
aI12717
aI2784
aI5
aI1442
aI3
aI6383
aI2446
aI34
aI89
aI5547
aI639
aI366
aI92
aI3
aI12717
aI4557
aI63765
asg6
S'The Statute of Anne was the first real copyright act  and gave the publishers rights for a fixed period  after which the copyright expired  .'
p11
ss.