(dp1
S'input'
p2
(dp3
S'encoded'
p4
(lp5
I64
aI2179
aI235
aI3
aI2136
aI7
aI3
aI2306
aI7
aI2390
asS'ori'
p6
S'This house supports the one-child policy of the republic of China'
p7
ssS'output'
p8
(dp9
g4
(lp10
I257
aI34
aI351
aI1025
aI3
aI1107
aI3315
aI116
aI121
aI45
aI85
aI34
aI271
aI1478
aI3822
aI6508
aI3
aI5832
aI3994
aI394
aI619
aI89
aI1160
aI7
aI2635
aI5
aI7474
asg6
S'If  for any reason  the single child is unable to care for their older adult relatives  the oldest generations would face a lack of resources and necessities'
p11
ss.