(dp1
S'input'
p2
(dp3
S'encoded'
p4
(lp5
I64
aI2179
aI394
aI16642
aI1376
aI5269
asS'ori'
p6
S'This house would subsidize poor communities'
p7
ssS'output'
p8
(dp9
g4
(lp10
I273
aI11
aI12
aI256
aI643
aI45
aI4555
aI4506
aI3
aI1227
aI7
aI1376
aI3862
aI63765
asg6
S'There have been programs developed to specifically address the needs of poor children .'
p11
ss.