(dp1
S'input'
p2
(dp3
S'encoded'
p4
(lp5
I64
aI2179
aI394
aI2017
aI223
aI9058
aI23653
asS'ori'
p6
S'This house would ban all unsustainable logging'
p7
ssS'output'
p8
(dp9
g4
(lp10
I960
aI45
aI7910
aI5
aI248
aI2738
aI7
aI580
aI463
aI17879
aI3976
aI2140
aI34
aI3
aI1376
aI5
aI1476
aI2148
aI2153
aI75
aI1191
aI75
aI89
aI905
aI3041
aI311
aI3
aI2533
aI14
aI7128
aI2768
aI7807
aI24
aI26673
aI63765
asg6
S"Damage to forests and other aspects of nature could halve living standards for the world's poor and reduce global GDP by about 7% by 2050  a report concluded at the Convention on Biological Diversity (CBD) meeting in Bonn  ."
p11
ss.