(dp1
S'input'
p2
(dp3
S'encoded'
p4
(lp5
I64
aI2179
aI43
aI63
aI3
aI28431
aI7
aI2157
aI4624
aI75
aI39939
aI27257
aI122
aI4850
asS'ori'
p6
S'This house believes that the leaking of military documents by Anat Kamm was justified'
p7
ssS'output'
p8
(dp9
g4
(lp10
I366
aI193
aI3587
aI30342
aI3722
aI2201
aI19
aI211
aI19982
aI14
aI2394
aI3815
aI30341
aI1687
aI63
aI3
aI2465
aI7
aI211
aI63765
asg6
S'After providing 24-hour notification  American-owned EveryDNS dropped WikiLeaks from its entries on 2 December 2010  citing DDoS attacks that "threatened the stability of its infrastructure"  .'
p11
ss.