(dp1
S'input'
p2
(dp3
S'encoded'
p4
(lp5
I64
aI2179
aI394
aI2017
aI628
asS'ori'
p6
S'This house would ban gambling'
p7
ssS'output'
p8
(dp9
g4
(lp10
I24
aI77
aI2203
aI1155
aI3
aI2145
aI63765
aI3
aI744
aI4712
aI45
aI4574
aI291
aI51
aI7777
aI5458
aI5
aI89
aI5458
aI63765
asg6
S'In certain countries  mainly the U .S .  the winner gets to choose between an annuity payment and a one-time payment .'
p11
ss.