(dp1
S'input'
p2
(dp3
S'encoded'
p4
(lp5
I64
aI2179
aI394
aI2976
aI12243
aI24
aI954
aI126
aI1560
aI10723
asS'ori'
p6
S'This house would implement playoffs in collegiate level American football'
p7
ssS'output'
p8
(dp9
g4
(lp10
I273
aI122
aI89
aI1425
aI532
aI7
aI2198
aI1858
aI3
aI34959
aI20731
aI11276
aI35030
aI63765
asg6
S'There was a tremendous amount of criticism surrounding the 2010 Fiesta Bowl team pairing .'
p11
ss.