(dp1
S'input'
p2
(dp3
S'encoded'
p4
(lp5
I64
aI2179
aI43
aI63
aI134
aI116
aI400
aI21
aI34
aI3
aI260
aI45
aI3439
aI57
aI7
aI2381
asS'ori'
p6
S'This house believes that it is sometimes right for the government to restrict freedom of speech'
p7
ssS'output'
p8
(dp9
g4
(lp10
I24
aI3
aI2668
aI7
aI3
aI14653
aI7
aI285
aI2223
aI2236
aI273
aI122
aI2322
aI1411
aI24
aI3
aI17
aI5
aI976
aI1795
aI7
aI2445
aI2446
aI41
aI2378
aI2379
aI63765
asg6
S'In the aftermath of the atrocities of World War II there was increased concern in the social and legal protection of human rights as fundamental freedoms .'
p11
ss.