(dp1
S'input'
p2
(dp3
S'encoded'
p4
(lp5
I64
aI2179
aI394
aI5284
aI150
aI3987
asS'ori'
p6
S'This house would reintroduce national service'
p7
ssS'output'
p8
(dp9
g4
(lp10
I116
aI51
aI1222
aI45
aI881
aI2157
aI32020
aI19
aI39643
aI3180
aI736
aI3
aI2157
aI63765
asg6
S'Counter-recruitment is an attempt to prevent military recruiters from enlisting civilians into the military .'
p11
ss.