(dp1
S'input'
p2
(dp3
S'encoded'
p4
(lp5
I64
aI2179
aI43
aI24
aI3
aI475
aI7
aI12436
aI3364
asS'ori'
p6
S'This house believes in the use of affirmative action'
p7
ssS'output'
p8
(dp9
g4
(lp10
I3
aI626
aI187
aI7
aI875
aI98
aI99
aI7246
aI351
aI2514
aI45
aI3582
aI249
aI459
aI3500
aI92
aI134
aI3293
aI41
aI5993
aI60
aI57
aI7
aI4640
aI63765
asg6
S'The United States of America does not accept any obligation to enact measures under Article 4  which it views as incompatible with freedom of expression  .'
p11
ss.