(dp1
S'input'
p2
(dp3
S'encoded'
p4
(lp5
I64
aI2179
aI43
aI63
aI6670
aI546
aI417
aI316
aI89
aI1334
aI3108
aI7
aI4849
aI1886
aI2855
asS'ori'
p6
S'This house believes that wind power should be a primary focus of future energy supply'
p7
ssS'output'
p8
(dp9
g4
(lp10
I64
aI1623
aI47
aI501
aI14184
aI45
aI6995
aI3
aI918
aI7
aI89
aI6670
aI6677
aI14
aI89
aI2964
aI145
aI751
aI2955
aI508
aI1443
aI15263
aI7
aI3
aI5109
aI73
aI113
aI3
aI1263
aI6670
aI6677
aI45
aI1292
aI4099
aI6788
aI14
aI3
aI2964
aI145
aI63765
asg6
S'This tool will allow developers to predict the impact of a wind farm on a radar system before construction  thus allowing rearrangement of the turbines or even the entire wind farm to avoid negative impacts on the radar system  .'
p11
ss.