(dp1
S'input'
p2
(dp3
S'encoded'
p4
(lp5
I64
aI2179
aI43
aI63
aI11083
aI10046
aI417
aI316
aI89
aI3135
aI4603
asS'ori'
p6
S'This house believes that Holocaust denial should be a criminal offence'
p7
ssS'output'
p8
(dp9
g4
(lp10
I174
aI3
aI2132
aI7
aI516
aI16643
aI45
aI3
aI2533
aI14
aI12756
aI3211
aI2286
aI3
aI7795
aI7
aI1647
aI7
aI89
aI12395
aI5
aI28895
aI580
aI860
aI620
aI5226
aI2938
aI1501
aI51
aI3500
aI3234
aI10046
aI2901
aI52594
aI4268
aI73
aI3566
aI7
aI8579
aI73
aI4212
aI493
aI7275
aI1381
aI64
aI98
aI99
aI11
aI3
aI2554
aI7
aI70
aI63765
asg6
S"Also  the Council of Europe's 2003 Additional Protocol to the Convention on Cyber Crime  concerning the prosecution of acts of a racist and xenophobic nature committed through computer systems includes an article entitled Denial  gross minimisation  approval or justification of genocide or crimes against humanity  although this does not have the status of law ."
p11
ss.