(dp1
S'input'
p2
(dp3
S'encoded'
p4
(lp5
I64
aI2179
aI394
aI2017
aI628
asS'ori'
p6
S'This house would ban gambling'
p7
ssS'output'
p8
(dp9
g4
(lp10
I64
aI3487
aI47
aI7397
aI187
aI45
aI8052
aI24
aI89
aI232
aI63
aI116
aI13549
aI63765
asg6
S'This aspect will attract states to invest in a institution that is basically recession-proof .'
p11
ss.