(dp1
S'input'
p2
(dp3
S'encoded'
p4
(lp5
I64
aI2179
aI43
aI63
aI2157
aI2565
aI493
aI19084
aI382
aI4850
asS'ori'
p6
S"This house believes that Israel's 2008-2009 military operations against Gaza were justified"
p7
ssS'output'
p8
(dp9
g4
(lp10
I425
aI19088
aI1863
aI34
aI658
aI3357
aI7
aI16618
aI4406
aI7
aI11994
aI19
aI19084
aI311
aI226
aI182
aI24
aI1561
aI63765
asg6
S'January 2010 Palestinian Center for Public Opinion (PCPO) poll: 62 .2% of Palestinians oppose "the re-firing of Al-Qassam rockets from Gaza at Israel" while 29 .1% are in favor  .'
p11
ss.