(dp1
S'input'
p2
(dp3
S'encoded'
p4
(lp5
I64
aI2179
aI43
aI63
aI3376
aI4938
aI417
aI316
aI3537
asS'ori'
p6
S'This house believes that endangered species should be protected'
p7
ssS'output'
p8
(dp9
g4
(lp10
I574
aI4622
aI55
aI89
aI3014
aI5
aI89
aI1025
aI34
aI773
asg6
S'each organism has a purpose and a reason for being'
p11
ss.