(dp1
S'input'
p2
(dp3
S'encoded'
p4
(lp5
I64
aI2179
aI394
aI60
aI23587
asS'ori'
p6
S'This house would re-engage with Myanmar'
p7
ssS'output'
p8
(dp9
g4
(lp10
I2164
aI12451
aI263
aI14
aI23587
aI45
aI84
aI12970
aI34
aI2328
aI263
aI375
aI45
aI4515
aI41475
aI4347
aI41476
aI41477
aI5
aI2200
aI3
aI6073
aI45
aI18332
aI2800
aI4604
aI2984
aI5728
aI48413
aI45
aI23587
aI63765
asg6
S'- President Gloria Macapagal-Arroyo called on Myanmar to take steps for democracy  called again to release Aung San Suu Kyi and asked the junta to invite UN Special Envoy Ibrahim Gambari to Myanmar  .'
p11
ss.