(dp1
S'input'
p2
(dp3
S'encoded'
p4
(lp5
I64
aI2179
aI43
aI63
aI3
aI4538
aI7
aI4434
aI7793
aI283
aI45
aI3586
aI417
aI316
aI577
asS'ori'
p6
S'This house believes that the sale of violent video games to minors should be banned'
p7
ssS'output'
p8
(dp9
g4
(lp10
I10613
aI57029
aI89
aI319
aI2125
aI89
aI15654
aI3
aI7740
aI30076
aI24501
aI45916
aI5
aI23374
aI24
aI128
aI45
aI57030
aI45
aI10613
aI2240
aI63765
asg6
S'Sunday Funday - A game featuring a non-violent main-character wherein the player avoids bullies  clowns  and businessmen in order to skateboard to Sunday school .'
p11
ss.