(dp1
S'input'
p2
(dp3
S'encoded'
p4
(lp5
I64
aI2179
aI394
aI1499
aI177
aI1819
aI34
aI160
asS'ori'
p6
S'This house would build high rises for housing'
p7
ssS'output'
p8
(dp9
g4
(lp10
I6941
aI3281
aI24
aI86
aI5
aI182
aI162
aI39493
aI75
aI4662
aI63765
asg6
S'White-collar workers live in them and are usually renters by choice .'
p11
ss.