(dp1
S'input'
p2
(dp3
S'encoded'
p4
(lp5
I64
aI2179
aI43
aI63
aI2157
aI2565
aI493
aI19084
aI382
aI4850
asS'ori'
p6
S"This house believes that Israel's 2008-2009 military operations against Gaza were justified"
p7
ssS'output'
p8
(dp9
g4
(lp10
I24
aI3
aI2668
aI7
aI3
aI2979
aI9318
aI3017
aI2436
aI1597
aI5
aI2135
aI2323
aI440
aI12
aI7554
aI25724
aI63765
asg6
S"In the aftermath of the crisis  observers suggested Israel's diplomatic position and foreign reputation had been permanently tainted ."
p11
ss.