(dp1
S'input'
p2
(dp3
S'encoded'
p4
(lp5
I64
aI2179
aI43
aI63
aI3
aI21
aI45
aI12715
aI417
aI99
aI316
aI2897
asS'ori'
p6
S'This house believes that the right to asylum should not be absolute'
p7
ssS'output'
p8
(dp9
g4
(lp10
I366
aI667
aI11802
aI7
aI9901
aI45
aI3
aI1565
aI2131
aI2388
aI2789
aI11
aI153
aI451
aI249
aI45
aI3439
aI7600
aI24
aI5428
aI3210
aI75
aI2144
aI7
aI3
aI667
aI187
aI63765
asg6
S'After 155 new waves of accession to the European Union  earlier members have often introduced measures to restrict participation in "their" labour markets by citizens of the new EU-member states .'
p11
ss.