(dp1
S'input'
p2
(dp3
S'encoded'
p4
(lp5
I64
aI2179
aI43
aI63
aI3
aI21
aI45
aI12715
aI417
aI99
aI316
aI2897
asS'ori'
p6
S'This house believes that the right to asylum should not be absolute'
p7
ssS'output'
p8
(dp9
g4
(lp10
I64
aI7117
aI89
aI8126
aI7
aI2120
aI92
aI2686
aI3
aI658
aI2156
aI2180
aI5005
aI34
aI1706
aI17040
aI63765
asg6
S'This triggered a chain of events which involved the Public Accounts Committee asking for further clarification .'
p11
ss.