(dp1
S'input'
p2
(dp3
S'encoded'
p4
(lp5
I64
aI2179
aI43
aI63
aI134
aI116
aI400
aI21
aI34
aI3
aI260
aI45
aI3439
aI57
aI7
aI2381
asS'ori'
p6
S'This house believes that it is sometimes right for the government to restrict freedom of speech'
p7
ssS'output'
p8
(dp9
g4
(lp10
I378
aI3
aI2457
aI7
aI14984
aI3953
aI5387
aI2929
aI545
aI14984
aI2929
aI5
aI3
aI7147
aI11
aI19161
aI64
aI143
aI691
aI273
aI182
aI13074
aI7
aI1197
aI34
aI7776
aI147
aI45
aI163
aI658
aI7217
aI14
aI726
aI214
aI311
aI982
aI73
aI443
aI5084
aI63765
asg6
S'However  the proliferation of cable television  multiple channels within cable  public-access channels  and the Internet have eroded this argument  since there are plenty of places for ordinary individuals to make public comments on controversial issues at low or no cost .'
p11
ss.