(dp1
S'input'
p2
(dp3
S'encoded'
p4
(lp5
I64
aI2179
aI43
aI63
aI3
aI4538
aI7
aI4434
aI7793
aI283
aI45
aI3586
aI417
aI316
aI577
asS'ori'
p6
S'This house believes that the sale of violent video games to minors should be banned'
p7
ssS'output'
p8
(dp9
g4
(lp10
I8732
aI10518
aI99
aI8707
aI75
aI8732
aI19754
aI397
aI2891
aI139
aI154
aI271
aI998
aI736
aI5162
aI4430
aI7
aI5226
aI5
aI7793
aI283
aI63765
asg6
S'Software errors not detected by software testers during development can find their way into released versions of computer and video games .'
p11
ss.