(dp1
S'input'
p2
(dp3
S'encoded'
p4
(lp5
I64
aI2179
aI394
aI15841
aI2736
asS'ori'
p6
S'This house would disband ASEAN'
p7
ssS'output'
p8
(dp9
g4
(lp10
I46
aI24
aI132
aI2506
aI3
aI905
aI187
aI463
aI3209
aI2736
aI2258
aI75
aI588
aI45
aI2900
aI5
aI2900
aI3839
aI63765
asg6
S'Reform in these areas  the report states  could expand ASEAN trade by up to 7 .5 percent ($22 billion) and 5 .7 percent ($17 billion)  respectively .'
p11
ss.