(dp1
S'input'
p2
(dp3
S'encoded'
p4
(lp5
I64
aI2179
aI43
aI8629
aI116
aI3
aI117
aI998
asS'ori'
p6
S'This house believes atheism is the only way'
p7
ssS'output'
p8
(dp9
g4
(lp10
I20423
aI89
aI696
aI7
aI6834
aI60
aI2767
aI2247
aI14594
aI3470
aI2642
aI3741
aI3417
aI182
aI34688
aI15848
aI73
aI866
aI3
aI3707
aI7
aI20604
aI116
aI1518
aI6679
aI60
aI1671
aI2767
aI34689
aI3475
aI6679
aI60
aI8629
aI63765
asg6
S'Referencing a number of scientists with religious faith  Gould wrote  "Either half my colleagues are enormously stupid  or else the science of Darwinism is fully compatible with conventional religious beliefsand equally compatible with atheism .'
p11
ss.