(dp1
S'input'
p2
(dp3
S'encoded'
p4
(lp5
I64
aI2179
aI394
aI2773
aI12505
asS'ori'
p6
S'This house would embrace multiculturalism'
p7
ssS'output'
p8
(dp9
g4
(lp10
I2643
aI24
aI2678
aI89
aI2637
aI19853
aI11644
aI116
aI4782
aI53
aI384
aI2678
aI2812
aI3136
aI182
aI6919
aI1544
aI45
aI1499
aI89
aI667
aI20349
aI12909
aI5688
aI7
aI9420
aI19844
aI24
aI2678
aI2643
aI990
aI3838
aI3
aI5545
aI62610
aI3914
aI92
aI62614
aI34
aI20349
aI63765
asg6
S'Today in Afghanistan  a cultural melting pot is occurring where different Afghanistan ethnic groups are mixing together to build a new Afghan ethnicity composed of preceding ethnicities in Afghanistan today  ultimately replacing the old Pashtun identity which standed for Afghan .'
p11
ss.