(dp1
S'input'
p2
(dp3
S'encoded'
p4
(lp5
I64
aI2179
aI43
aI17
aI4941
aI857
aI3211
asS'ori'
p6
S'This house believes social deprivation causes crime'
p7
ssS'output'
p8
(dp9
g4
(lp10
I257
aI89
aI2923
aI2922
aI622
aI19
aI93
aI3370
aI5
aI3525
aI864
aI211
aI3101
aI2565
aI273
aI5
aI24
aI100
aI248
aI778
aI134
aI116
aI282
aI114
aI134
aI88
aI316
aI4620
aI45
aI475
aI3
aI2497
aI7181
aI117
aI45
aI14276
aI3
aI4948
aI7
aI89
aI281
aI3211
aI94
aI63
aI116
aI24610
aI24
aI443
aI93
aI3370
aI131
aI5157
aI24
aI725
aI63765
asg6
S"If a network operates primarily from one jurisdiction and carries out its illicit operations there and in some other jurisdictions it is international ' though it may be appropriate to use the term transnational only to label the activities of a major crime group that is centred in no one jurisdiction but operating in many ."
p11
ss.