(dp1
S'input'
p2
(dp3
S'encoded'
p4
(lp5
I64
aI2179
aI43
aI63
aI2157
aI2565
aI493
aI19084
aI382
aI4850
asS'ori'
p6
S"This house believes that Israel's 2008-2009 military operations against Gaza were justified"
p7
ssS'output'
p8
(dp9
g4
(lp10
I46387
aI2164
aI16965
aI46388
aI55
aI263
aI14
aI2789
aI7
aI3
aI2445
aI45
aI544
aI588
aI493
aI11083
aI63
aI55
aI12
aI32820
aI14
aI3
aI17107
aI16618
aI564
aI969
aI2445
aI10941
aI5
aI21
aI45
aI2468
aI5
aI46389
aI3524
aI24
aI271
aI284
aI2696
aI182
aI773
aI46390
aI10048
aI60
aI13418
asg6
S'|- Gambian President Yahya Jammeh has called on "civilised members of the human race" to rise up against "this holocaust that has been unleashed on the helpless Palestinians  whose lands  human dignity and right to peaceful and dignified existence in their own country are being blatantly violated with impunity ."'
p11
ss.