(dp1
S'input'
p2
(dp3
S'encoded'
p4
(lp5
I64
aI2179
aI394
aI2998
aI3
aI4360
aI7
aI3249
aI6804
aI24
aI3
aI102
asS'ori'
p6
S'This house would encourage the creation of private universities in the UK'
p7
ssS'output'
p8
(dp9
g4
(lp10
I220
aI139
aI5918
aI137
aI24
aI3
aI2351
aI3210
aI217
aI7417
aI45
aI45
aI7762
aI63765
asg6
S'Governments can raise money in the financial markets most cheaply to re-lend to state-owned enterprises .'
p11
ss.