(dp1
S'input'
p2
(dp3
S'encoded'
p4
(lp5
I64
aI2179
aI394
aI190
aI3
aI21
aI45
aI3895
aI834
asS'ori'
p6
S'This house would limit the right to bear arms'
p7
ssS'output'
p8
(dp9
g4
(lp10
I24
aI1147
aI17352
aI26
aI89
aI10079
aI19
aI17353
aI17354
aI17355
aI63
aI7228
aI3
aI3982
aI7
aI834
aI63765
aI63765
aI4115
aI117
aI120
aI81
aI182
aI880
aI13372
aI3646
aI695
aI45
aI4447
aI4212
aI63765
aI63765
aI159
aI2511
aI163
aI194
aI3150
aI34
aI3
aI17356
aI5
aI1796
aI34
aI3
aI155
aI2830
aI958
aI45
aI2998
aI138
aI45
aI881
aI4436
aI34
aI51
aI17357
aI460
aI88
aI316
aI2552
aI60
aI595
aI2748
aI138
aI51
aI2218
aI460
asg6
S'in Thomas Jeffersons "Commonplace Book " a quote from Cesare Beccaria reads  "laws that forbid the carrying of arms  . . disarm only those who are neither inclined nor determined to commit crimes  . . Such laws make things worse for the assaulted and better for the assailants; they serve rather to encourage than to prevent homicides  for an unarmed man may be attacked with greater confidence than an armed man ."'
p11
ss.