(dp1
S'input'
p2
(dp3
S'encoded'
p4
(lp5
I64
aI2179
aI43
aI63
aI3
aI4538
aI7
aI4434
aI7793
aI283
aI45
aI3586
aI417
aI316
aI577
asS'ori'
p6
S'This house believes that the sale of violent video games to minors should be banned'
p7
ssS'output'
p8
(dp9
g4
(lp10
I2460
aI133
aI63
aI604
aI3
aI2483
aI244
aI45
aI3383
aI64
aI33
aI273
aI182
aI1901
aI3369
aI291
aI3
aI1795
aI7
aI1260
aI2381
aI19
aI3
aI237
aI3264
aI5
aI3
aI976
aI3353
aI7
aI1771
aI3586
aI19
aI1768
aI1260
aI2381
aI159
aI41
aI620
aI2051
aI14
aI3
aI2612
aI7
aI7230
aI45
aI3586
aI63765
asg6
S'Analysts believe that because the Court agreed to hear this case  there are unanswered questions between the protection of free speech from the First Amendment  and the legal enforcement of protecting minors from unprotected free speech such as through restrictions on the sales of pornography to minors  .'
p11
ss.