(dp1
S'input'
p2
(dp3
S'encoded'
p4
(lp5
I64
aI2179
aI43
aI63
aI3
aI28431
aI7
aI2157
aI4624
aI75
aI39939
aI27257
aI122
aI4850
asS'ori'
p6
S'This house believes that the leaking of military documents by Anat Kamm was justified'
p7
ssS'output'
p8
(dp9
g4
(lp10
I20850
aI116
aI923
aI1563
aI4694
aI34
aI9792
aI28431
aI3
aI492
aI5765
aI20352
aI7793
aI2201
aI5162
aI41
aI6606
aI4257
aI63765
asg6
S'Manning is currently facing charges for allegedly leaking the 12 July 2007  Baghdad airstrike video Wikileaks released as Collateral Murder .'
p11
ss.