(dp1
S'input'
p2
(dp3
S'encoded'
p4
(lp5
I64
aI2179
aI43
aI63
aI188
aI220
aI417
aI1619
aI4275
aI45
aI713
aI14799
aI7533
aI311
aI3
aI3721
aI5145
asS'ori'
p6
S'This house believes that democratic governments should require voters to present photo identification at the polling station'
p7
ssS'output'
p8
(dp9
g4
(lp10
I7532
aI7251
aI463
aI316
aI324
aI1112
aI257
aI89
aI4229
aI532
aI7
aI4275
aI182
aI16641
aI4205
aI604
aI3
aI7532
aI876
aI99
aI358
aI25
aI73
aI732
aI1107
aI2490
aI1185
aI63765
asg6
S'Voter suppression could be particularly effective if a significant amount of voters are intimidated individually because the voter might not consider his or her single vote important .'
p11
ss.