(dp1
S'input'
p2
(dp3
S'encoded'
p4
(lp5
I64
aI2179
aI43
aI63
aI3376
aI4938
aI417
aI316
aI3537
asS'ori'
p6
S'This house believes that endangered species should be protected'
p7
ssS'output'
p8
(dp9
g4
(lp10
I24
aI68
aI41
aI3
aI2764
aI2598
aI4696
aI7884
aI7408
aI2448
aI47
aI1068
aI45
aI3226
aI75
aI311
aI870
aI289
aI3
aI1608
aI2439
aI63765
asg6
S'In fact  as the worlds population increases dramatically  agricultural output will need to increase by at least 50%  over the next 30 years  .'
p11
ss.