(dp1
S'input'
p2
(dp3
S'encoded'
p4
(lp5
I64
aI2179
aI43
aI63
aI2157
aI2565
aI493
aI19084
aI382
aI4850
asS'ori'
p6
S"This house believes that Israel's 2008-2009 military operations against Gaza were justified"
p7
ssS'output'
p8
(dp9
g4
(lp10
I41
aI51
aI2233
aI154
aI63
aI90
aI7
aI3364
aI45
aI316
aI419
aI419
aI5698
aI5
aI419
aI5005
aI3
aI8746
aI45
aI3868
aI14
aI120
aI8613
aI63765
asg6
S'As an ex-soldier I find that kind of action to be very  very strange and very unique"  asking the witness to comment on those insights  .'
p11
ss.