(dp1
S'input'
p2
(dp3
S'encoded'
p4
(lp5
I64
aI2179
aI394
aI5842
aI3569
aI446
aI13498
asS'ori'
p6
S'This house would introduce year round schooling'
p7
ssS'output'
p8
(dp9
g4
(lp10
I3424
aI12931
aI116
aI89
aI639
aI298
aI4358
aI2994
aI7
aI5018
aI2891
aI7936
aI1353
aI45
aI3
aI2240
aI3569
asg6
S'summer vacation is a period when students rate of academic development declines relative to the school year'
p11
ss.