(dp1
S'input'
p2
(dp3
S'encoded'
p4
(lp5
I64
aI2179
aI43
aI63
aI187
aI417
aI99
aI16642
aI3
aI6449
aI7
aI3935
asS'ori'
p6
S'This house believes that states should not subsidize the growing of tobacco'
p7
ssS'output'
p8
(dp9
g4
(lp10
I3
aI831
aI45
aI1690
aI3
aI2017
aI116
aI2031
aI75
aI22589
aI3136
aI5
aI3
aI4137
aI4758
aI7
aI2039
aI41
aI3
aI3385
aI14816
aI92
aI3
aI5938
aI116
aI3438
aI45
aI5842
aI117
aI41575
aI4696
aI3
aI2038
aI7
aI25202
aI5057
aI131
aI99
aI7
aI3385
aI73
aI14834
aI5057
aI63765
asg6
S"The move to lift the ban is supported by antismoking groups and the Royal College of Physicians  as the oral snuff which the industry is attempting to introduce only verifiably increases the user's risk of pancreatic cancer  but not of oral or lung cancer ."
p11
ss.