(dp1
S'input'
p2
(dp3
S'encoded'
p4
(lp5
I64
aI2179
aI394
aI2017
aI223
aI9058
aI23653
asS'ori'
p6
S'This house would ban all unsustainable logging'
p7
ssS'output'
p8
(dp9
g4
(lp10
I51
aI3226
aI24
aI3
aI126
aI7
aI4724
aI7
aI52628
aI16055
aI60
aI3
aI2083
aI26435
aI1361
aI63
aI6570
aI24
aI3
aI10070
aI3162
aI55
aI1630
aI45
aI3
aI1500
aI7
aI3
aI725
aI14895
aI3300
aI24
aI21993
aI63765
asg6
S'An increase in the level of awareness of Malaysians compounded with the local folk belief that existed in the indigenous populations (see Semai) has added to the strength of the many Malaysian movements in environmentalism .'
p11
ss.