(dp1
S'input'
p2
(dp3
S'encoded'
p4
(lp5
I64
aI2179
aI43
aI63
aI820
aI12564
aI182
aI3
aI217
aI1112
aI1869
aI7
aI10656
aI4672
aI34
aI5276
asS'ori'
p6
S'This house believes that open primaries are the most effective method of selecting candidates for elections'
p7
ssS'output'
p8
(dp9
g4
(lp10
I378
aI3
aI3524
aI7
aI913
aI5814
aI5334
aI139
aI316
aI2428
aI45
aI3226
aI3
aI5229
aI7
aI3
aI4672
aI2990
aI604
aI134
aI1040
aI736
aI404
aI99
aI1640
aI3
aI7
aI3
aI4672
aI131
aI174
aI3
aI12623
aI63765
asg6
S'However the existence of limited tactical voting can be thought to increase the quality of the candidates elected because it takes into account not just the "ranking" of the candidates but also the utilities .'
p11
ss.