(dp1
S'input'
p2
(dp3
S'encoded'
p4
(lp5
I64
aI2179
aI394
aI163
aI959
aI2042
aI3557
asS'ori'
p6
S'This house would make physical education compulsory'
p7
ssS'output'
p8
(dp9
g4
(lp10
I273
aI182
aI89
aI157
aI7
aI4656
aI2686
aI24
aI188
aI2042
aI63765
asg6
S'There are a variety of components involved in democratic education .'
p11
ss.