(dp1
S'input'
p2
(dp3
S'encoded'
p4
(lp5
I64
aI2179
aI43
aI63
aI134
aI116
aI400
aI21
aI34
aI3
aI260
aI45
aI3439
aI57
aI7
aI2381
asS'ori'
p6
S'This house believes that it is sometimes right for the government to restrict freedom of speech'
p7
ssS'output'
p8
(dp9
g4
(lp10
I77
aI274
aI7
aI2381
aI159
aI41
aI25590
aI5
aI20787
aI182
aI2499
aI24
aI281
aI897
aI898
aI75
aI3
aI260
aI73
aI75
aI3
aI5938
aI14
aI211
aI284
aI63765
asg6
S'Certain forms of speech  such as obscenity and defamation  are restricted in major media outlets by the government or by the industry on its own .'
p11
ss.