(dp1
S'input'
p2
(dp3
S'encoded'
p4
(lp5
I64
aI2179
aI43
aI223
aI2138
aI11
aI89
aI21
aI45
aI2185
aI372
asS'ori'
p6
S'This house believes all nations have a right to nuclear weapons'
p7
ssS'output'
p8
(dp9
g4
(lp10
I42
aI55
aI5546
aI3
aI27120
aI5
aI2143
aI7
aI1430
aI5235
aI19
aI3
aI3198
aI2185
aI10763
aI2439
aI4500
aI45
aI454
aI3
aI63765
asg6
S'He has accused the IAEA and corporations of "wilfully ignoring lessons from the world\'s worst nuclear accident 25 years ago to protect the industry\'s expansion"  .'
p11
ss.