(dp1
S'input'
p2
(dp3
S'encoded'
p4
(lp5
I64
aI2179
aI394
aI5370
aI3
aI5286
asS'ori'
p6
S'This house would abolish the monarchy'
p7
ssS'output'
p8
(dp9
g4
(lp10
I378
aI273
aI182
aI89
aI696
aI7
aI229
aI8850
aI81
aI1170
aI5455
aI7
aI3
aI5286
aI63765
asg6
S'However  there are a number of individual politicians who favour abolition of the monarchy .'
p11
ss.