(dp1
S'input'
p2
(dp3
S'encoded'
p4
(lp5
I64
aI2179
aI43
aI63
aI3
aI28431
aI7
aI2157
aI4624
aI75
aI39939
aI27257
aI122
aI4850
asS'ori'
p6
S'This house believes that the leaking of military documents by Anat Kamm was justified'
p7
ssS'output'
p8
(dp9
g4
(lp10
I1237
aI2482
aI2483
aI3052
aI11
aI2623
aI685
aI63
aI3
aI1560
aI2475
aI236
aI3
aI7
aI4272
aI2754
aI5224
aI2396
aI3
aI6383
aI500
aI99
aI777
aI1746
aI351
aI2511
aI24
aI10443
aI134
aI63765
asg6
S'Several Supreme Court cases have previously established that the American constitution protects the re-publication of illegally gained information provided the publishers did not themselves break any laws in acquiring it  .'
p11
ss.