(dp1
S'input'
p2
(dp3
S'encoded'
p4
(lp5
I64
aI2179
aI235
aI3
aI2136
aI7
aI3
aI2306
aI7
aI2390
asS'ori'
p6
S'This house supports the one-child policy of the republic of China'
p7
ssS'output'
p8
(dp9
g4
(lp10
I24
aI3
aI8447
aI2824
aI291
aI2598
aI708
aI3552
aI5
aI3217
aI3727
aI81
aI5182
aI3760
aI2446
aI41
aI759
aI7
aI89
aI2445
aI1039
aI63765
asg6
S"In the 1980s  tension grew between population control advocates and women's health activists who advanced women's reproductive rights as part of a human rights-based approach  ."
p11
ss.