(dp1
S'input'
p2
(dp3
S'encoded'
p4
(lp5
I64
aI2179
aI394
aI163
aI959
aI2042
aI3557
asS'ori'
p6
S'This house would make physical education compulsory'
p7
ssS'output'
p8
(dp9
g4
(lp10
I9983
aI5
aI1949
aI959
aI5982
aI13459
aI3
aI12632
aI145
asg6
S'Frequent and regular physical exercise boosts the immune system'
p11
ss.