(dp1
S'input'
p2
(dp3
S'encoded'
p4
(lp5
I64
aI2179
aI43
aI223
aI2138
aI11
aI89
aI21
aI45
aI2185
aI372
asS'ori'
p6
S'This house believes all nations have a right to nuclear weapons'
p7
ssS'output'
p8
(dp9
g4
(lp10
I134
aI122
aI1360
aI5810
aI45
aI11
aI839
aI3186
aI7
aI3
aI260
aI7
aI2661
aI63765
asg6
S'It was widely believed to have direct involvement of the government of Pakistan .'
p11
ss.