(dp1
S'input'
p2
(dp3
S'encoded'
p4
(lp5
I64
aI2179
aI43
aI63
aI2659
aI417
aI1690
aI3
aI12048
aI7
aI19084
asS'ori'
p6
S'This house believes that Israel should lift the blockade of Gaza'
p7
ssS'output'
p8
(dp9
g4
(lp10
I2999
aI25189
aI418
aI63
aI3
aI2800
aI125
aI2747
aI14
aI3
aI475
aI7
aI972
aI3892
aI75
aI70
aI3353
aI116
aI99
aI282
aI70
aI131
aI958
aI8371
aI45
aI3840
aI34
aI25753
aI2203
aI60
aI4729
aI5717
aI631
aI2219
aI5
aI98
aI99
aI1416
aI45
aI89
aI2157
aI3099
aI63765
asg6
S'Professor Posner noted that the "1990 UN Basic Principles on the Use of Force & Firearms by Law Enforcement Officials" is not international law  but rather akin to vague "best practices" for advising countries with poorly trained police forces  and does not apply to a military operation  .'
p11
ss.