(dp1
S'input'
p2
(dp3
S'encoded'
p4
(lp5
I64
aI2179
aI43
aI63
aI7382
aI116
aI400
aI4713
asS'ori'
p6
S'This house believes that bribery is sometimes acceptable'
p7
ssS'output'
p8
(dp9
g4
(lp10
I23201
aI34
aI1343
aI116
aI513
aI7382
aI24
aI100
aI5989
aI226
aI24
aI80
aI3
aI267
aI8257
aI88
aI99
aI316
aI12914
aI63765
asg6
S'Tipping  for example  is considered bribery in some societies  while in others the two concepts may not be interchangeable .'
p11
ss.