(dp1
S'input'
p2
(dp3
S'encoded'
p4
(lp5
I64
aI2179
aI43
aI63
aI6670
aI546
aI417
aI316
aI89
aI1334
aI3108
aI7
aI4849
aI1886
aI2855
asS'ori'
p6
S'This house believes that wind power should be a primary focus of future energy supply'
p7
ssS'output'
p8
(dp9
g4
(lp10
I1251
aI5106
aI5122
aI4975
aI3
aI4204
aI5085
aI116
aI3493
aI75
aI1237
aI10564
aI158
aI3
aI5124
aI7
aI3
aI6670
aI311
aI3
aI3328
aI131
aI174
aI3
aI6725
aI206
aI89
aI1932
aI6725
aI394
aI316
aI9467
aI5
aI671
aI166
aI4204
aI5085
aI131
aI394
aI163
aI149
aI2881
aI24
aI177
aI6774
aI63765
asg6
S'Unlike fueled generating plants  the capacity factor is affected by several parameters  including the variability of the wind at the site  but also the generator size- having a smaller generator would be cheaper and achieve higher capacity factor  but would make less electricity (and money) in high winds  .'
p11
ss.