(dp1
S'input'
p2
(dp3
S'encoded'
p4
(lp5
I64
aI2179
aI394
aI4261
aI8667
aI3
aI9361
aI5
aI17069
asS'ori'
p6
S'This house would prohibit burning the stars and stripes'
p7
ssS'output'
p8
(dp9
g4
(lp10
I3404
aI174
aI1966
aI63
aI5449
aI8667
aI116
aI2888
aI759
aI7
aI351
aI43341
aI7
aI131
aI958
aI4968
aI7
aI51
aI43342
aI43343
aI73
aI43344
aI63
aI134
aI1721
aI569
aI45
aI3943
aI116
aI217
aI1856
aI45
aI316
aI17819
aI24
aI99
aI45
aI6564
aI351
aI1341
aI2096
aI131
aI45
aI43345
aI80
asg6
S'Rehnquist also argued that flag burning is "no essential part of any exposition of ideas" but rather "the equivalent of an inarticulate grunt or roar that  it seems fair to say  is most likely to be indulged in not to express any particular idea  but to antagonize others ."'
p11
ss.