(dp1
S'input'
p2
(dp3
S'encoded'
p4
(lp5
I64
aI2179
aI394
aI117
aI7428
aI21151
aI34
aI11389
aI2042
aI24
aI4364
asS'ori'
p6
S'This house would only teach abstinence for sex education in schools'
p7
ssS'output'
p8
(dp9
g4
(lp10
I652
aI1811
aI88
aI316
aI7
aI1182
aI161
aI45
aI132
aI147
aI63765
asg6
S'Harm reduction may be of substantial benefit to these individuals .'
p11
ss.