(dp1
S'input'
p2
(dp3
S'encoded'
p4
(lp5
I64
aI2179
aI43
aI63
aI187
aI417
aI99
aI16642
aI3
aI6449
aI7
aI3935
asS'ori'
p6
S'This house believes that states should not subsidize the growing of tobacco'
p7
ssS'output'
p8
(dp9
g4
(lp10
I4628
aI6033
aI139
aI2931
aI113
aI257
aI3
aI2835
aI116
aI419
aI913
aI73
aI23232
aI3951
aI366
aI117
aI9257
aI24
aI217
aI20123
aI63765
asg6
S"Withdrawal symptoms can appear even if the smoker's consumption is very limited or irregular  appearing after only 45 cigarettes in most adolescents ."
p11
ss.