(dp1
S'input'
p2
(dp3
S'encoded'
p4
(lp5
I64
aI2179
aI43
aI223
aI2138
aI11
aI89
aI21
aI45
aI2185
aI372
asS'ori'
p6
S'This house believes all nations have a right to nuclear weapons'
p7
ssS'output'
p8
(dp9
g4
(lp10
I3
aI2145
aI63765
aI2164
aI17201
aI3
aI1649
aI7
aI2185
aI13253
aI4656
aI45
aI3
aI102
aI291
aI5
aI63765
asg6
S'The U .S . President authorised the transfer of nuclear warhead components to the UK between 1991 and 1996  .'
p11
ss.