(dp1
S'input'
p2
(dp3
S'encoded'
p4
(lp5
I64
aI2179
aI43
aI17
aI4941
aI857
aI3211
asS'ori'
p6
S'This house believes social deprivation causes crime'
p7
ssS'output'
p8
(dp9
g4
(lp10
I3
aI217
aI279
aI8849
aI34
aI4091
aI7
aI2445
aI3139
aI182
aI2787
aI2371
aI2659
aI6065
aI3
aI3140
aI327
aI387
aI2670
aI5
aI3
aI626
aI187
aI233
aI45
aI89
aI905
aI75
aI22875
aI63765
asg6
S'The most common destinations for victims of human trafficking are Thailand  Japan  Israel  Belgium  the Netherlands  Germany  Italy  Turkey and the United States  according to a report by UNODC  .'
p11
ss.