(dp1
S'input'
p2
(dp3
S'encoded'
p4
(lp5
I64
aI2179
aI394
aI2017
aI223
aI9058
aI23653
asS'ori'
p6
S'This house would ban all unsustainable logging'
p7
ssS'output'
p8
(dp9
g4
(lp10
I22921
aI7
aI1445
aI2506
aI139
aI316
aI3818
aI620
aI3
aI475
aI7
aI7281
aI1506
aI4885
aI1344
aI5
aI43350
aI36748
aI43351
aI34
aI7319
aI3
aI2597
aI34
aI1609
aI3
aI18153
aI24
aI92
aI89
aI43352
aI73
aI1344
aI139
aI316
aI5193
aI63765
asg6
S'Reforestation of large areas can be done through the use of measuring rope (for accurate plant spacing) and ribbeds  (or wheeled augers for planting the larger trees) for making the hole in which a seedling or plant can be inserted .'
p11
ss.