(dp1
S'input'
p2
(dp3
S'encoded'
p4
(lp5
I64
aI2179
aI43
aI63
aI6670
aI546
aI417
aI316
aI89
aI1334
aI3108
aI7
aI4849
aI1886
aI2855
asS'ori'
p6
S'This house believes that wind power should be a primary focus of future energy supply'
p7
ssS'output'
p8
(dp9
g4
(lp10
I155
aI768
aI394
aI11
aI45
aI7771
aI63
aI546
aI311
aI89
aI7494
aI4363
aI75
aI271
aI10
aI5125
aI45
aI3629
aI3629
aI5084
aI116
aI3
aI5084
aI89
aI1683
aI36306
aI75
aI9147
aI64
aI546
aI71
aI45
aI1444
aI89
aI667
aI1344
aI7473
aI7
aI2352
aI5
aI5157
aI5136
aI7
aI3
aI47213
aI1344
aI63765
asg6
S'They then would have to buy that power at a price mandated by their state equal to avoided cost; avoided cost is the cost a utility escapes by purchasing this power  opposed to building a new plant  consisting of capital and operating costs of the forgone plant  .'
p11
ss.