(dp1
S'input'
p2
(dp3
S'encoded'
p4
(lp5
I64
aI2179
aI43
aI63
aI2659
aI417
aI1690
aI3
aI12048
aI7
aI19084
asS'ori'
p6
S'This house believes that Israel should lift the blockade of Gaza'
p7
ssS'output'
p8
(dp9
g4
(lp10
I18278
aI4290
aI17489
aI29776
aI81
aI122
aI2121
aI45
aI316
aI19363
aI3
aI19084
aI2194
aI19184
aI10693
aI3
aI1274
aI41
aI5
aI12618
aI493
aI17357
aI3180
aI63765
asg6
S'" Chilean Senator Alejandro Navarro  who was scheduled to be aboard the Gaza aid convoy  denounced the attack as "cowardly and disproportionate against unarmed civilians .'
p11
ss.