(dp1
S'input'
p2
(dp3
S'encoded'
p4
(lp5
I64
aI2179
aI43
aI63
aI2157
aI2565
aI493
aI19084
aI382
aI4850
asS'ori'
p6
S"This house believes that Israel's 2008-2009 military operations against Gaza were justified"
p7
ssS'output'
p8
(dp9
g4
(lp10
I3
aI758
aI7
aI3
aI2800
aI448
aI6293
aI6077
aI3
aI6056
aI1243
aI41
aI261
aI41
aI3
aI19708
aI7
aI11994
aI1636
aI2659
aI63765
asg6
S'"On the floor of the UN General Assembly  Chile "deplored the Israeli aggression  as well as the launching of rockets towards Israel .'
p11
ss.