(dp1
S'input'
p2
(dp3
S'encoded'
p4
(lp5
I64
aI2179
aI43
aI63
aI1036
aI4828
aI33250
aI116
aI25073
aI45
aI3315
aI4562
asS'ori'
p6
S'This house believes that male infant circumcision is tantamount to child abuse'
p7
ssS'output'
p8
(dp9
g4
(lp10
I217
aI3052
aI7
aI132
aI3020
aI2723
aI24
aI33239
aI5349
aI5
aI1466
aI45
aI7
aI33239
aI5716
aI63765
asg6
S'Most cases of these conditions occur in uncircumcised males  and affect 4 to 11% of uncircumcised boys  .'
p11
ss.