(dp1
S'input'
p2
(dp3
S'encoded'
p4
(lp5
I64
aI2179
aI43
aI223
aI2138
aI11
aI89
aI21
aI45
aI2185
aI372
asS'ori'
p6
S'This house believes all nations have a right to nuclear weapons'
p7
ssS'output'
p8
(dp9
g4
(lp10
I7371
aI7195
aI2978
aI223
aI41512
aI5
aI1681
aI1621
aI5
aI3
aI3142
aI7
aI5941
aI24
aI351
aI2185
aI5140
aI63765
asg6
S'Material Accountancy  tracking all inward and outward transfers and the flow of materials in any nuclear facility .'
p11
ss.