(dp1
S'input'
p2
(dp3
S'encoded'
p4
(lp5
I64
aI2179
aI43
aI63
aI2157
aI2565
aI493
aI19084
aI382
aI4850
asS'ori'
p6
S"This house believes that Israel's 2008-2009 military operations against Gaza were justified"
p7
ssS'output'
p8
(dp9
g4
(lp10
I3
aI16518
aI2100
aI987
aI45
aI1223
aI545
aI89
aI77
aI830
aI7
aI2418
aI12038
aI717
aI14
aI6450
aI45
aI3
aI2878
aI7
aI3
aI11994
aI63765
asg6
S'The instructions included orders to stay within a certain distance of bomb shelters based on proximity to the source of the rockets  .'
p11
ss.