(dp1
S'input'
p2
(dp3
S'encoded'
p4
(lp5
I64
aI2179
aI43
aI63
aI2157
aI2565
aI493
aI19084
aI382
aI4850
asS'ori'
p6
S"This house believes that Israel's 2008-2009 military operations against Gaza were justified"
p7
ssS'output'
p8
(dp9
g4
(lp10
I2164
aI12895
aI1272
aI2244
aI25
aI8326
aI60
aI3
aI19088
aI6619
aI5
aI4889
aI7038
aI4276
aI45
aI6261
aI3
aI4434
aI3089
aI53
aI155
aI3654
aI45
aI46477
aI3
aI3269
aI7511
aI7
aI89
aI3730
aI63765
asg6
S'|- President Hugo Chavez expressed his solidarity with the Palestinian peoples and proposes "a massive campaign to condemn the violent actions [by Israel] where they try to annihilate the life expectancy of a whole race"  .'
p11
ss.