(dp1
S'input'
p2
(dp3
S'encoded'
p4
(lp5
I64
aI2179
aI394
aI117
aI7428
aI21151
aI34
aI11389
aI2042
aI24
aI4364
asS'ori'
p6
S'This house would only teach abstinence for sex education in schools'
p7
ssS'output'
p8
(dp9
g4
(lp10
I120
aI3772
aI3773
aI78
aI182
aI117
aI13168
aI1191
aI7332
aI63765
asg6
S'Those Planned Parenthood people are only talking about condoms .'
p11
ss.