(dp1
S'input'
p2
(dp3
S'encoded'
p4
(lp5
I64
aI2179
aI43
aI223
aI2138
aI11
aI89
aI21
aI45
aI2185
aI372
asS'ori'
p6
S'This house believes all nations have a right to nuclear weapons'
p7
ssS'output'
p8
(dp9
g4
(lp10
I24
aI88
aI11005
aI5047
aI63
aI3
aI27120
aI122
aI2703
aI1706
aI9359
aI24
aI2657
aI63765
asg6
S'In May 2009  Reuters reported that the IAEA was conducting further investigation in Egypt  .'
p11
ss.