(dp1
S'input'
p2
(dp3
S'encoded'
p4
(lp5
I64
aI2179
aI43
aI63
aI3
aI28431
aI7
aI2157
aI4624
aI75
aI39939
aI27257
aI122
aI4850
asS'ori'
p6
S'This house believes that the leaking of military documents by Anat Kamm was justified'
p7
ssS'output'
p8
(dp9
g4
(lp10
I273
aI55
aI12
aI11249
aI63
aI134
aI122
aI1881
aI45
aI2830
aI41
aI197
aI24
aI33
aI3
aI2201
aI2127
aI73
aI211
aI2030
aI18036
aI20391
aI182
aI30364
aI111
aI92
aI3
aI30365
aI463
aI316
aI480
aI570
aI45
aI3
aI3445
aI7
aI89
aI5327
aI13530
aI63765
asg6
S"There has been speculation that it was intended to serve as insurance in case the WikiLeaks website or its spokesman Julian Assange are incapacitated  upon which the passphrase could be published  similar to the concept of a dead man's switch  ."
p11
ss.