(dp1
S'input'
p2
(dp3
S'encoded'
p4
(lp5
I64
aI2179
aI235
aI3
aI2136
aI7
aI3
aI2306
aI7
aI2390
asS'ori'
p6
S'This house supports the one-child policy of the republic of China'
p7
ssS'output'
p8
(dp9
g4
(lp10
I9813
aI9814
aI89
aI2330
aI11121
aI5
aI10783
aI3041
aI14
aI3
aI845
aI32
aI3862
aI63765
asg6
S'Martin Luther  a German monk and theologian (14831546)  concluded on the issue  "God makes children .'
p11
ss.