(dp1
S'input'
p2
(dp3
S'encoded'
p4
(lp5
I64
aI2179
aI43
aI223
aI2138
aI11
aI89
aI21
aI45
aI2185
aI372
asS'ori'
p6
S'This house believes all nations have a right to nuclear weapons'
p7
ssS'output'
p8
(dp9
g4
(lp10
I378
aI134
aI3363
aI4809
aI211
aI11570
aI16849
aI2603
aI60
aI3
aI27120
aI89
aI3262
aI92
aI417
aI84
aI117
aI3131
aI487
aI2959
aI63765
asg6
S'However  it delayed concluding its NPT Safeguards Agreement with the IAEA  a process which should take only 18 months  until April 1992 .'
p11
ss.