(dp1
S'input'
p2
(dp3
S'encoded'
p4
(lp5
I64
aI2179
aI394
aI163
aI959
aI2042
aI3557
asS'ori'
p6
S'This house would make physical education compulsory'
p7
ssS'output'
p8
(dp9
g4
(lp10
I620
aI5277
aI24
aI7509
aI4204
aI1444
aI5
aI6029
aI2721
aI357
aI8542
aI5
aI96
aI15283
aI45
aI831
aI136
asg6
S'Through leadership in communications  capacity building and knowledge exchange  we inspire and support Canadians to move more ."'
p11
ss.