(dp1
S'input'
p2
(dp3
S'encoded'
p4
(lp5
I64
aI2179
aI43
aI63
aI2157
aI2565
aI493
aI19084
aI382
aI4850
asS'ori'
p6
S"This house believes that Israel's 2008-2009 military operations against Gaza were justified"
p7
ssS'output'
p8
(dp9
g4
(lp10
I3
aI4048
aI7
aI5317
aI24
aI3
aI19084
aI966
aI63765
aI63765
aI55
aI12
aI7117
aI75
aI11995
aI1687
aI7233
aI75
aI16619
aI493
aI4794
aI6056
aI3599
aI89
aI28982
aI2135
aI5496
aI3419
asg6
S'The escalation of tensions in the Gaza Strip [ . . .] has been triggered by rocket attacks launched by Hamas against innocent Israeli civilians"  read a Georgian foreign ministry statement '
p11
ss.