(dp1
S'input'
p2
(dp3
S'encoded'
p4
(lp5
I64
aI2179
aI394
aI4325
aI2042
aI270
aI89
aI11605
aI3324
asS'ori'
p6
S'This house would fund education using a voucher scheme'
p7
ssS'output'
p8
(dp9
g4
(lp10
I12189
aI2031
aI3
aI2606
aI7
aI2669
aI5
aI55
aI2173
aI63
aI42
aI394
aI1576
aI2634
aI24
aI2669
aI34
aI41
aI572
aI41
aI1587
aI5966
aI14
aI2603
aI19
aI3
aI10471
aI260
aI63765
asg6
S'|-valign="top" McCain supported the invasion of Iraq and has stated that he would keep troops in Iraq for as long as needed  dependent on agreement from the Iraqi government .'
p11
ss.