(dp1
S'input'
p2
(dp3
S'encoded'
p4
(lp5
I64
aI2179
aI43
aI24
aI3
aI475
aI7
aI12436
aI3364
asS'ori'
p6
S'This house believes in the use of affirmative action'
p7
ssS'output'
p8
(dp9
g4
(lp10
I2318
aI7296
aI382
aI4541
aI12481
aI19
aI965
aI2318
aI7296
aI5
aI382
aI534
aI45
aI1378
aI14
aI86
aI311
aI223
aI1727
aI516
aI11364
aI92
aI395
aI373
aI1047
aI41
aI55005
aI741
aI45
aI11360
aI271
aI2318
aI5025
aI4223
aI63765
asg6
S'Non-white South Africans were taxed differently from white South Africans and were required to carry on them at all times additional documentation  which later became known as dom passes  to certify their non-white South African citizenship .'
p11
ss.