(dp1
S'input'
p2
(dp3
S'encoded'
p4
(lp5
I64
aI2179
aI394
aI5284
aI150
aI3987
asS'ori'
p6
S'This house would reintroduce national service'
p7
ssS'output'
p8
(dp9
g4
(lp10
I3
aI2028
aI122
aI45
aI11
aI2596
aI2639
aI1980
aI24
aI3
aI2218
aI2219
aI75
aI3
aI312
aI7
aI63765
asg6
S"The commission's goal was to have nine million men in the armed forces by the end of 1943  ."
p11
ss.