(dp1
S'input'
p2
(dp3
S'encoded'
p4
(lp5
I64
aI2179
aI394
aI4325
aI2042
aI270
aI89
aI11605
aI3324
asS'ori'
p6
S'This house would fund education using a voucher scheme'
p7
ssS'output'
p8
(dp9
g4
(lp10
I833
aI103
aI63
aI1978
aI691
aI12952
aI12953
aI3017
aI3
aI3445
aI397
aI3
aI2668
aI7
aI11192
aI646
aI63765
aI2128
aI7
aI2042
aI11604
aI11
aI34771
aI45
aI3226
aI10250
aI5
aI16
aI4933
aI24
aI4364
aI734
aI24
aI3
aI481
aI60
aI3
aI6985
aI7
aI12537
aI8503
aI63765
asg6
S'Opponents claim that ever since Milton Friedman suggested the concept during the aftermath of Brown v . Board of Education  vouchers have functioned to increase racial and economic discrimination in schools  beginning in the late 1950s with the appearance of segregation academies  .'
p11
ss.