(dp1
S'input'
p2
(dp3
S'encoded'
p4
(lp5
I64
aI2179
aI43
aI8629
aI116
aI3
aI117
aI998
asS'ori'
p6
S'This house believes atheism is the only way'
p7
ssS'output'
p8
(dp9
g4
(lp10
I8301
aI395
aI8423
aI64
aI41
aI3270
aI63
aI3
aI7824
aI8424
aI5267
aI1183
aI45
aI3270
aI63
aI8425
aI675
aI223
aI7076
aI182
aI3921
aI63765
asg6
S"Dawkins later interprets this as saying that the evolutionary standpoint indeed amounts to saying that Haggard's flock  like all humans  are animals ."
p11
ss.