(dp1
S'input'
p2
(dp3
S'encoded'
p4
(lp5
I64
aI2179
aI43
aI3
aI626
aI187
aI116
aI1989
aI34
aI3102
aI2223
asS'ori'
p6
S"This house believes the United States is responsible for Mexico's drugs war"
p7
ssS'output'
p8
(dp9
g4
(lp10
I378
aI3
aI58923
aI2616
aI3860
aI89
aI281
aI1701
aI24
aI298
aI3
aI20717
aI58924
aI58925
aI122
aI4158
aI5
aI395
aI4546
aI34
aI3
aI4257
aI7
aI20780
aI7865
aI58926
aI58927
aI63765
asg6
S"However  the Guadalajara Cartel suffered a major blow in 1985 when the group's co-founder Rafael Caro Quintero was captured  and later convicted  for the murder of DEA agent Enrique Camarena  ."
p11
ss.