(dp1
S'input'
p2
(dp3
S'encoded'
p4
(lp5
I64
aI2179
aI43
aI63
aI1036
aI4828
aI33250
aI116
aI25073
aI45
aI3315
aI4562
asS'ori'
p6
S'This house believes that male infant circumcision is tantamount to child abuse'
p7
ssS'output'
p8
(dp9
g4
(lp10
I24
aI320
aI134
aI122
aI2791
aI63
aI3945
aI59224
aI59225
aI24
aI3
aI2087
aI59226
aI10326
aI7
aI6627
aI667
aI6628
aI182
aI45
aI5877
aI477
aI24
aI3
aI33250
aI7
aI1980
aI5
aI5716
aI7
aI223
aI5755
aI60
aI89
aI234
aI45
aI5198
aI3
aI3378
aI41
aI89
aI258
aI7
aI39765
aI493
aI92
aI116
aI1604
aI89
aI4229
aI3661
aI24
aI3
aI2696
aI63765
asg6
S'In early 2007 it was announced that rural aidpost orderlies in the East Sepik Province of Papua New Guinea are to undergo training in the circumcision of men and boys of all ages with a view to introducing the procedure as a means of prophylaxis against HIV/AIDS  which is becoming a significant problem in the country  .'
p11
ss.