(dp1
S'input'
p2
(dp3
S'encoded'
p4
(lp5
I64
aI2179
aI394
aI16756
aI20435
asS'ori'
p6
S'This house would criminalize blasphemy'
p7
ssS'output'
p8
(dp9
g4
(lp10
I24
aI2927
aI3
aI2800
aI2445
aI2446
aI2132
aI55
aI1438
aI19
aI1771
aI4859
aI45
aI1795
aI7
aI8574
aI24
aI211
aI9596
aI63765
asg6
S'In March  2011  the UN Human Rights Council has shifted from protecting beliefs to protection of believers in its resolution  .'
p11
ss.