(dp1
S'input'
p2
(dp3
S'encoded'
p4
(lp5
I64
aI2179
aI43
aI63
aI3
aI4538
aI7
aI4434
aI7793
aI283
aI45
aI3586
aI417
aI316
aI577
asS'ori'
p6
S'This house believes that the sale of violent video games to minors should be banned'
p7
ssS'output'
p8
(dp9
g4
(lp10
I134
aI55
aI12
aI20153
aI63
aI24374
aI3442
aI51
aI8526
aI226
aI5600
aI63
aI116
aI7
aI159
aI177
aI5232
aI155
aI1453
aI99
aI14459
aI155
aI182
aI5205
aI5
aI63
aI257
aI3
aI1643
aI8526
aI463
aI316
aI1515
aI311
aI2240
aI2042
aI394
aI1384
aI4229
aI127
aI63765
asg6
S'It has been noticed that gamers adopt an attitude while playing that is of such high concentration  they do not realize they are learning  and that if the same attitude could be adopted at school  education would enjoy significant benefits  .'
p11
ss.