(dp1
S'input'
p2
(dp3
S'encoded'
p4
(lp5
I64
aI2179
aI43
aI63
aI187
aI417
aI99
aI16642
aI3
aI6449
aI7
aI3935
asS'ori'
p6
S'This house believes that states should not subsidize the growing of tobacco'
p7
ssS'output'
p8
(dp9
g4
(lp10
I134
aI116
aI89
aI10643
aI63
aI146
aI19459
aI16477
aI7
aI13169
aI75
aI1704
aI89
aI43224
aI49594
aI73
aI22034
aI213
aI63765
asg6
S'It is a battery-powered device that provides inhaled doses of nicotine by delivering a vaporized propylene glycol/nicotine or vegetable glycerin/nicotine solution .'
p11
ss.