(dp1
S'input'
p2
(dp3
S'encoded'
p4
(lp5
I64
aI2179
aI43
aI63
aI3
aI21
aI45
aI12715
aI417
aI99
aI316
aI2897
asS'ori'
p6
S'This house believes that the right to asylum should not be absolute'
p7
ssS'output'
p8
(dp9
g4
(lp10
I2610
aI708
aI311
aI12866
aI1054
aI579
aI19
aI3
aI481
aI5288
aI41
aI89
aI667
aI605
aI122
aI575
aI45
aI11706
aI18471
aI24
aI17491
aI9291
aI6760
aI2192
aI63765
asg6
S'Immigration control at airports gradually changed from the late 1990s onward as a new emphasis was given to controlling passengers in visa issuing posts abroad .'
p11
ss.