(dp1
S'input'
p2
(dp3
S'encoded'
p4
(lp5
I64
aI2179
aI394
aI16756
aI20435
asS'ori'
p6
S'This house would criminalize blasphemy'
p7
ssS'output'
p8
(dp9
g4
(lp10
I24
aI3
aI626
aI6048
aI6463
aI3
aI20476
aI480
aI51
aI3357
aI8656
aI92
aI1966
aI63
aI285
aI55
aI2118
aI45
aI133
aI63
aI5714
aI116
aI61
aI116
aI5652
aI75
aI14615
aI14616
aI14618
aI63052
aI3
aI5761
aI11102
aI3
aI63053
aI5
aI80
aI81
aI11
aI1340
aI89
aI20114
aI1189
aI7
aI5714
aI63765
asg6
S'In the United Arab Emirates  the periodical Al-Ittihad published an opinion piece which argued that "The world has come to believe that Islam is what is practiced by Bin Laden  Zawahiri  Zarqawi  the Muslim Brotherhood  the Salafis  and others who have presented a distorted image of Islam .'
p11
ss.