(dp1
S'input'
p2
(dp3
S'encoded'
p4
(lp5
I64
aI2179
aI43
aI17
aI4941
aI857
aI3211
asS'ori'
p6
S'This house believes social deprivation causes crime'
p7
ssS'output'
p8
(dp9
g4
(lp10
I217
aI182
aI7337
aI4218
aI4024
aI24
aI2318
aI2770
aI81
aI182
aI459
aI7337
aI32479
aI26715
aI75
aI9141
aI400
aI113
aI34
aI3994
aI63765
asg6
S'Most are debt slaves  largely in South Asia  who are under debt bondage incurred by lenders  sometimes even for generations  .'
p11
ss.