(dp1
S'input'
p2
(dp3
S'encoded'
p4
(lp5
I64
aI2179
aI235
aI3858
aI3
aI2240
aI4527
aI3485
aI45
asS'ori'
p6
S'This house supports raising the school leaving age to 18'
p7
ssS'output'
p8
(dp9
g4
(lp10
I3
aI3485
aI47
aI316
aI800
aI75
aI70
aI14
aI425
aI45
aI73
aI257
aI3
aI2007
aI116
aI108
aI73
aI477
aI63765
asg6
S'The age will be raised by law on 1 January 2009 to 17 or 16 if the person is working or training  .'
p11
ss.