(dp1
S'input'
p2
(dp3
S'encoded'
p4
(lp5
I64
aI2179
aI43
aI223
aI2138
aI11
aI89
aI21
aI45
aI2185
aI372
asS'ori'
p6
S'This house believes all nations have a right to nuclear weapons'
p7
ssS'output'
p8
(dp9
g4
(lp10
I11733
aI11734
aI11735
aI5
aI11736
aI11737
aI267
aI3373
aI4750
aI11690
aI108
aI311
aI11732
aI3391
aI3
aI2935
aI5
aI2566
aI134
aI611
aI45
aI3373
aI63765
asg6
S'Isidor Isaac Rabi and Willis Lamb  two Columbia University physicists working at Princeton  heard the news and carried it back to Columbia .'
p11
ss.