(dp1
S'input'
p2
(dp3
S'encoded'
p4
(lp5
I64
aI2179
aI43
aI63
aI2157
aI2565
aI493
aI19084
aI382
aI4850
asS'ori'
p6
S"This house believes that Israel's 2008-2009 military operations against Gaza were justified"
p7
ssS'output'
p8
(dp9
g4
(lp10
I42
aI4489
aI134
aI122
aI419
aI1722
aI3
aI285
aI394
aI96
aI159
aI51
aI2345
aI63765
asg6
S'He predicted it was very unlikely the world would support such an initiative  .'
p11
ss.