(dp1
S'input'
p2
(dp3
S'encoded'
p4
(lp5
I64
aI2179
aI394
aI5284
aI150
aI3987
asS'ori'
p6
S'This house would reintroduce national service'
p7
ssS'output'
p8
(dp9
g4
(lp10
I34
aI6396
aI25
aI11636
aI289
aI3
aI1407
aI2503
aI1849
aI45
aI16039
aI16040
aI2425
aI1063
aI45
aI7546
aI24
aI2555
aI2813
aI45
aI89
aI3997
aI7
aI965
aI3609
aI45
aI3
aI3202
aI2446
aI910
aI2813
aI116
aI3218
aI1959
aI16041
aI63765
asg6
S'For instance  his frustration over the slow federal response to Hurricane Katrina led him to compare  in September 2005  Bush to a 1960s symbol of white opposition to the African-American civil rights movement  stating: "George Bush is our Bull Connor .'
p11
ss.