(dp1
S'input'
p2
(dp3
S'encoded'
p4
(lp5
I64
aI2179
aI394
aI3830
aI3
aI475
aI7
aI9441
aI13132
aI3102
aI24
aI276
aI381
asS'ori'
p6
S'This house would permit the use of performance enhancing drugs in professional sports'
p7
ssS'output'
p8
(dp9
g4
(lp10
I3313
aI742
aI3313
aI5956
aI7055
aI34
aI89
aI3569
aI34
aI3
aI13749
aI7
aI732
aI3874
aI63765
asg6
S'She said she stayed quiet for a year for the sake of her family .'
p11
ss.