(dp1
S'input'
p2
(dp3
S'encoded'
p4
(lp5
I64
aI2179
aI43
aI63
aI3
aI21
aI45
aI12715
aI417
aI99
aI316
aI2897
asS'ori'
p6
S'This house believes that the right to asylum should not be absolute'
p7
ssS'output'
p8
(dp9
g4
(lp10
I880
aI500
aI3
aI41874
aI991
aI3
aI2601
aI5185
aI28804
aI79
aI60
aI631
aI24
aI8674
aI10725
aI3211
aI63765
asg6
S'Neither did the hiatus stop the increasingly useful liaison work with police in combating organised crime .'
p11
ss.