(dp1
S'input'
p2
(dp3
S'encoded'
p4
(lp5
I64
aI2179
aI394
aI2773
aI12505
asS'ori'
p6
S'This house would embrace multiculturalism'
p7
ssS'output'
p8
(dp9
g4
(lp10
I3
aI3409
aI10116
aI174
aI8497
aI229
aI57
aI41
aI71
aI45
aI150
aI3914
aI92
aI116
aI75
aI4462
aI4013
aI63765
asg6
S'The liberal critique also emphasizes individual freedom as opposed to national identity  which is by definition collective .'
p11
ss.