(dp1
S'input'
p2
(dp3
S'encoded'
p4
(lp5
I64
aI2179
aI43
aI63
aI3
aI21
aI45
aI12715
aI417
aI99
aI316
aI2897
asS'ori'
p6
S'This house believes that the right to asylum should not be absolute'
p7
ssS'output'
p8
(dp9
g4
(lp10
I3
aI3026
aI667
aI2441
aI34
aI27988
aI60
aI725
aI2544
aI187
aI3434
aI45
aI40706
aI7477
aI1021
aI45
aI3
aI5408
aI544
aI24
aI3215
aI2711
aI289
aI3
aI63765
asg6
S'The 1980s saw new challenges for UNHCR  with many member states unwilling to resettle refugees due to the sharp rise in refugee numbers over the 1970s .'
p11
ss.