(dp1
S'input'
p2
(dp3
S'encoded'
p4
(lp5
I64
aI2179
aI13605
aI2258
aI45
aI2194
asS'ori'
p6
S'This house prefers trade to aid'
p7
ssS'output'
p8
(dp9
g4
(lp10
I285
aI167
aI34
aI3249
aI2194
aI182
aI99
aI261
aI3729
aI87
aI10545
aI182
aI99
aI1398
aI748
aI114
aI134
aI98
aI9568
aI63
aI4386
aI2007
aI100
aI248
aI2203
aI88
aI1985
aI136
aI73
aI11
aI570
aI13215
aI63
aI3
aI2206
aI55
aI34
aI211
aI2144
aI45
aI2998
aI1710
aI63765
asg6
S'World figures for private aid are not well tracked  so cross-country comparisons are not easily possible  though it does seem that per person  some other countries may give more  or have similar incentives that the US has for its citizens to encourage giving  .'
p11
ss.