(dp1
S'input'
p2
(dp3
S'encoded'
p4
(lp5
I64
aI2179
aI43
aI63
aI3
aI4538
aI7
aI4434
aI7793
aI283
aI45
aI3586
aI417
aI316
aI577
asS'ori'
p6
S'This house believes that the sale of violent video games to minors should be banned'
p7
ssS'output'
p8
(dp9
g4
(lp10
I134
aI116
aI675
aI3
aI24426
aI131
aI134
aI55
aI9153
aI107
aI7
aI63765
asg6
S'It is like the ESRB  but it has 4 ratings instead of 6 .'
p11
ss.