(dp1
S'input'
p2
(dp3
S'encoded'
p4
(lp5
I64
aI2179
aI43
aI8629
aI116
aI3
aI117
aI998
asS'ori'
p6
S'This house believes atheism is the only way'
p7
ssS'output'
p8
(dp9
g4
(lp10
I29613
aI3
aI22255
aI13859
aI7
aI3
aI5480
aI29614
aI3888
aI45
aI3
aI1560
aI7818
aI22256
aI16478
aI81
aI55
aI20471
aI64
aI1637
aI7
aI143
aI41
aI63765
asg6
S'"  andin the paperback edition of The God Delusionhe refers to the American biologist PZ Myers  who has satirised this line of argument as "The Courtier\'s Reply"  .'
p11
ss.