(dp1
S'input'
p2
(dp3
S'encoded'
p4
(lp5
I64
aI2179
aI235
aI3
aI2136
aI7
aI3
aI2306
aI7
aI2390
asS'ori'
p6
S'This house supports the one-child policy of the republic of China'
p7
ssS'output'
p8
(dp9
g4
(lp10
I3
aI17793
aI505
aI24
aI13874
aI458
aI24
aI3
aI751
aI93
aI3315
aI4386
aI3874
aI122
aI4544
aI24
asg6
S'The steepest drop in fertility occurred in the 1970s before one child per family was implemented in 1979'
p11
ss.