(dp1
S'input'
p2
(dp3
S'encoded'
p4
(lp5
I64
aI2179
aI43
aI63
aI2157
aI2565
aI493
aI19084
aI382
aI4850
asS'ori'
p6
S"This house believes that Israel's 2008-2009 military operations against Gaza were justified"
p7
ssS'output'
p8
(dp9
g4
(lp10
I19134
aI20365
aI382
aI11267
aI7
aI3186
aI24
aI3
aI2326
aI63765
asg6
S'Hezbollah operatives were suspected of involvement in the program .'
p11
ss.