(dp1
S'input'
p2
(dp3
S'encoded'
p4
(lp5
I64
aI2179
aI43
aI63
aI6670
aI546
aI417
aI316
aI89
aI1334
aI3108
aI7
aI4849
aI1886
aI2855
asS'ori'
p6
S'This house believes that wind power should be a primary focus of future energy supply'
p7
ssS'output'
p8
(dp9
g4
(lp10
I8095
aI5135
aI139
aI316
aI416
aI2818
aI34
aI5154
aI1227
aI73
aI5788
aI736
aI2881
aI63765
asg6
S'Stored heat can be used directly for heating needs or converted into electricity .'
p11
ss.