(dp1
S'input'
p2
(dp3
S'encoded'
p4
(lp5
I64
aI2179
aI394
aI4325
aI2042
aI270
aI89
aI11605
aI3324
asS'ori'
p6
S'This house would fund education using a voucher scheme'
p7
ssS'output'
p8
(dp9
g4
(lp10
I378
aI14
aI2116
aI42
aI14497
aI864
aI7
aI658
aI4276
aI2373
aI5
aI551
aI96
aI89
aI2753
aI145
aI7
aI658
aI2373
aI7
aI5276
aI63765
aI131
aI3
aI658
aI2373
aI7
aI2272
aI5276
aI41
aI134
aI1967
aI2643
aI116
aI630
aI63765
asg6
S'However  on June 19  2008  he opted out of public campaign financing and declared  "I support a robust system of public financing of elections ( . .) but the public financing of presidential elections as it exists today is broken .'
p11
ss.