(dp1
S'input'
p2
(dp3
S'encoded'
p4
(lp5
I64
aI2179
aI43
aI63
aI134
aI116
aI400
aI21
aI34
aI3
aI260
aI45
aI3439
aI57
aI7
aI2381
asS'ori'
p6
S'This house believes that it is sometimes right for the government to restrict freedom of speech'
p7
ssS'output'
p8
(dp9
g4
(lp10
I24
aI8459
aI646
aI63765
aI2300
aI371
aI89
aI11964
aI4196
aI3
aI24
aI3
aI29563
aI7
aI3
aI3069
aI3070
aI3342
aI15706
aI122
aI743
aI99
aI45
aI316
aI13293
asg6
S'In Cohen v . California    wearing a jacket reading "Fuck the Draft" in the corridors of the Los Angeles County courthouse was ruled not to be punishable'
p11
ss.