(dp1
S'input'
p2
(dp3
S'encoded'
p4
(lp5
I64
aI2179
aI43
aI63
aI3
aI4538
aI7
aI4434
aI7793
aI283
aI45
aI3586
aI417
aI316
aI577
asS'ori'
p6
S'This house believes that the sale of violent video games to minors should be banned'
p7
ssS'output'
p8
(dp9
g4
(lp10
I3366
aI174
aI123
aI56837
aI34
aI3
aI319
aI5
aI123
aI89
aI1445
aI24407
aI2273
aI92
aI42
aI263
aI25
aI63765
asg6
S'Harris also created WADs for the game  and created a large mod named "Tier" which he called his "life\'s work" .'
p11
ss.