(dp1
S'input'
p2
(dp3
S'encoded'
p4
(lp5
I64
aI2179
aI394
aI2017
aI223
aI9058
aI23653
asS'ori'
p6
S'This house would ban all unsustainable logging'
p7
ssS'output'
p8
(dp9
g4
(lp10
I7379
aI2445
aI6408
aI382
aI534
aI45
aI1782
aI77
aI8186
aI159
aI41
aI3
aI23198
aI47056
aI5
aI3
aI47057
aI47058
aI63765
asg6
S'Fresh human heads were required to perform certain rituals such as the Iban kenyalang and the Kenyah mamat  .'
p11
ss.