(dp1
S'input'
p2
(dp3
S'encoded'
p4
(lp5
I64
aI2179
aI43
aI8629
aI116
aI3
aI117
aI998
asS'ori'
p6
S'This house believes atheism is the only way'
p7
ssS'output'
p8
(dp9
g4
(lp10
I89
aI26071
aI693
aI43
aI63
aI25
aI2382
aI116
aI3
aI21
aI93
aI131
aI98
aI99
aI4934
aI3
aI3807
aI10933
aI7
aI248
aI8313
aI63765
asg6
S'A pluralist typically believes that his religion is the right one  but does not deny the partial truth of other religions .'
p11
ss.