(dp1
S'input'
p2
(dp3
S'encoded'
p4
(lp5
I64
aI2179
aI394
aI2998
aI3
aI4360
aI7
aI3249
aI6804
aI24
aI3
aI102
asS'ori'
p6
S'This house would encourage the creation of private universities in the UK'
p7
ssS'output'
p8
(dp9
g4
(lp10
I41
aI159
aI5117
aI9178
aI1684
aI14
aI271
aI773
aI89
aI419
aI982
aI7
aI912
aI7170
aI887
aI3
aI912
aI260
aI5726
aI691
aI134
aI1735
aI34
aI938
aI136
aI3596
aI7
aI7330
aI15923
aI63765
asg6
S"As such  efficient privatization depends on their being a very low of current corruption among the current government officials since it allows for far more 'efficient' extraction of corrupt rents ."
p11
ss.