(dp1
S'input'
p2
(dp3
S'encoded'
p4
(lp5
I64
aI2179
aI394
aI5370
aI3
aI5286
asS'ori'
p6
S'This house would abolish the monarchy'
p7
ssS'output'
p8
(dp9
g4
(lp10
I3
aI5301
aI1040
aI51
aI5510
aI45
aI10008
aI4991
aI7
aI181
aI5
aI42
aI73
aI3313
aI835
aI3
aI546
aI45
aI9297
aI3
aI4138
aI177
aI9579
aI45
aI3
aI448
aI6293
aI131
aI2507
aI7768
aI443
aI759
aI24
aI211
aI6390
aI5
aI13896
aI443
aI2280
aI289
aI134
aI63765
asg6
S"The monarch takes an oath to preserve Church of Scotland and he or she holds the power to appoint the Lord High Commissioner to the Church's General Assembly  but otherwise plays no part in its governance  and enjoys no powers over it  ."
p11
ss.