(dp1
S'input'
p2
(dp3
S'encoded'
p4
(lp5
I64
aI2179
aI43
aI63
aI6670
aI546
aI417
aI316
aI89
aI1334
aI3108
aI7
aI4849
aI1886
aI2855
asS'ori'
p6
S'This house believes that wind power should be a primary focus of future energy supply'
p7
ssS'output'
p8
(dp9
g4
(lp10
I50864
aI187
aI63
aI89
aI22642
aI7
aI30905
aI139
aI3051
aI41
aI165
aI1886
aI41
aI7962
aI7
aI11695
aI73
aI7962
aI7
aI5091
aI63765
asg6
S'Rubbia states that a tonne of thorium can produce as much energy as 200 tonnes of uranium  or 3 500 000 tonnes of coal  .'
p11
ss.