(dp1
S'input'
p2
(dp3
S'encoded'
p4
(lp5
I64
aI2179
aI43
aI63
aI2659
aI417
aI1690
aI3
aI12048
aI7
aI19084
asS'ori'
p6
S'This house believes that Israel should lift the blockade of Gaza'
p7
ssS'output'
p8
(dp9
g4
(lp10
I378
aI2659
aI383
aI211
aI708
aI289
aI3
aI19094
aI24
aI5
aI864
aI7
aI19084
aI63765
asg6
S'However  Israel maintained its control over the crossings in and out of Gaza .'
p11
ss.