(dp1
S'input'
p2
(dp3
S'encoded'
p4
(lp5
I64
aI2179
aI394
aI2773
aI12505
asS'ori'
p6
S'This house would embrace multiculturalism'
p7
ssS'output'
p8
(dp9
g4
(lp10
I169
aI8624
aI2631
aI10450
aI742
aI574
aI2696
aI122
aI675
aI89
aI1341
aI1380
aI7
aI2007
aI5
aI116
aI675
aI51
aI8296
aI3569
aI5545
aI63765
asg6
S'British novelist Douglas Adams said each country was like a particular type of person  and "Canada is like an intelligent 35 year old woman" .'
p11
ss.