(dp1
S'input'
p2
(dp3
S'encoded'
p4
(lp5
I64
aI2179
aI43
aI63
aI188
aI220
aI417
aI1619
aI4275
aI45
aI713
aI14799
aI7533
aI311
aI3
aI3721
aI5145
asS'ori'
p6
S'This house believes that democratic governments should require voters to present photo identification at the polling station'
p7
ssS'output'
p8
(dp9
g4
(lp10
I1460
aI45
aI3
aI626
aI187
aI2272
aI4168
aI14
aI2555
aI2714
aI976
aI5519
aI2791
aI63
aI155
aI394
aI316
aI3820
aI51
aI3352
aI45
aI991
aI51
aI3326
aI24145
aI3324
aI24
aI7683
aI15654
aI3
aI10
aI4408
aI171
aI394
aI475
aI3900
aI24144
aI4812
aI45
aI1342
aI4275
aI637
aI270
aI271
aI30556
aI3900
aI41
aI89
aI1334
aI4506
aI311
aI3
aI5003
aI63765
asg6
S'Prior to the 2008 United States Presidential Election  on September 16  2008  Obama legal counsel announced that they would be seeking an injunction to stop an alleged caging scheme in Michigan wherein the state Republican party would use home foreclosure lists to challenge voters still using their foreclosed home as a primary address at the polls  .'
p11
ss.