(dp1
S'input'
p2
(dp3
S'encoded'
p4
(lp5
I64
aI2179
aI13605
aI2258
aI45
aI2194
asS'ori'
p6
S'This house prefers trade to aid'
p7
ssS'output'
p8
(dp9
g4
(lp10
I2474
aI2025
aI7
aI2511
aI186
aI63
aI155
aI881
aI7
aI9467
aI2135
aI7500
aI63
aI394
aI521
aI2083
aI4388
aI45
aI1102
aI462
aI63765
asg6
S'Anti-dumping legislation Supporters of anti-dumping laws argue that they prevent "dumping" of cheaper foreign goods that would cause local firms to close down .'
p11
ss.