(dp1
S'input'
p2
(dp3
S'encoded'
p4
(lp5
I64
aI2179
aI394
aI163
aI959
aI2042
aI3557
asS'ori'
p6
S'This house would make physical education compulsory'
p7
ssS'output'
p8
(dp9
g4
(lp10
I3
aI117
aI1188
aI2654
aI7
aI3
aI285
aI53
aI16329
aI116
aI99
aI279
aI116
aI2404
aI63765
asg6
S'The only remaining region of the world where obesity is not common is sub-Saharan Africa  .'
p11
ss.