(dp1
S'input'
p2
(dp3
S'encoded'
p4
(lp5
I64
aI2179
aI43
aI63
aI2157
aI2565
aI493
aI19084
aI382
aI4850
asS'ori'
p6
S"This house believes that Israel's 2008-2009 military operations against Gaza were justified"
p7
ssS'output'
p8
(dp9
g4
(lp10
I2161
aI34
aI2135
aI2181
aI19398
aI9813
aI742
aI6261
aI24
aI3
aI8889
aI1809
aI3364
aI24
aI19708
aI2674
aI19153
aI24
aI19084
aI493
aI16619
aI3811
aI92
aI11
aI891
aI24
aI657
aI2224
aI6688
asg6
S'|- Minister for Foreign Affairs Micheal Martin  said "I condemn in the strongest terms Israel\'s action in launching air strikes in Gaza against Hamas targets which have resulted in widespread civilian fatalities ."'
p11
ss.