(dp1
S'input'
p2
(dp3
S'encoded'
p4
(lp5
I64
aI2179
aI394
aI16756
aI20435
asS'ori'
p6
S'This house would criminalize blasphemy'
p7
ssS'output'
p8
(dp9
g4
(lp10
I89
aI15578
aI460
aI221
aI89
aI2731
aI493
aI3
aI4830
aI7
aI3
aI78
aI311
aI3
aI10649
aI131
aI395
aI4881
aI298
aI2037
aI75
aI3
aI631
aI63
aI134
aI122
aI1640
aI89
aI62879
aI63765
asg6
S'A Norwegian man made a threat against the lives of the people at the magazine  but later claimed  when faced by the police  that it was just a prank .'
p11
ss.