(dp1
S'input'
p2
(dp3
S'encoded'
p4
(lp5
I64
aI2179
aI394
aI3830
aI3
aI475
aI7
aI9441
aI13132
aI3102
aI24
aI276
aI381
asS'ori'
p6
S'This house would permit the use of performance enhancing drugs in professional sports'
p7
ssS'output'
p8
(dp9
g4
(lp10
I3
aI475
aI7
aI159
aI3102
aI116
aI174
aI279
aI24
aI15120
aI7756
aI5
aI248
aI50157
aI381
aI5
aI24
aI22548
aI7756
aI63765
asg6
S'The use of such drugs is also common in horse racing and other equestrian sports  and in greyhound racing .'
p11
ss.