(dp1
S'input'
p2
(dp3
S'encoded'
p4
(lp5
I64
aI2179
aI43
aI63
aI2157
aI2565
aI493
aI19084
aI382
aI4850
asS'ori'
p6
S"This house believes that Israel's 2008-2009 military operations against Gaza were justified"
p7
ssS'output'
p8
(dp9
g4
(lp10
I311
aI51
aI6048
aI2344
aI2712
aI21494
aI2164
aI29762
aI2173
aI63
aI6048
aI3024
aI417
aI3442
aI89
aI9596
aI13807
aI2659
aI45
aI316
aI89
aI7214
aI4661
aI5
aI2892
aI19088
aI5904
aI63765
asg6
S'At an Arab League summit  Syrian president Bashar al-Assad stated that Arab Leaders should adopt a resolution proclaiming Israel to be a terrorist entity and supporting Palestinian resistance .'
p11
ss.