(dp1
S'input'
p2
(dp3
S'encoded'
p4
(lp5
I64
aI2179
aI43
aI63
aI2659
aI417
aI1690
aI3
aI12048
aI7
aI19084
asS'ori'
p6
S'This house believes that Israel should lift the blockade of Gaza'
p7
ssS'output'
p8
(dp9
g4
(lp10
I2135
aI2161
aI6556
aI29814
aI29815
aI2173
aI63
aI3740
aI24082
aI64
aI4134
aI63765
asg6
S'Foreign Minister Shah Mahmood Qureshi stated that "Pakistan strongly condemns this incident .'
p11
ss.