(dp1
S'input'
p2
(dp3
S'encoded'
p4
(lp5
I64
aI2179
aI394
aI4325
aI2042
aI270
aI89
aI11605
aI3324
asS'ori'
p6
S'This house would fund education using a voucher scheme'
p7
ssS'output'
p8
(dp9
g4
(lp10
I89
aI1260
aI192
aI98
aI99
aI1619
aI3
aI3524
aI7
aI1458
aI378
aI134
aI98
aI1619
aI63
aI273
aI182
aI443
aI12905
aI45
aI667
aI192
aI23530
aI63765
asg6
S'A free market does not require the existence of competition  however it does require that there are no barriers to new market entrants .'
p11
ss.