(dp1
S'input'
p2
(dp3
S'encoded'
p4
(lp5
I64
aI2179
aI43
aI63
aI3376
aI4938
aI417
aI316
aI3537
asS'ori'
p6
S'This house believes that endangered species should be protected'
p7
ssS'output'
p8
(dp9
g4
(lp10
I273
aI182
aI1872
aI1202
aI24
aI2231
aI53
aI8175
aI11
aI1688
aI442
aI8186
aI5
aI3550
aI1485
aI60
aI3236
aI45
aI6082
aI35
aI7801
aI6801
aI63765
asg6
S'There are numerous examples in history where cultures have followed rules  rituals  and organized practice with respect to communal natural resource management  .'
p11
ss.