(dp1
S'input'
p2
(dp3
S'encoded'
p4
(lp5
I64
aI2179
aI43
aI223
aI2138
aI11
aI89
aI21
aI45
aI2185
aI372
asS'ori'
p6
S'This house believes all nations have a right to nuclear weapons'
p7
ssS'output'
p8
(dp9
g4
(lp10
I51
aI14725
aI2878
aI24
aI3
aI2330
aI2135
aI1306
aI3987
aI564
aI12206
aI122
aI99
aI2396
aI55
aI7861
aI1706
aI5
aI4881
aI2046
aI463
aI3051
aI89
aI2185
aI2418
aI5
aI709
aI51
aI7640
aI3274
aI24
aI3131
aI257
aI134
aI3478
aI45
aI5
aI1706
aI3444
aI63
aI2046
aI440
aI1719
aI1547
aI3
aI838
aI11695
aI16855
aI1351
aI5
aI5499
aI868
aI33543
aI45
aI3051
aI11695
aI63765
asg6
S'An anonymous source in the German Foreign Intelligence Service (BND) whose rank was not provided has gone further and claimed Iran could produce a nuclear bomb and conduct an underground test in 6 months if it wanted to and further asserted that Iran had already mastered the full uranium enrichment cycle  and possessed enough centrifuges to produce weapons-grade uranium  .'
p11
ss.