(dp1
S'input'
p2
(dp3
S'encoded'
p4
(lp5
I64
aI2179
aI43
aI17
aI4941
aI857
aI3211
asS'ori'
p6
S'This house believes social deprivation causes crime'
p7
ssS'output'
p8
(dp9
g4
(lp10
I11636
aI116
aI99
aI4937
aI1021
aI45
aI351
aI1642
aI3013
aI60
aI8030
aI2170
aI131
aI89
aI839
aI782
aI14
aI8852
aI5
aI55
aI6568
aI4658
aI14
aI2034
aI3211
aI5
aI1243
aI63765
asg6
S'Frustration is not necessarily due to any outside interference with valued goals  but a direct effect on anger  and has indirect effects on serious crime and aggression .'
p11
ss.