(dp1
S'input'
p2
(dp3
S'encoded'
p4
(lp5
I64
aI2179
aI43
aI223
aI2138
aI11
aI89
aI21
aI45
aI2185
aI372
asS'ori'
p6
S'This house believes all nations have a right to nuclear weapons'
p7
ssS'output'
p8
(dp9
g4
(lp10
I89
aI279
aI4462
aI7
aI3
aI414
aI2945
aI204
aI24
aI3
aI2705
aI852
aI7
aI3269
aI946
aI75
aI4477
aI63765
asg6
S'A common definition of the word "holocaust": "great destruction resulting in the extensive loss of life  especially by fire .'
p11
ss.