(dp1
S'input'
p2
(dp3
S'encoded'
p4
(lp5
I64
aI2179
aI43
aI24
aI3
aI475
aI7
aI12436
aI3364
asS'ori'
p6
S'This house believes in the use of affirmative action'
p7
ssS'output'
p8
(dp9
g4
(lp10
I3
aI70
aI146
aI34
aI4829
aI78
aI45
aI8734
aI3
aI3545
aI7
aI45
aI975
aI63
aI155
aI182
aI1031
aI45
aI3757
aI7517
aI3205
aI5
aI3
aI2676
aI3216
aI60
aI3
aI1643
aI1718
aI41
aI78
aI63765
asg6
S"The law provides for disabled people to request the provision of 'reasonable adjustments' to ensure that they are able to access employment  services and the built environment with the same potential as non-disabled people ."
p11
ss.