(dp1
S'input'
p2
(dp3
S'encoded'
p4
(lp5
I64
aI2179
aI394
aI2976
aI12243
aI24
aI954
aI126
aI1560
aI10723
asS'ori'
p6
S'This house would implement playoffs in collegiate level American football'
p7
ssS'output'
p8
(dp9
g4
(lp10
I3
aI117
aI11276
aI63
aI463
aI4861
aI316
aI1545
aI41
aI89
aI1622
aI13004
aI5
aI768
aI773
aI7098
aI75
aI89
aI34949
aI116
aI3
aI2307
aI11276
aI92
aI122
aI661
aI75
aI2980
aI24
aI3
aI1096
aI20731
aI63765
asg6
S'The only team that could reasonably be described as "playing a weak schedule and then being exposed by a BCS team" is the 2007 Hawaii team  which was defeated by Georgia in the 2008 Sugar Bowl .'
p11
ss.