(dp1
S'input'
p2
(dp3
S'encoded'
p4
(lp5
I64
aI2179
aI394
aI16642
aI1376
aI5269
asS'ori'
p6
S'This house would subsidize poor communities'
p7
ssS'output'
p8
(dp9
g4
(lp10
I2041
aI2981
aI63
aI4364
aI60
aI4358
aI63
aI1782
aI979
aI138
aI3
aI9905
aI182
aI174
aI120
aI5650
aI5251
aI41
aI89
aI296
aI7
aI667
aI5251
aI246
aI108
aI24
aI3
aI803
aI63
aI155
aI2824
aI588
aI24
aI63765
asg6
S'Research shows that schools with students that perform lower than the norm are also those hiring least-qualified teachers as a result of new teachers generally working in the area that they grew up in .'
p11
ss.