(dp1
S'input'
p2
(dp3
S'encoded'
p4
(lp5
I64
aI2179
aI43
aI63
aI2203
aI60
aI51
aI997
aI2837
aI21716
aI1636
aI5349
aI417
aI2998
aI8532
aI45
aI3051
aI8578
asS'ori'
p6
S'This house believes that countries with an imbalanced male/female ratio skewed towards males should encourage parents to produce girls'
p7
ssS'output'
p8
(dp9
g4
(lp10
I3
aI6954
aI11389
aI2837
aI1472
aI60
aI2322
aI696
aI7
aI3862
aI4386
aI19852
aI314
aI5
aI60
aI14515
aI3485
aI5072
aI443
aI4229
aI903
aI782
aI122
aI2778
aI34
aI3463
aI3485
aI314
aI128
aI73
aI248
aI35
aI1356
aI63765
asg6
S'The secondary sex ratio decreased with increased number of children per plural birth and with paternal age  whereas no significant independent effect was observed for maternal age  birth order  or other natural factors .'
p11
ss.