(dp1
S'input'
p2
(dp3
S'encoded'
p4
(lp5
I64
aI2179
aI394
aI2017
aI223
aI9058
aI23653
asS'ori'
p6
S'This house would ban all unsustainable logging'
p7
ssS'output'
p8
(dp9
g4
(lp10
I64
aI139
aI324
aI1416
aI257
aI620
aI33829
aI89
aI5166
aI1390
aI211
aI35377
aI34738
aI63765
asg6
S'This can particularly apply if  through overexploitation  a habitat loses its apex predator .'
p11
ss.