(dp1
S'input'
p2
(dp3
S'encoded'
p4
(lp5
I64
aI2179
aI43
aI63
aI134
aI116
aI400
aI21
aI34
aI3
aI260
aI45
aI3439
aI57
aI7
aI2381
asS'ori'
p6
S'This house believes that it is sometimes right for the government to restrict freedom of speech'
p7
ssS'output'
p8
(dp9
g4
(lp10
I1906
aI7
aI3
aI39154
aI39155
aI2173
aI63
aI42
aI7515
aI260
aI708
aI7
aI3
aI7147
aI11388
aI604
aI3
aI7150
aI116
aI49
aI1748
aI11203
aI4443
aI63765
asg6
S'"In November 2007  "Father of the Internet" Vint Cerf stated that he sees government control of the Internet failing because the Web is almost entirely privately owned  .'
p11
ss.