(dp1
S'input'
p2
(dp3
S'encoded'
p4
(lp5
I64
aI2179
aI43
aI223
aI2138
aI11
aI89
aI21
aI45
aI2185
aI372
asS'ori'
p6
S'This house believes all nations have a right to nuclear weapons'
p7
ssS'output'
p8
(dp9
g4
(lp10
I2046
aI187
aI3
aI3014
aI7
aI211
aI2185
aI2326
aI116
aI3
aI105
aI7
aI546
aI5
aI63
aI351
aI248
aI475
aI394
aI316
aI89
aI2521
aI7
aI3
aI2185
aI2268
aI7
aI92
aI134
aI116
aI89
aI18377
aI41
aI261
aI41
aI773
aI493
aI2763
aI2767
aI2747
aI63765
asg6
S'Iran states the purpose of its nuclear program is the generation of power and that any other use would be a violation of the Nuclear Non-Proliferation Treaty  of which it is a signatory  as well as being against Islamic religious principles .'
p11
ss.