(dp1
S'input'
p2
(dp3
S'encoded'
p4
(lp5
I64
aI2179
aI394
aI2017
aI223
aI9058
aI23653
asS'ori'
p6
S'This house would ban all unsustainable logging'
p7
ssS'output'
p8
(dp9
g4
(lp10
I516
aI2373
aI116
aI1587
aI45
aI2976
aI311
aI51
aI2603
aI14
aI89
aI2753
aI5
aI1176
aI145
aI34
aI29015
aI2351
aI2635
aI19
aI380
aI2879
aI116
aI1587
aI622
aI24
aI643
aI2203
aI63765
asg6
S'Additional financing is needed to implement REDD+ at scale: An agreement on a robust and predictable system for mobilizing financial resources from various sources is needed  primarily in developed countries .'
p11
ss.