(dp1
S'input'
p2
(dp3
S'encoded'
p4
(lp5
I64
aI2179
aI43
aI63
aI3
aI4990
aI4991
aI116
aI4850
aI24
aI12166
aI3
aI475
aI7
aI3532
aI3290
aI7
aI4714
asS'ori'
p6
S'This house believes that the Catholic Church is justified in forbidding the use of barrier methods of contraception'
p7
ssS'output'
p8
(dp9
g4
(lp10
I3
aI4991
aI55
aI4136
aI7
aI256
aI4071
aI45
aI332
aI3
aI7444
aI7943
aI24
aI2404
aI131
aI211
aI3609
aI45
aI21152
aI475
aI24
aI132
aI256
aI55
aI12
aI2146
aI726
aI63765
asg6
S'The church has hundreds of programs dedicated to fighting the AIDS epidemic in Africa  but its opposition to condom use in these programs has been highly controversial .'
p11
ss.