(dp1
S'input'
p2
(dp3
S'encoded'
p4
(lp5
I64
aI2179
aI43
aI223
aI2138
aI11
aI89
aI21
aI45
aI2185
aI372
asS'ori'
p6
S'This house believes all nations have a right to nuclear weapons'
p7
ssS'output'
p8
(dp9
g4
(lp10
I132
aI267
aI11509
aI891
aI24
aI3
aI457
aI7
aI2151
aI2692
aI37031
aI37032
aI8139
aI772
aI7915
aI19
aI3
aI20238
aI63765
asg6
S'These two bombings resulted in the deaths of approximately 200 000 Japanese peoplemostly civiliansfrom acute injuries sustained from the explosions  .'
p11
ss.