(dp1
S'input'
p2
(dp3
S'encoded'
p4
(lp5
I64
aI2179
aI394
aI163
aI959
aI2042
aI3557
asS'ori'
p6
S'This house would make physical education compulsory'
p7
ssS'output'
p8
(dp9
g4
(lp10
I374
aI134
aI55
aI12
aI685
aI63
aI89
aI2007
aI55
aI630
aI3
aI442
aI3
aI7807
aI83
aI247
aI5
aI768
aI2490
aI45
aI790
aI89
aI10382
aI63765
asg6
S'Once it has been established that a person has broken the rules  the meeting must propose and then vote to decide a fine .'
p11
ss.