(dp1
S'input'
p2
(dp3
S'encoded'
p4
(lp5
I64
aI2179
aI394
aI1499
aI3
aI8115
aI34564
aI17106
asS'ori'
p6
S'This house would build the Keystone XL pipeline'
p7
ssS'output'
p8
(dp9
g4
(lp10
I273
aI116
aI17010
aI2041
aI14
aI3
aI4658
aI7
aI3
aI2579
aI15177
aI2891
aI14
aI5178
aI3269
aI63765
asg6
S'There is conflicting research on the effects of the oil sands development on aquatic life .'
p11
ss.