(dp1
S'input'
p2
(dp3
S'encoded'
p4
(lp5
I64
aI2179
aI43
aI223
aI2138
aI11
aI89
aI21
aI45
aI2185
aI372
asS'ori'
p6
S'This house believes all nations have a right to nuclear weapons'
p7
ssS'output'
p8
(dp9
g4
(lp10
I3
aI237
aI89
aI913
aI2185
aI2223
aI1274
aI73
aI3888
aI45
aI89
aI1488
aI6684
aI475
aI7
aI2185
aI372
aI75
aI267
aI27078
aI63765
asg6
S'The first  a limited nuclear war (sometimes attack or exchange)  refers to a small scale use of nuclear weapons by two (or more) belligerents .'
p11
ss.