(dp1
S'input'
p2
(dp3
S'encoded'
p4
(lp5
I64
aI2179
aI43
aI63
aI3
aI21
aI45
aI12715
aI417
aI99
aI316
aI2897
asS'ori'
p6
S'This house believes that the right to asylum should not be absolute'
p7
ssS'output'
p8
(dp9
g4
(lp10
I1381
aI3
aI5307
aI4012
aI2659
aI19
aI2657
aI2659
aI1019
aI15579
aI86
aI611
aI45
aI2657
aI604
aI3
aI5702
aI4898
aI45
aI1985
aI51
aI2633
aI99
aI45
aI15579
aI3
aI5307
aI45
aI271
aI2203
aI7
aI5304
aI63765
asg6
S'Although the immigrants entered Israel from Egypt  Israel cannot deport them back to Egypt because the Egyptians refuse to give an undertaking not to deport the immigrants to their countries of origin .'
p11
ss.