(dp1
S'input'
p2
(dp3
S'encoded'
p4
(lp5
I64
aI2179
aI43
aI223
aI2138
aI11
aI89
aI21
aI45
aI2185
aI372
asS'ori'
p6
S'This house believes all nations have a right to nuclear weapons'
p7
ssS'output'
p8
(dp9
g4
(lp10
I64
aI258
aI63
aI3
aI11521
aI182
aI443
aI593
aI1653
aI311
aI2386
aI3811
aI131
aI25537
aI15242
aI63
aI139
aI316
aI2933
aI19
aI26623
aI8530
aI736
aI271
aI14
aI2128
aI11663
aI5
aI17377
aI545
aI89
aI293
aI413
aI16923
aI63765
asg6
S'This means that the warheads are no longer aimed at specific targets but await coordinates that can be received from HQ  programmed into their on board computers and fired within a 15 minute time frame .'
p11
ss.