(dp1
S'input'
p2
(dp3
S'encoded'
p4
(lp5
I64
aI2179
aI43
aI63
aI2659
aI417
aI1690
aI3
aI12048
aI7
aI19084
asS'ori'
p6
S'This house believes that Israel should lift the blockade of Gaza'
p7
ssS'output'
p8
(dp9
g4
(lp10
I4169
aI2164
aI9289
aI9290
aI5523
aI12618
aI475
aI7
aI493
aI3
aI19096
aI63765
asg6
S'French President Nicolas Sarkozy condemned "the disproportionate use of force" against the flotilla  .'
p11
ss.