(dp1
S'input'
p2
(dp3
S'encoded'
p4
(lp5
I64
aI2179
aI394
aI2773
aI12505
asS'ori'
p6
S'This house would embrace multiculturalism'
p7
ssS'output'
p8
(dp9
g4
(lp10
I134
aI116
aI107
aI89
aI2010
aI2437
aI7
aI3
aI13904
aI7
aI2637
aI7500
aI5
aI3205
aI41
aI261
aI41
aI10
aI6349
aI5
aI658
aI3205
aI24
aI64
aI803
aI63765
asg6
S'It is instead a clear recognition of the specificity of cultural goods and services  as well as state sovereignty and public services in this area .'
p11
ss.