(dp1
S'input'
p2
(dp3
S'encoded'
p4
(lp5
I64
aI2179
aI43
aI63
aI3376
aI4938
aI417
aI316
aI3537
asS'ori'
p6
S'This house believes that endangered species should be protected'
p7
ssS'output'
p8
(dp9
g4
(lp10
I6669
aI3217
aI5
aI5324
aI14704
aI3
aI10729
aI7
aI10039
aI11706
aI8562
aI5
aI2761
aI60
aI3
aI6369
aI6268
aI4368
aI7
aI8565
aI92
aI2981
aI2126
aI24
aI17546
aI5
aI47452
aI63765
asg6
S'environmental health (Deuteronomy 22 .8; 23 .12-14) - and dynamic motivation  the love of Christ controlling (2 Corinthians 5 .14f) and dealing with the underlying spiritual disease of sin  which shows itself in selfishness and thoughtlessness .'
p11
ss.