(dp1
S'input'
p2
(dp3
S'encoded'
p4
(lp5
I64
aI2179
aI43
aI63
aI2203
aI60
aI51
aI997
aI2837
aI21716
aI1636
aI5349
aI417
aI2998
aI8532
aI45
aI3051
aI8578
asS'ori'
p6
S'This house believes that countries with an imbalanced male/female ratio skewed towards males should encourage parents to produce girls'
p7
ssS'output'
p8
(dp9
g4
(lp10
I508
aI89
aI1445
aI2471
aI7
aI11003
aI2931
aI45
aI7246
aI3
aI1359
aI7
aI3
aI237
aI3271
aI755
aI134
aI116
aI89
aI10722
aI73
aI89
aI10731
aI63765
asg6
S'Thus  a large majority of couples appear to accept the outcome of the first pregnancy  whether it is a boy or a girl .'
p11
ss.