(dp1
S'input'
p2
(dp3
S'encoded'
p4
(lp5
I64
aI2179
aI43
aI63
aI134
aI116
aI400
aI21
aI34
aI3
aI260
aI45
aI3439
aI57
aI7
aI2381
asS'ori'
p6
S'This house believes that it is sometimes right for the government to restrict freedom of speech'
p7
ssS'output'
p8
(dp9
g4
(lp10
I420
aI63765
aI10199
aI4602
aI3683
aI63
aI3
aI12359
aI2860
aI3234
aI1063
aI45
aI1260
aI2674
aI413
aI45
aI4823
aI45
aI3
aI3446
aI1687
aI63765
asg6
S'Mr . Cook sued arguing that the Fairness Doctrine entitled him to free air time to respond to the personal attacks  .'
p11
ss.