(dp1
S'input'
p2
(dp3
S'encoded'
p4
(lp5
I64
aI2179
aI394
aI2773
aI12505
asS'ori'
p6
S'This house would embrace multiculturalism'
p7
ssS'output'
p8
(dp9
g4
(lp10
I155
aI11
aI261
aI4012
aI3
aI2764
aI7
aI2190
aI5
aI2186
aI60
aI271
aI3492
aI3527
aI7
aI1273
aI79
aI5
aI3874
aI96
aI63765
asg6
S'They have well entered the worlds of business and technology with their traditional values of hard work and family support .'
p11
ss.