(dp1
S'input'
p2
(dp3
S'encoded'
p4
(lp5
I64
aI2179
aI394
aI1499
aI3
aI8115
aI34564
aI17106
asS'ori'
p6
S'This house would build the Keystone XL pipeline'
p7
ssS'output'
p8
(dp9
g4
(lp10
I3
aI2711
aI24
aI3
aI52551
aI94
aI905
aI11
aI12
aI2580
aI75
aI51
aI903
aI2035
aI3714
aI75
aI3
aI4181
aI52522
aI2148
aI203
aI927
aI92
aI353
aI63
aI226
aI3
aI8115
aI34564
aI394
aI296
aI24
aI45
aI1788
aI2955
aI6025
aI64
aI918
aI47
aI316
aI1016
aI75
aI166
aI2579
aI4423
aI24
aI3
aI4401
aI92
aI47
aI1856
aI1476
aI150
aI7517
aI63765
asg6
S'The numbers in the Perryman Group report have been disputed by an independent study conducted by the Cornell ILR Global Labor Institute which found that while the Keystone XL would result in 2 500 to 4 650 temporary construction jobs  this impact will be reduced by higher oil prices in the Midwest which will likely reduce national employment  .'
p11
ss.