(dp1
S'input'
p2
(dp3
S'encoded'
p4
(lp5
I64
aI2179
aI13605
aI2258
aI45
aI2194
asS'ori'
p6
S'This house prefers trade to aid'
p7
ssS'output'
p8
(dp9
g4
(lp10
I24
aI3
aI33
aI7
aI2404
aI18980
aI227
aI3
aI1592
aI63765
asg6
S'In the case of Africa  Asante (1985) gives the following assessment:  .'
p11
ss.