(dp1
S'input'
p2
(dp3
S'encoded'
p4
(lp5
I64
aI2179
aI394
aI1499
aI3
aI8115
aI34564
aI17106
asS'ori'
p6
S'This house would build the Keystone XL pipeline'
p7
ssS'output'
p8
(dp9
g4
(lp10
I211
aI3830
aI122
aI717
aI14
aI89
aI29007
aI6669
aI918
aI3419
asg6
S'its permit was based on a deficient environmental impact statement'
p11
ss.