(dp1
S'input'
p2
(dp3
S'encoded'
p4
(lp5
I64
aI2179
aI43
aI63
aI6670
aI546
aI417
aI316
aI89
aI1334
aI3108
aI7
aI4849
aI1886
aI2855
asS'ori'
p6
S'This house believes that wind power should be a primary focus of future energy supply'
p7
ssS'output'
p8
(dp9
g4
(lp10
I24280
aI3229
aI182
aI5117
aI60
aI852
aI4386
aI15199
aI5
aI88
aI316
aI4458
aI24
aI77
aI3717
aI63765
asg6
S'HVDC cables are efficient with 3% loss per 1000 km and may be inexpensive in certain circumstances .'
p11
ss.