(dp1
S'input'
p2
(dp3
S'encoded'
p4
(lp5
I64
aI2179
aI394
aI2976
aI12243
aI24
aI954
aI126
aI1560
aI10723
asS'ori'
p6
S'This house would implement playoffs in collegiate level American football'
p7
ssS'output'
p8
(dp9
g4
(lp10
I3
aI1096
aI20731
aI298
aI3
aI1011
aI116
aI24
aI667
aI5
aI11
aI3
aI1417
aI319
aI1640
aI316
aI263
aI150
aI1011
aI63765
asg6
S'the Sugar Bowl when the championship is in New Orleans)  and have the extra game just be called "The National Championship Game" .'
p11
ss.