(dp1
S'input'
p2
(dp3
S'encoded'
p4
(lp5
I64
aI2179
aI394
aI2976
aI12243
aI24
aI954
aI126
aI1560
aI10723
asS'ori'
p6
S'This house would implement playoffs in collegiate level American football'
p7
ssS'output'
p8
(dp9
g4
(lp10
I34992
aI661
aI4132
aI11651
aI24
aI3
aI1096
aI20731
aI5
aI4400
aI661
aI11066
aI24
aI3
aI34959
aI20731
aI75
aI89
aI715
aI7
aI226
aI34957
aI10
aI122
aI661
aI75
aI34994
aI24
aI3
aI3447
aI20731
aI63765
asg6
S'Auburn defeated #9 Virginia Tech in the Sugar Bowl 16-13  and Utah defeated #21 Pittsburgh in the Fiesta Bowl by a score of 35&ndash;7  while Boise State was defeated by #10 Lousville in the Liberty Bowl 44&ndash;40 .'
p11
ss.