(dp1
S'input'
p2
(dp3
S'encoded'
p4
(lp5
I64
aI2179
aI394
aI1499
aI177
aI1819
aI34
aI160
asS'ori'
p6
S'This house would build high rises for housing'
p7
ssS'output'
p8
(dp9
g4
(lp10
I24
aI5989
aI217
aI78
aI3281
aI24
aI7053
aI34
aI217
aI7
aI271
aI4830
aI63765
asg6
S'In pre-industrial societies most people live in multi-family dwelling for most of their lives .'
p11
ss.