(dp1
S'input'
p2
(dp3
S'encoded'
p4
(lp5
I64
aI2179
aI394
aI4261
aI8667
aI3
aI9361
aI5
aI17069
asS'ori'
p6
S'This house would prohibit burning the stars and stripes'
p7
ssS'output'
p8
(dp9
g4
(lp10
I2248
aI3386
aI24
aI89
aI8418
aI131
aI9992
aI3412
aI3470
aI63
aI1461
aI60
aI3
aI2695
aI3357
aI441
aI75
aI2217
aI707
aI53228
aI34
aI89
aI745
aI2483
aI7
aI3368
aI3817
aI3
aI667
aI2086
aI3304
aI92
aI64
aI2483
aI2056
aI835
aI2481
aI41
aI1964
asg6
S'Justice Black  in a brief but vigorous dissent  wrote that "I agree with the excellent opinion written by Chief Judge Fuld for a unanimous Court of Appeals  upholding the New York statute which this Court now holds unconstitutional as applied ."'
p11
ss.