(dp1
S'input'
p2
(dp3
S'encoded'
p4
(lp5
I64
aI2179
aI43
aI63
aI3
aI4990
aI4991
aI116
aI4850
aI24
aI12166
aI3
aI475
aI7
aI3532
aI3290
aI7
aI4714
asS'ori'
p6
S'This house believes that the Catholic Church is justified in forbidding the use of barrier methods of contraception'
p7
ssS'output'
p8
(dp9
g4
(lp10
I42
aI2062
aI3
aI6298
aI2014
aI26691
aI60
aI11890
aI26692
aI8227
aI26693
aI20647
aI1136
aI26694
aI3032
aI26695
aI5
aI80
aI24
aI63765
asg6
S'He founded the theological journal Communio  with Hans Urs von Balthasar  Henri de Lubac  Walter Kasper and others  in 1972 .'
p11
ss.