(dp1
S'input'
p2
(dp3
S'encoded'
p4
(lp5
I64
aI2179
aI235
aI3
aI2136
aI7
aI3
aI2306
aI7
aI2390
asS'ori'
p6
S'This house supports the one-child policy of the republic of China'
p7
ssS'output'
p8
(dp9
g4
(lp10
I40075
aI52989
aI63765
asg6
S'|- Uyghurs Altaic (Turkic) 3 640 125 0 .62 3 996 311 0 .58 5 917 030 0 .59 7 214 431 0 .64 8 399 393 0 .66  .'
p11
ss.