(dp1
S'input'
p2
(dp3
S'encoded'
p4
(lp5
I64
aI2179
aI394
aI15841
aI2736
asS'ori'
p6
S'This house would disband ASEAN'
p7
ssS'output'
p8
(dp9
g4
(lp10
I3236
aI34
aI2378
aI2379
aI3
aI7179
aI5
aI1795
aI7
aI2445
aI2446
aI5
aI3
aI7179
aI7
aI17
aI63765
asg6
S'i) respect for fundamental freedoms  the promotion and protection of human rights  and the promotion of social justice;  .'
p11
ss.