(dp1
S'input'
p2
(dp3
S'encoded'
p4
(lp5
I64
aI2179
aI394
aI5370
aI223
aI4013
aI10440
aI2446
aI4881
aI75
aI14482
aI11004
asS'ori'
p6
S'This house would abolish all collective bargaining rights claimed by trades unions'
p7
ssS'output'
p8
(dp9
g4
(lp10
I155
aI82
aI689
aI63
aI2409
aI23799
aI2487
aI463
aI99
aI4576
aI736
aI3524
aI3
aI667
aI2022
aI63
aI155
aI23912
aI63765
asg6
S'They likewise recognized that industrial unionism alone could not bring into existence the new society that they envisioned  .'
p11
ss.