(dp1
S'input'
p2
(dp3
S'encoded'
p4
(lp5
I64
aI2179
aI43
aI63
aI7382
aI116
aI400
aI4713
asS'ori'
p6
S'This house believes that bribery is sometimes acceptable'
p7
ssS'output'
p8
(dp9
g4
(lp10
I2521
aI7
aI132
aI2511
aI2446
aI11472
aI7330
aI2203
aI45
aI951
aI16187
aI16
aI502
aI24
aI3
aI282
aI192
aI63765
asg6
S'Violation of these laws rights enables corrupt countries to gain illegitimate economic advantage in the international market .'
p11
ss.