(dp1
S'input'
p2
(dp3
S'encoded'
p4
(lp5
I64
aI2179
aI43
aI8629
aI116
aI3
aI117
aI998
asS'ori'
p6
S'This house believes atheism is the only way'
p7
ssS'output'
p8
(dp9
g4
(lp10
I4254
aI1147
aI27467
aI3
aI11120
aI4642
aI7
aI3148
aI38686
aI134
aI60
aI25
aI284
aI42355
aI63765
asg6
S'Saint Thomas systematized the Augustinian conception of evil  supplementing it with his own musings .'
p11
ss.