(dp1
S'input'
p2
(dp3
S'encoded'
p4
(lp5
I64
aI2179
aI394
aI190
aI3
aI21
aI45
aI3895
aI834
asS'ori'
p6
S'This house would limit the right to bear arms'
p7
ssS'output'
p8
(dp9
g4
(lp10
I2611
aI2617
aI378
aI400
aI2757
aI89
aI2210
aI24
aI132
aI635
aI4250
aI63765
asg6
S'Gun violence  however  sometimes played a role in these riots (see Haymarket riot) .'
p11
ss.