(dp1
S'input'
p2
(dp3
S'encoded'
p4
(lp5
I64
aI2179
aI43
aI223
aI2138
aI11
aI89
aI21
aI45
aI2185
aI372
asS'ori'
p6
S'This house believes all nations have a right to nuclear weapons'
p7
ssS'output'
p8
(dp9
g4
(lp10
I1444
aI14
aI132
aI267
aI2220
aI2890
aI30265
aI2605
aI14
aI45
aI14230
aI63
aI3965
aI189
aI88
aI316
aI4544
aI24
aI1849
aI45
aI89
aI15645
aI2731
aI41
aI6460
aI73
aI41
aI1862
aI45
aI881
aI89
aI2157
aI2513
aI73
aI1235
aI2497
aI2731
aI19
aI4877
aI41
aI448
aI63765
asg6
S'Building on these two broad categories  Huth goes on to outline that deterrence policies may be implemented in response to a pressing short-term threat (known as immediate deterrence) or as strategy to prevent a military conflict or short term threat from arising (known as general deterrence) .'
p11
ss.