(dp1
S'input'
p2
(dp3
S'encoded'
p4
(lp5
I64
aI2179
aI43
aI17
aI4941
aI857
aI3211
asS'ori'
p6
S'This house believes social deprivation causes crime'
p7
ssS'output'
p8
(dp9
g4
(lp10
I487
aI1902
aI64
aI1039
aI55
aI12
aI1240
aI21049
aI24
aI3
aI7834
aI60
aI3
aI2471
aI7
aI2635
aI5869
aI1636
aI6954
aI73
aI10401
aI2466
aI63765
asg6
S'Until recently  this approach has been relatively neglected in the field  with the majority of resources directed towards secondary or tertiary prevention .'
p11
ss.