(dp1
S'input'
p2
(dp3
S'encoded'
p4
(lp5
I64
aI2179
aI394
aI5370
aI7146
aI4585
aI2446
asS'ori'
p6
S'This house would abolish intellectual property rights'
p7
ssS'output'
p8
(dp9
g4
(lp10
I1985
aI4211
aI4640
aI45
aI3
aI3292
aI5
aI16
aI2446
aI7
aI21909
aI24
aI271
aI6464
asg6
S'give statutory expression to the moral and economic rights of creators in their creations'
p11
ss.