(dp1
S'input'
p2
(dp3
S'encoded'
p4
(lp5
I64
aI2179
aI394
aI16642
aI1376
aI5269
asS'ori'
p6
S'This house would subsidize poor communities'
p7
ssS'output'
p8
(dp9
g4
(lp10
I3
aI1565
aI10848
aI24
aI122
aI1989
aI34
aI3
aI1565
aI3186
aI24
aI3
aI2762
aI63765
asg6
S'The European Delegation in Mexico-City  was responsible for the European involvement in the project .'
p11
ss.