(dp1
S'input'
p2
(dp3
S'encoded'
p4
(lp5
I64
aI2179
aI43
aI63
aI2157
aI2565
aI493
aI19084
aI382
aI4850
asS'ori'
p6
S"This house believes that Israel's 2008-2009 military operations against Gaza were justified"
p7
ssS'output'
p8
(dp9
g4
(lp10
I378
aI14
aI425
aI89
aI31353
aI11995
aI26113
aI3
aI46017
aI7
aI89
aI2240
aI24
aI25094
aI63765
asg6
S'However  on January 3  2009 a Grad rocket penetrated the fortification of a school in Ashkelon  .'
p11
ss.