(dp1
S'input'
p2
(dp3
S'encoded'
p4
(lp5
I64
aI2179
aI43
aI63
aI3
aI4991
aI7
aI180
aI417
aI316
aI5396
aI19
aI3
aI169
aI10
asS'ori'
p6
S'This house believes that the Church of England should be separated from the British state'
p7
ssS'output'
p8
(dp9
g4
(lp10
I3
aI3445
aI7
aI17623
aI4991
aI5
aI10
aI116
aI153
aI4004
aI45
aI3
aI8032
aI7
aI28
aI6165
aI495
aI13119
aI63765
aI233
aI45
aI25
aI6174
aI7
aI3
aI17
aI12855
aI13119
aI1966
aI63
aI3
aI260
aI3494
aI254
aI24
aI3
aI5686
aI7
aI229
aI4930
aI41
aI64
aI122
aI4722
aI12598
aI78
aI463
aI99
aI19083
aI45
aI3
aI260
aI34
aI134
aI73
aI80
aI45
aI708
aI63765
aI34
aI13119
aI64
aI123
aI89
aI35
aI21
aI24
aI3
aI3447
aI7
aI4930
aI92
aI42
aI1966
aI83
aI3082
aI2455
aI3537
aI19
aI351
aI260
aI254
asg6
S'The concept of separating church and state is often credited to the writings of English philosopher John Locke (16321704)  . According to his principle of the social contract  Locke argued that the government lacked authority in the realm of individual conscience  as this was something rational people could not cede to the government for it or others to control . For Locke  this created a natural right in the liberty of conscience  which he argued must therefore remain protected from any government authority'
p11
ss.