(dp1
S'input'
p2
(dp3
S'encoded'
p4
(lp5
I64
aI2179
aI43
aI223
aI2138
aI11
aI89
aI21
aI45
aI2185
aI372
asS'ori'
p6
S'This house believes all nations have a right to nuclear weapons'
p7
ssS'output'
p8
(dp9
g4
(lp10
I3
aI4666
aI296
aI116
aI51
aI6460
aI19533
aI4048
aI7
aI5638
aI204
aI24
aI15
aI2943
aI697
aI5
aI2944
aI2945
aI63765
asg6
S"The expected result is an immediate irreversible escalation of hostilities resulting in both combatants' mutual  total and assured destruction ."
p11
ss.