(dp1
S'input'
p2
(dp3
S'encoded'
p4
(lp5
I64
aI2179
aI394
aI16642
aI1376
aI5269
asS'ori'
p6
S'This house would subsidize poor communities'
p7
ssS'output'
p8
(dp9
g4
(lp10
I7399
aI7
aI3064
aI116
aI3
aI1649
aI7
aI112
aI3064
aI73
aI4585
aI19
aI100
aI147
aI45
aI80
aI1404
aI75
aI89
aI17
aI4550
aI159
aI41
aI4107
aI2896
aI189
aI9
aI14426
aI14086
aI9853
aI73
aI14427
aI70
aI63765
asg6
S'Redistribution of wealth is the transfer of income  wealth or property from some individuals to others caused by a social mechanism such as taxation  monetary policies  welfare  nationalization  charity  divorce or tort law  .'
p11
ss.