(dp1
S'input'
p2
(dp3
S'encoded'
p4
(lp5
I64
aI2179
aI394
aI2017
aI3807
aI314
aI3433
asS'ori'
p6
S'This house would ban partial birth abortions'
p7
ssS'output'
p8
(dp9
g4
(lp10
I3
aI3378
aI22982
aI3
aI16888
aI5
aI13220
aI100
aI3460
aI7371
aI60
aI9160
aI5
aI24
aI100
aI3052
aI1760
aI22983
aI822
aI3
aI13760
aI87
aI63
aI3460
aI7371
aI139
aI316
aI11944
aI63765
asg6
S'The procedure dilates the cervix and removes some fetal material with non-vacuum instruments  and  in some cases  uses curettage inside the uterus so that fetal material can be evacuated .'
p11
ss.