(dp1
S'input'
p2
(dp3
S'encoded'
p4
(lp5
I64
aI2179
aI394
aI16756
aI20435
asS'ori'
p6
S'This house would criminalize blasphemy'
p7
ssS'output'
p8
(dp9
g4
(lp10
I14
aI2959
aI89
aI5851
aI15858
aI24
aI3
aI14911
aI4996
aI7
aI62956
aI122
aI3
aI8413
aI7
aI89
aI10185
aI8672
aI63765
asg6
S'On April 2  a Dutch consulate in the Indonesian city of Medan was the scene of a student protest .'
p11
ss.