(dp1
S'input'
p2
(dp3
S'encoded'
p4
(lp5
I64
aI2179
aI394
aI2017
aI628
asS'ori'
p6
S'This house would ban gambling'
p7
ssS'output'
p8
(dp9
g4
(lp10
I6398
aI53
aI3
aI748
aI738
aI116
aI89
aI6954
aI1025
aI34
aI3
aI63765
asg6
S'Situations where the possible return is a secondary reason for the wager/purchase (e .g .'
p11
ss.