(dp1
S'input'
p2
(dp3
S'encoded'
p4
(lp5
I64
aI2179
aI43
aI24
aI3
aI475
aI7
aI12436
aI3364
asS'ori'
p6
S'This house believes in the use of affirmative action'
p7
ssS'output'
p8
(dp9
g4
(lp10
I459
aI6426
aI673
aI3
aI237
aI1565
aI546
aI45
aI3141
aI2976
aI89
aI3202
aI145
aI122
aI3
aI169
aI370
aI24
aI271
aI4445
aI7
aI2450
aI63765
asg6
S'Under Chinese influence  the first European power to successfully implement a merit-based civil system was the British Empire  in their administration of India .'
p11
ss.