(dp1
S'input'
p2
(dp3
S'encoded'
p4
(lp5
I64
aI2179
aI394
aI16642
aI1376
aI5269
asS'ori'
p6
S'This house would subsidize poor communities'
p7
ssS'output'
p8
(dp9
g4
(lp10
I93
aI1718
aI296
aI7
aI3
aI14466
aI14467
aI116
aI63
aI1879
aI4262
aI2722
aI3515
aI89
aI77
aI957
aI47
aI1199
aI3002
aI34
aI3858
aI1706
aI4262
aI7619
aI63765
asg6
S'One potential result of the Laffer curve is that increasing tax rates beyond a certain point will become counterproductive for raising further tax revenue .'
p11
ss.