(dp1
S'input'
p2
(dp3
S'encoded'
p4
(lp5
I64
aI2179
aI394
aI2017
aI262
asS'ori'
p6
S'This house would ban boxing'
p7
ssS'output'
p8
(dp9
g4
(lp10
I42
aI440
aI3
aI1500
aI7
aI89
aI1067
aI131
aI3
aI54843
aI1396
aI5
aI41381
aI7
aI51
aI92
aI7284
aI1063
aI25
aI1269
aI2323
aI63765
asg6
S'He had the strength of a brawler  but the combos  agility and ferocity of an in-fighter  which earned him his devastating reputation .'
p11
ss.