(dp1
S'input'
p2
(dp3
S'encoded'
p4
(lp5
I64
aI2179
aI235
aI3
aI2136
aI7
aI3
aI2306
aI7
aI2390
asS'ori'
p6
S'This house supports the one-child policy of the republic of China'
p7
ssS'output'
p8
(dp9
g4
(lp10
I3
aI2598
aI7
aI25486
aI55
aI34
aI1343
aI990
aI8501
aI19
aI24
aI45
aI24
aI63765
asg6
S'The population of Chad has  for example  ultimately grown from 6 279 921 in 1993 to 10 329 208 in 2009  .'
p11
ss.