(dp1
S'input'
p2
(dp3
S'encoded'
p4
(lp5
I64
aI2179
aI394
aI2773
aI12505
asS'ori'
p6
S'This house would embrace multiculturalism'
p7
ssS'output'
p8
(dp9
g4
(lp10
I397
aI64
aI3
aI282
aI5428
aI7210
aI1515
aI3
aI10070
aI5
aI6419
aI6619
aI2533
aI63765
asg6
S'During this the International Labour Organisation adopted the Indigenous and Tribal Peoples Convention  1989 .'
p11
ss.