(dp1
S'input'
p2
(dp3
S'encoded'
p4
(lp5
I64
aI2179
aI394
aI2017
aI223
aI9058
aI23653
asS'ori'
p6
S'This house would ban all unsustainable logging'
p7
ssS'output'
p8
(dp9
g4
(lp10
I89
aI570
aI3445
aI55
aI12
aI3075
aI75
aI28620
aI200
aI6694
aI19
aI7809
aI24
aI5
aI8254
aI7992
aI24
aI2760
aI2203
aI63765
asg6
S'A similar concept has been designed by REDD   Reducing Emissions from Deforestation in and Forest Degradation in Developing Countries .'
p11
ss.