(dp1
S'input'
p2
(dp3
S'encoded'
p4
(lp5
I64
aI2179
aI43
aI63
aI3
aI4990
aI4991
aI116
aI4850
aI24
aI12166
aI3
aI475
aI7
aI3532
aI3290
aI7
aI4714
asS'ori'
p6
S'This house believes that the Catholic Church is justified in forbidding the use of barrier methods of contraception'
p7
ssS'output'
p8
(dp9
g4
(lp10
I5318
aI81
aI21637
aI3257
aI182
aI513
aI45
aI316
aI6867
aI9830
aI41
aI4386
aI11316
aI7
aI3
aI3010
aI5990
aI4674
aI7
aI11316
aI70
aI73
aI11316
aI7
aI3
aI4674
aI7
aI26016
aI7
aI3
aI2793
aI6001
aI63765
asg6
S'Catholics who procure abortion are considered to be automatically excommunicated  as per Canon 1398 of the Latin Rite Code of Canon Law or Canon 1450 2 of the Code of Canons of the Eastern Churches .'
p11
ss.