(dp1
S'input'
p2
(dp3
S'encoded'
p4
(lp5
I64
aI2179
aI394
aI117
aI7428
aI21151
aI34
aI11389
aI2042
aI24
aI4364
asS'ori'
p6
S'This house would only teach abstinence for sex education in schools'
p7
ssS'output'
p8
(dp9
g4
(lp10
I8578
aI81
aI382
aI99
aI8491
aI2240
aI382
aI646
aI63765
aI136
aI1856
aI5
aI8578
aI81
aI382
aI1779
aI382
aI646
aI63765
aI136
aI1856
aI45
aI316
aI206
aI11389
aI63765
asg6
S'Girls who were not attending school were 14 .2% (17 .4% v . 31 .6%) more likely and girls who were employed were 14 .4%(36 .0% v . 21 .6%) more likely to be having sex  .'
p11
ss.