(dp1
S'input'
p2
(dp3
S'encoded'
p4
(lp5
I64
aI2179
aI394
aI117
aI7428
aI21151
aI34
aI11389
aI2042
aI24
aI4364
asS'ori'
p6
S'This house would only teach abstinence for sex education in schools'
p7
ssS'output'
p8
(dp9
g4
(lp10
I366
aI134
aI19213
aI11865
aI19
aI3
aI2240
aI3269
aI134
aI116
aI923
aI51
aI2508
aI2195
aI56102
aI1453
aI56103
aI2839
aI3269
aI2042
aI958
aI138
aI56104
aI24
aI1237
aI4364
aI271
aI8532
aI83
aI1985
aI654
aI45
aI3
aI52632
aI87
aI271
aI3862
aI88
aI3573
aI63765
asg6
S'After 1989  it practically vanished from the school life - it is currently an exclusive subject (called wychowanie do zycia w rodzinie/family life education rather than edukacja seksualna/sex education) in several schools their parents must give consent to the headmasters so their children may attend .'
p11
ss.