(dp1
S'input'
p2
(dp3
S'encoded'
p4
(lp5
I64
aI2179
aI394
aI4325
aI2042
aI270
aI89
aI11605
aI3324
asS'ori'
p6
S'This house would fund education using a voucher scheme'
p7
ssS'output'
p8
(dp9
g4
(lp10
I24
aI89
aI145
aI122
aI451
aI24
aI2048
aI63
aI187
aI63
aI5136
aI34
aI12445
aI88
aI316
aI443
aI595
aI138
aI7
aI4259
aI112
aI34
aI3
aI237
aI3315
aI34
aI3
aI1950
aI3315
aI34
aI3
aI3059
aI3315
aI5
aI1260
aI7
aI10293
aI34
aI3
aI4649
aI3315
aI24
aI63765
asg6
S'In 2002  a maximum-fee system was introduced in Sweden that states that costs for childcare may be no greater than 3% of ones income for the first child  2% for the second child  1% for the third child  and free of charge for the fourth child in pre-school .'
p11
ss.