(dp1
S'input'
p2
(dp3
S'encoded'
p4
(lp5
I64
aI2179
aI13605
aI2258
aI45
aI2194
asS'ori'
p6
S'This house prefers trade to aid'
p7
ssS'output'
p8
(dp9
g4
(lp10
I166
aI2042
aI116
aI49
aI872
aI7
aI1381
aI77
aI6804
aI24
aI2657
aI5
aI2318
aI2404
aI11
aI2695
aI7424
aI63765
asg6
S'Higher education is almost unheard of  although certain universities in Egypt and South Africa have excellent reputations .'
p11
ss.