(dp1
S'input'
p2
(dp3
S'encoded'
p4
(lp5
I64
aI2179
aI43
aI63
aI7382
aI116
aI400
aI4713
asS'ori'
p6
S'This house believes that bribery is sometimes acceptable'
p7
ssS'output'
p8
(dp9
g4
(lp10
I11706
aI51
aI5354
aI43662
aI3
aI8843
aI45
aI15923
aI73
aI6751
aI34
aI212
aI73
aI14014
aI4948
aI5
aI2142
aI182
aI1567
aI19
aI1197
aI7
aI79
aI736
aI53
aI147
aI5
aI3136
aI3222
aI271
aI284
aI2444
aI63765
asg6
S'Controlling an office entitles the holder to rents or payments for real or fake activities  and organizations are turned from places of work into "resource banks" where individuals and groups pursue their own interests .'
p11
ss.