(dp1
S'input'
p2
(dp3
S'encoded'
p4
(lp5
I64
aI2179
aI394
aI16756
aI20435
asS'ori'
p6
S'This house would criminalize blasphemy'
p7
ssS'output'
p8
(dp9
g4
(lp10
I15885
aI2164
aI29505
aI55
aI2149
aI588
aI3
aI2696
aI5
aI248
aI5761
aI187
aI3584
aI86
aI45
aI11952
aI6880
aI2885
aI1640
aI41
aI7365
aI500
aI63765
asg6
S'Sudanese president Omar al-Bashir has backed up the country and other Muslim states  requiring them to boycott Danish products just as Sudan did .'
p11
ss.