(dp1
S'input'
p2
(dp3
S'encoded'
p4
(lp5
I64
aI2179
aI394
aI5284
aI150
aI3987
asS'ori'
p6
S'This house would reintroduce national service'
p7
ssS'output'
p8
(dp9
g4
(lp10
I248
aI4702
aI159
aI41
aI3
aI481
aI3520
aI411
aI358
aI15
aI3990
aI2157
aI5
aI150
aI3987
aI41
aI3708
aI7
aI6219
aI5065
aI24
aI5615
aI3939
aI63765
asg6
S'Other proponents such as the late William James consider both mandatory military and national service as ways of instilling maturity in young adults  .'
p11
ss.