(dp1
S'input'
p2
(dp3
S'encoded'
p4
(lp5
I64
aI2179
aI394
aI15841
aI2736
asS'ori'
p6
S'This house would disband ASEAN'
p7
ssS'output'
p8
(dp9
g4
(lp10
I116
aI1155
aI2031
aI75
aI3
aI2692
aI260
aI620
aI3
aI2371
aI282
aI2568
aI2904
aI5
aI2916
aI2031
aI75
aI3
aI2736
aI3565
aI63765
asg6
S'AUN/SEED-Net is mainly supported by the Japanese Government through the Japan International Cooperation Agency (JICA)   and partially supported by the ASEAN Foundation .'
p11
ss.