(dp1
S'input'
p2
(dp3
S'encoded'
p4
(lp5
I64
aI2179
aI394
aI5370
aI223
aI4013
aI10440
aI2446
aI4881
aI75
aI14482
aI11004
asS'ori'
p6
S'This house would abolish all collective bargaining rights claimed by trades unions'
p7
ssS'output'
p8
(dp9
g4
(lp10
I508
aI12616
aI11004
aI11
aI12
aI3531
aI41
aI89
aI203
aI1337
aI63765
asg6
S'Thus  craft unions have been criticized as a labor elite .'
p11
ss.