(dp1
S'input'
p2
(dp3
S'encoded'
p4
(lp5
I64
aI2179
aI394
aI190
aI3
aI21
aI45
aI3895
aI834
asS'ori'
p6
S'This house would limit the right to bear arms'
p7
ssS'output'
p8
(dp9
g4
(lp10
I14
aI2779
aI3
aI16496
aI3855
aI2484
aI3
aI2503
aI2017
aI14
aI4539
aI7
aI17193
aI4438
aI63765
asg6
S'2008) - On August 29  2008  the Tenth Circuit upheld the federal ban on possession of unregistered sawed-off shotguns  .'
p11
ss.