(dp1
S'input'
p2
(dp3
S'encoded'
p4
(lp5
I64
aI2179
aI43
aI63
aI2659
aI417
aI1690
aI3
aI12048
aI7
aI19084
asS'ori'
p6
S'This house believes that Israel should lift the blockade of Gaza'
p7
ssS'output'
p8
(dp9
g4
(lp10
I1980
aI5844
aI291
aI5
aI1619
aI89
aI3830
aI5
aI2258
aI116
aI472
aI63765
asg6
S'Men aged between 18 and 40 require a permit and trade is prohibited  .'
p11
ss.