(dp1
S'input'
p2
(dp3
S'encoded'
p4
(lp5
I64
aI2179
aI43
aI63
aI6670
aI546
aI417
aI316
aI89
aI1334
aI3108
aI7
aI4849
aI1886
aI2855
asS'ori'
p6
S'This house believes that wind power should be a primary focus of future energy supply'
p7
ssS'output'
p8
(dp9
g4
(lp10
I15683
aI351
aI516
aI696
aI7
aI5109
aI1343
aI24
aI89
aI6670
aI727
aI24
aI979
aI5023
aI1794
aI41
aI572
aI41
aI3
aI4704
aI291
aI3
aI2448
aI7
aI574
aI5105
aI116
aI20588
aI5
aI3
aI16817
aI182
aI243
aI20588
aI1021
aI45
aI3
aI830
aI291
aI574
aI5105
aI63765
asg6
S'Combining any additional number of turbines (for example  in a wind farm) results in lower statistical variation  as long as the correlation between the output of each turbine is imperfect  and the correlations are always imperfect due to the distance between each turbine .'
p11
ss.