(dp1
S'input'
p2
(dp3
S'encoded'
p4
(lp5
I64
aI2179
aI43
aI63
aI134
aI116
aI400
aI21
aI34
aI3
aI260
aI45
aI3439
aI57
aI7
aI2381
asS'ori'
p6
S'This house believes that it is sometimes right for the government to restrict freedom of speech'
p7
ssS'output'
p8
(dp9
g4
(lp10
I1381
aI3
aI2784
aI4228
aI51
aI3461
aI34
aI2041
aI3
aI32979
aI55
aI440
aI51
aI918
aI14
aI3
aI3048
aI20847
aI2041
aI2178
aI604
aI725
aI2384
aI63
aI271
aI32980
aI2041
aI5627
aI73
aI876
aI316
aI4920
aI45
aI3559
aI3
aI70
aI63765
asg6
S'Although the Act contains an exception for research  the DMCA has had an impact on the worldwide cryptography research community  because many fear that their cryptanalytic research violates  or might be construed to violate the law .'
p11
ss.