(dp1
S'input'
p2
(dp3
S'encoded'
p4
(lp5
I64
aI2179
aI43
aI8629
aI116
aI3
aI117
aI998
asS'ori'
p6
S'This house believes atheism is the only way'
p7
ssS'output'
p8
(dp9
g4
(lp10
I487
aI3
aI312
aI7
aI285
aI2223
aI2236
aI3
aI6465
aI7
aI2371
aI557
aI89
aI570
aI2554
aI5
aI60966
aI7
aI369
aI6487
aI122
aI279
aI1485
aI1592
aI3
aI5406
aI7
aI33356
aI63765
asg6
S'Until the end of World War II the Emperor of Japan held a similar status  and deification of Roman emperors was common practice following the reign of Augustus  .'
p11
ss.