(dp1
S'input'
p2
(dp3
S'encoded'
p4
(lp5
I64
aI2179
aI43
aI63
aI3376
aI4938
aI417
aI316
aI3537
asS'ori'
p6
S'This house believes that endangered species should be protected'
p7
ssS'output'
p8
(dp9
g4
(lp10
I3
aI3728
aI7
aI3889
aI4938
aI852
aI116
aI221
aI136
aI2604
aI75
aI3
aI68
aI63
aI217
aI7
aI3
aI4938
aI11
aI99
aI12
aI1545
aI73
aI3040
aI63765
asg6
S"The measure of ongoing species loss is made more complex by the fact that most of the Earth's species have not been described or evaluated ."
p11
ss.