(dp1
S'input'
p2
(dp3
S'encoded'
p4
(lp5
I64
aI2179
aI43
aI63
aI2659
aI417
aI1690
aI3
aI12048
aI7
aI19084
asS'ori'
p6
S'This house believes that Israel should lift the blockade of Gaza'
p7
ssS'output'
p8
(dp9
g4
(lp10
I10265
aI1191
aI25
aI4031
aI2368
aI14635
aI116
aI63
aI134
aI3610
aI366
aI136
aI138
aI89
aI3569
aI7
aI29957
aI29958
aI75
aI3
aI2714
aI4445
aI92
aI887
aI248
aI194
aI55
aI17534
aI25
aI19964
aI8935
aI311
aI3900
aI2385
aI1063
aI265
aI3
aI25026
aI29959
aI5
aI20149
aI45
aI5757
aI29960
aI1191
aI3
aI10921
aI8579
aI63765
asg6
S'"What\'s remarkable about his turn toward extremism is that it comes after more than a year of assiduous courting by the Obama administration  which  among other things  has overlooked his antidemocratic behavior at home  helped him combat the Kurdish PKK and catered to Turkish sensitivities about the Armenian genocide .'
p11
ss.