(dp1
S'input'
p2
(dp3
S'encoded'
p4
(lp5
I64
aI2179
aI43
aI63
aI3
aI4538
aI7
aI4434
aI7793
aI283
aI45
aI3586
aI417
aI316
aI577
asS'ori'
p6
S'This house believes that the sale of violent video games to minors should be banned'
p7
ssS'output'
p8
(dp9
g4
(lp10
I136
aI138
aI89
aI3854
aI7
aI8803
aI9752
aI14
aI2318
aI5025
aI3862
aI382
aI353
aI45
aI11
aI788
aI238
aI24
aI4364
aI63765
asg6
S'More than a fifth of sexual assaults on South African children were found to have taken place in schools .'
p11
ss.