(dp1
S'input'
p2
(dp3
S'encoded'
p4
(lp5
I64
aI2179
aI43
aI63
aI3
aI4990
aI4991
aI116
aI4850
aI24
aI12166
aI3
aI475
aI7
aI3532
aI3290
aI7
aI4714
asS'ori'
p6
S'This house believes that the Catholic Church is justified in forbidding the use of barrier methods of contraception'
p7
ssS'output'
p8
(dp9
g4
(lp10
I16497
aI5254
aI382
aI374
aI566
aI60
aI3217
aI4779
aI131
aI217
aI2068
aI4471
aI7
aI3
aI31631
aI158
aI3
aI46855
aI5
aI46856
aI182
aI15
aI449
aI3456
aI5
aI1112
aI5
aI1619
aI419
aI207
aI5088
aI63765
asg6
S'Intrauterine devices (IUDs) were once associated with health risks  but most recent models of the IUD  including the ParaGard and Mirena  are both extremely safe and effective  and require very little maintenance  .'
p11
ss.