(dp1
S'input'
p2
(dp3
S'encoded'
p4
(lp5
I64
aI2179
aI394
aI10662
aI626
aI187
aI2157
aI2697
aI19
aI2371
asS'ori'
p6
S'This house would remove United States military bases from Japan'
p7
ssS'output'
p8
(dp9
g4
(lp10
I2371
aI55
aI64
aI1379
aI2340
aI89
aI2268
aI7
aI2250
aI60
aI3
aI2320
aI2280
aI63765
asg6
S'Japan has this day signed a Treaty of Peace with the Allied Powers .'
p11
ss.