(dp1
S'input'
p2
(dp3
S'encoded'
p4
(lp5
I64
aI2179
aI43
aI63
aI3
aI21
aI45
aI12715
aI417
aI99
aI316
aI2897
asS'ori'
p6
S'This house believes that the right to asylum should not be absolute'
p7
ssS'output'
p8
(dp9
g4
(lp10
I2610
aI189
aI92
aI6114
aI3351
aI57
aI7
aI910
aI45
aI9274
aI147
aI182
aI1881
aI45
aI3051
aI89
aI2914
aI16
aI951
aI34
aI3
aI2671
aI2696
aI63765
asg6
S'Immigration policies which selectively grant freedom of movement to targeted individuals are intended to produce a net economic gain for the host country .'
p11
ss.