(dp1
S'input'
p2
(dp3
S'encoded'
p4
(lp5
I64
aI2179
aI43
aI63
aI3
aI21
aI45
aI12715
aI417
aI99
aI316
aI2897
asS'ori'
p6
S'This house believes that the right to asylum should not be absolute'
p7
ssS'output'
p8
(dp9
g4
(lp10
I7628
aI8185
aI2072
aI5613
aI7
aI314
aI12420
aI5
aI4564
aI11558
aI47
aI316
aI4552
aI493
aI41815
aI1460
aI45
aI12878
aI89
aI7405
aI63765
aI63765
aI63765
aI47
aI11
aI89
aI165
aI23138
aI10486
aI7
aI18471
aI3300
aI24
aI5
aI864
aI7
aI3
aI2696
aI63765
asg6
S'Passenger details (including names  dates of birth  nationality and travel document details) will be checked against multi-agency watchlists prior to boarding a flight . . . .we will have a much clearer picture of passengers movements in and out of the country .'
p11
ss.