(dp1
S'input'
p2
(dp3
S'encoded'
p4
(lp5
I64
aI2179
aI394
aI5370
aI223
aI4013
aI10440
aI2446
aI4881
aI75
aI14482
aI11004
asS'ori'
p6
S'This house would abolish all collective bargaining rights claimed by trades unions'
p7
ssS'output'
p8
(dp9
g4
(lp10
I3
aI7015
aI2016
aI28085
aI28086
aI28087
aI98
aI99
aI13163
aI45
aI2784
aI41
aI89
aI2131
aI41
aI134
aI174
aI978
aI3
aI2444
aI7
aI7129
aI3224
aI63765
asg6
S'The engineers association Verein Deutscher Ingenieure does not strive to act as a union  as it also represents the interests of engineering businesses .'
p11
ss.