(dp1
S'input'
p2
(dp3
S'encoded'
p4
(lp5
I64
aI2179
aI43
aI63
aI134
aI116
aI400
aI21
aI34
aI3
aI260
aI45
aI3439
aI57
aI7
aI2381
asS'ori'
p6
S'This house believes that it is sometimes right for the government to restrict freedom of speech'
p7
ssS'output'
p8
(dp9
g4
(lp10
I3
aI626
aI187
aI2477
aI2533
aI1047
aI41
aI3
aI9923
aI2533
aI5
aI380
aI248
aI427
aI238
aI19
aI88
aI45
aI2555
aI24
aI9923
aI5879
aI5
aI1381
aI3
aI2533
aI122
aI14369
aI1881
aI117
aI45
aI15757
aI3
aI3567
aI7
aI6127
aI3
aI2033
aI19
aI3
aI14337
aI7
aI725
aI7
aI211
aI4702
aI2217
aI887
aI86
aI411
aI5886
aI5
aI5420
aI10366
aI122
aI45
aI836
aI89
aI667
aI260
aI958
aI138
aI8473
aI3
aI3904
aI93
aI63765
asg6
S'The United States Constitutional Convention (also known as the Philadelphia Convention  and various other names) took place from May 14 to September 17  1787  in Philadelphia  Pennsylvania and although the Convention was purportedly intended only to revise the Articles of Confederation  the intention from the outset of many of its proponents  chief among them James Madison and Alexander Hamilton  was to create a new government rather than fix the existing one .'
p11
ss.