(dp1
S'input'
p2
(dp3
S'encoded'
p4
(lp5
I64
aI2179
aI394
aI2773
aI12505
asS'ori'
p6
S'This house would embrace multiculturalism'
p7
ssS'output'
p8
(dp9
g4
(lp10
I233
aI45
aI51
aI3357
aI3713
aI136
aI138
aI2642
aI3
aI2598
aI10253
aI60
aI3
aI171
aI63765
asg6
S'According to an opinion poll more than half the population agrees with the party  .'
p11
ss.