(dp1
S'input'
p2
(dp3
S'encoded'
p4
(lp5
I64
aI2179
aI43
aI63
aI3376
aI4938
aI417
aI316
aI3537
asS'ori'
p6
S'This house believes that endangered species should be protected'
p7
ssS'output'
p8
(dp9
g4
(lp10
I5166
aI6793
aI116
aI1185
aI24
aI2751
aI7797
aI51
aI2888
aI759
aI7
aI2148
aI3964
aI2702
aI63765
asg6
S'Habitat conservation is important in maintaining biodiversity  an essential part of global food security .'
p11
ss.