(dp1
S'input'
p2
(dp3
S'encoded'
p4
(lp5
I64
aI2179
aI394
aI5370
aI3
aI5286
asS'ori'
p6
S'This house would abolish the monarchy'
p7
ssS'output'
p8
(dp9
g4
(lp10
I24
aI181
aI3
aI5301
aI1760
aI51
aI4834
aI399
aI7
aI3
aI834
aI24
aI92
aI9116
aI2233
aI5
aI6285
aI3420
aI181
aI2236
aI180
aI5
aI3501
aI4581
aI63765
asg6
S'In Scotland  the monarch uses an alternative form of the arms in which quarters I and IV represent Scotland  II England  and III Ireland .'
p11
ss.