(dp1
S'input'
p2
(dp3
S'encoded'
p4
(lp5
I64
aI2179
aI43
aI63
aI3376
aI4938
aI417
aI316
aI3537
asS'ori'
p6
S'This house believes that endangered species should be protected'
p7
ssS'output'
p8
(dp9
g4
(lp10
I732
aI3384
aI34
aI1864
aI87
aI182
aI63
aI3
aI38384
aI38385
aI4155
aI5
aI38386
aI38385
aI4155
aI38387
aI10086
aI13726
aI10086
aI38388
aI5
aI248
aI3420
aI117
aI38389
aI132
aI394
aI3810
aI311
aI870
aI93
aI2639
aI2445
aI4830
aI4386
aI14116
aI311
aI89
aI5084
aI7
aI200
aI3
aI4839
aI2768
aI7
aI3
aI3874
aI38390
aI75
aI117
aI63765
asg6
S'Her arguments for doing so are that the Anopheles mosquitoes (which spread malaria) and Aedes mosquitoes (which spread dengue fever  yellow fever  elephantiasis  and other diseases) represent only 30 species; eradicating these would save at least one million human lives per annum at a cost of reducing the genetic diversity of the family Culicidae by only 1% .'
p11
ss.