(dp1
S'input'
p2
(dp3
S'encoded'
p4
(lp5
I64
aI2179
aI43
aI63
aI2659
aI417
aI1690
aI3
aI12048
aI7
aI19084
asS'ori'
p6
S'This house believes that Israel should lift the blockade of Gaza'
p7
ssS'output'
p8
(dp9
g4
(lp10
I134
aI2820
aI120
aI17240
aI45
aI1709
aI7500
aI45
aI19084
aI45
aI1453
aI87
aI620
aI2929
aI92
aI1074
aI6056
aI5
aI338
aI19094
aI63765
asg6
S'It urged those wishing to deliver goods to Gaza to do so through "established channels " which include Israeli and Egyptian crossings  .'
p11
ss.