(dp1
S'input'
p2
(dp3
S'encoded'
p4
(lp5
I64
aI2179
aI43
aI63
aI6670
aI546
aI417
aI316
aI89
aI1334
aI3108
aI7
aI4849
aI1886
aI2855
asS'ori'
p6
S'This house believes that wind power should be a primary focus of future energy supply'
p7
ssS'output'
p8
(dp9
g4
(lp10
I145
aI1517
aI139
aI843
aI1797
aI45
aI16422
aI546
aI73
aI475
aI18082
aI16444
aI73
aI5107
aI2938
aI45
aI13462
aI3
aI6670
aI5105
aI63765
asg6
S'Off-grid system users can either adapt to intermittent power or use batteries  photovoltaic or diesel systems to supplement the wind turbine .'
p11
ss.