(dp1
S'input'
p2
(dp3
S'encoded'
p4
(lp5
I64
aI2179
aI235
aI3
aI2136
aI7
aI3
aI2306
aI7
aI2390
asS'ori'
p6
S'This house supports the one-child policy of the republic of China'
p7
ssS'output'
p8
(dp9
g4
(lp10
I257
aI63
aI32718
aI122
aI695
aI45
aI316
aI93
aI3315
aI34
aI1343
aI768
aI3
aI237
aI3315
aI394
aI316
aI1260
aI5
aI3
aI192
aI394
aI1358
aI61
aI3
aI4404
aI9011
aI34
aI574
aI516
aI3315
aI394
aI5084
aI63765
asg6
S'If that allotment was determined to be one child  for example  then the first child would be free  and the market would determine what the license fee for each additional child would cost .'
p11
ss.