(dp1
S'input'
p2
(dp3
S'encoded'
p4
(lp5
I64
aI2179
aI43
aI63
aI3
aI4990
aI4991
aI116
aI4850
aI24
aI12166
aI3
aI475
aI7
aI3532
aI3290
aI7
aI4714
asS'ori'
p6
S'This house believes that the Catholic Church is justified in forbidding the use of barrier methods of contraception'
p7
ssS'output'
p8
(dp9
g4
(lp10
I180
aI3026
aI3
aI2543
aI7
aI3
aI237
aI281
aI21152
aI6703
aI3098
aI5076
aI63765
aI14085
aI5
aI6271
aI7
aI39735
aI63765
asg6
S'1870s England saw the founding of the first major condom manufacturing company  E . Lambert and Son of Dalston  .'
p11
ss.