(dp1
S'input'
p2
(dp3
S'encoded'
p4
(lp5
I64
aI2179
aI394
aI190
aI3
aI21
aI45
aI3895
aI834
asS'ori'
p6
S'This house would limit the right to bear arms'
p7
ssS'output'
p8
(dp9
g4
(lp10
I3
aI70
aI2017
aI351
aI2386
aI3892
aI73
aI372
aI134
aI3418
aI187
aI3
aI4352
aI45
aI284
aI93
aI63765
asg6
S"The law doesn't ban any specific firearms or weapons  it merely states the requirements to own one ."
p11
ss.