(dp1
S'input'
p2
(dp3
S'encoded'
p4
(lp5
I64
aI2179
aI43
aI63
aI3376
aI4938
aI417
aI316
aI3537
asS'ori'
p6
S'This house believes that endangered species should be protected'
p7
ssS'output'
p8
(dp9
g4
(lp10
I9636
aI182
aI149
aI5185
aI34
aI1771
aI6810
aI4938
aI63765
asg6
S'Location-specific approaches are less useful for protecting migratory species .'
p11
ss.