(dp1
S'input'
p2
(dp3
S'encoded'
p4
(lp5
I64
aI2179
aI394
aI60
aI23587
asS'ori'
p6
S'This house would re-engage with Myanmar'
p7
ssS'output'
p8
(dp9
g4
(lp10
I120
aI5162
aI440
aI12
aI2200
aI45
aI2267
aI89
aI237
aI63765
asg6
S'Those released had been asked to sign a "pledge" first  .'
p11
ss.