(dp1
S'input'
p2
(dp3
S'encoded'
p4
(lp5
I64
aI2179
aI394
aI117
aI7428
aI21151
aI34
aI11389
aI2042
aI24
aI4364
asS'ori'
p6
S'This house would only teach abstinence for sex education in schools'
p7
ssS'output'
p8
(dp9
g4
(lp10
I9845
aI34
aI725
aI5268
aI57075
aI10953
aI978
aI99
aI57
aI5
aI18719
aI131
aI116
aI89
aI12101
aI514
aI344
aI60
aI8803
aI56831
aI8274
aI364
aI63
aI15
aI8502
aI5
aI11648
aI45
aI9041
aI3
aI4658
aI7
aI18862
aI28742
aI5
aI59565
aI63765
asg6
S'Meanwhile  for many kids precocious sexuality represents not freedom and experimentation but is a byproduct frequently seen with sexual trauma: compulsively driven activity that both expresses and aims to manage the effects of chronic intrusion and overstimulation .'
p11
ss.