(dp1
S'input'
p2
(dp3
S'encoded'
p4
(lp5
I64
aI2179
aI394
aI117
aI7428
aI21151
aI34
aI11389
aI2042
aI24
aI4364
asS'ori'
p6
S'This house would only teach abstinence for sex education in schools'
p7
ssS'output'
p8
(dp9
g4
(lp10
I1356
aI63
aI1358
aI92
aI3534
aI182
aI136
aI1856
aI45
aI11
aI89
aI2398
aI6983
aI16335
aI314
aI1074
aI8559
aI5
aI3
aI11560
aI4698
aI60
aI3
aI126
aI7
aI2042
aI7
aI3
aI5615
aI3833
aI73
aI732
aI8532
aI5
aI4696
aI257
aI3313
aI4712
aI6603
aI63765
asg6
S'Factors that determine which mothers are more likely to have a closely spaced repeat birth include marriage and education: the likelihood decreases with the level of education of the young woman  or her parents  and increases if she gets married  .'
p11
ss.