(dp1
S'input'
p2
(dp3
S'encoded'
p4
(lp5
I64
aI2179
aI43
aI63
aI3
aI21
aI45
aI12715
aI417
aI99
aI316
aI2897
asS'ori'
p6
S'This house believes that the right to asylum should not be absolute'
p7
ssS'output'
p8
(dp9
g4
(lp10
I24
aI1191
aI1968
aI5307
aI382
aI24
aI1191
aI382
aI24
aI1191
aI382
aI5
aI24
aI1191
aI382
aI6942
aI63765
asg6
S'In 2006 about 1 000 illegal immigrants were caught; in 2007 about 5 000 were caught; in 2008 about 8 700 were caught; and in 2009 about 5 000 were caught  .'
p11
ss.