(dp1
S'input'
p2
(dp3
S'encoded'
p4
(lp5
I64
aI2179
aI43
aI63
aI3
aI4538
aI7
aI4434
aI7793
aI283
aI45
aI3586
aI417
aI316
aI577
asS'ori'
p6
S'This house believes that the sale of violent video games to minors should be banned'
p7
ssS'output'
p8
(dp9
g4
(lp10
I24
aI2318
aI2047
aI5226
aI283
aI182
aI246
aI3476
aI289
aI15104
aI283
aI946
aI29353
aI283
aI5
aI1862
aI283
aI63765
asg6
S'In South Korea  computer games are generally preferred over console games  especially MMORPG games and real-time strategy games .'
p11
ss.