(dp1
S'input'
p2
(dp3
S'encoded'
p4
(lp5
I64
aI2179
aI394
aI16642
aI1376
aI5269
asS'ori'
p6
S'This house would subsidize poor communities'
p7
ssS'output'
p8
(dp9
g4
(lp10
I226
aI725
aI3664
aI5726
aI182
aI637
aI1370
aI45
aI154
aI51
aI9518
aI45
aI130
aI725
aI187
aI5
aI17017
aI182
aI1609
aI51
aI2419
aI45
aI1746
aI3
aI1351
aI63765
asg6
S'While many governmental officials are still trying to find an answer to poverty  many states and localities are making an effort to break the cycle .'
p11
ss.