(dp1
S'input'
p2
(dp3
S'encoded'
p4
(lp5
I64
aI2179
aI43
aI223
aI2138
aI11
aI89
aI21
aI45
aI2185
aI372
asS'ori'
p6
S'This house believes all nations have a right to nuclear weapons'
p7
ssS'output'
p8
(dp9
g4
(lp10
I725
aI234
aI3
aI10938
aI7
aI2185
aI372
aI75
aI132
aI187
aI41
aI89
aI2731
aI45
aI2184
aI5
aI285
aI2250
aI5
aI3082
aI3742
aI189
aI45
aI184
aI3
aI4155
aI7
aI2185
aI372
aI45
aI132
aI187
aI89
aI1896
aI7
aI92
aI182
aI153
aI1545
aI75
aI3
aI2206
aI41
aI63765
asg6
S'Many view the pursuit of nuclear weapons by these states as a threat to nonproliferation and world peace  and therefore seek policies to discourage the spread of nuclear weapons to these states  a few of which are often described by the US as "rogue states" .'
p11
ss.