(dp1
S'input'
p2
(dp3
S'encoded'
p4
(lp5
I64
aI2179
aI394
aI1499
aI3
aI8115
aI34564
aI17106
asS'ori'
p6
S'This house would build the Keystone XL pipeline'
p7
ssS'output'
p8
(dp9
g4
(lp10
I24
aI2223
aI45623
aI182
aI153
aI3
aI1409
aI7
aI2157
aI1687
aI41
aI2945
aI7
aI45623
aI139
aI992
aI13532
aI7254
aI16145
aI63765
asg6
S'In war  pipelines are often the target of military attacks  as destruction of pipelines can seriously disrupt enemy logistics .'
p11
ss.