(dp1
S'input'
p2
(dp3
S'encoded'
p4
(lp5
I64
aI2179
aI43
aI3
aI626
aI187
aI116
aI1989
aI34
aI3102
aI2223
asS'ori'
p6
S"This house believes the United States is responsible for Mexico's drugs war"
p7
ssS'output'
p8
(dp9
g4
(lp10
I8277
aI897
aI55
aI691
aI1590
aI211
aI1597
aI14
aI79
aI9047
aI25
aI2902
aI45
aI18311
aI89
aI7191
aI134
aI440
aI3192
aI63765
asg6
S"Mainstream media has since reversed its position on Webb's work acknowledging his contribution to exposing a scandal it had ignored ."
p11
ss.