(dp1
S'input'
p2
(dp3
S'encoded'
p4
(lp5
I64
aI2179
aI43
aI63
aI3
aI21
aI45
aI12715
aI417
aI99
aI316
aI2897
asS'ori'
p6
S'This house believes that the right to asylum should not be absolute'
p7
ssS'output'
p8
(dp9
g4
(lp10
I273
aI382
aI43505
aI43506
aI33126
aI5
aI14655
aI14
aI3
aI2318
aI2390
aI7145
aI860
aI75
aI10415
aI5735
aI81
aI43507
aI14
aI3
aI7477
aI81
aI440
aI7783
aI223
aI271
aI9827
aI5
aI2566
aI7632
aI60
aI86
aI14
aI3
aI10808
aI63765
asg6
S'There were untold miseries  rapes and murders on the South China Sea committed by Thai pirates who preyed on the refugees who had sold all their possessions and carried gold with them on the trips .'
p11
ss.