(dp1
S'input'
p2
(dp3
S'encoded'
p4
(lp5
I64
aI2179
aI43
aI63
aI3
aI21
aI45
aI12715
aI417
aI99
aI316
aI2897
asS'ori'
p6
S'This house believes that the right to asylum should not be absolute'
p7
ssS'output'
p8
(dp9
g4
(lp10
I273
aI382
aI100
aI641
aI1418
aI5
aI1381
aI14357
aI32260
aI440
aI7883
aI75
aI3
aI3130
aI3569
aI64
aI122
aI99
aI3
aI33
aI53
aI3
aI41755
aI382
aI2946
aI63765
asg6
S'There were some notable successes and  although undocumented arrivals had risen by 17% the previous year  this was not the case where the ALOs were deployed .'
p11
ss.