(dp1
S'input'
p2
(dp3
S'encoded'
p4
(lp5
I64
aI2179
aI394
aI190
aI3
aI21
aI45
aI3895
aI834
asS'ori'
p6
S'This house would limit the right to bear arms'
p7
ssS'output'
p8
(dp9
g4
(lp10
I4417
aI10507
aI372
aI3584
aI17228
aI851
aI572
aI372
aI34
aI4418
aI5
aI3923
aI13734
aI5
aI17228
aI851
aI4438
aI5
aI372
aI1234
aI138
aI17231
aI24
aI164
aI6391
aI1343
aI4356
aI5
aI17232
aI131
aI174
aI3364
aI4437
aI459
aI17231
aI164
aI63765
asg6
S'Category B - Weapons requiring permission: Semi automatic long weapons for sporting and hunting  repeating (non-pump action) and semi automatic shotguns and weapons shorter than 60 cm in overall length (for example pistols and revolvers  but also bolt/lever/pump action rifles under 60 cm overall lenght) .'
p11
ss.