(dp1
S'input'
p2
(dp3
S'encoded'
p4
(lp5
I64
aI2179
aI394
aI1499
aI177
aI1819
aI34
aI160
asS'ori'
p6
S'This house would build high rises for housing'
p7
ssS'output'
p8
(dp9
g4
(lp10
I289
aI3
aI1447
aI863
aI2439
aI3
aI2546
aI385
aI159
aI41
aI12318
aI18887
aI39284
aI5
aI18141
aI11
aI2423
aI667
aI1445
aI11279
aI1444
aI63765
asg6
S'Over the last five years the largest cities such as Dublin  Cork  Limerick and Galway have witnessed new large apartment building .'
p11
ss.