(dp1
S'input'
p2
(dp3
S'encoded'
p4
(lp5
I64
aI2179
aI394
aI2017
aI628
asS'ori'
p6
S'This house would ban gambling'
p7
ssS'output'
p8
(dp9
g4
(lp10
I233
aI45
aI11890
aI14702
aI14703
aI7
aI3
aI14704
aI5
aI14705
aI14706
aI1851
aI311
aI3
aI4393
aI448
aI3644
aI6752
aI24
aI89
aI2312
aI2832
aI2009
aI11688
aI419
aI570
aI45
aI63
aI2778
aI24
aI89
aI3103
aI14707
aI701
aI51
aI14708
aI7
aI3103
asg6
S'according to Hans Breiter  MD  co-director of the motivation and Emotion Neuroscience Centre at the Massachusetts General Hospital  "Monetary reward in a gambling-like experiment produces brain activation very similar to that observed in a cocaine addict receiving an infusion of cocaine ."'
p11
ss.