(dp1
S'input'
p2
(dp3
S'encoded'
p4
(lp5
I64
aI2179
aI394
aI16642
aI1376
aI5269
asS'ori'
p6
S'This house would subsidize poor communities'
p7
ssS'output'
p8
(dp9
g4
(lp10
I2042
aI3217
aI112
aI5122
aI7631
aI934
aI19023
aI3709
aI3941
aI9041
aI2038
aI311
aI870
aI23073
aI11968
aI23007
aI2167
aI5
aI311
aI217
aI193
aI51
aI197
aI6424
aI92
aI933
aI23074
aI5537
aI934
aI19023
aI501
aI220
aI45
aI163
aI7167
aI63
aI96
aI4510
aI5
aI2234
aI63765
asg6
S'education  health  income generating opportunities Safety nets help households manage risk  at least offsetting harmful coping strategies and at most providing an insurance function which improves livelihood options Safety nets allow governments to make choices that support efficiency and growth  .'
p11
ss.