(dp1
S'input'
p2
(dp3
S'encoded'
p4
(lp5
I64
aI2179
aI43
aI63
aI3
aI21
aI45
aI12715
aI417
aI99
aI316
aI2897
asS'ori'
p6
S'This house believes that the right to asylum should not be absolute'
p7
ssS'output'
p8
(dp9
g4
(lp10
I3
aI2496
aI7
aI64
aI2603
aI891
aI24
aI3
aI18431
aI26666
aI7
aI223
aI11847
aI917
aI7
aI271
aI7185
aI63765
asg6
S'The interpretation of this Agreement resulted in the forcible repatriation of all Soviets regardless of their wishes .'
p11
ss.