(dp1
S'input'
p2
(dp3
S'encoded'
p4
(lp5
I64
aI2179
aI394
aI5370
aI7146
aI4585
aI2446
asS'ori'
p6
S'This house would abolish intellectual property rights'
p7
ssS'output'
p8
(dp9
g4
(lp10
I24
aI321
aI24
aI3
aI6085
aI4996
aI7
aI37267
aI24
aI61
aI116
aI2056
aI4232
aI122
aI557
aI864
aI45
aI223
aI81
aI417
aI7278
aI351
aI667
aI37268
aI24
aI9256
aI3
aI199
aI4877
aI19
aI92
aI382
aI4216
aI45
aI3
aI1926
aI75
aI11704
aI34
aI3
aI1617
aI7
aI89
aI3569
aI63765
asg6
S'In 500 BC  in the Greek city of Sybaris (located in what is now southern Italy)  "encouragement was held out to all who should discover any new refinement in luxury  the profits arising from which were secured to the inventor by patent for the space of a year .'
p11
ss.