(dp1
S'input'
p2
(dp3
S'encoded'
p4
(lp5
I64
aI2179
aI394
aI60
aI23587
asS'ori'
p6
S'This house would re-engage with Myanmar'
p7
ssS'output'
p8
(dp9
g4
(lp10
I2796
aI122
aI1688
aI75
aI2439
aI7
aI22
aI7949
aI63
aI2427
aI261
aI736
aI3
aI398
aI63765
asg6
S"Pagan's collapse was followed by 250 years of political fragmentation that lasted well into the 16th century ."
p11
ss.