(dp1
S'input'
p2
(dp3
S'encoded'
p4
(lp5
I64
aI2179
aI43
aI17
aI4941
aI857
aI3211
asS'ori'
p6
S'This house believes social deprivation causes crime'
p7
ssS'output'
p8
(dp9
g4
(lp10
I357
aI1378
aI864
aI165
aI7
aI3218
aI3993
aI4830
aI41
aI2789
aI7
aI1488
aI3136
aI159
aI41
aI381
aI4144
aI5
aI1445
aI2142
aI159
aI41
aI3
aI3224
aI53
aI357
aI79
aI63765
asg6
S'We carry out much of our daily lives as members of small groups  such as sports teams  and large organizations  such as the businesses where we work  .'
p11
ss.