(dp1
S'input'
p2
(dp3
S'encoded'
p4
(lp5
I64
aI2179
aI394
aI3830
aI3
aI475
aI7
aI9441
aI13132
aI3102
aI24
aI276
aI381
asS'ori'
p6
S'This house would permit the use of performance enhancing drugs in professional sports'
p7
ssS'output'
p8
(dp9
g4
(lp10
I99
aI117
aI116
aI3
aI20780
aI3
aI48
aI2904
aI34
aI2287
aI3353
aI7
aI3
aI706
aI10141
aI2784
aI2571
aI14205
aI3370
aI60
aI3
aI2503
aI3933
aI7
aI9359
aI5
aI2610
aI5
aI8754
aI3353
aI134
aI174
aI55
aI2486
aI3896
aI34
aI9597
aI5
aI1166
aI2145
aI63765
aI2613
aI8745
aI2192
aI63765
asg6
S'Not only is the DEA the lead agency for domestic enforcement of the Controlled Substances Act  sharing concurrent jurisdiction with the Federal Bureau of Investigation (FBI) and Immigration and Customs Enforcement (ICE)  it also has sole responsibility for coordinating and pursuing U .S . drug investigations abroad .'
p11
ss.