(dp1
S'input'
p2
(dp3
S'encoded'
p4
(lp5
I64
aI2179
aI235
aI3858
aI3
aI2240
aI4527
aI3485
aI45
asS'ori'
p6
S'This house supports raising the school leaving age to 18'
p7
ssS'output'
p8
(dp9
g4
(lp10
I5424
aI13093
aI2840
aI229
aI12957
aI73
aI16365
aI24
aI25
aI5387
aI27543
aI6348
aI63765
asg6
S'Howard Gardner identified individual talents or aptitudes in his Multiple Intelligences theories .'
p11
ss.