(dp1
S'input'
p2
(dp3
S'encoded'
p4
(lp5
I64
aI2179
aI394
aI2976
aI12243
aI24
aI954
aI126
aI1560
aI10723
asS'ori'
p6
S'This house would implement playoffs in collegiate level American football'
p7
ssS'output'
p8
(dp9
g4
(lp10
I87
aI32107
aI1393
aI3741
aI444
aI589
aI89
aI207
aI5171
aI63765
asg6
S"So  I'm gonna throw my weight around a little bit ."
p11
ss.