(dp1
S'input'
p2
(dp3
S'encoded'
p4
(lp5
I64
aI2179
aI43
aI63
aI3
aI4990
aI4991
aI116
aI4850
aI24
aI12166
aI3
aI475
aI7
aI3532
aI3290
aI7
aI4714
asS'ori'
p6
S'This house believes that the Catholic Church is justified in forbidding the use of barrier methods of contraception'
p7
ssS'output'
p8
(dp9
g4
(lp10
I24
aI93
aI7
aI26660
aI89
aI10722
aI60
aI462
aI5077
aI122
aI788
aI1931
aI75
aI3
aI5834
aI3081
aI5
aI3178
aI397
aI3
aI3364
aI4276
aI7
aI5834
aI5053
aI63765
asg6
S"In 1941  one of Ratzinger's cousins  a 14-year-old boy with Down syndrome  was taken away by the Nazi regime and killed during the Action T4 campaign of Nazi eugenics  ."
p11
ss.