(dp1
S'input'
p2
(dp3
S'encoded'
p4
(lp5
I64
aI2179
aI43
aI63
aI3376
aI4938
aI417
aI316
aI3537
asS'ori'
p6
S'This house believes that endangered species should be protected'
p7
ssS'output'
p8
(dp9
g4
(lp10
I89
aI1706
aI3863
aI2878
aI34
aI3791
aI7812
aI22016
aI75
aI22008
aI5
aI2123
aI116
aI3
aI5247
asg6
S'A further scientific source for deep ecology adduced by Devall and Sessions is the "new physics ."'
p11
ss.