(dp1
S'input'
p2
(dp3
S'encoded'
p4
(lp5
I64
aI2179
aI394
aI16756
aI20435
asS'ori'
p6
S'This house would criminalize blasphemy'
p7
ssS'output'
p8
(dp9
g4
(lp10
I2658
aI174
aI10826
aI57516
aI45
aI2483
aI41
aI61639
aI122
aI300
aI45
aI30627
aI11095
aI63765
asg6
S'Jordan also summoned Wilders to court  as Fitna was deemed to incite hatred  .'
p11
ss.