(dp1
S'input'
p2
(dp3
S'encoded'
p4
(lp5
I64
aI2179
aI394
aI4325
aI2042
aI270
aI89
aI11605
aI3324
asS'ori'
p6
S'This house would fund education using a voucher scheme'
p7
ssS'output'
p8
(dp9
g4
(lp10
I12208
aI116
aI4004
aI60
aI7277
aI3
aI915
aI2674
aI2784
aI5
aI3456
aI7439
aI1495
aI2784
aI63765
asg6
S'|-valign="top" Nader is credited with helping the Clean Air Act (1970) and Safe Drinking Water Act (1974)  .'
p11
ss.