(dp1
S'input'
p2
(dp3
S'encoded'
p4
(lp5
I64
aI2179
aI394
aI190
aI3
aI21
aI45
aI3895
aI834
asS'ori'
p6
S'This house would limit the right to bear arms'
p7
ssS'output'
p8
(dp9
g4
(lp10
I3
aI2211
aI3316
aI45
aI64
aI3264
aI34
aI89
aI5563
aI413
aI14
aI2555
aI63765
asg6
S'The Senate returned to this amendment for a final time on September 9 .'
p11
ss.