(dp1
S'input'
p2
(dp3
S'encoded'
p4
(lp5
I64
aI2179
aI43
aI63
aI3376
aI4938
aI417
aI316
aI3537
asS'ori'
p6
S'This house believes that endangered species should be protected'
p7
ssS'output'
p8
(dp9
g4
(lp10
I97
aI7940
aI63
aI5342
aI6793
aI5245
aI45
aI7903
aI7910
aI5
aI2456
aI1546
aI116
aI3
aI6764
aI7941
aI7942
aI7943
aI7
aI169
aI3373
aI2547
aI92
aI55
aI7944
aI7
aI7945
aI1413
aI691
aI63765
asg6
S'Another highlight that links conservation biology to insects  forests  and climate change is the mountain pine beetle (Dendroctonus ponderosae) epidemic of British Columbia  Canada  which has infested of forested land since 1999  .'
p11
ss.