(dp1
S'input'
p2
(dp3
S'encoded'
p4
(lp5
I64
aI2179
aI13605
aI2258
aI45
aI2194
asS'ori'
p6
S'This house prefers trade to aid'
p7
ssS'output'
p8
(dp9
g4
(lp10
I24
aI2332
aI2203
aI19
aI589
aI3
aI285
aI3092
aI3
aI2332
aI2804
aI14
aI2194
aI1392
aI89
aI136
aI7088
aI1222
aI45
aI1546
aI3
aI998
aI2899
aI5
aI2760
aI2203
aI1453
aI2190
aI1544
aI717
aI14
aI2747
aI7
aI2574
aI63765
asg6
S'In Paris  countries from around the world endorsed the Paris Declaration on Aid Effectiveness  a more comprehensive attempt to change the way donor and developing countries do business together  based on principles of partnership .'
p11
ss.