(dp1
S'input'
p2
(dp3
S'encoded'
p4
(lp5
I64
aI2179
aI43
aI63
aI2157
aI2565
aI493
aI19084
aI382
aI4850
asS'ori'
p6
S"This house believes that Israel's 2008-2009 military operations against Gaza were justified"
p7
ssS'output'
p8
(dp9
g4
(lp10
I1920
aI2445
aI2446
aI3601
aI55
aI742
aI63
aI159
aI16523
aI1453
aI99
aI1368
aI3
aI18232
aI7
aI3
aI1687
aI459
aI2511
aI690
aI18256
aI92
aI4261
aI839
aI73
aI8662
aI1687
aI14
aI3180
aI63765
asg6
S'Nevertheless  Human Rights Watch has said that such justifications do not overcome the illegality of the attacks under laws governing reprisals  which prohibit direct or indiscriminate attacks on civilians  .'
p11
ss.