(dp1
S'input'
p2
(dp3
S'encoded'
p4
(lp5
I64
aI2179
aI43
aI63
aI134
aI116
aI400
aI21
aI34
aI3
aI260
aI45
aI3439
aI57
aI7
aI2381
asS'ori'
p6
S'This house believes that it is sometimes right for the government to restrict freedom of speech'
p7
ssS'output'
p8
(dp9
g4
(lp10
I2555
aI5884
aI2221
aI16373
aI2376
aI2032
aI2475
aI45
aI187
aI34
aI271
aI3480
aI63765
asg6
S'September 28  1787  Continental Congress approves sending proposed Constitution to states for their consideration .'
p11
ss.