(dp1
S'input'
p2
(dp3
S'encoded'
p4
(lp5
I64
aI2179
aI43
aI63
aI6670
aI546
aI417
aI316
aI89
aI1334
aI3108
aI7
aI4849
aI1886
aI2855
asS'ori'
p6
S'This house believes that wind power should be a primary focus of future energy supply'
p7
ssS'output'
p8
(dp9
g4
(lp10
I4204
aI1356
aI7
aI248
aI1486
aI7
aI546
aI1344
aI182
aI717
aI3250
aI14
aI5092
aI5084
aI60
aI89
aI1488
aI532
aI7
aI43429
aI34
aI5088
aI63765
asg6
S'Capacity factors of other types of power plant are based mostly on fuel cost  with a small amount of downtime for maintenance .'
p11
ss.