(dp1
S'input'
p2
(dp3
S'encoded'
p4
(lp5
I64
aI2179
aI394
aI190
aI3
aI21
aI45
aI3895
aI834
asS'ori'
p6
S'This house would limit the right to bear arms'
p7
ssS'output'
p8
(dp9
g4
(lp10
I917
aI7
aI3
aI1025
aI751
aI6907
aI34
aI89
aI2611
aI3830
aI93
aI83
aI6750
aI89
aI2015
aI15751
aI5
aI89
aI3274
aI14
aI3
aI6029
aI7
aI372
aI63765
asg6
S'Regardless of the reason  before applying for a gun permit one must receive a medical exam and a test on the knowledge of weapons .'
p11
ss.