(dp1
S'input'
p2
(dp3
S'encoded'
p4
(lp5
I64
aI2179
aI43
aI63
aI134
aI116
aI400
aI21
aI34
aI3
aI260
aI45
aI3439
aI57
aI7
aI2381
asS'ori'
p6
S'This house believes that it is sometimes right for the government to restrict freedom of speech'
p7
ssS'output'
p8
(dp9
g4
(lp10
I378
aI23887
aI174
aI451
aI61
aI116
aI1047
aI41
aI3
aI652
aI6174
aI24
aI6911
aI3
aI1592
aI9994
aI14
aI1260
aI117
aI3014
aI34
aI92
aI546
aI139
aI316
aI30253
aI2531
aI289
aI351
aI2544
aI7
aI89
aI2021
aI2178
aI493
aI25
aI47
aI116
aI45
aI881
aI652
aI45
aI80
aI63765
asg6
S'However  Mill also introduced what is known as the harm principle  in placing the following limitation on free expression: "the only purpose for which power can be rightfully exercised over any member of a civilized community  against his will  is to prevent harm to others .'
p11
ss.