(dp1
S'input'
p2
(dp3
S'encoded'
p4
(lp5
I64
aI2179
aI43
aI63
aI3
aI4990
aI4991
aI116
aI4850
aI24
aI12166
aI3
aI475
aI7
aI3532
aI3290
aI7
aI4714
asS'ori'
p6
S'This house believes that the Catholic Church is justified in forbidding the use of barrier methods of contraception'
p7
ssS'output'
p8
(dp9
g4
(lp10
I3
aI1592
aI4342
aI19
aI25
aI15903
aI4439
aI89
aI3057
aI1646
aI957
aI24
aI25
aI1546
aI7
aI8803
aI1612
aI2233
aI3316
aI45
aI3
aI238
aI53
aI35237
aI122
aI34
aI273
aI440
aI2233
aI4883
aI462
aI3
aI2588
aI7
aI3
aI21185
aI298
aI2233
aI2422
aI23951
aI63765
asg6
S'The following passage from his autobiography describes a critical turning point in his change of sexual morality:So quickly I returned to the place where Alypius was sitting; for there had I put down the volume of the apostles  when I rose thence .'
p11
ss.