(dp1
S'input'
p2
(dp3
S'encoded'
p4
(lp5
I64
aI2179
aI394
aI190
aI3
aI21
aI45
aI3895
aI834
asS'ori'
p6
S'This house would limit the right to bear arms'
p7
ssS'output'
p8
(dp9
g4
(lp10
I164
aI3899
aI4699
aI2722
aI182
aI863
aI45
aI1530
aI1727
aI166
aI24
aI5
aI1740
aI2203
aI24
aI3
aI8868
aI138
aI24
aI323
aI73
aI22871
aI5
aI1727
aI166
aI138
aI24
aI2770
aI63765
asg6
S'Overall firearm mortality rates are five to six times higher in high-income (HI) and upper middle-income (UMI) countries in the Americas (12 .72) than in Europe (2 .17) or Oceania (2 .57) and 95 times higher than in Asia (0 .13) .'
p11
ss.