(dp1
S'input'
p2
(dp3
S'encoded'
p4
(lp5
I64
aI2179
aI394
aI16642
aI1376
aI5269
asS'ori'
p6
S'This house would subsidize poor communities'
p7
ssS'output'
p8
(dp9
g4
(lp10
I170
aI4409
aI5
aI14499
aI3384
aI493
aI4585
aI7399
aI358
aI3
aI2497
aI89
aI13583
aI34
aI7300
aI73
aI5175
aI203
aI5
aI186
aI63
aI7399
aI7
aI4860
aI4867
aI4585
aI1019
aI1978
aI316
aI1640
aI63765
asg6
S'Conservative  libertarian and neoliberal arguments against property redistribution consider the term a euphemism for theft or forced labor  and argue that redistribution of legitimately obtained property cannot ever be just  .'
p11
ss.