(dp1
S'input'
p2
(dp3
S'encoded'
p4
(lp5
I64
aI2179
aI235
aI3
aI2136
aI7
aI3
aI2306
aI7
aI2390
asS'ori'
p6
S'This house supports the one-child policy of the republic of China'
p7
ssS'output'
p8
(dp9
g4
(lp10
I459
aI3
aI4116
aI2706
aI38615
aI2466
aI10358
aI2706
aI4821
aI382
aI174
aI10103
aI45
aI1273
aI203
aI63765
asg6
S'Under the colonial Korean Leprosy prevention ordinance  Korean patients were also subjected to hard labor  .'
p11
ss.