(dp1
S'input'
p2
(dp3
S'encoded'
p4
(lp5
I64
aI2179
aI394
aI2773
aI12505
asS'ori'
p6
S'This house would embrace multiculturalism'
p7
ssS'output'
p8
(dp9
g4
(lp10
I8252
aI122
aI1407
aI604
aI7
aI77
aI5046
aI2230
aI100
aI1277
aI3663
aI7
aI3
aI2804
aI159
aI41
aI10070
aI21
aI45
aI5
aI3
aI708
aI289
aI35
aI2635
aI3904
aI14
aI10070
aI3492
aI969
aI63765
asg6
S"Progress was slow because of certain states' concerns regarding some key provisions of the Declaration  such as indigenous peoples' right to self-determination and the control over natural resources existing on indigenous peoples' traditional lands  ."
p11
ss.