(dp1
S'input'
p2
(dp3
S'encoded'
p4
(lp5
I64
aI2179
aI394
aI163
aI959
aI2042
aI3557
asS'ori'
p6
S'This house would make physical education compulsory'
p7
ssS'output'
p8
(dp9
g4
(lp10
I298
aI273
aI6282
aI45
aI316
aI2338
aI3497
aI34
aI89
aI2341
aI53573
aI134
aI122
aI575
aI289
aI45
aI4899
aI34
aI3
aI10712
aI3862
aI5
aI271
aI53571
aI63765
asg6
S'When there proved to be insufficient demand for a separate sanatorium  it was given over to accommodation for the youngest children and their houseparent .'
p11
ss.