(dp1
S'input'
p2
(dp3
S'encoded'
p4
(lp5
I64
aI2179
aI43
aI63
aI134
aI116
aI400
aI21
aI34
aI3
aI260
aI45
aI3439
aI57
aI7
aI2381
asS'ori'
p6
S'This house believes that it is sometimes right for the government to restrict freedom of speech'
p7
ssS'output'
p8
(dp9
g4
(lp10
I14
aI2555
aI3
aI2475
aI122
aI3110
aI1688
aI75
aI89
aI2381
aI575
aI75
aI3693
aI2364
aI81
aI2820
aI36475
aI1381
aI3
aI2533
aI297
aI63
aI117
aI2596
aI187
aI382
aI1587
aI45
aI16585
aI63765
asg6
S'On September 17  1787  the Constitution was completed  followed by a speech given by Benjamin Franklin  who urged unanimity  although the Convention decided that only nine states were needed to ratify .'
p11
ss.