(dp1
S'input'
p2
(dp3
S'encoded'
p4
(lp5
I64
aI2179
aI43
aI63
aI1036
aI4828
aI33250
aI116
aI25073
aI45
aI3315
aI4562
asS'ori'
p6
S'This house believes that male infant circumcision is tantamount to child abuse'
p7
ssS'output'
p8
(dp9
g4
(lp10
I350
aI887
aI17566
aI1980
aI24
aI2404
aI2981
aI89
aI1472
aI2038
aI7
aI291
aI5
aI289
aI5
aI24
aI64
aI2598
aI2992
aI2994
aI134
aI5084
aI1112
aI63765
asg6
S'Evidence among heterosexual men in sub-Saharan Africa shows a decreased risk of between 38&nbsp;percent and 66&nbsp;percent over two&nbsp;years and in this population studies rate it cost effective  .'
p11
ss.