(dp1
S'input'
p2
(dp3
S'encoded'
p4
(lp5
I64
aI2179
aI43
aI63
aI3
aI4990
aI4991
aI116
aI4850
aI24
aI12166
aI3
aI475
aI7
aI3532
aI3290
aI7
aI4714
asS'ori'
p6
S'This house believes that the Catholic Church is justified in forbidding the use of barrier methods of contraception'
p7
ssS'output'
p8
(dp9
g4
(lp10
I604
aI7
aI260
aI1411
aI1191
aI982
aI314
aI2722
aI13778
aI382
aI221
aI1968
aI24
aI387
aI24
aI3
aI481
aI63765
asg6
S'Because of government concern about low birth rates  contraceptives were made illegal in Italy in the late 1920s .'
p11
ss.