(dp1
S'input'
p2
(dp3
S'encoded'
p4
(lp5
I64
aI2179
aI43
aI63
aI134
aI116
aI400
aI21
aI34
aI3
aI260
aI45
aI3439
aI57
aI7
aI2381
asS'ori'
p6
S'This house believes that it is sometimes right for the government to restrict freedom of speech'
p7
ssS'output'
p8
(dp9
g4
(lp10
I24
aI62480
aI62481
aI646
aI63765
aI2131
aI7
aI2450
aI39930
aI2674
aI40191
aI63765
asg6
S'In Prabha Dutt v . Union of India ((1982) 1 SCC 1; AIR 1982 SC 6 .'
p11
ss.