(dp1
S'input'
p2
(dp3
S'encoded'
p4
(lp5
I64
aI2179
aI235
aI3
aI2136
aI7
aI3
aI2306
aI7
aI2390
asS'ori'
p6
S'This house supports the one-child policy of the republic of China'
p7
ssS'output'
p8
(dp9
g4
(lp10
I273
aI116
aI174
aI89
aI2034
aI4583
aI6973
aI63765
asg6
S'There is also a serious gender imbalance .'
p11
ss.