(dp1
S'input'
p2
(dp3
S'encoded'
p4
(lp5
I64
aI2179
aI43
aI63
aI2659
aI417
aI1690
aI3
aI12048
aI7
aI19084
asS'ori'
p6
S'This house believes that Israel should lift the blockade of Gaza'
p7
ssS'output'
p8
(dp9
g4
(lp10
I3
aI7442
aI19317
aI5
aI19319
aI382
aI3982
aI14
aI2128
aI382
aI395
aI8735
aI45
aI19084
aI289
aI1413
aI75
aI10760
aI63765
asg6
S'The supplies McKinney and Maguire were carrying on board were later delivered to Gaza over land by truck .'
p11
ss.