(dp1
S'input'
p2
(dp3
S'encoded'
p4
(lp5
I64
aI2179
aI394
aI2017
aI628
asS'ori'
p6
S'This house would ban gambling'
p7
ssS'output'
p8
(dp9
g4
(lp10
I289
aI3
aI1257
aI1896
aI2467
aI7604
aI11
aI643
aI725
aI384
aI7693
aI8008
aI34
aI7659
aI5
aI2751
aI5708
aI22318
aI63765
asg6
S'Over the past few decades  casinos have developed many different marketing techniques for attracting and maintaining loyal patrons .'
p11
ss.