(dp1
S'input'
p2
(dp3
S'encoded'
p4
(lp5
I64
aI2179
aI43
aI63
aI6670
aI546
aI417
aI316
aI89
aI1334
aI3108
aI7
aI4849
aI1886
aI2855
asS'ori'
p6
S'This house believes that wind power should be a primary focus of future energy supply'
p7
ssS'output'
p8
(dp9
g4
(lp10
I155
aI182
aI4867
aI75
aI6907
aI45
aI3
aI384
aI10
aI256
aI5
aI182
aI3619
aI24
aI3
aI399
aI7
aI3252
aI73
aI4262
aI10781
aI63765
asg6
S'They are obtained by applying to the different state programs and are offered in the form of cash or tax credits .'
p11
ss.