(dp1
S'input'
p2
(dp3
S'encoded'
p4
(lp5
I64
aI2179
aI43
aI63
aI6670
aI546
aI417
aI316
aI89
aI1334
aI3108
aI7
aI4849
aI1886
aI2855
asS'ori'
p6
S'This house believes that wind power should be a primary focus of future energy supply'
p7
ssS'output'
p8
(dp9
g4
(lp10
I289
aI3
aI639
aI2959
aI45
aI2927
aI3386
aI70
aI6670
aI6677
aI104
aI7
aI211
aI5184
aI4204
aI63765
asg6
S'Over the period April 2009 to March 2010  Black Law Wind Farm produced 19 .19% of its rated capacity  .'
p11
ss.