(dp1
S'input'
p2
(dp3
S'encoded'
p4
(lp5
I64
aI2179
aI235
aI3
aI2136
aI7
aI3
aI2306
aI7
aI2390
asS'ori'
p6
S'This house supports the one-child policy of the republic of China'
p7
ssS'output'
p8
(dp9
g4
(lp10
I17
aI251
aI5
aI14656
aI14678
aI24
aI5615
aI78
asg6
S'social problems and personality disorders in young people'
p11
ss.