(dp1
S'input'
p2
(dp3
S'encoded'
p4
(lp5
I64
aI2179
aI394
aI16642
aI1376
aI5269
asS'ori'
p6
S'This house would subsidize poor communities'
p7
ssS'output'
p8
(dp9
g4
(lp10
I3
aI2130
aI116
aI8681
aI7
aI3
aI2961
aI2962
aI24
aI2802
aI5
aI2509
aI351
aI4757
aI7
aI2884
aI3186
aI24
aI351
aI2784
aI7
aI2617
aI24
aI57780
aI73
aI3221
aI45
aI316
aI12012
aI252
aI3565
aI63765
asg6
S'The Commission is aware of the press reports in question  and considers any suggestion of EU involvement in any act of violence in Chiapas or elsewhere to be utterly without foundation .'
p11
ss.