(dp1
S'input'
p2
(dp3
S'encoded'
p4
(lp5
I64
aI2179
aI394
aI2773
aI12505
asS'ori'
p6
S'This house would embrace multiculturalism'
p7
ssS'output'
p8
(dp9
g4
(lp10
I2678
aI116
aI7426
aI45
aI1199
aI89
aI19853
aI11644
aI41
aI3
aI229
aI8754
aI19
aI1341
aI2812
aI3136
aI182
aI773
aI1630
aI41
aI150
aI18439
aI7
aI2678
aI63765
asg6
S'Afghanistan is seeming to become a melting pot  as the individual customs from particular ethnic groups are being added as national traits of Afghanistan .'
p11
ss.