(dp1
S'input'
p2
(dp3
S'encoded'
p4
(lp5
I64
aI2179
aI43
aI17
aI4941
aI857
aI3211
asS'ori'
p6
S'This house believes social deprivation causes crime'
p7
ssS'output'
p8
(dp9
g4
(lp10
I7147
aI7196
aI3888
aI45
aI3
aI650
aI475
aI7
aI7147
aI3205
aI45
aI713
aI18286
aI53990
aI45
aI4587
aI4091
aI45
aI709
aI18286
aI7709
aI73
aI45
aI13796
aI3
aI9417
aI7
aI7196
aI45
aI2351
aI2825
aI73
aI45
aI80
aI6421
aI60
aI3
aI3324
aI63765
asg6
S'Internet fraud refers to the actual use of Internet services to present fraudulent solicitations to prospective victims  to conduct fraudulent transactions  or to transmit the proceeds of fraud to financial institutions or to others connected with the scheme .'
p11
ss.