(dp1
S'input'
p2
(dp3
S'encoded'
p4
(lp5
I64
aI2179
aI394
aI2017
aI223
aI9058
aI23653
asS'ori'
p6
S'This house would ban all unsustainable logging'
p7
ssS'output'
p8
(dp9
g4
(lp10
I7808
aI18865
aI4805
aI89
aI2411
aI2768
aI24
aI1344
aI5
aI3966
aI4938
aI63765
asg6
S'Tropical rainforests exhibit a vast diversity in plant and animal species .'
p11
ss.