(dp1
S'input'
p2
(dp3
S'encoded'
p4
(lp5
I64
aI2179
aI235
aI3858
aI3
aI2240
aI4527
aI3485
aI45
asS'ori'
p6
S'This house supports raising the school leaving age to 18'
p7
ssS'output'
p8
(dp9
g4
(lp10
I34
aI1343
aI3
aI36617
aI2178
aI6881
aI7147
aI1760
aI15
aI6881
aI19923
aI5
aI5226
aI5
aI7147
aI2947
aI45
aI9619
aI3
aI2571
aI7
aI5224
aI5
aI124
aI5207
aI7631
aI24
aI89
aI3945
aI2178
aI24
aI10121
aI10122
aI63765
asg6
S'For example  the Kothmale Community Radio Internet uses both radio broadcasts and computer and Internet technologies to facilitate the sharing of information and provide educational opportunities in a rural community in Sri Lanka  .'
p11
ss.