(dp1
S'input'
p2
(dp3
S'encoded'
p4
(lp5
I64
aI2179
aI43
aI17
aI4941
aI857
aI3211
asS'ori'
p6
S'This house believes social deprivation causes crime'
p7
ssS'output'
p8
(dp9
g4
(lp10
I7
aI3
aI17099
aI7582
aI382
aI99
aI2145
aI63765
aI2144
aI63765
asg6
S'72% of the Latino offenders were not U .S . citizens .'
p11
ss.