(dp1
S'input'
p2
(dp3
S'encoded'
p4
(lp5
I64
aI2179
aI235
aI3
aI2136
aI7
aI3
aI2306
aI7
aI2390
asS'ori'
p6
S'This house supports the one-child policy of the republic of China'
p7
ssS'output'
p8
(dp9
g4
(lp10
I14
aI2394
aI267
aI873
aI751
aI3
aI4515
aI7
aI2550
aI12775
aI12827
aI122
aI9249
aI63765
asg6
S'On 8 December 2008  two days before the release of Charter 08  Liu Xiaobo was arrested .'
p11
ss.