(dp1
S'input'
p2
(dp3
S'encoded'
p4
(lp5
I64
aI2179
aI43
aI63
aI3376
aI4938
aI417
aI316
aI3537
asS'ori'
p6
S'This house believes that endangered species should be protected'
p7
ssS'output'
p8
(dp9
g4
(lp10
I1381
aI1191
aI2900
aI7
aI3964
aI2855
aI3610
aI19
aI1640
aI5208
aI7
aI4975
aI7076
aI475
aI311
aI870
aI4938
aI63765
asg6
S"Although about 80 percent of humans' food supply comes from just 20 kinds of plants  humans use at least 40 000 species ."
p11
ss.