(dp1
S'input'
p2
(dp3
S'encoded'
p4
(lp5
I64
aI2179
aI43
aI8629
aI116
aI3
aI117
aI998
asS'ori'
p6
S'This house believes atheism is the only way'
p7
ssS'output'
p8
(dp9
g4
(lp10
I2068
aI2009
aI6814
aI7
aI34669
aI9633
aI24
aI10805
aI73
aI18557
aI10952
aI55
aI136
aI4814
aI2840
aI11688
aI24
aI159
aI41
aI60885
aI60886
aI62
aI86
aI63765
asg6
S'Recent brain imaging of devotees engaging in prayer or transcendental meditation has more precisely identified activation in such sites&nbsp; God-spots  as Vilayanur Ramachandran calls them .'
p11
ss.