(dp1
S'input'
p2
(dp3
S'encoded'
p4
(lp5
I64
aI2179
aI394
aI2017
aI628
asS'ori'
p6
S'This house would ban gambling'
p7
ssS'output'
p8
(dp9
g4
(lp10
I4044
aI63765
aI1119
aI63765
asg6
S'St . Louis $1 .050 billion7 .'
p11
ss.