(dp1
S'input'
p2
(dp3
S'encoded'
p4
(lp5
I64
aI2179
aI394
aI4261
aI8667
aI3
aI9361
aI5
aI17069
asS'ori'
p6
S'This house would prohibit burning the stars and stripes'
p7
ssS'output'
p8
(dp9
g4
(lp10
I41
aI89
aI296
aI3
aI2784
aI2856
aI45
aI4261
aI5449
aI8668
aI459
aI223
aI3717
aI75
aI21139
aI3
aI4211
aI5376
aI63
aI3
aI709
aI9806
aI18409
aI111
aI3
aI5449
aI5
aI25242
aI3
aI4462
aI7
aI3
aI2497
aI87
aI63
aI211
aI1999
aI122
aI99
aI717
aI14
aI3
aI6999
aI7
aI3059
aI4615
aI63765
asg6
S'As a result  the 1989 Act sought to prohibit flag desecration under all circumstances by deleting the statutory requirement that the conduct cast contempt upon the flag and narrowing the definition of the term "flag" so that its meaning was not based on the observation of third parties .'
p11
ss.