(dp1
S'input'
p2
(dp3
S'encoded'
p4
(lp5
I64
aI2179
aI394
aI2017
aI223
aI9058
aI23653
asS'ori'
p6
S'This house would ban all unsustainable logging'
p7
ssS'output'
p8
(dp9
g4
(lp10
I3
aI2762
aI1653
aI45
aI124
aI3073
aI14
aI3
aI3708
aI63
aI1376
aI78
aI5114
aI14
aI8254
aI2635
aI24
aI128
aI45
aI15
aI12858
aI8277
aI8254
aI2136
aI4537
aI5
aI45
aI7747
aI45
aI3
aI4537
aI7
aI1112
aI189
aI5
aI4949
aI45
aI129
aI130
aI5
aI58
aI7747
aI45
aI7807
aI3
aI337
aI2891
aI2028
aI7
aI130
aI1811
aI75
aI63765
asg6
S'The project aimed to provide data on the ways that poor people depend on forest resources  in order to both inform mainstream forest policy design and to contribute to the design of effective policies and projects to alleviate poverty  and thereby contribute to meeting the Millennium Development Goal of 50% poverty reduction by 2015 .'
p11
ss.