(dp1
S'input'
p2
(dp3
S'encoded'
p4
(lp5
I64
aI2179
aI43
aI63
aI134
aI116
aI400
aI21
aI34
aI3
aI260
aI45
aI3439
aI57
aI7
aI2381
asS'ori'
p6
S'This house believes that it is sometimes right for the government to restrict freedom of speech'
p7
ssS'output'
p8
(dp9
g4
(lp10
I3
aI3546
aI7228
aI4279
aI92
aI116
aI35815
aI3097
aI8536
aI73
aI13853
aI5
aI92
aI3811
aI89
aI2007
aI14
aI404
aI7
aI8136
aI5231
aI4226
aI12461
aI12420
aI2812
aI73
aI150
aI5304
aI2382
aI73
aI8803
aI12507
aI63765
asg6
S'The statutes forbid communication which is hateful  threatening  abusive  or insulting and which targets a person on account of skin colour  race  disability  nationality (including citizenship)  ethnic or national origin  religion  or sexual orientation .'
p11
ss.