(dp1
S'input'
p2
(dp3
S'encoded'
p4
(lp5
I64
aI2179
aI43
aI63
aI187
aI417
aI99
aI16642
aI3
aI6449
aI7
aI3935
asS'ori'
p6
S'This house believes that states should not subsidize the growing of tobacco'
p7
ssS'output'
p8
(dp9
g4
(lp10
I14
aI2805
aI3
aI2206
aI2482
aI2483
aI743
aI63
aI3
aI15066
aI94
aI9812
aI500
aI99
aI11
aI45
aI5878
aI2639
aI24
aI2335
aI12414
aI973
aI45
aI59822
aI9943
aI24
aI89
aI7717
aI2483
aI2528
aI298
aI3313
aI4602
aI22591
aI15010
aI34
aI3896
aI24
aI3
aI5057
aI1012
aI7
aI732
aI13746
aI15832
aI9943
aI63765
asg6
S'On February 20  2007  the US Supreme Court ruled that the Altria Group (formerly Philip Morris) did not have to pay $79 .5 million in punitive damages awarded to Mayola Williams in a 1999 Oregon court ruling  when she sued Phillip Morris for responsibility in the cancer death of her husband  Jesse Williams  .'
p11
ss.