(dp1
S'input'
p2
(dp3
S'encoded'
p4
(lp5
I64
aI2179
aI43
aI223
aI2138
aI11
aI89
aI21
aI45
aI2185
aI372
asS'ori'
p6
S'This house believes all nations have a right to nuclear weapons'
p7
ssS'output'
p8
(dp9
g4
(lp10
I3
aI12098
aI122
aI14188
aI45
aI2450
aI291
aI5
aI1155
aI34
aI2450
aI45
aI951
aI952
aI24
aI3
aI2565
aI7
aI89
aI2185
aI12098
aI63765
asg6
S'The submarine was leased to India between 1988 and 1991 mainly for India to gain experience in the operations of a nuclear submarine .'
p11
ss.