(dp1
S'input'
p2
(dp3
S'encoded'
p4
(lp5
I64
aI2179
aI43
aI63
aI134
aI116
aI400
aI21
aI34
aI3
aI260
aI45
aI3439
aI57
aI7
aI2381
asS'ori'
p6
S'This house believes that it is sometimes right for the government to restrict freedom of speech'
p7
ssS'output'
p8
(dp9
g4
(lp10
I3609
aI45
aI3
aI16874
aI7
aI3
aI2475
aI122
aI5195
aI717
aI14
aI3
aI1160
aI7
aI7184
aI4641
aI34
aI3202
aI9934
aI63765
asg6
S"Opposition to the ratification of the Constitution was partly based on the Constitution's lack of adequate guarantees for civil liberties ."
p11
ss.