(dp1
S'input'
p2
(dp3
S'encoded'
p4
(lp5
I64
aI2179
aI43
aI63
aI3
aI28431
aI7
aI2157
aI4624
aI75
aI39939
aI27257
aI122
aI4850
asS'ori'
p6
S'This house believes that the leaking of military documents by Anat Kamm was justified'
p7
ssS'output'
p8
(dp9
g4
(lp10
I150
aI2702
aI19365
aI411
aI662
aI63765
aI1092
aI5
aI19386
aI45
aI3
aI626
aI187
aI31037
aI31038
aI15
aI5523
aI2201
aI34
aI51
aI7187
aI63765
asg6
S'National Security Advisor James L . Jones and Pakistan\'s ambassador to the United States  Husain Haqqani  both condemned Wikileaks for an "irresponsible" disclosure  .'
p11
ss.