(dp1
S'input'
p2
(dp3
S'encoded'
p4
(lp5
I64
aI2179
aI43
aI223
aI2138
aI11
aI89
aI21
aI45
aI2185
aI372
asS'ori'
p6
S'This house believes all nations have a right to nuclear weapons'
p7
ssS'output'
p8
(dp9
g4
(lp10
I24
aI320
aI2805
aI2135
aI2161
aI2233
aI11396
aI3609
aI45
aI3
aI2268
aI3270
aI63
aI4847
aI351
aI783
aI1653
aI311
aI15344
aI2185
aI372
aI131
aI2509
aI63
aI3
aI2268
aI24
aI211
aI912
aI399
aI116
aI99
aI7088
aI5
aI2024
aI117
aI77
aI1486
aI7
aI8811
asg6
S'In early February 1997  Foreign Minister I .K .Gujral reiterated India\'s opposition to the treaty  saying that "India favors any step aimed at destroying nuclear weapons  but considers that the treaty in its current form is not comprehensive and bans only certain types of tests ."'
p11
ss.