(dp1
S'input'
p2
(dp3
S'encoded'
p4
(lp5
I64
aI2179
aI394
aI117
aI7428
aI21151
aI34
aI11389
aI2042
aI24
aI4364
asS'ori'
p6
S'This house would only teach abstinence for sex education in schools'
p7
ssS'output'
p8
(dp9
g4
(lp10
I248
aI21771
aI324
aI24
aI89
aI3953
aI290
aI8039
aI311
aI3
aI4658
aI7
aI1604
aI89
aI13513
aI311
aI89
aI419
aI5615
aI3485
aI6597
aI63765
asg6
S'Other fiction  particularly in a long-running television series  looks at the long-term effects of becoming a parent at a very young age (Degrassi Junior High) .'
p11
ss.