(dp1
S'input'
p2
(dp3
S'encoded'
p4
(lp5
I64
aI2179
aI394
aI163
aI959
aI2042
aI3557
asS'ori'
p6
S'This house would make physical education compulsory'
p7
ssS'output'
p8
(dp9
g4
(lp10
I134
aI55
aI480
aI16360
aI34
aI9364
aI64
aI24
aI3862
aI63765
asg6
S'It has published tables for determining this in children  .'
p11
ss.