(dp1
S'input'
p2
(dp3
S'encoded'
p4
(lp5
I64
aI2179
aI43
aI63
aI3
aI4538
aI7
aI4434
aI7793
aI283
aI45
aI3586
aI417
aI316
aI577
asS'ori'
p6
S'This house believes that the sale of violent video games to minors should be banned'
p7
ssS'output'
p8
(dp9
g4
(lp10
I14184
aI159
aI41
aI7543
aI8732
aI28519
aI8732
aI52321
aI31971
aI27692
aI283
aI5
aI34355
aI14894
aI15185
aI271
aI283
aI60
aI100
aI7
aI3
aI2891
aI1761
aI416
aI45
aI163
aI3
aI319
aI2319
aI60
aI11364
aI45
aI2677
aI24407
aI14184
aI63765
asg6
S'Developers such as id Software  Valve Software  Crytek  Bethesda  Epic Games and Blizzard Entertainment ship their games with some of the development tools used to make the game  along with documentation to assist mod developers .'
p11
ss.