(dp1
S'input'
p2
(dp3
S'encoded'
p4
(lp5
I64
aI2179
aI43
aI63
aI187
aI417
aI99
aI16642
aI3
aI6449
aI7
aI3935
asS'ori'
p6
S'This house believes that states should not subsidize the growing of tobacco'
p7
ssS'output'
p8
(dp9
g4
(lp10
I41
aI7
aI134
aI116
aI2845
aI63
aI7
aI1980
aI5
aI7
aI3495
aI10873
aI14924
aI24
aI2809
aI63765
asg6
S'As of 2005 it is estimated that 4 .3% of men and 0 .3% of women smoke cigars in USA  .'
p11
ss.