(dp1
S'input'
p2
(dp3
S'encoded'
p4
(lp5
I64
aI2179
aI43
aI223
aI2138
aI11
aI89
aI21
aI45
aI2185
aI372
asS'ori'
p6
S'This house believes all nations have a right to nuclear weapons'
p7
ssS'output'
p8
(dp9
g4
(lp10
I14
aI492
aI3
aI8157
aI7
aI12084
aI22282
aI5719
aI122
aI27087
aI75
aI4169
aI8778
aI24
aI667
aI6113
aI2743
aI5
aI89
aI12084
aI32459
aI122
aI3178
aI63765
asg6
S'On 10 July 1985  the flagship of Greenpeace  Rainbow Warrior  was sunk by French agents in New Zealand waters  and a Greenpeace photographer was killed .'
p11
ss.