(dp1
S'input'
p2
(dp3
S'encoded'
p4
(lp5
I64
aI2179
aI394
aI2017
aI262
asS'ori'
p6
S'This house would ban boxing'
p7
ssS'output'
p8
(dp9
g4
(lp10
I3
aI303
aI122
aI1422
aI1423
aI41
aI51
aI1424
aI45
aI1425
aI826
aI546
aI7
aI1272
aI5
aI1426
aI1071
aI7
aI1086
aI63765
asg6
S'The match was nicknamed "Thunder Meets Lightning" as an allusion to tremendous punching power of Chavez and blinding speed of Taylor .'
p11
ss.