(dp1
S'input'
p2
(dp3
S'encoded'
p4
(lp5
I64
aI2179
aI43
aI63
aI188
aI220
aI417
aI1619
aI4275
aI45
aI713
aI14799
aI7533
aI311
aI3
aI3721
aI5145
asS'ori'
p6
S'This house believes that democratic governments should require voters to present photo identification at the polling station'
p7
ssS'output'
p8
(dp9
g4
(lp10
I2985
aI3563
aI63
aI134
aI5136
aI3
aI2696
aI3189
aI7
aI2666
aI1640
aI45
aI3262
aI3
aI1643
aI125
aI4294
aI399
aI5
aI11575
aI63
aI155
aI4726
aI3
aI18361
aI4352
aI63765
asg6
S'Critics contend that it costs the country millions of dollars just to process the same basic registration form and confirm that they meet the HAVA requirements  .'
p11
ss.