(dp1
S'input'
p2
(dp3
S'encoded'
p4
(lp5
I64
aI2179
aI13605
aI2258
aI45
aI2194
asS'ori'
p6
S'This house prefers trade to aid'
p7
ssS'output'
p8
(dp9
g4
(lp10
I107
aI3
aI591
aI7
aI3
aI35
aI3142
aI7
aI3
aI7366
aI5172
aI7367
aI63
aI3
aI35
aI2855
aI7
aI7368
aI7369
aI5
aI7370
aI7371
aI122
aI7372
aI63765
asg6
S"Instead  the block of the natural flow of the Nile River meant that the Nile's natural supply of nitrate fertilizer and organic material was blocked ."
p11
ss.