(dp1
S'input'
p2
(dp3
S'encoded'
p4
(lp5
I64
aI2179
aI43
aI63
aI3
aI4538
aI7
aI4434
aI7793
aI283
aI45
aI3586
aI417
aI316
aI577
asS'ori'
p6
S'This house believes that the sale of violent video games to minors should be banned'
p7
ssS'output'
p8
(dp9
g4
(lp10
I3
aI68
aI63
aI3
aI8413
aI122
aI20
aI14
aI3
aI23696
aI5
aI463
aI316
aI18056
aI75
aI3015
aI89
aI1896
aI30161
aI7
aI3
aI4674
aI2089
aI89
aI56820
aI2018
aI3288
aI3
aI14894
aI8732
aI9103
aI2128
aI45
aI1546
aI3
aI9103
aI7
aI4347
aI24408
aI45
aI14
aI492
aI63765
asg6
S'The fact that the scene was left on the disc  and could be accessed by altering a few bytes of the game\'s code via a hex editor  prompted the Entertainment Software Rating Board (ESRB) to change the rating of San Andreas to "Adults Only" on July 20  2005 .'
p11
ss.