(dp1
S'input'
p2
(dp3
S'encoded'
p4
(lp5
I64
aI2179
aI394
aI4325
aI2042
aI270
aI89
aI11605
aI3324
asS'ori'
p6
S'This house would fund education using a voucher scheme'
p7
ssS'output'
p8
(dp9
g4
(lp10
I1985
aI3
aI433
aI3
aI254
aI45
aI12352
aI6018
aI7
aI3386
aI13534
aI45
aI965
aI4364
aI5
aI9012
aI3386
aI4358
aI45
aI738
aI45
aI271
aI3851
aI2240
aI63765
asg6
S'Give the governor the authority to investigate assignment of black pupils to white schools  and ask black students to return to their original all-black school .'
p11
ss.