(dp1
S'input'
p2
(dp3
S'encoded'
p4
(lp5
I64
aI2179
aI394
aI5284
aI150
aI3987
asS'ori'
p6
S'This house would reintroduce national service'
p7
ssS'output'
p8
(dp9
g4
(lp10
I5259
aI116
aI1047
aI15
aI34
aI25
aI15688
aI2690
aI60
aI51
aI710
aI45
aI750
aI289
aI5036
aI12362
aI5
aI34
aI25
aI1457
aI42
aI55
aI572
aI12
aI6042
aI1191
aI25
aI3293
aI5
aI55
aI12
aI9249
aI1237
aI1727
aI41
aI759
aI7
aI22
aI13539
aI63765
asg6
S'Rangel is known both for his genial manner  with an ability to win over fellow legislators  and for his blunt speaking; he has long been outspoken about his views  and has been arrested several times as part of political demonstrations .'
p11
ss.