(dp1
S'input'
p2
(dp3
S'encoded'
p4
(lp5
I64
aI2179
aI394
aI2741
aI3
aI1560
aI6025
aI2784
asS'ori'
p6
S'This house would pass the American Jobs Act'
p7
ssS'output'
p8
(dp9
g4
(lp10
I89
aI4229
aI4900
aI291
aI3
aI2179
aI9368
aI5
aI3
aI2211
aI9368
aI122
aI3
aI13235
aI7
aI89
aI1606
aI7
aI9164
aI45
aI3
aI4834
aI151
aI4262
aI92
aI1630
aI2155
aI45
aI3
aI697
aI63765
asg6
S"A significant difference between the House version and the Senate version was the inclusion of a one-year extension of revisions to the alternative minimum tax which added $70 billion to the bill's total ."
p11
ss.