(dp1
S'input'
p2
(dp3
S'encoded'
p4
(lp5
I64
aI2179
aI394
aI5370
aI3
aI5286
asS'ori'
p6
S'This house would abolish the monarchy'
p7
ssS'output'
p8
(dp9
g4
(lp10
I24
aI3
aI40984
aI8820
aI3
aI5672
aI736
aI9291
aI3
aI17196
aI17197
aI34
aI45
aI3426
aI3
aI2446
aI5
aI9934
aI7
aI3
aI5690
aI63765
asg6
S'In 1215 the barons coerced the king into issuing the Magna Carta (Latin for "Great Charter") to guarantee the rights and liberties of the nobility .'
p11
ss.