(dp1
S'input'
p2
(dp3
S'encoded'
p4
(lp5
I64
aI2179
aI43
aI63
aI2157
aI2565
aI493
aI19084
aI382
aI4850
asS'ori'
p6
S"This house believes that Israel's 2008-2009 military operations against Gaza were justified"
p7
ssS'output'
p8
(dp9
g4
(lp10
I3
aI5757
aI1405
aI2161
aI19322
aI2200
aI34
aI3
aI2800
aI45
aI4405
aI2659
aI19
aI7600
aI41
aI572
aI41
aI134
aI98
aI99
aI3236
aI3
aI62
aI63765
asg6
S"The Turkish Prime Minister Erdogan asked for the UN to bar Israel from participation  as long as it does not respect the body's calls  ."
p11
ss.