(dp1
S'input'
p2
(dp3
S'encoded'
p4
(lp5
I64
aI2179
aI43
aI24
aI3
aI475
aI7
aI12436
aI3364
asS'ori'
p6
S'This house believes in the use of affirmative action'
p7
ssS'output'
p8
(dp9
g4
(lp10
I155
aI174
aI133
aI63
aI7680
aI182
aI416
aI34
aI22
aI127
aI958
aI138
aI17
aI127
aI63765
asg6
S'They also believe that reservations are used for political benefits rather than social benefits  .'
p11
ss.