(dp1
S'input'
p2
(dp3
S'encoded'
p4
(lp5
I64
aI2179
aI43
aI63
aI187
aI417
aI99
aI16642
aI3
aI6449
aI7
aI3935
asS'ori'
p6
S'This house believes that states should not subsidize the growing of tobacco'
p7
ssS'output'
p8
(dp9
g4
(lp10
I41
aI261
aI3935
aI10873
aI1571
aI88
aI521
aI570
aI14761
aI251
aI24
aI3862
aI63765
asg6
S'As well  post-natal tobacco smoke exposure may cause similar behavioral problems in children  .'
p11
ss.