(dp1
S'input'
p2
(dp3
S'encoded'
p4
(lp5
I64
aI2179
aI43
aI63
aI6670
aI546
aI417
aI316
aI89
aI1334
aI3108
aI7
aI4849
aI1886
aI2855
asS'ori'
p6
S'This house believes that wind power should be a primary focus of future energy supply'
p7
ssS'output'
p8
(dp9
g4
(lp10
I89
aI667
aI6695
aI2207
aI2035
aI736
aI3
aI1718
aI7
aI6670
aI1886
aI55
aI353
aI63
aI1488
aI6670
aI5109
aI463
aI124
aI588
aI45
aI24312
aI5101
aI4386
aI3569
aI7
aI2881
aI7
aI697
aI102
aI2881
aI8985
aI2639
aI7962
aI7
aI6695
aI6696
aI6712
aI8907
asg6
S'A new Carbon Trust study into the potential of small-scale wind energy has found that small wind turbines could provide up to 1 .5 terawatt hours (TWh) per year of electricity (0 .4% of total UK electricity consumption)  saving 0 .6 million tonnes of carbon dioxide (Mt CO2) emission savings'
p11
ss.