(dp1
S'input'
p2
(dp3
S'encoded'
p4
(lp5
I64
aI2179
aI235
aI3
aI2136
aI7
aI3
aI2306
aI7
aI2390
asS'ori'
p6
S'This house supports the one-child policy of the republic of China'
p7
ssS'output'
p8
(dp9
g4
(lp10
I73
aI3
aI3188
aI7
aI4822
aI5
aI5615
aI3862
aI55
aI458
aI691
aI320
aI1727
aI63765
asg6
S'"Infanticide  or the killing of infants and young children  has occurred since early times .'
p11
ss.