(dp1
S'input'
p2
(dp3
S'encoded'
p4
(lp5
I64
aI2179
aI43
aI8629
aI116
aI3
aI117
aI998
asS'ori'
p6
S'This house believes atheism is the only way'
p7
ssS'output'
p8
(dp9
g4
(lp10
I64
aI413
aI11926
aI1020
aI63765
aI89
aI13324
aI7
aI8636
aI34683
aI55
aI4373
aI24
aI3
aI10182
aI14514
aI131
aI88
aI316
aI3
aI1059
aI691
aI8476
aI6668
aI2233
aI5607
aI99
aI89
aI5711
aI21078
aI864
aI3
aI2888
aI3384
aI60
aI972
aI5
aI20366
aI63765
aI42
aI32
aI25
aI33
aI24
aI3
aI25458
aI3503
aI548
aI27656
aI357
aI11
aI2118
aI45
aI7590
aI19
aI1063
aI63765
aI10642
aI116
aI3
aI21833
aI7
aI3521
aI63765
aI662
aI63765
aI34634
aI3
aI34684
aI17
aI11599
aI7
aI3
aI237
aI2642
aI7
aI3
aI398
aI81
aI416
aI4199
aI675
aI24841
aI5
aI513
aI217
aI2625
aI63765
asg6
S"This time he's outdone himself [ . .] A spate of atheist screeds has arrived in the bookstores lately  but Hitchens' may be the best since Bertrand Russell's Why I Am Not a Christian (1927)  laying out the essential arguments with force and precision [ . .] He makes his case in the elegant yet biting prose we have come to expect from him [ . .] Hitchens is the reincarnation of H . L . Mencken  the penultimate social critic of the first half of the 20th century  who used words like gunshots and considered most Americans 'boobs' ."
p11
ss.