(dp1
S'input'
p2
(dp3
S'encoded'
p4
(lp5
I64
aI2179
aI394
aI2773
aI12505
asS'ori'
p6
S'This house would embrace multiculturalism'
p7
ssS'output'
p8
(dp9
g4
(lp10
I4462
aI49
aI9358
aI1230
aI1443
aI147
aI24
aI248
aI2138
aI45
aI7246
aI73
aI4796
aI2135
aI2637
aI8490
aI63765
asg6
S"Rothkopf's definition almost exclusively involves allowing individuals in other nations to accept or reject foreign cultural influences ."
p11
ss.