(dp1
S'input'
p2
(dp3
S'encoded'
p4
(lp5
I64
aI2179
aI43
aI63
aI1036
aI4828
aI33250
aI116
aI25073
aI45
aI3315
aI4562
asS'ori'
p6
S'This house believes that male infant circumcision is tantamount to child abuse'
p7
ssS'output'
p8
(dp9
g4
(lp10
I132
aI956
aI382
aI99
aI579
aI298
aI3
aI727
aI382
aI5045
aI5043
aI34
aI3
aI4658
aI7
aI89
aI290
aI7
aI5500
aI22590
aI17
aI5
aI20310
aI1356
aI63765
asg6
S'These associations were not changed when the results were adjusted statistically for the effects of a series of potentially confounding social and perinatal factors  .'
p11
ss.