(dp1
S'input'
p2
(dp3
S'encoded'
p4
(lp5
I64
aI2179
aI43
aI63
aI2157
aI2565
aI493
aI19084
aI382
aI4850
asS'ori'
p6
S"This house believes that Israel's 2008-2009 military operations against Gaza were justified"
p7
ssS'output'
p8
(dp9
g4
(lp10
I11154
aI3
aI8672
aI75
aI16618
aI40795
aI5
aI2304
aI5786
aI122
aI99
aI955
aI5
aI155
aI382
aI2494
aI17121
aI63765
asg6
S'|- Moscow 37 The protest by 37 Palestinians  Azeris and Russian Muslims was not sanctioned  and they were subsequently detained  .'
p11
ss.