(dp1
S'input'
p2
(dp3
S'encoded'
p4
(lp5
I64
aI2179
aI43
aI17
aI4941
aI857
aI3211
asS'ori'
p6
S'This house believes social deprivation causes crime'
p7
ssS'output'
p8
(dp9
g4
(lp10
I3135
aI8935
aI47
aI316
aI988
aI5
aI1199
aI18862
aI257
aI5665
aI63765
asg6
S'Criminal behavior will be repeated and become chronic if reinforced .'
p11
ss.