(dp1
S'input'
p2
(dp3
S'encoded'
p4
(lp5
I64
aI2179
aI43
aI63
aI3
aI4990
aI4991
aI116
aI4850
aI24
aI12166
aI3
aI475
aI7
aI3532
aI3290
aI7
aI4714
asS'ori'
p6
S'This house believes that the Catholic Church is justified in forbidding the use of barrier methods of contraception'
p7
ssS'output'
p8
(dp9
g4
(lp10
I2528
aI171
aI15862
aI3
aI6359
aI45
aI13936
aI5
aI21141
aI5
aI5546
aI1063
aI7
aI21142
aI3
aI17731
aI7
aI3
aI18838
aI226
aI14895
aI14912
aI21143
aI12142
aI14031
aI742
aI63
aI6359
aI83
aI99
aI84
aI19330
aI3
aI4155
aI7
aI7576
aI63
aI55
aI12
aI63765
asg6
S'Turkey\'s ruling party likened the pope to Hitler and Mussolini and accused him of reviving the mentality of the Crusades  while Malaysian PM Abdullah Ahmad Badawi said that "The Pope must not take lightly the spread of outrage that has been created"  .'
p11
ss.