(dp1
S'input'
p2
(dp3
S'encoded'
p4
(lp5
I64
aI2179
aI43
aI63
aI3
aI4991
aI7
aI180
aI417
aI316
aI5396
aI19
aI3
aI169
aI10
asS'ori'
p6
S'This house believes that the Church of England should be separated from the British state'
p7
ssS'output'
p8
(dp9
g4
(lp10
I508
aI13772
aI557
aI63
aI134
aI122
aI3
aI79
aI7
aI3
aI45
aI163
aI134
aI748
aI34
aI89
aI45
aI316
aI685
aI14
aI6267
aI63765
asg6
S'Thus Augustine held that it was the work of the "temporal city" to make it possible for a "heavenly city" to be established on earth  .'
p11
ss.