(dp1
S'input'
p2
(dp3
S'encoded'
p4
(lp5
I64
aI2179
aI394
aI60
aI23587
asS'ori'
p6
S'This house would re-engage with Myanmar'
p7
ssS'output'
p8
(dp9
g4
(lp10
I51
aI25118
aI394
aI316
aI2566
aI2692
aI5726
aI742
aI63
aI42
aI122
aI99
aI1108
aI30345
aI41
aI12800
aI5462
aI11
aI742
aI131
aI122
aI1108
aI311
aI1102
aI1051
aI63765
asg6
S'An autopsy would be carried out; Japanese officials said that he was not shot accidentally as Burmese authorities have said  but was shot at close range .'
p11
ss.