(dp1
S'input'
p2
(dp3
S'encoded'
p4
(lp5
I64
aI2179
aI43
aI223
aI2138
aI11
aI89
aI21
aI45
aI2185
aI372
asS'ori'
p6
S'This house believes all nations have a right to nuclear weapons'
p7
ssS'output'
p8
(dp9
g4
(lp10
I24
aI2865
aI12008
aI7367
aI63
aI2185
aI2138
aI843
aI440
aI237
aI1767
aI73
aI1950
aI1767
aI5201
aI63765
asg6
S"In McNamara's formulation  MAD meant that nuclear nations either had first strike or second strike capability ."
p11
ss.