(dp1
S'input'
p2
(dp3
S'encoded'
p4
(lp5
I64
aI2179
aI394
aI60
aI23587
asS'ori'
p6
S'This house would re-engage with Myanmar'
p7
ssS'output'
p8
(dp9
g4
(lp10
I14
aI2555
aI3
aI1565
aI2131
aI2586
aI7960
aI5665
aI493
aI3
aI2157
aI6073
aI60
aI912
aI9991
aI1719
aI158
aI51
aI834
aI4109
aI9003
aI36961
aI5
aI17491
aI5
aI2258
aI2024
aI63765
asg6
S'On 27 September the European Union began considering "targeted reinforced sanctions" against the military junta  with current sanctions already including an arms embargo  asset freezes  and visa and trade bans .'
p11
ss.