(dp1
S'input'
p2
(dp3
S'encoded'
p4
(lp5
I64
aI2179
aI394
aI190
aI3
aI21
aI45
aI3895
aI834
asS'ori'
p6
S'This house would limit the right to bear arms'
p7
ssS'output'
p8
(dp9
g4
(lp10
I51
aI2388
aI2035
aI7
aI7565
aI4547
aI2036
aI63
aI4285
aI1385
aI17232
aI5
aI248
aI3892
aI289
aI3892
aI63765
asg6
S'An earlier 1985 study of 1 800 incarcerated felons showed that criminals prefer revolvers and other non-semi-automatic firearms over semi-automatic firearms  .'
p11
ss.