(dp1
S'input'
p2
(dp3
S'encoded'
p4
(lp5
I64
aI2179
aI43
aI63
aI6670
aI546
aI417
aI316
aI89
aI1334
aI3108
aI7
aI4849
aI1886
aI2855
asS'ori'
p6
S'This house believes that wind power should be a primary focus of future energy supply'
p7
ssS'output'
p8
(dp9
g4
(lp10
I24
aI2927
aI89
aI667
aI905
aI14
aI102
aI32512
aI105
aI5136
aI122
aI480
aI75
aI20470
aI62530
aI63765
asg6
S'In March 2010  a new report on UK levelised generation costs was published by Parsons Brinckerhoff  .'
p11
ss.