(dp1
S'input'
p2
(dp3
S'encoded'
p4
(lp5
I64
aI2179
aI43
aI63
aI3
aI4990
aI4991
aI116
aI4850
aI24
aI12166
aI3
aI475
aI7
aI3532
aI3290
aI7
aI4714
asS'ori'
p6
S'This house believes that the Catholic Church is justified in forbidding the use of barrier methods of contraception'
p7
ssS'output'
p8
(dp9
g4
(lp10
I3
aI314
aI708
aI13147
aI373
aI3
aI217
aI939
aI1869
aI7
aI314
aI708
aI24
aI3
aI2439
aI366
aI211
aI29389
aI131
aI7332
aI485
aI89
aI2369
aI1950
aI63765
asg6
S"The birth control pill became the world's most popular method of birth control in the years after its 1960 debut  but condoms remained a strong second ."
p11
ss.