(dp1
S'input'
p2
(dp3
S'encoded'
p4
(lp5
I64
aI2179
aI43
aI24
aI3
aI475
aI7
aI12436
aI3364
asS'ori'
p6
S'This house believes in the use of affirmative action'
p7
ssS'output'
p8
(dp9
g4
(lp10
I12537
aI10250
aI4933
aI5
aI10049
aI7
aI965
aI11975
aI223
aI2322
aI63765
asg6
S'Segregation  racial discrimination  and expressions of white supremacy all increased .'
p11
ss.