(dp1
S'input'
p2
(dp3
S'encoded'
p4
(lp5
I64
aI2179
aI394
aI5370
aI223
aI4013
aI10440
aI2446
aI4881
aI75
aI14482
aI11004
asS'ori'
p6
S'This house would abolish all collective bargaining rights claimed by trades unions'
p7
ssS'output'
p8
(dp9
g4
(lp10
I3552
aI7
aI11004
aI103
aI63
aI3
aI166
aI195
aI63
aI11004
aI3497
aI139
aI316
aI3481
aI34
aI620
aI3098
aI199
aI63765
asg6
S'Advocates of unions claim that the higher wages that unions demand can be paid for through company profits .'
p11
ss.