(dp1
S'input'
p2
(dp3
S'encoded'
p4
(lp5
I64
aI2179
aI394
aI16756
aI20435
asS'ori'
p6
S'This house would criminalize blasphemy'
p7
ssS'output'
p8
(dp9
g4
(lp10
I3
aI905
aI3
aI11898
aI7
aI25
aI10872
aI45
aI2998
aI89
aI1848
aI1931
aI19
aI3
aI15495
aI3445
aI7
aI3
aI20787
aI7
aI8313
aI1636
aI3
aI976
aI9905
aI7
aI45
aI150
aI10250
aI73
aI2767
aI11095
aI63765
asg6
S'The report "reiterates the recommendation of his predecessor to encourage a shift away from the sociological concept of the defamation of religions towards the legal norm of non-incitement to national  racial or religious hatred .'
p11
ss.