(dp1
S'input'
p2
(dp3
S'encoded'
p4
(lp5
I64
aI2179
aI394
aI60
aI23587
asS'ori'
p6
S'This house would re-engage with Myanmar'
p7
ssS'output'
p8
(dp9
g4
(lp10
I64
aI2564
aI8057
aI7285
aI3
aI2157
aI3081
aI4136
aI7
aI3189
aI7
aI2666
aI1928
aI3569
aI63765
asg6
S'This joint venture earns the military regime hundreds of millions of dollars every year .'
p11
ss.