(dp1
S'input'
p2
(dp3
S'encoded'
p4
(lp5
I64
aI2179
aI43
aI63
aI3
aI28431
aI7
aI2157
aI4624
aI75
aI39939
aI27257
aI122
aI4850
asS'ori'
p6
S'This house believes that the leaking of military documents by Anat Kamm was justified'
p7
ssS'output'
p8
(dp9
g4
(lp10
I725
aI7
aI3
aI25525
aI7536
aI1560
aI11636
aI60
aI2083
aI3186
aI3077
aI3
aI2879
aI3848
aI63
aI7
aI61
aI2931
aI45
aI316
aI29477
aI30964
aI1035
aI1732
aI60
aI3
aI514
aI30965
aI658
aI26086
aI7
aI2661
aI41
aI51
aI2553
aI75
aI1560
aI5726
asg6
S'Many of the excerpts illustrated American frustration with local involvement  quoting the sources  noting that "glimpses of what appear to be Pakistani skullduggery contrast sharply with the frequently rosy public pronouncements of Pakistan as an ally by American officials ."'
p11
ss.