(dp1
S'input'
p2
(dp3
S'encoded'
p4
(lp5
I64
aI2179
aI43
aI63
aI3
aI4990
aI4991
aI116
aI4850
aI24
aI12166
aI3
aI475
aI7
aI3532
aI3290
aI7
aI4714
asS'ori'
p6
S'This house believes that the Catholic Church is justified in forbidding the use of barrier methods of contraception'
p7
ssS'output'
p8
(dp9
g4
(lp10
I3
aI1998
aI4012
aI3
aI28
aI3657
aI24
aI5
aI122
aI22137
aI75
aI4916
aI4917
aI5
aI11486
aI46911
aI63765
asg6
S'The phrase "birth control" entered the English language in 1914 and was popularised by Margaret Sanger and Otto Bobsein  .'
p11
ss.