(dp1
S'input'
p2
(dp3
S'encoded'
p4
(lp5
I64
aI2179
aI394
aI16756
aI20435
asS'ori'
p6
S'This house would criminalize blasphemy'
p7
ssS'output'
p8
(dp9
g4
(lp10
I3
aI9596
aI263
aI111
aI3
aI4604
aI19385
aI14
aI57
aI7
aI2382
aI73
aI1361
aI45
aI905
aI14
aI64
aI845
aI34
aI3
aI2445
aI2446
aI2132
aI311
aI211
aI4742
aI9621
aI63765
asg6
S'The resolution called upon the Special Rapporteur on freedom of religion or belief to report on this issue for the Human Rights Council at its sixth session  .'
p11
ss.