(dp1
S'input'
p2
(dp3
S'encoded'
p4
(lp5
I64
aI2179
aI394
aI163
aI959
aI2042
aI3557
asS'ori'
p6
S'This house would make physical education compulsory'
p7
ssS'output'
p8
(dp9
g4
(lp10
I24
aI3
aI150
aI927
aI34
aI3217
aI5
aI7119
aI16260
aI3435
aI89
aI26971
aI14
aI3
aI14684
aI5
aI6801
aI7
aI16329
aI41
aI261
aI41
aI2136
aI4738
aI34
aI2142
aI159
aI41
aI2083
aI14625
aI63765
asg6
S'In 2006  the National Institute for Health and Clinical Excellence (NICE) issued a guideline on the diagnosis and management of obesity  as well as policy implications for non-healthcare organizations such as local councils  .'
p11
ss.