(dp1
S'input'
p2
(dp3
S'encoded'
p4
(lp5
I64
aI2179
aI43
aI17
aI4941
aI857
aI3211
asS'ori'
p6
S'This house believes social deprivation causes crime'
p7
ssS'output'
p8
(dp9
g4
(lp10
I3
aI710
aI45
aI1546
aI13541
aI3064
aI73
aI2554
aI3610
aI736
aI2513
aI60
aI3
aI229
aI63765
asg6
S"The institution's ability to change norms  wealth or status comes into conflict with the individual ."
p11
ss.