(dp1
S'input'
p2
(dp3
S'encoded'
p4
(lp5
I64
aI2179
aI43
aI63
aI134
aI116
aI400
aI21
aI34
aI3
aI260
aI45
aI3439
aI57
aI7
aI2381
asS'ori'
p6
S'This house believes that it is sometimes right for the government to restrict freedom of speech'
p7
ssS'output'
p8
(dp9
g4
(lp10
I24
aI89
aI1896
aI187
aI159
aI41
aI2300
aI89
aI10
aI2475
aI55
aI12
aI4186
aI41
aI193
aI136
aI7088
aI4625
aI138
aI3
aI237
aI3264
aI63765
asg6
S'In a few states  such as California  a state constitution has been interpreted as providing more comprehensive protections than the First Amendment .'
p11
ss.