(dp1
S'input'
p2
(dp3
S'encoded'
p4
(lp5
I64
aI2179
aI394
aI5284
aI150
aI3987
asS'ori'
p6
S'This house would reintroduce national service'
p7
ssS'output'
p8
(dp9
g4
(lp10
I159
aI51
aI1039
aI2630
aI1059
aI24
aI89
aI2597
aI4996
aI53
aI273
aI122
aI443
aI6038
aI45
aI99
aI5833
aI5
aI3
aI1718
aI6039
aI122
aI99
aI1047
aI45
aI120
aI6040
aI1063
aI63765
asg6
S'Such an approach worked best in a larger city where there was no stigma to not serving  and the potential draftee was not known to those reviewing him .'
p11
ss.