(dp1
S'input'
p2
(dp3
S'encoded'
p4
(lp5
I64
aI2179
aI13605
aI2258
aI45
aI2194
asS'ori'
p6
S'This house prefers trade to aid'
p7
ssS'output'
p8
(dp9
g4
(lp10
I7170
aI116
aI419
aI1273
aI45
aI18794
aI41
aI134
aI116
aI153
aI1273
aI45
aI15424
aI134
aI19
aI248
aI251
aI159
aI41
aI27755
aI7169
aI5
aI24193
aI45
aI14468
aI3
aI957
aI289
aI2206
aI2155
aI122
aI6196
aI45
aI5152
aI7196
aI4562
aI5
aI7169
aI24
aI3
aI16039
aI16040
aI335
aI2419
aI63765
asg6
S'Corruption is very hard to quantify as it is often hard to differentiate it from other problems  such as wastage  mismanagement and inefficiency  to illustrate the point  over US $8 .75 billion was lost to waste  fraud  abuse and mismanagement in the Hurricane Katrina relief effort  .'
p11
ss.