(dp1
S'input'
p2
(dp3
S'encoded'
p4
(lp5
I64
aI2179
aI394
aI2741
aI3
aI1560
aI6025
aI2784
asS'ori'
p6
S'This house would pass the American Jobs Act'
p7
ssS'output'
p8
(dp9
g4
(lp10
I24
aI421
aI45
aI3
aI7655
aI2164
aI2311
aI2210
aI89
aI3499
aI760
aI3
aI16
aI9449
aI3499
aI2128
aI4322
aI5
aI34084
aI3
aI2277
aI2132
aI14
aI6025
aI5
aI122
aI2273
aI14205
aI45
aI3
aI4342
aI7
aI3
aI2784
aI63765
asg6
S"In addition to the Vice President Biden's oversight role  a high-level advisory body  the President's Economic Recovery Advisory Board (later renamed and reconstituted the Presidents Council on Jobs and Competitiveness)  was named concurrent to the passage of the act ."
p11
ss.