(dp1
S'input'
p2
(dp3
S'encoded'
p4
(lp5
I64
aI2179
aI394
aI4261
aI8667
aI3
aI9361
aI5
aI17069
asS'ori'
p6
S'This house would prohibit burning the stars and stripes'
p7
ssS'output'
p8
(dp9
g4
(lp10
I3
aI237
aI3264
aI236
aI159
aI364
aI41
aI6249
aI2381
asg6
S'the First Amendment protects such activity as symbolic speech'
p11
ss.