(dp1
S'input'
p2
(dp3
S'encoded'
p4
(lp5
I64
aI2179
aI394
aI1499
aI3
aI8115
aI34564
aI17106
asS'ori'
p6
S'This house would build the Keystone XL pipeline'
p7
ssS'output'
p8
(dp9
g4
(lp10
I211
aI3851
aI6031
aI1556
aI3
aI52525
aI24
aI3806
aI3
aI1445
aI7851
aI7826
aI5
aI3
aI50774
aI19301
aI93
aI7
aI3
aI2546
aI2844
aI7
aI7379
aI1495
aI24
aI3
aI285
aI63765
asg6
S'Its original route crosses the Sandhills in Nebraska  the large wetland ecosystem  and the Ogallala Aquifer  one of the largest reserves of fresh water in the world  .'
p11
ss.