(dp1
S'input'
p2
(dp3
S'encoded'
p4
(lp5
I64
aI2179
aI43
aI3
aI626
aI187
aI116
aI1989
aI34
aI3102
aI2223
asS'ori'
p6
S"This house believes the United States is responsible for Mexico's drugs war"
p7
ssS'output'
p8
(dp9
g4
(lp10
I64
aI2474
aI8867
aI51
aI516
aI2639
aI45
aI4325
aI3
aI2223
aI14
aI3102
aI63765
asg6
S'This legislation appropriated an additional $1 .7 million to fund the War on Drugs .'
p11
ss.