(dp1
S'input'
p2
(dp3
S'encoded'
p4
(lp5
I64
aI2179
aI394
aI2773
aI12505
asS'ori'
p6
S'This house would embrace multiculturalism'
p7
ssS'output'
p8
(dp9
g4
(lp10
I134
aI116
aI99
aI1032
aI871
aI2319
aI41
aI3
aI667
aI11316
aI131
aI116
aI4415
aI24
aI4645
aI45
aI3
aI5545
aI11316
aI63765
asg6
S'It is not simply passed along as the new canon  but is viewed in relation to the old canon .'
p11
ss.