(dp1
S'input'
p2
(dp3
S'encoded'
p4
(lp5
I64
aI2179
aI394
aI2741
aI3
aI1560
aI6025
aI2784
asS'ori'
p6
S'This house would pass the American Jobs Act'
p7
ssS'output'
p8
(dp9
g4
(lp10
I3
aI1560
aI78
aI316
aI5175
aI45
aI3601
aI100
aI5378
aI155
aI2383
aI45
aI16394
aI45
aI63765
asg6
S"The American people shouldn't be forced to watch some politician they don't want to listen to ."
p11
ss.