(dp1
S'input'
p2
(dp3
S'encoded'
p4
(lp5
I64
aI2179
aI43
aI63
aI3
aI4538
aI7
aI4434
aI7793
aI283
aI45
aI3586
aI417
aI316
aI577
asS'ori'
p6
S'This house believes that the sale of violent video games to minors should be banned'
p7
ssS'output'
p8
(dp9
g4
(lp10
I332
aI24
aI132
aI283
aI116
aI2146
aI17627
aI5
aI153
aI378
aI3
aI3089
aI7
aI3
aI5
aI3
aI2321
aI63
aI1274
aI86
aI182
aI17555
aI4434
aI63765
asg6
S'Fighting in these games is highly stylized and often turn-based  however the actions of the player-characters and the enemies that attack them are distinctly violent .'
p11
ss.