(dp1
S'input'
p2
(dp3
S'encoded'
p4
(lp5
I64
aI2179
aI43
aI63
aI3
aI28431
aI7
aI2157
aI4624
aI75
aI39939
aI27257
aI122
aI4850
asS'ori'
p6
S'This house believes that the leaking of military documents by Anat Kamm was justified'
p7
ssS'output'
p8
(dp9
g4
(lp10
I6121
aI2050
aI8862
aI1136
aI56324
aI56325
aI2050
aI8862
aI8862
aI8862
aI1136
aI56326
aI63765
asg6
S'|- Romania Strict Secret de Importanta Deosebita Strict Secret Secret Secret de serviciu  .'
p11
ss.