(dp1
S'input'
p2
(dp3
S'encoded'
p4
(lp5
I64
aI2179
aI43
aI8629
aI116
aI3
aI117
aI998
asS'ori'
p6
S'This house believes atheism is the only way'
p7
ssS'output'
p8
(dp9
g4
(lp10
I8629
aI116
aI6428
aI60
aI14523
aI92
aI24
aI211
aI217
aI448
aI399
aI116
aI3
aI1361
aI63
aI311
aI870
aI93
aI6527
aI1967
aI63765
asg6
S'Atheism is contrasted with theism which in its most general form is the belief that at least one deity exists  .'
p11
ss.