(dp1
S'input'
p2
(dp3
S'encoded'
p4
(lp5
I64
aI2179
aI43
aI63
aI3
aI4990
aI4991
aI116
aI4850
aI24
aI12166
aI3
aI475
aI7
aI3532
aI3290
aI7
aI4714
asS'ori'
p6
S'This house believes that the Catholic Church is justified in forbidding the use of barrier methods of contraception'
p7
ssS'output'
p8
(dp9
g4
(lp10
I3
aI2536
aI7
aI10977
aI10697
aI45
aI1980
aI116
aI3472
aI3
aI26035
aI11052
aI887
aI3950
aI2985
aI7
aI3
aI4990
aI25657
aI4902
aI7
aI3495
aI63765
asg6
S'The reservation of priestly ordination to men is perhaps the sorest spot among contemporary critics of the Catholic Churchs treatment of women  .'
p11
ss.