(dp1
S'input'
p2
(dp3
S'encoded'
p4
(lp5
I64
aI2179
aI394
aI2017
aI3807
aI314
aI3433
asS'ori'
p6
S'This house would ban partial birth abortions'
p7
ssS'output'
p8
(dp9
g4
(lp10
I24
aI2547
aI3
aI3744
aI11
aI4648
aI3261
aI2446
aI24
aI3
aI2702
aI7
aI4224
aI2489
aI7
aI3
aI2023
aI2550
aI7
aI2446
aI5
aI2379
aI63765
asg6
S'In Canada  the courts have located privacy rights in the security of persons clause of the Canadian Charter of Rights and Freedoms .'
p11
ss.