(dp1
S'input'
p2
(dp3
S'encoded'
p4
(lp5
I64
aI2179
aI43
aI8629
aI116
aI3
aI117
aI998
asS'ori'
p6
S'This house believes atheism is the only way'
p7
ssS'output'
p8
(dp9
g4
(lp10
I8301
aI8467
aI3
aI237
aI521
aI45
aI316
aI89
aI63
aI1551
aI24573
aI3
aI285
aI45
aI211
aI912
aI5853
aI63765
asg6
S'Dawkins wants the first cause to be a "self-bootstrapping crane" that slowly lifts the world to its current complexity .'
p11
ss.