(dp1
S'input'
p2
(dp3
S'encoded'
p4
(lp5
I64
aI2179
aI43
aI63
aI187
aI417
aI99
aI16642
aI3
aI6449
aI7
aI3935
asS'ori'
p6
S'This house believes that states should not subsidize the growing of tobacco'
p7
ssS'output'
p8
(dp9
g4
(lp10
I311
aI3
aI312
aI7
aI3
aI11335
aI92
aI394
aI1447
aI223
aI4150
aI3
aI1188
aI3421
aI14833
aI21027
aI5
aI3964
aI394
aI316
aI575
aI41
aI89
aI90
aI7
aI61784
aI45
aI5545
aI5
aI1376
aI78
aI81
aI440
aI12
aI7241
aI45
aI8746
aI3
aI17
aI5767
aI73
aI134
aI394
aI316
aI24347
aI45
aI3
aI8242
aI63765
asg6
S'At the end of the feast  which would last all night  the remaining flowers  smoking tubes and food would be given as a kind of alms to old and poor people who had been invited to witness the social occasion  or it would be rewarded to the servants  .'
p11
ss.