(dp1
S'input'
p2
(dp3
S'encoded'
p4
(lp5
I64
aI2179
aI13605
aI2258
aI45
aI2194
asS'ori'
p6
S'This house prefers trade to aid'
p7
ssS'output'
p8
(dp9
g4
(lp10
I839
aI2896
aI115
aI19
aI3927
aI2203
aI55
aI7861
aI45
aI3226
aI3
aI3440
aI7
aI3976
aI24
aI725
aI5026
aI2138
asg6
S'direct monetary assistance from industrialized countries has gone to increase the standard of living in many impoverished nations'
p11
ss.