(dp1
S'input'
p2
(dp3
S'encoded'
p4
(lp5
I64
aI2179
aI394
aI2017
aI223
aI9058
aI23653
asS'ori'
p6
S'This house would ban all unsustainable logging'
p7
ssS'output'
p8
(dp9
g4
(lp10
I19
aI3
aI349
aI7
aI1727
aI3923
aI34
aI1702
aI6905
aI5
aI6797
aI55
aI12
aI51
aI1185
aI2445
aI364
aI41
aI89
aI258
aI7
aI3970
aI63765
asg6
S'From the earliest of times  hunting for wild mammals and birds has been an important human activity as a means of survival .'
p11
ss.