(dp1
S'input'
p2
(dp3
S'encoded'
p4
(lp5
I64
aI2179
aI394
aI2773
aI12505
asS'ori'
p6
S'This house would embrace multiculturalism'
p7
ssS'output'
p8
(dp9
g4
(lp10
I3
aI237
aI7259
aI3
aI2446
aI7
aI10070
aI6619
aI45
aI1049
aI5
aI45
aI1706
aI271
aI284
aI2637
aI3237
aI5
aI3787
aI4555
aI271
aI2637
aI5
aI7146
aI4585
aI63765
asg6
S'The first addresses the rights of indigenous peoples to maintain and to further their own cultural practices and traditions specifically their cultural and intellectual property .'
p11
ss.