(dp1
S'input'
p2
(dp3
S'encoded'
p4
(lp5
I64
aI2179
aI394
aI2017
aI223
aI9058
aI23653
asS'ori'
p6
S'This house would ban all unsustainable logging'
p7
ssS'output'
p8
(dp9
g4
(lp10
I1121
aI1137
aI47788
aI9468
aI21502
aI2240
aI7
aI260
aI2777
aI4750
aI116
aI1185
aI604
aI7
aI3
aI1051
aI7
aI78
aI81
aI9319
aI16062
aI2136
aI9126
aI3552
aI3
aI1051
aI116
aI11978
aI63765
asg6
S'Tony la Vina  Dean  Ateneo School of Government  Manila University  Philippines:FD is important because of the range of people who come: negotiators  practitioners  policy makers  advocates  the range is impressive .'
p11
ss.