(dp1
S'input'
p2
(dp3
S'encoded'
p4
(lp5
I64
aI2179
aI43
aI3
aI626
aI187
aI116
aI1989
aI34
aI3102
aI2223
asS'ori'
p6
S"This house believes the United States is responsible for Mexico's drugs war"
p7
ssS'output'
p8
(dp9
g4
(lp10
I14
aI425
aI2145
aI63765
aI3343
aI28419
aI2791
aI3
aI237
aI8185
aI7
aI3
aI33
aI45
aI1199
aI890
aI658
aI16345
aI3
aI312
aI7
aI3099
aI1167
aI5
aI1389
aI63765
asg6
S'On January 25  2011  U .S . Attorney Burke announced the first details of the case to become officially public  marking the end of Operation Fast and Furious .'
p11
ss.