(dp1
S'input'
p2
(dp3
S'encoded'
p4
(lp5
I64
aI2179
aI394
aI16756
aI20435
asS'ori'
p6
S'This house would criminalize blasphemy'
p7
ssS'output'
p8
(dp9
g4
(lp10
I1191
aI29528
aI2900
aI7
aI3
aI2598
aI116
aI5761
aI63765
asg6
S"About seventy percent of the country's population is Muslim ."
p11
ss.