(dp1
S'input'
p2
(dp3
S'encoded'
p4
(lp5
I64
aI2179
aI394
aI5370
aI223
aI4013
aI10440
aI2446
aI4881
aI75
aI14482
aI11004
asS'ori'
p6
S'This house would abolish all collective bargaining rights claimed by trades unions'
p7
ssS'output'
p8
(dp9
g4
(lp10
I3
aI7443
aI7
aI11004
aI24
aI380
aI2203
aI139
aI316
aI13683
aI270
aI3
aI3728
aI2131
aI11794
aI63765
asg6
S'The prevalence of unions in various countries can be assessed using the measure union density .'
p11
ss.