(dp1
S'input'
p2
(dp3
S'encoded'
p4
(lp5
I64
aI2179
aI394
aI60
aI23587
asS'ori'
p6
S'This house would re-engage with Myanmar'
p7
ssS'output'
p8
(dp9
g4
(lp10
I60
aI3
aI367
aI7
aI41470
aI223
aI7
aI3118
aI415
aI459
aI169
aI306
aI63765
asg6
S'With the fall of Mandalay  all of Burma came under British rule .'
p11
ss.