(dp1
S'input'
p2
(dp3
S'encoded'
p4
(lp5
I64
aI2179
aI394
aI2017
aI3807
aI314
aI3433
asS'ori'
p6
S'This house would ban partial birth abortions'
p7
ssS'output'
p8
(dp9
g4
(lp10
I3754
aI4856
aI3172
aI63
aI64
aI139
aI316
aI4857
aI19
aI4858
aI4859
aI5
aI3657
aI5
aI93
aI139
aI4860
aI3943
aI3741
aI3459
aI440
aI440
aI51
aI3257
aI1530
aI3131
aI736
aI732
aI3271
aI3313
aI394
aI11
aI3178
aI768
aI93
aI139
aI4861
aI4862
aI63
aI311
aI1530
aI3131
aI3
aI24
aI2802
aI394
aI11
aI12
aI51
aI3904
aI2007
aI60
aI89
aI3564
aI103
aI45
aI3269
aI63765
asg6
S'Anthony Kenny argues that this can be derived from everyday beliefs and language and one can legitimately say "if my mother had had an abortion six months into her pregnancy  she would have killed me" then one can reasonably infer that at six months the "me" in question would have been an existing person with a valid claim to life .'
p11
ss.