(dp1
S'input'
p2
(dp3
S'encoded'
p4
(lp5
I64
aI2179
aI394
aI190
aI3
aI21
aI45
aI3895
aI834
asS'ori'
p6
S'This house would limit the right to bear arms'
p7
ssS'output'
p8
(dp9
g4
(lp10
I3
aI4283
aI4284
aI2031
aI2611
aI2511
aI1881
aI45
aI881
aI4285
aI19
aI4286
aI3892
aI226
aI4287
aI667
aI2051
aI63
aI3493
aI2144
aI63765
asg6
S'The NRA historically supported gun laws intended to prevent criminals from obtaining firearms  while opposing new restrictions that affected law-abiding citizens .'
p11
ss.