(dp1
S'input'
p2
(dp3
S'encoded'
p4
(lp5
I64
aI2179
aI43
aI63
aI2659
aI417
aI1690
aI3
aI12048
aI7
aI19084
asS'ori'
p6
S'This house believes that Israel should lift the blockade of Gaza'
p7
ssS'output'
p8
(dp9
g4
(lp10
I6085
aI5795
aI2161
aI7
aI2135
aI2181
aI29836
aI29837
aI10826
aI1076
aI29838
aI3
aI6056
aI19386
aI24
aI6095
aI45
aI29839
aI1191
aI3
aI4134
aI5
aI7107
aI3
aI7099
aI7
aI3
aI6085
aI42
aI6534
aI63
aI463
aI2986
aI3
aI475
aI7
aI159
aI2617
aI63765
asg6
S'Greek Deputy Minister of Foreign Affairs Dimitris Droutsas summoned Ali Yahia  the Israeli Ambassador in Greece to inquire about the incident and convey the annoyance of the Greek government; he stressed that "nothing could justify the use of such violence .'
p11
ss.