(dp1
S'input'
p2
(dp3
S'encoded'
p4
(lp5
I64
aI2179
aI43
aI63
aI3
aI21
aI45
aI12715
aI417
aI99
aI316
aI2897
asS'ori'
p6
S'This house believes that the right to asylum should not be absolute'
p7
ssS'output'
p8
(dp9
g4
(lp10
I132
aI1290
aI382
aI31327
aI75
aI89
aI1488
aI202
aI7
aI6597
aI11353
aI705
aI24
aI3
aI491
aI26623
aI5
aI120
aI81
aI440
aI443
aI583
aI463
aI316
aI4617
aI99
aI45
aI11
aI20
aI63765
asg6
S'These cards were tallied by a small army of junior clerical staff in the Croydon HQ and those who had no pair could be assumed not to have left .'
p11
ss.