(dp1
S'input'
p2
(dp3
S'encoded'
p4
(lp5
I64
aI2179
aI43
aI8629
aI116
aI3
aI117
aI998
asS'ori'
p6
S'This house believes atheism is the only way'
p7
ssS'output'
p8
(dp9
g4
(lp10
I64
aI38829
aI122
aI643
aI75
aI3
aI5711
aI10783
aI42501
aI7
aI42502
aI5
aI211
aI217
aI2068
aI5
aI6042
aI7838
aI55
aI12
aI3
aI2147
aI6165
aI7
aI2382
aI495
aI42503
aI63765
asg6
S'This theodicy was developed by the second-century Christian theologian  Irenaeus of Lyons  and its most recent and outspoken advocate has been the influential philosopher of religion  John Hick .'
p11
ss.