(dp1
S'input'
p2
(dp3
S'encoded'
p4
(lp5
I64
aI2179
aI394
aI2773
aI12505
asS'ori'
p6
S'This house would embrace multiculturalism'
p7
ssS'output'
p8
(dp9
g4
(lp10
I41
aI34
aI3
aI2210
aI7
aI2231
aI24
aI150
aI3914
aI3
aI3955
aI7
aI11691
aI51746
aI5
aI3953
aI290
aI675
aI89
aI2231
aI11
aI3818
aI165
aI45
aI32583
aI3
aI939
aI376
aI7
aI15283
aI24
aI271
aI2231
aI63765
asg6
S"As for the role of history in national identity  the books of Pierre Berton and television series like Canada: A People's History have done much to spark the popular interest of Canadians in their history ."
p11
ss.