(dp1
S'input'
p2
(dp3
S'encoded'
p4
(lp5
I64
aI2179
aI43
aI63
aI187
aI417
aI99
aI16642
aI3
aI6449
aI7
aI3935
asS'ori'
p6
S'This house believes that states should not subsidize the growing of tobacco'
p7
ssS'output'
p8
(dp9
g4
(lp10
I64
aI2017
aI122
aI1258
aI75
aI3
aI3935
aI5583
aI14914
aI92
aI427
aI782
aI24
aI492
aI45
aI1616
aI248
aI274
aI7
aI897
aI159
aI41
aI3
aI7147
aI7154
aI897
aI5
aI6881
aI63765
asg6
S'This ban was extended by the Tobacco Advertising Directive  which took effect in July 2005 to cover other forms of media such as the internet  print media  and radio .'
p11
ss.