(dp1
S'input'
p2
(dp3
S'encoded'
p4
(lp5
I64
aI2179
aI43
aI63
aI2659
aI417
aI1690
aI3
aI12048
aI7
aI19084
asS'ori'
p6
S'This house believes that Israel should lift the blockade of Gaza'
p7
ssS'output'
p8
(dp9
g4
(lp10
I155
aI768
aI742
aI139
aI316
aI443
aI21930
aI34
aI3
aI998
aI63
aI2659
aI3191
aI27626
aI3
aI4134
asg6
S'They then said "There can be no excuse for the way that Israel completely mishandled the incident ."'
p11
ss.