(dp1
S'input'
p2
(dp3
S'encoded'
p4
(lp5
I64
aI2179
aI394
aI1499
aI3
aI8115
aI34564
aI17106
asS'ori'
p6
S'This house would build the Keystone XL pipeline'
p7
ssS'output'
p8
(dp9
g4
(lp10
I3
aI3851
aI52555
aI11852
aI2098
aI24
aI226
aI3
aI55389
aI11852
aI2951
aI24
aI1828
aI2547
aI2098
aI211
aI55394
aI5172
aI11852
aI24
aI5
aI2023
aI35
aI2635
aI14057
aI2098
aI211
aI22320
aI2762
aI24
aI63765
asg6
S'The original Suncor mine opened in 1967  while the Syncrude mine started in 1978  Shell Canada opened its Muskeg River mine (Albian Sands) in 2003 and Canadian Natural Resources Ltd opened its Horizon Project in 2009 .'
p11
ss.