(dp1
S'input'
p2
(dp3
S'encoded'
p4
(lp5
I64
aI2179
aI394
aI5370
aI7146
aI4585
aI2446
asS'ori'
p6
S'This house would abolish intellectual property rights'
p7
ssS'output'
p8
(dp9
g4
(lp10
I273
aI1721
aI45
aI316
aI89
aI448
aI886
aI1365
aI24614
aI2444
aI24
aI3
aI2809
aI63
aI273
aI1227
aI45
aI316
aI100
aI8508
aI5941
aI34
aI3862
aI1191
aI12717
aI214
aI63765
asg6
S'There seems to be a general consensus amongst assorted interests in the USA that there needs to be some curriculum materials for school-aged children about copyright issues  .'
p11
ss.