(dp1
S'input'
p2
(dp3
S'encoded'
p4
(lp5
I64
aI2179
aI394
aI2017
aI3807
aI314
aI3433
asS'ori'
p6
S'This house would ban partial birth abortions'
p7
ssS'output'
p8
(dp9
g4
(lp10
I132
aI1367
aI6305
aI14
aI4814
aI92
aI4815
aI4816
aI89
aI21
aI45
aI3269
aI131
aI1461
aI120
aI4815
aI83
aI316
aI77
aI643
aI4817
aI4815
aI92
aI3
aI16502
aI1153
aI63765
asg6
S'These writers disagree on precisely which features confer a right to life  but agree those features must be certain developed psychological features which the embryo lacks .'
p11
ss.