(dp1
S'input'
p2
(dp3
S'encoded'
p4
(lp5
I64
aI2179
aI43
aI17
aI4941
aI857
aI3211
asS'ori'
p6
S'This house believes social deprivation causes crime'
p7
ssS'output'
p8
(dp9
g4
(lp10
I3446
aI708
aI122
aI1038
aI41
aI63765
aI710
aI7
aI3
aI229
aI45
aI4998
aI19
aI7807
aI1227
aI24
aI3708
aI92
aI2513
aI60
aI3
aI13541
aI5
aI442
aI7
aI3
aI226
aI17
aI708
aI122
aI63765
aI710
aI7
aI17
aI3136
aI73
aI2825
aI45
aI163
aI13541
aI73
aI442
aI1112
asg6
S'Personal control was defined as  " . .the ability of the individual to refrain from meeting needs in ways which conflict with the norms and rules of the community" while social control was  " . .the ability of social groups or institutions to make norms or rules effective ."'
p11
ss.