(dp1
S'input'
p2
(dp3
S'encoded'
p4
(lp5
I64
aI2179
aI394
aI4261
aI8667
aI3
aI9361
aI5
aI17069
asS'ori'
p6
S'This house would prohibit burning the stars and stripes'
p7
ssS'output'
p8
(dp9
g4
(lp10
I443
aI692
aI122
aI547
aI252
aI3
aI50391
aI7
aI89
aI4404
aI63765
asg6
S'No publication was allowed without the accompaniment of a government-granted license .'
p11
ss.