(dp1
S'input'
p2
(dp3
S'encoded'
p4
(lp5
I64
aI2179
aI43
aI8629
aI116
aI3
aI117
aI998
asS'ori'
p6
S'This house believes atheism is the only way'
p7
ssS'output'
p8
(dp9
g4
(lp10
I42
aI55
aI12
aI401
aI45
aI24
aI3
aI897
aI41
aI89
aI3871
aI45
aI28
aI7818
aI11745
aI63765
aI3521
aI63765
aI22158
aI81
aI122
aI1047
aI41
aI34
aI25
aI6442
aI7
aI1082
aI7824
aI7208
aI63765
asg6
S'He has been referred to in the media as "Darwin\'s Rottweiler"  a reference to English biologist T . H . Huxley  who was known as "Darwin\'s Bulldog" for his advocacy of Charles Darwin\'s evolutionary ideas .'
p11
ss.