(dp1
S'input'
p2
(dp3
S'encoded'
p4
(lp5
I64
aI2179
aI43
aI63
aI3
aI21
aI45
aI12715
aI417
aI99
aI316
aI2897
asS'ori'
p6
S'This house believes that the right to asylum should not be absolute'
p7
ssS'output'
p8
(dp9
g4
(lp10
I311
aI37588
aI14
aI2116
aI3
aI3842
aI122
aI8602
aI816
aI14
aI100
aI78
aI41
aI2453
aI8430
aI31246
aI311
aI41672
aI382
aI9357
aI5
aI5545
aI4259
aI5087
aI63765
asg6
S'At midnight on 30 June 1962 the door was literally closed on some people as newly labelled entrances at Heathrow were uncovered and old ones shut .'
p11
ss.