(dp1
S'input'
p2
(dp3
S'encoded'
p4
(lp5
I64
aI2179
aI43
aI63
aI134
aI116
aI400
aI21
aI34
aI3
aI260
aI45
aI3439
aI57
aI7
aI2381
asS'ori'
p6
S'This house believes that it is sometimes right for the government to restrict freedom of speech'
p7
ssS'output'
p8
(dp9
g4
(lp10
I3
aI237
aI116
aI63
aI3
aI21
aI45
aI89
aI7993
aI73
aI7184
aI3216
aI116
aI2126
aI89
aI2445
aI21
aI344
aI24
aI15
aI3500
aI7
aI3
aI5025
aI2550
aI14
aI2445
aI5
aI2446
aI5
aI3500
aI7
aI3
aI4347
aI1077
aI16643
aI45
aI3
aI1560
aI2533
aI14
aI2445
aI63765
asg6
S"The first is that the right to a healthy or adequate environment is itself a human right (as seen in both Article 24 of the African Charter on Human and Peoples' Rights  and Article 11 of the San Salvador Protocol to the American Convention on Human Rights)  ."
p11
ss.