(dp1
S'input'
p2
(dp3
S'encoded'
p4
(lp5
I64
aI2179
aI394
aI2017
aI3807
aI314
aI3433
asS'ori'
p6
S'This house would ban partial birth abortions'
p7
ssS'output'
p8
(dp9
g4
(lp10
I604
aI3182
aI7
aI3433
aI116
aI99
aI3990
aI9067
aI182
aI7
aI3397
aI10551
aI63765
asg6
S'Because reporting of abortions is not mandatory  statistics are of varying reliability .'
p11
ss.