(dp1
S'input'
p2
(dp3
S'encoded'
p4
(lp5
I64
aI2179
aI394
aI2017
aI262
asS'ori'
p6
S'This house would ban boxing'
p7
ssS'output'
p8
(dp9
g4
(lp10
I233
aI45
aI3
aI1045
aI4462
aI443
aI8875
aI2009
aI960
aI985
aI24
aI134
aI116
aI89
aI4795
aI10
aI1999
aI63
aI6033
aI182
aI1404
aI622
aI75
aI1788
aI31052
aI2438
aI24
aI19653
aI1708
aI238
aI34
aI1343
aI311
aI271
aI10560
aI25281
aI5
aI41230
aI63765
asg6
S'According to the classic definition  no structural brain damage occurs in concussion; it is a functional state  meaning that symptoms are caused primarily by temporary biochemical changes in neurons  taking place for example at their cell membranes and synapses  .'
p11
ss.