(dp1
S'input'
p2
(dp3
S'encoded'
p4
(lp5
I64
aI2179
aI43
aI63
aI187
aI417
aI99
aI16642
aI3
aI6449
aI7
aI3935
asS'ori'
p6
S'This house believes that states should not subsidize the growing of tobacco'
p7
ssS'output'
p8
(dp9
g4
(lp10
I3
aI1485
aI13449
aI2198
aI19
aI211
aI237
aI4422
aI736
aI3
aI368
aI285
aI12945
aI131
aI11656
aI2126
aI24
aI77
aI24693
aI7
aI89
aI696
aI7
aI5989
aI751
aI1604
aI657
aI111
aI3
aI578
aI7
aI930
aI31036
aI63765
asg6
S'The practice encountered criticism from its first import into the Western world onwards  but embedded itself in certain strata of a number of societies before becoming widespread upon the introduction of automated cigarette-rolling apparatus  .'
p11
ss.