(dp1
S'input'
p2
(dp3
S'encoded'
p4
(lp5
I64
aI2179
aI394
aI5370
aI3
aI5286
asS'ori'
p6
S'This house would abolish the monarchy'
p7
ssS'output'
p8
(dp9
g4
(lp10
I3
aI3304
aI7
aI5292
aI24
aI51
aI2784
aI7
aI3
aI169
aI4679
aI1442
aI976
aI399
aI45
aI64
aI2804
aI63765
asg6
S'The Statute of Westminster in 1931  an act of the British Parliament  gave legal form to this declaration .'
p11
ss.