(dp1
S'input'
p2
(dp3
S'encoded'
p4
(lp5
I64
aI2179
aI394
aI2017
aI3807
aI314
aI3433
asS'ori'
p6
S'This house would ban partial birth abortions'
p7
ssS'output'
p8
(dp9
g4
(lp10
I25
aI3630
aI2248
aI3631
aI3632
aI3633
aI440
aI751
aI3634
aI3
aI2483
aI3531
aI3
aI752
aI34
aI3635
aI89
aI3636
aI910
aI45
aI3637
aI3257
aI70
aI620
aI2474
aI63765
asg6
S'" His colleague Justice Ruth Bader Ginsburg had  before joining the Court  criticized the decision for terminating a nascent movement to liberalize abortion law through legislation  .'
p11
ss.