(dp1
S'input'
p2
(dp3
S'encoded'
p4
(lp5
I64
aI2179
aI394
aI10662
aI626
aI187
aI2157
aI2697
aI19
aI2371
asS'ori'
p6
S'This house would remove United States military bases from Japan'
p7
ssS'output'
p8
(dp9
g4
(lp10
I11572
aI55719
aI11571
aI1444
aI11572
aI55720
aI6881
aI25741
aI16738
aI52835
aI4279
aI11542
aI55721
aI28514
aI981
aI803
aI37631
aI55722
aI1863
aI55714
aI55723
aI11571
aI55666
aI55724
aI16142
aI5
aI5354
aI41089
aI55725
aI202
aI16738
aI33035
aI33035
aI55726
aI3987
aI1863
aI33035
aI55727
aI202
aI16738
aI55603
aI55728
aI7711
aI803
aI11828
aI55729
aI2742
aI2721
aI2237
aI5173
aI33035
aI2237
aI33035
aI55730
aI2742
aI2721
aI5158
aI5173
aI39488
aI55623
aI55628
aI55731
aI957
aI202
aI16738
aI55732
aI55732
aI55733
aI30755
aI37558
aI2698
aI55734
aI11594
aI31028
aI7834
aI2674
aI505
aI55649
aI55735
aI6052
aI55714
aI55736
aI6052
aI2145
aI63765
aI938
aI2087
aI2138
aI55737
aI55738
aI4274
aI1051
aI55739
aI55740
aI12297
aI2152
aI55714
aI55741
aI477
aI803
aI55644
aI55742
aI4279
aI3328
aI55625
aI55743
aI3989
aI5173
aI16738
aI2318
aI3989
aI5173
aI33038
aI55744
aI202
aI16738
aI52801
aI55745
aI3989
aI37558
aI11828
aI55746
aI4279
aI3328
aI55710
aI55747
aI4279
aI3328
aI55710
aI55748
aI202
aI3644
aI53123
aI55749
aI55750
aI37558
aI55751
aI55749
aI30755
aI37558
aI10779
aI55752
aI55753
aI63765
aI202
aI2015
aI1863
aI55655
aI55754
aI63765
aI202
aI888
aI5
aI692
aI1863
aI938
aI2087
aI55673
aI55754
aI63765
aI202
aI16142
aI2904
aI2371
aI11828
aI55755
aI1863
aI11380
aI11828
aI55755
aI7129
aI37558
aI11828
aI55755
aI4502
aI2636
aI11828
aI55755
aI30755
aI37558
aI11828
aI55755
aI11643
aI37558
aI11828
aI55755
aI23379
aI666
aI11828
aI55755
aI15253
aI2855
aI37558
aI55673
aI55755
aI15253
aI5088
aI37558
aI2674
aI11828
aI55755
aI2318
aI11380
aI11828
aI55756
aI202
aI16738
aI55603
aI55757
aI4274
aI1051
aI55655
aI55758
aI10045
aI16738
aI4279
aI52801
aI11542
aI63765
asg6
S"6  Kobe  HyogoKobe Port Building  Kobe  HyogoKoza Radio Relay Annex (later  Koza Communication Site)  Okinawa  OkinawaKure Barge Landing Area  Kure  HiroshimaLincoln Center  Chiyoda  TokyoMoji Port  Kitakyushu  FukuokaNagoya Procurement (Purchasing and Contracting) Office  Nagoya  AichiNaha Army Annex (later  Naha Site)  Naha  OkinawaNaha Service Center  Naha  OkinawaNamihira Army Annex  Yomitan  OkinawaNegishi Racetrack Area  Yokohama  KanagawaOkinawa Regional Exchange Cold Storage (later  Naha Cold Storage)  Naha  OkinawaOkinawa Regional Exchange Dry Storage Warehouse (later  Makiminato Warehouse)  Urasoe  OkinawaOnna Point Army Annex (later  Onna Site)  Onna  OkinawaOppama Ordnance Depot  Yokosuka  KanagawaOta Koizumi Airfield (Patton Field Air Drop Range)  Oizumi  GunmaPalace Heights  Chiyoda  TokyoPershing Heights (Headquarters  U .S . Far East Command/United Nations Command)  Shinjuku  TokyoSakuradani Rifle Range  Chikushino  FukuokaSanno Hotel Officer's Quarter  Chiyoda  TokyoShikotsuko Training Area  Chitose  HokkaidoShinzato Communication Site  Nanjo  OkinawaSouth Ammunition Storage Annex (later  South Ammunition Storage Area)  Yaese  OkinawaSunabe Army Annex  Chatan  OkinawaTana Ammunition Depot  Yokohama  KanagawaTairagawa (Deragawa) Communication Site  Uruma  OkinawaTengan Communication Site  Uruma  OkinawaTokyo Army Hospital  Chuo  TokyoTokyo Quartermaster Depot  Minato  TokyoTokyo Ordnance Depot (later  Camp Oji)  Kita  TokyoU .S . Army Medical Center  Sagamihara  KanagawaU .S . Army Printing and Publication Center  Far East  Kawasaki  KanagawaU .S . Army Procurement Agency  Japan  Yokohama  KanagawaYokohama Center Pier (MSTS-FE)  Yokohama  KanagawaYokohama Engineering Depot  Yokohama  KanagawaYokohama Motor Command  Yokohama  KanagawaYokohama Ordnance Depot  Yokohama  KanagawaYokohama POL Depot  Yokohama  KanagawaYokohama Servicemen Club  Yokohama  KanagawaYokohama Signal Supply Depot  Kawasaki  KanagawaYokohama Signal Maintenance Depot (JLC Air Strip)  Yokohama  KanagawaYokohama South Pier  Yokohama  KanagawaYomitan Army Annex  Yomitan  OkinawaZama Rifle Range  Sagamihara  KanagawaZukeran Propagation Annex (later  Communication Site)  Chatan  Okinawa  ."
p11
ss.