(dp1
S'input'
p2
(dp3
S'encoded'
p4
(lp5
I64
aI2179
aI43
aI63
aI134
aI116
aI400
aI21
aI34
aI3
aI260
aI45
aI3439
aI57
aI7
aI2381
asS'ori'
p6
S'This house believes that it is sometimes right for the government to restrict freedom of speech'
p7
ssS'output'
p8
(dp9
g4
(lp10
I13119
aI500
aI99
aI96
aI89
aI3991
aI9422
aI5
aI57
aI7
aI2381
aI100
aI3136
aI675
aI9776
aI417
aI99
aI316
aI547
aI233
aI45
aI25
aI7208
aI63765
asg6
S'Locke did not support a universal toleration and freedom of speech  some groups  like atheists  should not be allowed according to his ideas  .'
p11
ss.