(dp1
S'input'
p2
(dp3
S'encoded'
p4
(lp5
I64
aI2179
aI394
aI5370
aI7146
aI4585
aI2446
asS'ori'
p6
S'This house would abolish intellectual property rights'
p7
ssS'output'
p8
(dp9
g4
(lp10
I3727
aI519
aI10048
aI12717
aI7
aI3
aI965
aI24831
aI75
aI14211
aI14414
aI7
aI89
aI32068
aI24831
aI263
aI3
aI4733
aI24831
aI24
aI51
aI1222
aI45
aI3960
aI658
aI703
aI45
aI12717
aI46
aI214
aI5
aI6537
aI63765
asg6
S"Activists intentionally violated EMI's copyright of The White Album by distributing MP3 files of a mashup album called The Grey Album  in an attempt to draw public attention to copyright reform issues and anti-copyright ideals ."
p11
ss.