(dp1
S'input'
p2
(dp3
S'encoded'
p4
(lp5
I64
aI2179
aI43
aI63
aI3
aI4991
aI7
aI180
aI417
aI316
aI5396
aI19
aI3
aI169
aI10
asS'ori'
p6
S'This house believes that the Church of England should be separated from the British state'
p7
ssS'output'
p8
(dp9
g4
(lp10
I107
aI134
aI3241
aI2767
aI2142
aI233
aI45
aI2488
aI976
aI4799
aI63
aI1453
aI99
aI4506
aI2767
aI3
aI2486
aI3014
aI7
aI3
aI2134
aI116
aI45
aI15508
aI2767
aI4948
aI63
aI34
aI6396
aI3
aI26366
aI7
aI773
aI89
aI2767
aI2134
aI116
aI99
aI416
aI34
aI4262
aI3
aI2134
aI1254
aI658
aI128
aI63765
asg6
S'Instead  it recognizes religious organizations  according to formal legal criteria that do not address religious doctrine:whether the sole purpose of the organization is to organize religious activities (so that  for instance  the pretense of being a religious organization is not used for tax evasion)whether the organization disrupts public order .'
p11
ss.