(dp1
S'input'
p2
(dp3
S'encoded'
p4
(lp5
I64
aI2179
aI394
aI5370
aI3
aI5286
asS'ori'
p6
S'This house would abolish the monarchy'
p7
ssS'output'
p8
(dp9
g4
(lp10
I38430
aI675
aI1147
aI18730
aI751
aI1063
aI2031
aI6263
aI41
aI3
aI117
aI258
aI7
aI2284
aI4434
aI7928
aI63765
asg6
S'Maistre  like Thomas Hobbes before him  supported absolutism as the only means of avoiding violent disorder .'
p11
ss.