(dp1
S'input'
p2
(dp3
S'encoded'
p4
(lp5
I64
aI2179
aI43
aI223
aI2138
aI11
aI89
aI21
aI45
aI2185
aI372
asS'ori'
p6
S'This house believes all nations have a right to nuclear weapons'
p7
ssS'output'
p8
(dp9
g4
(lp10
I3
aI878
aI2185
aI2136
aI7
aI3
aI626
aI187
aI122
aI93
aI7
aI41
aI3505
aI75
aI2164
aI12006
aI2365
aI63765
aI2159
aI7
aI10
aI495
aI2187
aI38468
aI92
aI263
aI34
aI7038
aI1274
aI493
aI3
aI943
aI2131
aI257
aI155
aI382
aI45
aI4665
aI323
aI917
aI7
aI755
aI134
aI122
aI89
aI1671
aI73
aI89
aI2185
aI1274
aI63765
asg6
S'The official nuclear policy of the United States was one of "massive retaliation"  as coined by President Dwight D . Eisenhower\'s Secretary of State John Foster Dulles  which called for massive attack against the Soviet Union if they were to invade Europe  regardless of whether it was a conventional or a nuclear attack .'
p11
ss.