(dp1
S'input'
p2
(dp3
S'encoded'
p4
(lp5
I64
aI2179
aI394
aI117
aI7428
aI21151
aI34
aI11389
aI2042
aI24
aI4364
asS'ori'
p6
S'This house would only teach abstinence for sex education in schools'
p7
ssS'output'
p8
(dp9
g4
(lp10
I7092
aI3943
aI63
aI59589
aI4778
aI89
aI2034
aI3661
aI5195
aI604
aI17092
aI1453
aI99
aI7817
aI63
aI3
aI5225
aI182
aI1994
aI5
aI139
aI316
aI4155
aI1612
aI63765
asg6
S'Experts say that sexting poses a serious problem  partly because teens do not understand that the images are permanent and can be spread quickly .'
p11
ss.