(dp1
S'input'
p2
(dp3
S'encoded'
p4
(lp5
I64
aI2179
aI43
aI63
aI3
aI4990
aI4991
aI116
aI4850
aI24
aI12166
aI3
aI475
aI7
aI3532
aI3290
aI7
aI4714
asS'ori'
p6
S'This house believes that the Catholic Church is justified in forbidding the use of barrier methods of contraception'
p7
ssS'output'
p8
(dp9
g4
(lp10
I18884
aI7332
aI2754
aI678
aI24
aI3
aI398
aI5
aI24
aI3
aI320
aI398
aI281
aI14810
aI382
aI221
aI24
aI6703
aI8008
aI63765
asg6
S'Rubber condoms gained popularity in the mid-19th century  and in the early 20th century major advances were made in manufacturing techniques .'
p11
ss.