(dp1
S'input'
p2
(dp3
S'encoded'
p4
(lp5
I64
aI2179
aI394
aI2017
aI223
aI9058
aI23653
asS'ori'
p6
S'This house would ban all unsustainable logging'
p7
ssS'output'
p8
(dp9
g4
(lp10
I257
aI132
aI3237
aI182
aI3589
aI6841
aI64
aI139
aI316
aI7997
aI34
aI15
aI18061
aI5
aI3
aI713
aI29552
aI5
aI23603
aI63765
asg6
S'If these practices are performed appropriately this can be beneficial for both locals and the present flora and fauna .'
p11
ss.