(dp1
S'input'
p2
(dp3
S'encoded'
p4
(lp5
I64
aI2179
aI43
aI63
aI3
aI4990
aI4991
aI116
aI4850
aI24
aI12166
aI3
aI475
aI7
aI3532
aI3290
aI7
aI4714
asS'ori'
p6
S'This house believes that the Catholic Church is justified in forbidding the use of barrier methods of contraception'
p7
ssS'output'
p8
(dp9
g4
(lp10
I3
aI3833
aI42
aI742
aI47
aI1817
aI32386
aI828
aI805
aI24
aI24
aI805
aI1198
aI4197
aI4576
aI4884
aI3862
aI3503
aI828
aI3984
aI4197
aI316
aI34
aI828
aI13746
aI5
aI42
aI4197
aI306
aI289
aI1198
asg6
S'(Gen 2:21-25)"To the woman he said  \'I will greatly multiply your pain in childbearing; in pain you shall bring forth children  yet your desire shall be for your husband  and he shall rule over you .\'"'
p11
ss.