(dp1
S'input'
p2
(dp3
S'encoded'
p4
(lp5
I64
aI2179
aI43
aI63
aI134
aI116
aI400
aI21
aI34
aI3
aI260
aI45
aI3439
aI57
aI7
aI2381
asS'ori'
p6
S'This house believes that it is sometimes right for the government to restrict freedom of speech'
p7
ssS'output'
p8
(dp9
g4
(lp10
I89
aI1360
aI4253
aI33
aI7
aI23482
aI3326
aI25590
aI458
aI24
aI298
aI3
aI32968
aI7985
aI1863
aI244
aI45
aI1781
aI51
aI348
aI342
aI2125
aI3
aI79
aI7
aI32459
aI2204
aI32969
aI63765
asg6
S'A widely publicized case of prosecuting alleged obscenity occurred in 1990  when the Cincinnati arts center agreed to hold an art show featuring the work of photographer Robert Mapplethorpe .'
p11
ss.