(dp1
S'input'
p2
(dp3
S'encoded'
p4
(lp5
I64
aI2179
aI43
aI63
aI3
aI4538
aI7
aI4434
aI7793
aI283
aI45
aI3586
aI417
aI316
aI577
asS'ori'
p6
S'This house believes that the sale of violent video games to minors should be banned'
p7
ssS'output'
p8
(dp9
g4
(lp10
I24
aI3
aI3342
aI2132
aI34
aI4044
aI63765
aI1119
aI2500
aI3581
aI10358
aI63
aI5333
aI3586
aI19
aI9147
aI15942
aI73
aI5600
aI4434
aI7793
aI283
aI300
aI45
aI11698
aI351
aI14322
aI8216
aI73
aI11649
aI7
aI4886
aI806
aI45
aI89
aI2445
aI73
aI89
aI63
aI4513
aI45
aI376
aI24
aI2617
aI64
aI10358
aI122
aI3761
aI24
aI75
aI3
aI5216
aI7148
aI8732
aI2016
aI41
aI4191
aI7
aI57
aI7
aI4640
aI41
aI9161
aI75
aI3
aI237
aI3264
aI63765
aI3
aI56974
aI4673
aI3
aI3855
aI33
aI7
aI1560
aI29543
aI4448
aI2016
aI646
aI63765
aI37880
aI41
aI3846
aI3526
aI63
aI7793
aI319
aI7151
aI122
aI89
aI399
aI7
aI57
aI7
aI4640
asg6
S'In 2000  the County Council for St . Louis  Missouri enacted Ordinance 20 193 that barred minors from purchasing  renting  or playing violent video games deemed to contain any visual depiction or representation of realistic injury to a human or a "human-like being" that appealed to minors\' "morbid interest in violence ." This ordinance was challenged in 2001 by the Interactive Digital Software Association (IDSA) as violative of freedom of expression as guaranteed by the first amendment . The IDSA cited the 7th Circuit case of American Amusement Machine Association v . Kendrick as precedent suggesting that video game content was a form of freedom of expression'
p11
ss.