(dp1
S'input'
p2
(dp3
S'encoded'
p4
(lp5
I64
aI2179
aI394
aI2017
aI628
asS'ori'
p6
S'This house would ban gambling'
p7
ssS'output'
p8
(dp9
g4
(lp10
I3
aI8738
aI2696
aI6335
aI3
aI3401
aI2528
aI131
aI3368
aI760
aI6044
aI16862
aI63
aI15904
aI2528
aI24
aI2959
aI63765
asg6
S"The Caribbean country won the preliminary ruling but WTO's appeals body somewhat narrowed that favorable ruling in April 2005 ."
p11
ss.