(dp1
S'input'
p2
(dp3
S'encoded'
p4
(lp5
I64
aI2179
aI394
aI2017
aI223
aI9058
aI23653
asS'ori'
p6
S'This house would ban all unsustainable logging'
p7
ssS'output'
p8
(dp9
g4
(lp10
I89
aI1950
aI7622
aI7
aI7831
aI458
aI395
aI60
aI1565
aI5346
aI63765
asg6
S'A second wave of extinctions occurred later with European settlement .'
p11
ss.