(dp1
S'input'
p2
(dp3
S'encoded'
p4
(lp5
I64
aI2179
aI394
aI4325
aI2042
aI270
aI89
aI11605
aI3324
asS'ori'
p6
S'This house would fund education using a voucher scheme'
p7
ssS'output'
p8
(dp9
g4
(lp10
I4406
aI351
aI70
aI3584
aI4294
aI7
aI73
aI3756
aI3
aI3930
aI4536
aI73
aI1649
aI73
aI4538
aI7
aI3892
aI73
aI3989
aI45
aI2144
aI63765
asg6
S'"I oppose any law requiring registration of  or restricting the ownership  manufacture  or transfer or sale of firearms or ammunition to law-abiding citizens .'
p11
ss.