(dp1
S'input'
p2
(dp3
S'encoded'
p4
(lp5
I64
aI2179
aI394
aI5370
aI7146
aI4585
aI2446
asS'ori'
p6
S'This house would abolish intellectual property rights'
p7
ssS'output'
p8
(dp9
g4
(lp10
I717
aI14
aI3
aI2198
aI7
aI7156
aI41
aI18042
aI5343
aI60
aI1260
aI2258
aI3
aI3140
aI5639
aI7156
aI24
aI685
aI86
aI24
aI5
aI500
aI99
aI5284
aI86
aI487
aI63765
asg6
S'Based on the criticism of patents as state-granted monopolies inconsistent with free trade  the Netherlands abolished patents in 1869 (having established them in 1817)  and did not reintroduce them until 1912  .'
p11
ss.