(dp1
S'input'
p2
(dp3
S'encoded'
p4
(lp5
I64
aI2179
aI394
aI2017
aI223
aI9058
aI23653
asS'ori'
p6
S'This house would ban all unsustainable logging'
p7
ssS'output'
p8
(dp9
g4
(lp10
I132
aI5218
aI1715
aI3
aI532
aI7
aI36934
aI534
aI45
aI5089
aI3
aI960
aI1404
aI75
aI78
aI63765
asg6
S'These maps mark the amount of afforestation required to repair the damage caused by people .'
p11
ss.