(dp1
S'input'
p2
(dp3
S'encoded'
p4
(lp5
I64
aI2179
aI43
aI63
aI3
aI21
aI45
aI12715
aI417
aI99
aI316
aI2897
asS'ori'
p6
S'This house believes that the right to asylum should not be absolute'
p7
ssS'output'
p8
(dp9
g4
(lp10
I113
aI114
aI3
aI190
aI139
aI316
aI13509
aI3500
aI187
aI63
aI89
aI2521
aI139
aI2830
aI41
aI3
aI2259
aI34
aI10046
aI7
aI89
aI3669
aI9404
aI7
aI51
aI103
aI63765
asg6
S"Even though the 24-hour limit can be relaxed  Article 5 .1(7) states that a violation can serve as the basis for denial of a substantive evaluation of an applicant's claim ."
p11
ss.