(dp1
S'input'
p2
(dp3
S'encoded'
p4
(lp5
I64
aI2179
aI43
aI63
aI134
aI116
aI400
aI21
aI34
aI3
aI260
aI45
aI3439
aI57
aI7
aI2381
asS'ori'
p6
S'This house believes that it is sometimes right for the government to restrict freedom of speech'
p7
ssS'output'
p8
(dp9
g4
(lp10
I311
aI3
aI19018
aI7
aI2441
aI45
aI3
aI4674
aI122
aI5606
aI11486
aI32910
aI564
aI4037
aI10048
aI3
aI4674
aI980
aI24
aI3
aI63765
asg6
S'At the forefront of challenges to the code was director Otto Preminger  whose films violated the code repeatedly in the 1950s .'
p11
ss.