(dp1
S'input'
p2
(dp3
S'encoded'
p4
(lp5
I64
aI2179
aI394
aI5370
aI3
aI5286
asS'ori'
p6
S'This house would abolish the monarchy'
p7
ssS'output'
p8
(dp9
g4
(lp10
I6660
aI5273
aI736
aI880
aI5052
aI41
aI93
aI7
aI3
aI869
aI6569
aI6662
aI7
aI3
aI2696
aI116
aI2990
aI45
aI1781
aI3
aI1597
aI7
aI6663
aI6664
aI6665
aI6663
aI6664
aI6666
aI73
aI7
aI3
aI63765
asg6
S'Samoa falls into neither class  as one of the Four Paramount Chiefs of the country is elected to hold the position of O le Ao o le Malo  or "Chieftain of the Government" .'
p11
ss.