(dp1
S'input'
p2
(dp3
S'encoded'
p4
(lp5
I64
aI2179
aI43
aI63
aI3357
aI5003
aI652
aI3
aI188
aI3262
asS'ori'
p6
S'This house believes that opinion polls harm the democratic process'
p7
ssS'output'
p8
(dp9
g4
(lp10
I19
aI3
aI727
aI134
aI122
aI174
aI353
aI63
aI298
aI3
aI12233
aI122
aI4666
aI45
aI750
aI903
aI2359
aI5
aI1622
aI2359
aI382
aI136
aI1856
aI45
aI2490
aI34
aI3
aI188
aI10484
aI5
aI4315
aI63765
asg6
S'From the results  it was also found that when the Democrat was expected to win  independent Republicans and weak Republicans were more likely to vote for the Democratic candidate (Goidel and Shields 808) .'
p11
ss.