(dp1
S'input'
p2
(dp3
S'encoded'
p4
(lp5
I64
aI2179
aI394
aI2017
aI3807
aI314
aI3433
asS'ori'
p6
S'This house would ban partial birth abortions'
p7
ssS'output'
p8
(dp9
g4
(lp10
I1460
aI45
aI3
aI3289
aI7
aI3257
aI122
aI297
aI75
aI3
aI134
aI122
aI1968
aI24
aI187
aI5
aI976
aI459
aI77
aI3052
aI24
aI187
aI63765
asg6
S'Prior to "Roe"  the legality of abortion was decided by the states; it was illegal in 30 states and legal under certain cases in 20 states .'
p11
ss.