(dp1
S'input'
p2
(dp3
S'encoded'
p4
(lp5
I64
aI2179
aI43
aI63
aI6670
aI546
aI417
aI316
aI89
aI1334
aI3108
aI7
aI4849
aI1886
aI2855
asS'ori'
p6
S'This house believes that wind power should be a primary focus of future energy supply'
p7
ssS'output'
p8
(dp9
g4
(lp10
I574
aI10
aI2326
aI83
aI16553
aI3554
aI249
aI5
aI504
aI1760
aI34
aI1413
aI5
aI1495
aI2635
aI63765
asg6
S'Each state program must allocate preservation measures and permitted uses for land and water resources  .'
p11
ss.