(dp1
S'input'
p2
(dp3
S'encoded'
p4
(lp5
I64
aI2179
aI394
aI2017
aI262
asS'ori'
p6
S'This house would ban boxing'
p7
ssS'output'
p8
(dp9
g4
(lp10
I620
aI3
aI481
aI621
aI398
aI262
aI73
aI402
aI122
aI622
aI89
aI266
aI7
aI623
aI624
aI63765
asg6
S'Through the late nineteenth century  boxing or prizefighting was primarily a sport of dubious legitimacy .'
p11
ss.