(dp1
S'input'
p2
(dp3
S'encoded'
p4
(lp5
I64
aI2179
aI43
aI223
aI2138
aI11
aI89
aI21
aI45
aI2185
aI372
asS'ori'
p6
S'This house believes all nations have a right to nuclear weapons'
p7
ssS'output'
p8
(dp9
g4
(lp10
I24
aI3
aI878
aI2804
aI8771
aI45
aI33669
aI5756
aI260
aI1401
aI63
aI134
aI440
aI104
aI13697
aI2880
aI24
aI131
aI63
aI14903
aI3
aI20031
aI2326
aI5
aI3158
aI3
aI13642
aI7
aI5123
aI372
aI366
aI3
aI312
aI7
aI2223
aI60
aI2669
aI63765
asg6
S'In the official declaration submitted to OPCW Iranian government admitted that it had produced mustard gas in 1980s but that ceased the offensive program and destroyed the stockpiles of operational weapons after the end of war with Iraq  .'
p11
ss.