(dp1
S'input'
p2
(dp3
S'encoded'
p4
(lp5
I64
aI2179
aI394
aI163
aI959
aI2042
aI3557
asS'ori'
p6
S'This house would make physical education compulsory'
p7
ssS'output'
p8
(dp9
g4
(lp10
I2240
aI5460
aI2741
aI5380
aI5
aI2518
aI2240
aI442
aI9041
aI3
aI2154
aI5
aI790
aI14
aI5650
aI5
aI12073
aI7
aI705
aI63765
asg6
S"School meetings pass  amend  and repeal school rules  manage the school's budget  and decide on hiring and firing of staff ."
p11
ss.