(dp1
S'input'
p2
(dp3
S'encoded'
p4
(lp5
I64
aI2179
aI43
aI63
aI323
aI417
aI10009
aI211
aI9035
aI249
aI45
aI3426
aI211
aI2144
aI595
aI17
aI96
asS'ori'
p6
S'This house believes that Europe should weaken its austerity measures to guarantee its citizens greater social support'
p7
ssS'output'
p8
(dp9
g4
(lp10
I6025
aI1024
aI19
aI10
aI7935
aI75
aI7
aI92
aI4197
aI316
aI1024
aI75
aI3
aI312
aI7
aI63765
asg6
S'150 000 jobs cut from state sector by 2015  of which 15 000 shall be cut by the end of 2012 .'
p11
ss.