(dp1
S'input'
p2
(dp3
S'encoded'
p4
(lp5
I64
aI2179
aI394
aI5370
aI3
aI5286
asS'ori'
p6
S'This house would abolish the monarchy'
p7
ssS'output'
p8
(dp9
g4
(lp10
I3
aI5301
aI948
aI41
aI89
aI6405
aI5362
aI3997
aI7
aI150
aI6218
aI5
aI10
aI6461
asg6
S'The monarch serves as a ceremonial figurehead symbol of national unity and state continuity'
p11
ss.