(dp1
S'input'
p2
(dp3
S'encoded'
p4
(lp5
I64
aI2179
aI43
aI63
aI3376
aI4938
aI417
aI316
aI3537
asS'ori'
p6
S'This house believes that endangered species should be protected'
p7
ssS'output'
p8
(dp9
g4
(lp10
I324
aI3
aI7798
aI7
aI7867
aI397
aI3
aI33730
aI23577
aI2796
aI2639
aI2439
aI4500
aI63765
asg6
S'Particularly  the extinction of amphibians during the Carboniferous Rainforest Collapse  350 million years ago  .'
p11
ss.