(dp1
S'input'
p2
(dp3
S'encoded'
p4
(lp5
I64
aI2179
aI394
aI5370
aI3
aI5286
asS'ori'
p6
S'This house would abolish the monarchy'
p7
ssS'output'
p8
(dp9
g4
(lp10
I233
aI45
aI2985
aI3
aI2921
aI5
aI5574
aI7
aI3
aI2533
aI116
aI350
aI7
aI51
aI1222
aI75
aI495
aI5424
aI45
aI5575
aI3
aI4408
aI521
aI63765
asg6
S'According to critics  the two-week timeline and quasi-democratic composition of the convention is evidence of an attempt by John Howard to frustrate the republican cause .'
p11
ss.