(dp1
S'input'
p2
(dp3
S'encoded'
p4
(lp5
I64
aI2179
aI394
aI2773
aI12505
asS'ori'
p6
S'This house would embrace multiculturalism'
p7
ssS'output'
p8
(dp9
g4
(lp10
I3
aI2497
aI2768
aI55
aI322
aI45
aI1074
aI8257
aI8813
aI14
aI14478
aI3905
aI5
aI3
aI57204
aI7
aI546
aI3665
aI5
aI4279
aI223
aI7
aI92
aI88
aI7747
aI45
aI2768
aI5597
aI73
aI5500
aI1770
aI86
aI63765
asg6
S'The term diversity has evolved to include concepts focusing on organizational culture and the intersections of power  structure  and communication all of which may contribute to diversity initiatives or potentially impede them .'
p11
ss.