(dp1
S'input'
p2
(dp3
S'encoded'
p4
(lp5
I64
aI2179
aI43
aI63
aI7382
aI116
aI400
aI4713
asS'ori'
p6
S'This house believes that bribery is sometimes acceptable'
p7
ssS'output'
p8
(dp9
g4
(lp10
I311
aI3
aI1643
aI413
aI725
aI7330
aI2083
aI5726
aI11
aI1567
aI271
aI778
aI736
aI11934
aI7643
aI187
aI53
aI155
aI43665
aI60
aI3135
aI6543
aI5
aI43666
aI23374
aI24
aI1968
aI4948
aI63765
asg6
S'At the same time  many corrupt local officials have turned their jurisdictions into virtual mafia states  where they collude with criminal elements and unsavory businessmen in illegal activities  .'
p11
ss.