(dp1
S'input'
p2
(dp3
S'encoded'
p4
(lp5
I64
aI2179
aI43
aI63
aI3357
aI5003
aI652
aI3
aI188
aI3262
asS'ori'
p6
S'This house believes that opinion polls harm the democratic process'
p7
ssS'output'
p8
(dp9
g4
(lp10
I1950
aI89
aI325
aI250
aI7
aI18818
aI673
aI116
aI21063
aI620
aI26241
aI21072
aI159
aI41
aI1532
aI1610
aI5
aI24453
aI131
aI4279
aI693
aI26242
aI725
aI7
aI132
aI21072
aI63765
asg6
S'Second  a great deal of normative influence is communicated through nonverbal cues  such as eye contact and gestures  but computer-mediated communication typically precludes many of these cues .'
p11
ss.