(dp1
S'input'
p2
(dp3
S'encoded'
p4
(lp5
I64
aI2179
aI394
aI15841
aI2736
asS'ori'
p6
S'This house would disband ASEAN'
p7
ssS'output'
p8
(dp9
g4
(lp10
I3411
aI11152
aI116
aI89
aI10451
aI11152
aI575
aI45
aI2769
aI2646
aI25598
aI5
aI1367
aI7504
aI691
aI63765
asg6
S'Write Award is a literary award given to Southeast Asian poets and writers annually since 1979 .'
p11
ss.