(dp1
S'input'
p2
(dp3
S'encoded'
p4
(lp5
I64
aI2179
aI43
aI63
aI2157
aI2565
aI493
aI19084
aI382
aI4850
asS'ori'
p6
S"This house believes that Israel's 2008-2009 military operations against Gaza were justified"
p7
ssS'output'
p8
(dp9
g4
(lp10
I3
aI2445
aI2446
aI2132
aI6021
aI89
aI290
aI7
aI2718
aI2962
aI1653
aI45
aI11807
aI3
aI2445
aI2446
aI1780
aI24
aI3
aI6521
aI19088
aI5555
aI1592
aI2157
aI3099
aI63765
aI3
aI237
aI7
aI3
aI2962
aI122
aI1629
aI45
aI316
aI1340
aI45
aI3
aI2132
aI24
aI2555
aI63765
aI3
aI905
aI10951
aI75
aI2800
aI177
aI9579
aI34
aI2445
aI2446
aI19107
aI19108
aI20774
aI63
aI3
aI6056
aI5685
aI972
aI19362
aI2511
aI7
aI2218
aI2513
aI75
aI1889
aI20370
aI3180
aI24
aI311
aI870
aI1237
aI4122
aI75
aI8069
aI2224
aI5
aI3537
aI4678
aI75
aI7521
aI1445
aI696
aI7
aI6766
aI75
aI11388
aI45
aI124
aI14600
aI1112
aI1712
aI45
aI3180
aI311
aI2038
aI5
aI75
aI11388
aI45
aI2976
aI442
aI7
aI282
aI2893
aI70
aI2230
aI2157
aI3056
asg6
S"The Human Rights Council ordered a series of periodic reports aimed to assess the human rights situation in the occupied Palestinian Territories (OPT) following Israel's military operation . The first of the reports was set to be presented to the Council in September 2009  . The report  compiled by UN High Commissioner for Human Rights Navi Pillay  alleges that the Israeli Defence Force breached laws of armed conflict by attacking indiscriminately civilians in at least several incidents  by targeting civilian and protected facilities  by damaging large number of buildings  by failing to provide unquestionably effective warning to civilians at risk and by failing to implement rules of international humanitarian law regarding military occupation"
p11
ss.