(dp1
S'input'
p2
(dp3
S'encoded'
p4
(lp5
I64
aI2179
aI235
aI3
aI2136
aI7
aI3
aI2306
aI7
aI2390
asS'ori'
p6
S'This house supports the one-child policy of the republic of China'
p7
ssS'output'
p8
(dp9
g4
(lp10
I411
aI48661
aI89
aI8533
aI81
aI48662
aI3
aI94
aI24
aI3
aI2014
aI31581
aI3905
aI2022
aI4246
aI63
aI3
aI2378
aI7
aI48654
aI116
aI63
aI4818
aI417
aI991
aI5
aI63
aI100
aI78
aI358
aI777
aI2789
aI7
aI3
aI94
aI131
aI1453
aI99
aI2909
aI96
aI2445
aI7798
aI63765
asg6
S'James Ormrod  a psychologist who profiled the group in the journal Psychoanalysis  Culture & Society  notes that the "most fundamental belief" of VHEMT is that "human beings should stop reproducing"  and that some people consider themselves members of the group but do not actually support human extinction .'
p11
ss.