(dp1
S'input'
p2
(dp3
S'encoded'
p4
(lp5
I64
aI2179
aI394
aI2017
aI262
asS'ori'
p6
S'This house would ban boxing'
p7
ssS'output'
p8
(dp9
g4
(lp10
I132
aI384
aI826
aI1486
aI139
aI316
aI4341
aI45
aI399
aI675
aI89
aI1053
aI5
aI1633
aI54856
aI63765
asg6
S"These different punching types can be combined to form 'combos'  like a jab and cross combo ."
p11
ss.