(dp1
S'input'
p2
(dp3
S'encoded'
p4
(lp5
I64
aI2179
aI394
aI4261
aI8667
aI3
aI9361
aI5
aI17069
asS'ori'
p6
S'This house would prohibit burning the stars and stripes'
p7
ssS'output'
p8
(dp9
g4
(lp10
I3343
aI557
aI63
aI2381
aI116
aI3537
aI75
aI3
aI237
aI8667
aI89
aI5262
aI7733
aI116
aI89
aI217
aI5495
aI399
aI7
aI4279
aI5
aI273
aI116
aI89
aI2477
aI21
aI45
aI163
aI2381
aI41
aI1112
aI41
aI748
aI63765
asg6
S'Miller\'s attorney held that "symbolic speech is protected by the First Amendment; burning a draft card is a most dramatic form of communication  and there is a constitutional right to make one\'s speech as effective as possible .'
p11
ss.