(dp1
S'input'
p2
(dp3
S'encoded'
p4
(lp5
I64
aI2179
aI394
aI5370
aI3
aI5286
asS'ori'
p6
S'This house would abolish the monarchy'
p7
ssS'output'
p8
(dp9
g4
(lp10
I291
aI5
aI2596
aI248
aI3130
aI169
aI2624
aI13053
aI2776
aI41
aI6509
aI223
aI158
aI2547
aI24
aI89
aI3446
aI2131
aI1362
aI459
aI89
aI2622
aI5301
aI63765
asg6
S'Between 1931 and 1983 nine other previous British colonies attained independence as kingdoms  all  including Canada  in a personal union relationship under a shared monarch .'
p11
ss.