(dp1
S'input'
p2
(dp3
S'encoded'
p4
(lp5
I64
aI2179
aI43
aI63
aI6670
aI546
aI417
aI316
aI89
aI1334
aI3108
aI7
aI4849
aI1886
aI2855
asS'ori'
p6
S'This house believes that wind power should be a primary focus of future energy supply'
p7
ssS'output'
p8
(dp9
g4
(lp10
I217
aI2881
aI2643
aI116
aI2590
aI75
aI8667
aI6674
aI6715
aI5
aI6713
aI5126
aI92
aI116
aI768
aI416
aI45
aI6729
aI89
aI5126
aI5105
aI63
aI24
aI4031
aI7493
aI51
aI5120
aI6725
aI63765
asg6
S'Most electricity today is generated by burning fossil fuels and producing steam which is then used to drive a steam turbine that  in turn  drives an electrical generator .'
p11
ss.