(dp1
S'input'
p2
(dp3
S'encoded'
p4
(lp5
I64
aI2179
aI394
aI2773
aI12505
asS'ori'
p6
S'This house would embrace multiculturalism'
p7
ssS'output'
p8
(dp9
g4
(lp10
I14
aI1200
aI7
aI134
aI459
aI64
aI2533
aI3
aI2884
aI5
aI2390
aI11
aI860
aI45
aI14606
aI136
aI1562
aI2637
aI8399
aI2798
aI282
aI2568
aI5
aI8326
aI60
aI2190
aI5
aI2258
aI7631
aI24
aI2637
aI5
aI16251
aI5945
aI63765
asg6
S'On top of it  under this Convention  the EU and China have committed to fostering more balanced cultural exchanges  strengthening international cooperation and solidarity with business and trade opportunities in cultural and creative industries .'
p11
ss.