(dp1
S'input'
p2
(dp3
S'encoded'
p4
(lp5
I64
aI2179
aI394
aI190
aI3
aI21
aI45
aI3895
aI834
asS'ori'
p6
S'This house would limit the right to bear arms'
p7
ssS'output'
p8
(dp9
g4
(lp10
I626
aI187
aI646
aI63765
aI2058
aI14
aI2779
aI3
aI4649
aI3855
aI2484
aI41
aI2477
aI3
aI4042
aI7
aI4539
aI7
aI89
aI4187
aI1942
aI252
aI89
aI3830
aI63765
asg6
S'United States v . Hall  - On August 4  2008  the Fourth Circuit upheld as constitutional the prohibition of possession of a concealed weapon without a permit  .'
p11
ss.