(dp1
S'input'
p2
(dp3
S'encoded'
p4
(lp5
I64
aI2179
aI43
aI63
aI3
aI4538
aI7
aI4434
aI7793
aI283
aI45
aI3586
aI417
aI316
aI577
asS'ori'
p6
S'This house believes that the sale of violent video games to minors should be banned'
p7
ssS'output'
p8
(dp9
g4
(lp10
I3
aI7150
aI2729
aI89
aI2498
aI7
aI238
aI5
aI2178
aI24
aI3
aI667
aI20355
aI7
aI3
aI7150
aI63765
asg6
S'The Web offers a sense of place and community in the new wired "spaces" of the web .'
p11
ss.