(dp1
S'input'
p2
(dp3
S'encoded'
p4
(lp5
I64
aI2179
aI43
aI8629
aI116
aI3
aI117
aI998
asS'ori'
p6
S'This house believes atheism is the only way'
p7
ssS'output'
p8
(dp9
g4
(lp10
I2369
aI14530
aI263
aI73
aI234
aI63
aI3
aI2802
aI7
aI3
aI3524
aI73
aI21977
aI7
aI89
aI6527
aI73
aI6530
aI5
aI3
aI580
aI7
aI2165
aI6260
aI116
aI21974
aI75
aI1025
aI7
aI3218
aI35
aI5374
aI45
aI17701
aI351
aI952
aI60
aI7094
aI131
aI97
aI722
aI952
aI63765
asg6
S'Strong agnosticism (also called "hard " "closed " "strict " or "permanent agnosticism")The view that the question of the existence or nonexistence of a deity or deities  and the nature of ultimate reality is unknowable by reason of our natural inability to verify any experience with anything but another subjective experience .'
p11
ss.