(dp1
S'input'
p2
(dp3
S'encoded'
p4
(lp5
I64
aI2179
aI43
aI63
aI187
aI417
aI99
aI16642
aI3
aI6449
aI7
aI3935
asS'ori'
p6
S'This house believes that states should not subsidize the growing of tobacco'
p7
ssS'output'
p8
(dp9
g4
(lp10
I217
aI7
aI3
aI12861
aI174
aI7116
aI89
aI27365
aI5
aI10867
aI1189
aI7
aI3495
aI63
aI394
aI3361
aI45
aI3
aI8
aI3833
aI7
aI3
aI63765
asg6
S'Most of the ads also conveyed a carefree and confident image of women that would appeal to the modern woman of the 1920s .'
p11
ss.