(dp1
S'input'
p2
(dp3
S'encoded'
p4
(lp5
I64
aI2179
aI394
aI2741
aI3
aI1560
aI6025
aI2784
asS'ori'
p6
S'This house would pass the American Jobs Act'
p7
ssS'output'
p8
(dp9
g4
(lp10
I2155
aI45
aI3
aI2176
aI7
aI160
aI5
aI3926
aI2891
aI34
aI19147
aI5
aI8726
aI658
aI160
aI158
aI1879
aI3
aI1886
aI4510
aI7
aI2693
aI63765
asg6
S'Total: $14 .7 billion$4 billion to the Department of Housing and Urban Development (HUD) for repairing and modernizing public housing  including increasing the energy efficiency of units .'
p11
ss.