(dp1
S'input'
p2
(dp3
S'encoded'
p4
(lp5
I64
aI2179
aI43
aI24
aI3
aI475
aI7
aI12436
aI3364
asS'ori'
p6
S'This house believes in the use of affirmative action'
p7
ssS'output'
p8
(dp9
g4
(lp10
I1216
aI50292
aI3399
aI34
aI3
aI2548
aI10649
aI244
aI60
aI3384
aI63
aI12436
aI3364
aI55
aI7861
aI938
aI3515
aI61
aI3
aI3202
aI2446
aI2784
aI7
aI1881
aI5
aI63
aI12174
aI127
aI34
aI2812
aI3136
aI252
aI1420
aI4922
aI24
aI3
aI626
aI187
aI182
aI4952
aI131
aI3531
aI2016
aI7
aI12436
aI3364
aI60
aI9163
aI24
aI3
aI2203
aI3473
aI34
aI3
aI2035
aI5
aI6833
aI864
aI3
aI626
aI187
aI55
aI1301
aI4544
aI3
aI10250
aI12179
aI2938
aI7
aI120
aI2135
aI2203
aI63765
asg6
S"Michael Berube  writing for The Nation magazine  agreed with Sowell's arguments that affirmative action has gone far beyond what the Civil Rights Act of 1965 intended and that preferential benefits for ethnic groups without historical oppression in the United States are unjustified but criticized Sowell's association of affirmative action with unrest in the countries selected for the study and pointed out the United States has never implemented the racial preference systems of those foreign countries  ."
p11
ss.