(dp1
S'input'
p2
(dp3
S'encoded'
p4
(lp5
I64
aI2179
aI394
aI5370
aI3
aI5286
asS'ori'
p6
S'This house would abolish the monarchy'
p7
ssS'output'
p8
(dp9
g4
(lp10
I34
aI1343
aI5812
aI2236
aI325
aI7
aI5823
aI122
aI22151
aI24
aI3
aI7208
aI7
aI3
aI4169
aI6480
aI24
aI25
aI9184
aI5
aI383
aI120
aI7208
aI24
aI25
aI3249
aI3269
aI41
aI51
aI3822
aI131
aI24
aI725
aI3708
aI122
aI121
aI73
aI3434
aI45
aI1466
aI6478
aI3157
aI24
aI1485
aI63765
asg6
S'For example  Frederick II  "The Great " of Prussia was tutored in the ideas of the French Enlightenment in his youth  and maintained those ideas in his private life as an adult  but in many ways was unable or unwilling to affect enlightened reforms in practice  .'
p11
ss.