(dp1
S'input'
p2
(dp3
S'encoded'
p4
(lp5
I64
aI2179
aI43
aI63
aI1036
aI4828
aI33250
aI116
aI25073
aI45
aI3315
aI4562
asS'ori'
p6
S'This house believes that male infant circumcision is tantamount to child abuse'
p7
ssS'output'
p8
(dp9
g4
(lp10
I34909
aI116
aI3
aI7
aI3
aI1592
aI2682
aI63765
aI36978
aI17603
aI63541
aI34909
aI34093
aI8803
aI89
aI2445
aI11098
aI63551
aI2961
aI20558
aI1206
aI2682
aI63765
aI36978
aI5812
aI24069
aI34790
aI17603
aI63541
aI34909
aI34093
aI1036
aI5
aI4015
aI2015
aI976
aI5
aI4707
aI5980
aI24
aI34907
aI1485
aI63552
aI5018
aI63551
aI20558
aI1206
aI2682
aI63765
aI36978
aI5812
aI24069
aI34790
aI17603
aI63541
aI34909
aI34093
aI1462
aI89
aI1039
aI45
aI89
aI3661
aI63552
aI5018
aI63551
aI20558
aI1206
aI2682
aI63765
aI36978
aI5812
aI24069
aI34790
aI17603
aI63541
aI34909
aI34093
aI19215
aI5
aI7067
aI14
aI3
aI3661
aI7
aI33250
aI24
aI3950
aI2022
aI63552
aI5018
aI63551
aI20558
aI1206
aI2682
aI63765
aI36978
aI43877
aI63553
aI63554
aI5812
aI24069
aI34790
aI17603
aI63541
aI34909
aI6501
aI63555
aI34093
aI63765
aI651
aI4657
aI5
aI3
aI3296
aI7
aI3905
aI4573
aI5
aI1546
aI20036
aI3707
aI20558
aI1206
aI2682
aI63765
aI36978
aI5812
aI24069
aI34790
aI17603
aI63541
aI34909
aI34093
aI33250
aI5
aI2445
aI2446
aI20036
aI20558
aI1206
aI2682
aI63765
aI36978
aI5812
aI24069
aI34790
aI17603
aI63541
aI34909
aI34093
aI33298
aI1771
aI3446
aI4662
aI20036
aI3707
aI20558
aI63765
asg6
S'Milos is the co-editor of the following books:George C . Denniston  Marilyn Fayre Milos  eds  Sexual Mutilations: A Human Tragedy (New York: Plenum Press  1997)  ISBN 0-306-45589-7 George C . Denniston  Frederick Mansfield Hodges  Marilyn Fayre Milos  eds  Male and Female Circumcision: Medical  Legal  and Ethical Considerations in Pediatric Practice (New York: Kluwer Academic / Plenum  1999)  ISBN 0-306-46131-5 George C . Denniston  Frederick Mansfield Hodges  Marilyn Fayre Milos  eds  Understanding Circumcision: A Multi-Dimensional Approach to a Multi-Dimensional Problem (New York: Kluwer Academic / Plenum  2001)  ISBN 0-306-46701-1 George C . Denniston  Frederick Mansfield Hodges  Marilyn Fayre Milos  eds  Flesh and Blood: Perspectives on the Problem of Circumcision in Contemporary Society (New York: Kluwer Academic / Plenum  2004)  ISBN 0-306-48333-5 George C . Denniston  Pia Grassivaro Gallo  Frederick Mansfield Hodges  Marilyn Fayre Milos  Franco Viviani  eds .  Bodily Integrity and the Politics of Circumcision: Culture  Controversy  and Change (New York: Springer Science  2006)  ISBN 978-1-4020-4915-6 George C . Denniston  Frederick Mansfield Hodges  Marilyn Fayre Milos  eds  Circumcision and Human Rights (New York: Springer Science: 2009)  ISBN 978-1-4020-9166-7 George C . Denniston  Frederick Mansfield Hodges  Marilyn Fayre Milos  eds  Genital Autonomy: Protecting Personal Choice (New York: Springer Science  2010)  ISBN 978-90-481-9445-2  .'
p11
ss.