(dp1
S'input'
p2
(dp3
S'encoded'
p4
(lp5
I64
aI2179
aI43
aI24
aI3
aI475
aI7
aI12436
aI3364
asS'ori'
p6
S'This house believes in the use of affirmative action'
p7
ssS'output'
p8
(dp9
g4
(lp10
I24
aI7
aI965
aI177
aI2240
aI14104
aI497
aI24
aI366
aI657
aI2877
aI7
aI12436
aI3364
aI189
aI63
aI696
aI440
aI7883
aI45
aI63765
asg6
S'In 1973  30% of white high school graduates attended universities; in 1993  after widespread implementation of affirmative action policies  that number had risen to 42%  .'
p11
ss.