(dp1
S'input'
p2
(dp3
S'encoded'
p4
(lp5
I64
aI2179
aI235
aI839
aI4168
aI7
aI4996
aI34759
asS'ori'
p6
S'This house supports direct election of city mayors'
p7
ssS'output'
p8
(dp9
g4
(lp10
I24
aI2959
aI54718
aI2132
aI3382
aI493
aI89
aI1580
aI6466
aI34
aI6076
aI289
aI3
aI845
aI63765
asg6
S'In April 2007  Lewisham Council voted 2824 against a motion calling for consultation over the issue  .'
p11
ss.