(dp1
S'input'
p2
(dp3
S'encoded'
p4
(lp5
I64
aI2179
aI43
aI63
aI2157
aI2565
aI493
aI19084
aI382
aI4850
asS'ori'
p6
S"This house believes that Israel's 2008-2009 military operations against Gaza were justified"
p7
ssS'output'
p8
(dp9
g4
(lp10
I3
aI2800
aI16860
aI7
aI3
aI626
aI2549
aI3
aI626
aI187
aI5
aI1237
aI368
aI2203
aI2493
aI89
aI5262
aI9596
aI24510
aI75
aI5963
aI3338
aI7
aI6048
aI34
aI11388
aI45
aI957
aI864
aI63
aI6056
aI2157
aI1687
aI382
aI7233
aI24
aI1849
aI45
aI13668
aI12073
aI2940
aI63765
asg6
S'The UN delegations of the United Kingdom  the United States  and several Western countries rejected a draft resolution circulated by Libya (on behalf of Arab countries) for failing to point out that Israeli military attacks were launched in response to militants firing missiles  .'
p11
ss.