(dp1
S'input'
p2
(dp3
S'encoded'
p4
(lp5
I64
aI2179
aI43
aI63
aI187
aI417
aI99
aI16642
aI3
aI6449
aI7
aI3935
asS'ori'
p6
S'This house believes that states should not subsidize the growing of tobacco'
p7
ssS'output'
p8
(dp9
g4
(lp10
I6695
aI6697
aI24
aI3935
aI10873
aI25239
aI211
aI4099
aI4658
aI75
aI200
aI3
aI25240
aI710
aI45
aI1378
aI12314
aI63765
asg6
S'Carbon monoxide in tobacco smoke exerts its negative effects by reducing the bloods ability to carry oxygen .'
p11
ss.