(dp1
S'input'
p2
(dp3
S'encoded'
p4
(lp5
I64
aI2179
aI43
aI63
aI3
aI28431
aI7
aI2157
aI4624
aI75
aI39939
aI27257
aI122
aI4850
asS'ori'
p6
S'This house believes that the leaking of military documents by Anat Kamm was justified'
p7
ssS'output'
p8
(dp9
g4
(lp10
I42
aI174
aI418
aI63
aI1928
aI667
aI2201
aI692
aI1607
aI7622
aI7
aI5
aI63
aI12732
aI382
aI8889
aI24
aI3
aI3286
aI366
aI2201
aI2951
aI7252
aI3228
aI2436
aI3229
aI63765
asg6
S'He also noted that every new WikiLeaks publication brought "a wave of support"  and that donations were strongest in the weeks after WikiLeaks started publishing leaked diplomatic cables  .'
p11
ss.