(dp1
S'input'
p2
(dp3
S'encoded'
p4
(lp5
I64
aI2179
aI394
aI4325
aI2042
aI270
aI89
aI11605
aI3324
asS'ori'
p6
S'This house would fund education using a voucher scheme'
p7
ssS'output'
p8
(dp9
g4
(lp10
I14
aI2555
aI3007
aI742
aI3
aI1560
aI78
aI7246
aI64
aI24561
aI5
aI29267
aI11
aI89
aI3846
aI7
aI51
aI1560
aI2164
aI23463
aI78
aI81
aI42
aI10684
aI182
aI6730
aI63765
asg6
S'On September 30  2011  Paul said "If the American people accept this blindly and casually  have a precedent of an American president assassinating people who he thinks are bad .'
p11
ss.