(dp1
S'input'
p2
(dp3
S'encoded'
p4
(lp5
I64
aI2179
aI43
aI63
aI3
aI28431
aI7
aI2157
aI4624
aI75
aI39939
aI27257
aI122
aI4850
asS'ori'
p6
S'This house believes that the leaking of military documents by Anat Kamm was justified'
p7
ssS'output'
p8
(dp9
g4
(lp10
I788
aI45
aI211
aI8050
aI877
aI64
aI234
aI8398
aI63
aI249
aI92
aI88
aI4085
aI2830
aI89
aI150
aI2702
aI3014
aI41
aI4256
aI7250
aI5
aI7149
aI7
aI4256
aI463
aI990
aI48
aI45
aI51
aI39456
aI51695
aI63765
asg6
S'Taken to its logical conclusion  this view contends that measures which may ostensibly serve a national security purpose (such as mass surveillance  and censorship of mass media)  could ultimately lead to an Orwellian dystopia .'
p11
ss.