(dp1
S'input'
p2
(dp3
S'encoded'
p4
(lp5
I64
aI2179
aI394
aI117
aI7428
aI21151
aI34
aI11389
aI2042
aI24
aI4364
asS'ori'
p6
S'This house would only teach abstinence for sex education in schools'
p7
ssS'output'
p8
(dp9
g4
(lp10
I8578
aI81
aI382
aI519
aI8988
aI75
aI89
aI3109
aI24
aI3
aI1257
aI3131
aI182
aI311
aI89
aI2638
aI2038
aI34
aI89
aI2220
aI1051
aI7
aI8803
aI3217
aI5046
aI5
aI34
aI3271
aI63765
asg6
S'Girls who were intentionally hurt by a date in the past 12 months are at a "significantly elevated risk for a broad range of sexual health concerns and for pregnancy .'
p11
ss.