(dp1
S'input'
p2
(dp3
S'encoded'
p4
(lp5
I64
aI2179
aI394
aI1499
aI177
aI1819
aI34
aI160
asS'ori'
p6
S'This house would build high rises for housing'
p7
ssS'output'
p8
(dp9
g4
(lp10
I2132
aI2472
aI382
aI2676
aI5
aI10256
aI75
aI2083
aI14625
aI45
aI2855
aI35830
aI4492
aI14
aI1456
aI35831
aI311
aI4509
aI15923
aI45
aI622
aI108
aI5052
aI78
aI63765
asg6
S'Council houses were built and operated by local councils to supply uncrowded  well-built homes on secure tenancies at reasonable rents to primarily working class people .'
p11
ss.