(dp1
S'input'
p2
(dp3
S'encoded'
p4
(lp5
I64
aI2179
aI394
aI190
aI3
aI21
aI45
aI3895
aI834
asS'ori'
p6
S'This house would limit the right to bear arms'
p7
ssS'output'
p8
(dp9
g4
(lp10
I3
aI1950
aI3264
aI3488
aI2034
aI3347
aI703
aI60
aI3
aI4240
aI681
aI33
aI7
aI626
aI187
aI646
aI63765
aI4241
aI92
aI743
aI63
aI3
aI4242
aI5
aI4236
aI2489
aI7
aI3
aI3263
aI3264
aI500
aI99
aI521
aI3
aI2029
aI7
aI2446
aI158
aI3
aI1950
aI3264
aI45
aI190
aI3
aI2280
aI7
aI3
aI10
aI220
aI2618
aI63
aI3
aI1950
aI3264
aI443
aI248
aI782
aI138
aI45
aI3439
aI3
aI2280
aI7
aI3
aI150
aI260
asg6
S'The Second Amendment attracted serious judicial attention with the Reconstruction era case of United States v . Cruikshank which ruled that the Privileges and Immunities Clause of the Fourteenth Amendment did not cause the Bill of Rights  including the Second Amendment  to limit the powers of the State governments  stating that the Second Amendment "has no other effect than to restrict the powers of the national government ."'
p11
ss.