(dp1
S'input'
p2
(dp3
S'encoded'
p4
(lp5
I64
aI2179
aI43
aI63
aI3
aI21
aI45
aI12715
aI417
aI99
aI316
aI2897
asS'ori'
p6
S'This house believes that the right to asylum should not be absolute'
p7
ssS'output'
p8
(dp9
g4
(lp10
I378
aI93
aI139
aI711
aI1594
aI3
aI2716
aI5
aI6508
aI7
aI3
aI4944
aI5264
aI7
aI64
aI22259
aI5
aI394
aI1453
aI7687
aI24
aI271
aI546
aI45
aI163
aI8784
aI64
aI500
aI99
aI73
aI5267
aI63
aI3
aI37685
aI1301
aI753
aI271
aI1881
aI11571
aI7
aI4918
aI1604
aI89
aI4944
aI7
aI31588
aI2248
aI459
aI3
aI26366
aI7
aI89
aI37685
aI81
aI37697
aI183
aI938
aI1295
aI3
aI1410
aI4567
aI226
aI1370
aI45
asg6
S'However  one can safely assume the friends and relatives of the victim knew of this ploy and would do everything in their power to make sure this did not happen; or indeed that the fugitive never reached their intended port of call  becoming a victim of vigilante justice under the pretense of a fugitive who wandered too far off the main highway while trying to "escape ."'
p11
ss.