(dp1
S'input'
p2
(dp3
S'encoded'
p4
(lp5
I64
aI2179
aI43
aI24
aI3
aI475
aI7
aI12436
aI3364
asS'ori'
p6
S'This house believes in the use of affirmative action'
p7
ssS'output'
p8
(dp9
g4
(lp10
I46155
aI1966
aI63
aI3
aI667
aI70
aI394
aI454
aI3386
aI3495
aI131
aI99
aI965
aI3495
aI5
aI63
aI122
aI5855
aI45
aI965
aI3495
aI63765
asg6
S'Griffiths argued that the new law would protect black women but not white women  and that was unfair to white women .'
p11
ss.