(dp1
S'input'
p2
(dp3
S'encoded'
p4
(lp5
I64
aI2179
aI394
aI2017
aI628
asS'ori'
p6
S'This house would ban gambling'
p7
ssS'output'
p8
(dp9
g4
(lp10
I24
aI3
aI7784
aI3189
aI5930
aI24
aI3
aI626
aI187
aI2711
aI182
aI1657
aI19
aI89
aI94
aI7
aI5
aI696
aI116
aI1657
aI19
aI89
aI94
aI7
aI5
aI89
aI7740
aI83
aI303
aI223
aI1508
aI45
aI750
aI3
aI34154
aI439
aI63765
asg6
S'In the Mega Millions multi-state lottery in the United States  5 numbers are drawn from a group of 56 and 1 number is drawn from a group of 46  and a player must match all 6 balls to win the jackpot prize .'
p11
ss.