(dp1
S'input'
p2
(dp3
S'encoded'
p4
(lp5
I64
aI2179
aI394
aI163
aI959
aI2042
aI3557
asS'ori'
p6
S'This house would make physical education compulsory'
p7
ssS'output'
p8
(dp9
g4
(lp10
I89
aI292
aI3569
aI7772
aI706
aI2035
aI7
aI7353
aI3862
aI92
aI2396
aI267
aI7993
aI16385
aI89
aI1379
aI24
aI1103
aI60
aI51
aI5982
aI2326
aI5
aI28283
aI37325
aI3019
aI45
aI342
aI89
aI4229
aI1811
aI24
aI4442
aI760
aI11786
aI298
aI2449
aI45
aI89
aI708
aI94
aI63765
asg6
S'A three year randomized controlled study of 1 704 3rd grade children which provided two healthy meals a day in combination with an exercise program and dietary counsellings failed to show a significant reduction in percentage body fat when compared to a control group .'
p11
ss.