(dp1
S'input'
p2
(dp3
S'encoded'
p4
(lp5
I64
aI2179
aI394
aI60
aI23587
asS'ori'
p6
S'This house would re-engage with Myanmar'
p7
ssS'output'
p8
(dp9
g4
(lp10
I3118
aI2832
aI16673
aI9968
aI159
aI41
aI60751
aI60752
aI5
aI60753
aI63765
asg6
S'Burma produces precious stones such as sapphires  pearls and jade .'
p11
ss.