(dp1
S'input'
p2
(dp3
S'encoded'
p4
(lp5
I64
aI2179
aI235
aI3
aI2136
aI7
aI3
aI2306
aI7
aI2390
asS'ori'
p6
S'This house supports the one-child policy of the republic of China'
p7
ssS'output'
p8
(dp9
g4
(lp10
I248
aI251
aI566
aI60
aI17783
aI1074
aI3
aI2322
aI3497
aI34
aI2635
aI159
aI41
aI7379
aI1495
aI5
aI3964
aI7827
aI5
aI23108
aI2835
aI7
aI35
aI2635
aI1050
aI138
aI3
aI2994
aI7
aI31759
aI41
aI6674
aI5
aI89
aI8953
aI24
aI3976
aI3020
aI63765
asg6
S'Other problems associated with overpopulation include the increased demand for resources such as fresh water and food  starvation and malnutrition  consumption of natural resources faster than the rate of regeneration (such as fossil fuels)  and a decrease in living conditions .'
p11
ss.