(dp1
S'input'
p2
(dp3
S'encoded'
p4
(lp5
I64
aI2179
aI394
aI5370
aI3
aI5286
asS'ori'
p6
S'This house would abolish the monarchy'
p7
ssS'output'
p8
(dp9
g4
(lp10
I768
aI100
aI3286
aI395
aI12088
aI6349
aI375
aI15409
aI60
aI3
aI5286
aI298
aI12088
aI12591
aI2874
aI45
aI8366
aI13539
aI417
aI3
aI5352
aI316
aI24
aI5856
aI311
aI3
aI6525
aI34
aI3
aI3570
aI7
aI3
aI2543
aI7
aI12088
aI13408
aI15410
aI7
aI3
aI15411
aI10799
aI2791
aI63
aI3
aI5556
aI394
aI316
aI89
aI11135
aI34
aI3364
aI139
aI316
aI8784
aI63
aI78
aI47
aI12940
aI24
aI8672
aI63765
aI63765
aI357
aI182
aI3909
aI3
aI3565
aI7
aI667
aI2265
aI99
aI211
aI9685
aI63765
asg6
S'Then  some weeks later  Quebec sovereignty again collided with the monarchy  when Quebec separatists threatened to mount demonstrations should the Queen be in attendance at the ceremonies for the 400th anniversary of the founding of Quebec City; Mario Beaulieu  Vice-President of the Societe Saint-Jean Baptiste announced that the Queen\'s presence would be a catalyst for action  saying: "You can be sure that people will demonstrate in protest . . We are celebrating the foundation of New France  not its conquest .'
p11
ss.