(dp1
S'input'
p2
(dp3
S'encoded'
p4
(lp5
I64
aI2179
aI235
aI3
aI2136
aI7
aI3
aI2306
aI7
aI2390
asS'ori'
p6
S'This house supports the one-child policy of the republic of China'
p7
ssS'output'
p8
(dp9
g4
(lp10
I3
aI7210
aI2062
aI3
aI282
aI3772
aI3773
aI2133
aI60
aI211
aI1484
aI24
aI2652
aI248
aI2203
aI63765
asg6
S'The organisation  founded the International Planned Parenthood Federation with its counterparts in seven other countries  .'
p11
ss.