(dp1
S'input'
p2
(dp3
S'encoded'
p4
(lp5
I64
aI2179
aI394
aI60
aI23587
asS'ori'
p6
S'This house would re-engage with Myanmar'
p7
ssS'output'
p8
(dp9
g4
(lp10
I357
aI3740
aI6261
aI64
aI17744
aI2617
asg6
S'We strongly condemn this brutal violence ."'
p11
ss.