(dp1
S'input'
p2
(dp3
S'encoded'
p4
(lp5
I64
aI2179
aI394
aI2017
aI223
aI9058
aI23653
asS'ori'
p6
S'This house would ban all unsustainable logging'
p7
ssS'output'
p8
(dp9
g4
(lp10
I41
aI51
aI17921
aI45
aI132
aI982
aI5958
aI2363
aI46966
aI4975
aI11
aI153
aI322
aI165
aI2597
aI1179
aI63765
asg6
S'As an adaptation to these low light levels  understory plants have often evolved much larger leaves .'
p11
ss.