(dp1
S'input'
p2
(dp3
S'encoded'
p4
(lp5
I64
aI2179
aI43
aI63
aI1036
aI4828
aI33250
aI116
aI25073
aI45
aI3315
aI4562
asS'ori'
p6
S'This house believes that male infant circumcision is tantamount to child abuse'
p7
ssS'output'
p8
(dp9
g4
(lp10
I33288
aI116
aI3
aI5374
aI45
aI33248
aI3
aI33218
aI289
aI3
aI33220
aI12716
aI514
aI1670
aI291
aI33288
aI4743
aI5
aI33288
aI63765
asg6
S'Phimosis is the inability to retract the foreskin over the glans penis; authors frequently distinguish between "physiologic" phimosis (or developmental non-retractility) and "pathological" phimosis  .'
p11
ss.