(dp1
S'input'
p2
(dp3
S'encoded'
p4
(lp5
I64
aI2179
aI394
aI5370
aI223
aI4013
aI10440
aI2446
aI4881
aI75
aI14482
aI11004
asS'ori'
p6
S'This house would abolish all collective bargaining rights claimed by trades unions'
p7
ssS'output'
p8
(dp9
g4
(lp10
I64
aI502
aI24
aI10440
aI546
aI116
aI10538
aI60
aI3236
aI45
aI77
aI20166
aI3205
aI2396
aI117
aI75
aI3
aI260
aI5
aI92
aI182
aI3057
aI45
aI3
aI9
aI5
aI934
aI7
aI3
aI658
aI311
aI1445
aI159
aI41
aI631
aI5
aI4477
aI1795
aI63765
asg6
S'This advantage in bargaining power is magnified with respect to certain monopolistic services provided only by the government and which are critical to the welfare and safety of the public at large  such as police and fire protection  .'
p11
ss.