(dp1
S'input'
p2
(dp3
S'encoded'
p4
(lp5
I64
aI2179
aI394
aI2773
aI12505
asS'ori'
p6
S'This house would embrace multiculturalism'
p7
ssS'output'
p8
(dp9
g4
(lp10
I24
aI2547
aI273
aI182
aI1237
aI18808
aI5269
aI60
aI725
aI4066
aI4067
aI158
aI6426
aI9719
aI6085
aI5
aI725
aI80
aI63765
asg6
S'In Canada  there are several ethnocentric communities with many diverse backgrounds  including Chinese  Italian  Greek  and many others  .'
p11
ss.