(dp1
S'input'
p2
(dp3
S'encoded'
p4
(lp5
I64
aI2179
aI43
aI8629
aI116
aI3
aI117
aI998
asS'ori'
p6
S'This house believes atheism is the only way'
p7
ssS'output'
p8
(dp9
g4
(lp10
I4044
aI63765
aI3007
aI221
aI64
aI143
aI298
aI42
aI8304
aI63
aI9678
aI382
aI252
aI21930
aI604
aI3
aI4360
aI7
aI3
aI285
aI15527
aI580
aI6373
aI25
aI8547
aI546
aI5
aI6527
aI55
aI12
aI1972
aI4359
aI24
aI3
aI194
aI63
aI11
aI12
aI63765
asg6
S'St . Paul made this argument when he insisted that pagans were without excuse because "since the creation of the world [God\'s] invisible nature  namely  his eternal power and deity  has been clearly perceived in the things that have been made"  .'
p11
ss.