(dp1
S'input'
p2
(dp3
S'encoded'
p4
(lp5
I64
aI2179
aI43
aI3
aI626
aI187
aI116
aI1989
aI34
aI3102
aI2223
asS'ori'
p6
S"This house believes the United States is responsible for Mexico's drugs war"
p7
ssS'output'
p8
(dp9
g4
(lp10
I2862
aI2586
aI23399
aI2613
aI2584
aI4534
aI45
aI3204
aI25
aI15921
aI2323
aI5
aI374
aI375
aI15826
aI5050
aI658
aI3357
aI122
aI89
aI15081
aI972
aI1265
aI3
aI8555
aI63765
asg6
S'Nixon began orchestrating drug raids nationwide to improve his watchdog reputation  and once again  racially discriminatory public opinion was a driving force behind the scenes .'
p11
ss.