(dp1
S'input'
p2
(dp3
S'encoded'
p4
(lp5
I64
aI2179
aI43
aI17
aI4941
aI857
aI3211
asS'ori'
p6
S'This house believes social deprivation causes crime'
p7
ssS'output'
p8
(dp9
g4
(lp10
I6198
aI139
aI316
aI2367
aI1612
aI7417
aI5
aI17271
aI291
aI6776
aI63
aI153
aI11
aI685
aI27669
aI7276
aI73
aI8
aI274
aI7
aI6968
aI6198
aI1621
aI119
aI63765
asg6
S"Funds can be moved quickly  cheaply and securely between locations that often don't have established banking networks or modern forms of electronic funds transfers available ."
p11
ss.