(dp1
S'input'
p2
(dp3
S'encoded'
p4
(lp5
I64
aI2179
aI43
aI63
aI3
aI4991
aI7
aI180
aI417
aI316
aI5396
aI19
aI3
aI169
aI10
asS'ori'
p6
S'This house believes that the Church of England should be separated from the British state'
p7
ssS'output'
p8
(dp9
g4
(lp10
I3
aI237
aI3264
aI45
aI3
aI2206
aI2475
aI187
aI4197
aI163
aI443
aI70
aI3660
aI51
aI2426
aI7
aI2382
aI73
aI4190
aI3
aI1260
aI5982
aI3
aI267
aI1948
aI1047
aI41
aI3
aI5
aI3
aI5982
aI3839
aI399
aI3
aI3691
aI2259
aI34
aI3
aI2482
aI17567
aI7
aI3
aI7
aI4991
aI5
aI2860
aI63765
asg6
S'The first amendment to the US Constitution states "Congress shall make no law respecting an establishment of religion  or prohibiting the free exercise thereof" The two parts  known as the "establishment clause" and the "free exercise clause" respectively  form the textual basis for the Supreme Court\'s interpretations of the "separation of church and state" doctrine .'
p11
ss.