(dp1
S'input'
p2
(dp3
S'encoded'
p4
(lp5
I64
aI2179
aI394
aI117
aI7428
aI21151
aI34
aI11389
aI2042
aI24
aI4364
asS'ori'
p6
S'This house would only teach abstinence for sex education in schools'
p7
ssS'output'
p8
(dp9
g4
(lp10
I34
aI17092
aI81
aI4574
aI45
aI268
aI24
aI8803
aI364
aI3
aI1334
aI17543
aI7
aI5377
aI17089
aI3271
aI1577
aI2387
aI475
aI7
aI13778
aI63765
asg6
S'For teens who choose to engage in sexual activity  the primary mode of preventing teen pregnancy becomes correct use of contraceptives .'
p11
ss.