(dp1
S'input'
p2
(dp3
S'encoded'
p4
(lp5
I64
aI2179
aI394
aI5284
aI150
aI3987
asS'ori'
p6
S'This house would reintroduce national service'
p7
ssS'output'
p8
(dp9
g4
(lp10
I100
aI631
aI5726
aI174
aI913
aI3
aI9359
aI158
aI5795
aI9579
aI34
aI658
aI2181
aI3693
aI1215
aI81
aI440
aI6021
aI223
aI965
aI631
aI3243
aI1931
aI19
aI3
aI8413
aI24
aI15812
aI45
aI3
aI7161
aI7
aI15808
aI5
aI5259
aI63765
asg6
S'Some police officials also limited the investigation  including deputy commissioner for public affairs Benjamin Ward  who had ordered all white police officers away from the scene in acquiescing to the demands of Farrakhan and Rangel  .'
p11
ss.