(dp1
S'input'
p2
(dp3
S'encoded'
p4
(lp5
I64
aI2179
aI394
aI117
aI7428
aI21151
aI34
aI11389
aI2042
aI24
aI4364
asS'ori'
p6
S'This house would only teach abstinence for sex education in schools'
p7
ssS'output'
p8
(dp9
g4
(lp10
I24
aI3
aI7700
aI2680
aI320
aI8559
aI5
aI3271
aI116
aI136
aI279
aI24
aI3492
aI3945
aI5269
aI2449
aI45
aI3
aI2994
aI24
aI385
aI63765
asg6
S'In the Indian subcontinent  early marriage and pregnancy is more common in traditional rural communities compared to the rate in cities  .'
p11
ss.