(dp1
S'input'
p2
(dp3
S'encoded'
p4
(lp5
I64
aI2179
aI43
aI63
aI3
aI21
aI45
aI12715
aI417
aI99
aI316
aI2897
asS'ori'
p6
S'This house believes that the right to asylum should not be absolute'
p7
ssS'output'
p8
(dp9
g4
(lp10
I3
aI1448
aI27129
aI7
aI3
aI7477
aI81
aI3940
aI24
aI2046
aI5
aI2661
aI34
aI4374
aI292
aI2467
aI182
aI759
aI7
aI3
aI267
aI2597
aI2969
aI45
aI33642
aI223
aI20349
aI7477
aI545
aI89
aI1896
aI2439
aI63765
asg6
S"The forceful evictions of the refugees  who lived in Iran and Pakistan for nearly three decades  are part of the two countries' larger plans to repatriate all Afghan refugees within a few years ."
p11
ss.