(dp1
S'input'
p2
(dp3
S'encoded'
p4
(lp5
I64
aI2179
aI43
aI63
aI6670
aI546
aI417
aI316
aI89
aI1334
aI3108
aI7
aI4849
aI1886
aI2855
asS'ori'
p6
S'This house believes that wind power should be a primary focus of future energy supply'
p7
ssS'output'
p8
(dp9
g4
(lp10
I2032
aI11683
aI5181
aI1480
aI475
aI11914
aI51
aI6902
aI7
aI11514
aI41
aI5092
aI5
aI24
aI217
aI912
aI2337
aI174
aI11935
aI63765
asg6
S'Proposed fusion reactors commonly use deuterium  an isotope of hydrogen  as fuel and in most current designs also lithium .'
p11
ss.