(dp1
S'input'
p2
(dp3
S'encoded'
p4
(lp5
I64
aI2179
aI43
aI63
aI2659
aI417
aI1690
aI3
aI12048
aI7
aI19084
asS'ori'
p6
S'This house believes that Israel should lift the blockade of Gaza'
p7
ssS'output'
p8
(dp9
g4
(lp10
I3
aI16
aI9991
aI493
aI3
aI19088
aI150
aI254
aI382
aI16
aI9991
aI2052
aI75
aI2659
aI5
aI3
aI19089
aI14
aI3
aI2653
aI2087
aI493
aI3
aI19088
aI150
aI254
aI5
aI3
aI19088
aI5555
aI1592
aI3
aI425
aI3578
aI5276
aI63
aI1607
aI16619
aI45
aI546
aI63765
asg6
S'The 20062007 economic sanctions against the Palestinian National Authority were economic sanctions imposed by Israel and the Quartet on the Middle East against the Palestinian National Authority and the Palestinian territories following the January 2006 legislative elections that brought Hamas to power  .'
p11
ss.