(dp1
S'input'
p2
(dp3
S'encoded'
p4
(lp5
I64
aI2179
aI43
aI63
aI134
aI116
aI400
aI21
aI34
aI3
aI260
aI45
aI3439
aI57
aI7
aI2381
asS'ori'
p6
S'This house believes that it is sometimes right for the government to restrict freedom of speech'
p7
ssS'output'
p8
(dp9
g4
(lp10
I24
aI57892
aI122
aI2840
aI41
aI89
aI2671
aI7
aI5387
aI12749
aI566
aI60
aI12511
aI2381
aI2142
aI3
aI3910
aI1523
aI3
aI285
aI1699
aI4991
aI7
aI3
aI10934
aI5
aI3
aI4169
aI22705
aI57894
aI57895
aI63765
asg6
S'In 1998  Klatt was identified as a host of multiple websites associated with hate speech  neo-Nazi organizations  the Toronto-based Heritage Front  the World Wide Church of the Creator  and the French Charlemagne Hammerhead Skinheads .'
p11
ss.