(dp1
S'input'
p2
(dp3
S'encoded'
p4
(lp5
I64
aI2179
aI43
aI17
aI4941
aI857
aI3211
asS'ori'
p6
S'This house believes social deprivation causes crime'
p7
ssS'output'
p8
(dp9
g4
(lp10
I57581
aI5
aI2491
aI5535
aI64
aI3455
aI45
aI186
aI63
aI3
aI857
aI7
aI2617
aI182
aI3
aI1643
aI34
aI15
aI5948
aI5
aI5946
aI131
aI63
aI10250
aI12537
aI75
aI2178
aI44539
aI12682
aI2789
aI7
aI3716
aI3136
aI45
aI1277
aI5
aI17
aI9612
aI58
aI8529
aI15525
aI24
aI2617
aI63765
asg6
S'Sampson and Wilson (1995) pursued this logic to argue that the community-level causes of violence are the same for both whites and blacks  but that racial segregation by community differentially exposes members of minority groups to key violence-inducing and violence-protecting social mechanisms  thereby explaining black-white disparities in violence .'
p11
ss.