(dp1
S'input'
p2
(dp3
S'encoded'
p4
(lp5
I64
aI2179
aI43
aI63
aI6670
aI546
aI417
aI316
aI89
aI1334
aI3108
aI7
aI4849
aI1886
aI2855
asS'ori'
p6
S'This house believes that wind power should be a primary focus of future energy supply'
p7
ssS'output'
p8
(dp9
g4
(lp10
I311
aI3
aI6869
aI2741
aI6670
aI6677
aI24
aI2300
aI89
aI5346
aI55
aI12
aI753
aI291
aI3
aI6848
aI2022
aI6870
aI34
aI6844
aI1886
aI5
aI6871
aI1886
aI2635
aI1233
aI100
aI5109
aI24
aI3
aI63765
asg6
S'At the Altamont Pass Wind Farm in California  a settlement has been reached between the Audubon Society  Californians for Renewable Energy and NextEra Energy Resources (who operate some 5 000 turbines in the area) .'
p11
ss.