(dp1
S'input'
p2
(dp3
S'encoded'
p4
(lp5
I64
aI2179
aI43
aI8629
aI116
aI3
aI117
aI998
asS'ori'
p6
S'This house believes atheism is the only way'
p7
ssS'output'
p8
(dp9
g4
(lp10
I89
aI1699
aI157
aI7
aI3384
aI4532
aI92
aI139
aI316
aI7229
aI41
aI18739
aI8050
aI3177
aI73
aI722
aI63765
asg6
S'A wide variety of arguments exist which can be categorized as metaphysical  logical  empirical  or subjective .'
p11
ss.