(dp1
S'input'
p2
(dp3
S'encoded'
p4
(lp5
I64
aI2179
aI43
aI223
aI2138
aI11
aI89
aI21
aI45
aI2185
aI372
asS'ori'
p6
S'This house believes all nations have a right to nuclear weapons'
p7
ssS'output'
p8
(dp9
g4
(lp10
I24
aI64
aI998
aI155
aI382
aI10093
aI493
aI3
aI2969
aI7
aI3
aI2330
aI260
aI45
aI4345
aI3
aI639
aI7
aI6713
aI2185
aI546
aI63765
asg6
S'In this way they were demonstrating against the plans of the German government to extend the period of producing nuclear power  .'
p11
ss.