(dp1
S'input'
p2
(dp3
S'encoded'
p4
(lp5
I64
aI2179
aI394
aI5370
aI223
aI4013
aI10440
aI2446
aI4881
aI75
aI14482
aI11004
asS'ori'
p6
S'This house would abolish all collective bargaining rights claimed by trades unions'
p7
ssS'output'
p8
(dp9
g4
(lp10
I10303
aI2131
aI2789
aI1191
aI214
aI63
aI5434
aI4830
aI7
aI4637
aI5743
aI14
aI89
aI3993
aI2259
aI116
aI93
aI7
aI3
aI189
aI63765
asg6
S'" Educating union members about issues that shape lives of functioning families on a daily basis is one of the AFL-CIOs policies .'
p11
ss.