(dp1
S'input'
p2
(dp3
S'encoded'
p4
(lp5
I64
aI2179
aI43
aI63
aI7382
aI116
aI400
aI4713
asS'ori'
p6
S'This house believes that bribery is sometimes acceptable'
p7
ssS'output'
p8
(dp9
g4
(lp10
I24
aI3
aI3249
aI7935
aI7170
aI4696
aI3
aI5084
aI7
aI2190
aI620
aI3
aI7494
aI7
aI3101
aI6751
aI777
aI3
aI6801
aI5084
aI7
aI9185
aI60
aI5726
aI5
aI3
aI2038
aI7
aI19362
aI2361
aI73
aI13996
aI63765
asg6
S'In the private sector  corruption increases the cost of business through the price of illicit payments themselves  the management cost of negotiating with officials  and the risk of breached agreements or detection .'
p11
ss.