(dp1
S'input'
p2
(dp3
S'encoded'
p4
(lp5
I64
aI2179
aI394
aI117
aI7428
aI21151
aI34
aI11389
aI2042
aI24
aI4364
asS'ori'
p6
S'This house would only teach abstinence for sex education in schools'
p7
ssS'output'
p8
(dp9
g4
(lp10
I4358
aI8198
aI5
aI10370
aI7353
aI81
aI475
aI3102
aI5
aI3934
aI382
aI136
aI1856
aI138
aI16203
aI1517
aI45
aI507
aI206
aI11389
aI63765
asg6
S'Students seventh and eighth grade who use drugs and alcohol were more likely than non users to begin having sex  .'
p11
ss.