(dp1
S'input'
p2
(dp3
S'encoded'
p4
(lp5
I64
aI2179
aI394
aI2017
aI223
aI9058
aI23653
asS'ori'
p6
S'This house would ban all unsustainable logging'
p7
ssS'output'
p8
(dp9
g4
(lp10
I7808
aI18865
aI182
aI18865
aI24
aI3
aI19059
aI353
aI24
aI3
aI23585
aI4560
aI3
aI23586
aI7
aI5057
aI5
aI23586
aI7
aI63765
asg6
S'Tropical rainforests are rainforests in the tropics  found in the equatorial zone (between the Tropic of Cancer and Tropic of Capricorn) .'
p11
ss.