(dp1
S'input'
p2
(dp3
S'encoded'
p4
(lp5
I64
aI2179
aI43
aI63
aI1036
aI4828
aI33250
aI116
aI25073
aI45
aI3315
aI4562
asS'ori'
p6
S'This house believes that male infant circumcision is tantamount to child abuse'
p7
ssS'output'
p8
(dp9
g4
(lp10
I34920
aI10845
aI4047
aI63765
aI4867
aI60398
aI5
aI60399
aI33220
aI8175
aI19
aI89
aI697
aI7
aI5716
aI4809
aI63
aI3
aI33218
aI122
aI566
aI60
aI89
aI14953
aI7
aI60392
aI33312
aI5
aI89
aI595
aI11560
aI34
aI3
aI5556
aI7
aI41
aI261
aI41
aI166
aI17184
aI7
aI5500
aI60400
aI5179
asg6
S'Wiswell et al . obtained intraurethral and circumferential glans cultures from a total of 300 boys  concluding that the foreskin was associated with a "greater quantity of periurethral bacteria and a greater likelihood for the presence of  as well as higher concentrations of  potentially uropathogenic organisms ."'
p11
ss.