(dp1
S'input'
p2
(dp3
S'encoded'
p4
(lp5
I64
aI2179
aI43
aI63
aI134
aI116
aI400
aI21
aI34
aI3
aI260
aI45
aI3439
aI57
aI7
aI2381
asS'ori'
p6
S'This house believes that it is sometimes right for the government to restrict freedom of speech'
p7
ssS'output'
p8
(dp9
g4
(lp10
I100
aI3727
aI11
aI4920
aI3
aI70
aI41
aI12166
aI2381
aI5
aI4640
aI63
aI235
aI351
aI11952
aI7
aI2659
aI71
aI45
aI3089
aI788
aI45
aI9042
aI60
aI3
aI7112
aI7
aI2135
aI6580
aI45
aI11952
aI755
aI2135
aI24
aI5304
aI73
aI2287
aI5
aI2200
aI3
aI2206
aI5354
aI45
aI25083
aI27283
aI13650
aI493
aI2659
aI63765
asg6
S'Some pro-Israeli activists have construed the law as forbidding speech and expression that supports any boycott of Israel (as opposed to actions taken to comply with the requests of foreign entities to boycott Israel) whether foreign in origin or domestic  and asked the US Anti-Boycott Office to prosecute divestment campaigners against Israel  .'
p11
ss.