(dp1
S'input'
p2
(dp3
S'encoded'
p4
(lp5
I64
aI2179
aI43
aI63
aI6670
aI546
aI417
aI316
aI89
aI1334
aI3108
aI7
aI4849
aI1886
aI2855
asS'ori'
p6
S'This house believes that wind power should be a primary focus of future energy supply'
p7
ssS'output'
p8
(dp9
g4
(lp10
I24
aI3
aI2206
aI3
aI2134
aI974
aI2190
aI3235
aI60
aI132
aI6844
aI1886
aI10781
aI63765
asg6
S'In the US the organization Green-e monitors business compliance with these renewable energy credits  .'
p11
ss.