(dp1
S'input'
p2
(dp3
S'encoded'
p4
(lp5
I64
aI2179
aI394
aI117
aI7428
aI21151
aI34
aI11389
aI2042
aI24
aI4364
asS'ori'
p6
S'This house would only teach abstinence for sex education in schools'
p7
ssS'output'
p8
(dp9
g4
(lp10
I2613
aI14680
aI122
aI344
aI41
aI51
aI229
aI3217
aI3661
aI24
aI2613
aI14680
aI45
aI23340
aI122
aI6418
aI24
aI3
aI5
aI3250
aI913
aI45
aI2653
aI5052
aI78
aI81
aI440
aI1408
aI3757
aI45
aI23340
aI1021
aI45
aI271
aI7837
aI73
aI78
aI81
aI440
aI1199
aI14710
aI41
aI89
aI823
aI782
aI7
aI2015
aI4902
aI63765
asg6
S'Drug addiction was seen as an individual health problem in Britain; drug addiction to opiates was rare in the 1920s and mostly limited to middle class people who had easy access to opiates due to their profession  or people who had become addicted as a side effect of medical treatment .'
p11
ss.