(dp1
S'input'
p2
(dp3
S'encoded'
p4
(lp5
I64
aI2179
aI43
aI17
aI4941
aI857
aI3211
asS'ori'
p6
S'This house believes social deprivation causes crime'
p7
ssS'output'
p8
(dp9
g4
(lp10
I3889
aI85
aI7
aI3862
aI5
aI5743
aI139
aI1476
aI3
aI2038
aI7
aI25624
aI57928
aI5
aI139
aI9014
aI211
aI6203
aI63765
asg6
S'Ongoing care of children and families can reduce the risk of maltreatment reoccurring and can minimize its consequences  .'
p11
ss.