(dp1
S'input'
p2
(dp3
S'encoded'
p4
(lp5
I64
aI2179
aI43
aI63
aI3
aI21
aI45
aI12715
aI417
aI99
aI316
aI2897
asS'ori'
p6
S'This house believes that the right to asylum should not be absolute'
p7
ssS'output'
p8
(dp9
g4
(lp10
I134
aI174
aI656
aI3
aI5099
aI7
aI89
aI7038
aI5905
aI24
aI1157
aI9688
aI24
aI92
aI2914
aI1968
aI2589
aI45
aI3
aI2206
aI2322
aI1928
aI3569
aI19
aI3
aI487
aI3
aI2644
aI63765
asg6
S'It also marked the start of a massive swell in Mexican emigration  in which net illegal migration to the US increased every year from the mid-1990s until the mid 2000s .'
p11
ss.