(dp1
S'input'
p2
(dp3
S'encoded'
p4
(lp5
I64
aI2179
aI235
aI3
aI2136
aI7
aI3
aI2306
aI7
aI2390
asS'ori'
p6
S'This house supports the one-child policy of the republic of China'
p7
ssS'output'
p8
(dp9
g4
(lp10
I1495
aI8877
aI92
aI182
aI1719
aI8965
aI528
aI18178
aI2833
aI24
aI1872
aI1932
aI2203
aI88
aI4319
aI1453
aI3
aI1643
aI24
aI2597
aI2203
aI159
aI41
aI2390
aI73
aI2450
aI257
aI2186
aI116
aI99
aI416
aI63765
asg6
S'Water deficits  which are already spurring heavy grain imports in numerous smaller countries  may soon do the same in larger countries  such as China or India  if technology is not used  .'
p11
ss.