(dp1
S'input'
p2
(dp3
S'encoded'
p4
(lp5
I64
aI2179
aI235
aI3
aI2136
aI7
aI3
aI2306
aI7
aI2390
asS'ori'
p6
S'This house supports the one-child policy of the republic of China'
p7
ssS'output'
p8
(dp9
g4
(lp10
I22
aI4562
aI7
aI20007
aI24
aI3
aI6619
aI2306
aI7
aI2390
aI116
aI177
aI14
aI3
aI2175
aI5
aI55
aI104
aI6974
aI17029
aI24
aI3
aI282
aI11397
aI2178
aI63765
asg6
S'Political abuse of psychiatry in the Peoples Republic of China is high on the agenda and has produced recurring disputes in the international psychiatric community  .'
p11
ss.