(dp1
S'input'
p2
(dp3
S'encoded'
p4
(lp5
I64
aI2179
aI13605
aI2258
aI45
aI2194
asS'ori'
p6
S'This house prefers trade to aid'
p7
ssS'output'
p8
(dp9
g4
(lp10
I24
aI421
aI89
aI57841
aI2322
aI18799
aI204
aI19
aI2135
aI2194
aI88
aI2187
aI2591
aI5
aI8953
aI8447
aI60
aI3
aI10556
aI2138
aI63
aI9846
aI86
aI63765
asg6
S'In addition  a countys increased religiosity resulting from faith-based foreign aid may foster ties and decrease tension with the richer nations that assisted them .'
p11
ss.