(dp1
S'input'
p2
(dp3
S'encoded'
p4
(lp5
I64
aI2179
aI394
aI2741
aI3
aI1560
aI6025
aI2784
asS'ori'
p6
S'This house would pass the American Jobs Act'
p7
ssS'output'
p8
(dp9
g4
(lp10
I311
aI3
aI413
aI7
aI3
aI325
aI2356
aI7
aI3
aI134
aI122
aI4635
aI63
aI60
aI3
aI7912
aI3223
aI1808
aI1021
aI45
aI28140
aI4256
aI2410
aI5
aI7408
aI37202
aI273
aI122
aI443
aI1068
aI34
aI89
aI1445
aI696
aI7
aI2623
aI1779
aI6941
aI63765
asg6
S'At the time of the Great Depression of the 1930s it was understood that with the enormous productivity gains due to electrification  mass production and agricultural mechanization  there was no need for a large number of previously employed workers  .'
p11
ss.