(dp1
S'input'
p2
(dp3
S'encoded'
p4
(lp5
I64
aI2179
aI43
aI8629
aI116
aI3
aI117
aI998
asS'ori'
p6
S'This house believes atheism is the only way'
p7
ssS'output'
p8
(dp9
g4
(lp10
I3555
aI3
aI3524
aI7
aI89
aI5480
aI4309
aI45
aI3292
aI10935
aI4527
aI93
aI60
aI443
aI3292
aI73
aI4707
aI3565
asg6
S'denying the existence of a god leads to moral relativism  leaving one with no moral or ethical foundation'
p11
ss.