(dp1
S'input'
p2
(dp3
S'encoded'
p4
(lp5
I64
aI2179
aI43
aI63
aI3376
aI4938
aI417
aI316
aI3537
asS'ori'
p6
S'This house believes that endangered species should be protected'
p7
ssS'output'
p8
(dp9
g4
(lp10
I64
aI5495
aI544
aI24
aI2768
aI122
aI656
aI75
aI2718
aI7038
aI7931
aI7
aI2768
aI4846
aI41
aI4256
aI7798
aI2120
aI63765
asg6
S'This dramatic rise in diversity was marked by periodic  massive losses of diversity classified as mass extinction events  .'
p11
ss.