(dp1
S'input'
p2
(dp3
S'encoded'
p4
(lp5
I64
aI2179
aI43
aI8629
aI116
aI3
aI117
aI998
asS'ori'
p6
S'This house believes atheism is the only way'
p7
ssS'output'
p8
(dp9
g4
(lp10
I116
aI400
aI416
aI45
aI6455
aI24
aI448
aI45
aI351
aI1361
aI24
aI89
aI5480
aI73
aI6427
aI2233
aI63765
aI38793
aI73
aI38794
aI63765
asg6
S'"Theism" is sometimes used to refer in general to any belief in a god or gods  i .e .  monotheism or polytheism  .'
p11
ss.