(dp1
S'input'
p2
(dp3
S'encoded'
p4
(lp5
I64
aI2179
aI43
aI3
aI2206
aI116
aI4850
aI24
aI270
aI972
aI45
aI881
aI187
aI19
aI10443
aI2185
aI372
asS'ori'
p6
S'This house believes the US is justified in using force to prevent states from acquiring nuclear weapons'
p7
ssS'output'
p8
(dp9
g4
(lp10
I3
aI2206
aI55
aI12
aI3531
aI34
aI1609
aI5404
aI2892
aI2250
aI5
aI3660
aI150
aI6349
aI131
aI2157
aI3089
aI159
aI41
aI24
aI6096
aI16582
aI89
aI3202
aI2223
aI24
aI2932
aI45
aI1746
aI1295
aI2314
aI5
aI2669
aI5110
aI1180
aI45
aI211
aI16583
aI63765
asg6
S'The US has been criticized for making statements supporting peace and respecting national sovereignty  but military actions such as in Grenada  fomenting a civil war in Colombia to break off Panama  and Iraq run counter to its assertions .'
p11
ss.