(dp1
S'input'
p2
(dp3
S'encoded'
p4
(lp5
I64
aI2179
aI394
aI5370
aI3
aI5286
asS'ori'
p6
S'This house would abolish the monarchy'
p7
ssS'output'
p8
(dp9
g4
(lp10
I24
aI1206
aI646
aI123
aI3
aI24124
aI7
aI3
aI169
aI45
aI2728
aI3205
aI45
aI3
aI2548
aI221
aI75
aI24125
aI81
aI116
aI99
aI89
aI14779
aI24
aI271
aI284
aI21
aI73
aI3
aI4634
asg6
S'In 1917  George V created the OBE (Order of the British Empire) to recognize services to the nation made by commoners (anyone who is not a Peer in their own right or the Sovereign .)'
p11
ss.