(dp1
S'input'
p2
(dp3
S'encoded'
p4
(lp5
I64
aI2179
aI43
aI63
aI3376
aI4938
aI417
aI316
aI3537
asS'ori'
p6
S'This house believes that endangered species should be protected'
p7
ssS'output'
p8
(dp9
g4
(lp10
I75
aI3
aI320
aI398
aI7972
aI122
aI8226
aI620
aI2997
aI7
aI5420
aI8227
aI8228
aI8229
aI5
aI271
aI2997
aI226
aI1185
aI24
aI4955
aI4938
aI45
aI271
aI7025
aI382
aI759
aI7
aI3
aI8230
aI3309
aI5
aI8231
aI1235
aI7
aI6793
aI5245
aI3576
aI63765
asg6
S'By the early 19th century biogeography was ignited through efforts of Alexander von Humboldt  Lyell and Darwin; their efforts  while important in relating species to their environments  were part of the naturalist tradition and fell short of conservation biology proper .'
p11
ss.