(dp1
S'input'
p2
(dp3
S'encoded'
p4
(lp5
I64
aI2179
aI394
aI2017
aI262
asS'ori'
p6
S'This house would ban boxing'
p7
ssS'output'
p8
(dp9
g4
(lp10
I3375
aI24
aI262
aI223
aI3052
aI11
aI458
aI24
aI12349
aI459
aI63765
asg6
S'Except in boxing  all cases have occurred in athletes under age&nbsp;20  .'
p11
ss.