(dp1
S'input'
p2
(dp3
S'encoded'
p4
(lp5
I64
aI2179
aI43
aI8629
aI116
aI3
aI117
aI998
asS'ori'
p6
S'This house believes atheism is the only way'
p7
ssS'output'
p8
(dp9
g4
(lp10
I134
aI1967
aI99
aI41
aI51
aI4676
aI68
aI131
aI41
aI89
aI722
aI194
aI182
aI3148
aI99
aI24
aI777
aI131
aI75
aI1025
aI7
aI271
aI4645
aI45
aI248
aI194
aI73
aI4224
aI63765
asg6
S'it exists not as an objective fact  but as a subjective conception; things are evil not in themselves  but by reason of their relation to other things or persons .'
p11
ss.