(dp1
S'input'
p2
(dp3
S'encoded'
p4
(lp5
I64
aI2179
aI43
aI63
aI3
aI4990
aI4991
aI116
aI4850
aI24
aI12166
aI3
aI475
aI7
aI3532
aI3290
aI7
aI4714
asS'ori'
p6
S'This house believes that the Catholic Church is justified in forbidding the use of barrier methods of contraception'
p7
ssS'output'
p8
(dp9
g4
(lp10
I217
aI1445
aI14170
aI11
aI2591
aI45
aI3
aI2190
aI63
aI1069
aI611
aI45
aI3
aI312
aI7
aI3
aI398
aI63765
asg6
S'Most large manufacturers have ties to the business that reach back to the end of the 19th century .'
p11
ss.