(dp1
S'input'
p2
(dp3
S'encoded'
p4
(lp5
I64
aI2179
aI43
aI223
aI2138
aI11
aI89
aI21
aI45
aI2185
aI372
asS'ori'
p6
S'This house believes all nations have a right to nuclear weapons'
p7
ssS'output'
p8
(dp9
g4
(lp10
I41
aI3
aI4034
aI939
aI5958
aI1495
aI5190
aI2185
aI546
aI5145
aI1760
aI22077
aI11695
aI5092
aI134
aI4953
aI63
aI187
aI83
aI316
aI1031
aI843
aI45
aI13750
aI11695
aI73
aI2290
aI134
aI14
aI51
aI282
aI192
aI63765
asg6
S'As the commercially popular light water reactor nuclear power station uses enriched uranium fuel  it follows that states must be able either to enrich uranium or purchase it on an international market .'
p11
ss.