(dp1
S'input'
p2
(dp3
S'encoded'
p4
(lp5
I64
aI2179
aI43
aI63
aI134
aI116
aI400
aI21
aI34
aI3
aI260
aI45
aI3439
aI57
aI7
aI2381
asS'ori'
p6
S'This house believes that it is sometimes right for the government to restrict freedom of speech'
p7
ssS'output'
p8
(dp9
g4
(lp10
I3
aI39161
aI20225
aI1137
aI13526
aI1136
aI1137
aI12720
aI7
aI492
aI122
aI871
aI459
aI3
aI4169
aI3059
aI2306
aI24
aI75
aI3
aI41784
aI2359
aI81
aI2856
aI45
aI9388
aI3
aI2961
aI5
aI3018
aI1260
aI658
aI1593
aI63765
asg6
S'The loi sur la liberte de la presse of 29 July 1881 was passed under the French Third Republic in 1881 by the then-dominant Opportunist Republicans who sought to liberalise the press and promote free public discussion .'
p11
ss.