(dp1
S'input'
p2
(dp3
S'encoded'
p4
(lp5
I64
aI2179
aI43
aI63
aI6670
aI546
aI417
aI316
aI89
aI1334
aI3108
aI7
aI4849
aI1886
aI2855
asS'ori'
p6
S'This house believes that wind power should be a primary focus of future energy supply'
p7
ssS'output'
p8
(dp9
g4
(lp10
I100
aI6670
aI3552
aI11
aI186
aI63
aI24
aI3
aI33
aI611
aI588
aI5136
aI182
aI1483
aI982
aI204
aI24
aI164
aI6670
aI1886
aI5136
aI1191
aI3
aI1643
aI41
aI713
aI1379
aI546
aI63765
asg6
S'Some wind advocates have argue that in the pan-European case back up costs are quite low  resulting in overall wind energy costs about the same as present day power  .'
p11
ss.