(dp1
S'input'
p2
(dp3
S'encoded'
p4
(lp5
I64
aI2179
aI394
aI2773
aI12505
asS'ori'
p6
S'This house would embrace multiculturalism'
p7
ssS'output'
p8
(dp9
g4
(lp10
I3
aI4137
aI2130
aI14
aI12504
aI5
aI15310
aI685
aI14
aI492
aI75
aI3
aI3409
aI171
aI260
aI7
aI1405
aI2161
aI28516
aI10507
aI63765
aI32796
aI122
aI24
aI1849
aI45
aI3
aI21106
aI7
aI3716
aI24
aI3
aI10326
aI7
aI63765
asg6
S"The Royal Commission on Bilingualism and Biculturalism established on July 19  1963 by the Liberal Party government of Prime Minister Lester B . Pearson was in response to the grievances of Canada's French-speaking minority (concentrated in the Province of Quebec)  ."
p11
ss.