(dp1
S'input'
p2
(dp3
S'encoded'
p4
(lp5
I64
aI2179
aI394
aI117
aI7428
aI21151
aI34
aI11389
aI2042
aI24
aI4364
asS'ori'
p6
S'This house would only teach abstinence for sex education in schools'
p7
ssS'output'
p8
(dp9
g4
(lp10
I2756
aI23789
aI2318
aI2047
aI5
aI10121
aI10122
aI11
aI89
aI5971
aI2136
aI3278
aI34
aI5204
aI1191
aI11389
aI545
aI4364
aI63765
asg6
S'Indonesia  Mongolia  South Korea and Sri Lanka have a systematic policy framework for teaching about sex within schools .'
p11
ss.