(dp1
S'input'
p2
(dp3
S'encoded'
p4
(lp5
I64
aI2179
aI13605
aI2258
aI45
aI2194
asS'ori'
p6
S'This house prefers trade to aid'
p7
ssS'output'
p8
(dp9
g4
(lp10
I4358
aI24
aI3
aI2206
aI11
aI1902
aI12
aI10581
aI45
aI3222
aI2186
aI14065
aI864
aI7
aI2384
aI7
aI6784
aI26885
aI73
aI773
aI7479
aI75
aI17491
aI6941
aI63765
asg6
S'Students in the US have recently been reluctant to pursue technology careers out of fear of offshore outsourcing or being displaced by visa workers .'
p11
ss.