(dp1
S'input'
p2
(dp3
S'encoded'
p4
(lp5
I64
aI2179
aI394
aI4325
aI2042
aI270
aI89
aI11605
aI3324
asS'ori'
p6
S'This house would fund education using a voucher scheme'
p7
ssS'output'
p8
(dp9
g4
(lp10
I81
aI122
aI13168
aI3
aI11588
aI5
aI81
aI15981
aI3
aI1372
aI604
aI2233
aI15981
aI63765
aI63765
aI5110
aI1931
aI19
aI3
aI845
aI5
aI2233
aI1640
aI11588
aI1191
aI134
aI24
aI1523
aI7
aI17099
aI10950
aI63765
asg6
S"Who was talking the talk  and who walked the walk -- because I walked . . .I didn't run away from the issue  and I didn't just talk about it in front of Latino audiences ."
p11
ss.