(dp1
S'input'
p2
(dp3
S'encoded'
p4
(lp5
I64
aI2179
aI43
aI8629
aI116
aI3
aI117
aI998
asS'ori'
p6
S'This house believes atheism is the only way'
p7
ssS'output'
p8
(dp9
g4
(lp10
I44
aI45
aI14387
aI3
aI2802
aI459
aI132
aI12423
aI11
aI4284
aI12
aI93
aI7
aI3
aI1405
aI5046
aI7
aI38829
aI63765
asg6
S'Attempts to resolve the question under these contexts have historically been one of the prime concerns of theodicy .'
p11
ss.