(dp1
S'input'
p2
(dp3
S'encoded'
p4
(lp5
I64
aI2179
aI43
aI63
aI2157
aI2565
aI493
aI19084
aI382
aI4850
asS'ori'
p6
S"This house believes that Israel's 2008-2009 military operations against Gaza were justified"
p7
ssS'output'
p8
(dp9
g4
(lp10
I6054
aI5674
aI5
aI8759
aI2693
aI21599
aI5156
aI3
aI19084
aI2581
aI14
aI2394
aI9633
aI24
aI89
aI12048
aI7
aI3
aI966
aI63765
asg6
S'IDF infantry and armor units amassed near the Gaza border on December 28  engaging in a blockade of the strip . ]'
p11
ss.