(dp1
S'input'
p2
(dp3
S'encoded'
p4
(lp5
I64
aI2179
aI394
aI2017
aI3807
aI314
aI3433
asS'ori'
p6
S'This house would ban partial birth abortions'
p7
ssS'output'
p8
(dp9
g4
(lp10
I89
aI5971
aI3518
aI34
aI2176
aI7
aI3217
aI3714
aI75
aI3
aI150
aI19696
aI1851
aI34
aI1043
aI3217
aI353
aI63
aI3257
aI99
aI1043
aI3217
aI4779
aI63765
asg6
S'A systematic review for Department of Health (United Kingdom) conducted by the National Collaborating Centre for Mental Health found that abortion "did not raise" mental health risks .'
p11
ss.