(dp1
S'input'
p2
(dp3
S'encoded'
p4
(lp5
I64
aI2179
aI43
aI63
aI2157
aI2565
aI493
aI19084
aI382
aI4850
asS'ori'
p6
S"This house believes that Israel's 2008-2009 military operations against Gaza were justified"
p7
ssS'output'
p8
(dp9
g4
(lp10
I3
aI11169
aI2763
aI94
aI16619
aI2274
aI2493
aI100
aI7
aI3
aI7090
aI131
aI768
aI2820
aI285
aI2280
aI45
aI2773
aI134
aI63765
asg6
S"The militant Islamic group Hamas initially rejected some of the report's findings  but then urged world powers to embrace it  ."
p11
ss.