(dp1
S'input'
p2
(dp3
S'encoded'
p4
(lp5
I64
aI2179
aI394
aI190
aI3
aI21
aI45
aI3895
aI834
asS'ori'
p6
S'This house would limit the right to bear arms'
p7
ssS'output'
p8
(dp9
g4
(lp10
I223
aI8902
aI2144
aI5844
aI73
aI289
aI139
aI3465
aI7771
aI5
aI284
aI64
aI1380
aI7
aI1942
aI131
aI3930
aI55
aI45
aI316
aI4384
aI311
aI89
aI4444
aI8776
aI73
aI17234
aI545
aI3286
aI7
aI2290
aI257
aI2302
aI24
aI89
aI7955
aI3
aI7955
aI8093
aI86
aI366
aI1864
aI3
aI534
aI4304
aI63765
asg6
S'All Austrian citizens aged 18 or over can freely buy and own this type of weapon  but ownership has to be registered at a licensed dealer or gunsmith within 6 weeks of purchase (Typically  if bought in a store  the store registers them after doing the required background check) .'
p11
ss.