(dp1
S'input'
p2
(dp3
S'encoded'
p4
(lp5
I64
aI2179
aI394
aI2741
aI3
aI1560
aI6025
aI2784
asS'ori'
p6
S'This house would pass the American Jobs Act'
p7
ssS'output'
p8
(dp9
g4
(lp10
I97
aI2987
aI1230
aI51
aI8961
aI2896
aI2136
aI63
aI4696
aI3
aI3497
aI7
aI137
aI92
aI417
aI1476
aI376
aI2722
aI92
aI417
aI48
aI45
aI51
aI3226
aI24
aI2158
aI63765
asg6
S'Another intervention involves an expansionary monetary policy that increases the demand of money which should reduce interest rates which should lead to an increase in non-governmental spending  .'
p11
ss.