(dp1
S'input'
p2
(dp3
S'encoded'
p4
(lp5
I64
aI2179
aI43
aI24
aI3
aI475
aI7
aI12436
aI3364
asS'ori'
p6
S'This house believes in the use of affirmative action'
p7
ssS'output'
p8
(dp9
g4
(lp10
I3
aI8964
aI7
aI3
aI3098
aI63
aI12396
aI116
aI1472
aI5
aI3
aI852
aI116
aI6737
aI45
aI40
aI165
aI3
aI752
aI122
aI717
aI14
aI12379
aI958
aI138
aI14
aI6612
asg6
S'The profitability of the company that discriminates is decreased  and the loss is "directly proportional to how much the employer\'s decision was based on prejudice  rather than on merit ."'
p11
ss.