(dp1
S'input'
p2
(dp3
S'encoded'
p4
(lp5
I64
aI2179
aI394
aI5284
aI150
aI3987
asS'ori'
p6
S'This house would reintroduce national service'
p7
ssS'output'
p8
(dp9
g4
(lp10
I4766
aI7
aI2203
aI81
aI11
aI5639
aI5262
aI946
aI3
aI2809
aI5
aI2265
aI342
aI63
aI276
aI2218
aI2219
aI139
aI316
aI136
aI5132
aI138
aI89
aI2157
aI63765
asg6
S'Experiences of countries who have abolished draft  especially the USA and France  show that professional armed forces can be more expensive than a draft-based military .'
p11
ss.