(dp1
S'input'
p2
(dp3
S'encoded'
p4
(lp5
I64
aI2179
aI13605
aI2258
aI45
aI2194
asS'ori'
p6
S'This house prefers trade to aid'
p7
ssS'output'
p8
(dp9
g4
(lp10
I24
aI3
aI1257
aI7575
aI3
aI2194
aI3216
aI55
aI7884
aI579
aI63765
asg6
S'In the past decade  the aid environment has dramatically changed .'
p11
ss.