(dp1
S'input'
p2
(dp3
S'encoded'
p4
(lp5
I64
aI2179
aI43
aI63
aI2659
aI417
aI1690
aI3
aI12048
aI7
aI19084
asS'ori'
p6
S'This house believes that Israel should lift the blockade of Gaza'
p7
ssS'output'
p8
(dp9
g4
(lp10
I47
aI420
aI63765
aI8935
aI316
aI252
aI5084
aI63764
asg6
S"Will Mr . Erdogan's behavior be without cost ?"
p11
ss.