(dp1
S'input'
p2
(dp3
S'encoded'
p4
(lp5
I64
aI2179
aI43
aI63
aI134
aI116
aI400
aI21
aI34
aI3
aI260
aI45
aI3439
aI57
aI7
aI2381
asS'ori'
p6
S'This house believes that it is sometimes right for the government to restrict freedom of speech'
p7
ssS'output'
p8
(dp9
g4
(lp10
I24
aI481
aI492
aI3
aI2533
aI2227
aI89
aI2180
aI7
aI8308
aI45
aI5262
aI89
aI11558
aI717
aI14
aI3
aI2361
aI63
aI440
aI12
aI753
aI63765
asg6
S'In late July 1787  the convention appointed a Committee of Detail to draft a document based on the agreements that had been reached .'
p11
ss.