(dp1
S'input'
p2
(dp3
S'encoded'
p4
(lp5
I64
aI2179
aI43
aI63
aI2659
aI417
aI1690
aI3
aI12048
aI7
aI19084
asS'ori'
p6
S'This house believes that Israel should lift the blockade of Gaza'
p7
ssS'output'
p8
(dp9
g4
(lp10
I14
aI88
aI3
aI6056
aI5451
aI5768
aI51
aI2194
aI19184
aI7
aI1530
aI2414
aI1047
aI41
aI3
aI57
aI63765
aI1652
aI45
aI1746
aI620
aI3
aI12048
aI63765
aI3
aI19096
aI440
aI3350
aI51
aI6056
aI8734
aI45
aI1546
aI2346
aI45
aI3
aI11571
aI7
aI19185
aI53
aI3
aI6056
aI260
aI440
aI742
aI134
aI394
aI14424
aI3
aI2194
aI5
aI1709
aI8196
aI2893
aI2142
aI2930
aI45
aI19084
aI63765
aI6056
aI19186
aI2348
aI19187
aI19188
aI3
aI2414
aI19
aI19189
aI5
aI8715
aI7233
aI19
aI292
aI2950
aI2414
aI63765
aI14
aI3
aI19190
aI19191
aI10318
aI3
aI1410
aI15185
aI7
aI3
aI19184
aI18471
aI19192
aI3156
aI3
aI12878
aI60
aI19193
aI372
aI5
aI3281
aI4477
aI158
aI19
aI1374
aI5768
aI19
aI2377
aI63765
aI18471
aI1971
aI45
aI4180
aI292
aI2377
aI63765
aI366
aI11388
aI45
aI11969
aI3
aI3727
aI270
aI258
aI3
aI2377
aI5887
aI45
aI3281
aI4477
aI63765
aI14
aI248
aI2414
aI2377
aI382
aI5898
aI60
aI6979
aI5904
aI92
aI122
aI1398
aI16114
aI60
aI8008
aI63765
aI2596
aI18471
aI382
aI3178
aI5
aI4752
aI11166
aI63765
aI2596
aI2377
aI382
aI174
aI993
aI267
aI7
aI86
aI992
aI63765
aI223
aI7
aI3
aI2414
aI382
aI5768
aI5
aI19194
aI45
aI19185
aI226
aI18471
aI382
aI9928
aI24
aI2659
aI5
aI768
aI18264
aI45
aI271
aI3900
aI2203
aI63765
aI3
aI19190
aI19195
aI19196
aI89
aI8198
aI15185
aI63
aI440
aI12
aI3363
aI1629
aI1958
aI19
aI6110
aI14
aI3
aI1643
aI1379
aI7
aI3
aI19197
aI63765
aI6056
aI2348
aI11574
aI19198
aI3
aI19195
aI19196
aI5
aI366
aI134
aI3192
aI292
aI846
aI6056
aI19187
aI19188
aI3
aI15185
aI19
aI19189
aI9249
aI3
aI8416
aI5
aI5175
aI134
aI45
aI1958
aI45
aI19185
asg6
S'On 31 May 2010 the Israeli Navy seized an aid convoy of six ships known as the "Gaza Freedom Flotilla"  . aiming to break through the blockade . The flotilla had declined an Israeli request to change course to the port of Ashdod  where the Israeli government had said it would inspect the aid and deliver (or let humanitarian organizations deliver) Israeli-approved items to Gaza  .   Israeli Shayetet 13 naval commandos boarded the ships from speedboats and helicopters launched from three missile ships . On the MV Mavi Marmara  the main ship of the convoy  passengers fiercely resisted the boarding with makeshift weapons and live fire  including from guns seized from soldiers . Passengers managed to capture three soldiers  . After failing to disperse the activists using non-lethal means  the soldiers resorted to live fire . On other ships  soldiers were met with passive resistance which was easily suppressed with non-lethal techniques . Nine passengers were killed and dozens wounded . Nine soldiers were also injured  two of them seriously . All of the ships were seized and towed to Ashdod  while passengers were imprisoned in Israel and then deported to their home countries  .  The MV Rachel Corrie  a seventh ship that had been delayed  set sail from Malta on the same day of the flotilla\'s interception . Israeli naval vessels shadowed the Rachel Corrie  and after it ignored three warnings  Israeli commandos boarded the ship from speedboats  arrested the crew  and forced it to sail to Ashdod '
p11
ss.