(dp1
S'input'
p2
(dp3
S'encoded'
p4
(lp5
I64
aI2179
aI394
aI2773
aI12505
asS'ori'
p6
S'This house would embrace multiculturalism'
p7
ssS'output'
p8
(dp9
g4
(lp10
I134
aI139
aI174
aI1074
aI3
aI1361
aI63
aI3
aI10
aI116
aI7
aI1334
aI596
aI73
aI3
aI1361
aI63
aI93
aI10
aI116
aI1355
aI1377
aI45
aI223
aI248
aI187
aI63765
asg6
S'It can also include the belief that the state is of primary importance  or the belief that one state is naturally superior to all other states  .'
p11
ss.