(dp1
S'input'
p2
(dp3
S'encoded'
p4
(lp5
I64
aI2179
aI43
aI63
aI1036
aI4828
aI33250
aI116
aI25073
aI45
aI3315
aI4562
asS'ori'
p6
S'This house believes that male infant circumcision is tantamount to child abuse'
p7
ssS'output'
p8
(dp9
g4
(lp10
I34794
aI440
aI20153
aI3
aI1485
aI887
aI380
aI34836
aI2138
aI24
aI3
aI398
aI15560
aI5
aI34642
aI440
aI4555
aI2174
aI33250
aI41
aI89
aI3309
aI887
aI9876
aI24
aI3
aI237
aI398
aI23670
aI63765
asg6
S'Herodotus had noticed the practice among various Semite nations in the 5th century BCE  and Josephus had specifically mentioned circumcision as a tradition among Arabs in the first century CE  .'
p11
ss.