(dp1
S'input'
p2
(dp3
S'encoded'
p4
(lp5
I64
aI2179
aI394
aI2017
aI262
asS'ori'
p6
S'This house would ban boxing'
p7
ssS'output'
p8
(dp9
g4
(lp10
I7823
aI3
aI7184
aI532
aI7
aI477
aI534
aI45
aI1835
aI64
aI723
aI116
aI4374
aI6278
aI638
aI51
aI1263
aI945
aI87
aI217
aI1369
aI139
aI117
aI1049
aI134
aI34
aI89
aI1240
aI8418
aI639
aI7
aI413
aI63765
asg6
S'Sustaining the adequate amount of training required to execute this style is nearly impossible throughout an entire career  so most Swarmers can only maintain it for a relatively brief period of time .'
p11
ss.