(dp1
S'input'
p2
(dp3
S'encoded'
p4
(lp5
I64
aI2179
aI43
aI63
aI2157
aI2565
aI493
aI19084
aI382
aI4850
asS'ori'
p6
S"This house believes that Israel's 2008-2009 military operations against Gaza were justified"
p7
ssS'output'
p8
(dp9
g4
(lp10
I3
aI21
aI45
aI1298
aI63
aI2468
aI258
aI182
aI237
aI6601
aI751
aI14558
aI45
aI2157
aI972
aI4722
aI2659
aI99
aI113
aI14731
aI1864
asg6
S'the right to self-defence requires that peaceful means are first exhausted before resorting to military force  something Israel "did not even contemplate doing'
p11
ss.