(dp1
S'input'
p2
(dp3
S'encoded'
p4
(lp5
I64
aI2179
aI394
aI4261
aI8667
aI3
aI9361
aI5
aI17069
asS'ori'
p6
S'This house would prohibit burning the stars and stripes'
p7
ssS'output'
p8
(dp9
g4
(lp10
I187
aI440
aI89
aI3466
aI376
aI24
aI3462
aI89
aI21182
aI150
aI3997
asg6
S'states had a compelling interest in preserving a venerated national symbol'
p11
ss.