(dp1
S'input'
p2
(dp3
S'encoded'
p4
(lp5
I64
aI2179
aI43
aI63
aI6670
aI546
aI417
aI316
aI89
aI1334
aI3108
aI7
aI4849
aI1886
aI2855
asS'ori'
p6
S'This house believes that wind power should be a primary focus of future energy supply'
p7
ssS'output'
p8
(dp9
g4
(lp10
I3
aI16632
aI291
aI2322
aI6695
aI6696
aI5
aI2148
aI6850
aI116
aI261
aI1348
aI114
aI8306
aI7271
aI269
aI132
aI7090
aI63765
asg6
S'The linkage between increased carbon dioxide and global warming is well accepted  though fossil-fuel producers vigorously contest these findings .'
p11
ss.