(dp1
S'input'
p2
(dp3
S'encoded'
p4
(lp5
I64
aI2179
aI394
aI60
aI23587
asS'ori'
p6
S'This house would re-engage with Myanmar'
p7
ssS'output'
p8
(dp9
g4
(lp10
I100
aI16983
aI5
aI3495
aI2428
aI45
aI316
aI11293
aI81
aI440
aI12
aI17121
aI397
aI759
aI7
aI3
aI8870
aI14
aI14153
aI382
aI4230
aI11005
aI5047
aI63765
asg6
S"Some 80 monks and 149 women thought to be nuns  who had been detained during part of the military's crackdown on protesters  were freed  Reuters reported  ."
p11
ss.