(dp1
S'input'
p2
(dp3
S'encoded'
p4
(lp5
I64
aI2179
aI43
aI63
aI3
aI4990
aI4991
aI116
aI4850
aI24
aI12166
aI3
aI475
aI7
aI3532
aI3290
aI7
aI4714
asS'ori'
p6
S'This house believes that the Catholic Church is justified in forbidding the use of barrier methods of contraception'
p7
ssS'output'
p8
(dp9
g4
(lp10
I3
aI237
aI18884
aI21152
aI122
aI104
aI24
aI5
aI75
aI3
aI481
aI1237
aI281
aI18884
aI6228
aI382
aI4256
aI6713
aI887
aI248
aI2930
aI18884
aI7332
aI63765
asg6
S'The first rubber condom was produced in 1855  and by the late 1850s several major rubber companies were mass producing  among other items  rubber condoms .'
p11
ss.