(dp1
S'input'
p2
(dp3
S'encoded'
p4
(lp5
I64
aI2179
aI43
aI63
aI134
aI116
aI400
aI21
aI34
aI3
aI260
aI45
aI3439
aI57
aI7
aI2381
asS'ori'
p6
S'This house believes that it is sometimes right for the government to restrict freedom of speech'
p7
ssS'output'
p8
(dp9
g4
(lp10
I378
aI2985
aI186
aI63
aI2022
aI417
aI316
aI2853
aI75
aI120
aI81
aI2818
aI4934
aI73
aI7838
aI34
aI1343
aI8579
aI4526
aI63765
asg6
S'However  critics argue that society should be concerned by those who directly deny or advocate  for example  genocide (see Limitations  below)  .'
p11
ss.