(dp1
S'input'
p2
(dp3
S'encoded'
p4
(lp5
I64
aI2179
aI394
aI2017
aI628
asS'ori'
p6
S'This house would ban gambling'
p7
ssS'output'
p8
(dp9
g4
(lp10
I34
aI159
aI89
aI5930
aI3
aI1432
aI7
aI773
aI89
aI34154
aI744
aI116
aI24
aI63765
asg6
S'For such a lottery  the chance of being a jackpot winner is 1 in 13 983 816 .'
p11
ss.