(dp1
S'input'
p2
(dp3
S'encoded'
p4
(lp5
I64
aI2179
aI235
aI839
aI4168
aI7
aI4996
aI34759
asS'ori'
p6
S'This house supports direct election of city mayors'
p7
ssS'output'
p8
(dp9
g4
(lp10
I24
aI1485
aI3
aI8828
aI937
aI900
aI4914
aI87
aI217
aI34759
aI11
aI2168
aI45
aI27786
aI45
aI89
aI419
aI913
aI61028
aI311
aI223
aI63765
asg6
S'In practice  the mayor remains personally accountable  so most mayors have chosen to delegate to a very limited extentif at all .'
p11
ss.