(dp1
S'input'
p2
(dp3
S'encoded'
p4
(lp5
I64
aI2179
aI394
aI2017
aI223
aI9058
aI23653
asS'ori'
p6
S'This house would ban all unsustainable logging'
p7
ssS'output'
p8
(dp9
g4
(lp10
I7809
aI139
aI521
aI6669
aI960
aI971
aI24
aI100
aI3052
aI45
aI521
aI5989
aI45
aI2796
asg6
S'deforestation can cause environmental damage sufficient in some cases to cause societies to collapse'
p11
ss.