(dp1
S'input'
p2
(dp3
S'encoded'
p4
(lp5
I64
aI2179
aI43
aI63
aI3
aI4991
aI7
aI180
aI417
aI316
aI5396
aI19
aI3
aI169
aI10
asS'ori'
p6
S'This house believes that the Church of England should be separated from the British state'
p7
ssS'output'
p8
(dp9
g4
(lp10
I24
aI2390
aI12110
aI45
aI159
aI6000
aI4766
aI41
aI3
aI31430
aI3028
aI3
aI6426
aI3151
aI171
aI440
aI443
aI2436
aI2202
aI60
aI3
aI6253
aI34
aI289
aI2642
aI89
aI398
aI5
aI383
aI6080
aI7
aI3
aI4991
aI19
aI10
aI2181
aI5
aI1381
aI3
aI6426
aI3290
aI182
aI2580
aI75
aI3
aI6253
aI6359
aI9630
aI440
aI1348
aI3
aI10697
aI7
aI89
aI4213
aI81
aI122
aI75
aI3
aI260
aI34
aI3
aI6426
aI4060
aI4990
aI2016
aI24
aI378
aI89
aI667
aI10697
aI7
aI89
aI4990
aI4213
aI24
aI1906
aI233
aI45
aI10619
aI2935
aI55
aI2874
aI45
aI291
aI2390
aI5
aI3
aI6253
aI63765
asg6
S'In post-1949 modern-day China  owing to such historic experiences as the Taiping Rebellion  the Chinese Communist Party had no diplomatic relations with the Vatican for over half a century  and maintained separation of the church from state affairs  and although the Chinese government\'s methods are disputed by the Vatican  Pope Benedict had accepted the ordination of a bishop who was pre-selected by the government for the Chinese Patriotic Catholic Association in 2007  however a new ordination of a Catholic bishop in November 2010 according to BBC News  has threatened to "damage ties" between China and the Vatican  .'
p11
ss.