(dp1
S'input'
p2
(dp3
S'encoded'
p4
(lp5
I64
aI2179
aI43
aI63
aI187
aI417
aI99
aI16642
aI3
aI6449
aI7
aI3935
asS'ori'
p6
S'This house believes that states should not subsidize the growing of tobacco'
p7
ssS'output'
p8
(dp9
g4
(lp10
I233
aI45
aI2809
aI2643
aI78
aI81
aI14836
aI1495
aI19269
aI440
aI863
aI1727
aI3
aI2038
aI7
aI14834
aI5057
aI7
aI63765
asg6
S'According to USA Today  people who smoked water pipes had five times the risk of lung cancer of non-smokers  .'
p11
ss.