(dp1
S'input'
p2
(dp3
S'encoded'
p4
(lp5
I64
aI2179
aI394
aI163
aI959
aI2042
aI3557
asS'ori'
p6
S'This house would make physical education compulsory'
p7
ssS'output'
p8
(dp9
g4
(lp10
I3406
aI3
aI4367
aI34
aI4368
aI708
aI5
aI2466
aI3
aI444
aI7
aI3
aI2548
aI2333
aI24
aI60
aI3
aI2028
aI7
aI8813
aI150
aI703
aI14
aI3
aI16329
aI7943
aI63765
asg6
S'Additionally  the Centers for Disease Control and Prevention co-hosted the first-ever Weight of the Nation Conference in 2009 with the goal of focusing national attention on the obesity epidemic  .'
p11
ss.