(dp1
S'input'
p2
(dp3
S'encoded'
p4
(lp5
I64
aI2179
aI394
aI5370
aI3
aI5286
asS'ori'
p6
S'This house would abolish the monarchy'
p7
ssS'output'
p8
(dp9
g4
(lp10
I134
aI116
aI117
aI2917
aI257
aI3
aI5286
aI835
aI3580
aI546
aI92
aI134
aI923
aI98
aI99
aI41
aI260
aI1834
aI60
aI4679
aI63765
asg6
S'It is only undemocratic if the monarchy holds meaningful power  which it currently does not as government rests with Parliament .'
p11
ss.