(dp1
S'input'
p2
(dp3
S'encoded'
p4
(lp5
I64
aI2179
aI43
aI8629
aI116
aI3
aI117
aI998
asS'ori'
p6
S'This house believes atheism is the only way'
p7
ssS'output'
p8
(dp9
g4
(lp10
I9776
aI11
aI174
aI4673
aI3073
aI6909
aI63
aI273
aI116
aI89
aI4704
aI291
aI2767
aI14586
aI5
aI18835
aI2382
aI2382
aI116
aI557
aI604
aI134
aI948
aI18836
aI3053
aI18834
aI5
aI12379
aI63765
asg6
S'Atheists have also cited data showing that there is a correlation between religious fundamentalism and extrinsic religion (when religion is held because it serves ulterior interests)and authoritarianism  dogmatism  and prejudice  .'
p11
ss.