(dp1
S'input'
p2
(dp3
S'encoded'
p4
(lp5
I64
aI2179
aI43
aI3
aI2206
aI116
aI4850
aI24
aI270
aI972
aI45
aI881
aI187
aI19
aI10443
aI2185
aI372
asS'ori'
p6
S'This house believes the US is justified in using force to prevent states from acquiring nuclear weapons'
p7
ssS'output'
p8
(dp9
g4
(lp10
I378
aI100
aI3238
aI186
aI63
aI89
aI2136
aI7
aI6311
aI226
aI1864
aI194
aI1180
aI45
aI3
aI6311
aI122
aI2867
aI24
aI3
aI2498
aI7
aI16590
aI5
aI2385
aI1456
aI730
aI493
aI3
aI9006
aI7
aI4485
aI5
aI16591
aI63765
asg6
S'However  some defenders argue that a policy of rhetoric while doing things counter to the rhetoric was necessary in the sense of realpolitik and helped secure victory against the dangers of tyranny and totalitarianism  .'
p11
ss.