(dp1
S'input'
p2
(dp3
S'encoded'
p4
(lp5
I64
aI2179
aI43
aI63
aI134
aI116
aI400
aI21
aI34
aI3
aI260
aI45
aI3439
aI57
aI7
aI2381
asS'ori'
p6
S'This house believes that it is sometimes right for the government to restrict freedom of speech'
p7
ssS'output'
p8
(dp9
g4
(lp10
I717
aI14
aI495
aI3384
aI57
aI7
aI2381
aI116
aI4635
aI41
aI89
aI21
aI63
aI1501
aI99
aI117
aI3
aI21
aI45
aI6564
aI73
aI16847
aI5224
aI5
aI7208
aI131
aI292
aI1706
aI1261
aI21
aI45
aI3742
aI5224
aI5
aI21
aI45
aI6750
aI5224
aI5
aI21
aI45
aI7207
aI5224
aI5
aI7208
aI63765
asg6
S"Based on John Milton's arguments  freedom of speech is understood as a multi-faceted right that includes not only the right to express  or disseminate  information and ideas  but three further distinct aspects:the right to seek information and ideas;the right to receive information and ideas;the right to impart information and ideas  ."
p11
ss.