(dp1
S'input'
p2
(dp3
S'encoded'
p4
(lp5
I64
aI2179
aI43
aI24
aI3
aI475
aI7
aI12436
aI3364
asS'ori'
p6
S'This house believes in the use of affirmative action'
p7
ssS'output'
p8
(dp9
g4
(lp10
I134
aI88
aI1569
aI19
aI2511
aI63
aI991
aI12421
aI7
aI5650
aI717
aI14
aI12420
aI5005
aI3369
aI2230
aI5304
aI45
aI10163
aI7
aI12073
aI5175
aI1400
aI6015
aI5
aI5878
aI7102
aI63765
asg6
S'It may vary from laws that stop refusals of hiring based on nationality  asking questions regarding origin  to prohibitions of firing  forced retirement  compensation and pay  etc .'
p11
ss.