(dp1
S'input'
p2
(dp3
S'encoded'
p4
(lp5
I64
aI2179
aI43
aI63
aI2157
aI2565
aI493
aI19084
aI382
aI4850
asS'ori'
p6
S"This house believes that Israel's 2008-2009 military operations against Gaza were justified"
p7
ssS'output'
p8
(dp9
g4
(lp10
I3269
aI459
aI11995
aI4477
aI400
aI2425
aI45
aI4764
aI19115
aI19
aI2731
aI63765
aI4764
aI19115
aI122
aI7745
aI14542
aI60
aI3
aI11560
aI7
aI2760
aI26850
aI159
aI41
aI7071
aI7928
aI5
aI2356
asg6
S'life under rocket fire sometimes led to cognitive disengagement from threat . Cognitive disengagement was positively correlated with the likelihood of developing pathologies such as post-traumatic stress disorder and depression '
p11
ss.