(dp1
S'input'
p2
(dp3
S'encoded'
p4
(lp5
I64
aI2179
aI394
aI2017
aI262
asS'ori'
p6
S'This house would ban boxing'
p7
ssS'output'
p8
(dp9
g4
(lp10
I872
aI7
aI132
aI873
aI131
aI279
aI397
aI3
aI320
aI398
aI24
aI874
aI875
aI89
aI752
aI876
aI316
aI221
aI366
aI89
aI443
aI752
aI313
aI440
aI754
aI63765
asg6
S'Unheard of these days  but common during the early 20th Century in North America  a "newspaper decision (NWS)" might be made after a no decision bout had ended .'
p11
ss.