(dp1
S'input'
p2
(dp3
S'encoded'
p4
(lp5
I64
aI2179
aI394
aI5842
aI3569
aI446
aI13498
asS'ori'
p6
S'This house would introduce year round schooling'
p7
ssS'output'
p8
(dp9
g4
(lp10
I638
aI4232
aI2300
aI4748
aI79
aI24
aI2574
aI60
aI2240
aI11617
aI45
aI124
aI256
aI34
aI4358
aI63765
asg6
S'Throughout Southern California  non-profit providers work in partnership with school districts to provide after-school programs for k-12 students .'
p11
ss.