(dp1
S'input'
p2
(dp3
S'encoded'
p4
(lp5
I64
aI2179
aI43
aI63
aI6670
aI546
aI417
aI316
aI89
aI1334
aI3108
aI7
aI4849
aI1886
aI2855
asS'ori'
p6
S'This house believes that wind power should be a primary focus of future energy supply'
p7
ssS'output'
p8
(dp9
g4
(lp10
I53
aI7640
aI5126
aI2879
aI139
aI316
aI12298
aI3
aI5126
aI116
aI416
aI45
aI5110
aI89
aI5126
aI5105
aI63765
asg6
S'Where underground steam sources can be tapped  the steam is used to run a steam turbine .'
p11
ss.