(dp1
S'input'
p2
(dp3
S'encoded'
p4
(lp5
I64
aI2179
aI394
aI190
aI3
aI21
aI45
aI3895
aI834
asS'ori'
p6
S'This house would limit the right to bear arms'
p7
ssS'output'
p8
(dp9
g4
(lp10
I3
aI4169
aI4176
aI4177
aI63
aI4178
aI122
aI89
aI4179
aI2497
aI3505
aI45
aI4180
aI89
aI667
aI2096
aI63765
asg6
S'The French commentator confessed that individualism was a novel term coined to capture a new idea .'
p11
ss.