(dp1
S'input'
p2
(dp3
S'encoded'
p4
(lp5
I64
aI2179
aI43
aI63
aI134
aI116
aI400
aI21
aI34
aI3
aI260
aI45
aI3439
aI57
aI7
aI2381
asS'ori'
p6
S'This house believes that it is sometimes right for the government to restrict freedom of speech'
p7
ssS'output'
p8
(dp9
g4
(lp10
I223
aI2132
aI7
aI323
aI2544
aI187
aI182
aI171
aI45
aI3
aI2533
aI5
aI667
aI2789
aI182
aI4666
aI45
aI16585
aI3
aI2533
aI311
aI3
aI349
aI511
aI63765
asg6
S'All Council of Europe member states are party to the Convention and new members are expected to ratify the convention at the earliest opportunity  .'
p11
ss.