(dp1
S'input'
p2
(dp3
S'encoded'
p4
(lp5
I64
aI2179
aI43
aI63
aI2659
aI417
aI1690
aI3
aI12048
aI7
aI19084
asS'ori'
p6
S'This house believes that Israel should lift the blockade of Gaza'
p7
ssS'output'
p8
(dp9
g4
(lp10
I120
aI713
aI311
aI3
aI12318
aI8672
aI2100
aI29843
aI6663
aI29844
aI5
aI1314
aI16948
aI15
aI7
aI4895
aI6087
aI5462
aI440
aI12090
aI19
aI3634
aI3
aI19096
aI41
aI261
aI41
aI4138
aI8828
aI7
aI12318
aI30024
aI5414
aI63765
asg6
S'Those present at the Dublin protest included Aengus O Snodaigh and Chris Andrews  both of whom Cypriot authorities had prevented from joining the flotilla  as well as Lord Mayor of Dublin Emer Costello  .'
p11
ss.