(dp1
S'input'
p2
(dp3
S'encoded'
p4
(lp5
I64
aI2179
aI394
aI2017
aI3807
aI314
aI3433
asS'ori'
p6
S'This house would ban partial birth abortions'
p7
ssS'output'
p8
(dp9
g4
(lp10
I653
aI211
aI179
aI63
aI225
aI45
aI10008
aI3
aI3217
aI7
aI3
aI3
aI3304
aI1501
aI3
aI1592
aI63765
asg6
S'Despite its finding that "partial-birth abortion. is. unnecessary to preserve the health of the mother"  the statute includes the following provision:  .'
p11
ss.