(dp1
S'input'
p2
(dp3
S'encoded'
p4
(lp5
I64
aI2179
aI43
aI63
aI3
aI21
aI45
aI12715
aI417
aI99
aI316
aI2897
asS'ori'
p6
S'This house believes that the right to asylum should not be absolute'
p7
ssS'output'
p8
(dp9
g4
(lp10
I3
aI2610
aI3987
aI24990
aI60
aI3
aI8446
aI96
aI2142
aI81
aI2630
aI45
aI124
aI96
aI73
aI124
aI7093
aI131
aI273
aI122
aI443
aI244
aI282
aI1039
aI45
aI3
aI13516
aI7
aI7477
aI63765
asg6
S'The Immigration Service cooperated with the Jewish support organizations who worked to provide support or provide sponsors but there was no agreed international approach to the handling of refugees .'
p11
ss.