(dp1
S'input'
p2
(dp3
S'encoded'
p4
(lp5
I64
aI2179
aI43
aI63
aI2659
aI417
aI1690
aI3
aI12048
aI7
aI19084
asS'ori'
p6
S'This house believes that Israel should lift the blockade of Gaza'
p7
ssS'output'
p8
(dp9
g4
(lp10
I332
aI4155
aI24
aI3
aI19084
aI966
aI60
aI15
aI9303
aI1889
aI4503
aI5
aI4678
aI7
aI3
aI248
aI823
aI63765
asg6
S'Fighting spread in the Gaza Strip with both factions attacking vehicles and facilities of the other side .'
p11
ss.