(dp1
S'input'
p2
(dp3
S'encoded'
p4
(lp5
I64
aI2179
aI43
aI24
aI3
aI475
aI7
aI12436
aI3364
asS'ori'
p6
S'This house believes in the use of affirmative action'
p7
ssS'output'
p8
(dp9
g4
(lp10
I378
aI132
aI3224
aI182
aI153
aI5175
aI45
aI1026
aI78
aI717
aI14
aI8136
aI5231
aI45
aI1292
aI4933
aI75
aI1718
aI10530
aI81
aI206
aI89
aI23573
aI2597
aI63
aI182
aI246
aI637
aI2195
aI45
aI7933
aI3645
aI14
aI1799
aI2190
aI9247
aI24263
aI73
aI3987
aI4748
aI63765
asg6
S'However  these businesses are often forced to employ people based on skin colour to avoid discrimination by potential clients  who (if having a turnover larger that R5m) are generally still subject to BEE regulations on choosing business partners  suppliers or service providers .'
p11
ss.