(dp1
S'input'
p2
(dp3
S'encoded'
p4
(lp5
I64
aI2179
aI43
aI223
aI2138
aI11
aI89
aI21
aI45
aI2185
aI372
asS'ori'
p6
S'This house believes all nations have a right to nuclear weapons'
p7
ssS'output'
p8
(dp9
g4
(lp10
I11524
aI5
aI11522
aI382
aI5175
aI45
aI163
aI11525
aI45
aI3
aI6327
aI63
aI3
aI2940
aI394
aI99
aI316
aI7476
aI60
aI2185
aI11521
aI14
aI2692
aI2295
aI5
aI63
aI3
aI626
aI187
aI394
aI11
aI45
aI11526
aI60
aI3
aI1263
aI260
aI751
aI5198
aI2185
aI372
aI736
aI2371
aI63765
asg6
S'Okazaki and Hatoyama were forced to make assurances to the Diet that the missiles would not be equipped with nuclear warheads on Japanese territory  and that the United States would have to consult with the entire government before introducing nuclear weapons into Japan .'
p11
ss.