(dp1
S'input'
p2
(dp3
S'encoded'
p4
(lp5
I64
aI2179
aI43
aI63
aI2659
aI417
aI1690
aI3
aI12048
aI7
aI19084
asS'ori'
p6
S'This house believes that Israel should lift the blockade of Gaza'
p7
ssS'output'
p8
(dp9
g4
(lp10
I5
aI63
aI29739
aI3211
aI116
aI3
aI29740
aI7
aI3
aI4835
aI972
aI7
aI4485
aI92
aI55
aI11556
aI24
aI3
aI1257
aI2439
aI1021
aI45
aI3
aI1006
aI368
aI96
aI45
aI3
aI27161
aI3324
aI5
aI1021
aI45
aI3
aI1986
aI22
aI10440
aI7
aI100
aI6048
aI3199
aI63765
asg6
S'And that "this atrocious crime is the materialization of the inherent force of tyranny which has escalated in the past years due to the unlimited Western support to the Zionist scheme  and due to the wrong political bargaining of some Arab regimes .'
p11
ss.