(dp1
S'input'
p2
(dp3
S'encoded'
p4
(lp5
I64
aI2179
aI43
aI63
aI3376
aI4938
aI417
aI316
aI3537
asS'ori'
p6
S'This house believes that endangered species should be protected'
p7
ssS'output'
p8
(dp9
g4
(lp10
I75
aI3
aI320
aI3707
aI2326
aI5
aI211
aI536
aI2204
aI5076
aI63765
aI14145
aI22491
aI5
aI248
aI2645
aI6793
aI6834
aI311
aI3
aI413
aI24
aI875
aI5468
aI3
aI475
aI7
aI63765
asg6
S'By the early 1980s TNC\'s Science program and its head  Robert E . Jenkins  Lovejoy and other leading conservation scientists at the time in America advocated the use of "biological diversity" .'
p11
ss.