(dp1
S'input'
p2
(dp3
S'encoded'
p4
(lp5
I64
aI2179
aI43
aI24
aI3
aI475
aI7
aI12436
aI3364
asS'ori'
p6
S'This house believes in the use of affirmative action'
p7
ssS'output'
p8
(dp9
g4
(lp10
I3
aI33807
aI14655
aI382
aI2566
aI864
aI75
aI89
aI94
aI1047
aI41
aI1012
aI21187
aI8275
aI16993
aI94
aI7
aI3
aI2548
aI7
aI63
aI1881
aI45
aI2011
aI5948
aI45
aI4155
aI2928
aI5
aI8680
aI1561
aI5
aI2554
aI545
aI271
aI10015
aI63765
asg6
S'The Zebra murders were carried out by a group known as Death Angels (a radical splinter group of the Nation of Islam) that intended to kill whites to spread terror and earn favor and status within their sect .'
p11
ss.