(dp1
S'input'
p2
(dp3
S'encoded'
p4
(lp5
I64
aI2179
aI394
aI5370
aI3
aI5286
asS'ori'
p6
S'This house would abolish the monarchy'
p7
ssS'output'
p8
(dp9
g4
(lp10
I3
aI5305
aI174
aI25785
aI311
aI3
aI27793
aI7
aI3
aI667
aI6113
aI5685
aI972
aI63765
asg6
S'The Crown also sits at the pinnacle of the New Zealand Defence Force .'
p11
ss.