(dp1
S'input'
p2
(dp3
S'encoded'
p4
(lp5
I64
aI2179
aI43
aI63
aI1036
aI4828
aI33250
aI116
aI25073
aI45
aI3315
aI4562
asS'ori'
p6
S'This house believes that male infant circumcision is tantamount to child abuse'
p7
ssS'output'
p8
(dp9
g4
(lp10
I3
aI12716
aI2173
aI63
aI3
aI727
aI7
aI3
aI292
aI36988
aI706
aI8860
aI768
aI6724
aI394
aI3082
aI124
aI2888
aI350
aI1191
aI3
aI4658
aI7
aI33250
aI41
aI51
aI9583
aI2987
aI63765
asg6
S'The authors stated that the results of the three randomised controlled trials then underway would therefore provide essential evidence about the effects of circumcision as an HIV intervention  .'
p11
ss.