(dp1
S'input'
p2
(dp3
S'encoded'
p4
(lp5
I64
aI2179
aI394
aI2017
aI3807
aI314
aI3433
asS'ori'
p6
S'This house would ban partial birth abortions'
p7
ssS'output'
p8
(dp9
g4
(lp10
I5012
aI4099
aI3621
aI366
aI3433
aI182
aI6418
aI5
aI139
aI1059
aI316
aI4635
aI24
aI3
aI3278
aI7
aI23007
aI60
aI1876
aI3269
aI7071
aI63765
asg6
S'Severe negative reactions after abortions are rare and can best be understood in the framework of coping with normal life stress .'
p11
ss.