(dp1
S'input'
p2
(dp3
S'encoded'
p4
(lp5
I64
aI2179
aI13605
aI2258
aI45
aI2194
asS'ori'
p6
S'This house prefers trade to aid'
p7
ssS'output'
p8
(dp9
g4
(lp10
I34
aI1343
aI6574
aI122
aI3
aI2913
aI2696
aI24
aI2404
aI298
aI134
aI4867
aI2776
aI63765
asg6
S'For example  Ghana was the richest country in Africa when it obtained independence .'
p11
ss.