(dp1
S'input'
p2
(dp3
S'encoded'
p4
(lp5
I64
aI2179
aI394
aI16642
aI1376
aI5269
asS'ori'
p6
S'This house would subsidize poor communities'
p7
ssS'output'
p8
(dp9
g4
(lp10
I24
aI41
aI759
aI7
aI89
aI10
aI260
aI55534
aI24
aI4645
aI45
aI8246
aI3596
aI3
aI59523
aI382
aI4626
aI2488
aI3930
aI7
aI3
aI7308
aI7
aI3
aI59528
aI59529
aI59523
aI768
aI685
aI131
aI24
aI382
aI5676
aI45
aI2572
aI64
aI60
aI100
aI59530
aI5
aI59531
aI3919
aI768
aI4626
aI6082
aI2446
aI63765
asg6
S'In 1972  as part of a state government manoeuvre in relation to timber extraction  the Lacandones were granted formal ownership of the 614 000 hectares of the Bienes Comunales Lacandones then established  but in 1978 were obliged to share this with some 15 000 Tzeltal and Chol settlers then granted communal rights .'
p11
ss.