(dp1
S'input'
p2
(dp3
S'encoded'
p4
(lp5
I64
aI2179
aI43
aI63
aI187
aI417
aI99
aI16642
aI3
aI6449
aI7
aI3935
asS'ori'
p6
S'This house believes that states should not subsidize the growing of tobacco'
p7
ssS'output'
p8
(dp9
g4
(lp10
I3
aI4735
aI3012
aI134
aI41
aI4626
aI75
aI10
aI658
aI760
aI7102
aI63765
aI45
aI1576
aI462
aI3
aI4423
aI7
aI16287
aI7102
aI63765
aI63765
aI6669
aI5019
aI3781
aI10400
aI41
aI16288
aI6669
aI960
aI4877
aI19
aI351
aI3142
aI7
aI7500
aI5
aI3205
aI63765
asg6
S'The dictionary [Concise Oxford] defines it as "money granted by state  public body  etc .  to keep down the prices of commodities  etc . . Environmental economists define subsidies as uncompensated environmental damage arising from any flow of goods and services .'
p11
ss.