(dp1
S'input'
p2
(dp3
S'encoded'
p4
(lp5
I64
aI2179
aI394
aI2976
aI12243
aI24
aI954
aI126
aI1560
aI10723
asS'ori'
p6
S'This house would implement playoffs in collegiate level American football'
p7
ssS'output'
p8
(dp9
g4
(lp10
I14
aI1906
aI34964
aI6196
aI24
aI19809
aI9230
aI45
aI3881
aI63765
asg6
S'On November 23  top-ranked LSU lost in triple overtime to Arkansas .'
p11
ss.