(dp1
S'input'
p2
(dp3
S'encoded'
p4
(lp5
I64
aI2179
aI394
aI117
aI7428
aI21151
aI34
aI11389
aI2042
aI24
aI4364
asS'ori'
p6
S'This house would only teach abstinence for sex education in schools'
p7
ssS'output'
p8
(dp9
g4
(lp10
I18031
aI53204
aI5606
aI7
aI3
aI5027
aI5
aI2240
aI3217
aI2326
aI263
aI3
aI43793
aI3661
aI2034
aI7943
aI63765
asg6
S'Lloyd Kolbe  director of the CDC\'s Adolescent and School Health program  called the STI problem "a serious epidemic .'
p11
ss.