(dp1
S'input'
p2
(dp3
S'encoded'
p4
(lp5
I64
aI2179
aI43
aI63
aI3
aI4990
aI4991
aI116
aI4850
aI24
aI12166
aI3
aI475
aI7
aI3532
aI3290
aI7
aI4714
asS'ori'
p6
S'This house believes that the Catholic Church is justified in forbidding the use of barrier methods of contraception'
p7
ssS'output'
p8
(dp9
g4
(lp10
I45863
aI73
aI45882
aI5652
aI13770
aI116
aI419
aI3456
aI938
aI41
aI39860
aI182
aI298
aI223
aI9247
aI182
aI63765
asg6
S'Monogamy or polyfidelity  practiced faithfully  is very safe (as far as STIs are concerned) when all partners are non-infected .'
p11
ss.