(dp1
S'input'
p2
(dp3
S'encoded'
p4
(lp5
I64
aI2179
aI43
aI63
aI2157
aI2565
aI493
aI19084
aI382
aI4850
asS'ori'
p6
S"This house believes that Israel's 2008-2009 military operations against Gaza were justified"
p7
ssS'output'
p8
(dp9
g4
(lp10
I3
aI1565
aI2345
aI89
aI94
aI20754
aI51
aI53826
aI976
aI13115
aI60
aI3
aI11851
aI2503
aI13415
aI5354
aI5
aI5953
aI63
aI3
aI1200
aI16619
aI5277
aI24
aI19084
aI5
aI10915
aI316
aI12704
aI34
aI2223
aI4212
aI63765
asg6
S'The European Initiative  a pro-Israeli group  lodged an itemized legal complaint with the Belgian Federal Prosecutors Office and demanded that the top Hamas leadership in Gaza and Damascus be prosecuted for war crimes .'
p11
ss.