(dp1
S'input'
p2
(dp3
S'encoded'
p4
(lp5
I64
aI2179
aI43
aI63
aI134
aI116
aI400
aI21
aI34
aI3
aI260
aI45
aI3439
aI57
aI7
aI2381
asS'ori'
p6
S'This house believes that it is sometimes right for the government to restrict freedom of speech'
p7
ssS'output'
p8
(dp9
g4
(lp10
I5257
aI7149
aI116
aI3
aI3262
aI75
aI92
aI15407
aI24
aI5257
aI897
aI898
aI2873
aI45
aI13532
aI3
aI7252
aI7
aI5224
aI63
aI8543
aI271
aI2190
aI73
aI2190
aI9247
aI24
aI89
aI4099
aI5958
aI73
aI2873
aI45
aI881
aI13475
aI2729
aI19
aI7950
aI658
aI1571
aI63765
asg6
S'Corporate censorship is the process by which editors in corporate media outlets intervene to disrupt the publishing of information that portrays their business or business partners in a negative light  or intervene to prevent alternate offers from reaching public exposure  .'
p11
ss.