(dp1
S'input'
p2
(dp3
S'encoded'
p4
(lp5
I64
aI2179
aI394
aI190
aI3
aI21
aI45
aI3895
aI834
asS'ori'
p6
S'This house would limit the right to bear arms'
p7
ssS'output'
p8
(dp9
g4
(lp10
I64
aI18111
aI45
aI267
aI1727
aI864
aI7
aI4122
aI63
aI458
aI24
aI64
aI413
aI16923
aI63765
asg6
S'This equates to two times out of 1 000 incidents (0 .2%) that occurred in this time frame  .'
p11
ss.