(dp1
S'input'
p2
(dp3
S'encoded'
p4
(lp5
I64
aI2179
aI43
aI63
aI134
aI116
aI400
aI21
aI34
aI3
aI260
aI45
aI3439
aI57
aI7
aI2381
asS'ori'
p6
S'This house believes that it is sometimes right for the government to restrict freedom of speech'
p7
ssS'output'
p8
(dp9
g4
(lp10
I366
aI17221
aI2439
aI2534
aI7
aI24842
aI24
aI3
aI43156
aI382
aI418
aI226
aI3
aI4624
aI777
aI406
aI45
aI316
aI257
aI3
aI18293
aI7
aI122
aI795
aI211
aI284
aI3
aI57474
aI7
aI382
aI293
aI23679
aI5
aI57475
aI7
aI11913
aI382
aI353
aI14
aI20179
aI7
aI3
aI267
aI6840
aI18012
aI289
aI574
aI11558
aI63765
aI63765
asg6
S'After fifty years  signs of deterioration in the casing were noted  while the documents themselves appeared to be well-preserved: "But if the ink of 1787 was holding its own  the encasements of 1951 were not. minute crystals and microdroplets of liquid were found on surfaces of the two glass sheets over each document . .'
p11
ss.