(dp1
S'input'
p2
(dp3
S'encoded'
p4
(lp5
I64
aI2179
aI43
aI63
aI1036
aI4828
aI33250
aI116
aI25073
aI45
aI3315
aI4562
asS'ori'
p6
S'This house believes that male infant circumcision is tantamount to child abuse'
p7
ssS'output'
p8
(dp9
g4
(lp10
I3
aI4137
aI34923
aI4758
aI7
aI2039
aI10
aI63
aI2705
aI3518
aI7
aI3
aI155
aI99
aI8958
aI63
aI16412
aI33250
aI24
aI23605
aI316
aI63765
asg6
S'The Royal Australasian College of Physicians (RACP; 2009) state that "after extensive review of the literature" they "[do] not recommend that routine circumcision in infancy be performed" .'
p11
ss.