(dp1
S'input'
p2
(dp3
S'encoded'
p4
(lp5
I64
aI2179
aI43
aI223
aI2138
aI11
aI89
aI21
aI45
aI2185
aI372
asS'ori'
p6
S'This house believes all nations have a right to nuclear weapons'
p7
ssS'output'
p8
(dp9
g4
(lp10
I298
aI1769
aI1191
aI2185
aI2326
aI5
aI2135
aI2136
aI24
aI3
aI2653
aI2087
aI33638
aI8696
aI7
aI3
aI6426
aI4371
aI7
aI17
aI4372
aI55
aI742
aI63
aI47
aI99
aI991
aI2659
aI257
aI134
aI12393
aI45
aI1274
aI2046
aI63765
asg6
S'When speaking about Iran\'s nuclear program and China\'s foreign policy in the Middle East  Yin Gang of the Chinese Academy of Social Sciences has said that "China will not stop Israel if it decides to attack Iran .'
p11
ss.