(dp1
S'input'
p2
(dp3
S'encoded'
p4
(lp5
I64
aI2179
aI394
aI2773
aI12505
asS'ori'
p6
S'This house would embrace multiculturalism'
p7
ssS'output'
p8
(dp9
g4
(lp10
I3
aI3014
aI7
aI64
aI2784
aI116
aI63765
aI2437
aI5
aI317
aI7
aI12505
aI41
aI51
aI4835
aI12027
aI7
aI89
aI15324
aI89
aI2456
aI34
aI17712
aI2202
aI887
aI78
aI7
aI4066
aI2637
aI5
aI2812
aI4067
aI252
aI53380
aI271
aI1496
aI2637
aI5
aI2812
aI3
aI15290
aI7
aI89
aI15307
aI2022
aI41
aI89
aI35353
aI7
aI384
aI2812
aI3136
aI5
aI8175
aI63765
asg6
S'The purpose of this Act is (s . 3):encouraging recognition and acceptance of multiculturalism as an inherent feature of a pluralistic society;establishing a climate for harmonious relations among people of diverse cultural and ethnic backgrounds without sacrificing their distinctive cultural and ethnic identities;encouraging the continuation of a multicultural society as a mosaic of different ethnic groups and cultures  .'
p11
ss.