(dp1
S'input'
p2
(dp3
S'encoded'
p4
(lp5
I64
aI2179
aI235
aI839
aI4168
aI7
aI4996
aI34759
asS'ori'
p6
S'This house supports direct election of city mayors'
p7
ssS'output'
p8
(dp9
g4
(lp10
I89
aI696
aI7
aI2506
aI60
aI2990
aI34759
aI11
aI174
aI440
aI4138
aI34759
aI63765
asg6
S'A number of areas with Elected Mayors have also had Lord Mayors .'
p11
ss.