(dp1
S'input'
p2
(dp3
S'encoded'
p4
(lp5
I64
aI2179
aI43
aI63
aI134
aI116
aI400
aI21
aI34
aI3
aI260
aI45
aI3439
aI57
aI7
aI2381
asS'ori'
p6
S'This house believes that it is sometimes right for the government to restrict freedom of speech'
p7
ssS'output'
p8
(dp9
g4
(lp10
I2494
aI667
aI4392
aI7713
aI4393
aI5
aI2309
aI2310
aI3744
aI11
aI1515
aI3
aI3744
aI11
aI980
aI11533
aI134
aI63765
asg6
S'" Subsequently  New Jersey  Colorado  Massachusetts and Puerto Rico courts have adopted the doctrine; California\'s courts have repeatedly reaffirmed it  .'
p11
ss.