(dp1
S'input'
p2
(dp3
S'encoded'
p4
(lp5
I64
aI2179
aI13605
aI2258
aI45
aI2194
asS'ori'
p6
S'This house prefers trade to aid'
p7
ssS'output'
p8
(dp9
g4
(lp10
I7208
aI182
aI570
aI45
aI120
aI557
aI75
aI3
aI25694
aI260
aI5
aI2164
aI3007
aI32181
aI63765
asg6
S"Moyo's ideas are similar to those held by the Rwandan Government and President Paul Kagame ."
p11
ss.