(dp1
S'input'
p2
(dp3
S'encoded'
p4
(lp5
I64
aI2179
aI43
aI63
aI1036
aI4828
aI33250
aI116
aI25073
aI45
aI3315
aI4562
asS'ori'
p6
S'This house believes that male infant circumcision is tantamount to child abuse'
p7
ssS'output'
p8
(dp9
g4
(lp10
I59170
aI773
aI513
aI89
aI50269
aI33250
aI122
aI45
aI10662
aI134
aI5
aI45
aI5074
aI3000
aI5
aI25
aI7290
aI59183
aI63765
asg6
S'Uncircumcision being considered a blemish  circumcision was to remove it  and to render Abraham and his descendants "perfect" (Talmud Ned .'
p11
ss.