(dp1
S'input'
p2
(dp3
S'encoded'
p4
(lp5
I64
aI2179
aI394
aI5842
aI3569
aI446
aI13498
asS'ori'
p6
S'This house would introduce year round schooling'
p7
ssS'output'
p8
(dp9
g4
(lp10
I153
aI1727
aI132
aI779
aI109
aI14
aI3
aI3709
aI7
aI4277
aI5
aI13205
aI4144
aI24
aI128
aI45
aI836
aI6806
aI5
aI1112
aI3874
aI7512
aI256
aI63765
asg6
S'Often times these agencies rely on the help of volunteers and fundraising teams in order to create sustainable and effective family literacy programs (Timmons  2008) .'
p11
ss.