(dp1
S'input'
p2
(dp3
S'encoded'
p4
(lp5
I64
aI2179
aI43
aI63
aI187
aI417
aI99
aI16642
aI3
aI6449
aI7
aI3935
asS'ori'
p6
S'This house believes that states should not subsidize the growing of tobacco'
p7
ssS'output'
p8
(dp9
g4
(lp10
I75
aI3
aI398
aI9250
aI7
aI3935
aI382
aI89
aI3440
aI759
aI7
aI3
aI2348
aI23105
aI7
aI725
aI2138
aI5
aI75
aI285
aI2223
aI2233
aI14815
aI14170
aI5
aI220
aI9626
aI24
aI12963
aI3935
aI5
aI14815
aI9250
aI45
aI2377
aI24
aI3
aI7834
aI63765
asg6
S'By the 17th century allowances of tobacco were a standard part of the naval rations of many nations and by World War I cigarette manufacturers and governments collaborated in securing tobacco and cigarette allowances to soldiers in the field .'
p11
ss.