(dp1
S'input'
p2
(dp3
S'encoded'
p4
(lp5
I64
aI2179
aI394
aI4325
aI2042
aI270
aI89
aI11605
aI3324
asS'ori'
p6
S'This house would fund education using a voucher scheme'
p7
ssS'output'
p8
(dp9
g4
(lp10
I3
aI5563
aI2490
aI122
aI99
aI788
aI487
aI5607
aI14
aI2555
aI5
aI3
aI4132
aI6293
aI29637
aI311
aI5607
aI63765
asg6
S') The final vote was not taken until 2:00 AM on September 22  and the Virginia Assembly adjourned at 2:30 AM  .'
p11
ss.