(dp1
S'input'
p2
(dp3
S'encoded'
p4
(lp5
I64
aI2179
aI394
aI2017
aI262
asS'ori'
p6
S'This house would ban boxing'
p7
ssS'output'
p8
(dp9
g4
(lp10
I5520
aI581
aI579
aI24
aI7789
aI19
aI869
aI267
aI293
aI295
aI45
aI292
aI292
aI293
aI295
aI14
aI425
aI63765
asg6
S"Men's senior bouts changed in format from four  two minute rounds to three  three minute rounds on January 1  2009 ."
p11
ss.