(dp1
S'input'
p2
(dp3
S'encoded'
p4
(lp5
I64
aI2179
aI43
aI63
aI134
aI116
aI400
aI21
aI34
aI3
aI260
aI45
aI3439
aI57
aI7
aI2381
asS'ori'
p6
S'This house believes that it is sometimes right for the government to restrict freedom of speech'
p7
ssS'output'
p8
(dp9
g4
(lp10
I3
aI3211
aI7
aI26709
aI38955
aI519
aI5
aI992
aI37897
aI3
aI10941
aI7
aI88
aI174
aI316
aI416
aI45
aI25083
aI12511
aI2381
aI63765
asg6
S'The crime of crimen injuria ("unlawfully  intentionally and seriously impairing the dignity of another") may also be used to prosecute hate speech  .'
p11
ss.