(dp1
S'input'
p2
(dp3
S'encoded'
p4
(lp5
I64
aI2179
aI43
aI63
aI3
aI4990
aI4991
aI116
aI4850
aI24
aI12166
aI3
aI475
aI7
aI3532
aI3290
aI7
aI4714
asS'ori'
p6
S'This house believes that the Catholic Church is justified in forbidding the use of barrier methods of contraception'
p7
ssS'output'
p8
(dp9
g4
(lp10
I6603
aI3495
aI382
aI3488
aI45
aI3
aI5711
aI6535
aI63
aI1980
aI5
aI3495
aI2622
aI3
aI1643
aI12531
aI3292
aI4674
aI63765
asg6
S'Married women were attracted to the Christian ideal that men and women shared the same obligatory moral code .'
p11
ss.