(dp1
S'input'
p2
(dp3
S'encoded'
p4
(lp5
I64
aI2179
aI394
aI163
aI959
aI2042
aI3557
asS'ori'
p6
S'This house would make physical education compulsory'
p7
ssS'output'
p8
(dp9
g4
(lp10
I3
aI626
aI187
aI440
aI3
aI2810
aI3891
aI60
aI4386
aI2007
aI24
aI63765
asg6
S'The United States had the highest availability with 3 654&nbsp;calories per person in 1996  .'
p11
ss.