(dp1
S'input'
p2
(dp3
S'encoded'
p4
(lp5
I64
aI2179
aI43
aI63
aI820
aI12564
aI182
aI3
aI217
aI1112
aI1869
aI7
aI10656
aI4672
aI34
aI5276
asS'ori'
p6
S'This house believes that open primaries are the most effective method of selecting candidates for elections'
p7
ssS'output'
p8
(dp9
g4
(lp10
I114
aI9507
aI12199
aI5
aI12199
aI4203
aI63
aI351
aI5185
aI5334
aI145
aI717
aI14
aI12179
aI7514
aI116
aI12193
aI45
aI100
aI90
aI7
aI12624
aI100
aI475
aI319
aI3168
aI45
aI6898
aI34
aI100
aI90
aI7
aI5334
aI12585
aI63765
asg6
S'Though Arrow\'s impossibility theorem and Gibbard-Satterthwaite theorem prove that any useful voting system based on preference ranking is prone to some kind of manipulation  some use game theory to search for some kind of "minimally manipulatable" (incentive compatibility) voting schemes .'
p11
ss.