(dp1
S'input'
p2
(dp3
S'encoded'
p4
(lp5
I64
aI2179
aI394
aI5370
aI223
aI4013
aI10440
aI2446
aI4881
aI75
aI14482
aI11004
asS'ori'
p6
S'This house would abolish all collective bargaining rights claimed by trades unions'
p7
ssS'output'
p8
(dp9
g4
(lp10
I24
aI3
aI2546
aI2409
aI2131
aI2134
aI3
aI368
aI2133
aI7
aI23807
aI122
aI459
aI4229
aI1347
aI19
aI12342
aI2016
aI1687
aI5
aI3
aI475
aI7
aI2157
aI972
aI24
aI7713
aI63765
asg6
S'In 1904 the largest industrial union organization  the Western Federation of Miners  was under significant pressure from employer association attacks and the use of military force in Colorado .'
p11
ss.