(dp1
S'input'
p2
(dp3
S'encoded'
p4
(lp5
I64
aI2179
aI394
aI4325
aI2042
aI270
aI89
aI11605
aI3324
asS'ori'
p6
S'This house would fund education using a voucher scheme'
p7
ssS'output'
p8
(dp9
g4
(lp10
I2042
aI116
aI3
aI217
aI1173
aI1942
aI357
aI11
aI45
aI4506
aI63
aI3661
aI63765
asg6
S'Education is the most powerful weapon we have to address that problem   .'
p11
ss.