(dp1
S'input'
p2
(dp3
S'encoded'
p4
(lp5
I64
aI2179
aI394
aI5284
aI150
aI3987
asS'ori'
p6
S'This house would reintroduce national service'
p7
ssS'output'
p8
(dp9
g4
(lp10
I3
aI3661
aI7
aI5888
aI5907
aI122
aI5908
aI75
aI3
aI5909
aI5910
aI7
aI5610
aI3243
aI5
aI2083
aI712
aI63765
asg6
S'The problem of Confederate desertion was aggravated by the inequitable inclinations of conscription officers and local judges .'
p11
ss.