(dp1
S'input'
p2
(dp3
S'encoded'
p4
(lp5
I64
aI2179
aI43
aI63
aI2157
aI2565
aI493
aI19084
aI382
aI4850
asS'ori'
p6
S"This house believes that Israel's 2008-2009 military operations against Gaza were justified"
p7
ssS'output'
p8
(dp9
g4
(lp10
I3
aI260
aI7
aI3
aI46436
aI5523
aI3
aI4045
aI24
aI3
aI19084
aI966
aI7960
aI63
aI475
aI7
aI972
aI3
aI2136
aI7
aI4116
aI3056
aI3188
aI5
aI2928
aI493
aI29787
aI2144
aI182
aI4980
aI45
aI7839
aI2511
aI5
aI8754
aI7
aI3
aI7275
aI5
aI182
aI24
aI11445
aI60
aI282
aI3289
asg6
S'The government of the SADR condemned the massacre in the Gaza strip  considering that "the use of force  the policy of colonial occupation  killing and terror against defenseless citizens are contrary to morals  laws and customs of the humanity and are in contradiction with international legality'
p11
ss.