(dp1
S'input'
p2
(dp3
S'encoded'
p4
(lp5
I64
aI2179
aI394
aI2998
aI3
aI4360
aI7
aI3249
aI6804
aI24
aI3
aI102
asS'ori'
p6
S'This house would encourage the creation of private universities in the UK'
p7
ssS'output'
p8
(dp9
g4
(lp10
I24
aI3
aI102
aI64
aI9841
aI24
aI3
aI9178
aI7
aI169
aI15555
aI459
aI2868
aI495
aI169
aI15555
aI206
aI12
aI4316
aI75
aI1460
aI14426
aI7
aI3249
aI15555
aI6228
aI63765
asg6
S"In the UK this culminated in the 1993 privatization of British Rail under Thatcher's successor  John Major; British Rail having been formed by prior nationalization of private rail companies ."
p11
ss.