(dp1
S'input'
p2
(dp3
S'encoded'
p4
(lp5
I64
aI2179
aI394
aI5370
aI223
aI4013
aI10440
aI2446
aI4881
aI75
aI14482
aI11004
asS'ori'
p6
S'This house would abolish all collective bargaining rights claimed by trades unions'
p7
ssS'output'
p8
(dp9
g4
(lp10
I132
aI2100
aI9983
aI17029
aI291
aI384
aI12616
aI289
aI8
aI5938
aI727
aI24
aI89
aI1299
aI3262
aI7
aI9070
aI864
aI5545
aI93
aI2258
aI1864
aI3
aI3396
aI79
aI7
aI97
aI116
aI89
aI9983
aI6400
aI7
aI4600
aI139
aI316
aI23806
aI12986
aI12190
aI7
aI19153
aI63765
asg6
S'These included "distressingly frequent disputes between different craft unions" over jurisdiction; modern industry results in a constant process of phasing out old skills; one trade doing the struck work of another is a frequent dilemma; expiration of contracts can be staggered  hindering coordination of strikes  .'
p11
ss.