(dp1
S'input'
p2
(dp3
S'encoded'
p4
(lp5
I64
aI2179
aI394
aI5842
aI3569
aI446
aI13498
asS'ori'
p6
S'This house would introduce year round schooling'
p7
ssS'output'
p8
(dp9
g4
(lp10
I1112
aI3424
aI4196
aI256
aI124
aI5743
aI60
aI3580
aI2167
aI5
aI2635
aI63
aI139
aI316
aI2566
aI289
aI5
aI4544
aI24
aI271
aI3900
aI92
aI3902
aI6461
aI7
aI3424
aI4196
aI256
aI638
aI3569
aI366
aI3
aI2987
aI55
aI3041
aI63765
asg6
S'Effective summer reading programs provide families with meaningful strategies and resources that can be carried over and implemented in their home  which ensures continuity of summer reading programs throughout year  after the intervention has concluded (Timmons  2008) .'
p11
ss.