(dp1
S'input'
p2
(dp3
S'encoded'
p4
(lp5
I64
aI2179
aI43
aI63
aI187
aI417
aI99
aI16642
aI3
aI6449
aI7
aI3935
asS'ori'
p6
S'This house believes that states should not subsidize the growing of tobacco'
p7
ssS'output'
p8
(dp9
g4
(lp10
I3935
aI6228
aI8958
aI588
aI45
aI2341
aI5139
aI7
aI7939
aI1640
aI24
aI3
aI639
aI291
aI7319
aI3
aI7310
aI24
aI31325
aI5
aI49416
aI3
aI5615
aI4975
aI45
aI3
aI7834
aI63765
asg6
S'Tobacco companies recommend up to 16 separate applications of pesticides just in the period between planting the seeds in greenhouses and transplanting the young plants to the field  .'
p11
ss.