(dp1
S'input'
p2
(dp3
S'encoded'
p4
(lp5
I64
aI2179
aI394
aI2017
aI262
asS'ori'
p6
S'This house would ban boxing'
p7
ssS'output'
p8
(dp9
g4
(lp10
I3
aI288
aI37210
aI45
aI1292
aI225
aI960
aI73
aI1718
aI806
aI63765
asg6
S'The referee intervenes to avoid unnecessary damage or potential injury .'
p11
ss.