(dp1
S'input'
p2
(dp3
S'encoded'
p4
(lp5
I64
aI2179
aI394
aI2017
aI628
asS'ori'
p6
S'This house would ban gambling'
p7
ssS'output'
p8
(dp9
g4
(lp10
I149
aI138
aI7
aI120
aI60
aI628
aI251
aI3742
aI4902
aI34
aI3
aI5077
aI63765
asg6
S'Less than 10% of those with gambling problems seek treatment for the syndrome .'
p11
ss.