(dp1
S'input'
p2
(dp3
S'encoded'
p4
(lp5
I64
aI2179
aI43
aI63
aI7382
aI116
aI400
aI4713
asS'ori'
p6
S'This house believes that bribery is sometimes acceptable'
p7
ssS'output'
p8
(dp9
g4
(lp10
I311
aI211
aI237
aI9621
aI557
aI24
aI2658
aI24
aI2394
aI3
aI16840
aI244
aI63
aI134
aI122
aI2867
aI45
aI687
aI51
aI4620
aI5
aI1112
aI4550
aI45
aI2677
aI24
aI3
aI3518
aI7
aI3
aI2877
aI7
aI3
aI2533
aI63765
asg6
S'At its first session  held in Jordan in December 2006  the CoSP agreed that it was necessary to establish an appropriate and effective mechanism to assist in the review of the implementation of the Convention (Resolution 1/1) .'
p11
ss.