(dp1
S'input'
p2
(dp3
S'encoded'
p4
(lp5
I64
aI2179
aI394
aI2017
aI223
aI9058
aI23653
asS'ori'
p6
S'This house would ban all unsustainable logging'
p7
ssS'output'
p8
(dp9
g4
(lp10
I3
aI46966
aI116
aI3900
aI45
aI89
aI696
aI7
aI6797
aI1488
aI6905
aI7903
aI8091
aI5
aI3967
aI63765
asg6
S'The understory is home to a number of birds  small mammals  insects  reptiles  and predators .'
p11
ss.