(dp1
S'input'
p2
(dp3
S'encoded'
p4
(lp5
I64
aI2179
aI43
aI24
aI3
aI475
aI7
aI12436
aI3364
asS'ori'
p6
S'This house believes in the use of affirmative action'
p7
ssS'output'
p8
(dp9
g4
(lp10
I2051
aI111
aI8446
aI5922
aI382
aI2052
aI75
aI5711
aI5462
aI63765
asg6
S'Restrictions upon Jewish occupations were imposed by Christian authorities .'
p11
ss.