(dp1
S'input'
p2
(dp3
S'encoded'
p4
(lp5
I64
aI2179
aI43
aI8629
aI116
aI3
aI117
aI998
asS'ori'
p6
S'This house believes atheism is the only way'
p7
ssS'output'
p8
(dp9
g4
(lp10
I131
aI35
aI2511
aI1453
aI99
aI3781
aI3646
aI190
aI3
aI81
aI116
aI3
aI1334
aI521
aI63765
asg6
S'But  natural laws do not define nor limit the deity(ies)  who is the primary cause .'
p11
ss.