(dp1
S'input'
p2
(dp3
S'encoded'
p4
(lp5
I64
aI2179
aI43
aI63
aI187
aI417
aI99
aI16642
aI3
aI6449
aI7
aI3935
asS'ori'
p6
S'This house believes that states should not subsidize the growing of tobacco'
p7
ssS'output'
p8
(dp9
g4
(lp10
I3
aI626
aI2138
aI3964
aI5
aI6678
aI2134
aI6826
aI3
aI1592
aI2410
aI7
aI7359
aI3935
aI75
aI24
aI63765
asg6
S'The United Nations Food and Agriculture Organization estimates the following production of unprocessed tobacco by country/region in 2000 .'
p11
ss.