(dp1
S'input'
p2
(dp3
S'encoded'
p4
(lp5
I64
aI2179
aI43
aI63
aI3376
aI4938
aI417
aI316
aI3537
asS'ori'
p6
S'This house believes that endangered species should be protected'
p7
ssS'output'
p8
(dp9
g4
(lp10
I134
aI7768
aI89
aI759
aI24
aI3267
aI3
aI5246
aI7
aI3218
aI7954
aI5
aI1495
aI2855
aI63765
asg6
S'It plays a part in regulating the chemistry of our atmosphere and water supply .'
p11
ss.