(dp1
S'input'
p2
(dp3
S'encoded'
p4
(lp5
I64
aI2179
aI43
aI223
aI2138
aI11
aI89
aI21
aI45
aI2185
aI372
asS'ori'
p6
S'This house believes all nations have a right to nuclear weapons'
p7
ssS'output'
p8
(dp9
g4
(lp10
I2450
aI2791
aI211
aI1160
aI7
aI2033
aI45
aI27121
aI45
aI3
aI11570
aI41
aI481
aI41
aI75
aI5334
aI493
aI3
aI14612
aI7
aI89
aI448
aI6293
aI9596
aI92
aI2820
aI223
aI7
aI3
aI2268
aI45
aI27121
aI45
aI134
aI311
aI3
aI349
aI748
aI3109
aI63765
asg6
S'India announced its lack of intention to accede to the NPT as late as 1997 by voting against the paragraph of a General Assembly Resolution which urged all non-signatories of the treaty to accede to it at the earliest possible date  .'
p11
ss.