(dp1
S'input'
p2
(dp3
S'encoded'
p4
(lp5
I64
aI2179
aI43
aI8629
aI116
aI3
aI117
aI998
asS'ori'
p6
S'This house believes atheism is the only way'
p7
ssS'output'
p8
(dp9
g4
(lp10
I89
aI281
aI2198
aI7
aI725
aI8313
aI116
aI63
aI155
aI1619
aI4859
aI63
aI182
aI9280
aI57688
aI73
aI12332
aI63765
asg6
S'A major criticism of many religions is that they require beliefs that are irrational  unscientific  or unreasonable .'
p11
ss.