(dp1
S'input'
p2
(dp3
S'encoded'
p4
(lp5
I64
aI2179
aI13605
aI2258
aI45
aI2194
asS'ori'
p6
S'This house prefers trade to aid'
p7
ssS'output'
p8
(dp9
g4
(lp10
I233
aI45
aI8928
aI10660
aI4194
aI63765
aI63317
aI3
aI127
aI7
aI1260
aI2258
aI5137
aI3
aI7931
aI75
aI41
aI165
aI41
aI45
aI63765
asg6
S'According to economist Stephen P . Magee  the benefits of free trade outweigh the losses by as much as 100 to 1  .'
p11
ss.