(dp1
S'input'
p2
(dp3
S'encoded'
p4
(lp5
I64
aI2179
aI394
aI2017
aI628
asS'ori'
p6
S'This house would ban gambling'
p7
ssS'output'
p8
(dp9
g4
(lp10
I3
aI2029
aI394
aI16521
aI5
aI686
aI5119
aI7689
aI5
aI100
aI248
aI274
aI7
aI5119
aI628
aI63765
asg6
S'The bill would legalize and regulate online poker and some other forms of online gambling  .'
p11
ss.