(dp1
S'input'
p2
(dp3
S'encoded'
p4
(lp5
I64
aI2179
aI394
aI5284
aI150
aI3987
asS'ori'
p6
S'This house would reintroduce national service'
p7
ssS'output'
p8
(dp9
g4
(lp10
I2142
aI92
aI11
aI3009
aI45
aI15508
aI159
aI4331
aI14
aI89
aI150
aI6684
aI1074
aI89
aI63765
asg6
S'Organizations which have attempted to organize such campaigns on a national scale include A .F .S .C .'
p11
ss.