(dp1
S'input'
p2
(dp3
S'encoded'
p4
(lp5
I64
aI2179
aI394
aI4325
aI2042
aI270
aI89
aI11605
aI3324
asS'ori'
p6
S'This house would fund education using a voucher scheme'
p7
ssS'output'
p8
(dp9
g4
(lp10
I42
aI3382
aI45
aI16585
aI3
aI5099
aI2236
aI594
aI834
aI9994
aI2268
aI24
aI63765
asg6
S'He voted to ratify the START II strategic arms limitation treaty in 1996  .'
p11
ss.