(dp1
S'input'
p2
(dp3
S'encoded'
p4
(lp5
I64
aI2179
aI394
aI1499
aI3
aI8115
aI34564
aI17106
asS'ori'
p6
S'This house would build the Keystone XL pipeline'
p7
ssS'output'
p8
(dp9
g4
(lp10
I3552
aI7
aI64
aI1869
aI7
aI3596
aI10
aI63
aI134
aI1760
aI149
aI7451
aI2832
aI149
aI17153
aI18104
aI5
aI55
aI89
aI1932
aI6987
aI138
aI248
aI2410
aI8008
aI63765
asg6
S'Advocates of this method of extraction state that it uses less freshwater  produces 50% less greenhouse gases  and has a smaller footprint than other production techniques  .'
p11
ss.