(dp1
S'input'
p2
(dp3
S'encoded'
p4
(lp5
I64
aI2179
aI43
aI63
aI7382
aI116
aI400
aI4713
asS'ori'
p6
S'This house believes that bribery is sometimes acceptable'
p7
ssS'output'
p8
(dp9
g4
(lp10
I113
aI976
aI249
aI159
aI41
aI132
aI11
aI12
aI1966
aI45
aI316
aI4427
aI7170
aI24
aI63
aI155
aI153
aI1561
aI3
aI22
aI2554
aI3037
aI63765
asg6
S'Even legal measures such as these have been argued to be legalized corruption  in that they often favor the political status quo .'
p11
ss.