(dp1
S'input'
p2
(dp3
S'encoded'
p4
(lp5
I64
aI2179
aI43
aI223
aI2138
aI11
aI89
aI21
aI45
aI2185
aI372
asS'ori'
p6
S'This house believes all nations have a right to nuclear weapons'
p7
ssS'output'
p8
(dp9
g4
(lp10
I3
aI7700
aI9368
aI122
aI7896
aI2218
aI60
aI3
aI1051
aI36718
aI2940
aI63765
asg6
S'The Indian version was reportedly armed with the 300&nbsp;km range 3M-54 Klub nuclear-capable missiles  .'
p11
ss.