(dp1
S'input'
p2
(dp3
S'encoded'
p4
(lp5
I64
aI2179
aI394
aI5370
aI3
aI5286
asS'ori'
p6
S'This house would abolish the monarchy'
p7
ssS'output'
p8
(dp9
g4
(lp10
I3218
aI433
aI448
aI34
aI3
aI1257
aI2439
aI55
aI3589
aI223
aI3
aI4913
aI7
aI89
aI536
aI7
aI10
aI5
aI443
aI1025
aI357
aI163
aI3218
aI433
aI448
aI3218
aI878
aI536
aI7
aI10
aI63765
asg6
S"Our governor general for the past 60 years has performed all the duties of a head of state  and there's no reason we shouldn't make our governor general our official head of state ."
p11
ss.