(dp1
S'input'
p2
(dp3
S'encoded'
p4
(lp5
I64
aI2179
aI43
aI63
aI2659
aI417
aI1690
aI3
aI12048
aI7
aI19084
asS'ori'
p6
S'This house believes that Israel should lift the blockade of Gaza'
p7
ssS'output'
p8
(dp9
g4
(lp10
I42
aI55
aI7266
aI63
aI3
aI2130
aI316
aI689
aI41
aI51
aI878
aI10
aI2130
aI7
aI5590
aI60
aI838
aI2280
aI459
aI3
aI682
aI7
aI5590
aI70
aI11
aI267
aI136
aI2789
aI316
aI547
aI45
aI20799
aI6002
aI5
aI4624
aI9530
aI120
aI81
aI11933
aI751
aI134
aI63
aI3
aI7090
aI463
aI652
aI86
aI5
aI6641
aI1642
aI7092
aI24
aI4825
aI7987
aI63765
asg6
S"He has requested that the commission be recognized as an official state commission of inquiry with full powers under the Commissions of Inquiry law  have two more members  be allowed to subpoena witnesses and documents  warn those who testify before it that the panel's findings could harm them  and hire outside experts in relevant fields  ."
p11
ss.