(dp1
S'input'
p2
(dp3
S'encoded'
p4
(lp5
I64
aI2179
aI394
aI2773
aI12505
asS'ori'
p6
S'This house would embrace multiculturalism'
p7
ssS'output'
p8
(dp9
g4
(lp10
I24
aI25
aI79
aI52509
aI2042
aI13104
aI3172
aI63
aI3
aI52172
aI7
aI12505
aI24
aI1560
aI6804
aI11476
aI3
aI10119
aI3527
aI63
aI3409
aI2042
aI374
aI3009
aI45
aI2187
aI63765
asg6
S"In his 1991 work  Illiberal Education  Dinesh D'Souza argues that the entrenchment of multiculturalism in American universities undermined the universalist values that liberal education once attempted to foster ."
p11
ss.