(dp1
S'input'
p2
(dp3
S'encoded'
p4
(lp5
I64
aI2179
aI43
aI63
aI2157
aI2565
aI493
aI19084
aI382
aI4850
asS'ori'
p6
S"This house believes that Israel's 2008-2009 military operations against Gaza were justified"
p7
ssS'output'
p8
(dp9
g4
(lp10
I6500
aI8445
aI116
aI89
aI1109
aI145
aI643
aI75
aI20717
aI5182
aI720
aI2938
aI3075
aI45
aI12026
aI11994
aI60
aI89
aI1051
aI149
aI138
aI63765
asg6
S'Iron Dome () is a mobile system developed by Rafael Advanced Defense Systems designed to intercept short-range rockets with a range less than 70&nbsp;km .'
p11
ss.