(dp1
S'input'
p2
(dp3
S'encoded'
p4
(lp5
I64
aI2179
aI394
aI5370
aI3
aI5286
asS'ori'
p6
S'This house would abolish the monarchy'
p7
ssS'output'
p8
(dp9
g4
(lp10
I3
aI2497
aI938
aI21
aI55
aI12
aI416
aI75
aI100
aI159
aI41
aI150
aI658
aI6881
aI45
aI3553
aI3
aI306
aI7
aI16615
aI16616
aI24
aI6077
aI63765
asg6
S'The term far right has been used by some  such as National Public Radio  to describe the rule of Augusto Pinochet in Chile  .'
p11
ss.