(dp1
S'input'
p2
(dp3
S'encoded'
p4
(lp5
I64
aI2179
aI394
aI163
aI959
aI2042
aI3557
asS'ori'
p6
S'This house would make physical education compulsory'
p7
ssS'output'
p8
(dp9
g4
(lp10
I100
aI2041
aI2981
aI63
aI35984
aI78
aI182
aI149
aI1856
aI45
aI316
aI12533
aI34
aI89
aI1028
aI5
aI182
aI149
aI1856
aI45
aI316
aI6347
aI63765
asg6
S'Some research shows that obese people are less likely to be hired for a job and are less likely to be promoted  .'
p11
ss.