(dp1
S'input'
p2
(dp3
S'encoded'
p4
(lp5
I64
aI2179
aI43
aI63
aI134
aI116
aI400
aI21
aI34
aI3
aI260
aI45
aI3439
aI57
aI7
aI2381
asS'ori'
p6
S'This house believes that it is sometimes right for the government to restrict freedom of speech'
p7
ssS'output'
p8
(dp9
g4
(lp10
I132
aI2742
aI3199
aI139
aI316
aI344
aI41
aI1240
aI10636
aI14571
aI2445
aI2446
aI63765
asg6
S'These regional regimes can be seen as relatively independently coherent human rights sub-regimes  .'
p11
ss.