(dp1
S'input'
p2
(dp3
S'encoded'
p4
(lp5
I64
aI2179
aI43
aI63
aI2157
aI2565
aI493
aI19084
aI382
aI4850
asS'ori'
p6
S"This house believes that Israel's 2008-2009 military operations against Gaza were justified"
p7
ssS'output'
p8
(dp9
g4
(lp10
I26611
aI56554
aI36205
aI19386
aI45
aI3
aI2800
aI2445
aI2446
aI2132
aI5523
aI3
aI905
aI3270
aI2659
aI353
aI3
aI905
aI11
aI443
aI2755
aI3375
aI45
aI3377
aI1706
aI3
aI24872
aI2175
aI7
aI3
aI2445
aI2446
asg6
S'Aharon Leshno Yar  Israel\'s ambassador to the UN Human Rights Council  condemned the report  saying Israel found the report "to have no value except to narrowly further the politicized agenda of the Human Rights Council.'
p11
ss.