(dp1
S'input'
p2
(dp3
S'encoded'
p4
(lp5
I64
aI2179
aI394
aI2017
aI262
asS'ori'
p6
S'This house would ban boxing'
p7
ssS'output'
p8
(dp9
g4
(lp10
I24
aI5489
aI540
aI64
aI116
aI263
aI1011
aI830
aI92
aI2643
aI162
aI258
aI295
aI2231
aI114
aI273
aI382
aI100
aI1011
aI18354
aI63765
asg6
S'In title fights  this is called "the championship distance " which today usually means 12 rounds (See history section)  though there were some ten-round championship matches .'
p11
ss.