(dp1
S'input'
p2
(dp3
S'encoded'
p4
(lp5
I64
aI2179
aI43
aI63
aI3376
aI4938
aI417
aI316
aI3537
asS'ori'
p6
S'This house believes that endangered species should be protected'
p7
ssS'output'
p8
(dp9
g4
(lp10
I4720
aI47445
aI5722
aI291
aI267
aI1486
aI7
aI22010
aI63765
asg6
S'Peter Vardy distinguished between two types of anthropocentrism  .'
p11
ss.