(dp1
S'input'
p2
(dp3
S'encoded'
p4
(lp5
I64
aI2179
aI43
aI8629
aI116
aI3
aI117
aI998
asS'ori'
p6
S'This house believes atheism is the only way'
p7
ssS'output'
p8
(dp9
g4
(lp10
I4376
aI753
aI98
aI99
aI49
aI4807
aI98
aI99
aI2733
aI93
aI8393
aI755
aI5480
aI1967
aI131
aI64
aI1019
aI316
aI2843
aI73
aI5
aI1967
aI5
aI64
aI139
aI316
aI63765
asg6
S'Conclusions reached include: "God does not exist" (strong atheism); "God almost certainly does not exist" (de facto atheism); "no one knows whether God exists" (agnosticism); "God exists  but this cannot be proven or disproven" (weak theism); and "God exists and this can be proven" (strong theism) .'
p11
ss.