(dp1
S'input'
p2
(dp3
S'encoded'
p4
(lp5
I64
aI2179
aI394
aI190
aI3
aI21
aI45
aI3895
aI834
asS'ori'
p6
S'This house would limit the right to bear arms'
p7
ssS'output'
p8
(dp9
g4
(lp10
I14
aI2116
aI3
aI2483
aI5427
aI3
aI1950
aI3264
aI24
aI22821
aI646
aI63765
aI4248
aI63765
asg6
S'On June 28  2010  the Court incorporated the Second Amendment in McDonald v . Chicago .'
p11
ss.