(dp1
S'input'
p2
(dp3
S'encoded'
p4
(lp5
I64
aI2179
aI43
aI63
aI7382
aI116
aI400
aI4713
asS'ori'
p6
S'This house believes that bribery is sometimes acceptable'
p7
ssS'output'
p8
(dp9
g4
(lp10
I3936
aI12434
aI73
aI29462
aI7
aI89
aI2190
aI88
aI9036
aI137
aI73
aI9532
aI45
aI89
aI1718
aI2816
aI24
aI2721
aI34
aI2190
aI63765
asg6
S'Employees  managers  or salespeople of a business may offer money or gifts to a potential client in exchange for business .'
p11
ss.