(dp1
S'input'
p2
(dp3
S'encoded'
p4
(lp5
I64
aI2179
aI43
aI63
aI7382
aI116
aI400
aI4713
asS'ori'
p6
S'This house believes that bribery is sometimes acceptable'
p7
ssS'output'
p8
(dp9
g4
(lp10
I64
aI88
aI316
aI3266
aI41
aI298
aI89
aI2453
aI2990
aI260
aI2438
aI3
aI1200
aI5726
aI24
aI3
aI4445
aI24
aI128
aI45
aI775
aI2976
aI211
aI2136
aI63765
asg6
S'This may be legitimate  as when a newly elected government changes the top officials in the administration in order to effectively implement its policy .'
p11
ss.