(dp1
S'input'
p2
(dp3
S'encoded'
p4
(lp5
I64
aI2179
aI13605
aI2258
aI45
aI2194
asS'ori'
p6
S'This house prefers trade to aid'
p7
ssS'output'
p8
(dp9
g4
(lp10
I34
aI1343
aI10121
aI10122
aI440
aI89
aI3463
aI4699
aI2994
aI7
aI24
aI3
aI166
aI138
aI351
aI2548
aI2643
aI63765
asg6
S'For example  Sri Lanka had a maternal mortality rate of 2% in the 1930s  higher than any nation today  .'
p11
ss.