(dp1
S'input'
p2
(dp3
S'encoded'
p4
(lp5
I64
aI2179
aI43
aI223
aI2138
aI11
aI89
aI21
aI45
aI2185
aI372
asS'ori'
p6
S'This house believes all nations have a right to nuclear weapons'
p7
ssS'output'
p8
(dp9
g4
(lp10
I2046
aI116
aI89
aI171
aI45
aI3
aI11570
aI131
aI122
aI353
aI24
aI60
aI211
aI11570
aI16849
aI2603
aI5
aI3
aI2554
aI7
aI211
aI2185
aI2326
aI937
aI24
aI6037
aI63765
asg6
S'Iran is a party to the NPT but was found in non-compliance with its NPT safeguards agreement and the status of its nuclear program remains in dispute .'
p11
ss.