(dp1
S'input'
p2
(dp3
S'encoded'
p4
(lp5
I64
aI2179
aI394
aI5284
aI150
aI3987
asS'ori'
p6
S'This house would reintroduce national service'
p7
ssS'output'
p8
(dp9
g4
(lp10
I25
aI202
aI4072
aI122
aI973
aI3
aI2272
aI4072
aI9643
aI5
aI3
aI2306
aI7
aI2047
aI2272
aI4072
aI9643
aI63765
asg6
S'His Army unit was awarded the Presidential Unit Citation and the Republic of Korea Presidential Unit Citation  .'
p11
ss.