(dp1
S'input'
p2
(dp3
S'encoded'
p4
(lp5
I64
aI2179
aI394
aI190
aI3
aI21
aI45
aI3895
aI834
asS'ori'
p6
S'This house would limit the right to bear arms'
p7
ssS'output'
p8
(dp9
g4
(lp10
I3
aI3436
aI3362
aI382
aI99
aI3649
aI75
aI64
aI143
aI63765
asg6
S'The dissenting justices were not persuaded by this argument  .'
p11
ss.