(dp1
S'input'
p2
(dp3
S'encoded'
p4
(lp5
I64
aI2179
aI43
aI8629
aI116
aI3
aI117
aI998
asS'ori'
p6
S'This house believes atheism is the only way'
p7
ssS'output'
p8
(dp9
g4
(lp10
I89
aI1622
aI18569
aI394
aI3943
aI3084
aI755
aI351
aI6530
aI4532
aI73
aI99
aI131
aI12368
aI93
aI1379
aI298
aI273
aI116
aI350
aI357
aI139
aI154
aI4722
aI864
asg6
S'A weak agnostic would say  "I don\'t know whether any deities exist or not  but maybe one day  when there is evidence  we can find something out ."'
p11
ss.