(dp1
S'input'
p2
(dp3
S'encoded'
p4
(lp5
I64
aI2179
aI394
aI2017
aI262
asS'ori'
p6
S'This house would ban boxing'
p7
ssS'output'
p8
(dp9
g4
(lp10
I887
aI3
aI641
aI2072
aI24
aI3
aI2061
aI182
aI1087
aI1088
aI2073
aI2074
aI1216
aI2075
aI2076
aI2077
aI1117
aI1118
aI452
aI1309
aI2078
aI2079
aI1206
aI1207
aI1924
aI1925
aI5
aI1077
aI1078
aI63765
asg6
S'Among the notable names in the WBHF are Ricardo "Finito" Lopez  Gabriel "Flash" Elorde  Michael Carbajal  Khaosai Galaxy  Henry Armstrong  Jack Johnson  Roberto Duran  George Foreman  Ceferino Garcia and Salvador Sanchez .'
p11
ss.