(dp1
S'input'
p2
(dp3
S'encoded'
p4
(lp5
I64
aI2179
aI394
aI16756
aI20435
asS'ori'
p6
S'This house would criminalize blasphemy'
p7
ssS'output'
p8
(dp9
g4
(lp10
I134
aI116
aI99
aI3
aI2190
aI7
aI260
aI24
aI3218
aI2548
aI45
aI20304
aI212
aI73
aI20901
aI1687
aI111
aI89
aI1341
aI2767
aI2860
aI755
aI155
aI2931
aI24
aI889
aI20902
aI73
aI1580
aI9837
aI63765
asg6
S'It is not the business of government in our nation to suppress real or imagined attacks upon a particular religious doctrine  whether they appear in publications  speeches  or motion pictures .'
p11
ss.