(dp1
S'input'
p2
(dp3
S'encoded'
p4
(lp5
I64
aI2179
aI43
aI223
aI2138
aI11
aI89
aI21
aI45
aI2185
aI372
asS'ori'
p6
S'This house believes all nations have a right to nuclear weapons'
p7
ssS'output'
p8
(dp9
g4
(lp10
I64
aI17979
aI267
aI4678
aI89
aI12098
aI12248
aI311
aI42665
aI5
aI30755
aI37558
aI311
aI42679
aI42664
aI63765
asg6
S'This comprises two facilities  a submarine berth at Faslane and ordnance depot at RNAD Coulport .'
p11
ss.