(dp1
S'input'
p2
(dp3
S'encoded'
p4
(lp5
I64
aI2179
aI43
aI17
aI4941
aI857
aI3211
asS'ori'
p6
S'This house believes social deprivation causes crime'
p7
ssS'output'
p8
(dp9
g4
(lp10
I14
aI89
aI570
aI8037
aI2022
aI153
aI16351
aI4915
aI2140
aI60
aI100
aI7178
aI7
aI2022
aI16016
aI31870
aI63765
asg6
S'On a similar note  society often employs double standards  with some sectors of society enjoying favouritism .'
p11
ss.