(dp1
S'input'
p2
(dp3
S'encoded'
p4
(lp5
I64
aI2179
aI394
aI2017
aI223
aI9058
aI23653
asS'ori'
p6
S'This house would ban all unsustainable logging'
p7
ssS'output'
p8
(dp9
g4
(lp10
I23653
aI98
aI99
aI11
aI45
aI316
aI41
aI11681
aI89
aI1485
aI41
aI134
aI923
aI116
aI24
aI5964
aI63765
asg6
S'Logging does not have to be as destructive a practice as it currently is in Malaysia .'
p11
ss.