(dp1
S'input'
p2
(dp3
S'encoded'
p4
(lp5
I64
aI2179
aI394
aI1499
aI3
aI8115
aI34564
aI17106
asS'ori'
p6
S'This house would build the Keystone XL pipeline'
p7
ssS'output'
p8
(dp9
g4
(lp10
I24
aI2568
aI60
aI6225
aI2885
aI9247
aI52534
aI134
aI2969
aI45
aI7968
aI3
aI52533
aI17106
aI87
aI63
aI51
aI52535
aI7
aI2579
aI311
aI52519
aI463
aI1069
aI3
aI2847
aI63765
asg6
S'In cooperation with Enterprise Products Partners LP it plans to reverse the Seaway pipeline so that an oversupply of oil at Cushing could reach the Gulf  .'
p11
ss.