(dp1
S'input'
p2
(dp3
S'encoded'
p4
(lp5
I64
aI2179
aI43
aI63
aI3
aI21
aI45
aI12715
aI417
aI99
aI316
aI2897
asS'ori'
p6
S'This house believes that the right to asylum should not be absolute'
p7
ssS'output'
p8
(dp9
g4
(lp10
I397
aI64
aI413
aI3
aI979
aI5136
aI7
aI2269
aI7878
aI4564
aI24
aI413
aI5
aI24734
aI221
aI134
aI136
aI24106
aI34
aI5307
aI45
aI831
aI45
aI3
aI2145
aI63765
aI138
aI24
aI2439
aI1460
aI63765
asg6
S'During this time  the lower costs of Atlantic Ocean travel in time and fare made it more advantageous for immigrants to move to the U .S . than in years prior .'
p11
ss.