(dp1
S'input'
p2
(dp3
S'encoded'
p4
(lp5
I64
aI2179
aI394
aI60
aI23587
asS'ori'
p6
S'This house would re-engage with Myanmar'
p7
ssS'output'
p8
(dp9
g4
(lp10
I12800
aI18967
aI6941
aI404
aI34
aI7
aI18967
aI6941
aI63765
asg6
S"Burmese migrant workers account for 80% of Thailand's migrant workers  ."
p11
ss.