(dp1
S'input'
p2
(dp3
S'encoded'
p4
(lp5
I64
aI2179
aI394
aI2017
aI628
asS'ori'
p6
S'This house would ban gambling'
p7
ssS'output'
p8
(dp9
g4
(lp10
I13430
aI48766
aI3
aI3648
aI34
aI93
aI7
aI3
aI404
aI6801
aI6228
aI3493
aI742
aI63
aI3
aI260
aI55
aI1301
aI5768
aI51
aI404
aI63
aI6175
aI45
aI12338
aI81
aI182
aI8790
aI24
aI61
aI394
aI3563
aI116
aI89
aI4378
aI2784
aI7
aI5600
aI7689
aI5119
aI63765
asg6
S'Jeff Ifrah  the lawyer for one of the account management companies affected  said that the government has never seized an account that belongs to players who are engaged in what [Ifrah] would contend is a lawful act of playing peer-to-peer poker online .'
p11
ss.