(dp1
S'input'
p2
(dp3
S'encoded'
p4
(lp5
I64
aI2179
aI394
aI10662
aI626
aI187
aI2157
aI2697
aI19
aI2371
asS'ori'
p6
S'This house would remove United States military bases from Japan'
p7
ssS'output'
p8
(dp9
g4
(lp10
I3
aI6635
aI404
aI34
aI149
aI138
aI93
aI2900
aI7
aI697
aI969
aI24
aI2371
aI63765
asg6
S'The islands account for less than one percent of total lands in Japan  .'
p11
ss.