(dp1
S'input'
p2
(dp3
S'encoded'
p4
(lp5
I64
aI2179
aI43
aI63
aI3
aI21
aI45
aI12715
aI417
aI99
aI316
aI2897
asS'ori'
p6
S'This house believes that the right to asylum should not be absolute'
p7
ssS'output'
p8
(dp9
g4
(lp10
I3
aI33709
aI382
aI2162
aI60
aI3
aI9359
aI5
aI7795
aI7
aI3135
aI9696
aI9483
aI864
aI7
aI4562
aI7
aI2610
aI2474
aI63765
asg6
S'The CIS were charged with the investigation and prosecution of criminal offences borne out of abuse of immigration legislation .'
p11
ss.