(dp1
S'input'
p2
(dp3
S'encoded'
p4
(lp5
I64
aI2179
aI43
aI8629
aI116
aI3
aI117
aI998
asS'ori'
p6
S'This house believes atheism is the only way'
p7
ssS'output'
p8
(dp9
g4
(lp10
I24
aI3
aI33
aI7
aI5480
aI8301
aI2538
aI273
aI116
aI443
aI159
aI24566
aI3173
aI63765
asg6
S'In the case of God  Dawkins says  there is no such satisfactory explanation .'
p11
ss.