(dp1
S'input'
p2
(dp3
S'encoded'
p4
(lp5
I64
aI2179
aI43
aI63
aI3
aI28431
aI7
aI2157
aI4624
aI75
aI39939
aI27257
aI122
aI4850
asS'ori'
p6
S'This house believes that the leaking of military documents by Anat Kamm was justified'
p7
ssS'output'
p8
(dp9
g4
(lp10
I2405
aI11320
aI89
aI1896
aI3286
aI751
aI3
aI312
aI7
aI3
aI2223
aI11191
aI3
aI2145
aI63765
asg6
S'Finally Gregory  a few weeks before the end of the war  instructed the U .S .'
p11
ss.