(dp1
S'input'
p2
(dp3
S'encoded'
p4
(lp5
I64
aI2179
aI43
aI63
aI2659
aI417
aI1690
aI3
aI12048
aI7
aI19084
asS'ori'
p6
S'This house believes that Israel should lift the blockade of Gaza'
p7
ssS'output'
p8
(dp9
g4
(lp10
I8446
aI13478
aI34
aI89
aI1640
aI2250
aI89
aI94
aI7
aI2330
aI4307
aI17365
aI45
aI3
aI1565
aI4307
aI34
aI89
aI1640
aI2250
aI63
aI2969
aI45
aI5678
aI89
aI6918
aI60
aI2893
aI2194
aI45
aI1746
aI3
aI19084
aI12048
aI55
aI2933
aI89
aI1445
aI696
aI7
aI8734
aI45
aI4564
aI60
aI3
aI15185
aI5
aI116
aI15468
aI34
aI89
aI1950
aI12132
aI45
aI5629
aI516
aI655
aI63765
asg6
S'Jewish Voices for a Just Peace  a group of German Jews belonging to the European Jews for a Just Peace that plans to send a boat with humanitarian aid to break the Gaza blockade  has received a large number of request to travel with the ship  and is searching for a second vessel to accommodate additional participants  .'
p11
ss.