(dp1
S'input'
p2
(dp3
S'encoded'
p4
(lp5
I64
aI2179
aI394
aI60
aI23587
asS'ori'
p6
S'This house would re-engage with Myanmar'
p7
ssS'output'
p8
(dp9
g4
(lp10
I24
aI3
aI5111
aI3
aI12800
aI10
aI3953
aI5047
aI63
aI2596
aI78
aI440
aI12
aI3178
aI24
aI89
aI972
aI8870
aI14
aI14153
aI24
aI31858
aI63765
asg6
S'In the evening  the Burmese state television reported that nine people had been killed in a force crackdown on pro-democracy protesters in Yangon .'
p11
ss.