(dp1
S'input'
p2
(dp3
S'encoded'
p4
(lp5
I64
aI2179
aI235
aI3
aI2136
aI7
aI3
aI2306
aI7
aI2390
asS'ori'
p6
S'This house supports the one-child policy of the republic of China'
p7
ssS'output'
p8
(dp9
g4
(lp10
I3
aI1495
aI16360
aI182
aI9073
aI24
aI902
aI7
aI2203
aI4192
aI2390
aI3
aI2206
aI5
aI12110
aI45
aI657
aI50759
aI3515
aI6806
aI9074
aI63765
asg6
S'The water tables are falling in scores of countries (including Northern China  the US  and India) owing to widespread overdrafting beyond sustainable yields .'
p11
ss.