(dp1
S'input'
p2
(dp3
S'encoded'
p4
(lp5
I64
aI2179
aI394
aI3830
aI3
aI475
aI7
aI9441
aI13132
aI3102
aI24
aI276
aI381
asS'ori'
p6
S'This house would permit the use of performance enhancing drugs in professional sports'
p7
ssS'output'
p8
(dp9
g4
(lp10
I5012
aI7019
aI5
aI2356
aI182
aI1480
aI5060
aI75
aI7915
aI3934
aI4562
aI92
aI24
aI217
aI3052
aI57489
aI60
aI1900
aI21151
aI63765
asg6
S'Severe anxiety and depression are commonly induced by sustained alcohol abuse which in most cases abates with prolonged abstinence .'
p11
ss.