(dp1
S'input'
p2
(dp3
S'encoded'
p4
(lp5
I64
aI2179
aI43
aI63
aI134
aI116
aI400
aI21
aI34
aI3
aI260
aI45
aI3439
aI57
aI7
aI2381
asS'ori'
p6
S'This house believes that it is sometimes right for the government to restrict freedom of speech'
p7
ssS'output'
p8
(dp9
g4
(lp10
I526
aI1887
aI100
aI7
aI211
aI3663
aI182
aI513
aI45
aI399
aI759
aI7
aI6584
aI282
aI70
aI273
aI116
aI6037
aI41
aI45
aI92
aI63765
asg6
S'Furthermore  whilst some of its provisions are considered to form part of customary international law  there is dispute as to which .'
p11
ss.