(dp1
S'input'
p2
(dp3
S'encoded'
p4
(lp5
I64
aI2179
aI43
aI63
aI3376
aI4938
aI417
aI316
aI3537
asS'ori'
p6
S'This house believes that endangered species should be protected'
p7
ssS'output'
p8
(dp9
g4
(lp10
I134
aI116
aI620
aI839
aI952
aI60
aI580
aI63
aI155
aI7817
aI211
aI2755
aI5
aI951
aI89
aI1796
aI15282
aI7
aI3
aI596
aI7
aI7993
aI6790
aI5
aI6795
aI63765
asg6
S"It is through people's direct experience with nature that they understand its value and gain a better appreciation of the importance of healthy habitats and ecosystems ."
p11
ss.