(dp1
S'input'
p2
(dp3
S'encoded'
p4
(lp5
I64
aI2179
aI394
aI2773
aI12505
asS'ori'
p6
S'This house would embrace multiculturalism'
p7
ssS'output'
p8
(dp9
g4
(lp10
I1706
aI6426
aI2610
aI122
aI913
aI5
aI768
aI577
aI75
aI89
aI290
aI7
aI3301
aI5
aI15826
aI906
aI13800
aI3546
aI63765
asg6
S'Further Chinese immigration was limited and then banned by a series of restrictive and racially motivated dominion statutes .'
p11
ss.