(dp1
S'input'
p2
(dp3
S'encoded'
p4
(lp5
I64
aI2179
aI43
aI223
aI2138
aI11
aI89
aI21
aI45
aI2185
aI372
asS'ori'
p6
S'This house believes all nations have a right to nuclear weapons'
p7
ssS'output'
p8
(dp9
g4
(lp10
I14
aI2116
aI93
aI2639
aI78
aI928
aI24
aI667
aI2086
aI2609
aI8267
aI493
aI2185
aI372
aI5
aI34
aI51
aI312
aI45
aI3
aI2237
aI2223
aI834
aI4226
aI63765
asg6
S"On June 12  1982  one million people demonstrated in New York City's Central Park against nuclear weapons and for an end to the cold war arms race ."
p11
ss.