(dp1
S'input'
p2
(dp3
S'encoded'
p4
(lp5
I64
aI2179
aI394
aI4325
aI2042
aI270
aI89
aI11605
aI3324
asS'ori'
p6
S'This house would fund education using a voucher scheme'
p7
ssS'output'
p8
(dp9
g4
(lp10
I24
aI25
aI7074
aI3365
aI60
aI5440
aI42
aI4889
aI3226
aI5092
aI52
aI2140
aI2900
aI4386
aI574
aI3569
aI2386
aI3108
aI14
aI24
aI5182
aI16441
aI2186
aI5
aI89
aI4262
aI8921
aI34
aI3
aI2290
aI7
aI5182
aI2186
aI4503
aI41
aI261
aI41
aI6937
aI4262
aI10781
aI5
aI2155
aI51884
aI4262
aI10781
aI5
aI7180
aI4641
aI34
aI2287
aI14173
aI4975
aI5
aI1948
aI3
aI1263
aI965
aI2179
aI2700
aI394
aI316
aI5788
aI45
aI5
aI2642
aI7
aI6820
aI7674
aI75
aI3
aI2503
aI260
aI47
aI316
aI73
aI4503
aI75
aI63765
asg6
S'In his plan  related with transportation  he proposes increase fuel economy standards 4 percent per each year  specific focus on R&#38;D in advanced battery technology and a $7 000 tax credit for the purchase of advanced technology vehicles as well as conversion tax credits and $4 billion retooling tax credits and loan guarantees for domestic auto plants and parts manufacturers; the entire White House fleet would be converted to plug-ins and half of cars purchased by the federal government will be plug-in (hybrids or all-electric) vehicles by 2012  .'
p11
ss.