(dp1
S'input'
p2
(dp3
S'encoded'
p4
(lp5
I64
aI2179
aI394
aI2017
aI223
aI9058
aI23653
asS'ori'
p6
S'This house would ban all unsustainable logging'
p7
ssS'output'
p8
(dp9
g4
(lp10
I33829
aI7
aI15896
aI2885
aI693
aI4309
aI45
aI852
aI7
aI112
aI5
aI572
aI2497
aI7128
aI3223
asg6
S'overexploitation of wood products  typically leads to loss of long-term income and long term biological productivity'
p11
ss.