(dp1
S'input'
p2
(dp3
S'encoded'
p4
(lp5
I64
aI2179
aI43
aI8629
aI116
aI3
aI117
aI998
asS'ori'
p6
S'This house believes atheism is the only way'
p7
ssS'output'
p8
(dp9
g4
(lp10
I226
aI3
aI943
aI2475
aI7
aI9161
aI57
aI45
aI1781
aI2767
aI3205
aI3
aI943
aI10
aI459
aI2136
aI7
aI10
aI8629
aI500
aI99
aI358
aI2042
aI89
aI3249
aI134
aI625
aI2767
aI5248
aI5
aI13567
aI4331
aI45
aI9157
aI78
aI311
aI1727
aI18390
aI45
aI2968
aI2382
aI63765
asg6
S"While the Soviet Constitution of 1936 guaranteed freedom to hold religious services  the Soviet state under Stalin's policy of state atheism did not consider education a private matter; it outlawed religious instruction and waged campaigns to persuade people  at times violently  to abandon religion  ."
p11
ss.