(dp1
S'input'
p2
(dp3
S'encoded'
p4
(lp5
I64
aI2179
aI394
aI2017
aI628
asS'ori'
p6
S'This house would ban gambling'
p7
ssS'output'
p8
(dp9
g4
(lp10
I13171
aI382
aI24
aI3
aI399
aI7
aI13963
aI6839
aI5
aI248
aI4943
aI16287
aI63765
asg6
S'Prizes were in the form of silver plate and other valuable commodities .'
p11
ss.