(dp1
S'input'
p2
(dp3
S'encoded'
p4
(lp5
I64
aI2179
aI43
aI63
aI2157
aI2565
aI493
aI19084
aI382
aI4850
asS'ori'
p6
S"This house believes that Israel's 2008-2009 military operations against Gaza were justified"
p7
ssS'output'
p8
(dp9
g4
(lp10
I3
aI1687
aI1360
aI5523
aI34
aI8069
aI3180
aI11
aI12
aI1545
aI41
aI2459
aI75
aI626
aI2138
aI1565
aI2131
aI5
aI6056
aI5726
aI5
aI182
aI1038
aI41
aI2223
aI4212
aI75
aI2445
aI2446
aI3136
aI16631
aI282
aI5
aI2445
aI2446
aI3601
aI63765
asg6
S'The attacks  widely condemned for targeting civilians  have been described as terrorism by United Nations  European Union and Israeli officials  and are defined as war crimes by human rights groups Amnesty International and Human Rights Watch .'
p11
ss.