(dp1
S'input'
p2
(dp3
S'encoded'
p4
(lp5
I64
aI2179
aI394
aI4325
aI2042
aI270
aI89
aI11605
aI3324
asS'ori'
p6
S'This house would fund education using a voucher scheme'
p7
ssS'output'
p8
(dp9
g4
(lp10
I12189
aI116
aI89
aI2544
aI7
aI3
aI4408
aI1410
aI1193
aI2574
aI5
aI235
aI26011
aI19139
aI10560
aI2041
aI653
aI25
aI2388
aI3609
aI63765
asg6
S'|-valign="top" McCain is a member of The Republican Main Street Partnership and supports embryonic stem cell research despite his earlier opposition  .'
p11
ss.