(dp1
S'input'
p2
(dp3
S'encoded'
p4
(lp5
I64
aI2179
aI43
aI63
aI3376
aI4938
aI417
aI316
aI3537
asS'ori'
p6
S'This house believes that endangered species should be protected'
p7
ssS'output'
p8
(dp9
g4
(lp10
I24
aI89
aI4229
aI2891
aI122
aI3
aI8272
aI7
aI3
aI3926
aI6793
aI910
aI63765
asg6
S'In 1980 a significant development was the emergence of the urban conservation movement .'
p11
ss.