(dp1
S'input'
p2
(dp3
S'encoded'
p4
(lp5
I64
aI2179
aI394
aI190
aI3
aI21
aI45
aI3895
aI834
asS'ori'
p6
S'This house would limit the right to bear arms'
p7
ssS'output'
p8
(dp9
g4
(lp10
I24
aI1035
aI182
aI869
aI187
aI92
aI163
aI443
aI3785
aI1431
aI7
aI51
aI229
aI21
aI73
aI7
aI720
aI7
aI1201
aI41
aI89
aI3564
aI2259
aI34
aI3
aI21
aI45
aI834
aI63765
asg6
S"In contrast are four states which make no mention whatever of an individual right or of defense of one's self as a valid basis for the right to arms ."
p11
ss.