(dp1
S'input'
p2
(dp3
S'encoded'
p4
(lp5
I64
aI2179
aI43
aI3
aI626
aI187
aI116
aI1989
aI34
aI3102
aI2223
asS'ori'
p6
S"This house believes the United States is responsible for Mexico's drugs war"
p7
ssS'output'
p8
(dp9
g4
(lp10
I3
aI23489
aI2326
aI47
aI174
aI124
aI89
aI136
aI5130
aI13136
aI7
aI3205
aI717
aI14
aI3
aI147
aI4902
aI1227
aI63765
asg6
S'The ATR program will also provide a more flexible array of services based on the individuals treatment needs .'
p11
ss.