(dp1
S'input'
p2
(dp3
S'encoded'
p4
(lp5
I64
aI2179
aI43
aI63
aI3
aI4990
aI4991
aI116
aI4850
aI24
aI12166
aI3
aI475
aI7
aI3532
aI3290
aI7
aI4714
asS'ori'
p6
S'This house believes that the Catholic Church is justified in forbidding the use of barrier methods of contraception'
p7
ssS'output'
p8
(dp9
g4
(lp10
I3
aI1879
aI678
aI7
aI11148
aI45
aI3
aI7721
aI4801
aI3459
aI7
aI4216
aI3463
aI6658
aI41
aI89
aI2609
aI2637
aI13647
aI7
aI4990
aI323
aI63765
asg6
S'The increasing popularity of devotion to the Virgin Mary (the mother of Jesus) secured maternal virtue as a central cultural theme of Catholic Europe .'
p11
ss.