(dp1
S'input'
p2
(dp3
S'encoded'
p4
(lp5
I64
aI2179
aI394
aI4325
aI2042
aI270
aI89
aI11605
aI3324
asS'ori'
p6
S'This house would fund education using a voucher scheme'
p7
ssS'output'
p8
(dp9
g4
(lp10
I35062
aI4001
aI51340
aI10649
aI63
aI3313
aI122
aI14129
aI75
aI732
aI237
aI3569
aI7
aI5204
aI131
aI742
aI45
aI4880
aI99
aI520
aI45
aI8196
aI5268
aI5110
aI8316
aI864
aI7
aI5
aI427
aI136
aI10301
aI24
aI2042
aI5
aI2933
aI732
aI4266
aI63765
asg6
S'Rhee told Washingtonian magazine that she was demoralized by her first year of teaching  but said to herself  "Im not going to let eight-year-old kids run me out of town"  and took more courses in education and received her teachers\' certification  .'
p11
ss.