(dp1
S'input'
p2
(dp3
S'encoded'
p4
(lp5
I64
aI2179
aI13605
aI2258
aI45
aI2194
asS'ori'
p6
S'This house prefers trade to aid'
p7
ssS'output'
p8
(dp9
g4
(lp10
I24
aI421
aI45
aI7281
aI727
aI9642
aI1068
aI45
aI11807
aI3
aI5229
aI7
aI2202
aI311
aI2696
aI5
aI282
aI2363
aI493
aI8147
aI244
aI60
aI9247
aI63765
asg6
S'In addition to measuring results  donors need to assess the quality of relations at project/programme  country and international levels against indicators agreed with partners .'
p11
ss.