(dp1
S'input'
p2
(dp3
S'encoded'
p4
(lp5
I64
aI2179
aI394
aI190
aI3
aI21
aI45
aI3895
aI834
asS'ori'
p6
S'This house would limit the right to bear arms'
p7
ssS'output'
p8
(dp9
g4
(lp10
I626
aI187
aI646
aI63765
aI62403
aI3061
aI62403
aI89
aI7719
aI460
aI4546
aI7
aI267
aI4554
aI2287
aI2617
aI10160
aI4513
aI25
aI8865
aI717
aI14
aI3
aI143
aI63
aI3
aI4042
aI10048
aI3
aI229
aI2446
aI45
aI3895
aI834
aI41
aI1545
aI24
aI3898
aI63765
asg6
S'United States v . Skoien  - Steven Skoien  a Wisconsin man  convicted of two misdemeanor domestic violence convictions appealed his conviction based on the argument that the prohibition violated the individual rights to bear arms  as described in Heller .'
p11
ss.