(dp1
S'input'
p2
(dp3
S'encoded'
p4
(lp5
I64
aI2179
aI43
aI63
aI3
aI21
aI45
aI12715
aI417
aI99
aI316
aI2897
asS'ori'
p6
S'This house believes that the right to asylum should not be absolute'
p7
ssS'output'
p8
(dp9
g4
(lp10
I24
aI3
aI48
aI588
aI45
aI285
aI2223
aI2236
aI725
aI2406
aI324
aI120
aI17365
aI45
aI5275
aI92
aI382
aI9684
aI459
aI5834
aI306
aI159
aI41
aI4307
aI2856
aI45
aI7481
aI45
aI3
aI626
aI2549
aI5
aI134
aI116
aI2845
aI63
aI41
aI725
aI41
aI88
aI11
aI12
aI482
aI63765
asg6
S'In the lead up to World War II  many Germans  particularly those belonging to minorities which were persecuted under Nazi rule  such as Jews  sought to emigrate to the United Kingdom  and it is estimated that as many as 50 000 may have been successful .'
p11
ss.