(dp1
S'input'
p2
(dp3
S'encoded'
p4
(lp5
I64
aI2179
aI394
aI5284
aI150
aI3987
asS'ori'
p6
S'This house would reintroduce national service'
p7
ssS'output'
p8
(dp9
g4
(lp10
I25
aI4928
aI12207
aI5259
aI122
aI89
aI514
aI3132
aI178
aI460
aI81
aI122
aI8536
aI45
aI25
aI6457
aI5
aI81
aI20
aI3
aI3874
aI298
aI1082
aI122
aI1530
aI2439
aI5545
aI63765
asg6
S'His father Ralph Rangel was a frequently absent  unemployed man who was abusive to his wife and who left the family when Charles was six years old  .'
p11
ss.