(dp1
S'input'
p2
(dp3
S'encoded'
p4
(lp5
I64
aI2179
aI394
aI2017
aI223
aI9058
aI23653
asS'ori'
p6
S'This house would ban all unsustainable logging'
p7
ssS'output'
p8
(dp9
g4
(lp10
I725
aI274
aI7
aI7902
aI6449
aI9730
aI3709
aI16442
aI3
aI3966
aI5
aI1344
aI5152
aI63765
asg6
S'Many forms of fungi growing here help decay the animal and plant waste .'
p11
ss.