(dp1
S'input'
p2
(dp3
S'encoded'
p4
(lp5
I64
aI2179
aI43
aI63
aI1036
aI4828
aI33250
aI116
aI25073
aI45
aI3315
aI4562
asS'ori'
p6
S'This house believes that male infant circumcision is tantamount to child abuse'
p7
ssS'output'
p8
(dp9
g4
(lp10
I63765
aI93
aI845
aI92
aI116
aI244
aI116
aI63
aI751
aI8532
aI163
aI89
aI752
aI1191
aI33250
aI155
aI417
aI11
aI3757
aI45
aI10527
aI5
aI2010
aI5224
aI14
aI3
aI2015
aI4779
aI5
aI127
aI7
aI3
aI3378
aI63765
asg6
S'[ . .] One issue  which is agreed  is that before parents make a decision about circumcision they should have access to unbiased and clear information on the medical risks and benefits of the procedure .'
p11
ss.