(dp1
S'input'
p2
(dp3
S'encoded'
p4
(lp5
I64
aI2179
aI43
aI8629
aI116
aI3
aI117
aI998
asS'ori'
p6
S'This house believes atheism is the only way'
p7
ssS'output'
p8
(dp9
g4
(lp10
I7
aI3
aI3833
aI4895
aI8440
aI10930
aI19
aI3
aI34650
aI206
aI12
aI2162
aI60
aI3
aI3698
aI8398
aI63
aI8440
aI508
aI34651
aI732
aI7
aI1154
aI8803
aI30609
aI5
aI257
aI64
aI316
aI3
aI33
aI63
aI3
aI8518
aI55
aI1978
aI691
aI12
aI3191
aI27494
aI63765
asg6
S'Of the woman whom Jesus saved from the stoning (she having been charged with adultery)  the author contends that Jesus thus forgives her of sheer sexual promiscuity  and  if this be the case  that the lesson has ever since been completely misunderstood  .'
p11
ss.