(dp1
S'input'
p2
(dp3
S'encoded'
p4
(lp5
I64
aI2179
aI43
aI63
aI3
aI4990
aI4991
aI116
aI4850
aI24
aI12166
aI3
aI475
aI7
aI3532
aI3290
aI7
aI4714
asS'ori'
p6
S'This house believes that the Catholic Church is justified in forbidding the use of barrier methods of contraception'
p7
ssS'output'
p8
(dp9
g4
(lp10
I10027
aI10858
aI373
aI2267
aI7
aI11445
aI131
aI174
aI7
aI6461
aI7
aI3
aI2860
aI5
aI3309
aI63765
aI63765
aI61
aI122
aI3107
aI13732
aI116
aI3107
aI174
aI2643
aI63765
asg6
S'Humanae Vitae became "a sign of contradiction but also of continuity of the Church\'s doctrine and tradition . . What was true yesterday is true also today .'
p11
ss.