(dp1
S'input'
p2
(dp3
S'encoded'
p4
(lp5
I64
aI2179
aI394
aI117
aI7428
aI21151
aI34
aI11389
aI2042
aI24
aI4364
asS'ori'
p6
S'This house would only teach abstinence for sex education in schools'
p7
ssS'output'
p8
(dp9
g4
(lp10
I233
aI45
aI51
aI282
aI6836
aI75
aI3
aI4701
aI927
aI17089
aI3271
aI5
aI16564
aI2363
aI182
aI166
aI24
aI3
aI2206
aI4024
aI604
aI7
aI3802
aI24
aI13788
aI475
aI63765
asg6
S'According to an international comparison by the Guttmacher Institute  teen pregnancy and childbearing levels are higher in the US largely because of differences in contraceptive use .'
p11
ss.