(dp1
S'input'
p2
(dp3
S'encoded'
p4
(lp5
I64
aI2179
aI394
aI5370
aI3
aI5286
asS'ori'
p6
S'This house would abolish the monarchy'
p7
ssS'output'
p8
(dp9
g4
(lp10
I1381
aI5306
aI186
aI63
aI64
aI98
aI99
aI84
aI736
aI404
aI3
aI92
aI2590
aI34
aI3
aI2907
aI24
aI2359
aI3319
aI63
aI3
aI5305
aI9313
aI19
aI92
aI132
aI7601
aI182
aI4857
aI116
aI150
aI5
aI10
aI4585
aI5
aI63
aI3
aI5301
aI1019
aI1996
aI61
aI155
aI11
aI1301
aI4443
aI63765
asg6
S"Although monarchists argue that this does not take into account the 'hereditary revenues' which generated 190 .8&nbsp;million for the treasury in 2007-2008  republicans assert that the Crown Estate  from which these revenues are derived  is national and State property  and that the monarch cannot surrender what they have never owned  ."
p11
ss.