(dp1
S'input'
p2
(dp3
S'encoded'
p4
(lp5
I64
aI2179
aI394
aI117
aI7428
aI21151
aI34
aI11389
aI2042
aI24
aI4364
asS'ori'
p6
S'This house would only teach abstinence for sex education in schools'
p7
ssS'output'
p8
(dp9
g4
(lp10
I11048
aI4651
aI45
aI5027
aI8532
aI182
aI136
aI1856
aI45
aI1199
aI17089
aI3534
aI777
aI63765
asg6
S'Daughters born to adolescent parents are more likely to become teen mothers themselves  .'
p11
ss.