(dp1
S'input'
p2
(dp3
S'encoded'
p4
(lp5
I64
aI2179
aI394
aI5284
aI150
aI3987
asS'ori'
p6
S'This house would reintroduce national service'
p7
ssS'output'
p8
(dp9
g4
(lp10
I63
aI4728
aI5259
aI3481
aI45
aI1616
aI25
aI15943
aI34
aI3
aI3365
aI611
aI6329
aI63765
asg6
S'That month  Rangel paid $10 800 to cover his liability for the related back taxes  .'
p11
ss.