(dp1
S'input'
p2
(dp3
S'encoded'
p4
(lp5
I64
aI2179
aI394
aI2017
aI3807
aI314
aI3433
asS'ori'
p6
S'This house would ban partial birth abortions'
p7
ssS'output'
p8
(dp9
g4
(lp10
I3
aI217
aI2759
aI3550
aI3136
aI63
aI3551
aI24
aI1849
aI45
aI3254
aI182
aI3
aI150
aI3257
aI2446
aI3364
aI2344
aI14
aI3
aI823
aI5
aI3
aI150
aI21
aI45
aI3269
aI2180
aI14
aI3
aI823
aI63765
asg6
S'The most prominent organized groups that mobilized in response to Roe are the National Abortion Rights Action League on the pro-choice side  and the National Right to Life Committee on the pro-life side .'
p11
ss.