(dp1
S'input'
p2
(dp3
S'encoded'
p4
(lp5
I64
aI2179
aI394
aI5370
aI7146
aI4585
aI2446
asS'ori'
p6
S'This house would abolish intellectual property rights'
p7
ssS'output'
p8
(dp9
g4
(lp10
I691
aI6678
aI122
aI87
aI165
aI136
aI5117
aI138
aI3923
aI5
aI10900
aI3249
aI4585
aI8867
aI75
aI4736
aI34
aI6754
aI20
aI1188
aI60
aI136
aI1413
aI4386
aI2007
aI5
aI2504
aI500
aI99
aI652
aI86
aI63765
asg6
S'Since agriculture was so much more efficient than hunting and gathering  private property appropriated by someone for farming left remaining hunter-gatherers with more land per person  and hence did not harm them .'
p11
ss.