(dp1
S'input'
p2
(dp3
S'encoded'
p4
(lp5
I64
aI2179
aI394
aI2773
aI12505
asS'ori'
p6
S'This house would embrace multiculturalism'
p7
ssS'output'
p8
(dp9
g4
(lp10
I29796
aI400
aI3018
aI2812
aI73
aI2637
aI9750
aI63765
asg6
S'Fascists sometimes promote ethnic or cultural nationalism .'
p11
ss.