(dp1
S'input'
p2
(dp3
S'encoded'
p4
(lp5
I64
aI2179
aI394
aI10662
aI626
aI187
aI2157
aI2697
aI19
aI2371
asS'ori'
p6
S'This house would remove United States military bases from Japan'
p7
ssS'output'
p8
(dp9
g4
(lp10
I2219
aI2371
aI41
aI89
aI1863
aI7
aI13249
aI34
aI2145
aI63765
aI2157
aI2136
aI24
aI2371
aI88
aI6934
aI4849
aI3024
aI45
aI2802
aI89
aI634
aI1068
aI34
aI3
aI2134
aI63765
asg6
S'Forces Japan as a center of gravity for U .S . military policy in Japan may guide future leaders to question a continued need for the organization .'
p11
ss.