(dp1
S'input'
p2
(dp3
S'encoded'
p4
(lp5
I64
aI2179
aI43
aI63
aI3
aI4538
aI7
aI4434
aI7793
aI283
aI45
aI3586
aI417
aI316
aI577
asS'ori'
p6
S'This house believes that the sale of violent video games to minors should be banned'
p7
ssS'output'
p8
(dp9
g4
(lp10
I24
aI6011
aI7300
aI3
aI7111
aI10933
aI1191
aI4434
aI7793
aI283
aI5
aI61
aI8532
aI139
aI1453
aI11895
aI40189
aI16243
aI5
aI40190
aI12605
aI63765
aI30134
aI56817
aI21795
aI4453
aI7
aI4434
aI8935
aI3226
aI1404
aI75
aI4434
aI7793
aI283
aI63765
aI3
aI2035
aI2981
aI63
aI20123
aI63
aI6372
aI7793
aI283
aI311
aI223
aI182
aI217
aI34
aI4434
aI8935
aI252
aI5023
aI176
aI63
aI7793
aI319
aI6372
aI116
aI759
aI7
aI51
aI5027
aI1876
aI17
aI1685
asg6
S"In Grand Theft Childhood: The Surprising Truth About Violent Video Games and What Parents Can Do  researchers/authors Lawrence Kutner  PhD  and Cheryl K . Olson  ScD  refute claims of violent behavior increase caused by violent video games . The researchers' study shows that adolescents that don't play video games at all are most at-risk for violent behavior (but without statistical significance)  claiming that video game play is part of an adolescent boy's normal social setting"
p11
ss.