(dp1
S'input'
p2
(dp3
S'encoded'
p4
(lp5
I64
aI2179
aI394
aI190
aI3
aI21
aI45
aI3895
aI834
asS'ori'
p6
S'This house would limit the right to bear arms'
p7
ssS'output'
p8
(dp9
g4
(lp10
I2398
aI3365
aI45
aI3
aI3988
aI3309
aI122
aI3
aI3915
aI3309
aI60
aI3
aI3917
aI910
aI2398
aI566
aI60
aI13560
aI63765
asg6
S'Closely related to the militia tradition was the frontier tradition  with the westward movement closely associated with weaponry .'
p11
ss.