(dp1
S'input'
p2
(dp3
S'encoded'
p4
(lp5
I64
aI2179
aI394
aI4325
aI2042
aI270
aI89
aI11605
aI3324
asS'ori'
p6
S'This house would fund education using a voucher scheme'
p7
ssS'output'
p8
(dp9
g4
(lp10
I233
aI45
aI25
aI2127
aI2714
aI394
aI836
aI51
aI5119
aI3047
aI7
aI4387
aI2962
aI4276
aI8885
aI4385
aI5
aI4706
aI362
aI5
aI394
aI836
aI51
aI903
aI15921
aI2904
aI45
aI28554
aI4330
aI4707
aI844
aI63765
asg6
S'According to his website  Obama would create an online database of lobbying reports  campaign finance filings and ethics records  and would create an independent watchdog agency to oversee congressional ethical violations .'
p11
ss.