(dp1
S'input'
p2
(dp3
S'encoded'
p4
(lp5
I64
aI2179
aI13605
aI2258
aI45
aI2194
asS'ori'
p6
S'This house prefers trade to aid'
p7
ssS'output'
p8
(dp9
g4
(lp10
I64
aI122
aI263
aI2258
aI4360
aI3
aI127
aI45
aI3
aI2855
aI823
aI41
aI89
aI3730
aI50502
aI41
aI2635
aI182
aI26164
aI1636
aI4388
aI6713
aI311
aI3
aI2810
aI12390
aI502
aI3
aI24
aI574
aI2696
aI63765
asg6
S'This was called trade creation  the benefits to the supply side as a whole accrue as resources are reallocated towards firms producing at the highest comparative advantage (among the partners) in each country .'
p11
ss.