(dp1
S'input'
p2
(dp3
S'encoded'
p4
(lp5
I64
aI2179
aI43
aI63
aI134
aI116
aI400
aI21
aI34
aI3
aI260
aI45
aI3439
aI57
aI7
aI2381
asS'ori'
p6
S'This house believes that it is sometimes right for the government to restrict freedom of speech'
p7
ssS'output'
p8
(dp9
g4
(lp10
I1381
aI1348
aI75
aI3
aI2749
aI45
aI3
aI7234
aI217
aI1453
aI99
aI24
aI1485
aI1985
aI5125
aI444
aI45
aI3
aI384
aI1486
aI7
aI2446
aI63765
asg6
S'Although accepted by the signatories to the UDHR  most do not in practice give equal weight to the different types of rights .'
p11
ss.