(dp1
S'input'
p2
(dp3
S'encoded'
p4
(lp5
I64
aI2179
aI394
aI163
aI959
aI2042
aI3557
asS'ori'
p6
S'This house would make physical education compulsory'
p7
ssS'output'
p8
(dp9
g4
(lp10
I7140
aI7
aI2356
aI5
aI25644
aI139
aI2723
aI298
aI4628
aI19
aI3
aI35
aI33961
aI104
aI75
aI5982
aI985
aI63765
asg6
S'Feelings of depression and agitation can occur when withdrawal from the natural endorphins produced by exercise occurs .'
p11
ss.