(dp1
S'input'
p2
(dp3
S'encoded'
p4
(lp5
I64
aI2179
aI394
aI4325
aI2042
aI270
aI89
aI11605
aI3324
asS'ori'
p6
S'This house would fund education using a voucher scheme'
p7
ssS'output'
p8
(dp9
g4
(lp10
I267
aI3286
aI395
aI433
aI12018
aI5
aI3
aI4132
aI10
aI2128
aI7
aI2042
aI2791
aI63
aI10
aI2136
aI394
aI316
aI45
aI302
aI45
aI1233
aI3
aI658
aI4364
aI14
aI89
aI8486
aI2259
aI63765
asg6
S"Two weeks later  Governor Stanley and the Virginia State Board of Education announced that state policy would be to continue to operate the state's public schools on a segregated basis  ."
p11
ss.