(dp1
S'input'
p2
(dp3
S'encoded'
p4
(lp5
I64
aI2179
aI43
aI63
aI3
aI4990
aI4991
aI116
aI4850
aI24
aI12166
aI3
aI475
aI7
aI3532
aI3290
aI7
aI4714
asS'ori'
p6
S'This house believes that the Catholic Church is justified in forbidding the use of barrier methods of contraception'
p7
ssS'output'
p8
(dp9
g4
(lp10
I24
aI421
aI4741
aI24
aI3
aI102
aI2463
aI63
aI89
aI12270
aI24
aI25988
aI139
aI46458
aI3904
aI25225
aI5057
aI21152
aI475
aI397
aI11389
aI139
aI881
aI1571
aI45
aI3
aI12270
aI63765
asg6
S'In addition  researchers in the UK suggest that a hormone in semen can aggravate existing cervical cancer  condom use during sex can prevent exposure to the hormone  .'
p11
ss.