(dp1
S'input'
p2
(dp3
S'encoded'
p4
(lp5
I64
aI2179
aI394
aI4325
aI2042
aI270
aI89
aI11605
aI3324
asS'ori'
p6
S'This house would fund education using a voucher scheme'
p7
ssS'output'
p8
(dp9
g4
(lp10
I3007
aI55
aI4293
aI89
aI2477
aI3264
aI92
aI394
aI501
aI4358
aI45
aI6004
aI24
aI229
aI73
aI94
aI10805
aI24
aI658
aI4364
aI131
aI394
aI99
aI501
aI3739
aI45
aI316
aI5175
aI45
aI10914
aI493
aI271
aI47
aI73
aI501
aI3
aI10
aI45
aI18446
aI351
aI1380
aI7
aI10805
aI73
aI890
aI14286
aI351
aI10805
aI45
aI316
aI742
aI24
aI4364
aI63765
asg6
S'Paul has sponsored a constitutional amendment which would allow students to participate in individual or group prayer in public schools  but would not allow anyone to be forced to pray against their will or allow the state to compose any type of prayer or officially sanction any prayer to be said in schools  .'
p11
ss.