(dp1
S'input'
p2
(dp3
S'encoded'
p4
(lp5
I64
aI2179
aI13605
aI2258
aI45
aI2194
asS'ori'
p6
S'This house prefers trade to aid'
p7
ssS'output'
p8
(dp9
g4
(lp10
I9087
aI5008
aI45
aI3384
aI2645
aI45
aI51
aI3889
aI2196
aI63765
asg6
S"Sachs responded to Easterly's arguments  leading to an ongoing debate  ."
p11
ss.