(dp1
S'input'
p2
(dp3
S'encoded'
p4
(lp5
I64
aI2179
aI394
aI163
aI959
aI2042
aI3557
asS'ori'
p6
S'This house would make physical education compulsory'
p7
ssS'output'
p8
(dp9
g4
(lp10
I24
aI3
aI1879
aI3064
aI24
aI3
aI643
aI285
aI1472
aI3315
aI4699
aI131
aI41
aI760
aI444
aI2322
aI3780
aI5
aI4872
aI4368
aI373
aI136
aI279
aI63765
asg6
S'In the 1950s increasing wealth in the developed world decreased child mortality  but as body weight increased heart and kidney disease became more common  .'
p11
ss.