(dp1
S'input'
p2
(dp3
S'encoded'
p4
(lp5
I64
aI2179
aI394
aI2976
aI12243
aI24
aI954
aI126
aI1560
aI10723
asS'ori'
p6
S'This house would implement playoffs in collegiate level American football'
p7
ssS'output'
p8
(dp9
g4
(lp10
I9845
aI4235
aI10
aI81
aI122
aI32582
aI34
aI3
aI5563
aI267
aI3286
aI12779
aI3
aI10170
aI19
aI45
aI63765
asg6
S'Meanwhile  Ohio State  who was idle for the final two weeks  climbed the rankings from #5 to #1 .'
p11
ss.