(dp1
S'input'
p2
(dp3
S'encoded'
p4
(lp5
I64
aI2179
aI394
aI4261
aI8667
aI3
aI9361
aI5
aI17069
asS'ori'
p6
S'This house would prohibit burning the stars and stripes'
p7
ssS'output'
p8
(dp9
g4
(lp10
I1191
aI5262
aI1290
aI382
aI1567
aI24
aI14
aI2959
aI24
aI4534
aI7058
aI3550
aI75
aI3
aI52282
aI63765
asg6
S'About 1 000 draft cards were turned in on April 3  1968  in nationwide protests organized by The Mobe .'
p11
ss.