(dp1
S'input'
p2
(dp3
S'encoded'
p4
(lp5
I64
aI2179
aI394
aI2773
aI12505
asS'ori'
p6
S'This house would embrace multiculturalism'
p7
ssS'output'
p8
(dp9
g4
(lp10
I42905
aI24
aI132
aI1106
aI4962
aI45
aI316
aI89
aI667
aI399
aI7
aI3
aI1173
aI1893
aI3
aI1622
aI5
aI3
aI1622
aI1890
aI405
aI611
aI63765
asg6
S'Cosmopolitanism  in these instances  appears to be a new form of colonization: the powerful exploit the weak and the weak eventually fight back .'
p11
ss.