(dp1
S'input'
p2
(dp3
S'encoded'
p4
(lp5
I64
aI2179
aI394
aI190
aI3
aI21
aI45
aI3895
aI834
asS'ori'
p6
S'This house would limit the right to bear arms'
p7
ssS'output'
p8
(dp9
g4
(lp10
I3
aI4283
aI2343
aI3
aI1560
aI3202
aI9934
aI2131
aI5
aI1237
aI248
aI3202
aI9934
aI2142
aI24
aI2564
aI6035
aI45
aI2164
aI2172
aI14
aI425
aI5
aI45
aI3
aI2179
aI2180
aI14
aI3
aI5509
aI14
aI2871
aI6466
aI34
aI2503
aI70
aI3353
aI3157
aI4797
aI14
aI5235
aI19
aI4339
aI5
aI4337
aI4338
aI63765
asg6
S'The NRA joined the American Civil Liberties Union and several other civil liberties organizations in joint letters to President Clinton on 10 January 1994 and to the House Committee on the Judiciary on 24 October 1995 calling for federal law enforcement reforms drawing on lessons from Waco and Ruby Ridge .'
p11
ss.