(dp1
S'input'
p2
(dp3
S'encoded'
p4
(lp5
I64
aI2179
aI43
aI63
aI1036
aI4828
aI33250
aI116
aI25073
aI45
aI3315
aI4562
asS'ori'
p6
S'This house believes that male infant circumcision is tantamount to child abuse'
p7
ssS'output'
p8
(dp9
g4
(lp10
I24
aI398
aI2293
aI217
aI4307
aI5
aI5786
aI382
aI9198
aI5
aI3
aI2774
aI9791
aI7871
aI5
aI12704
aI10006
aI45
aI8378
aI45
aI975
aI155
aI382
aI99
aI9810
aI34846
aI60
aI4307
aI73
aI9633
aI24
aI8446
aI3237
aI159
aI41
aI33250
aI63765
asg6
S'In 15th century Spain  most Jews and Muslims were expelled and the Spanish Inquisition monitored and prosecuted converts to Christianity to ensure they were not secretly consorting with Jews or engaging in Jewish practices such as circumcision  .'
p11
ss.