(dp1
S'input'
p2
(dp3
S'encoded'
p4
(lp5
I64
aI2179
aI394
aI16756
aI20435
asS'ori'
p6
S'This house would criminalize blasphemy'
p7
ssS'output'
p8
(dp9
g4
(lp10
I89
aI726
aI70
aI122
aI871
aI14
aI5
aI461
aI736
aI782
aI14
aI63765
asg6
S'A controversial law was passed on 9&nbsp;July 2009 and went into effect on 1&nbsp;January 2010 .'
p11
ss.