(dp1
S'input'
p2
(dp3
S'encoded'
p4
(lp5
I64
aI2179
aI43
aI17
aI4941
aI857
aI3211
asS'ori'
p6
S'This house believes social deprivation causes crime'
p7
ssS'output'
p8
(dp9
g4
(lp10
I3546
aI182
aI3581
aI75
aI3482
aI5
aI4614
aI912
aI2637
aI18321
aI3283
aI63
aI100
aI2511
aI88
aI316
aI726
aI5076
aI63765
asg6
S'Statutes are enacted by legislatures and reflect current cultural mores  albeit that some laws may be controversial  e .g .'
p11
ss.