(dp1
S'input'
p2
(dp3
S'encoded'
p4
(lp5
I64
aI2179
aI43
aI63
aI2659
aI417
aI1690
aI3
aI12048
aI7
aI19084
asS'ori'
p6
S'This house believes that Israel should lift the blockade of Gaza'
p7
ssS'output'
p8
(dp9
g4
(lp10
I338
aI5462
aI3
aI4871
aI7
aI3
aI16618
aI24
aI19084
aI75
aI1444
aI3
aI6704
aI5661
aI5
aI15948
aI3
aI2581
aI19094
aI60
aI19084
aI742
aI19416
aI19417
aI89
aI2544
aI7
aI3
aI19418
aI2132
aI7
aI3
aI19419
aI63765
asg6
S'"The Egyptian authorities are.increasing the suffering of the Palestinians in Gaza by building the steel wall and closing the border crossings with Gaza " said Hamzah Mansour  a member of the Shura Council of the IAF  .'
p11
ss.