(dp1
S'input'
p2
(dp3
S'encoded'
p4
(lp5
I64
aI2179
aI394
aI2017
aI628
asS'ori'
p6
S'This house would ban gambling'
p7
ssS'output'
p8
(dp9
g4
(lp10
I42
aI174
aI2725
aI3
aI260
aI34
aI64
aI726
aI2029
aI45
aI316
aI871
aI60
aI3
aI597
aI3456
aI11571
aI2784
aI63765
asg6
S'He also criticizes the government for "forcing" this controversial bill to be passed with the non-controversial attached SAFE Port Act .'
p11
ss.