(dp1
S'input'
p2
(dp3
S'encoded'
p4
(lp5
I64
aI2179
aI13605
aI2258
aI45
aI2194
asS'ori'
p6
S'This house prefers trade to aid'
p7
ssS'output'
p8
(dp9
g4
(lp10
I42
aI71
aI8985
aI92
aI42
aI3476
aI45
aI4918
aI4107
aI5
aI675
aI8
aI5019
aI6534
aI3
aI14729
aI4658
aI7
aI177
aI6329
aI14
aI16
aI364
aI63765
asg6
S'He opposed "compulsory saving " which he preferred to call "special taxation " and  like modern supply-side economists  stressed the detrimental effects of high taxes on economic activity .'
p11
ss.