(dp1
S'input'
p2
(dp3
S'encoded'
p4
(lp5
I64
aI2179
aI43
aI223
aI2138
aI11
aI89
aI21
aI45
aI2185
aI372
asS'ori'
p6
S'This house believes all nations have a right to nuclear weapons'
p7
ssS'output'
p8
(dp9
g4
(lp10
I3
aI1410
aI1638
aI7
aI11695
aI16855
aI2326
aI122
aI3
aI2891
aI7
aI2186
aI34
aI11769
aI6902
aI6080
aI7
aI10070
aI11695
aI63765
asg6
S"The main thrust of Iraq's uranium enrichment program was the development of technology for electromagnetic isotope separation (EMIS) of indigenous uranium ."
p11
ss.