(dp1
S'input'
p2
(dp3
S'encoded'
p4
(lp5
I64
aI2179
aI394
aI2773
aI12505
asS'ori'
p6
S'This house would embrace multiculturalism'
p7
ssS'output'
p8
(dp9
g4
(lp10
I3932
aI3991
aI2445
aI2446
aI60
aI5125
aI2446
aI45
aI3495
aI5
aI78
aI7
aI248
aI9648
aI63765
asg6
S'Promoting universal human rights with equal rights to women and people of other faiths .'
p11
ss.