(dp1
S'input'
p2
(dp3
S'encoded'
p4
(lp5
I64
aI2179
aI394
aI117
aI7428
aI21151
aI34
aI11389
aI2042
aI24
aI4364
asS'ori'
p6
S'This house would only teach abstinence for sex education in schools'
p7
ssS'output'
p8
(dp9
g4
(lp10
I2985
aI526
aI31024
aI63
aI3
aI1862
aI17569
aI3
aI17
aI22
aI5
aI16
aI857
aI5
aI5076
aI63765
asg6
S'Critics furthermore allege that the strategy overlooks the epidemic\'s social  political  and economic causes and "vulnerable populations"  e .g .'
p11
ss.