(dp1
S'input'
p2
(dp3
S'encoded'
p4
(lp5
I64
aI2179
aI394
aI2773
aI12505
asS'ori'
p6
S'This house would embrace multiculturalism'
p7
ssS'output'
p8
(dp9
g4
(lp10
I155
aI3367
aI63
aI938
aI183
aI725
aI73
aI24
aI271
aI234
aI2593
aI5815
aI5307
aI19
aI4232
aI5
aI2793
aI323
aI440
aI1719
aI4373
aI63765
asg6
S'They felt that far too many "undesirables " or in their view  culturally inferior immigrants from Southern and Eastern Europe had already arrived .'
p11
ss.