(dp1
S'input'
p2
(dp3
S'encoded'
p4
(lp5
I64
aI2179
aI394
aI190
aI3
aI21
aI45
aI3895
aI834
asS'ori'
p6
S'This house would limit the right to bear arms'
p7
ssS'output'
p8
(dp9
g4
(lp10
I34
aI3
aI639
aI267
aI5582
aI7
aI697
aI4436
aI24
aI2298
aI11
aI12
aI860
aI60
aI3892
aI63765
asg6
S'For the period 1976-2005  two thirds of total homicides in Texas have been committed with firearms  .'
p11
ss.