(dp1
S'input'
p2
(dp3
S'encoded'
p4
(lp5
I64
aI2179
aI43
aI63
aI3376
aI4938
aI417
aI316
aI3537
asS'ori'
p6
S'This house believes that endangered species should be protected'
p7
ssS'output'
p8
(dp9
g4
(lp10
I3
aI2533
aI122
aI2098
aI34
aI2540
aI311
aI3
aI6267
aI2712
aI24
aI10243
aI1136
aI10244
aI14
aI2116
aI5
aI4012
aI736
aI972
aI14
aI2394
aI63765
asg6
S'The Convention was opened for signature at the Earth Summit in Rio de Janeiro on 5 June 1992 and entered into force on 29 December 1993 .'
p11
ss.