(dp1
S'input'
p2
(dp3
S'encoded'
p4
(lp5
I64
aI2179
aI394
aI60
aI23587
asS'ori'
p6
S'This house would re-engage with Myanmar'
p7
ssS'output'
p8
(dp9
g4
(lp10
I233
aI45
aI13694
aI3
aI2157
aI8870
aI4881
aI4136
aI7
aI4830
aI63765
asg6
S'According to ABC  the military crackdown claimed hundreds of lives .'
p11
ss.