(dp1
S'input'
p2
(dp3
S'encoded'
p4
(lp5
I64
aI2179
aI43
aI63
aI1036
aI4828
aI33250
aI116
aI25073
aI45
aI3315
aI4562
asS'ori'
p6
S'This house believes that male infant circumcision is tantamount to child abuse'
p7
ssS'output'
p8
(dp9
g4
(lp10
I3
aI37738
aI98
aI99
aI4532
aI24
aI5350
aI604
aI273
aI3
aI267
aI37749
aI182
aI99
aI6421
aI63765
asg6
S'The raphe does not exist in females  because there  the two halves are not connected .'
p11
ss.