(dp1
S'input'
p2
(dp3
S'encoded'
p4
(lp5
I64
aI2179
aI394
aI2017
aI223
aI9058
aI23653
asS'ori'
p6
S'This house would ban all unsustainable logging'
p7
ssS'output'
p8
(dp9
g4
(lp10
I260
aI7
aI28617
aI1362
aI60
aI2756
aI41
aI211
aI2671
aI2696
aI116
aI1038
aI75
aI3
aI68
aI63
aI134
aI116
aI51
aI282
aI2041
aI7210
aI60
aI89
aI6412
aI45
aI1304
aI2148
aI658
aI7500
aI226
aI28618
aI45
aI96
aI3
aI2671
aI13714
aI150
aI8254
aI2136
aI2041
aI2175
aI63765
asg6
S'Government of IndonesiaCIFORs relationship with Indonesia as its host country is defined by the fact that it is an international research organisation with a mandate to generate global public goods  while endeavouring to support the host countrys national forest policy research agenda .'
p11
ss.