(dp1
S'input'
p2
(dp3
S'encoded'
p4
(lp5
I64
aI2179
aI394
aI5370
aI3
aI5286
asS'ori'
p6
S'This house would abolish the monarchy'
p7
ssS'output'
p8
(dp9
g4
(lp10
I725
aI19415
aI3136
aI11
aI12
aI566
aI60
aI3
aI21
aI159
aI41
aI3
aI325
aI2131
aI171
aI3
aI25023
aI171
aI7
aI2670
aI5
aI3
aI18376
aI6246
aI7
aI11169
aI6246
aI5
aI3
aI2763
aI2022
aI7
aI7015
aI7
aI2046
aI63765
asg6
S'Many Islamist groups have been associated with the right  such as the Great Union Party  the Felicity Party of Turkey and the Combatant Clergy Association/Association of Militant Clergy and the Islamic Society of Engineers of Iran .'
p11
ss.