(dp1
S'input'
p2
(dp3
S'encoded'
p4
(lp5
I64
aI2179
aI43
aI63
aI2157
aI2565
aI493
aI19084
aI382
aI4850
asS'ori'
p6
S"This house believes that Israel's 2008-2009 military operations against Gaza were justified"
p7
ssS'output'
p8
(dp9
g4
(lp10
I3730
aI285
aI116
aI11837
aI60
aI3692
aI226
aI16618
aI367
aI4091
aI7
aI89
aI17744
aI5
aI19397
aI4732
aI546
aI63
aI116
aI1540
aI14
aI13358
aI86
aI11589
aI63765
asg6
S'"The whole world is watching with indifference while Palestinians fall victims of a brutal and inhuman occupying power that is bent on wiping them out"  remarked .'
p11
ss.