(dp1
S'input'
p2
(dp3
S'encoded'
p4
(lp5
I64
aI2179
aI394
aI2976
aI12243
aI24
aI954
aI126
aI1560
aI10723
asS'ori'
p6
S'This house would implement playoffs in collegiate level American football'
p7
ssS'output'
p8
(dp9
g4
(lp10
I3
aI4799
aI416
aI45
aI1358
aI64
aI122
aI174
aI2146
aI726
aI41
aI3
aI3867
aI480
aI5003
aI5
aI15338
aI10762
aI45
aI4753
aI63
aI34958
aI440
aI24
aI68
aI1803
aI3
aI2867
aI3713
aI1597
aI131
aI3
aI25561
aI8862
aI17114
aI4799
aI606
aI86
aI267
aI1589
aI183
aI982
aI653
aI1674
aI24
aI3
aI3713
aI63765
asg6
S"The criteria used to determine this was also highly controversial  as the publicly published polls and standings seemed to indicate that TCU had  in fact  achieved the necessary poll position but the unpublished  secret formulate criteria placed them two positions too low despite rising in the coaches' poll ."
p11
ss.