(dp1
S'input'
p2
(dp3
S'encoded'
p4
(lp5
I64
aI2179
aI394
aI2017
aI223
aI9058
aI23653
asS'ori'
p6
S'This house would ban all unsustainable logging'
p7
ssS'output'
p8
(dp9
g4
(lp10
I14
aI3
aI248
aI1070
aI89
aI4792
aI615
aI18859
aI33790
aI876
aI8123
aI165
aI1050
aI138
aI351
aI248
aI1949
aI18859
aI63765
asg6
S'On the other hand  a genetically modified tree specimen might grow much faster than any other regular tree  .'
p11
ss.