(dp1
S'input'
p2
(dp3
S'encoded'
p4
(lp5
I64
aI2179
aI394
aI190
aI3
aI21
aI45
aI3895
aI834
asS'ori'
p6
S'This house would limit the right to bear arms'
p7
ssS'output'
p8
(dp9
g4
(lp10
I113
aI3
aI4367
aI34
aI4368
aI708
aI5
aI2466
aI4369
aI24
aI60
aI51
aI2705
aI2035
aI14
aI2611
aI708
aI92
aI353
aI122
aI2338
aI45
aI1358
aI3
aI1392
aI7
aI351
aI7
aI132
aI2511
asg6
S'Even the Centers for Disease Control and Prevention pitched in  with an extensive study on gun control which found "Evidence was insufficient to determine the effectiveness of any of these laws ."'
p11
ss.