(dp1
S'input'
p2
(dp3
S'encoded'
p4
(lp5
I64
aI2179
aI43
aI223
aI2138
aI11
aI89
aI21
aI45
aI2185
aI372
asS'ori'
p6
S'This house believes all nations have a right to nuclear weapons'
p7
ssS'output'
p8
(dp9
g4
(lp10
I3406
aI2046
aI3369
aI6668
aI134
aI316
aI547
aI45
aI18070
aI211
aI2879
aI7
aI1886
aI946
aI298
aI273
aI182
aI2592
aI7
aI211
aI2579
aI7987
aI1890
aI773
aI19125
aI63765
asg6
S"Additionally  Iran questions why it shouldn't be allowed to diversify its sources of energy  especially when there are fears of its oil fields eventually being depleted ."
p11
ss.