(dp1
S'input'
p2
(dp3
S'encoded'
p4
(lp5
I64
aI2179
aI43
aI63
aI3
aI4538
aI7
aI4434
aI7793
aI283
aI45
aI3586
aI417
aI316
aI577
asS'ori'
p6
S'This house believes that the sale of violent video games to minors should be banned'
p7
ssS'output'
p8
(dp9
g4
(lp10
I3
aI8252
aI57
aI3565
aI5
aI3
aI6968
aI3915
aI3565
aI1544
aI8771
aI51
aI18398
aI8418
aI3815
aI17
aI2041
aI63
aI551
aI11900
aI13408
aI29390
aI63765
aI45
aI316
aI89
aI4434
aI7793
aI319
aI63765
asg6
S'The Progress & Freedom Foundation and the Electronic Frontier Foundation together submitted an amicus brief citing social research that declared Super Mario Bros . to be a violent video game .'
p11
ss.