(dp1
S'input'
p2
(dp3
S'encoded'
p4
(lp5
I64
aI2179
aI43
aI24
aI3
aI475
aI7
aI12436
aI3364
asS'ori'
p6
S'This house believes in the use of affirmative action'
p7
ssS'output'
p8
(dp9
g4
(lp10
I155
aI3226
aI44517
aI2368
aI3476
aI3136
asg6
S'they increase animosity toward preferred groups'
p11
ss.