(dp1
S'input'
p2
(dp3
S'encoded'
p4
(lp5
I64
aI2179
aI43
aI223
aI2138
aI11
aI89
aI21
aI45
aI2185
aI372
asS'ori'
p6
S'This house believes all nations have a right to nuclear weapons'
p7
ssS'output'
p8
(dp9
g4
(lp10
I1237
aI177
aI2145
aI63765
aI2157
aI5
aI1306
aI5726
aI11
aI2173
aI63
aI3
aI4658
aI7
aI51
aI6056
aI1274
aI14
aI2185
aI4678
aI394
aI99
aI316
aI4535
aI63765
asg6
S"Several high U .S . military and intelligence officials have stated that the effects of an Israeli attack on Iran's nuclear facilities would not be preventive ."
p11
ss.