(dp1
S'input'
p2
(dp3
S'encoded'
p4
(lp5
I64
aI2179
aI43
aI63
aI3
aI21
aI45
aI12715
aI417
aI99
aI316
aI2897
asS'ori'
p6
S'This house believes that the right to asylum should not be absolute'
p7
ssS'output'
p8
(dp9
g4
(lp10
I24
aI3
aI40785
aI31816
aI2219
aI2586
aI3820
aI26191
aI34
aI3
aI3186
aI7
aI725
aI40783
aI41
aI2377
aI24
aI3
aI8862
aI2223
aI24
aI3123
aI63765
asg6
S'In 1975  the Pathet Lao forces began seeking reprisal for the involvement of many Mien as soldiers in the CIA-sponsored Secret War in Laos .'
p11
ss.