(dp1
S'input'
p2
(dp3
S'encoded'
p4
(lp5
I64
aI2179
aI43
aI63
aI11083
aI10046
aI417
aI316
aI89
aI3135
aI4603
asS'ori'
p6
S'This house believes that Holocaust denial should be a criminal offence'
p7
ssS'output'
p8
(dp9
g4
(lp10
I134
aI55
aI174
aI12
aI1966
aI63
aI75
aI38627
aI18382
aI3
aI8902
aI3744
aI221
aI89
aI15540
aI864
aI7
aI18382
aI5
aI500
aI136
aI960
aI138
aI1228
aI5
aI63
aI134
aI394
aI11
aI12
aI1796
aI45
aI1032
aI1063
aI867
aI3900
aI5
aI8196
aI1063
aI302
aI13168
aI45
aI1530
aI78
aI24
aI89
aI5
aI1063
aI1738
aI736
aI24305
aI53
aI42
aI63765
asg6
S'It has also been argued that by imprisoning Irving the Austrian courts made a martyr out of Irving and did more damage than good  and that it would have been better to simply "let him go home and let him continue talking to six people in a basement"  and "let him fade into obscurity where he belongs"  .'
p11
ss.