(dp1
S'input'
p2
(dp3
S'encoded'
p4
(lp5
I64
aI2179
aI13605
aI2258
aI45
aI2194
asS'ori'
p6
S'This house prefers trade to aid'
p7
ssS'output'
p8
(dp9
g4
(lp10
I3
aI905
aI2200
aI34
aI136
aI54
aI7
aI7160
aI41
aI155
aI11
aI6282
aI3981
aI7
aI58709
aI3
aI3142
aI7
aI6198
aI6212
aI45
aI2459
aI73
aI4262
aI5902
aI63765
asg6
S'The report asked for more regulation of banks as they have proved capable of stanching the flow of funds linked to terrorism  money-laundering or tax evasion  .'
p11
ss.