(dp1
S'input'
p2
(dp3
S'encoded'
p4
(lp5
I64
aI2179
aI394
aI2773
aI12505
asS'ori'
p6
S'This house would embrace multiculturalism'
p7
ssS'output'
p8
(dp9
g4
(lp10
I75
aI6836
aI89
aI3184
aI6249
aI2007
aI88
aI316
aI1031
aI45
aI5116
aI19
aI93
aI2767
aI2247
aI45
aI97
aI131
aI159
aI89
aI1546
aI24
aI3914
aI55
aI419
aI8666
aI3859
aI6203
aI63765
asg6
S'By comparison  a predominantly symbolic person may be able to convert from one religious faith to another but such a change in identity has very profound emotional consequences .'
p11
ss.