(dp1
S'input'
p2
(dp3
S'encoded'
p4
(lp5
I64
aI2179
aI394
aI2017
aI262
asS'ori'
p6
S'This house would ban boxing'
p7
ssS'output'
p8
(dp9
g4
(lp10
I351
aI13167
aI131
aI1495
aI55
aI12
aI4407
aI4200
aI691
aI3
aI553
aI7
aI32806
aI442
aI382
aI451
aI24
aI3
aI63765
asg6
S'Any drink but water has been strictly regulated since the Marquess of Queensbury rules were introduced in the 1800s .'
p11
ss.