(dp1
S'input'
p2
(dp3
S'encoded'
p4
(lp5
I64
aI2179
aI394
aI2773
aI12505
asS'ori'
p6
S'This house would embrace multiculturalism'
p7
ssS'output'
p8
(dp9
g4
(lp10
I9750
aI116
aI400
aI14785
aI6466
aI34
aI89
aI738
aI45
aI89
aI150
aI1257
aI5
aI400
aI34
aI3
aI9789
aI7
aI17780
aI63765
asg6
S'Nationalism is sometimes reactionary  calling for a return to a national past  and sometimes for the expulsion of foreigners .'
p11
ss.