(dp1
S'input'
p2
(dp3
S'encoded'
p4
(lp5
I64
aI2179
aI394
aI60
aI23587
asS'ori'
p6
S'This house would re-engage with Myanmar'
p7
ssS'output'
p8
(dp9
g4
(lp10
I3
aI9721
aI9722
aI174
aI1442
aI25
aI11104
aI45
aI3
aI16983
aI24
aI271
aI4464
aI34
aI595
aI57
aI5
aI2328
aI63765
asg6
S'The Dalai Lama also gave his blessing to the monks in their bid for greater freedom and democracy  .'
p11
ss.