(dp1
S'input'
p2
(dp3
S'encoded'
p4
(lp5
I64
aI2179
aI394
aI2976
aI12243
aI24
aI954
aI126
aI1560
aI10723
asS'ori'
p6
S'This house would implement playoffs in collegiate level American football'
p7
ssS'output'
p8
(dp9
g4
(lp10
I3
aI34949
aI2493
aI3
aI2937
aI24
aI2116
aI3815
aI89
aI7
aI164
aI887
aI3
aI2544
aI14324
aI63765
asg6
S'The BCS rejected the proposal in June 2009  citing a "lack of overall support" among the member conferences  .'
p11
ss.