(dp1
S'input'
p2
(dp3
S'encoded'
p4
(lp5
I64
aI2179
aI43
aI63
aI2157
aI2565
aI493
aI19084
aI382
aI4850
asS'ori'
p6
S"This house believes that Israel's 2008-2009 military operations against Gaza were justified"
p7
ssS'output'
p8
(dp9
g4
(lp10
I1237
aI3131
aI395
aI14
aI492
aI89
aI11995
aI801
aI3
aI1863
aI7
aI25094
aI34
aI3
aI237
aI413
aI535
aI51
aI7361
aI177
aI2240
aI63765
asg6
S'Several months later  On July 5  2006  a rocket hit the center of Ashkelon for the first time  striking an empty high school .'
p11
ss.