(dp1
S'input'
p2
(dp3
S'encoded'
p4
(lp5
I64
aI2179
aI394
aI117
aI7428
aI21151
aI34
aI11389
aI2042
aI24
aI4364
asS'ori'
p6
S'This house would only teach abstinence for sex education in schools'
p7
ssS'output'
p8
(dp9
g4
(lp10
I3
aI314
aI2994
aI887
aI45
aI122
aI419
aI982
aI117
aI4386
aI2598
aI2449
aI45
aI3
aI13843
aI4386
aI2598
aI29613
aI237
aI13843
aI4386
aI63765
asg6
S"The birth rate among 15- to 19-year-olds was very low - only 11 .7 per 1000 population  compared to the UK's 27 .8 births per 1 000 population  andin first placeBulgaria's 39 .0 births per 1 000  ."
p11
ss.