(dp1
S'input'
p2
(dp3
S'encoded'
p4
(lp5
I64
aI2179
aI43
aI63
aI3
aI4990
aI4991
aI116
aI4850
aI24
aI12166
aI3
aI475
aI7
aI3532
aI3290
aI7
aI4714
asS'ori'
p6
S'This house believes that the Catholic Church is justified in forbidding the use of barrier methods of contraception'
p7
ssS'output'
p8
(dp9
g4
(lp10
I3
aI5832
aI4881
aI11649
aI7
aI21152
aI475
aI116
aI89
aI23546
aI24
aI3
aI4169
aI33075
aI39699
aI18721
aI3
aI27416
aI24
aI64
aI33075
aI182
aI2439
aI5545
aI63765
asg6
S'The oldest claimed representation of condom use is a painting in the French cave Grotte des Combarrelles; the paintings in this cave are 12 00015 000 years old  .'
p11
ss.