(dp1
S'input'
p2
(dp3
S'encoded'
p4
(lp5
I64
aI2179
aI43
aI63
aI3376
aI4938
aI417
aI316
aI3537
asS'ori'
p6
S'This house believes that endangered species should be protected'
p7
ssS'output'
p8
(dp9
g4
(lp10
I7
aI7873
aI7874
aI11
aI174
aI12
aI3158
aI5
aI97
aI3854
aI55
aI12
aI996
aI13655
aI75
aI29580
aI6673
aI5
aI16456
aI7
aI3
aI2308
aI7873
aI7874
aI2487
aI11
aI12
aI3158
aI63765
asg6
S'One-fifth of coral reefs have also been destroyed  and another fifth has been severely degraded by overfishing  pollution  and invasive species; 90% of the Philippines coral reefs alone have been destroyed  .'
p11
ss.