(dp1
S'input'
p2
(dp3
S'encoded'
p4
(lp5
I64
aI2179
aI394
aI5284
aI150
aI3987
asS'ori'
p6
S'This house would reintroduce national service'
p7
ssS'output'
p8
(dp9
g4
(lp10
I6101
aI2879
aI6102
aI4793
aI2230
aI3
aI6103
aI1380
aI7
aI6104
aI24
aI63765
asg6
S'|- Lebanon 10 230 $39 150 $6 276 .90 4 143 101 Sources differsources differ regarding the precise type of governmentNo (abolished in 2007)) .'
p11
ss.