(dp1
S'input'
p2
(dp3
S'encoded'
p4
(lp5
I64
aI2179
aI235
aI3
aI2136
aI7
aI3
aI2306
aI7
aI2390
asS'ori'
p6
S'This house supports the one-child policy of the republic of China'
p7
ssS'output'
p8
(dp9
g4
(lp10
I3
aI38650
aI2474
aI122
aI3581
aI24
aI5
aI122
aI2435
aI5639
aI24
aI63765
asg6
S'The eugenistic legislation was enacted in 1934 and was formally abolished in 1976 .'
p11
ss.