(dp1
S'input'
p2
(dp3
S'encoded'
p4
(lp5
I64
aI2179
aI394
aI60
aI23587
asS'ori'
p6
S'This house would re-engage with Myanmar'
p7
ssS'output'
p8
(dp9
g4
(lp10
I97
aI446
aI7
aI2468
aI6773
aI122
aI557
aI75
aI48415
aI29759
aI3
aI12800
aI2734
aI3
aI2304
aI5
aI6426
aI14
aI3
aI5113
aI7
aI2871
aI63765
asg6
S'Another round of peaceful demonstration was held by 2 000 Myanmars affront the Burmese embassy (alongside the Russian and Chinese embassies) on the morning of October 4  .'
p11
ss.