(dp1
S'input'
p2
(dp3
S'encoded'
p4
(lp5
I64
aI2179
aI394
aI2017
aI223
aI9058
aI23653
asS'ori'
p6
S'This house would ban all unsustainable logging'
p7
ssS'output'
p8
(dp9
g4
(lp10
I574
aI460
aI116
aI9509
aI736
aI89
aI145
aI63
aI17815
aI1063
aI45
aI3226
aI25
aI19985
aI252
aI50768
aI89
aI285
aI63
aI116
aI913
aI63765
asg6
S'Each man is locked into a system that compels him to increase his herd without limitin a world that is limited .'
p11
ss.