(dp1
S'input'
p2
(dp3
S'encoded'
p4
(lp5
I64
aI2179
aI394
aI2773
aI12505
asS'ori'
p6
S'This house would embrace multiculturalism'
p7
ssS'output'
p8
(dp9
g4
(lp10
I155
aI33719
aI755
aI63
aI4
aI637
aI25232
aI24
aI10535
aI63765
asg6
S"They ponder whether that notion still lingers in today's racism ."
p11
ss.