(dp1
S'input'
p2
(dp3
S'encoded'
p4
(lp5
I64
aI2179
aI43
aI63
aI2659
aI417
aI1690
aI3
aI12048
aI7
aI19084
asS'ori'
p6
S'This house believes that Israel should lift the blockade of Gaza'
p7
ssS'output'
p8
(dp9
g4
(lp10
I3
aI6056
aI2482
aI2483
aI2493
aI1530
aI11573
aI19
aI15
aI3146
aI3136
aI5
aI27090
aI3136
aI493
aI3
aI6054
aI5
aI2659
aI24
aI5004
aI45
aI3
aI19097
aI3
aI3579
aI7
aI1640
aI521
aI45
aI2873
aI24
aI3
aI752
aI7
aI3
aI3343
aI448
aI63765
asg6
S'The Israeli Supreme Court rejected six petitions  from both leftist groups and rightist groups  against the IDF and Israel in regard to the raid "in the absence of just cause to intervene in the decision of the attorney general .'
p11
ss.