(dp1
S'input'
p2
(dp3
S'encoded'
p4
(lp5
I64
aI2179
aI43
aI17
aI4941
aI857
aI3211
asS'ori'
p6
S'This house believes social deprivation causes crime'
p7
ssS'output'
p8
(dp9
g4
(lp10
I155
aI88
aI475
aI3
aI2497
aI45
aI3553
aI3
aI5971
aI3708
aI24
aI92
aI89
aI575
aI17
aI3665
aI73
aI232
aI4875
aI78
aI1551
aI75
aI5377
aI86
aI19
aI7807
aI271
aI125
aI1227
aI34
aI1343
aI3
aI457
aI1404
aI75
aI7438
aI604
aI7
aI1160
aI7
aI1507
aI63765
asg6
S'They may use the term "structural violence" to describe the systematic ways in which a given social structure or institution kills people slowly by preventing them from meeting their basic needs  for example the deaths caused by diseases because of lack of medicine  .'
p11
ss.