(dp1
S'input'
p2
(dp3
S'encoded'
p4
(lp5
I64
aI2179
aI394
aI2998
aI3
aI4360
aI7
aI3249
aI6804
aI24
aI3
aI102
asS'ori'
p6
S'This house would encourage the creation of private universities in the UK'
p7
ssS'output'
p8
(dp9
g4
(lp10
I64
aI9178
aI19727
aI75
aI11593
aI11594
aI2951
aI24
aI1592
aI3994
aI7
aI2196
aI63765
asg6
S'This privatization  spearheaded by Junichiro Koizumi  started in 2007 following generations of debate .'
p11
ss.