(dp1
S'input'
p2
(dp3
S'encoded'
p4
(lp5
I64
aI2179
aI394
aI190
aI3
aI21
aI45
aI3895
aI834
asS'ori'
p6
S'This house would limit the right to bear arms'
p7
ssS'output'
p8
(dp9
g4
(lp10
I64
aI258
aI63
aI3
aI2483
aI743
aI63
aI3
aI1950
aI3264
aI447
aI10
aI5
aI2083
aI220
aI45
aI3
aI1643
aI6
aI63
aI134
aI447
aI3
aI2503
aI260
aI63765
asg6
S'This means that the Court ruled that the Second Amendment limits State and local governments to the same extent that it limits the federal government  .'
p11
ss.