(dp1
S'input'
p2
(dp3
S'encoded'
p4
(lp5
I64
aI2179
aI43
aI63
aI3
aI4990
aI4991
aI116
aI4850
aI24
aI12166
aI3
aI475
aI7
aI3532
aI3290
aI7
aI4714
asS'ori'
p6
S'This house believes that the Catholic Church is justified in forbidding the use of barrier methods of contraception'
p7
ssS'output'
p8
(dp9
g4
(lp10
I100
aI23571
aI5
aI38375
aI182
aI1488
aI868
aI45
aI2741
aI620
aI3
aI45904
aI24
aI35
aI8136
aI7332
aI131
aI182
aI637
aI183
aI1445
aI45
aI2741
aI620
aI31629
aI73
aI1493
aI7332
aI63765
asg6
S'Some microorganisms and viruses are small enough to pass through the pores in natural skin condoms  but are still too large to pass through latex or synthetic condoms .'
p11
ss.