(dp1
S'input'
p2
(dp3
S'encoded'
p4
(lp5
I64
aI2179
aI235
aI3
aI2136
aI7
aI3
aI2306
aI7
aI2390
asS'ori'
p6
S'This house supports the one-child policy of the republic of China'
p7
ssS'output'
p8
(dp9
g4
(lp10
I385
aI16846
aI2445
aI364
aI545
aI913
aI2506
aI3583
aI3
aI16882
aI7
aI6669
aI960
aI63765
asg6
S'Cities concentrate human activity within limited areas  limiting the breadth of environmental damage  .'
p11
ss.