(dp1
S'input'
p2
(dp3
S'encoded'
p4
(lp5
I64
aI2179
aI394
aI2741
aI3
aI1560
aI6025
aI2784
asS'ori'
p6
S'This house would pass the American Jobs Act'
p7
ssS'output'
p8
(dp9
g4
(lp10
I37188
aI196
aI116
aI3
aI413
aI639
aI291
aI6025
aI298
aI89
aI3213
aI116
aI15468
aI34
aI73
aI25505
aI19
aI93
aI1028
aI45
aI97
aI63765
asg6
S'Frictional unemployment is the time period between jobs when a worker is searching for  or transitioning from one job to another .'
p11
ss.