(dp1
S'input'
p2
(dp3
S'encoded'
p4
(lp5
I64
aI2179
aI43
aI63
aI134
aI116
aI400
aI21
aI34
aI3
aI260
aI45
aI3439
aI57
aI7
aI2381
asS'ori'
p6
S'This house believes that it is sometimes right for the government to restrict freedom of speech'
p7
ssS'output'
p8
(dp9
g4
(lp10
I3
aI2180
aI14
aI3
aI2446
aI7
aI4224
aI60
aI12493
aI122
aI685
aI24
aI45
aI6970
aI3
aI2533
aI14
aI3
aI2446
aI7
aI4224
aI60
aI12493
aI63765
asg6
S'The Committee on the Rights of Persons with Disabilities was established in 2008 to monitor the Convention on the Rights of Persons with Disabilities .'
p11
ss.