(dp1
S'input'
p2
(dp3
S'encoded'
p4
(lp5
I64
aI2179
aI43
aI63
aI3
aI28431
aI7
aI2157
aI4624
aI75
aI39939
aI27257
aI122
aI4850
asS'ori'
p6
S'This house believes that the leaking of military documents by Anat Kamm was justified'
p7
ssS'output'
p8
(dp9
g4
(lp10
I3
aI2714
aI4445
aI24
aI1849
aI45
aI3
aI20398
aI271
aI13318
aI1191
aI5342
aI291
aI2661
aI1306
aI8778
aI5
aI20349
aI15375
aI63765
asg6
S'The Obama administration  in response to the leaks  re-expressed their long-held doubts about links between Pakistan intelligence agents and Afghan insurgents .'
p11
ss.