(dp1
S'input'
p2
(dp3
S'encoded'
p4
(lp5
I64
aI2179
aI394
aI60
aI23587
asS'ori'
p6
S'This house would re-engage with Myanmar'
p7
ssS'output'
p8
(dp9
g4
(lp10
I459
aI9503
aI2087
aI2136
aI7987
aI7
aI2568
aI291
aI2450
aI5
aI3118
aI1074
aI11967
aI44681
aI2579
aI5
aI2880
aI13905
aI5224
aI2186
aI6771
aI546
aI5
aI2955
aI7
aI8856
aI5
aI6766
aI63765
asg6
S"Under India's Look East policy  fields of cooperation between India and Burma include remote sensing  oil and gas exploration  information technology  hydro power and construction of ports and buildings  ."
p11
ss.