(dp1
S'input'
p2
(dp3
S'encoded'
p4
(lp5
I64
aI2179
aI394
aI2773
aI12505
asS'ori'
p6
S'This house would embrace multiculturalism'
p7
ssS'output'
p8
(dp9
g4
(lp10
I3
aI2266
aI122
aI1340
aI60
aI3
aI7
aI11152
aI92
aI122
aI575
aI75
aI3
aI51809
aI3795
aI5
aI3
aI37486
aI4750
aI1863
aI34
aI2250
aI5
aI2702
aI2041
aI24
aI3572
aI63765
asg6
S'The Alliance was presented with the "Dialogue of Civilizations" award  which was given by the Rumi Forum and the Georgetown University Center for Peace and Security Research in Washington .'
p11
ss.