(dp1
S'input'
p2
(dp3
S'encoded'
p4
(lp5
I64
aI2179
aI394
aI2017
aI262
asS'ori'
p6
S'This house would ban boxing'
p7
ssS'output'
p8
(dp9
g4
(lp10
I1021
aI45
aI3
aI419
aI1488
aI696
aI7
aI403
aI3052
aI3
aI14684
aI116
aI726
aI5
aI13787
aI1967
aI1191
aI211
aI2485
asg6
S'Due to the very small number of documented cases  the diagnosis is controversial  and doubt exists about its validity  .]'
p11
ss.