(dp1
S'input'
p2
(dp3
S'encoded'
p4
(lp5
I64
aI2179
aI43
aI63
aI2659
aI417
aI1690
aI3
aI12048
aI7
aI19084
asS'ori'
p6
S'This house believes that Israel should lift the blockade of Gaza'
p7
ssS'output'
p8
(dp9
g4
(lp10
I378
aI880
aI4550
aI4228
aI971
aI2635
aI45
aI1616
aI3
aI1263
aI15926
aI1227
aI508
aI99
aI1443
aI3
aI46337
aI45
aI7074
aI9055
aI3515
aI89
aI22320
aI63765
asg6
S"However  neither mechanism contains sufficient resources to cover the PNA's entire monthly needs  thus not allowing the PNA to plan expenditures beyond a two-month horizon  ."
p11
ss.