(dp1
S'input'
p2
(dp3
S'encoded'
p4
(lp5
I64
aI2179
aI43
aI223
aI2138
aI11
aI89
aI21
aI45
aI2185
aI372
asS'ori'
p6
S'This house believes all nations have a right to nuclear weapons'
p7
ssS'output'
p8
(dp9
g4
(lp10
I574
aI12098
aI3525
aI588
aI45
aI34745
aI2236
aI2940
aI574
aI7
aI92
aI139
aI11698
aI588
aI45
aI567
aI11521
aI63765
asg6
S'Each submarine carries up to 16 Trident II D-5 missiles  each of which can contain up to twelve warheads (i .e .'
p11
ss.