(dp1
S'input'
p2
(dp3
S'encoded'
p4
(lp5
I64
aI2179
aI43
aI63
aI3
aI4538
aI7
aI4434
aI7793
aI283
aI45
aI3586
aI417
aI316
aI577
asS'ori'
p6
S'This house believes that the sale of violent video games to minors should be banned'
p7
ssS'output'
p8
(dp9
g4
(lp10
I5267
aI217
aI283
aI1619
aI89
aI325
aI250
aI7
aI29711
aI5
aI3108
aI19
aI3
aI7740
aI5
aI4980
aI45
aI3
aI939
aI3174
aI63
aI283
aI124
aI12202
aI50494
aI283
aI2909
aI9139
aI50494
aI938
aI593
aI138
aI248
aI274
aI7
aI14894
aI159
aI41
aI4035
aI73
aI113
aI725
aI3955
aI63765
asg6
S'Indeed  most games require a great deal of patience and focus from the player  and  contrary to the popular perception that games provide instant gratification  games actually delay gratification far longer than other forms of entertainment such as film or even many books  .'
p11
ss.