(dp1
S'input'
p2
(dp3
S'encoded'
p4
(lp5
I64
aI2179
aI43
aI17
aI4941
aI857
aI3211
asS'ori'
p6
S'This house believes social deprivation causes crime'
p7
ssS'output'
p8
(dp9
g4
(lp10
I3313
aI5605
aI14
aI380
aI2041
aI13733
aI34
aI1530
aI2439
aI5
aI768
aI2367
aI45
aI59018
aI4758
aI24
aI3882
aI63765
asg6
S'She served on various research committees for six years and then moved to Rockford College in Illinois .'
p11
ss.