(dp1
S'input'
p2
(dp3
S'encoded'
p4
(lp5
I64
aI2179
aI394
aI10662
aI626
aI187
aI2157
aI2697
aI19
aI2371
asS'ori'
p6
S'This house would remove United States military bases from Japan'
p7
ssS'output'
p8
(dp9
g4
(lp10
I24
aI97
aI3713
aI3714
aI75
aI3
aI33128
aI26478
aI24
aI88
aI7
aI3
aI2598
aI3478
aI3
aI4163
aI9561
aI7
aI3
aI2145
aI63765
aI2697
aI3478
aI1811
aI5
aI3478
aI3
aI5088
aI7
aI3
aI2554
aI3037
asg6
S'In another poll conducted by the Asahi Shimbun in May 2010  43% of the population wanted the complete closure of the U .S . bases  42% wanted reduction and 11% wanted the maintenance of the status quo '
p11
ss.