(dp1
S'input'
p2
(dp3
S'encoded'
p4
(lp5
I64
aI2179
aI394
aI5370
aI223
aI4013
aI10440
aI2446
aI4881
aI75
aI14482
aI11004
asS'ori'
p6
S'This house would abolish all collective bargaining rights claimed by trades unions'
p7
ssS'output'
p8
(dp9
g4
(lp10
I3
aI23843
aI2874
aI45
aI17276
aI3
aI2550
aI7
aI3
aI150
aI23855
aI5
aI155
aI9328
aI19
aI3
aI23839
aI226
aI2780
aI271
aI229
aI2789
aI45
aI1576
aI271
aI3834
aI24
aI3
aI23839
aI63765
asg6
S'The AFL threatened to revoke the charter of the national UBW  and they withdrew from the KOL  while urging their individual members to keep their membership in the KOL  .'
p11
ss.