(dp1
S'input'
p2
(dp3
S'encoded'
p4
(lp5
I64
aI2179
aI43
aI63
aI7382
aI116
aI400
aI4713
asS'ori'
p6
S'This house believes that bribery is sometimes acceptable'
p7
ssS'output'
p8
(dp9
g4
(lp10
I9744
aI5359
aI5118
aI5
aI8153
aI3645
aI182
aI1796
aI138
aI11142
aI1443
aI86
aI45
aI316
aI5168
aI75
aI270
aI5915
aI63765
asg6
S'Openly removing costly and lengthy regulations are better than covertly allowing them to be bypassed by using bribes .'
p11
ss.