(dp1
S'input'
p2
(dp3
S'encoded'
p4
(lp5
I64
aI2179
aI394
aI2017
aI3807
aI314
aI3433
asS'ori'
p6
S'This house would ban partial birth abortions'
p7
ssS'output'
p8
(dp9
g4
(lp10
I3
aI70
aI417
aI99
aI16756
aI1640
aI6238
aI7
aI3
aI21
aI45
aI708
aI4259
aI284
aI760
asg6
S'the law should not criminalize just exercises of the right to control ones own body'
p11
ss.