(dp1
S'input'
p2
(dp3
S'encoded'
p4
(lp5
I64
aI2179
aI235
aI3
aI2136
aI7
aI3
aI2306
aI7
aI2390
asS'ori'
p6
S'This house supports the one-child policy of the republic of China'
p7
ssS'output'
p8
(dp9
g4
(lp10
I289
aI3
aI388
aI3
aI7303
aI440
aI643
aI177
aI1603
aI7
aI6484
aI45
aI132
aI7438
aI226
aI3
aI10070
aI6619
aI440
aI443
aI159
aI6484
aI63765
asg6
S'Over the centuries  the Europeans had developed high degrees of immunity to these diseases  while the indigenous peoples had no such immunity  .'
p11
ss.