(dp1
S'input'
p2
(dp3
S'encoded'
p4
(lp5
I64
aI2179
aI43
aI63
aI3
aI4990
aI4991
aI116
aI4850
aI24
aI12166
aI3
aI475
aI7
aI3532
aI3290
aI7
aI4714
asS'ori'
p6
S'This house believes that the Catholic Church is justified in forbidding the use of barrier methods of contraception'
p7
ssS'output'
p8
(dp9
g4
(lp10
I9630
aI174
aI7132
aI63
aI16251
aI1025
aI92
aI24
aI3
aI26854
aI5480
aI116
aI13089
aI41
aI10729
aI139
aI2628
aI342
aI2206
aI3
aI998
asg6
S'Benedict also emphasised that "Only creative reason  which in the crucified God is manifested as love  can really show us the way ."'
p11
ss.