(dp1
S'input'
p2
(dp3
S'encoded'
p4
(lp5
I64
aI2179
aI43
aI63
aI134
aI116
aI400
aI21
aI34
aI3
aI260
aI45
aI3439
aI57
aI7
aI2381
asS'ori'
p6
S'This house believes that it is sometimes right for the government to restrict freedom of speech'
p7
ssS'output'
p8
(dp9
g4
(lp10
I3500
aI3501
aI14036
aI5
aI7
aI3
aI2475
aI7
aI3
aI2308
aI441
aI24
aI11698
aI4375
aI5391
aI45
aI3
aI237
aI3264
aI2230
aI2381
aI5
aI2382
aI3839
aI63765
asg6
S'Article III  Sections 4 and 5 of the Constitution of the Philippines  written in 1987  contain identical wording to the First Amendment regarding speech and religion  respectively  .'
p11
ss.