(dp1
S'input'
p2
(dp3
S'encoded'
p4
(lp5
I64
aI2179
aI43
aI223
aI2138
aI11
aI89
aI21
aI45
aI2185
aI372
asS'ori'
p6
S'This house believes all nations have a right to nuclear weapons'
p7
ssS'output'
p8
(dp9
g4
(lp10
I24
aI3
aI2714
aI4445
aI517
aI89
aI667
aI372
aI5294
aI60
aI2451
aI34
aI89
aI1811
aI7
aI3
aI5086
aI696
aI7
aI2946
aI2185
aI372
aI14
aI574
aI823
aI19
aI45
aI291
aI5
aI1811
aI7
aI100
aI2900
aI63765
asg6
S'In 2010  the Obama administration negotiated a new weapons accord with Russia for a reduction of the maximum number of deployed nuclear weapons on each side from 2 200 to between 1 500 and 1 675a reduction of some 30 percent .'
p11
ss.