(dp1
S'input'
p2
(dp3
S'encoded'
p4
(lp5
I64
aI2179
aI43
aI63
aI6670
aI546
aI417
aI316
aI89
aI1334
aI3108
aI7
aI4849
aI1886
aI2855
asS'ori'
p6
S'This house believes that wind power should be a primary focus of future energy supply'
p7
ssS'output'
p8
(dp9
g4
(lp10
I6670
aI546
aI24
aI1005
aI116
aI89
aI2843
aI5
aI9100
aI2186
aI63
aI139
aI316
aI5
aI116
aI16514
aI2946
aI63765
asg6
S'Wind power in Australia is a proven and reliable technology that can be and is readily deployed  .'
p11
ss.