(dp1
S'input'
p2
(dp3
S'encoded'
p4
(lp5
I64
aI2179
aI394
aI190
aI3
aI21
aI45
aI3895
aI834
asS'ori'
p6
S'This house would limit the right to bear arms'
p7
ssS'output'
p8
(dp9
g4
(lp10
I3
aI3336
aI3326
aI63
aI4311
aI14170
aI5
aI17372
aI382
aI12344
aI7
aI7693
aI1374
aI24
aI89
aI998
aI63
aI474
aI2617
aI24
aI3386
aI5
aI15800
aI15794
aI63765
asg6
S'The suit alleged that handgun manufacturers and distributors were guilty of marketing guns in a way that encouraged violence in black and Hispanic neighborhoods .'
p11
ss.