(dp1
S'input'
p2
(dp3
S'encoded'
p4
(lp5
I64
aI2179
aI394
aI16642
aI1376
aI5269
asS'ori'
p6
S'This house would subsidize poor communities'
p7
ssS'output'
p8
(dp9
g4
(lp10
I3
aI2448
aI7
aI159
aI256
aI116
aI6025
aI7
aI1235
aI5102
aI34
aI79
aI45
aI3226
aI112
aI5
aI4360
aI7
aI658
aI7500
aI24
aI3
aI399
aI7
aI667
aI73
aI3006
aI2667
aI63765
asg6
S'The output of such programs is twofold: jobs of short duration for work to increase income  and creation of public goods in the form of new or improved infrastructure  .'
p11
ss.