(dp1
S'input'
p2
(dp3
S'encoded'
p4
(lp5
I64
aI2179
aI43
aI17
aI4941
aI857
aI3211
asS'ori'
p6
S'This house believes social deprivation causes crime'
p7
ssS'output'
p8
(dp9
g4
(lp10
I4435
aI122
aI3
aI2645
aI521
aI7
aI1012
aI3048
aI24
aI5
aI116
aI16330
aI45
aI3226
aI45
aI3
aI24
aI63765
asg6
S'Suicide was the 16th leading cause of death worldwide in 2004 and is projected to increase to the 12th in 2030  .'
p11
ss.