(dp1
S'input'
p2
(dp3
S'encoded'
p4
(lp5
I64
aI2179
aI394
aI5284
aI150
aI3987
asS'ori'
p6
S'This house would reintroduce national service'
p7
ssS'output'
p8
(dp9
g4
(lp10
I378
aI155
aI373
aI148
aI149
aI1185
aI298
aI3
aI5808
aI2375
aI2037
aI2219
aI63
aI5816
aI271
aI284
aI24
aI100
aI3052
aI75
aI136
aI138
aI767
aI45
aI93
aI63765
asg6
S'However  they became considerably less important when the Prussian armies faced forces that outnumbered their own in some cases by more than ten to one .'
p11
ss.