(dp1
S'input'
p2
(dp3
S'encoded'
p4
(lp5
I64
aI2179
aI394
aI10662
aI626
aI187
aI2157
aI2697
aI19
aI2371
asS'ori'
p6
S'This house would remove United States military bases from Japan'
p7
ssS'output'
p8
(dp9
g4
(lp10
I41
aI159
aI134
aI2867
aI45
aI4506
aI3
aI845
aI7
aI4912
aI2571
aI60
aI51
aI1039
aI717
aI14
aI3
aI596
aI7
aI206
aI3791
aI10655
aI63764
asg6
S"As such  isn't it necessary to address the issue of burden sharing with an approach based on the importance of having deep sympathy ?"
p11
ss.