(dp1
S'input'
p2
(dp3
S'encoded'
p4
(lp5
I64
aI2179
aI43
aI223
aI2138
aI11
aI89
aI21
aI45
aI2185
aI372
asS'ori'
p6
S'This house believes all nations have a right to nuclear weapons'
p7
ssS'output'
p8
(dp9
g4
(lp10
I3
aI2950
aI382
aI3250
aI6847
aI2302
aI24
aI3
aI320
aI5
aI88
aI316
aI416
aI2643
aI41
aI36731
aI7233
aI1413
aI717
aI12077
aI2940
aI107
aI7
aI12098
aI7233
aI12077
aI2940
aI63765
asg6
S'The missile were mostly probably bought in the early 90s and may be used today as canistered launched land based cruise missiles instead of submarine launched cruise missiles .'
p11
ss.