(dp1
S'input'
p2
(dp3
S'encoded'
p4
(lp5
I64
aI2179
aI394
aI2017
aI3807
aI314
aI3433
asS'ori'
p6
S'This house would ban partial birth abortions'
p7
ssS'output'
p8
(dp9
g4
(lp10
I16781
aI3
aI21
aI45
aI3269
aI24
aI2888
aI35
aI4836
aI958
aI138
aI862
aI643
aI4836
aI116
aI742
aI45
aI11
aI1237
aI5138
aI63765
asg6
S'Grounding the right to life in essential natural capacities rather than accidental developed capacities is said to have several advantages  .'
p11
ss.