(dp1
S'input'
p2
(dp3
S'encoded'
p4
(lp5
I64
aI2179
aI394
aI2017
aI223
aI9058
aI23653
asS'ori'
p6
S'This house would ban all unsustainable logging'
p7
ssS'output'
p8
(dp9
g4
(lp10
I3
aI237
aI267
aI3
aI50728
aI5
aI3
aI50729
aI382
aI3
aI117
aI2503
aI18091
aI24
aI3
aI976
aI12751
aI45
aI316
aI2949
aI5
aI50730
aI751
aI3
aI481
aI63765
asg6
S'The first two highways: the Rodovia Belem-Brasilia (1958) and the Cuiaba-Porto Velho (1968) were the only federal highways in the Legal Amazon to be paved and passable year-round before the late 1990s .'
p11
ss.