(dp1
S'input'
p2
(dp3
S'encoded'
p4
(lp5
I64
aI2179
aI13605
aI2258
aI45
aI2194
asS'ori'
p6
S'This house prefers trade to aid'
p7
ssS'output'
p8
(dp9
g4
(lp10
I378
aI132
aI19730
aI1687
aI382
aI136
aI22
aI13168
aI524
aI534
aI45
aI15424
aI3
aI242
aI19
aI2359
aI138
aI212
aI3791
aI2429
aI5061
aI63765
asg6
S'However  these rhetorical attacks were more political talking points required to differentiate the Democrats from Republicans than real deep ideological contrasts .'
p11
ss.