(dp1
S'input'
p2
(dp3
S'encoded'
p4
(lp5
I64
aI2179
aI43
aI63
aI3
aI4991
aI7
aI180
aI417
aI316
aI5396
aI19
aI3
aI169
aI10
asS'ori'
p6
S'This house believes that the Church of England should be separated from the British state'
p7
ssS'output'
p8
(dp9
g4
(lp10
I3
aI3445
aI7
aI6080
aI55
aI12
aI1515
aI24
aI89
aI696
aI7
aI2203
aI45
aI3397
aI1603
aI853
aI14
aI3
aI4531
aI976
aI5143
aI5
aI6404
aI3293
aI2368
aI3
aI3576
aI2210
aI7
aI2382
aI24
aI2022
aI63765
asg6
S'The concept of separation has been adopted in a number of countries  to varying degrees depending on the applicable legal structures and prevalent views toward the proper role of religion in society .'
p11
ss.