(dp1
S'input'
p2
(dp3
S'encoded'
p4
(lp5
I64
aI2179
aI43
aI63
aI187
aI417
aI99
aI16642
aI3
aI6449
aI7
aI3935
asS'ori'
p6
S'This house believes that states should not subsidize the growing of tobacco'
p7
ssS'output'
p8
(dp9
g4
(lp10
I2191
aI2206
aI2666
aI4442
aI7
aI61047
aI45442
aI5
aI59603
aI21652
aI5
aI2885
aI59600
aI5
aI59604
aI2579
aI2885
aI7311
aI34068
aI8818
aI3569
aI2154
aI63765
asg6
S'Commodity US Dollars (in Millions) Percentage of TotalFeed Grains 2 841 35 .4Wheat 1 173 14 .6Rice 1 130 14 .1Upland and ElS Cotton 1 420 17 .7Tobacco 18 0 .2Dairy 295 3 .7Soybeans and products 610 7 .6Minor Oilseeds 29 0 .4Peanuts 259 3 .2Sugar 61 0 .8Honey 3 0 .0Wool and Mohair 12 0 .1Vegetable Oil products 11 0 .1Other Crops 160 2 .0Total 8 022 100Source USDA 2006 Fiscal Year Budget  .'
p11
ss.