(dp1
S'input'
p2
(dp3
S'encoded'
p4
(lp5
I64
aI2179
aI43
aI63
aI187
aI417
aI99
aI16642
aI3
aI6449
aI7
aI3935
asS'ori'
p6
S'This house believes that states should not subsidize the growing of tobacco'
p7
ssS'output'
p8
(dp9
g4
(lp10
I3
aI296
aI116
aI61
aI116
aI162
aI401
aI45
aI41
aI89
aI63
aI6736
aI291
aI3
aI8904
aI8887
aI1404
aI75
aI13169
aI45
aI3
aI1224
aI19499
aI1404
aI75
aI3104
aI3103
aI5
aI55198
aI63765
asg6
S'The result is what is usually referred to as a "high" that ranges between the mild stimulus caused by nicotine to the intense euphoria caused by heroin  cocaine and methamphetamines  .'
p11
ss.