(dp1
S'input'
p2
(dp3
S'encoded'
p4
(lp5
I64
aI2179
aI394
aI5284
aI150
aI3987
asS'ori'
p6
S'This house would reintroduce national service'
p7
ssS'output'
p8
(dp9
g4
(lp10
I3
aI5455
aI7
aI5610
aI24
aI326
aI122
aI2791
aI14
aI2959
aI75
aI1902
aI2990
aI1405
aI2161
aI5871
aI5872
aI60
aI3
aI1447
aI5831
aI773
aI5733
aI292
aI2439
aI395
aI63765
asg6
S'The abolition of conscription in Britain was announced on 4 April 1957 by recently elected prime minister Harold Macmillan  with the last conscripts being recruited three years later  .'
p11
ss.