(dp1
S'input'
p2
(dp3
S'encoded'
p4
(lp5
I64
aI2179
aI43
aI17
aI4941
aI857
aI3211
asS'ori'
p6
S'This house believes social deprivation causes crime'
p7
ssS'output'
p8
(dp9
g4
(lp10
I3
aI696
aI7
aI15800
aI7582
aI55
aI12
aI1879
aI7456
aI5
aI11
aI2617
aI2722
aI166
aI138
aI63
aI7
aI5948
aI131
aI979
aI138
aI63
aI7
aI5946
aI63765
asg6
S'The number of Hispanic offenders has been increasing rapidly and have violence rates higher than that of Whites but lower than that of Blacks  .'
p11
ss.