(dp1
S'input'
p2
(dp3
S'encoded'
p4
(lp5
I64
aI2179
aI394
aI5370
aI3
aI5286
asS'ori'
p6
S'This house would abolish the monarchy'
p7
ssS'output'
p8
(dp9
g4
(lp10
I100
aI2467
aI395
aI24
aI89
aI3028
aI24
aI3
aI4156
aI5172
aI803
aI7
aI1413
aI9043
aI459
aI3
aI5277
aI7
aI1119
aI15388
aI81
aI685
aI24
aI3
aI4156
aI5172
aI5346
aI89
aI9115
aI260
aI459
aI495
aI7804
aI41
aI2164
aI60
aI3
aI804
aI7
aI9185
aI89
aI7272
aI1362
aI60
aI3
aI2503
aI260
aI7
aI2547
aI63765
asg6
S"Some decades later  in 1869  a rebellion in the Red River area of Rupert's Land erupted under the leadership of Louis Riel  who established in the Red River settlement a provisional government under John Bruce as president  with the intent of negotiating a provincial relationship with the federal government of Canada ."
p11
ss.