(dp1
S'input'
p2
(dp3
S'encoded'
p4
(lp5
I64
aI2179
aI43
aI63
aI2659
aI417
aI1690
aI3
aI12048
aI7
aI19084
asS'ori'
p6
S'This house believes that Israel should lift the blockade of Gaza'
p7
ssS'output'
p8
(dp9
g4
(lp10
I93
aI122
aI1108
aI24
aI3
aI506
aI24
aI421
aI45
aI292
aI25065
aI5
aI89
aI14899
aI24
aI3
aI1070
aI89
aI3791
aI1024
aI24
aI3
aI20
aI8410
aI89
aI11221
aI11225
aI45
aI3
aI1536
aI2372
aI24935
aI5
aI1030
aI63765
asg6
S'One was shot in the knee  in addition to three fractures and a crack in the hand  a deep cut in the left ear  a stab wound to the chest  internal bleeding  and cuts .'
p11
ss.