(dp1
S'input'
p2
(dp3
S'encoded'
p4
(lp5
I64
aI2179
aI43
aI63
aI134
aI116
aI400
aI21
aI34
aI3
aI260
aI45
aI3439
aI57
aI7
aI2381
asS'ori'
p6
S'This house believes that it is sometimes right for the government to restrict freedom of speech'
p7
ssS'output'
p8
(dp9
g4
(lp10
I3
aI5224
aI9579
aI7
aI2547
aI395
aI353
aI63
aI3
aI59286
aI55
aI2126
aI24
aI89
aI1597
aI7
aI300
aI24
aI1849
aI45
aI7008
aI3335
aI75
aI3
aI2023
aI9375
aI2133
aI63765
asg6
S'The Information Commissioner of Canada (ICC) later found that the CHRC has "placed itself in a position of deemed refusal" in response to complaints filed by the Canadian Taxpayers Federation (CTF) .'
p11
ss.