(dp1
S'input'
p2
(dp3
S'encoded'
p4
(lp5
I64
aI2179
aI43
aI63
aI188
aI220
aI417
aI1619
aI4275
aI45
aI713
aI14799
aI7533
aI311
aI3
aI3721
aI5145
asS'ori'
p6
S'This house believes that democratic governments should require voters to present photo identification at the polling station'
p7
ssS'output'
p8
(dp9
g4
(lp10
I18361
aI1298
aI223
aI20463
aI11
aI952
aI60
aI73
aI4788
aI24
aI4168
aI4445
aI73
aI3
aI2035
aI7
aI5276
aI63765
asg6
S'HAVA requires all commissioners have experience with or expertise in election administration or the study of elections  .'
p11
ss.