(dp1
S'input'
p2
(dp3
S'encoded'
p4
(lp5
I64
aI2179
aI43
aI63
aI2157
aI2565
aI493
aI19084
aI382
aI4850
asS'ori'
p6
S"This house believes that Israel's 2008-2009 military operations against Gaza were justified"
p7
ssS'output'
p8
(dp9
g4
(lp10
I41
aI2173
aI24
aI3
aI16635
aI905
aI42
aI2357
aI9358
aI14
aI5224
aI2396
aI75
aI878
aI6056
aI2879
aI3848
aI63
aI19088
aI5462
aI24
aI19084
aI463
aI124
aI622
aI2429
aI5
aI9564
aI63765
asg6
S'As stated in the Cordesman report  he relied exclusively on information provided by official Israeli sources  noting that Palestinian authorities in Gaza could provide primarily ideological and propaganda statements"  .'
p11
ss.