(dp1
S'input'
p2
(dp3
S'encoded'
p4
(lp5
I64
aI2179
aI394
aI2017
aI3807
aI314
aI3433
asS'ori'
p6
S'This house would ban partial birth abortions'
p7
ssS'output'
p8
(dp9
g4
(lp10
I233
aI45
aI3
aI4367
aI34
aI4368
aI708
aI3
aI696
aI7
aI3495
aI81
aI2013
aI24
aI19
aI1968
aI3257
aI122
aI63765
asg6
S'According to the Centers for Disease Control  the number of women who died in 1972 from illegal abortion was thirty-nine (39)  .'
p11
ss.