(dp1
S'input'
p2
(dp3
S'encoded'
p4
(lp5
I64
aI2179
aI43
aI8629
aI116
aI3
aI117
aI998
asS'ori'
p6
S'This house believes atheism is the only way'
p7
ssS'output'
p8
(dp9
g4
(lp10
I38824
aI8446
aI25802
aI16658
aI89
aI234
aI7
aI5480
aI92
aI55
aI1699
aI317
aI24
aI8487
aI8499
aI324
aI19
aI271
aI8893
aI3
aI38825
aI38826
aI38827
aI131
aI117
aI41
aI51
aI421
aI45
aI3
aI8446
aI234
aI7
aI89
aI3446
aI5480
aI99
aI24
aI3
aI3851
aI18704
aI2498
aI63
aI13639
aI73
aI447
aI21249
aI45
aI5480
aI63765
asg6
S'Kabbalah  Jewish mysticism  paints a pantheistic/panentheistic view of God  which has wide acceptance in Hasidic Judaism  particularly from their founder The Baal Shem Tov  but only as an addition to the Jewish view of a personal god  not in the original pantheistic sense that denies or limits persona to God .'
p11
ss.