(dp1
S'input'
p2
(dp3
S'encoded'
p4
(lp5
I64
aI2179
aI43
aI63
aI1036
aI4828
aI33250
aI116
aI25073
aI45
aI3315
aI4562
asS'ori'
p6
S'This house believes that male infant circumcision is tantamount to child abuse'
p7
ssS'output'
p8
(dp9
g4
(lp10
I3
aI32222
aI490
aI7
aI3
aI8748
aI27994
aI1786
aI493
aI3
aI18153
aI7
aI3
aI1548
aI6839
aI87
aI3
aI33218
aI88
aI316
aI1024
aI1931
aI60
aI89
aI39819
aI19
aI2510
aI3
aI1548
aI6839
aI63765
asg6
S'The flared bottom of the bell fits tightly against the hole of the base plate  so the foreskin may be cut away with a scalpel from above the base plate  .'
p11
ss.