(dp1
S'input'
p2
(dp3
S'encoded'
p4
(lp5
I64
aI2179
aI394
aI5284
aI150
aI3987
asS'ori'
p6
S'This house would reintroduce national service'
p7
ssS'output'
p8
(dp9
g4
(lp10
I24
aI42
aI122
aI2990
aI211
aI8384
aI5
aI42
aI5605
aI24
aI63
aI2210
aI487
aI63765
asg6
S'In 1974 he was elected its chairman and he served in that role until 1976  .'
p11
ss.