(dp1
S'input'
p2
(dp3
S'encoded'
p4
(lp5
I64
aI2179
aI394
aI4325
aI2042
aI270
aI89
aI11605
aI3324
asS'ori'
p6
S'This house would fund education using a voucher scheme'
p7
ssS'output'
p8
(dp9
g4
(lp10
I653
aI3
aI2997
aI7
aI15
aI2211
aI5
aI2179
aI3024
aI45
aI3810
aI3
aI2326
aI3
aI2326
aI122
aI775
aI5083
aI21078
aI1295
aI5806
aI7
aI7081
aI6941
aI63765
asg6
S'Despite the efforts of both Senate and House Leaders to save the program  the program was effectively shutdown  laying off thousands of aerospace workers  .'
p11
ss.