(dp1
S'input'
p2
(dp3
S'encoded'
p4
(lp5
I64
aI2179
aI394
aI2976
aI12243
aI24
aI954
aI126
aI1560
aI10723
asS'ori'
p6
S'This house would implement playoffs in collegiate level American football'
p7
ssS'output'
p8
(dp9
g4
(lp10
I2298
aI440
aI89
aI21248
aI502
aI289
aI7716
aI24
aI3
aI3366
aI5216
aI5
aI3
aI267
aI4144
aI382
aI5396
aI75
aI1640
aI93
aI957
aI24
aI3
aI2809
aI2643
aI3713
aI131
aI3
aI11663
aI1442
aI7716
aI3
aI21
aI45
aI6372
aI24
aI3
aI5240
aI1011
aI319
aI63765
asg6
S'Texas had a commanding advantage over Oklahoma in the Harris Interactive  and the two teams were separated by just one point in the USA Today poll  but the computers gave Oklahoma the right to play in the Big 12 Championship Game .'
p11
ss.