(dp1
S'input'
p2
(dp3
S'encoded'
p4
(lp5
I64
aI2179
aI394
aI190
aI3
aI21
aI45
aI3895
aI834
asS'ori'
p6
S'This house would limit the right to bear arms'
p7
ssS'output'
p8
(dp9
g4
(lp10
I3
aI626
aI187
aI122
aI246
aI344
aI41
aI206
aI3
aI870
aI4280
aI2446
aI2511
aI24
aI3
aI643
aI285
aI60
aI3
aI748
aI3461
aI7
aI4281
aI24
aI759
aI1021
aI45
aI3
aI1500
aI7
aI3
aI2611
aI4282
aI324
aI3
aI4283
aI63765
asg6
S'The United States was generally seen as having the least stringent anti-gun rights laws in the developed world  with the possible exception of Switzerland  in part due to the strength of the gun lobby  particularly the NRA  .'
p11
ss.