(dp1
S'input'
p2
(dp3
S'encoded'
p4
(lp5
I64
aI2179
aI394
aI5370
aI223
aI4013
aI10440
aI2446
aI4881
aI75
aI14482
aI11004
asS'ori'
p6
S'This house would abolish all collective bargaining rights claimed by trades unions'
p7
ssS'output'
p8
(dp9
g4
(lp10
I89
aI7346
aI7
aI9746
aI45
aI1296
aI271
aI4604
aI2444
aI116
aI63
aI100
aI11004
aI11
aI5536
aI11986
aI34
aI12395
aI5
aI189
aI63765
asg6
S"A consequence of unions' zeal to guard their special interests is that some unions have actively lobbied for racist and anti-immigration policies ."
p11
ss.