(dp1
S'input'
p2
(dp3
S'encoded'
p4
(lp5
I64
aI2179
aI43
aI63
aI3
aI21
aI45
aI12715
aI417
aI99
aI316
aI2897
asS'ori'
p6
S'This house believes that the right to asylum should not be absolute'
p7
ssS'output'
p8
(dp9
g4
(lp10
I3
aI27988
aI1779
aI89
aI705
aI7
aI78
aI24
aI2203
aI63765
asg6
S'the UNHCR employed a staff of 6 351 people in 117 countries  .'
p11
ss.