(dp1
S'input'
p2
(dp3
S'encoded'
p4
(lp5
I64
aI2179
aI43
aI24
aI3
aI475
aI7
aI12436
aI3364
asS'ori'
p6
S'This house believes in the use of affirmative action'
p7
ssS'output'
p8
(dp9
g4
(lp10
I10252
aI45
aI6804
aI116
aI174
aI695
aI75
aI3
aI2050
aI10246
aI15751
aI92
aI116
aI449
aI7595
aI311
aI3
aI1200
aI126
aI63765
asg6
S'Admission to universities is also determined by the strict entrance exam  which is extremely competitive at the top level .'
p11
ss.