(dp1
S'input'
p2
(dp3
S'encoded'
p4
(lp5
I64
aI2179
aI43
aI63
aI134
aI116
aI400
aI21
aI34
aI3
aI260
aI45
aI3439
aI57
aI7
aI2381
asS'ori'
p6
S'This house believes that it is sometimes right for the government to restrict freedom of speech'
p7
ssS'output'
p8
(dp9
g4
(lp10
I24
aI3
aI320
aI169
aI4037
aI159
aI41
aI4944
aI89
aI15037
aI7
aI7923
aI5
aI3
aI529
aI5716
aI3619
aI89
aI29416
aI17
aI13716
aI1191
aI4583
aI2864
aI5
aI26067
aI63
aI10048
aI3
aI4057
aI2410
aI4674
aI3503
aI3
aI4037
aI382
aI637
aI5162
aI24
aI875
aI63765
asg6
S'In the early 1960s  British films such as Victim (1961)  A Taste of Honey (1961)  and The Leather Boys (1963) offered a daring social commentary about gender roles and homophobia that violated the Hollywood Production Code  yet the films were still released in America .'
p11
ss.