(dp1
S'input'
p2
(dp3
S'encoded'
p4
(lp5
I64
aI2179
aI43
aI24
aI3
aI475
aI7
aI12436
aI3364
asS'ori'
p6
S'This house believes in the use of affirmative action'
p7
ssS'output'
p8
(dp9
g4
(lp10
I273
aI116
aI2603
aI63
aI3
aI296
aI7
aI3
aI3262
aI116
aI375
aI12426
aI24
aI3
aI2498
aI63
aI93
aI2007
aI55
aI3
aI1597
aI226
aI97
aI98
aI99
aI131
aI63
aI64
aI1359
aI116
aI300
aI569
aI14
aI12910
aI18
aI63765
asg6
S'There is agreement that the result of the process is again unequal  in the sense that one person has the position while another does not  but that this outcome is deemed fair on procedural grounds .'
p11
ss.