(dp1
S'input'
p2
(dp3
S'encoded'
p4
(lp5
I64
aI2179
aI394
aI16642
aI1376
aI5269
asS'ori'
p6
S'This house would subsidize poor communities'
p7
ssS'output'
p8
(dp9
g4
(lp10
I3
aI782
aI7
aI17
aI9
aI14
aI130
aI116
aI726
aI63765
asg6
S'The effect of social welfare on poverty is controversial .'
p11
ss.