(dp1
S'input'
p2
(dp3
S'encoded'
p4
(lp5
I64
aI2179
aI43
aI63
aI2659
aI417
aI1690
aI3
aI12048
aI7
aI19084
asS'ori'
p6
S'This house believes that Israel should lift the blockade of Gaza'
p7
ssS'output'
p8
(dp9
g4
(lp10
I24
aI2659
aI3
aI2659
aI631
aI5
aI2659
aI7568
aI3987
aI382
aI606
aI14
aI177
aI1412
aI638
aI3
aI2696
aI6049
aI7
aI5269
aI1102
aI45
aI3
aI2581
aI60
aI3
aI19084
aI966
aI382
aI6021
aI45
aI7981
aI271
aI2418
aI12038
aI5
aI89
aI696
aI7
aI19284
aI382
aI1629
aI588
aI2319
aI3
aI966
aI2581
aI63765
asg6
S'In Israel  the Israel Police and Israel Prison Service were placed on high alert throughout the country  residents of communities close to the border with the Gaza Strip were ordered to prepare their bomb shelters  and a number of checkpoints were set up along the Israel-Gaza Strip border .'
p11
ss.