(dp1
S'input'
p2
(dp3
S'encoded'
p4
(lp5
I64
aI2179
aI394
aI163
aI959
aI2042
aI3557
asS'ori'
p6
S'This house would make physical education compulsory'
p7
ssS'output'
p8
(dp9
g4
(lp10
I959
aI5982
aI116
aI1185
aI34
aI2751
aI959
aI11262
aI5
aI139
aI7747
aI7745
aI45
aI2751
aI89
aI7993
aI444
aI1444
aI5
aI2751
aI7993
aI20260
aI11794
aI13429
aI1500
aI5
aI2564
aI1161
aI3932
aI7031
aI200
aI4773
aI4779
aI5
aI2798
aI3
aI12632
aI145
aI63765
asg6
S'Physical exercise is important for maintaining physical fitness and can contribute positively to maintaining a healthy weight  building and maintaining healthy bone density  muscle strength  and joint mobility  promoting physiological well-being  reducing surgical risks  and strengthening the immune system .'
p11
ss.