(dp1
S'input'
p2
(dp3
S'encoded'
p4
(lp5
I64
aI2179
aI43
aI63
aI2157
aI2565
aI493
aI19084
aI382
aI4850
asS'ori'
p6
S"This house believes that Israel's 2008-2009 military operations against Gaza were justified"
p7
ssS'output'
p8
(dp9
g4
(lp10
I3
aI2223
aI122
aI9274
aI493
aI3
aI7
aI19084
aI41
aI89
aI3730
asg6
S'the war was targeted against the "people of Gaza as a whole'
p11
ss.