(dp1
S'input'
p2
(dp3
S'encoded'
p4
(lp5
I64
aI2179
aI43
aI63
aI2157
aI2565
aI493
aI19084
aI382
aI4850
asS'ori'
p6
S"This house believes that Israel's 2008-2009 military operations against Gaza were justified"
p7
ssS'output'
p8
(dp9
g4
(lp10
I3
aI7210
aI62
aI374
aI375
aI14
aI16619
aI5
aI223
aI248
aI19088
aI2218
aI3136
aI24
aI19084
aI45
aI991
aI12073
aI8662
aI11994
aI493
aI3946
aI5
aI9759
aI24
aI4232
aI63765
asg6
S'The organisation "also calls once again on Hamas and all other Palestinian armed groups in Gaza to stop firing indiscriminate rockets against towns and villages in southern Israel"  .'
p11
ss.