(dp1
S'input'
p2
(dp3
S'encoded'
p4
(lp5
I64
aI2179
aI43
aI63
aI3
aI4990
aI4991
aI116
aI4850
aI24
aI12166
aI3
aI475
aI7
aI3532
aI3290
aI7
aI4714
asS'ori'
p6
S'This house believes that the Catholic Church is justified in forbidding the use of barrier methods of contraception'
p7
ssS'output'
p8
(dp9
g4
(lp10
I24
aI3
aI28119
aI2425
aI51
aI1222
aI45
aI4570
aI197
aI189
aI4293
aI73
aI3481
aI34
aI75
aI2767
aI2825
aI71
aI45
aI314
aI708
aI14
aI2767
aI73
aI3292
aI18
aI19
aI3
aI6412
aI45
aI124
aI1260
aI13788
aI85
aI63765
asg6
S'In 2012  the GOP led an attempt to exempt insurance policies sponsored or paid for by religious institutions opposed to birth control on religious or moral grounds  from the mandate to provide free contraceptive care .'
p11
ss.