(dp1
S'input'
p2
(dp3
S'encoded'
p4
(lp5
I64
aI2179
aI394
aI2017
aI628
asS'ori'
p6
S'This house would ban gambling'
p7
ssS'output'
p8
(dp9
g4
(lp10
I4319
aI366
aI24
aI3
aI7147
aI628
aI4042
aI2784
aI122
aI451
aI1999
aI89
aI3098
aI463
aI99
aI9036
aI351
aI5119
aI628
aI8942
aI45
aI351
aI2145
aI4278
aI64
aI500
aI99
aI2741
aI63765
asg6
S'Soon after in 1999  the Internet Gambling Prohibition Act was introduced  meaning a company could not offer any online gambling product to any U .S citizen  this did not pass  .'
p11
ss.