(dp1
S'input'
p2
(dp3
S'encoded'
p4
(lp5
I64
aI2179
aI394
aI16756
aI20435
asS'ori'
p6
S'This house would criminalize blasphemy'
p7
ssS'output'
p8
(dp9
g4
(lp10
I131
aI311
aI3
aI1643
aI413
aI134
aI116
aI1185
aI45
aI3943
aI63
aI60
aI64
aI57
aI3610
aI89
aI77
aI3896
aI5
aI134
aI463
aI316
aI25663
aI45
aI2784
aI24
aI89
aI998
aI63
aI31778
aI78
aI63765
asg6
S'But at the same time it is important to say that with this freedom comes a certain responsibility  and it could be objectionable to act in a way that insults people .'
p11
ss.