(dp1
S'input'
p2
(dp3
S'encoded'
p4
(lp5
I64
aI2179
aI394
aI2976
aI12243
aI24
aI954
aI126
aI1560
aI10723
asS'ori'
p6
S'This house would implement playoffs in collegiate level American football'
p7
ssS'output'
p8
(dp9
g4
(lp10
I257
aI3
aI34949
aI21656
aI81
aI182
aI574
aI2341
aI6580
aI3503
aI174
aI759
aI7
aI3
aI34949
aI41
aI89
aI3730
aI41
aI261
aI382
aI45
aI523
aI271
aI4262
aI4570
aI2554
aI155
aI463
aI316
aI4890
aI34
aI611
aI6329
aI9363
aI4136
aI7
aI3189
aI7
aI2666
aI63765
asg6
S'If the BCS Bowls  who are each separate entities yet also part of the BCS as a whole as well were to lose their tax exempt status  they could be liable for back taxes totaling hundreds of millions of dollars .'
p11
ss.