(dp1
S'input'
p2
(dp3
S'encoded'
p4
(lp5
I64
aI2179
aI394
aI2998
aI3
aI4360
aI7
aI3249
aI6804
aI24
aI3
aI102
asS'ori'
p6
S'This house would encourage the creation of private universities in the UK'
p7
ssS'output'
p8
(dp9
g4
(lp10
I75
aI1035
aI3
aI17680
aI5770
aI24
aI2390
aI2586
aI374
aI136
aI45
aI1485
aI9178
aI946
aI60
aI5392
aI45
aI271
aI6703
aI5945
aI63765
asg6
S'By contrast  the Ming dynasty in China began once more to practice privatization  especially with regards to their manufacturing industries .'
p11
ss.