(dp1
S'input'
p2
(dp3
S'encoded'
p4
(lp5
I64
aI2179
aI394
aI5370
aI3
aI5286
asS'ori'
p6
S'This house would abolish the monarchy'
p7
ssS'output'
p8
(dp9
g4
(lp10
I257
aI273
aI122
aI89
aI2306
aI3
aI5136
aI47
aI2455
aI3
aI24114
aI186
aI63
aI257
aI273
aI122
aI89
aI2306
aI3
aI5136
aI24115
aI24
aI5392
aI45
aI3
aI4913
aI7
aI3
aI536
aI7
aI10
aI394
aI2455
aI136
aI73
aI149
aI3
aI1643
aI63765
asg6
S'If there was a republic  the costs will remain the sameSome argue that if there was a republic  the costs incured in regards to the duties of the head of state would remain more or less the same .'
p11
ss.