(dp1
S'input'
p2
(dp3
S'encoded'
p4
(lp5
I64
aI2179
aI394
aI16642
aI1376
aI5269
asS'ori'
p6
S'This house would subsidize poor communities'
p7
ssS'output'
p8
(dp9
g4
(lp10
I3
aI4262
aI4912
aI5
aI3
aI532
aI7
aI14480
aI5084
aI116
aI5966
aI14
aI3
aI14470
aI7
aI2855
aI5
aI3497
aI34
aI3
aI1228
aI4541
aI63765
asg6
S'The tax burden and the amount of deadweight cost is dependent on the elasticity of supply and demand for the good taxed .'
p11
ss.