(dp1
S'input'
p2
(dp3
S'encoded'
p4
(lp5
I64
aI2179
aI235
aI3
aI2136
aI7
aI3
aI2306
aI7
aI2390
asS'ori'
p6
S'This house supports the one-child policy of the republic of China'
p7
ssS'output'
p8
(dp9
g4
(lp10
I17679
aI6426
aI63765
asg6
S'|- Han Chinese 547 283 057 93 .94 651 296 368 94 .22 936 703 824 93 .30 1 042 482 187 91 .96 1 159 400 000 91 .59 1 225 932 641 91 .51 .'
p11
ss.