(dp1
S'input'
p2
(dp3
S'encoded'
p4
(lp5
I64
aI2179
aI43
aI63
aI3
aI28431
aI7
aI2157
aI4624
aI75
aI39939
aI27257
aI122
aI4850
asS'ori'
p6
S'This house believes that the leaking of military documents by Anat Kamm was justified'
p7
ssS'output'
p8
(dp9
g4
(lp10
I24
aI2555
aI2201
aI2586
aI30371
aI2930
aI14
aI29269
aI45
aI5918
aI6198
aI5
aI20391
aI4001
aI51
aI10597
aI311
aI18524
aI7
aI5501
aI7208
aI63
aI3
aI7210
aI876
aI99
aI316
aI1031
aI45
aI3514
aI63765
asg6
S"In September 2011  Wikileaks began auctioning items on Ebay to raise funds  and Assange told an audience at Sydney's Festival of Dangerous Ideas that the organisation might not be able to survive ."
p11
ss.