(dp1
S'input'
p2
(dp3
S'encoded'
p4
(lp5
I64
aI2179
aI43
aI63
aI3
aI28431
aI7
aI2157
aI4624
aI75
aI39939
aI27257
aI122
aI4850
asS'ori'
p6
S'This house believes that the leaking of military documents by Anat Kamm was justified'
p7
ssS'output'
p8
(dp9
g4
(lp10
I233
aI45
aI3
aI3373
aI12687
aI3518
aI6433
aI2961
aI427
aI89
aI9503
aI311
aI30433
aI4694
aI7
aI773
aI29103
aI24
aI2045
aI63765
aI5
aI311
aI1059
aI11
aI353
aI3819
aI45
aI30434
aI86
aI63765
asg6
S'" According to the Columbia Journalism Review  "the Icelandic press took a look at Assanges charges of being surveilled in Iceland [ . .] and  at best  have found nothing to substantiate them .'
p11
ss.