(dp1
S'input'
p2
(dp3
S'encoded'
p4
(lp5
I64
aI2179
aI394
aI2998
aI3
aI4360
aI7
aI3249
aI6804
aI24
aI3
aI102
asS'ori'
p6
S'This house would encourage the creation of private universities in the UK'
p7
ssS'output'
p8
(dp9
g4
(lp10
I3
aI10325
aI7
aI14033
aI4758
aI742
aI14
aI2116
aI63
aI273
aI122
aI443
aI2603
aI291
aI14029
aI5
aI14093
aI116
aI717
aI24
aI14028
aI5
aI10238
aI60
aI3
aI4750
aI7
aI14094
aI2572
aI4678
aI63765
asg6
S'The master of Birkbeck College said on June 6 that there was no agreement between NCH and Birkbeckwhich is based in Bloomsbury and affiliated with the University of Londonto share facilities  .'
p11
ss.