(dp1
S'input'
p2
(dp3
S'encoded'
p4
(lp5
I64
aI2179
aI43
aI63
aI134
aI116
aI400
aI21
aI34
aI3
aI260
aI45
aI3439
aI57
aI7
aI2381
asS'ori'
p6
S'This house believes that it is sometimes right for the government to restrict freedom of speech'
p7
ssS'output'
p8
(dp9
g4
(lp10
I10933
aI122
aI99
aI89
aI720
aI45
aI32884
aI18231
aI604
aI3
aI2028
aI122
aI45
aI881
aI5
aI1632
aI223
aI10954
aI7
aI3
aI260
aI63765
asg6
S'Truth was not a defense to seditious libel because the goal was to prevent and punish all condemnation of the government .'
p11
ss.