(dp1
S'input'
p2
(dp3
S'encoded'
p4
(lp5
I64
aI2179
aI235
aI3
aI2136
aI7
aI3
aI2306
aI7
aI2390
asS'ori'
p6
S'This house supports the one-child policy of the republic of China'
p7
ssS'output'
p8
(dp9
g4
(lp10
I2138
aI497
aI3
aI34103
aI5
aI164
aI2599
aI5864
aI5260
aI19
aI220
aI7238
aI282
aI779
aI5
aI4278
aI3727
aI7644
aI63765
asg6
S'179 nations attended the ICPD and overall eleven thousand representatives from governments  NGOs  international agencies and citizen activists participated  .'
p11
ss.