(dp1
S'input'
p2
(dp3
S'encoded'
p4
(lp5
I64
aI2179
aI394
aI2773
aI12505
asS'ori'
p6
S'This house would embrace multiculturalism'
p7
ssS'output'
p8
(dp9
g4
(lp10
I134
aI116
aI9280
aI604
aI134
aI116
aI53636
aI2241
aI3526
aI3
aI7454
aI7
aI61
aI53637
aI263
aI3174
asg6
S'It is irrational because it is hopelessly idealistic suggesting the possibility of what Marurice Merleau-Ponty called "immaculate perception ."'
p11
ss.