(dp1
S'input'
p2
(dp3
S'encoded'
p4
(lp5
I64
aI2179
aI43
aI63
aI3376
aI4938
aI417
aI316
aI3537
asS'ori'
p6
S'This house believes that endangered species should be protected'
p7
ssS'output'
p8
(dp9
g4
(lp10
I24
aI4645
aI45
aI3
aI3309
aI21994
aI2729
aI3
aI1592
aI10054
aI7
aI19701
aI353
aI24
aI3
aI694
aI24
aI3
aI2096
aI7
aI2925
aI92
aI22001
aI3
aI2428
aI63
aI357
aI4532
aI45
aI3601
aI289
aI580
aI675
aI89
aI2146
aI7650
aI22030
aI291
aI3
aI10934
aI5
aI4360
aI63765
asg6
S'In relation to the Judeo-Christian tradition  Nss offers the following criticism: "The arrogance of stewardship [as found in the Bible] consists in the idea of superiority which underlies the thought that we exist to watch over nature like a highly respected middleman between the Creator and Creation .'
p11
ss.