(dp1
S'input'
p2
(dp3
S'encoded'
p4
(lp5
I64
aI2179
aI394
aI190
aI3
aI21
aI45
aI3895
aI834
asS'ori'
p6
S'This house would limit the right to bear arms'
p7
ssS'output'
p8
(dp9
g4
(lp10
I24
aI620
aI9445
aI34
aI7
aI3
aI164
aI2598
aI7
aI3
aI626
aI187
aI131
aI117
aI9445
aI34
aI7
aI3899
aI17194
aI4091
aI5
aI7
aI164
aI17194
aI4734
aI63765
asg6
S'In 2005  13- through 16-year-olds accounted for 6% of the overall population of the United States  but only accounted for 3 .6% of firearm homicide victims  and 2 .7% of overall homicide offenses  .'
p11
ss.