(dp1
S'input'
p2
(dp3
S'encoded'
p4
(lp5
I64
aI2179
aI43
aI63
aI7382
aI116
aI400
aI4713
asS'ori'
p6
S'This house believes that bribery is sometimes acceptable'
p7
ssS'output'
p8
(dp9
g4
(lp10
I3
aI1362
aI1537
aI3
aI3142
aI7
aI199
aI19
aI3
aI628
aI31890
aI17080
aI5
aI1795
aI31891
aI23578
aI63765
asg6
S"The relationship kept the flow of profits from the gang's gambling dens  prostitution  and protection rackets undisturbed ."
p11
ss.