(dp1
S'input'
p2
(dp3
S'encoded'
p4
(lp5
I64
aI2179
aI43
aI63
aI1036
aI4828
aI33250
aI116
aI25073
aI45
aI3315
aI4562
asS'ori'
p6
S'This house believes that male infant circumcision is tantamount to child abuse'
p7
ssS'output'
p8
(dp9
g4
(lp10
I3
aI217
aI2068
aI3419
aI75
aI3
aI369
aI4990
aI4991
aI122
aI63
aI7
aI25
aI10700
aI6359
aI9630
aI4991
aI7
aI26992
aI1969
aI59219
aI14
aI89
aI4160
aI60
aI3007
aI92
aI373
aI1047
aI41
aI3
aI237
aI10074
aI4164
aI63765
asg6
S'The most recent statement by the Roman Catholic Church was that of His Holiness Pope Benedict XVI:"The Church of Antioch sent Barnabas on a mission with Paul  which became known as the Apostle\'s first missionary journey  .'
p11
ss.