(dp1
S'input'
p2
(dp3
S'encoded'
p4
(lp5
I64
aI2179
aI43
aI63
aI2659
aI417
aI1690
aI3
aI12048
aI7
aI19084
asS'ori'
p6
S'This house believes that Israel should lift the blockade of Gaza'
p7
ssS'output'
p8
(dp9
g4
(lp10
I267
aI7
aI3
aI2377
aI440
aI271
aI531
aI2915
aI5
aI89
aI3059
aI122
aI769
aI5
aI461
aI736
aI24936
aI63765
asg6
S'Two of the soldiers had their hands tied  and a third was unconscious and went into convulsions .'
p11
ss.