(dp1
S'input'
p2
(dp3
S'encoded'
p4
(lp5
I64
aI2179
aI43
aI8629
aI116
aI3
aI117
aI998
asS'ori'
p6
S'This house believes atheism is the only way'
p7
ssS'output'
p8
(dp9
g4
(lp10
I3503
aI24
aI132
aI3955
aI273
aI116
aI99
aI89
aI14591
aI7
aI350
aI63
aI271
aI12716
aI11
aI1978
aI440
aI351
aI13318
aI1431
aI1191
aI3
aI14592
aI7
aI271
aI284
aI8629
aI63765
asg6
S'Yet in these books there is not a shred of evidence that their authors have ever had any doubts whatever about the rightness of their own atheism .'
p11
ss.