(dp1
S'input'
p2
(dp3
S'encoded'
p4
(lp5
I64
aI2179
aI43
aI8629
aI116
aI3
aI117
aI998
asS'ori'
p6
S'This house believes atheism is the only way'
p7
ssS'output'
p8
(dp9
g4
(lp10
I42
aI2538
aI63
aI8
aI3707
aI8596
aI63
aI3
aI3326
aI8597
aI8598
aI5
aI8599
aI1301
aI113
aI6570
aI8600
aI4044
aI2860
aI63765
asg6
S"He says that modern science demonstrates that the alleged perpetrators Adam and Eve never even existed  undermining St Paul's doctrine ."
p11
ss.