(dp1
S'input'
p2
(dp3
S'encoded'
p4
(lp5
I64
aI2179
aI394
aI5370
aI3
aI5286
asS'ori'
p6
S'This house would abolish the monarchy'
p7
ssS'output'
p8
(dp9
g4
(lp10
I40942
aI40940
aI5
aI40997
aI6619
aI7
aI3124
aI63765
asg6
S'|- Oba Yoruba and Bini peoples of Nigeria .'
p11
ss.