(dp1
S'input'
p2
(dp3
S'encoded'
p4
(lp5
I64
aI2179
aI13605
aI2258
aI45
aI2194
asS'ori'
p6
S'This house prefers trade to aid'
p7
ssS'output'
p8
(dp9
g4
(lp10
I875
aI55
aI12
aI245
aI15485
aI24
aI1710
aI45
aI24
aI9532
aI45
aI2767
aI857
aI221
aI75
aI2625
aI2575
aI2155
aI63765
asg6
S'America has been fairly generous in giving to faith-based organizations; in 2004  gifts to religious causes made by Americans totaled $88 .3 billion .'
p11
ss.