(dp1
S'input'
p2
(dp3
S'encoded'
p4
(lp5
I64
aI2179
aI43
aI63
aI3
aI21
aI45
aI12715
aI417
aI99
aI316
aI2897
asS'ori'
p6
S'This house believes that the right to asylum should not be absolute'
p7
ssS'output'
p8
(dp9
g4
(lp10
I3353
aI79
aI500
aI99
aI1398
aI791
aI736
aI37402
aI5
aI41894
aI4471
aI5
aI500
aI99
aI791
aI1398
aI60
aI89
aI250
aI24
aI3109
aI128
aI3959
aI63765
asg6
S'Enforcement work did not easily fit into neat and tidy models and did not fit easily with a deal in date order ethos .'
p11
ss.