(dp1
S'input'
p2
(dp3
S'encoded'
p4
(lp5
I64
aI2179
aI43
aI223
aI2138
aI11
aI89
aI21
aI45
aI2185
aI372
asS'ori'
p6
S'This house believes all nations have a right to nuclear weapons'
p7
ssS'output'
p8
(dp9
g4
(lp10
I3
aI5970
aI416
aI5436
aI5428
aI45
aI11852
aI3
aI5545
aI11853
aI24
aI51
aI803
aI459
aI271
aI10770
aI34
aI248
aI2287
aI11853
aI382
aI1890
aI63765
asg6
S'The USSR used penal labour to mine the old deposits in Czechoslovakia&mdash;now an area under their control&mdash;and searched for other domestic deposits (which were eventually found) .'
p11
ss.