(dp1
S'input'
p2
(dp3
S'encoded'
p4
(lp5
I64
aI2179
aI43
aI63
aI1036
aI4828
aI33250
aI116
aI25073
aI45
aI3315
aI4562
asS'ori'
p6
S'This house believes that male infant circumcision is tantamount to child abuse'
p7
ssS'output'
p8
(dp9
g4
(lp10
I134
aI139
aI316
aI508
aI4635
aI6668
aI397
aI320
aI5711
aI1727
aI273
aI3136
aI7
aI59196
aI81
aI382
aI32370
aI81
aI2622
aI2767
aI7208
aI60
aI4307
aI45
aI93
aI4927
aI73
aI97
aI131
aI382
aI10882
aI45
aI34796
aI5
aI382
aI99
aI689
aI41
aI4307
aI63765
asg6
S'It can be thus understood why during Early Christian times there groups of Godfearers  who were gentiles who shared religious ideas with Jews  to one degree or another  but were afraid to circumcise  and were not recognized as Jews .'
p11
ss.