(dp1
S'input'
p2
(dp3
S'encoded'
p4
(lp5
I64
aI2179
aI235
aI3
aI2136
aI7
aI3
aI2306
aI7
aI2390
asS'ori'
p6
S'This house supports the one-child policy of the republic of China'
p7
ssS'output'
p8
(dp9
g4
(lp10
I41
aI7
aI3
aI2136
aI34
aI3716
aI17853
aI122
aI267
aI3862
aI4386
aI5100
aI292
aI24
aI4604
aI3717
aI5
aI443
aI190
aI34
aI2812
aI3136
aI60
aI419
aI1488
aI3162
aI63765
asg6
S'As of 1986 the policy for minority nationalities was two children per couple  three in special circumstances  and no limit for ethnic groups with very small populations .'
p11
ss.