(dp1
S'input'
p2
(dp3
S'encoded'
p4
(lp5
I64
aI2179
aI43
aI63
aI1036
aI4828
aI33250
aI116
aI25073
aI45
aI3315
aI4562
asS'ori'
p6
S'This house believes that male infant circumcision is tantamount to child abuse'
p7
ssS'output'
p8
(dp9
g4
(lp10
I33250
aI116
aI217
aI6404
aI24
aI5761
aI2203
aI5
aI2659
aI5
aI116
aI217
aI6404
aI24
aI3
aI8446
aI5
aI5761
aI9648
aI1381
aI174
aI279
aI24
aI3
aI626
aI187
aI3
aI2308
aI2318
aI2047
aI5
aI7384
aI92
aI182
aI3184
aI5711
aI63765
asg6
S'Circumcision is most prevalent in Muslim countries and Israel  and is most prevalent in the Jewish and Muslim faiths  although also common in the United States  the Philippines  South Korea  and Ethiopia  which are predominantly Christian .'
p11
ss.