(dp1
S'input'
p2
(dp3
S'encoded'
p4
(lp5
I64
aI2179
aI43
aI63
aI3
aI4990
aI4991
aI116
aI4850
aI24
aI12166
aI3
aI475
aI7
aI3532
aI3290
aI7
aI4714
asS'ori'
p6
S'This house believes that the Catholic Church is justified in forbidding the use of barrier methods of contraception'
p7
ssS'output'
p8
(dp9
g4
(lp10
I3
aI9794
aI25874
aI620
aI323
aI397
aI3
aI398
aI865
aI388
aI7
aI6218
aI887
aI368
aI21279
aI5
aI1804
aI6638
aI736
aI773
aI41
aI15
aI89
aI22
aI5
aI2767
aI299
aI7
aI9867
aI63765
asg6
S'The Reformation swept through Europe during the 16th Century  ending centuries of unity among Western Christendom and bringing Protestantism into being as both a political and religious opponent of Catholicism .'
p11
ss.