(dp1
S'input'
p2
(dp3
S'encoded'
p4
(lp5
I64
aI2179
aI394
aI2017
aI3807
aI314
aI3433
asS'ori'
p6
S'This house would ban partial birth abortions'
p7
ssS'output'
p8
(dp9
g4
(lp10
I397
aI3614
aI3771
aI34
aI3772
aI3773
aI646
aI63765
aI3774
aI51
aI3614
aI2471
aI7
aI863
aI3362
aI965
aI3765
aI3755
aI5
aI382
aI3775
aI45
aI775
aI3776
aI3254
aI63765
asg6
S'During initial deliberations for Planned Parenthood v . Casey (1992)  an initial majority of five Justices (Rehnquist  White  Scalia  Kennedy  and Thomas) were willing to effectively overturn Roe .'
p11
ss.