(dp1
S'input'
p2
(dp3
S'encoded'
p4
(lp5
I64
aI2179
aI43
aI63
aI11083
aI10046
aI417
aI316
aI89
aI3135
aI4603
asS'ori'
p6
S'This house believes that Holocaust denial should be a criminal offence'
p7
ssS'output'
p8
(dp9
g4
(lp10
I378
aI64
aI116
aI513
aI30720
aI75
aI2985
aI41
aI3
aI4342
aI48016
aI4673
aI116
aI24
aI3871
aI45
aI2320
aI2424
aI34
aI3180
aI24
aI2657
aI5
aI508
aI440
aI3819
aI45
aI1453
aI60
aI5834
aI5232
aI2424
aI63765
asg6
S'However this is considered misrepresentation by critics  as the passage Harwood cited is in reference to Allied camps for civilians in Egypt and thus had nothing to do with Nazi concentration camps  .'
p11
ss.