(dp1
S'input'
p2
(dp3
S'encoded'
p4
(lp5
I64
aI2179
aI43
aI63
aI3
aI21
aI45
aI12715
aI417
aI99
aI316
aI2897
asS'ori'
p6
S'This house believes that the right to asylum should not be absolute'
p7
ssS'output'
p8
(dp9
g4
(lp10
I100
aI78
aI2302
aI1197
aI24
aI1445
aI7625
aI63
aI557
aI18471
aI63765
asg6
S'Some people bought places in large boats that held 400 passengers .'
p11
ss.