(dp1
S'input'
p2
(dp3
S'encoded'
p4
(lp5
I64
aI2179
aI13605
aI2258
aI45
aI2194
asS'ori'
p6
S'This house prefers trade to aid'
p7
ssS'output'
p8
(dp9
g4
(lp10
I130
aI1811
aI249
aI11
aI443
aI2210
aI24
aI5004
aI45
aI3164
aI130
aI63765
asg6
S'Poverty reduction measures have no role in regard to voluntary poverty .'
p11
ss.