(dp1
S'input'
p2
(dp3
S'encoded'
p4
(lp5
I64
aI2179
aI394
aI2017
aI262
asS'ori'
p6
S'This house would ban boxing'
p7
ssS'output'
p8
(dp9
g4
(lp10
I3
aI1774
aI1775
aI116
aI89
aI1777
aI399
aI7
aI1778
aI5
aI985
aI298
aI3
aI830
aI291
aI15
aI455
aI55
aI816
aI5
aI1373
aI718
aI1019
aI316
aI1779
aI63765
asg6
S'The Clinch - Clinching is a rough form of grappling and occurs when the distance between both fighters has closed and straight punches cannot be employed .'
p11
ss.