(dp1
S'input'
p2
(dp3
S'encoded'
p4
(lp5
I64
aI2179
aI394
aI5370
aI3
aI5286
asS'ori'
p6
S'This house would abolish the monarchy'
p7
ssS'output'
p8
(dp9
g4
(lp10
I508
aI667
aI1637
aI7
aI1692
aI937
aI4375
aI45
aI63
aI7
aI3
aI626
aI2549
aI63765
asg6
S"Thus  New Zealand's line of succession remains identical to that of the United Kingdom ."
p11
ss.