(dp1
S'input'
p2
(dp3
S'encoded'
p4
(lp5
I64
aI2179
aI394
aI5370
aI7146
aI4585
aI2446
asS'ori'
p6
S'This house would abolish intellectual property rights'
p7
ssS'output'
p8
(dp9
g4
(lp10
I75
aI3
aI2644
aI398
aI3
aI2409
aI2232
aI440
aI6425
aI180
aI5
aI440
aI11751
aI24
aI2265
aI63765
asg6
S'By the mid 19th century  the industrial revolution had transformed England and had begun in France .'
p11
ss.