(dp1
S'input'
p2
(dp3
S'encoded'
p4
(lp5
I64
aI2179
aI394
aI2017
aI223
aI9058
aI23653
asS'ori'
p6
S'This house would ban all unsustainable logging'
p7
ssS'output'
p8
(dp9
g4
(lp10
I7809
aI857
aI7798
aI2438
aI45
aI23570
aI3020
aI36821
aI5
aI16649
aI7
aI3162
aI41
aI2778
aI75
aI912
aI3020
aI5
aI24
aI3
aI1257
aI620
aI3
aI6674
aI781
aI63765
asg6
S'Deforestation causes extinction  changes to climatic conditions  desertification  and displacement of populations as observed by current conditions and in the past through the fossil record  .'
p11
ss.