(dp1
S'input'
p2
(dp3
S'encoded'
p4
(lp5
I64
aI2179
aI394
aI190
aI3
aI21
aI45
aI3895
aI834
asS'ori'
p6
S'This house would limit the right to bear arms'
p7
ssS'output'
p8
(dp9
g4
(lp10
I12080
aI35544
aI49020
aI20422
aI14
aI10001
aI7
aI2446
aI2173
aI63
aI3
aI4514
aI7
aI223
aI10001
aI7
aI2446
aI116
aI45
aI3319
aI3
aI2446
aI7
aI147
aI493
aI3
aI260
aI5
aI63
aI3
aI1950
aI3264
aI21
aI45
aI1576
aI5
aI3895
aI834
aI122
aI24
aI96
aI7
aI3
aI21
aI45
aI4112
aI260
aI4922
aI41
aI3
aI117
aI2702
aI493
aI3
aI4485
aI7
aI260
aI8441
aI24
aI18431
aI5904
aI45
aI10146
aI34
aI10146
aI47
aI4807
aI316
aI1955
aI1375
aI3021
aI3156
asg6
S'Abolitionist Lysander Spooner  commenting on bills of rights  stated that the object of all bills of rights is to assert the rights of individuals against the government and that the Second Amendment right to keep and bear arms was in support of the right to resist government oppression  as the only security against the tyranny of government lies in forcible resistance to injustice  for injustice will certainly be executed  unless forcibly resisted '
p11
ss.