(dp1
S'input'
p2
(dp3
S'encoded'
p4
(lp5
I64
aI2179
aI394
aI2017
aI223
aI9058
aI23653
asS'ori'
p6
S'This house would ban all unsustainable logging'
p7
ssS'output'
p8
(dp9
g4
(lp10
I155
aI449
aI177
aI2363
aI7
aI130
aI24
aI3
aI2696
aI182
aI419
aI165
aI6421
aI45
aI3
aI845
aI7
aI7809
aI63765
asg6
S'They extremely high levels of poverty in the country are very much connected to the issue of deforestation .'
p11
ss.