(dp1
S'input'
p2
(dp3
S'encoded'
p4
(lp5
I64
aI2179
aI43
aI63
aI3
aI21
aI45
aI12715
aI417
aI99
aI316
aI2897
asS'ori'
p6
S'This house believes that the right to asylum should not be absolute'
p7
ssS'output'
p8
(dp9
g4
(lp10
I7
aI3
aI2217
aI5371
aI7
aI3
aI2183
aI366
aI3
aI2223
aI394
aI316
aI45
aI13551
aI23946
aI8778
aI19
aI3
aI2145
aI63765
aI311
aI3900
aI64
aI394
aI316
aI1803
aI75
aI2610
aI3243
aI226
aI2192
aI3243
aI417
aI316
aI597
aI45
aI3
aI15858
aI24
aI3
aI12103
aI7
aI132
aI3243
aI108
aI60
aI5
aI701
aI271
aI16518
aI19
asg6
S'"One of the chief functions of the controls after the war would be to exclude Bolshevik agents from the U .K . At home this would be achieved by Immigration officers  while abroad officers should be attached to the consulate in the guise of vice-consuls  these officers working with and receiving their instructions from MI5 ."'
p11
ss.