(dp1
S'input'
p2
(dp3
S'encoded'
p4
(lp5
I64
aI2179
aI394
aI16642
aI1376
aI5269
asS'ori'
p6
S'This house would subsidize poor communities'
p7
ssS'output'
p8
(dp9
g4
(lp10
I248
aI5019
aI5
aI8850
aI159
aI41
aI3007
aI24667
aI1453
aI99
aI133
aI4262
aI2136
aI55
aI123
aI89
aI24668
aI7
aI3064
aI291
aI3
aI6374
aI2653
aI5
aI979
aI5052
aI2625
aI63765
asg6
S'Other economists and politicians  such as Paul Ryan  do not believe tax policy has created a chasm of wealth between the wealthy  middle  and lower class Americans  .'
p11
ss.