(dp1
S'input'
p2
(dp3
S'encoded'
p4
(lp5
I64
aI2179
aI43
aI63
aI1036
aI4828
aI33250
aI116
aI25073
aI45
aI3315
aI4562
asS'ori'
p6
S'This house believes that male infant circumcision is tantamount to child abuse'
p7
ssS'output'
p8
(dp9
g4
(lp10
I3
aI34910
aI2022
aI7
aI874
aI875
aI18172
aI37795
aI41
aI51
aI34910
aI3016
aI63765
asg6
S'The Intersex Society of North America classifies hypospadias as an intersex condition .'
p11
ss.