(dp1
S'input'
p2
(dp3
S'encoded'
p4
(lp5
I64
aI2179
aI394
aI4325
aI2042
aI270
aI89
aI11605
aI3324
asS'ori'
p6
S'This house would fund education using a voucher scheme'
p7
ssS'output'
p8
(dp9
g4
(lp10
I150
aI2014
aI6307
aI164
aI16
aI189
aI24
aI41
aI136
aI170
aI138
aI7
aI3
aI2179
aI5
aI136
aI3409
aI138
aI7
aI3
aI2179
aI5
aI3839
aI34
aI63765
asg6
S"National Journal labeled Paul's overall economic policies in 2010 as more conservative than 78% of the House and more liberal than 22% of the House (85% and 15%  respectively for 2009)  ."
p11
ss.