(dp1
S'input'
p2
(dp3
S'encoded'
p4
(lp5
I64
aI2179
aI394
aI2017
aI223
aI9058
aI23653
asS'ori'
p6
S'This house would ban all unsustainable logging'
p7
ssS'output'
p8
(dp9
g4
(lp10
I136
aI138
aI2642
aI7
aI3
aI4938
aI7
aI4975
aI5
aI3921
aI182
aI353
aI24
aI3
aI23577
aI63765
asg6
S"More than half of the world's species of plants and animals are found in the rainforest  ."
p11
ss.