(dp1
S'input'
p2
(dp3
S'encoded'
p4
(lp5
I64
aI2179
aI394
aI4325
aI2042
aI270
aI89
aI11605
aI3324
asS'ori'
p6
S'This house would fund education using a voucher scheme'
p7
ssS'output'
p8
(dp9
g4
(lp10
I3757
aI45
aI2635
aI6372
aI89
aI13582
aI1185
aI2210
aI24
aI5207
aI4925
asg6
S'access to resources play a hugely important role in educational inequality'
p11
ss.