(dp1
S'input'
p2
(dp3
S'encoded'
p4
(lp5
I64
aI2179
aI394
aI2998
aI3
aI4360
aI7
aI3249
aI6804
aI24
aI3
aI102
asS'ori'
p6
S'This house would encourage the creation of private universities in the UK'
p7
ssS'output'
p8
(dp9
g4
(lp10
I13248
aI187
aI63
aI3
aI8928
aI3505
aI3
aI2497
aI24
aI3
aI24
aI899
aI5834
aI2330
aI16
aI2136
aI63765
asg6
S'Edwards states that The Economist coined the term in the 1930s in covering Nazi German economic policy  .'
p11
ss.