(dp1
S'input'
p2
(dp3
S'encoded'
p4
(lp5
I64
aI2179
aI43
aI223
aI2138
aI11
aI89
aI21
aI45
aI2185
aI372
asS'ori'
p6
S'This house believes all nations have a right to nuclear weapons'
p7
ssS'output'
p8
(dp9
g4
(lp10
I14
aI88
aI3
aI2268
aI122
aI1258
aI4558
aI63765
asg6
S'On 11 May 1995  the Treaty was extended indefinitely .'
p11
ss.