(dp1
S'input'
p2
(dp3
S'encoded'
p4
(lp5
I64
aI2179
aI43
aI63
aI2157
aI2565
aI493
aI19084
aI382
aI4850
asS'ori'
p6
S"This house believes that Israel's 2008-2009 military operations against Gaza were justified"
p7
ssS'output'
p8
(dp9
g4
(lp10
I1410
aI5280
aI34
aI3
aI2117
aI122
aI19996
aI11343
aI46502
aI81
aI263
aI34
aI89
aI11952
aI7
aI223
aI6056
aI1228
aI63765
asg6
S'Main speaker for the event was Councillor Gerry MacLochlainn (Sinn Fein)  who called for a boycott of all Israeli good .'
p11
ss.