(dp1
S'input'
p2
(dp3
S'encoded'
p4
(lp5
I64
aI2179
aI43
aI63
aI2659
aI417
aI1690
aI3
aI12048
aI7
aI19084
asS'ori'
p6
S'This house believes that Israel should lift the blockade of Gaza'
p7
ssS'output'
p8
(dp9
g4
(lp10
I3
aI2528
aI378
aI11
aI221
aI51
aI3889
aI918
aI14
aI3
aI3664
aI3905
aI60
aI5392
aI45
aI3495
aI63765
asg6
S'The ruling  however  have made an ongoing impact on the governmental culture with regards to women .'
p11
ss.