(dp1
S'input'
p2
(dp3
S'encoded'
p4
(lp5
I64
aI2179
aI43
aI63
aI2659
aI417
aI1690
aI3
aI12048
aI7
aI19084
asS'ori'
p6
S'This house believes that Israel should lift the blockade of Gaza'
p7
ssS'output'
p8
(dp9
g4
(lp10
I2428
aI134
aI417
aI316
aI2425
aI75
aI2659
aI3084
aI5
aI2428
aI51
aI5590
aI316
aI557
aI41
aI134
aI122
aI89
aI1728
aI19
aI2250
aI2952
aI63765
asg6
S"4% thought it should be led by Israel  12% didn't know  and 11% thought an inquiry shouldn't be held as it was a distraction from peace negotiations  ."
p11
ss.