(dp1
S'input'
p2
(dp3
S'encoded'
p4
(lp5
I64
aI2179
aI394
aI190
aI3
aI21
aI45
aI3895
aI834
asS'ori'
p6
S'This house would limit the right to bear arms'
p7
ssS'output'
p8
(dp9
g4
(lp10
I24
aI3
aI6460
aI2668
aI7
aI16039
aI16040
aI631
aI5
aI150
aI1296
aI2693
aI24
aI667
aI668
aI8764
aI3892
aI19
aI3249
aI2144
aI24
aI51
aI1222
aI45
aI881
aI2617
aI63765
asg6
S'In the immediate aftermath of Hurricane Katrina  police and National Guard units in New Orleans confiscated firearms from private citizens in an attempt to prevent violence .'
p11
ss.