(dp1
S'input'
p2
(dp3
S'encoded'
p4
(lp5
I64
aI2179
aI43
aI63
aI3
aI21
aI45
aI12715
aI417
aI99
aI316
aI2897
asS'ori'
p6
S'This house believes that the right to asylum should not be absolute'
p7
ssS'output'
p8
(dp9
g4
(lp10
I89
aI3900
aI2159
aI24120
aI45
aI3
aI9170
aI24
aI2981
aI63
aI2997
aI382
aI221
aI45
aI84
aI89
aI5130
aI1039
aI131
aI1401
aI63
aI100
aI7477
aI440
aI12
aI3763
aI5
aI3316
aI45
aI2265
aI53
aI155
aI36048
aI89
aI17337
aI7
aI3
aI442
aI63765
asg6
S'A Home Secretary memo to the Cabinet in 1933 shows that efforts were made to take a flexible approach but admitted that some refugees  ("a few") had been refused and returned to France where they awaited a relaxation of the rules .'
p11
ss.