(dp1
S'input'
p2
(dp3
S'encoded'
p4
(lp5
I64
aI2179
aI394
aI2773
aI12505
asS'ori'
p6
S'This house would embrace multiculturalism'
p7
ssS'output'
p8
(dp9
g4
(lp10
I1592
aI1012
aI820
aI6032
aI7
aI12505
aI5
aI2610
aI14903
aI45
aI316
aI11055
aI63765
asg6
S"Following Fortuyn's death  open rejection of multiculturalism and immigration ceased to be taboo ."
p11
ss.