(dp1
S'input'
p2
(dp3
S'encoded'
p4
(lp5
I64
aI2179
aI43
aI223
aI2138
aI11
aI89
aI21
aI45
aI2185
aI372
asS'ori'
p6
S'This house believes all nations have a right to nuclear weapons'
p7
ssS'output'
p8
(dp9
g4
(lp10
I2745
aI3
aI21
aI45
aI3549
aI19
aI3
aI2268
aI1710
aI4149
aI63765
asg6
S"Establishes the right to withdraw from the Treaty giving 3 months' notice ."
p11
ss.