(dp1
S'input'
p2
(dp3
S'encoded'
p4
(lp5
I64
aI2179
aI43
aI17
aI4941
aI857
aI3211
asS'ori'
p6
S'This house believes social deprivation causes crime'
p7
ssS'output'
p8
(dp9
g4
(lp10
I64
aI139
aI48
aI45
aI89
aI149
aI7088
aI3173
aI7
aI6668
aI78
aI5982
aI271
aI4811
aI75
aI1799
aI45
aI2784
aI24
aI1341
aI3708
aI63765
asg6
S'This can lead to a less comprehensive explanation of why people exercise their autonomy by choosing to act in particular ways .'
p11
ss.