(dp1
S'input'
p2
(dp3
S'encoded'
p4
(lp5
I64
aI2179
aI394
aI190
aI3
aI21
aI45
aI3895
aI834
asS'ori'
p6
S'This house would limit the right to bear arms'
p7
ssS'output'
p8
(dp9
g4
(lp10
I626
aI187
aI646
aI63765
aI62400
aI10820
aI63765
asg6
S'United States v . Bledsoe  334 Fed .'
p11
ss.