(dp1
S'input'
p2
(dp3
S'encoded'
p4
(lp5
I64
aI2179
aI43
aI63
aI3
aI21
aI45
aI12715
aI417
aI99
aI316
aI2897
asS'ori'
p6
S'This house believes that the right to asylum should not be absolute'
p7
ssS'output'
p8
(dp9
g4
(lp10
I134
aI1972
aI122
aI99
aI868
aI45
aI163
aI51
aI918
aI14
aI1968
aI108
aI73
aI45
aI265
aI3
aI3107
aI6684
aI7
aI1968
aI9107
aI131
aI45
aI836
aI51
aI1112
aI708
aI394
aI1619
aI89
aI15740
aI7
aI667
aI2474
aI5
aI89
aI2411
aI2282
aI7
aI17082
aI41862
aI5
aI3353
aI2610
aI3243
aI63765
asg6
S'It clearly was not enough to make an impact on illegal working or to combat the true scale of illegal entry but to create an effective in-country control would require a raft of new legislation and a vast expansion of detention faclities and enforcement immigration officers .'
p11
ss.