(dp1
S'input'
p2
(dp3
S'encoded'
p4
(lp5
I64
aI2179
aI43
aI63
aI1036
aI4828
aI33250
aI116
aI25073
aI45
aI3315
aI4562
asS'ori'
p6
S'This house believes that male infant circumcision is tantamount to child abuse'
p7
ssS'output'
p8
(dp9
g4
(lp10
I2388
aI2992
aI15110
aI64
aI8164
aI1074
aI3
aI5424
aI2035
aI3182
aI63
aI16445
aI33250
aI252
aI39825
aI5
aI270
aI60324
aI727
aI24
aI9045
aI12037
aI840
aI366
aI33250
aI63765
asg6
S'Earlier studies exploring this phenomenon include the Howard study  reporting that neonatal circumcision without anaesthesia and using acetaminophen (Tylenol) results in deteriorated feeding immediately after circumcision  .'
p11
ss.