(dp1
S'input'
p2
(dp3
S'encoded'
p4
(lp5
I64
aI2179
aI394
aI190
aI3
aI21
aI45
aI3895
aI834
asS'ori'
p6
S'This house would limit the right to bear arms'
p7
ssS'output'
p8
(dp9
g4
(lp10
I17361
aI15380
aI89
aI35
aI21
aI7
aI24
aI70
aI3
aI78
aI45
aI15508
aI89
aI3988
aI145
aI63765
asg6
S'deterring tyrannical government;repelling invasion;suppressing insurrection;facilitating a natural right of self-defense;participating in law enforcement;enabling the people to organize a militia system .'
p11
ss.