(dp1
S'input'
p2
(dp3
S'encoded'
p4
(lp5
I64
aI2179
aI394
aI163
aI959
aI2042
aI3557
asS'ori'
p6
S'This house would make physical education compulsory'
p7
ssS'output'
p8
(dp9
g4
(lp10
I366
aI46266
aI2013
aI24
aI134
aI122
aI5110
aI75
aI25
aI6457
aI53566
aI487
aI63765
asg6
S'After Neill died in 1973 it was run by his wife  Ena  until 1985  .'
p11
ss.