(dp1
S'input'
p2
(dp3
S'encoded'
p4
(lp5
I64
aI2179
aI394
aI4325
aI2042
aI270
aI89
aI11605
aI3324
asS'ori'
p6
S'This house would fund education using a voucher scheme'
p7
ssS'output'
p8
(dp9
g4
(lp10
I4702
aI186
aI63
aI3210
aI1782
aI1796
aI138
aI220
aI5090
aI63765
asg6
S'Proponents argue that markets perform better than governments economically .'
p11
ss.