(dp1
S'input'
p2
(dp3
S'encoded'
p4
(lp5
I64
aI2179
aI394
aI2017
aI3807
aI314
aI3433
asS'ori'
p6
S'This house would ban partial birth abortions'
p7
ssS'output'
p8
(dp9
g4
(lp10
I100
aI2025
aI186
aI63
aI257
aI273
aI116
aI4967
aI41
aI45
aI755
aI3
aI3486
aI55
aI89
aI21
aI45
aI3269
aI768
aI206
aI51
aI3257
aI116
aI4968
aI45
aI4919
aI1708
aI3
aI2038
aI7
aI3188
aI97
aI63765
asg6
S'Some pro-life supporters argue that if there is uncertainty as to whether the fetus has a right to life  then having an abortion is equivalent to consciously taking the risk of killing another .'
p11
ss.