(dp1
S'input'
p2
(dp3
S'encoded'
p4
(lp5
I64
aI2179
aI394
aI2976
aI12243
aI24
aI954
aI126
aI1560
aI10723
asS'ori'
p6
S'This house would implement playoffs in collegiate level American football'
p7
ssS'output'
p8
(dp9
g4
(lp10
I217
aI7
aI3
aI2196
aI10113
aI589
aI34992
aI81
aI461
aI486
aI24
aI3
aI16647
aI2333
aI2645
aI45
aI4592
aI289
aI3
aI1500
aI7
aI13004
aI89
aI2755
aI63
aI122
aI13648
aI24
aI3
aI34949
aI751
aI3
aI5159
aI63765
asg6
S'Most of the debate centered around Auburn  who went undefeated in the Southeastern Conference  leading to debates over the strength of schedule  a value that was diminished in the BCS before the season .'
p11
ss.