(dp1
S'input'
p2
(dp3
S'encoded'
p4
(lp5
I64
aI2179
aI394
aI2017
aI223
aI9058
aI23653
asS'ori'
p6
S'This house would ban all unsustainable logging'
p7
ssS'output'
p8
(dp9
g4
(lp10
I3124
aI55
aI1719
aI4544
aI24234
aI24
aI100
aI7
aI211
aI187
aI131
aI3
aI136
aI64
aI1039
aI116
aI788
aI14
aI3
aI136
aI1886
aI63
aI47
aI316
aI104
aI24
aI51
aI18202
aI4039
aI5
aI5117
aI998
aI63765
asg6
S'Nigeria has already implemented windmills in some of its states but the more this approach is taken on the more energy that will be produced in an environmentally sound and efficient way .'
p11
ss.