(dp1
S'input'
p2
(dp3
S'encoded'
p4
(lp5
I64
aI2179
aI394
aI2017
aI223
aI9058
aI23653
asS'ori'
p6
S'This house would ban all unsustainable logging'
p7
ssS'output'
p8
(dp9
g4
(lp10
I9873
aI4380
aI63765
aI8079
aI7
aI3
aI4658
aI7
aI481
aI5669
aI7809
aI7177
aI3475
aI261
aI45
aI320
aI8
aI440
aI3940
aI24
aI3
aI9266
aI7
aI2411
aI7910
aI638
aI3
aI2388
aI5669
aI388
aI63765
asg6
S"Norman F . Cantor's summary of the effects of late medieval deforestation applies equally well to Early Modern Europe:Europeans had lived in the midst of vast forests throughout the earlier medieval centuries ."
p11
ss.