(dp1
S'input'
p2
(dp3
S'encoded'
p4
(lp5
I64
aI2179
aI43
aI63
aI134
aI116
aI400
aI21
aI34
aI3
aI260
aI45
aI3439
aI57
aI7
aI2381
asS'ori'
p6
S'This house believes that it is sometimes right for the government to restrict freedom of speech'
p7
ssS'output'
p8
(dp9
g4
(lp10
I443
aI70
aI3397
aI3
aI6015
aI34
aI3
aI3205
aI7
aI3
aI5525
aI5
aI5260
aI4197
aI84
aI782
aI487
aI51
aI4168
aI7
aI5260
aI4197
aI11
aI2918
aI63765
asg6
S'No law varying the compensation for the services of the Senators and Representatives  shall take effect  until an election of Representatives shall have intervened .'
p11
ss.