(dp1
S'input'
p2
(dp3
S'encoded'
p4
(lp5
I64
aI2179
aI394
aI60
aI23587
asS'ori'
p6
S'This house would re-engage with Myanmar'
p7
ssS'output'
p8
(dp9
g4
(lp10
I1112
aI2555
aI6073
aI2052
aI17083
aI14
aI3
aI267
aI2546
aI385
aI7
aI31858
aI5
aI41470
aI63765
asg6
S"Effective 26 September Myanmar's junta imposed dusk-till-dawn curfews on the country's two largest cities of Yangon and Mandalay ."
p11
ss.