(dp1
S'input'
p2
(dp3
S'encoded'
p4
(lp5
I64
aI2179
aI394
aI163
aI959
aI2042
aI3557
asS'ori'
p6
S'This house would make physical education compulsory'
p7
ssS'output'
p8
(dp9
g4
(lp10
I1202
aI23974
aI79
aI23975
aI3607
aI5
aI14969
aI63765
asg6
S'Examples include: yard work  vacuuming  stretching and golf .'
p11
ss.