(dp1
S'input'
p2
(dp3
S'encoded'
p4
(lp5
I64
aI2179
aI43
aI24
aI3
aI475
aI7
aI12436
aI3364
asS'ori'
p6
S'This house believes in the use of affirmative action'
p7
ssS'output'
p8
(dp9
g4
(lp10
I226
aI134
aI246
aI4439
aI820
aI5
aI569
aI1458
aI60
aI5125
aI10665
aI34
aI12402
aI6025
aI73
aI1589
aI41
aI261
aI41
aI51
aI3579
aI7
aI4933
aI3
aI3445
aI116
aI13092
aI60
aI89
aI1699
aI1051
aI7
aI4596
aI63765
asg6
S'While it generally describes open and fair competition with equal chances for achieving sought-after jobs or positions as well as an absence of discrimination  the concept is elusive with a wide range of meanings .'
p11
ss.