(dp1
S'input'
p2
(dp3
S'encoded'
p4
(lp5
I64
aI2179
aI394
aI1499
aI177
aI1819
aI34
aI160
asS'ori'
p6
S'This house would build high rises for housing'
p7
ssS'output'
p8
(dp9
g4
(lp10
I5072
aI24
aI3
aI2145
aI63765
aI160
aI116
aI1480
aI2801
aI736
aI7102
aI63765
aI3
aI1334
aI1239
aI7
aI6811
aI4585
aI24
aI169
aI4594
aI116
aI291
aI5
aI2472
aI5
aI5
aI63765
aI73
aI24
aI1560
aI63765
asg6
S'Whereas in the U .S . housing is commonly divided into "single-family homes"  "multi-family dwellings"  "Condo/Townhouse"  etc .  the primary division of residential property in British terminology is between "houses" (including "detached"  "semi-detached"  and "terraced" houses and bungalows) and "flats" (i .e .  "apartments" or "condominiums" in American English) .'
p11
ss.