(dp1
S'input'
p2
(dp3
S'encoded'
p4
(lp5
I64
aI2179
aI394
aI1499
aI177
aI1819
aI34
aI160
asS'ori'
p6
S'This house would build high rises for housing'
p7
ssS'output'
p8
(dp9
g4
(lp10
I755
aI3926
aI36002
aI98
aI3226
aI251
aI7
aI12249
aI2710
aI5
aI755
aI1558
aI189
aI7
aI16002
aI2234
aI139
aI1476
aI86
aI11
aI12
aI19192
aI3080
aI214
aI289
aI1237
aI2467
aI63765
asg6
S'Whether urban sprawl does increase problems of automobile dependency and whether conversely  policies of smart growth can reduce them have been fiercely contested issues over several decades .'
p11
ss.