(dp1
S'input'
p2
(dp3
S'encoded'
p4
(lp5
I64
aI2179
aI43
aI63
aI3376
aI4938
aI417
aI316
aI3537
asS'ori'
p6
S'This house believes that endangered species should be protected'
p7
ssS'output'
p8
(dp9
g4
(lp10
I26548
aI1344
aI4938
aI8135
aI116
aI2428
aI45
aI316
aI3
aI296
aI7
aI5924
aI47034
aI73
aI3802
aI24
aI7801
aI4352
aI887
aI4938
aI63765
asg6
S'Complementarity Plant species coexistence is thought to be the result of niche partitioning  or differences in resource requirements among species .'
p11
ss.