(dp1
S'input'
p2
(dp3
S'encoded'
p4
(lp5
I64
aI2179
aI43
aI63
aI2659
aI417
aI1690
aI3
aI12048
aI7
aI19084
asS'ori'
p6
S'This house believes that Israel should lift the blockade of Gaza'
p7
ssS'output'
p8
(dp9
g4
(lp10
I3
aI19084
aI966
aI4595
aI211
aI912
aI8179
aI311
aI3
aI14986
aI7
aI332
aI24
aI3
aI53217
aI2223
aI92
aI122
aI2523
aI24
aI3
aI2331
aI2603
aI14
aI2805
aI63765
asg6
S'The Gaza Strip acquired its current boundaries at the cessation of fighting in the 1948 ArabIsraeli War  which was confirmed in the Israel-Egypt Armistice Agreement on 24 February 1949  .'
p11
ss.