(dp1
S'input'
p2
(dp3
S'encoded'
p4
(lp5
I64
aI2179
aI394
aI4325
aI2042
aI270
aI89
aI11605
aI3324
asS'ori'
p6
S'This house would fund education using a voucher scheme'
p7
ssS'output'
p8
(dp9
g4
(lp10
I34
aI25
aI9153
aI382
aI136
aI170
aI138
aI7
aI3
aI2179
aI5
aI136
aI3409
aI138
aI7
aI3
aI2179
aI5
aI3839
aI34
aI63765
asg6
S'For 2008  his ratings were more conservative than 91% of the House and more liberal than 8% of the House (80% and 20%  respectively for 2007)  .'
p11
ss.