(dp1
S'input'
p2
(dp3
S'encoded'
p4
(lp5
I64
aI2179
aI394
aI16642
aI1376
aI5269
asS'ori'
p6
S'This house would subsidize poor communities'
p7
ssS'output'
p8
(dp9
g4
(lp10
I5711
aI59511
aI122
aI3
aI536
aI7
aI3
aI282
aI1022
aI115
aI63765
asg6
S'Christian Bouteille was the (European) head of the International Technical Assistance .'
p11
ss.