(dp1
S'input'
p2
(dp3
S'encoded'
p4
(lp5
I64
aI2179
aI394
aI117
aI7428
aI21151
aI34
aI11389
aI2042
aI24
aI4364
asS'ori'
p6
S'This house would only teach abstinence for sex education in schools'
p7
ssS'output'
p8
(dp9
g4
(lp10
I153
aI8578
aI81
aI84
aI31634
aI22604
aI7
aI777
aI45
aI316
aI25733
aI2383
aI4736
aI45
aI2383
aI86
aI233
aI45
aI1763
aI59591
aI51
aI7147
aI3261
aI5
aI2702
aI3648
aI5
aI5867
aI34
aI59592
aI63765
asg6
S'Often girls who take racy photos of themselves "want to be admired  want someone to want them " according to Parry Aftab  an Internet privacy and security lawyer and volunteer for WiredSafety .'
p11
ss.