(dp1
S'input'
p2
(dp3
S'encoded'
p4
(lp5
I64
aI2179
aI394
aI16642
aI1376
aI5269
asS'ori'
p6
S'This house would subsidize poor communities'
p7
ssS'output'
p8
(dp9
g4
(lp10
I3922
aI15
aI3136
aI8680
aI3
aI1643
aI9023
aI2994
aI14
aI271
aI8907
aI3
aI738
aI14
aI3136
aI8907
aI182
aI165
aI595
aI138
aI3
aI3136
aI8907
aI604
aI3136
aI11
aI89
aI165
aI2597
aI1548
aI63765
asg6
S'Assuming both groups earn the same yield rate on their savings  the return on upper-income groups savings are much greater than the lower-income groups savings because upper-income groups have a much larger base .'
p11
ss.