(dp1
S'input'
p2
(dp3
S'encoded'
p4
(lp5
I64
aI2179
aI235
aI3
aI2136
aI7
aI3
aI2306
aI7
aI2390
asS'ori'
p6
S'This house supports the one-child policy of the republic of China'
p7
ssS'output'
p8
(dp9
g4
(lp10
I1920
aI3
aI6426
aI260
aI5
aI80
aI6829
aI63
aI311
aI870
aI13843
aI11
aI12
aI12090
aI75
aI3
aI2136
aI63765
asg6
S'Nevertheless  the Chinese government and others estimate that at least 250&nbsp;million births have been prevented by the policy  .'
p11
ss.