(dp1
S'input'
p2
(dp3
S'encoded'
p4
(lp5
I64
aI2179
aI43
aI63
aI187
aI417
aI99
aI16642
aI3
aI6449
aI7
aI3935
asS'ori'
p6
S'This house believes that states should not subsidize the growing of tobacco'
p7
ssS'output'
p8
(dp9
g4
(lp10
I2643
aI3935
aI116
aI44981
aI24
aI2237
aI31718
aI73
aI13511
aI41
aI271
aI30094
aI116
aI9040
aI75
aI5958
aI63765
asg6
S'Today  tobacco is sown in cold frames or hotbeds  as their germination is activated by light .'
p11
ss.