(dp1
S'input'
p2
(dp3
S'encoded'
p4
(lp5
I64
aI2179
aI43
aI63
aI2157
aI2565
aI493
aI19084
aI382
aI4850
asS'ori'
p6
S"This house believes that Israel's 2008-2009 military operations against Gaza were justified"
p7
ssS'output'
p8
(dp9
g4
(lp10
I2999
aI17026
aI7086
aI24
aI2511
aI7
aI7497
aI12412
aI24
aI1523
aI7
aI3
aI19389
aI2180
aI742
aI63
aI24
aI128
aI45
aI3762
aI7114
aI89
aI19382
aI7142
aI3
aI4825
aI2802
aI116
aI61
aI5224
aI122
aI119
aI45
aI3
aI2216
aI311
aI3
aI413
aI3
aI1274
aI122
aI5925
aI63765
asg6
S'Professor Newton  expert in laws of warfare testifying in front of the Goldstone committee  said that in order to properly examine a proportionality assessment  the relevant question is what information was available to the commander at the time the attack was authorized  .'
p11
ss.