(dp1
S'input'
p2
(dp3
S'encoded'
p4
(lp5
I64
aI2179
aI394
aI5370
aI3
aI5286
asS'ori'
p6
S'This house would abolish the monarchy'
p7
ssS'output'
p8
(dp9
g4
(lp10
I3
aI713
aI838
aI723
aI5
aI5489
aI116
aI3
aI1950
aI75
aI3
aI6555
aI7
aI5480
aI7
aI3
aI626
aI2549
aI7
aI325
aI326
aI5
aI4192
aI4581
aI5
aI7
aI732
aI248
aI5365
aI5
aI5555
aI5352
aI536
aI7
aI3
aI278
aI1883
aI7
aI3
aI63765
asg6
S'The present Sovereign\'s full style and title is "Elizabeth the Second  by the Grace of God  of the United Kingdom of Great Britain and Northern Ireland and of Her other Realms and Territories Queen  Head of the Commonwealth  Defender of the Faith"  .'
p11
ss.