(dp1
S'input'
p2
(dp3
S'encoded'
p4
(lp5
I64
aI2179
aI394
aI163
aI959
aI2042
aI3557
asS'ori'
p6
S'This house would make physical education compulsory'
p7
ssS'output'
p8
(dp9
g4
(lp10
I45
aI7411
aI298
aI3
aI24853
aI116
aI7361
aI5
aI45
aI991
aI298
aI3
aI24853
aI116
aI63765
asg6
S'to eat when the stomach is empty and to stop when the stomach is stretched) .'
p11
ss.