(dp1
S'input'
p2
(dp3
S'encoded'
p4
(lp5
I64
aI2179
aI394
aI5842
aI3569
aI446
aI13498
asS'ori'
p6
S'This house would introduce year round schooling'
p7
ssS'output'
p8
(dp9
g4
(lp10
I24
aI5965
aI3424
aI12931
aI34
aI3
aI2653
aI2240
aI5
aI177
aI2240
aI13990
aI14
aI2116
aI5
aI1667
aI14
aI2555
aI63765
asg6
S'In Tunisia  summer vacation for the middle school (7th9th grade) and high school starts on June 15 and ends on September 14 .'
p11
ss.