(dp1
S'input'
p2
(dp3
S'encoded'
p4
(lp5
I64
aI2179
aI43
aI63
aI134
aI116
aI400
aI21
aI34
aI3
aI260
aI45
aI3439
aI57
aI7
aI2381
asS'ori'
p6
S'This house believes that it is sometimes right for the government to restrict freedom of speech'
p7
ssS'output'
p8
(dp9
g4
(lp10
I3
aI4042
aI493
aI27898
aI11095
aI717
aI14
aI8803
aI12507
aI122
aI1630
aI45
aI3
aI4185
aI24
aI60
aI3
aI4342
aI7
aI2029
aI63765
asg6
S'The prohibition against inciting hatred based on sexual orientation was added to the section in 2004 with the passage of Bill C-250 .'
p11
ss.