(dp1
S'input'
p2
(dp3
S'encoded'
p4
(lp5
I64
aI2179
aI43
aI8629
aI116
aI3
aI117
aI998
asS'ori'
p6
S'This house believes atheism is the only way'
p7
ssS'output'
p8
(dp9
g4
(lp10
I725
aI281
aI8313
aI217
aI14869
aI3492
aI8378
aI5714
aI9691
aI5
aI1524
aI8499
aI358
aI8563
aI4992
aI63765
asg6
S'Many major religions  most prominently traditional Christianity  Islam  Hinduism and Orthodox Judaism  consider homosexuality immoral .'
p11
ss.