(dp1
S'input'
p2
(dp3
S'encoded'
p4
(lp5
I64
aI2179
aI394
aI190
aI3
aI21
aI45
aI3895
aI834
asS'ori'
p6
S'This house would limit the right to bear arms'
p7
ssS'output'
p8
(dp9
g4
(lp10
I24
aI10
aI646
aI63765
aI4195
aI3
aI3881
aI177
aI2483
aI1515
aI89
aI22
aI21
aI4196
aI7
aI3
aI21
aI45
aI3895
aI834
aI459
aI10
aI70
aI5
aI2484
aI3
aI4185
aI7
aI3
aI1950
aI3500
aI7
aI3
aI3881
aI2475
aI63
aI551
aI3
aI1260
aI965
aI1980
aI7
aI64
aI10
aI4197
aI11
aI89
aI21
aI45
aI1576
aI5
aI3895
aI834
aI34
aI271
aI279
aI226
aI4198
aI89
aI1342
aI45
aI89
aI3304
aI4190
aI3
aI3982
aI7
aI4187
aI372
aI63765
asg6
S'In State v . Buzzard (1842  Ark)  the Arkansas high court adopted a militia-based  political right  reading of the right to bear arms under state law  and upheld the 21st section of the second article of the Arkansas Constitution that declared  "that the free white men of this State shall have a right to keep and bear arms for their common defense"  while rejecting a challenge to a statute prohibiting the carrying of concealed weapons .'
p11
ss.