(dp1
S'input'
p2
(dp3
S'encoded'
p4
(lp5
I64
aI2179
aI394
aI2773
aI12505
asS'ori'
p6
S'This house would embrace multiculturalism'
p7
ssS'output'
p8
(dp9
g4
(lp10
I42
aI3172
aI63
aI116
aI443
aI2696
aI14
aI6267
aI92
aI116
aI99
aI3900
aI45
aI136
aI138
aI93
aI384
aI131
aI162
aI8116
aI3905
aI63765
asg6
S'He argues that "there is no country on earth which is not home to more than one different but usually coexisting culture .'
p11
ss.