(dp1
S'input'
p2
(dp3
S'encoded'
p4
(lp5
I64
aI2179
aI43
aI63
aI134
aI116
aI400
aI21
aI34
aI3
aI260
aI45
aI3439
aI57
aI7
aI2381
asS'ori'
p6
S'This house believes that it is sometimes right for the government to restrict freedom of speech'
p7
ssS'output'
p8
(dp9
g4
(lp10
I734
aI60
aI3
aI11623
aI752
aI2126
aI92
aI504
aI667
aI4392
aI2240
aI5929
aI45
aI5878
aI34
aI5440
aI45
aI11619
aI4364
aI3
aI2483
aI55
aI416
aI380
aI8811
aI45
aI1358
aI298
aI3
aI5661
aI7
aI6080
aI55
aI12
aI19362
aI63765
asg6
S'Beginning with the Everson decision itself  which permitted New Jersey school boards to pay for transportation to parochial schools  the Court has used various tests to determine when the wall of separation has been breached .'
p11
ss.