(dp1
S'input'
p2
(dp3
S'encoded'
p4
(lp5
I64
aI2179
aI394
aI117
aI7428
aI21151
aI34
aI11389
aI2042
aI24
aI4364
asS'ori'
p6
S'This house would only teach abstinence for sex education in schools'
p7
ssS'output'
p8
(dp9
g4
(lp10
I3
aI6434
aI3104
aI5088
aI6856
aI116
aI246
aI1058
aI41
aI89
aI482
aI5
aI4943
aI2887
aI7
aI3
aI164
aI1039
aI45
aI18199
aI3
aI5270
aI1404
aI75
aI2613
aI475
aI63765
asg6
S"The Swiss heroin maintenance programme is generally regarded as a successful and valuable component of the country's overall approach to minimising the harms caused by drug use  ."
p11
ss.