(dp1
S'input'
p2
(dp3
S'encoded'
p4
(lp5
I64
aI2179
aI43
aI17
aI4941
aI857
aI3211
asS'ori'
p6
S'This house believes social deprivation causes crime'
p7
ssS'output'
p8
(dp9
g4
(lp10
I725
aI6348
aI7
aI24691
aI11
aI12
aI2032
aI217
aI7
aI92
aI1594
aI3184
aI17
aI6669
aI226
aI89
aI1896
aI80
aI186
aI34
aI89
aI11827
aI7
aI3
aI2210
aI7
aI5245
aI63765
asg6
S'Many theories of causation have been proposed  most of which assume predominantly social and/or environmental causes; while a few others argue for a reconsideration of the role of biology  .'
p11
ss.