(dp1
S'input'
p2
(dp3
S'encoded'
p4
(lp5
I64
aI2179
aI394
aI4261
aI8667
aI3
aI9361
aI5
aI17069
asS'ori'
p6
S'This house would prohibit burning the stars and stripes'
p7
ssS'output'
p8
(dp9
g4
(lp10
I3
aI2483
aI88
aI154
aI63
aI3
aI3264
aI55
aI89
aI27957
aI782
aI6407
aI41
aI89
aI4405
aI45
aI3739
aI248
aI138
aI2221
aI2126
aI6883
aI159
aI3645
aI63765
asg6
S'The Court may find that the amendment has a preemptive effect  acting as a bar to anyone other than Congress itself passing such regulations .'
p11
ss.