(dp1
S'input'
p2
(dp3
S'encoded'
p4
(lp5
I64
aI2179
aI43
aI24
aI3
aI475
aI7
aI12436
aI3364
asS'ori'
p6
S'This house believes in the use of affirmative action'
p7
ssS'output'
p8
(dp9
g4
(lp10
I5125
aI511
aI1153
aI89
aI6103
aI4462
aI63765
asg6
S'Equal opportunity lacks a precise definition  .'
p11
ss.