(dp1
S'input'
p2
(dp3
S'encoded'
p4
(lp5
I64
aI2179
aI43
aI63
aI3
aI4990
aI4991
aI116
aI4850
aI24
aI12166
aI3
aI475
aI7
aI3532
aI3290
aI7
aI4714
asS'ori'
p6
S'This house believes that the Catholic Church is justified in forbidding the use of barrier methods of contraception'
p7
ssS'output'
p8
(dp9
g4
(lp10
I24
aI1906
aI3
aI6359
aI2173
aI63
aI134
aI116
aI4713
aI45
aI475
aI7332
aI24
aI100
aI419
aI4604
aI3052
aI41
aI89
aI10643
aI34
aI3
aI2466
aI7
aI4368
aI63765
asg6
S'In November 2010  the Pope stated that it is acceptable to use condoms in some very special cases as a device for the prevention of disease .'
p11
ss.