(dp1
S'input'
p2
(dp3
S'encoded'
p4
(lp5
I64
aI2179
aI394
aI4325
aI2042
aI270
aI89
aI11605
aI3324
asS'ori'
p6
S'This house would fund education using a voucher scheme'
p7
ssS'output'
p8
(dp9
g4
(lp10
I397
aI89
aI2805
aI2961
aI2333
aI2714
aI2173
aI1190
aI273
aI116
aI51
aI229
aI21
aI45
aI3895
aI834
aI131
aI2195
aI45
aI51887
aI54
aI63765
asg6
S'During a February 15  2008 press conference  Obama stated  "I think there is an individual right to bear arms  but it\'s subject to commonsense regulation .'
p11
ss.