(dp1
S'input'
p2
(dp3
S'encoded'
p4
(lp5
I64
aI2179
aI43
aI63
aI6670
aI546
aI417
aI316
aI89
aI1334
aI3108
aI7
aI4849
aI1886
aI2855
asS'ori'
p6
S'This house believes that wind power should be a primary focus of future energy supply'
p7
ssS'output'
p8
(dp9
g4
(lp10
I3552
aI3563
aI63
aI149
aI138
aI7
aI3
aI1413
aI394
aI316
aI416
aI34
aI6680
aI5
aI3757
aI6761
aI3
aI248
aI463
aI637
aI316
aI416
aI34
aI6754
aI63765
asg6
S'Wind-energy advocates contend that less than 1% of the land would be used for foundations and access roads  the other 99% could still be used for farming  .'
p11
ss.