(dp1
S'input'
p2
(dp3
S'encoded'
p4
(lp5
I64
aI2179
aI394
aI16756
aI20435
asS'ori'
p6
S'This house would criminalize blasphemy'
p7
ssS'output'
p8
(dp9
g4
(lp10
I131
aI24
aI24
aI3887
aI646
aI63765
aI18382
aI12605
aI63765
aI3912
aI3
aI3887
aI2483
aI7
aI3368
aI2810
aI551
aI3
aI20435
aI70
aI2481
aI63765
asg6
S"But in 1972  in Maryland v . Irving K . West  the Maryland Court of Appeals (the state's highest court) declared the blasphemy law unconstitutional  ."
p11
ss.