(dp1
S'input'
p2
(dp3
S'encoded'
p4
(lp5
I64
aI2179
aI394
aI5370
aI7146
aI4585
aI2446
asS'ori'
p6
S'This house would abolish intellectual property rights'
p7
ssS'output'
p8
(dp9
g4
(lp10
I257
aI3
aI3698
aI7433
aI42
aI463
aI1416
aI34
aI89
aI1950
aI3569
aI11844
aI3351
aI131
aI366
aI63
aI3
aI79
aI4012
aI3
aI658
aI11673
aI87
aI134
aI463
aI316
aI416
aI5
aI2676
aI111
aI75
aI80
aI63765
asg6
S'If the author wished  he could apply for a second 14 year monopoly grant  but after that the work entered the public domain  so it could be used and built upon by others .'
p11
ss.