(dp1
S'input'
p2
(dp3
S'encoded'
p4
(lp5
I64
aI2179
aI394
aI16642
aI1376
aI5269
asS'ori'
p6
S'This house would subsidize poor communities'
p7
ssS'output'
p8
(dp9
g4
(lp10
I6779
aI54019
aI59545
aI2802
aI122
aI51
aI449
aI2654
aI2168
aI252
aI2492
aI73
aI12963
aI3
aI2603
aI7
aI3
aI2083
aI2598
aI63764
asg6
S'15-7-2008: MEP Eva Lichtenberger  question H-0628/08"Why was an extremely strife-torn region chosen without consulting or securing the agreement of the local population ?'
p11
ss.