(dp1
S'input'
p2
(dp3
S'encoded'
p4
(lp5
I64
aI2179
aI394
aI10662
aI626
aI187
aI2157
aI2697
aI19
aI2371
asS'ori'
p6
S'This house would remove United States military bases from Japan'
p7
ssS'output'
p8
(dp9
g4
(lp10
I64
aI2268
aI4197
aI4344
aI4837
aI24
aI3
aI3357
aI7
aI3
aI220
aI7
aI3
aI626
aI187
aI7
aI875
aI5
aI2371
aI273
aI4197
aI11
aI2118
aI736
aI972
aI159
aI626
aI2138
aI2829
aI73
aI159
aI4834
aI229
aI73
aI4013
aI2702
aI38182
aI41
aI47
aI22191
aI124
aI34
aI3
aI5088
aI75
aI3
aI626
aI2138
aI73
aI2507
aI7
aI282
aI2250
aI5
aI2702
aI24
aI3
aI2371
aI803
aI63765
asg6
S'This Treaty shall expire whenever in the opinion of the Governments of the United States of America and Japan there shall have come into force such United Nations arrangements or such alternative individual or collective security dispositions as will satisfactorily provide for the maintenance by the United Nations or otherwise of international peace and security in the Japan Area .'
p11
ss.