(dp1
S'input'
p2
(dp3
S'encoded'
p4
(lp5
I64
aI2179
aI43
aI8629
aI116
aI3
aI117
aI998
asS'ori'
p6
S'This house believes atheism is the only way'
p7
ssS'output'
p8
(dp9
g4
(lp10
I4702
aI159
aI41
aI8476
aI15505
aI3450
aI2493
aI1361
aI24
aI5480
aI63765
asg6
S'Proponents such as Bertrand Russell emphatically rejected belief in God .'
p11
ss.