(dp1
S'input'
p2
(dp3
S'encoded'
p4
(lp5
I64
aI2179
aI394
aI2773
aI12505
asS'ori'
p6
S'This house would embrace multiculturalism'
p7
ssS'output'
p8
(dp9
g4
(lp10
I89
aI2378
aI14442
aI24
aI53627
aI5
aI39170
aI92
aI51063
aI3168
aI8404
aI41
aI3107
aI116
aI63
aI3914
aI1684
aI14
aI4900
aI63765
asg6
S"A fundamental premise in hermeneutics and semiotics  which Kramer's DAD theory accepts as true is that identity depends on difference ."
p11
ss.