(dp1
S'input'
p2
(dp3
S'encoded'
p4
(lp5
I64
aI2179
aI394
aI2773
aI12505
asS'ori'
p6
S'This house would embrace multiculturalism'
p7
ssS'output'
p8
(dp9
g4
(lp10
I131
aI1198
aI316
aI572
aI675
aI63
aI6590
aI34
aI132
aI182
aI3
aI4121
aI7
aI5480
aI2118
aI45
aI132
aI182
aI4121
aI7
aI5480
aI63765
asg6
S"But you won't be long like that  brothers  for these are the fires of God you've come to  these are fires of God ."
p11
ss.