(dp1
S'input'
p2
(dp3
S'encoded'
p4
(lp5
I64
aI2179
aI394
aI5370
aI3
aI5286
asS'ori'
p6
S'This house would abolish the monarchy'
p7
ssS'output'
p8
(dp9
g4
(lp10
I24
aI713
aI1809
aI3
aI4900
aI291
aI89
aI5399
aI2328
aI63
aI116
aI89
aI2477
aI5286
aI5
aI93
aI63
aI116
aI89
aI2306
aI116
aI400
aI513
aI136
aI93
aI7
aI8308
aI138
aI7
aI13160
aI63765
asg6
S'In present terms  the difference between a parliamentary democracy that is a constitutional monarchy and one that is a republic is sometimes considered more one of detail than of substance .'
p11
ss.