(dp1
S'input'
p2
(dp3
S'encoded'
p4
(lp5
I64
aI2179
aI13605
aI2258
aI45
aI2194
asS'ori'
p6
S'This house prefers trade to aid'
p7
ssS'output'
p8
(dp9
g4
(lp10
I6784
aI26885
aI5
aI51
aI3226
aI7
aI1788
aI17491
aI6941
aI891
aI24
aI89
aI505
aI24
aI3
aI3497
aI34
aI5226
aI14218
aI24
aI3
aI2206
aI34
aI1343
aI63765
asg6
S'Offshore outsourcing and an increase of temporary visa workers resulted in a drop in the demand for computer programmers in the US  for example .'
p11
ss.