(dp1
S'input'
p2
(dp3
S'encoded'
p4
(lp5
I64
aI2179
aI43
aI8629
aI116
aI3
aI117
aI998
asS'ori'
p6
S'This house believes atheism is the only way'
p7
ssS'output'
p8
(dp9
g4
(lp10
I132
aI29925
aI382
aI1881
aI45
aI1985
aI60875
aI5
aI89
aI2498
aI7
aI1362
aI60
aI2597
aI2219
aI63765
asg6
S'These narratives were intended to give solace and a sense of relationship with larger forces .'
p11
ss.