(dp1
S'input'
p2
(dp3
S'encoded'
p4
(lp5
I64
aI2179
aI43
aI223
aI2138
aI11
aI89
aI21
aI45
aI2185
aI372
asS'ori'
p6
S'This house believes all nations have a right to nuclear weapons'
p7
ssS'output'
p8
(dp9
g4
(lp10
I24
aI460
aI3
aI10
aI5
aI2223
aI37051
aI4889
aI89
aI234
aI7
aI7593
aI311
aI282
aI2202
aI8935
aI63765
asg6
S'In Man  the State  and War  Waltz proposes a three-images view of looking at international relations behavior .'
p11
ss.