(dp1
S'input'
p2
(dp3
S'encoded'
p4
(lp5
I64
aI2179
aI394
aI5284
aI150
aI3987
asS'ori'
p6
S'This house would reintroduce national service'
p7
ssS'output'
p8
(dp9
g4
(lp10
I2318
aI2404
aI2306
aI443
aI24
aI2620
aI24
aI63765
asg6
S'|- South Africa 1 219 912 $354 400 $6 423 .04 49 004 031 republic No (ended in 1994  formalized in 2002) .'
p11
ss.