(dp1
S'input'
p2
(dp3
S'encoded'
p4
(lp5
I64
aI2179
aI394
aI117
aI7428
aI21151
aI34
aI11389
aI2042
aI24
aI4364
asS'ori'
p6
S'This house would only teach abstinence for sex education in schools'
p7
ssS'output'
p8
(dp9
g4
(lp10
I1191
aI2900
aI7
aI13159
aI81
aI5513
aI25980
aI487
aI8559
aI1453
aI268
aI24
aI11389
aI5
aI182
aI768
aI149
aI1856
aI45
aI475
aI13778
aI138
aI271
aI15072
aI81
aI11
aI2933
aI136
aI1671
aI11389
aI2042
asg6
S'about 60 percent of teenagers who pledge virginity until marriage do engage in pre-marital sex and are then one-third less likely to use contraceptives than their peers who have received more conventional sex education '
p11
ss.