(dp1
S'input'
p2
(dp3
S'encoded'
p4
(lp5
I64
aI2179
aI394
aI4261
aI8667
aI3
aI9361
aI5
aI17069
asS'ori'
p6
S'This house would prohibit burning the stars and stripes'
p7
ssS'output'
p8
(dp9
g4
(lp10
I397
aI3
aI8667
aI7
aI3
aI5449
aI12081
aI11483
aI159
aI11450
aI41
aI3
aI4156
aI965
aI5
aI8160
aI357
aI25433
aI14
aI1198
aI1198
aI1566
aI34
aI43332
aI1198
aI47
aI867
aI459
aI5
aI15831
aI92
aI47
aI134
aI316
aI63764
asg6
S'During the burning of the flag  demonstrators shouted such phrases as  "America  the red  white  and blue  we spit on you  you stand for plunder  you will go under " and  "Reagan  Mondale  which will it be ?'
p11
ss.