(dp1
S'input'
p2
(dp3
S'encoded'
p4
(lp5
I64
aI2179
aI43
aI3
aI626
aI187
aI116
aI1989
aI34
aI3102
aI2223
asS'ori'
p6
S"This house believes the United States is responsible for Mexico's drugs war"
p7
ssS'output'
p8
(dp9
g4
(lp10
I3
aI2206
aI2176
aI7
aI2248
aI3182
aI14
aI3
aI4658
aI7
aI10
aI5597
aI55
aI2173
aI63
aI19
aI620
aI1879
aI696
aI7
aI2613
aI4734
aI9445
aI34
aI7
aI3
aI697
aI2234
aI887
aI3386
aI18252
aI7
aI3
aI697
aI2234
aI887
aI15800
aI18252
aI5
aI7
aI3
aI2234
aI887
aI965
aI18252
asg6
S'The US Department of Justice  reporting on the effects of state initiatives  has stated that  from 1990 through 2000  "the increasing number of drug offenses accounted for 27% of the total growth among black inmates  7% of the total growth among Hispanic inmates  and 15% of the growth among white inmates ."'
p11
ss.