(dp1
S'input'
p2
(dp3
S'encoded'
p4
(lp5
I64
aI2179
aI43
aI63
aI7382
aI116
aI400
aI4713
asS'ori'
p6
S'This house believes that bribery is sometimes acceptable'
p7
ssS'output'
p8
(dp9
g4
(lp10
I3249
aI7935
aI7170
aI139
aI3226
aI3
aI130
aI5
aI29529
aI7
aI3
aI2598
aI87
aI134
aI139
aI1466
aI260
aI7170
aI24
aI3
aI63765
asg6
S'Private sector corruption can increase the poverty and helplessness of the population  so it can affect government corruption  in the long-term .'
p11
ss.