(dp1
S'input'
p2
(dp3
S'encoded'
p4
(lp5
I64
aI2179
aI43
aI24
aI3
aI475
aI7
aI12436
aI3364
asS'ori'
p6
S'This house believes in the use of affirmative action'
p7
ssS'output'
p8
(dp9
g4
(lp10
I51
aI143
aI570
aI45
aI122
aI800
aI75
aI13109
aI24
aI13110
aI10
aI5
aI13111
aI81
aI3470
aI63
aI3
aI117
aI998
aI45
aI671
aI5969
aI7
aI511
aI122
aI9102
aI3
aI6398
aI7
aI120
aI136
aI2264
aI60
aI511
aI73
aI75
aI6798
aI3
aI1780
aI7
aI120
aI149
aI63765
asg6
S'An argument similar to D\'Souza\'s was raised by Nozick in Anarchy  State  and Utopia  who wrote that the only way to achieve equality of opportunity was "directly worsening the situations of those more favored with opportunity  or by improving the situation of those less well-favored .'
p11
ss.