(dp1
S'input'
p2
(dp3
S'encoded'
p4
(lp5
I64
aI2179
aI394
aI2773
aI12505
asS'ori'
p6
S'This house would embrace multiculturalism'
p7
ssS'output'
p8
(dp9
g4
(lp10
I18441
aI6029
aI116
aI1185
aI24
aI64
aI4659
aI131
aI134
aI116
aI153
aI26082
aI41
aI89
aI37
aI15288
aI7
aI35
aI10933
aI63765
asg6
S'Subjugated knowledge is important in this context  but it is often romanticized as a pure manifestation of natural truth .'
p11
ss.