(dp1
S'input'
p2
(dp3
S'encoded'
p4
(lp5
I64
aI2179
aI394
aI9385
aI2497
aI447
aI14
aI3
aI3578
aI5721
aI7
aI260
asS'ori'
p6
S'This house would enforce term limits on the legislative branch of government'
p7
ssS'output'
p8
(dp9
g4
(lp10
I2336
aI2497
aI447
aI182
aI6971
aI75
aI211
aI2475
aI24
aI3
aI4192
aI17773
aI6635
aI3
aI7370
aI1647
aI24
aI22594
aI5
aI3
aI2145
aI63765
aI7721
aI6635
aI5
aI75
aI3304
aI24
aI1560
aI6660
aI63765
asg6
S'Territorial term limits are prescribed by its constitution in the Northern Mariana Islands  the Organic Acts in Guam and the U .S . Virgin Islands  and by statute in American Samoa .'
p11
ss.