(dp1
S'input'
p2
(dp3
S'encoded'
p4
(lp5
I64
aI2179
aI394
aI5370
aI3
aI5286
asS'ori'
p6
S'This house would abolish the monarchy'
p7
ssS'output'
p8
(dp9
g4
(lp10
I273
aI182
aI4985
aI45
aI4044
aI5305
aI14
aI3
aI667
aI4137
aI27842
aI7
aI834
aI14
aI380
aI13353
aI5
aI3239
aI63765
asg6
S"There are references to St Edward's Crown  on the New Zealand's Royal Coat of Arms  on various medals  and awards ."
p11
ss.