(dp1
S'input'
p2
(dp3
S'encoded'
p4
(lp5
I64
aI2179
aI394
aI163
aI959
aI2042
aI3557
asS'ori'
p6
S'This house would make physical education compulsory'
p7
ssS'output'
p8
(dp9
g4
(lp10
I24
aI1035
aI1879
aI2722
aI7
aI16329
aI311
aI89
aI6217
aI126
aI182
aI3367
aI45
aI316
aI1021
aI45
aI51
aI1398
aI12757
aI5
aI14438
aI6327
aI2322
aI1055
aI14
aI6820
aI5
aI33994
aI6703
aI63765
asg6
S'In contrast  increasing rates of obesity at a societal level are felt to be due to an easily accessible and palatable diet  increased reliance on cars  and mechanized manufacturing  .'
p11
ss.