(dp1
S'input'
p2
(dp3
S'encoded'
p4
(lp5
I64
aI2179
aI394
aI4325
aI2042
aI270
aI89
aI11605
aI3324
asS'ori'
p6
S'This house would fund education using a voucher scheme'
p7
ssS'output'
p8
(dp9
g4
(lp10
I3313
aI3382
aI5585
aI14
aI89
aI2029
aI34
aI5
aI3382
aI443
aI14
aI10001
aI45
aI501
aI11604
aI24
aI3
aI3337
aI7
aI3373
aI1443
aI11604
aI24
aI3249
aI4364
aI5
aI11619
aI4364
aI5
aI443
aI14
aI89
aI2029
aI63
aI394
aI117
aI1985
aI2503
aI2194
aI45
aI4364
aI63
aI547
aI2240
aI10805
aI63765
asg6
S'She voted yes on a bill for state-testing and voted no on bills to allow vouchers in the District of Columbia  allowing vouchers in private schools and parochial schools  and no on a bill that would only give federal aid to schools that allowed school prayer  .'
p11
ss.