(dp1
S'input'
p2
(dp3
S'encoded'
p4
(lp5
I64
aI2179
aI43
aI63
aI3
aI4538
aI7
aI4434
aI7793
aI283
aI45
aI3586
aI417
aI316
aI577
asS'ori'
p6
S'This house believes that the sale of violent video games to minors should be banned'
p7
ssS'output'
p8
(dp9
g4
(lp10
I14
aI2116
aI3
aI2482
aI2483
aI3435
aI89
aI3357
aI535
aI3
aI2300
aI70
aI41
aI2481
aI14
aI3
aI2259
aI7
aI3
aI237
aI5
aI3263
aI4237
aI63765
asg6
S'On June 27  2011  the Supreme Court issued a 7-2 opinion striking the California law as unconstitutional on the basis of the First and Fourteenth Amendments .'
p11
ss.