(dp1
S'input'
p2
(dp3
S'encoded'
p4
(lp5
I64
aI2179
aI43
aI63
aI2157
aI2565
aI493
aI19084
aI382
aI4850
asS'ori'
p6
S"This house believes that Israel's 2008-2009 military operations against Gaza were justified"
p7
ssS'output'
p8
(dp9
g4
(lp10
I89
aI5798
aI81
aI1545
aI270
aI19130
aI41
aI2445
aI4315
aI4001
aI24
aI51
aI3625
aI45
aI24909
aI63
aI42
aI440
aI99
aI344
aI16618
aI773
aI416
aI41
aI2445
aI4315
aI131
aI440
aI12
aI4001
aI75
aI25
aI5723
aI63
aI64
aI458
aI63765
asg6
S'A soldier who described using Gazans as human shields told in an interview to Haaretz that he had not seen Palestinians being used as human shields but had been told by his commanders that this occurred  .'
p11
ss.