(dp1
S'input'
p2
(dp3
S'encoded'
p4
(lp5
I64
aI2179
aI394
aI4325
aI2042
aI270
aI89
aI11605
aI3324
asS'ori'
p6
S'This house would fund education using a voucher scheme'
p7
ssS'output'
p8
(dp9
g4
(lp10
I526
aI42
aI55
aI383
aI63
aI42
aI47
aI99
aI84
aI2894
aI19
aI2503
aI16017
aI5
aI4604
aI2444
aI397
aI25
aI2272
aI4276
aI63765
asg6
S'" Furthermore he has maintained that he will not take contributions from federal lobbyists and special interests during his 2008 presidential campaign .'
p11
ss.