(dp1
S'input'
p2
(dp3
S'encoded'
p4
(lp5
I64
aI2179
aI43
aI8629
aI116
aI3
aI117
aI998
asS'ori'
p6
S'This house believes atheism is the only way'
p7
ssS'output'
p8
(dp9
g4
(lp10
I8301
aI8387
aI8381
aI5
aI764
aI75
aI8388
aI3
aI8379
aI952
aI45
aI89
aI8389
aI8390
aI7
aI92
aI8391
aI876
aI11
aI12
aI8392
aI63765
asg6
S'Dawkins interviews Haggard and begins by likening the worship experience to a Nuremberg Rally of which Goebbels might have been proud .'
p11
ss.