(dp1
S'input'
p2
(dp3
S'encoded'
p4
(lp5
I64
aI2179
aI394
aI2017
aI223
aI9058
aI23653
asS'ori'
p6
S'This house would ban all unsustainable logging'
p7
ssS'output'
p8
(dp9
g4
(lp10
I3406
aI132
aI8236
aI1476
aI8100
aI15522
aI5
aI12603
aI7963
aI13675
aI397
aI528
aI47022
aI75
aI31865
aI7963
aI7412
aI1495
aI19007
aI462
aI3
aI28118
aI736
aI1237
aI1932
aI2752
aI226
aI174
aI6407
aI41
aI89
aI3532
aI45
aI1528
aI3142
aI63765
asg6
S'Additionally  these roots reduce soil erosion and maximize nutrient acquisition during heavy rains by diverting nutrient rich water flowing down the trunk into several smaller flows while also acting as a barrier to ground flow .'
p11
ss.