(dp1
S'input'
p2
(dp3
S'encoded'
p4
(lp5
I64
aI2179
aI13605
aI2258
aI45
aI2194
asS'ori'
p6
S'This house prefers trade to aid'
p7
ssS'output'
p8
(dp9
g4
(lp10
I16290
aI116
aI514
aI3531
aI75
aI8277
aI5019
aI41
aI9186
aI3
aI78
aI134
aI116
aI7367
aI45
aI3709
aI63765
asg6
S'Protectionism is frequently criticized by mainstream economists as harming the people it is meant to help .'
p11
ss.