(dp1
S'input'
p2
(dp3
S'encoded'
p4
(lp5
I64
aI2179
aI394
aI475
aI2135
aI2194
aI6198
aI45
aI2041
aI5
aI13926
aI8732
aI63
aI1735
aI12708
aI5
aI5599
aI24
aI2203
aI45
aI1397
aI7149
aI5
aI12311
aI271
aI5119
aI4948
asS'ori'
p6
S'This house would use foreign aid funds to research and distribute software that allows bloggers and journalists in non-democratic countries to evade censorship and conceal their online activities'
p7
ssS'output'
p8
(dp9
g4
(lp10
I89
aI2816
aI1663
aI620
aI51
aI14262
aI2432
aI13155
aI7502
aI3
aI1643
aI14262
aI8734
aI45
aI3
aI2432
aI41
aI134
aI394
aI5678
aI45
aI3
aI7676
aI14263
aI60990
aI63765
asg6
S'A client connecting through an HTTP proxy sends exactly the same HTTP request to the proxy as it would send to the destination server unproxied .'
p11
ss.