(dp1
S'input'
p2
(dp3
S'encoded'
p4
(lp5
I64
aI2179
aI43
aI63
aI2157
aI2565
aI493
aI19084
aI382
aI4850
asS'ori'
p6
S"This house believes that Israel's 2008-2009 military operations against Gaza were justified"
p7
ssS'output'
p8
(dp9
g4
(lp10
I3
aI2513
aI3026
aI3048
aI2224
aI13539
aI34
aI5
aI493
aI15
aI1249
aI63765
asg6
S'The conflict saw worldwide civilian demonstrations for and against both sides  .'
p11
ss.