(dp1
S'input'
p2
(dp3
S'encoded'
p4
(lp5
I64
aI2179
aI394
aI16642
aI1376
aI5269
asS'ori'
p6
S'This house would subsidize poor communities'
p7
ssS'output'
p8
(dp9
g4
(lp10
I23087
aI256
aI182
aI5117
aI1761
aI34
aI200
aI130
aI5
aI4925
asg6
S'CCT Programs are efficient tools for reducing poverty and inequality'
p11
ss.