(dp1
S'input'
p2
(dp3
S'encoded'
p4
(lp5
I64
aI2179
aI394
aI5284
aI150
aI3987
asS'ori'
p6
S'This house would reintroduce national service'
p7
ssS'output'
p8
(dp9
g4
(lp10
I24
aI5669
aI5679
aI3
aI73
aI400
aI122
aI89
aI5680
aI7
aI1260
aI5677
aI5628
aI736
aI5681
aI5682
aI34
aI5683
aI5684
aI5
aI24
aI5685
aI7
aI3
aI5686
aI63765
asg6
S"In medieval Scandinavia the 'leiangr' (Old Norse)  'leidang' (Norwegian)  'leding'  (Danish)  'ledung' (Swedish)  'lichting' (Dutch)  'expeditio' (Latin) or sometimes 'leing' (Old English)  was a levy of free farmers conscripted into coastal fleets for seasonal excursions and in defence of the realm ."
p11
ss.