(dp1
S'input'
p2
(dp3
S'encoded'
p4
(lp5
I64
aI2179
aI43
aI63
aI3357
aI5003
aI652
aI3
aI188
aI3262
asS'ori'
p6
S'This house believes that opinion polls harm the democratic process'
p7
ssS'output'
p8
(dp9
g4
(lp10
I89
aI2369
aI3292
aI2887
aI116
aI2867
aI34
aI3
aI845
aI45
aI9210
aI3
aI10539
aI63765
asg6
S'A strong moral component is necessary for the issue to activate the spiral .'
p11
ss.