(dp1
S'input'
p2
(dp3
S'encoded'
p4
(lp5
I64
aI2179
aI394
aI3830
aI3
aI475
aI7
aI9441
aI13132
aI3102
aI24
aI276
aI381
asS'ori'
p6
S'This house would permit the use of performance enhancing drugs in professional sports'
p7
ssS'output'
p8
(dp9
g4
(lp10
I3
aI13751
aI14035
aI311
aI3
aI20780
aI2067
aI14347
aI2930
aI159
aI41
aI1488
aI11437
aI22507
aI5
aI3
aI2097
aI20780
aI9310
aI23364
aI63765
asg6
S'The gift shop at the DEA museum sells items such as small stuffed K9 dogs and the annual DEA Holiday ornament .'
p11
ss.