(dp1
S'input'
p2
(dp3
S'encoded'
p4
(lp5
I64
aI2179
aI394
aI5370
aI3
aI5286
asS'ori'
p6
S'This house would abolish the monarchy'
p7
ssS'output'
p8
(dp9
g4
(lp10
I298
aI3151
aI3136
aI5
aI22
aI4615
aI2586
aI3951
aI589
aI3
aI285
aI41
aI24
aI3
aI2306
aI7
aI2390
aI24
aI3
aI271
aI833
aI382
aI162
aI4116
aI5462
aI73
aI2083
aI12576
aI3300
aI63765
asg6
S'When communist groups and political parties began appearing around the world  as in the Republic of China in the 1920s  their opponents were usually colonial authorities or local nationalist movements .'
p11
ss.