(dp1
S'input'
p2
(dp3
S'encoded'
p4
(lp5
I64
aI2179
aI394
aI190
aI3
aI21
aI45
aI3895
aI834
asS'ori'
p6
S'This house would limit the right to bear arms'
p7
ssS'output'
p8
(dp9
g4
(lp10
I24
aI443
aI1341
aI128
aI320
aI1560
aI3919
aI4415
aI3
aI21
aI45
aI834
aI3
aI21
aI45
aI3895
aI834
aI10
aI4117
aI41
aI1185
aI34
aI93
aI73
aI136
aI7
aI132
aI63765
asg6
S'In no particular order  early American settlers viewed the right to arms and/or the right to bear arms and/or state militias as important for one or more of these purposes:  .'
p11
ss.