(dp1
S'input'
p2
(dp3
S'encoded'
p4
(lp5
I64
aI2179
aI43
aI63
aI187
aI417
aI99
aI16642
aI3
aI6449
aI7
aI3935
asS'ori'
p6
S'This house believes that states should not subsidize the growing of tobacco'
p7
ssS'output'
p8
(dp9
g4
(lp10
I24
aI248
aI3052
aI2835
aI10400
aI88
aI316
aI9274
aI311
aI89
aI2386
aI94
aI7
aI1517
aI159
aI41
aI1445
aI12623
aI6811
aI5
aI80
aI63765
asg6
S'In other cases  consumption subsidies may be targeted at a specific group of users  such as large utilities  residential home-owners  and others .'
p11
ss.