(dp1
S'input'
p2
(dp3
S'encoded'
p4
(lp5
I64
aI2179
aI43
aI63
aI134
aI116
aI400
aI21
aI34
aI3
aI260
aI45
aI3439
aI57
aI7
aI2381
asS'ori'
p6
S'This house believes that it is sometimes right for the government to restrict freedom of speech'
p7
ssS'output'
p8
(dp9
g4
(lp10
I14
aI2394
aI3
aI2895
aI7
aI875
aI999
aI13516
aI6751
aI34
aI2201
aI63765
asg6
S'On 18 December  the Bank of America stopped handling payments for WikiLeaks  .'
p11
ss.