(dp1
S'input'
p2
(dp3
S'encoded'
p4
(lp5
I64
aI2179
aI43
aI63
aI6670
aI546
aI417
aI316
aI89
aI1334
aI3108
aI7
aI4849
aI1886
aI2855
asS'ori'
p6
S'This house believes that wind power should be a primary focus of future energy supply'
p7
ssS'output'
p8
(dp9
g4
(lp10
I132
aI3663
aI876
aI84
aI3
aI399
aI7
aI6914
aI201
aI1719
aI10313
aI24
aI3
aI145
aI7
aI546
aI4975
aI73
aI32581
aI45
aI248
aI2506
aI63
aI139
aI84
aI588
aI3
aI5078
aI63765
asg6
S'These provisions might take the form of spinning reserve already allocated in the system  start-up of stand-by power plants  or interconnections to other areas that can take up the load .'
p11
ss.