(dp1
S'input'
p2
(dp3
S'encoded'
p4
(lp5
I64
aI2179
aI394
aI60
aI23587
asS'ori'
p6
S'This house would re-engage with Myanmar'
p7
ssS'output'
p8
(dp9
g4
(lp10
I4116
aI21375
aI8490
aI182
aI217
aI9168
aI24
aI281
aI385
aI159
aI41
aI31858
aI63765
asg6
S'Colonial architectural influences are most evident in major cities such as Yangon  .'
p11
ss.