(dp1
S'input'
p2
(dp3
S'encoded'
p4
(lp5
I64
aI2179
aI43
aI8629
aI116
aI3
aI117
aI998
asS'ori'
p6
S'This house believes atheism is the only way'
p7
ssS'output'
p8
(dp9
g4
(lp10
I24
aI211
aI217
aI448
aI399
aI3
aI143
aI19
aI3292
aI53233
aI116
aI63765
asg6
S'In its most general form  the argument from moral normativity is that:  .'
p11
ss.