(dp1
S'input'
p2
(dp3
S'encoded'
p4
(lp5
I64
aI2179
aI43
aI63
aI6670
aI546
aI417
aI316
aI89
aI1334
aI3108
aI7
aI4849
aI1886
aI2855
asS'ori'
p6
S'This house believes that wind power should be a primary focus of future energy supply'
p7
ssS'output'
p8
(dp9
g4
(lp10
I89
aI1869
aI7
aI1886
aI5173
aI88
aI316
aI2168
aI14
aI3
aI2259
aI7
aI2465
aI11544
aI7
aI6676
aI11544
aI7
aI1886
aI4515
aI73
aI11544
aI7
aI8462
aI1260
aI1886
aI19
aI3
aI35
aI399
aI45
aI3
aI1163
aI399
aI63765
asg6
S'A method of energy storage may be chosen on the basis of stability  ease of transport  ease of energy release  or ease of converting free energy from the natural form to the stable form .'
p11
ss.