(dp1
S'input'
p2
(dp3
S'encoded'
p4
(lp5
I64
aI2179
aI43
aI63
aI3376
aI4938
aI417
aI316
aI3537
asS'ori'
p6
S'This house believes that endangered species should be protected'
p7
ssS'output'
p8
(dp9
g4
(lp10
I887
aI3
aI6834
aI155
aI3785
aI4555
aI182
aI19195
aI13845
aI8013
aI8014
aI495
aI15792
aI3007
aI645
aI63765
aI22011
aI5
aI11107
aI22012
aI1544
aI60
aI5295
aI5498
aI15237
aI1082
aI18002
aI22013
aI11744
aI22014
aI5
aI3007
aI22015
aI63765
asg6
S'Among the scientists they mention specifically are Rachel Carson  Aldo Leopold  John Livingston  Paul R . Ehrlich and Barry Commoner  together with Frank Fraser Darling  Charles Sutherland Elton  Eugene Odum and Paul Sears .'
p11
ss.