(dp1
S'input'
p2
(dp3
S'encoded'
p4
(lp5
I64
aI2179
aI394
aI1499
aI177
aI1819
aI34
aI160
asS'ori'
p6
S'This house would build high rises for housing'
p7
ssS'output'
p8
(dp9
g4
(lp10
I3
aI1410
aI5069
aI382
aI5400
aI5
aI3
aI7632
aI5738
aI5515
aI53
aI11279
aI2891
aI634
aI34
aI136
aI138
aI2642
aI89
aI398
aI63765
asg6
S'The main exceptions were Sydney and the Gold Coast  Queensland where apartment development continued for more than half a century .'
p11
ss.