(dp1
S'input'
p2
(dp3
S'encoded'
p4
(lp5
I64
aI2179
aI394
aI163
aI959
aI2042
aI3557
asS'ori'
p6
S'This house would make physical education compulsory'
p7
ssS'output'
p8
(dp9
g4
(lp10
I959
aI6238
aI182
aI246
aI19721
aI736
aI292
aI1486
aI853
aI14
aI3
aI164
aI782
aI155
aI11
aI14
aI3
aI2445
aI6238
aI159
aI41
aI3607
aI3204
aI3
aI1051
aI7
aI1580
aI7
aI12315
aI5
aI21352
aI63765
asg6
S'Physical exercises are generally grouped into three types depending on the overall effect they have on the human body:Flexibility exercises  such as stretching  improve the range of motion of muscles and joints  .'
p11
ss.