(dp1
S'input'
p2
(dp3
S'encoded'
p4
(lp5
I64
aI2179
aI394
aI2773
aI12505
asS'ori'
p6
S'This house would embrace multiculturalism'
p7
ssS'output'
p8
(dp9
g4
(lp10
I14
aI2116
aI2017
aI2822
aI311
aI89
aI10159
aI7
aI398
aI5761
aI5472
aI51809
aI24
aI667
aI2086
aI24
aI92
aI42
aI11462
aI3
aI10004
aI7
aI3
aI5472
aI15359
aI3
aI20012
aI60
aI3
aI2170
aI7
aI3
aI51803
aI63765
asg6
S'On June 24  Ban Ki-moon spoke at a commemoration of 13th century Muslim poet Rumi in New York  in which he embraced the teachings of the poet  expressing the resonance with the goals of the AoC  .'
p11
ss.