(dp1
S'input'
p2
(dp3
S'encoded'
p4
(lp5
I64
aI2179
aI394
aI2976
aI12243
aI24
aI954
aI126
aI1560
aI10723
asS'ori'
p6
S'This house would implement playoffs in collegiate level American football'
p7
ssS'output'
p8
(dp9
g4
(lp10
I2985
aI8037
aI63
aI3
aI912
aI20731
aI145
aI1735
aI34
aI4374
aI2642
aI7
aI3
aI4144
aI45
aI4564
aI5
aI6372
aI24
aI20731
aI283
aI226
aI2032
aI12247
aI14362
aI63
aI1074
aI3900
aI283
aI34
aI166
aI38929
aI4144
aI1453
aI99
aI124
aI132
aI12338
aI3
aI20731
aI319
aI12545
aI92
aI153
aI1074
aI15904
aI12297
aI28272
aI13751
aI1487
aI5
aI4564
aI45
aI23584
aI8849
aI63765
asg6
S'Critics note that the current bowl system allows for nearly half of the teams to travel and play in bowl games  while proposed playoff formats that include home games for higher seeded teams do not provide these players the bowl game rewards  which often include favorable hotel accommodations  gift bags  and travel to warm destinations  .'
p11
ss.