(dp1
S'input'
p2
(dp3
S'encoded'
p4
(lp5
I64
aI2179
aI394
aI5842
aI3569
aI446
aI13498
asS'ori'
p6
S'This house would introduce year round schooling'
p7
ssS'output'
p8
(dp9
g4
(lp10
I64
aI7177
aI45
aI23510
aI10727
aI5
aI177
aI4364
aI63765
asg6
S'This applies to kindergarten  elementary and high schools .'
p11
ss.