(dp1
S'input'
p2
(dp3
S'encoded'
p4
(lp5
I64
aI2179
aI43
aI63
aI3
aI4538
aI7
aI4434
aI7793
aI283
aI45
aI3586
aI417
aI316
aI577
asS'ori'
p6
S'This house believes that the sale of violent video games to minors should be banned'
p7
ssS'output'
p8
(dp9
g4
(lp10
I24
aI2805
aI1560
aI29985
aI24716
aI122
aI2162
aI60
aI5908
aI4257
aI5
aI221
aI51
aI29592
aI720
aI63
aI42
aI122
aI60
aI6011
aI7300
aI14173
aI3501
aI63765
aI572
aI413
aI7793
aI319
aI299
aI5
aI809
aI3343
aI452
aI18386
aI474
aI3
aI4928
aI7
aI4944
aI56842
aI56843
aI45
aI2741
aI89
aI8037
aI45
aI3
aI707
aI63
aI742
aI3330
aI440
aI1796
aI4749
aI3
aI7042
aI1191
aI3
aI4434
aI7793
aI319
aI63
aI5717
aI64
aI1921
aI2036
aI1063
aI40
aI45
aI2011
aI3218
aI8582
aI56842
aI63765
aI257
aI155
aI2233
aI47
asg6
S'In February 2003  16-year-old American Dustin Lynch was charged with aggravated murder and made an insanity defense that he was "obsessed" with Grand Theft Auto III . Long time video game opponent and former attorney Jack Thompson encouraged the father of victim JoLynn Mishne to pass a note to the judge that said "the attorneys had better tell the jury about the violent video game that trained this kid [and] showed him how to kill our daughter  JoLynn . If they don\'t  I will ."'
p11
ss.