(dp1
S'input'
p2
(dp3
S'encoded'
p4
(lp5
I64
aI2179
aI43
aI63
aI3
aI4538
aI7
aI4434
aI7793
aI283
aI45
aI3586
aI417
aI316
aI577
asS'ori'
p6
S'This house believes that the sale of violent video games to minors should be banned'
p7
ssS'output'
p8
(dp9
g4
(lp10
I725
aI14184
aI5
aI6383
aI7
aI283
aI11
aI297
aI75
aI271
aI284
aI23249
aI45
aI2994
aI271
aI283
aI45
aI7830
aI10950
aI1191
aI5500
aI25663
aI7151
aI24
aI3
aI283
aI63765
asg6
S'Many developers and publishers of Internet-available games have decided by their own volition to rate their games to educate audiences about potentially objectionable content in the games  .'
p11
ss.