(dp1
S'input'
p2
(dp3
S'encoded'
p4
(lp5
I64
aI2179
aI43
aI223
aI2138
aI11
aI89
aI21
aI45
aI2185
aI372
asS'ori'
p6
S'This house believes all nations have a right to nuclear weapons'
p7
ssS'output'
p8
(dp9
g4
(lp10
I24
aI421
aI2450
aI3232
aI36790
aI34526
aI5
aI92
aI139
aI316
aI416
aI45
aI505
aI13249
aI2672
aI63765
asg6
S'In addition India maintains SEPECAT Jaguar and MiG-27M which can be used to drop gravity bombs  .'
p11
ss.