(dp1
S'input'
p2
(dp3
S'encoded'
p4
(lp5
I64
aI2179
aI394
aI5370
aI3
aI5286
asS'ori'
p6
S'This house would abolish the monarchy'
p7
ssS'output'
p8
(dp9
g4
(lp10
I3
aI905
aI3072
aI3
aI269
aI291
aI5358
aI5
aI4471
aI5
aI1442
aI703
aI45
aI5596
aI4471
aI159
aI41
aI3
aI4288
aI4758
aI2823
aI3
aI2477
aI2132
aI2823
aI5
aI4471
aI206
aI15
aI51
aI2990
aI2164
aI5
aI89
aI63765
asg6
S'The report examined the contest between minimalist and direct-election models and gave attention to hybrid models such as the Electoral College Model  the Constitutional Council Model and models having both an elected President and a Governor-General .'
p11
ss.