(dp1
S'input'
p2
(dp3
S'encoded'
p4
(lp5
I64
aI2179
aI394
aI60
aI23587
asS'ori'
p6
S'This house would re-engage with Myanmar'
p7
ssS'output'
p8
(dp9
g4
(lp10
I24
aI2068
aI2439
aI15
aI2390
aI5
aI2450
aI11
aI3009
aI45
aI3253
aI2591
aI60
aI3
aI260
aI34
aI16
aI161
aI63765
asg6
S'In recent years  both China and India have attempted to strengthen ties with the government for economic benefit .'
p11
ss.