(dp1
S'input'
p2
(dp3
S'encoded'
p4
(lp5
I64
aI2179
aI13605
aI2258
aI45
aI2194
asS'ori'
p6
S'This house prefers trade to aid'
p7
ssS'output'
p8
(dp9
g4
(lp10
I132
aI182
aI3250
aI1022
aI3384
aI19
aI3
aI7982
aI7
aI7800
aI1696
aI946
aI60
aI3
aI3064
aI7
aI2138
aI92
aI2988
aI3
aI25820
aI24432
aI63765
asg6
S"These are mostly technical arguments from the discipline of economics  starting especially with Smith's The Wealth of Nations  which overthrew the mercantile orthodoxy ."
p11
ss.