(dp1
S'input'
p2
(dp3
S'encoded'
p4
(lp5
I64
aI2179
aI394
aI2773
aI12505
asS'ori'
p6
S'This house would embrace multiculturalism'
p7
ssS'output'
p8
(dp9
g4
(lp10
I57974
aI524
aI864
aI63
aI725
aI2637
aI3237
aI159
aI41
aI1443
aI33002
aI19245
aI45
aI316
aI5605
aI24
aI14904
aI5
aI1193
aI54440
aI182
aI1032
aI5993
aI60
aI2023
aI5
aI368
aI3905
aI63765
asg6
S'Stoffman points out that many cultural practices  such as allowing dog meat to be served in restaurants and street cockfighting  are simply incompatible with Canadian and Western culture  .'
p11
ss.