(dp1
S'input'
p2
(dp3
S'encoded'
p4
(lp5
I64
aI2179
aI43
aI63
aI134
aI116
aI400
aI21
aI34
aI3
aI260
aI45
aI3439
aI57
aI7
aI2381
asS'ori'
p6
S'This house believes that it is sometimes right for the government to restrict freedom of speech'
p7
ssS'output'
p8
(dp9
g4
(lp10
I24
aI3
aI626
aI2549
aI5427
aI3
aI1565
aI2533
aI5
aI3
aI3426
aI7
aI57
aI7
aI4640
aI134
aI4228
aI24
aI3500
aI736
aI211
aI2287
aI70
aI459
aI3
aI2445
aI2446
aI2784
aI63765
asg6
S'In 1998  the United Kingdom incorporated the European Convention  and the guarantee of freedom of expression it contains in Article 10  into its domestic law under the Human Rights Act .'
p11
ss.