(dp1
S'input'
p2
(dp3
S'encoded'
p4
(lp5
I64
aI2179
aI43
aI63
aI2659
aI417
aI1690
aI3
aI12048
aI7
aI19084
asS'ori'
p6
S'This house believes that Israel should lift the blockade of Gaza'
p7
ssS'output'
p8
(dp9
g4
(lp10
I64
aI4134
aI83
aI316
aI7541
aI15250
aI24
aI89
aI1235
aI413
aI5
aI3
aI7582
aI83
aI316
aI13336
aI63765
asg6
S'This incident must be investigated accurately in a short time and the offenders must be punished .'
p11
ss.