(dp1
S'input'
p2
(dp3
S'encoded'
p4
(lp5
I64
aI2179
aI394
aI190
aI3
aI21
aI45
aI3895
aI834
asS'ori'
p6
S'This house would limit the right to bear arms'
p7
ssS'output'
p8
(dp9
g4
(lp10
I3892
aI1256
aI182
aI575
aI117
aI34
aI3446
aI475
aI99
aI34
aI2190
aI24
aI3
aI3892
aI4538
aI63765
asg6
S'Firearms permits are given only for personal use  not for business in the firearms sale .'
p11
ss.