(dp1
S'input'
p2
(dp3
S'encoded'
p4
(lp5
I64
aI2179
aI43
aI63
aI134
aI116
aI400
aI21
aI34
aI3
aI260
aI45
aI3439
aI57
aI7
aI2381
asS'ori'
p6
S'This house believes that it is sometimes right for the government to restrict freedom of speech'
p7
ssS'output'
p8
(dp9
g4
(lp10
I1592
aI25
aI2381
aI23872
aI122
aI2162
aI5
aI4546
aI459
aI3
aI11869
aI2784
aI63765
asg6
S'" Following his speech  Debs was charged and convicted under the Espionage Act .'
p11
ss.