(dp1
S'input'
p2
(dp3
S'encoded'
p4
(lp5
I64
aI2179
aI43
aI63
aI17574
aI417
aI316
aI3481
aI34
aI271
aI79
asS'ori'
p6
S'This house believes that housewives should be paid for their work'
p7
ssS'output'
p8
(dp9
g4
(lp10
I3495
aI500
aI24
aI68
aI831
aI24
aI1445
aI2711
aI736
aI3130
aI1036
aI17647
aI9312
aI159
aI41
aI1507
aI5
aI397
aI3
aI1447
aI2467
aI7
aI3
aI398
aI63765
asg6
S'Women did  in fact  move in large numbers into previous male bastions (especially professions such as medicine and law) during the last decades of the 20th century .'
p11
ss.