(dp1
S'input'
p2
(dp3
S'encoded'
p4
(lp5
I64
aI2179
aI394
aI2017
aI262
asS'ori'
p6
S'This house would ban boxing'
p7
ssS'output'
p8
(dp9
g4
(lp10
I3
aI3016
aI263
aI18303
aI41224
aI73
aI5077
aI92
aI116
aI566
aI60
aI518
aI139
aI296
aI24
aI4764
aI5
aI959
aI8877
aI159
aI41
aI41288
aI2381
aI5
aI4958
aI251
aI21037
aI1043
aI12028
aI41289
aI5
aI5289
aI8935
aI63765
asg6
S'The condition called dementia pugilistica  or "punch drunk" syndrome  which is associated with boxers  can result in cognitive and physical deficits such as parkinsonism  speech and memory problems  slowed mental processing  tremor  and inappropriate behavior  .'
p11
ss.