(dp1
S'input'
p2
(dp3
S'encoded'
p4
(lp5
I64
aI2179
aI43
aI63
aI323
aI417
aI10009
aI211
aI9035
aI249
aI45
aI3426
aI211
aI2144
aI595
aI17
aI96
asS'ori'
p6
S'This house believes that Europe should weaken its austerity measures to guarantee its citizens greater social support'
p7
ssS'output'
p8
(dp9
g4
(lp10
I3
aI9037
aI182
aI7241
aI45
aI9205
aI271
aI912
aI6085
aI8947
aI736
aI667
aI8947
aI60
aI89
aI5065
aI7
aI291
aI5
aI2439
aI5
aI979
aI582
aI9074
aI7
aI34
aI3
aI237
aI292
aI2439
aI34
aI3
aI1608
aI863
aI2439
aI5
aI508
aI7165
aI89
aI7337
aI1811
aI34
aI6095
aI63765
asg6
S'The creditors are invited to swap their current Greek bonds into new bonds with a maturity of between 11 and 30 years and lower average yields of 3 .65% (2% for the first three years  3% for the next five years  and 4 .2% thereafter)  thus facilitating a 100bn debt reduction for Greece  .'
p11
ss.