(dp1
S'input'
p2
(dp3
S'encoded'
p4
(lp5
I64
aI2179
aI394
aI5284
aI150
aI3987
asS'ori'
p6
S'This house would reintroduce national service'
p7
ssS'output'
p8
(dp9
g4
(lp10
I257
aI89
aI2007
aI117
aI14507
aI45
aI265
aI131
aI99
aI45
aI3987
aI24
aI3
aI2157
aI768
aI3
aI2007
aI463
aI316
aI575
aI6019
aI3987
aI24
aI3
aI2157
aI252
aI477
aI7
aI372
aI63765
asg6
S'If a person only objects to combat but not to service in the military  then the person could be given noncombatant service in the military without training of weapons .'
p11
ss.