(dp1
S'input'
p2
(dp3
S'encoded'
p4
(lp5
I64
aI2179
aI43
aI63
aI3
aI28431
aI7
aI2157
aI4624
aI75
aI39939
aI27257
aI122
aI4850
asS'ori'
p6
S'This house believes that the leaking of military documents by Anat Kamm was justified'
p7
ssS'output'
p8
(dp9
g4
(lp10
I54
aI5
aI3353
aI116
aI2566
aI864
aI75
aI3
aI150
aI4445
aI34
aI3
aI1795
aI7
aI10
aI2208
aI63765
asg6
S'Regulation and enforcement is carried out by the National Administration for the Protection of State Secrets .'
p11
ss.