(dp1
S'input'
p2
(dp3
S'encoded'
p4
(lp5
I64
aI2179
aI394
aI15841
aI2736
asS'ori'
p6
S'This house would disband ASEAN'
p7
ssS'output'
p8
(dp9
g4
(lp10
I30525
aI7
aI1243
aI5
aI7
aI3
aI2731
aI73
aI475
aI7
aI972
aI73
aI248
aI3089
aI24
aI351
aI2690
aI5343
aI60
aI282
aI63765
asg6
S'c) renunciation of aggression and of the threat or use of force or other actions in any manner inconsistent with international law;  .'
p11
ss.