(dp1
S'input'
p2
(dp3
S'encoded'
p4
(lp5
I64
aI2179
aI43
aI8629
aI116
aI3
aI117
aI998
asS'ori'
p6
S'This house believes atheism is the only way'
p7
ssS'output'
p8
(dp9
g4
(lp10
I5369
aI55
aI12
aI416
aI75
aI3
aI10451
aI11599
aI5871
aI44225
aI45
aI3553
aI89
aI17543
aI7
aI2767
aI1593
aI63
aI116
aI5344
aI73
aI2341
aI19
aI2382
aI131
aI99
aI11655
aI63765
asg6
S'Alternatively  "religious criticism" has been used by the literary critic Harold Bloom to describe a mode of religious discussion that is secular or separate from religion but not inherently anti-religion .'
p11
ss.