(dp1
S'input'
p2
(dp3
S'encoded'
p4
(lp5
I64
aI2179
aI394
aI4325
aI2042
aI270
aI89
aI11605
aI3324
asS'ori'
p6
S'This house would fund education using a voucher scheme'
p7
ssS'output'
p8
(dp9
g4
(lp10
I42
aI55
aI263
aI3
aI2130
aI905
aI89
aI3270
aI136
aI137
aI2192
aI73
aI3756
aI9934
aI311
aI3900
aI47
aI1453
aI3819
aI45
aI3208
aI23274
aI3503
aI64
aI116
aI7502
aI61
aI3
aI2130
aI23335
aI63765
asg6
S'He has called the 9/11 Commission Report a "charade"  saying "spending more money abroad or restricting liberties at home will do nothing to deter terrorists  yet this is exactly what the 9-11 Commission recommends .'
p11
ss.