(dp1
S'input'
p2
(dp3
S'encoded'
p4
(lp5
I64
aI2179
aI394
aI2976
aI12243
aI24
aI954
aI126
aI1560
aI10723
asS'ori'
p6
S'This house would implement playoffs in collegiate level American football'
p7
ssS'output'
p8
(dp9
g4
(lp10
I25502
aI406
aI261
aI14
aI211
aI998
aI45
aI89
aI4464
aI366
aI51
aI486
aI1949
aI5159
aI606
aI86
aI4742
aI24
aI3
aI34949
aI10170
aI63765
asg6
S'Houston appeared well on its way to a bid after an undefeated regular season placed them sixth in the next-to-last BCS rankings .'
p11
ss.