(dp1
S'input'
p2
(dp3
S'encoded'
p4
(lp5
I64
aI2179
aI43
aI63
aI134
aI116
aI400
aI21
aI34
aI3
aI260
aI45
aI3439
aI57
aI7
aI2381
asS'ori'
p6
S'This house believes that it is sometimes right for the government to restrict freedom of speech'
p7
ssS'output'
p8
(dp9
g4
(lp10
I3
aI3304
aI55
aI89
aI5344
aI6459
aI73
aI1334
aI782
aI880
aI14810
aI3646
aI19433
aI5
aI134
aI98
aI99
aI2187
aI51
aI7045
aI260
aI52695
aI60
aI2382
aI63765
asg6
S'the statute (or practice) has a secular purpose;its principal or primary effect neither advances nor inhibits religion; and it does not foster an excessive government entanglement with religion .'
p11
ss.