(dp1
S'input'
p2
(dp3
S'encoded'
p4
(lp5
I64
aI2179
aI394
aI1499
aI3
aI8115
aI34564
aI17106
asS'ori'
p6
S'This house would build the Keystone XL pipeline'
p7
ssS'output'
p8
(dp9
g4
(lp10
I42305
aI440
aI742
aI63
aI2891
aI7
aI2579
aI15177
aI47
aI3209
aI917
aI7
aI755
aI3
aI12153
aI2579
aI116
aI6722
aI45
aI3
aI626
aI187
aI73
aI5369
aI45
aI2646
aI3210
aI620
aI3
aI15204
aI4192
aI18496
aI45623
aI73
aI3
aI52550
aI1637
aI63765
asg6
S"TransCanada had said that development of oil sands will expand regardless of whether the crude oil is exported to the United States or alternatively to Asian markets through the Enbridge Northern Gateway Pipelines or the Kinder Morgan's Trans-Mountain line  ."
p11
ss.