(dp1
S'input'
p2
(dp3
S'encoded'
p4
(lp5
I64
aI2179
aI394
aI5370
aI7146
aI4585
aI2446
asS'ori'
p6
S'This house would abolish intellectual property rights'
p7
ssS'output'
p8
(dp9
g4
(lp10
I378
aI64
aI840
aI18191
aI19
aI3
aI192
aI3739
aI81
aI1019
aI141
aI3
aI5084
aI7
aI3
aI8942
aI24
aI64
aI33
aI89
aI3269
aI8985
aI2613
aI63765
asg6
S'However  this immediately excludes from the market anyone who cannot afford the cost of the product  in this case a life saving drug .'
p11
ss.