(dp1
S'input'
p2
(dp3
S'encoded'
p4
(lp5
I64
aI2179
aI43
aI3
aI626
aI187
aI116
aI1989
aI34
aI3102
aI2223
asS'ori'
p6
S"This house believes the United States is responsible for Mexico's drugs war"
p7
ssS'output'
p8
(dp9
g4
(lp10
I267
aI7
aI132
aI1374
aI8769
aI311
aI3
aI3211
aI8413
aI182
aI6212
aI45
aI3
aI4257
aI7
aI8754
aI5
aI2581
aI1795
aI7865
aI14292
aI1139
aI14
aI2394
aI63765
asg6
S'Two of these guns recovered at the crime scene are linked to the murder of Customs and Border Protection Agent Brian Terry on December 14  2010  .'
p11
ss.