(dp1
S'input'
p2
(dp3
S'encoded'
p4
(lp5
I64
aI2179
aI13605
aI2258
aI45
aI2194
asS'ori'
p6
S'This house prefers trade to aid'
p7
ssS'output'
p8
(dp9
g4
(lp10
I132
aI5019
aI186
aI63
aI3
aI5936
aI161
aI45
aI2287
aI8678
aI30421
aI3
aI5936
aI852
aI7
aI2287
aI3
aI979
aI7494
aI7
aI2135
aI10289
aI7500
aI116
aI89
aI2914
aI69
aI24
aI3
aI3440
aI51368
aI5
aI3
aI2878
aI7
aI3
aI116
aI4771
aI63765
asg6
S'These economists argue that (since the surplus benefit to domestic consumers outweighs the surplus loss of domestic producers) the lower price of foreign subsidized goods is a net positive (as in the standard Ricardian argument) and the source of the "comparative advantage" is irrelevant .'
p11
ss.