(dp1
S'input'
p2
(dp3
S'encoded'
p4
(lp5
I64
aI2179
aI43
aI63
aI6670
aI546
aI417
aI316
aI89
aI1334
aI3108
aI7
aI4849
aI1886
aI2855
asS'ori'
p6
S'This house believes that wind power should be a primary focus of future energy supply'
p7
ssS'output'
p8
(dp9
g4
(lp10
I41
aI7
aI2871
aI273
aI382
aI6670
aI6738
aI7
aI595
aI138
aI4204
aI5157
aI24
aI1005
aI63765
asg6
S'As of October 2010  there were 52 wind farms of greater than 100&nbsp;kW capacity operating in Australia  .'
p11
ss.