(dp1
S'input'
p2
(dp3
S'encoded'
p4
(lp5
I64
aI2179
aI394
aI117
aI7428
aI21151
aI34
aI11389
aI2042
aI24
aI4364
asS'ori'
p6
S'This house would only teach abstinence for sex education in schools'
p7
ssS'output'
p8
(dp9
g4
(lp10
I887
aI17092
aI24
aI3
aI102
aI3820
aI51
aI3257
aI89
aI2035
aI353
aI63
aI3
aI2994
aI7
aI13788
aI475
aI122
aI4166
aI3
aI1643
aI34
aI17092
aI41
aI34
aI1478
aI3495
aI63765
asg6
S'Among teens in the UK seeking an abortion  a study found that the rate of contraceptive use was roughly the same for teens as for older women  .'
p11
ss.