(dp1
S'input'
p2
(dp3
S'encoded'
p4
(lp5
I64
aI2179
aI394
aI5284
aI150
aI3987
asS'ori'
p6
S'This house would reintroduce national service'
p7
ssS'output'
p8
(dp9
g4
(lp10
I3
aI5790
aI5706
aI5791
aI5792
aI263
aI1779
aI89
aI5737
aI7
aI3386
aI4218
aI263
aI25
aI3386
aI1296
aI63765
asg6
S'The Moroccan Sultan Moulay Ismail  called "the Bloodthirsty" (16721727)  employed a corps of 150 000 black slaves  called his Black Guard .'
p11
ss.