(dp1
S'input'
p2
(dp3
S'encoded'
p4
(lp5
I64
aI2179
aI394
aI2017
aI223
aI9058
aI23653
asS'ori'
p6
S'This house would ban all unsustainable logging'
p7
ssS'output'
p8
(dp9
g4
(lp10
I19
aI3
aI45
aI3249
aI1413
aI3930
aI122
aI6347
aI620
aI1413
aI2397
aI45
aI3202
aI8242
aI5
aI2223
aI4089
aI63765
asg6
S'From the 1950s to 1974 private land ownership was promoted through land grants to civil servants and war veterans .'
p11
ss.