(dp1
S'input'
p2
(dp3
S'encoded'
p4
(lp5
I64
aI2179
aI394
aI5284
aI150
aI3987
asS'ori'
p6
S'This house would reintroduce national service'
p7
ssS'output'
p8
(dp9
g4
(lp10
I41
aI89
aI3730
aI3
aI145
aI2586
aI45
aI1746
aI462
aI3
aI5514
aI7
aI3
aI5736
aI373
aI2601
aI4745
aI63765
asg6
S'As a whole the system began to break down  the loyalty of the Jannissaries became increasingly suspect .'
p11
ss.