(dp1
S'input'
p2
(dp3
S'encoded'
p4
(lp5
I64
aI2179
aI394
aI1499
aI177
aI1819
aI34
aI160
asS'ori'
p6
S'This house would build high rises for housing'
p7
ssS'output'
p8
(dp9
g4
(lp10
I3
aI2326
aI122
aI123
aI45
aI7968
aI3
aI18209
aI7
aI1488
aI2190
aI4527
aI39050
aI34
aI2597
aI6763
aI1858
aI3
aI4996
aI63765
asg6
S'The program was created to reverse the tide of small business leaving downtowns for larger sites surrounding the city .'
p11
ss.