(dp1
S'input'
p2
(dp3
S'encoded'
p4
(lp5
I64
aI2179
aI43
aI63
aI2203
aI60
aI51
aI997
aI2837
aI21716
aI1636
aI5349
aI417
aI2998
aI8532
aI45
aI3051
aI8578
asS'ori'
p6
S'This house believes that countries with an imbalanced male/female ratio skewed towards males should encourage parents to produce girls'
p7
ssS'output'
p8
(dp9
g4
(lp10
I24
aI97
aI2035
aI411
aI55
aI3619
aI3
aI5058
aI63
aI2445
aI11389
aI17839
aI5
aI58872
aI11389
aI17839
aI24
aI448
aI182
aI47103
aI3365
aI45
aI3
aI12270
aI2363
aI7
aI15
aI8532
aI311
aI3
aI413
aI7
aI4642
aI63765
asg6
S'In another study  James has offered the hypothesis that human sex ratios  and mammalian sex ratios in general  are causally related to the hormone levels of both parents at the time of conception  .'
p11
ss.