(dp1
S'input'
p2
(dp3
S'encoded'
p4
(lp5
I64
aI2179
aI43
aI63
aI134
aI116
aI400
aI21
aI34
aI3
aI260
aI45
aI3439
aI57
aI7
aI2381
asS'ori'
p6
S'This house believes that it is sometimes right for the government to restrict freedom of speech'
p7
ssS'output'
p8
(dp9
g4
(lp10
I20485
aI646
aI626
aI2549
aI54903
aI14211
aI2411
aI2412
aI7
aI7371
aI24
aI19372
aI45
aI4168
aI2158
aI2511
aI3151
aI171
aI646
aI2670
aI54903
aI54909
aI646
aI626
aI2549
aI54903
aI7058
aI24
aI89
aI3249
aI20004
aI14888
aI63765
asg6
S'Bowman v United Kingdom (1998) 26 EHRR 1  distributing vast quantities of anti-abortion material in contravention to election spending laws Communist Party v Turkey (1998) 26 EHRR 1211 Appleby v United Kingdom (2003) 37 EHRR 38  protests in a private shopping mall  .'
p11
ss.