(dp1
S'input'
p2
(dp3
S'encoded'
p4
(lp5
I64
aI2179
aI394
aI2773
aI12505
asS'ori'
p6
S'This house would embrace multiculturalism'
p7
ssS'output'
p8
(dp9
g4
(lp10
I2637
aI13347
aI88
aI174
aI316
aI566
aI60
aI2768
aI5
aI19
aI51
aI14478
aI4279
aI4921
aI89
aI4066
aI3905
aI63765
asg6
S'Cultural competence may also be associated with diversity and from an organizational communication perspective  a diverse culture .'
p11
ss.