(dp1
S'input'
p2
(dp3
S'encoded'
p4
(lp5
I64
aI2179
aI43
aI63
aI323
aI417
aI10009
aI211
aI9035
aI249
aI45
aI3426
aI211
aI2144
aI595
aI17
aI96
asS'ori'
p6
S'This house believes that Europe should weaken its austerity measures to guarantee its citizens greater social support'
p7
ssS'output'
p8
(dp9
g4
(lp10
I3
aI3150
aI16
aI9119
aI463
aI5500
aI4918
aI34
aI89
aI1068
aI45
aI1706
aI3226
aI3
aI3904
aI9032
aI9120
aI63765
asg6
S'The worse economic outlook  could potentially call for a need to further increase the existing bailout packages .'
p11
ss.