(dp1
S'input'
p2
(dp3
S'encoded'
p4
(lp5
I64
aI2179
aI43
aI63
aI7382
aI116
aI400
aI4713
asS'ori'
p6
S'This house believes that bribery is sometimes acceptable'
p7
ssS'output'
p8
(dp9
g4
(lp10
I43659
aI3888
aI45
aI298
aI12237
aI7
aI658
aI5354
aI1192
aI4242
aI5
aI43661
aI620
aI63
aI5354
aI63765
asg6
S'Prebendalism refers to when incumbents of public office get privileges and perquisites through that office  .'
p11
ss.