(dp1
S'input'
p2
(dp3
S'encoded'
p4
(lp5
I64
aI2179
aI43
aI8629
aI116
aI3
aI117
aI998
asS'ori'
p6
S'This house believes atheism is the only way'
p7
ssS'output'
p8
(dp9
g4
(lp10
I8381
aI742
aI3
aI8193
aI116
aI3107
aI5
aI8397
aI2126
aI41
aI3707
aI98
aI63765
asg6
S"Haggard said the Bible is true and doesn't contradict itself as science does ."
p11
ss.