(dp1
S'input'
p2
(dp3
S'encoded'
p4
(lp5
I64
aI2179
aI43
aI8629
aI116
aI3
aI117
aI998
asS'ori'
p6
S'This house believes atheism is the only way'
p7
ssS'output'
p8
(dp9
g4
(lp10
I7
aI3
aI380
aI8187
aI21798
aI63
aI42
aI39
aI42
aI27255
aI864
aI3
aI143
aI19
aI4537
aI34
aI593
aI3480
aI63765
asg6
S'Of the various philosophical proofs that he discusses  he singles out the Argument from design for longer consideration .'
p11
ss.