(dp1
S'input'
p2
(dp3
S'encoded'
p4
(lp5
I64
aI2179
aI394
aI5284
aI150
aI3987
asS'ori'
p6
S'This house would reintroduce national service'
p7
ssS'output'
p8
(dp9
g4
(lp10
I257
aI3
aI460
aI116
aI89
aI5520
aI42
aI139
aI12488
aI487
aI3
aI312
aI7
aI3
aI5018
aI3569
aI63765
asg6
S'If the man is a senior he can defer until the end of the academic year .'
p11
ss.