(dp1
S'input'
p2
(dp3
S'encoded'
p4
(lp5
I64
aI2179
aI394
aI2017
aI262
asS'ori'
p6
S'This house would ban boxing'
p7
ssS'output'
p8
(dp9
g4
(lp10
I239
aI1748
aI384
aI2167
aI876
aI11
aI12
aI416
aI382
aI3
aI540
aI2121
aI34
aI117
aI958
aI138
aI295
aI87
aI134
aI116
aI748
aI63
aI100
aI73
aI223
aI18354
aI463
aI11
aI754
aI3
aI1643
aI998
aI917
aI7
aI755
aI3
aI2121
aI830
aI382
aI73
aI295
aI63765
asg6
S'Nonetheless  entirely different strategies might have been used were the fights scheduled for only 12 rather than 15 rounds  so it is possible that some or all matches could have ended the same way regardless of whether the scheduled distance were 12 or 15 rounds .'
p11
ss.