(dp1
S'input'
p2
(dp3
S'encoded'
p4
(lp5
I64
aI2179
aI394
aI4325
aI2042
aI270
aI89
aI11605
aI3324
asS'ori'
p6
S'This house would fund education using a voucher scheme'
p7
ssS'output'
p8
(dp9
g4
(lp10
I2025
aI3943
aI64
aI394
aI126
aI3
aI5600
aI7834
aI75
aI13522
aI7631
aI34
aI4358
aI45
aI3573
aI41
aI1228
aI7
aI4364
aI41
aI3
aI2653
aI4416
aI107
aI7
aI3
aI912
aI145
aI92
aI13523
aI3
aI2653
aI5
aI1740
aI4416
aI131
aI99
aI3
aI979
aI4416
aI324
aI5275
aI63765
asg6
S'Supporters say this would level the playing field by broadening opportunities for low-income students to attend as good of schools as the middle classes instead of the current two-tiered system which educates the middle and upper classes  but not the lower classes  particularly minorities  .'
p11
ss.