(dp1
S'input'
p2
(dp3
S'encoded'
p4
(lp5
I64
aI2179
aI43
aI63
aI2157
aI2565
aI493
aI19084
aI382
aI4850
asS'ori'
p6
S"This house believes that Israel's 2008-2009 military operations against Gaza were justified"
p7
ssS'output'
p8
(dp9
g4
(lp10
I5805
aI7
aI5806
aI7
aI78
aI4161
aI725
aI3982
aI15034
aI13773
aI2659
aI5
aI61
aI155
aI263
aI289
aI3
aI7
aI3
aI19088
aI78
aI75
aI3
aI27161
aI63765
asg6
S'|- Sana\'a 10 000 Tens of thousands of people marched  many carrying banners condemning Israel and what they called "Arab silence" over the "extermination of the Palestinian people by the Zionist enemy" .'
p11
ss.