(dp1
S'input'
p2
(dp3
S'encoded'
p4
(lp5
I64
aI2179
aI394
aI1499
aI177
aI1819
aI34
aI160
asS'ori'
p6
S'This house would build high rises for housing'
p7
ssS'output'
p8
(dp9
g4
(lp10
I35877
aI998
aI24
aI35878
aI122
aI89
aI1445
aI9313
aI1381
aI3
aI2471
aI7
aI3
aI160
aI373
aI6799
aI5
aI3
aI803
aI116
aI2056
aI3603
aI31759
aI63765
asg6
S'Arron Way in Corby was a large estate  although the majority of the housing became derelict and the area is now undergoing regeneration .'
p11
ss.