(dp1
S'input'
p2
(dp3
S'encoded'
p4
(lp5
I64
aI2179
aI43
aI8629
aI116
aI3
aI117
aI998
asS'ori'
p6
S'This house believes atheism is the only way'
p7
ssS'output'
p8
(dp9
g4
(lp10
I257
aI5480
aI139
aI5370
aI3148
aI5
aI5480
aI2628
aI8467
aI45
aI1453
aI134
aI6668
aI116
aI273
aI3148
aI24
aI3
aI285
aI63764
asg6
S'If God can abolish evil  and God really wants to do it  why is there evil in the world ?'
p11
ss.