(dp1
S'input'
p2
(dp3
S'encoded'
p4
(lp5
I64
aI2179
aI43
aI63
aI3
aI4990
aI4991
aI116
aI4850
aI24
aI12166
aI3
aI475
aI7
aI3532
aI3290
aI7
aI4714
asS'ori'
p6
S'This house believes that the Catholic Church is justified in forbidding the use of barrier methods of contraception'
p7
ssS'output'
p8
(dp9
g4
(lp10
I24
aI3
aI4990
aI4991
aI89
aI11200
aI116
aI89
aI3833
aI81
aI55
aI788
aI21266
aI10892
aI1036
aI4968
aI116
aI153
aI263
aI89
aI73
aI1381
aI3
aI1589
aI2909
aI4963
aI419
aI384
aI2767
aI3957
aI5
aI3498
aI419
aI384
aI4913
aI7
aI3
aI4991
aI63765
asg6
S'In the Catholic Church  a nun is a woman who has taken solemn vows (the male equivalent is often called a "monk" or "friar"  although the positions actually entail very different religious origins and constitute very different duties of the church ) .'
p11
ss.