(dp1
S'input'
p2
(dp3
S'encoded'
p4
(lp5
I64
aI2179
aI394
aI16756
aI20435
asS'ori'
p6
S'This house would criminalize blasphemy'
p7
ssS'output'
p8
(dp9
g4
(lp10
I3
aI905
aI3082
aI7206
aI4799
aI34
aI89
aI4211
aI4462
aI7
aI20435
aI92
aI463
aI2830
aI487
aI159
aI413
aI41
aI3500
aI876
aI316
aI579
aI41
aI759
aI7
aI89
aI2495
aI2477
aI3264
aI63765
asg6
S"The Commission's report  therefore  outlined criteria for a statutory definition of blasphemy which could serve until such time as Article 40 .6 .1 .i might be changed as part of a broader Constitutional amendment  ."
p11
ss.