(dp1
S'input'
p2
(dp3
S'encoded'
p4
(lp5
I64
aI2179
aI394
aI60
aI23587
asS'ori'
p6
S'This house would re-engage with Myanmar'
p7
ssS'output'
p8
(dp9
g4
(lp10
I24
aI31858
aI2377
aI50599
aI3
aI50566
aI22271
aI991
aI45
aI50600
aI4032
aI24
aI51
aI2419
aI45
aI1576
aI78
aI1931
aI19
aI50566
aI50554
aI63765
asg6
S'In Yangon  soldiers rerouted the Sule bus stop to Thamada Cinema in an effort to keep people away from Sule pagoda .'
p11
ss.