(dp1
S'input'
p2
(dp3
S'encoded'
p4
(lp5
I64
aI2179
aI43
aI8629
aI116
aI3
aI117
aI998
asS'ori'
p6
S'This house believes atheism is the only way'
p7
ssS'output'
p8
(dp9
g4
(lp10
I3
aI2497
aI14523
aI415
aI45
aI316
aI6428
aI60
aI18539
aI63765
asg6
S'The term theism came to be contrasted with deism .'
p11
ss.