(dp1
S'input'
p2
(dp3
S'encoded'
p4
(lp5
I64
aI2179
aI394
aI5370
aI3
aI5286
asS'ori'
p6
S'This house would abolish the monarchy'
p7
ssS'output'
p8
(dp9
g4
(lp10
I24
aI912
aI6417
aI3
aI414
aI5286
aI246
aI3888
aI45
aI89
aI3492
aI145
aI7
aI5337
aI306
aI41
aI4631
aI5794
aI182
aI6418
aI24
aI3
aI8
aI639
aI63765
asg6
S'In current usage the word monarchy generally refers to a traditional system of hereditary rule  as elective monarchies are rare in the modern period .'
p11
ss.