(dp1
S'input'
p2
(dp3
S'encoded'
p4
(lp5
I64
aI2179
aI394
aI2976
aI12243
aI24
aI954
aI126
aI1560
aI10723
asS'ori'
p6
S'This house would implement playoffs in collegiate level American football'
p7
ssS'output'
p8
(dp9
g4
(lp10
I134
aI122
aI174
aI246
aI5810
aI63
aI2298
aI394
aI1192
aI3
aI248
aI11052
aI257
aI134
aI6335
aI3
aI5240
aI1011
aI319
aI653
aI5046
aI1191
aI89
aI1622
aI13004
aI5
aI89
aI7111
aI1160
aI7
aI5229
aI4144
aI24
aI3
aI5240
aI63765
asg6
S'It was also generally believed that Texas would get the other spot if it won the 2009 Big 12 Championship Game  despite concerns about a weak non-conference schedule and a surprising lack of quality teams in the Big 12 .'
p11
ss.