(dp1
S'input'
p2
(dp3
S'encoded'
p4
(lp5
I64
aI2179
aI394
aI4325
aI2042
aI270
aI89
aI11605
aI3324
asS'ori'
p6
S'This house would fund education using a voucher scheme'
p7
ssS'output'
p8
(dp9
g4
(lp10
I24
aI6077
aI273
aI116
aI51
aI2705
aI11605
aI145
aI24
aI92
aI3
aI10
aI10302
aI3249
aI5
aI4431
aI4364
aI2818
aI717
aI14
aI582
aI5856
aI7
aI3
aI2696
aI4358
aI1244
aI159
aI89
aI63765
aI3
aI296
aI55
aI12
aI89
aI2281
aI3226
aI24
aI3
aI696
aI5
aI5666
aI7
aI3249
aI4364
aI63
aI342
aI1934
aI1796
aI727
aI24
aI13543
aI8351
aI138
aI4431
aI4364
aI63765
aI3
aI1811
aI7
aI4358
aI24
aI4431
aI4364
aI55
aI7861
aI19
aI7
aI223
aI4358
aI24
aI45
aI24
aI5
aI45
aI149
aI138
aI24
asg6
S'In Chile  there is an extensive voucher system in which the state pays private and municipal schools directly  based on average attendance (90% of the country students utilize such a system) . The result has been a steady increase in the number and recruitment of private schools that show consistently better results in standardized testing than municipal schools . The reduction of students in municipal schools has gone from 78% of all students in 1981  to 57% in 1990  and to less than 50% in 2005'
p11
ss.