(dp1
S'input'
p2
(dp3
S'encoded'
p4
(lp5
I64
aI2179
aI43
aI8629
aI116
aI3
aI117
aI998
asS'ori'
p6
S'This house believes atheism is the only way'
p7
ssS'output'
p8
(dp9
g4
(lp10
I89
aI125
aI3661
aI116
aI3
aI3524
aI7
aI15
aI18543
aI5
aI21732
aI3293
aI63765
asg6
S'A basic problem is the existence of both monotheistic and polytheistic views .'
p11
ss.