(dp1
S'input'
p2
(dp3
S'encoded'
p4
(lp5
I64
aI2179
aI394
aI2976
aI12243
aI24
aI954
aI126
aI1560
aI10723
asS'ori'
p6
S'This house would implement playoffs in collegiate level American football'
p7
ssS'output'
p8
(dp9
g4
(lp10
I604
aI7716
aI2298
aI5
aI2298
aI11651
aI440
aI223
aI13361
aI3
aI5159
aI60
aI2298
aI7105
aI7716
aI7716
aI7105
aI2298
aI11651
aI5
aI2298
aI11651
aI7105
aI2298
aI3
aI1239
aI410
aI122
aI297
aI75
aI92
aI11276
aI122
aI329
aI3
aI2810
aI24
aI3
aI5563
aI34949
aI15338
aI1460
aI45
aI3
aI1011
aI319
aI63765
asg6
S'Because Oklahoma  Texas  and Texas Tech had all finished the season 11-1  with Texas beating Oklahoma  Oklahoma beating Texas Tech  and Texas Tech beating Texas  the division champion was decided by which team was ranked the highest in the final BCS standings prior to the Championship Game .'
p11
ss.