(dp1
S'input'
p2
(dp3
S'encoded'
p4
(lp5
I64
aI2179
aI394
aI4261
aI8667
aI3
aI9361
aI5
aI17069
asS'ori'
p6
S'This house would prohibit burning the stars and stripes'
p7
ssS'output'
p8
(dp9
g4
(lp10
I3
aI3357
aI7
aI3
aI2483
aI415
aI462
aI41
aI89
aI726
aI752
aI60
aI3
aI2471
aI3357
aI441
aI75
aI3520
aI8844
aI63765
aI3483
aI1093
aI63765
asg6
S'The opinion of the court came down as a controversial 5-4 decision  with the majority opinion written by William J . Brennan  Jr .'
p11
ss.