(dp1
S'input'
p2
(dp3
S'encoded'
p4
(lp5
I64
aI2179
aI43
aI63
aI2157
aI2565
aI493
aI19084
aI382
aI4850
asS'ori'
p6
S"This house believes that Israel's 2008-2009 military operations against Gaza were justified"
p7
ssS'output'
p8
(dp9
g4
(lp10
I3
aI2217
aI976
aI4769
aI7
aI3
aI6054
aI53813
aI5468
aI4717
aI89
aI2130
aI7
aI5590
aI45
aI4823
aI45
aI3
aI19389
aI905
aI92
aI3313
aI1545
aI41
aI419
aI45
aI282
aI793
aI63765
asg6
S'The chief legal officer of the IDF  Pnina Sharvit-Baruch  advocated establishing a commission of inquiry to respond to the Goldstone report  which she described as "very  very damaging" to Israel\'s international standing .'
p11
ss.