(dp1
S'input'
p2
(dp3
S'encoded'
p4
(lp5
I64
aI2179
aI43
aI223
aI2138
aI11
aI89
aI21
aI45
aI2185
aI372
asS'ori'
p6
S'This house believes all nations have a right to nuclear weapons'
p7
ssS'output'
p8
(dp9
g4
(lp10
I24
aI3
aI320
aI1592
aI89
aI22749
aI7
aI3
aI2185
aI834
aI4226
aI89
aI939
aI2185
aI2349
aI910
aI5461
aI63765
asg6
S'In the early 1980s  following a revival of the nuclear arms race  a popular nuclear disarmament movement emerged  .'
p11
ss.