(dp1
S'input'
p2
(dp3
S'encoded'
p4
(lp5
I64
aI2179
aI43
aI63
aI11083
aI10046
aI417
aI316
aI89
aI3135
aI4603
asS'ori'
p6
S'This house believes that Holocaust denial should be a criminal offence'
p7
ssS'output'
p8
(dp9
g4
(lp10
I134
aI2056
aI2538
aI88
aI64
aI238
aI53
aI3
aI10782
aI36119
aI1980
aI3495
aI5
aI3862
aI89
aI2471
aI7
aI86
aI4307
aI19
aI4066
aI1565
aI2203
aI316
aI13424
aI34
aI8269
aI89
aI5454
aI7
aI8631
aI5
aI7
aI1712
aI63765
asg6
S'It now says  May this place where the Nazis assassinated 1 500 000 men  women and children  a majority of them Jews from diverse European countries  be forever for mankind a cry of despair and of warning .'
p11
ss.