(dp1
S'input'
p2
(dp3
S'encoded'
p4
(lp5
I64
aI2179
aI43
aI63
aI3376
aI4938
aI417
aI316
aI3537
asS'ori'
p6
S'This house believes that endangered species should be protected'
p7
ssS'output'
p8
(dp9
g4
(lp10
I134
aI3012
aI4938
aI63
aI83
aI316
aI3537
aI604
aI155
aI88
aI316
aI2874
aI75
aI7798
aI63765
asg6
S'It defines species that must be protected because they may be threatened by extinction .'
p11
ss.