(dp1
S'input'
p2
(dp3
S'encoded'
p4
(lp5
I64
aI2179
aI394
aI2017
aI3807
aI314
aI3433
asS'ori'
p6
S'This house would ban partial birth abortions'
p7
ssS'output'
p8
(dp9
g4
(lp10
I3
aI4757
aI122
aI1607
aI45
aI657
aI703
aI75
aI89
aI5018
aI479
aI3
aI918
aI7
aI4427
aI3257
aI14
aI3211
aI3613
aI75
aI3
aI5019
aI3061
aI2365
aI63765
aI5020
aI5
aI495
aI5021
aI63765
asg6
S'The suggestion was brought to widespread attention by a 1999 academic paper  The Impact of Legalized Abortion on Crime  authored by the economists Steven D . Levitt and John Donohue .'
p11
ss.