(dp1
S'input'
p2
(dp3
S'encoded'
p4
(lp5
I64
aI2179
aI394
aI3830
aI3
aI475
aI7
aI9441
aI13132
aI3102
aI24
aI276
aI381
asS'ori'
p6
S'This house would permit the use of performance enhancing drugs in professional sports'
p7
ssS'output'
p8
(dp9
g4
(lp10
I100
aI147
aI23339
aI3
aI580
aI7
aI3
aI2550
aI2209
aI63
aI717
aI14
aI128
aI7
aI678
aI3
aI20780
aI417
aI316
aI217
aI2942
aI14
aI8685
aI63765
asg6
S"Some individuals contemplating the nature of the DEA's charter advise that  based on order of popularity  the DEA should be most focused on marijuana ."
p11
ss.