(dp1
S'input'
p2
(dp3
S'encoded'
p4
(lp5
I64
aI2179
aI43
aI63
aI3
aI4538
aI7
aI4434
aI7793
aI283
aI45
aI3586
aI417
aI316
aI577
asS'ori'
p6
S'This house believes that the sale of violent video games to minors should be banned'
p7
ssS'output'
p8
(dp9
g4
(lp10
I357
aI174
aI3478
aI45
aI2572
aI26597
aI7217
aI221
aI75
aI17092
aI1191
aI3
aI2210
aI7
aI7793
aI283
aI24
aI271
aI4830
aI5
aI3
aI8996
aI7
aI5046
aI63765
asg6
S"We also wanted to share insightful comments made by teens about the role of video games in their lives  and the specifics of parents' concerns ."
p11
ss.