(dp1
S'input'
p2
(dp3
S'encoded'
p4
(lp5
I64
aI2179
aI43
aI63
aI2203
aI60
aI51
aI997
aI2837
aI21716
aI1636
aI5349
aI417
aI2998
aI8532
aI45
aI3051
aI8578
asS'ori'
p6
S'This house believes that countries with an imbalanced male/female ratio skewed towards males should encourage parents to produce girls'
p7
ssS'output'
p8
(dp9
g4
(lp10
I24
aI51
aI2705
aI2035
aI2566
aI864
aI589
aI7
aI11389
aI2837
aI311
aI314
aI24
aI3
aI626
aI187
aI19
aI289
aI2439
aI5023
aI350
aI3017
aI3
aI34
aI3534
aI206
aI271
aI237
aI4906
aI3
aI697
aI11389
aI2837
aI311
aI314
aI122
aI164
aI60
aI100
aI2439
aI311
aI63765
asg6
S'In an extensive study  carried out around 2005  of sex ratio at birth in the United States from 1940 over 62 years  statistical evidence suggested the following: For mothers having their first baby  the total sex ratio at birth was 1 .06 overall  with some years at 1 .07 .'
p11
ss.