(dp1
S'input'
p2
(dp3
S'encoded'
p4
(lp5
I64
aI2179
aI394
aI2017
aI223
aI9058
aI23653
asS'ori'
p6
S'This house would ban all unsustainable logging'
p7
ssS'output'
p8
(dp9
g4
(lp10
I146
aI89
aI1277
aI5
aI511
aI45
aI6849
aI2456
aI655
aI11533
aI63
aI620
aI357
aI88
aI994
aI1476
aI10662
aI5
aI1292
aI2148
aI6694
aI311
aI4509
aI5084
aI41
aI572
aI41
aI357
aI84
aI1021
aI404
aI7
aI3
aI2446
aI5
aI19102
aI7
aI10070
aI78
aI5
aI2083
aI5269
aI7797
aI5
aI7826
aI3205
aI1887
aI12413
aI2760
aI8254
aI2203
aI1797
aI45
aI2456
aI1546
aI63765
asg6
S'REDD+ provides a key and cost-effective opportunity to mitigate climate change: FD4 participants reaffirmed that through REDD+ we may significantly reduce  remove and avoid global emissions at reasonable cost  as long as we take due account of the rights and livelihoods of indigenous people and local communities  biodiversity and ecosystem services  whilst assisting developing forest countries adapt to climate change .'
p11
ss.