(dp1
S'input'
p2
(dp3
S'encoded'
p4
(lp5
I64
aI2179
aI394
aI5370
aI223
aI4013
aI10440
aI2446
aI4881
aI75
aI14482
aI11004
asS'ori'
p6
S'This house would abolish all collective bargaining rights claimed by trades unions'
p7
ssS'output'
p8
(dp9
g4
(lp10
I9452
aI174
aI154
aI134
aI1694
aI45
aI23810
aI3
aI3396
aI79
aI7
aI89
aI12616
aI2131
aI63765
asg6
S'Employers also find it easier to outsource the struck work of a craft union  .'
p11
ss.