(dp1
S'input'
p2
(dp3
S'encoded'
p4
(lp5
I64
aI2179
aI43
aI63
aI2157
aI2565
aI493
aI19084
aI382
aI4850
asS'ori'
p6
S"This house believes that Israel's 2008-2009 military operations against Gaza were justified"
p7
ssS'output'
p8
(dp9
g4
(lp10
I89
aI16619
aI878
aI551
aI63
aI2659
aI55
aI3
aI75
aI1889
aI5792
aI5354
aI1444
aI63765
asg6
S'A Hamas official declared that Israel has "crossed the line" by attacking Ismail Haniye\'s office building  .'
p11
ss.