(dp1
S'input'
p2
(dp3
S'encoded'
p4
(lp5
I64
aI2179
aI43
aI17
aI4941
aI857
aI3211
asS'ori'
p6
S'This house believes social deprivation causes crime'
p7
ssS'output'
p8
(dp9
g4
(lp10
I217
aI78
aI1453
aI99
aI2383
aI45
aI867
aI45
aI79
aI131
aI155
aI1453
aI604
aI155
aI1192
aI3481
aI45
aI3322
aI3964
aI1495
aI8125
aI5
aI11436
aI63765
asg6
S'Most people do not want to go to work  but they do  because they get paid  to obtain food  water  shelter  and clothing .'
p11
ss.