(dp1
S'input'
p2
(dp3
S'encoded'
p4
(lp5
I64
aI2179
aI43
aI63
aI2157
aI2565
aI493
aI19084
aI382
aI4850
asS'ori'
p6
S"This house believes that Israel's 2008-2009 military operations against Gaza were justified"
p7
ssS'output'
p8
(dp9
g4
(lp10
I5424
aI47844
aI93
aI7
aI3
aI7
aI3
aI9596
aI2244
aI1237
aI682
aI905
aI1153
aI4659
aI63765
asg6
S'Howard Berman  one of the co-sponsors of the resolution  expressed several concerns:*The commissions report lacks context .'
p11
ss.