(dp1
S'input'
p2
(dp3
S'encoded'
p4
(lp5
I64
aI2179
aI394
aI5284
aI150
aI3987
asS'ori'
p6
S'This house would reintroduce national service'
p7
ssS'output'
p8
(dp9
g4
(lp10
I41
aI93
aI7
aI7
aI42
aI174
aI373
aI89
aI5409
aI24
aI667
aI2086
aI4996
aI5
aI10
aI3296
aI63765
asg6
S'As one of Harlem\'s "Gang of Four"  he also became a leader in New York City and State politics .'
p11
ss.