(dp1
S'input'
p2
(dp3
S'encoded'
p4
(lp5
I64
aI2179
aI394
aI2998
aI3
aI4360
aI7
aI3249
aI6804
aI24
aI3
aI102
asS'ori'
p6
S'This house would encourage the creation of private universities in the UK'
p7
ssS'output'
p8
(dp9
g4
(lp10
I3
aI237
aI9366
aI7
aI89
aI9178
aI394
aI174
aI24
aI3
aI237
aI6396
aI687
aI89
aI17630
aI34
aI3
aI6225
aI45
aI6849
aI7008
aI7
aI63765
asg6
S'The first tranche of a multi-step privatization would also in the first instance establish a valuation for the enterprise to mitigate complaints of under-pricing .'
p11
ss.