(dp1
S'input'
p2
(dp3
S'encoded'
p4
(lp5
I64
aI2179
aI43
aI8629
aI116
aI3
aI117
aI998
asS'ori'
p6
S'This house believes atheism is the only way'
p7
ssS'output'
p8
(dp9
g4
(lp10
I3
aI8746
aI143
aI227
aI9068
aI45
aI3446
aI6002
aI3950
aI5
aI638
aI3
aI5755
aI63765
asg6
S'The witness argument gives credibility to personal witnesses  contemporary and throughout the ages .'
p11
ss.