(dp1
S'input'
p2
(dp3
S'encoded'
p4
(lp5
I64
aI2179
aI394
aI16756
aI20435
asS'ori'
p6
S'This house would criminalize blasphemy'
p7
ssS'output'
p8
(dp9
g4
(lp10
I357
aI133
aI134
aI948
aI443
aI3014
aI248
aI138
aI45
aI521
aI4603
aI63765
asg6
S'We believe it serves no purpose other than to cause offence .'
p11
ss.