(dp1
S'input'
p2
(dp3
S'encoded'
p4
(lp5
I64
aI2179
aI394
aI60
aI23587
asS'ori'
p6
S'This house would re-engage with Myanmar'
p7
ssS'output'
p8
(dp9
g4
(lp10
I395
aI24
aI3
aI1379
aI273
aI382
aI2962
aI7
aI311
aI870
aI292
aI6655
aI16983
aI5
aI93
aI3833
aI2523
aI3178
aI24
aI3
aI12073
aI75
aI2702
aI2219
aI24
aI31858
aI298
aI5806
aI7
aI78
aI2425
aI75
aI6655
aI16983
aI634
aI271
aI8672
aI493
aI3
aI2157
aI6073
aI63765
asg6
S'Later in the day there were reports of at least three Buddhist monks and one woman confirmed killed in the firing by security forces in Yangon when thousands of people led by Buddhist monks continued their protest against the military junta  .'
p11
ss.