(dp1
S'input'
p2
(dp3
S'encoded'
p4
(lp5
I64
aI2179
aI394
aI3830
aI3
aI475
aI7
aI9441
aI13132
aI3102
aI24
aI276
aI381
asS'ori'
p6
S'This house would permit the use of performance enhancing drugs in professional sports'
p7
ssS'output'
p8
(dp9
g4
(lp10
I2900
aI7
aI20031
aI26606
aI1401
aI270
aI12269
aI41
aI500
aI2900
aI7
aI598
aI26606
aI63765
asg6
S'16 .3 percent of offensive linemen admitted using steroids  as did 14 .8 percent of defensive linemen  .'
p11
ss.