(dp1
S'input'
p2
(dp3
S'encoded'
p4
(lp5
I64
aI2179
aI43
aI63
aI2659
aI417
aI1690
aI3
aI12048
aI7
aI19084
asS'ori'
p6
S'This house believes that Israel should lift the blockade of Gaza'
p7
ssS'output'
p8
(dp9
g4
(lp10
I24
aI320
aI2927
aI2674
aI19153
aI5
aI1528
aI31195
aI75
aI3
aI6054
aI2425
aI45
aI3
aI457
aI7
aI289
aI16618
aI5
aI2705
aI960
aI45
aI31133
aI63765
asg6
S'In early March 2008  air strikes and ground incursions by the IDF led to the deaths of over 110 Palestinians and extensive damage to Jabalia  .'
p11
ss.