(dp1
S'input'
p2
(dp3
S'encoded'
p4
(lp5
I64
aI2179
aI394
aI5370
aI7146
aI4585
aI2446
asS'ori'
p6
S'This house would abolish intellectual property rights'
p7
ssS'output'
p8
(dp9
g4
(lp10
I24
aI5669
aI5
aI6313
aI323
aI3
aI2497
aI3701
aI401
aI45
aI1413
aI63765
asg6
S'In medieval and Renaissance Europe the term "property" essentially referred to land .'
p11
ss.