(dp1
S'input'
p2
(dp3
S'encoded'
p4
(lp5
I64
aI2179
aI43
aI63
aI6670
aI546
aI417
aI316
aI89
aI1334
aI3108
aI7
aI4849
aI1886
aI2855
asS'ori'
p6
S'This house believes that wind power should be a primary focus of future energy supply'
p7
ssS'output'
p8
(dp9
g4
(lp10
I89
aI282
aI1886
aI2904
aI3795
aI1340
aI5136
aI34
aI17162
aI6717
aI41
aI89
aI6424
aI7
aI2572
aI7
aI697
aI4204
aI34
aI1237
aI2203
aI41
aI24
aI145
aI3099
aI5136
aI9093
aI4386
aI6716
aI34
aI5
aI6670
aI2572
aI63765
asg6
S"A 2006 International Energy Agency forum presented costs for managing intermittency as a function of wind-energy's share of total capacity for several countries  as shown:Increase in system operation costs  Euros per MWh  for 10% and 20% wind share  ."
p11
ss.