(dp1
S'input'
p2
(dp3
S'encoded'
p4
(lp5
I64
aI2179
aI43
aI63
aI6670
aI546
aI417
aI316
aI89
aI1334
aI3108
aI7
aI4849
aI1886
aI2855
asS'ori'
p6
S'This house believes that wind power should be a primary focus of future energy supply'
p7
ssS'output'
p8
(dp9
g4
(lp10
I5681
aI17181
aI182
aI89
aI2878
aI7
aI915
aI1260
aI6844
aI5
aI6806
aI1886
aI63765
asg6
S'Coastal tides are a source of clean  free  renewable  and sustainable energy  .'
p11
ss.