(dp1
S'input'
p2
(dp3
S'encoded'
p4
(lp5
I64
aI2179
aI43
aI63
aI2157
aI2565
aI493
aI19084
aI382
aI4850
asS'ori'
p6
S"This house believes that Israel's 2008-2009 military operations against Gaza were justified"
p7
ssS'output'
p8
(dp9
g4
(lp10
I3
aI905
aI2697
aI211
aI877
aI14
aI3
aI14442
aI63
aI3
aI3874
aI7473
aI7
aI89
aI460
aI89
aI5615
aI5
aI51
aI15429
aI3833
aI5
aI292
aI1488
aI8578
aI100
aI7
aI86
aI11410
aI965
aI20068
aI3422
aI864
aI7
aI3
aI2179
aI5
aI9930
aI637
aI34
aI1237
aI571
aI3597
aI34
aI16518
aI19
aI3
aI2377
aI63765
asg6
S'The report bases its conclusion on the premise that the family  consisting of a man  a young and an elderly woman and three small girls  some of them waving white flags  stepped out of the house and stood still for several minutes waiting for instructions from the soldiers  .'
p11
ss.