(dp1
S'input'
p2
(dp3
S'encoded'
p4
(lp5
I64
aI2179
aI43
aI17
aI4941
aI857
aI3211
asS'ori'
p6
S'This house believes social deprivation causes crime'
p7
ssS'output'
p8
(dp9
g4
(lp10
I9067
aI63
aI182
aI2174
aI470
aI6365
aI3
aI5031
aI5101
aI7
aI17076
aI3211
aI2722
aI5
aI13185
aI64
aI419
aI521
aI63765
asg6
S'Statistics that are mentioned below explain the peak hours of juvenile crime rates and conceptualize this very cause .'
p11
ss.