(dp1
S'input'
p2
(dp3
S'encoded'
p4
(lp5
I64
aI2179
aI13605
aI2258
aI45
aI2194
asS'ori'
p6
S'This house prefers trade to aid'
p7
ssS'output'
p8
(dp9
g4
(lp10
I257
aI357
aI9331
aI45
aI6726
aI130
aI357
aI83
aI13043
aI40
aI357
aI13926
aI3592
aI5
aI40
aI357
aI1274
aI251
aI63765
asg6
S'If we hope to eliminate poverty  we must reexamine how we distribute funding  and how we attack problems .'
p11
ss.