(dp1
S'input'
p2
(dp3
S'encoded'
p4
(lp5
I64
aI2179
aI43
aI17
aI4941
aI857
aI3211
asS'ori'
p6
S'This house believes social deprivation causes crime'
p7
ssS'output'
p8
(dp9
g4
(lp10
I3168
aI116
aI508
aI7166
aI75
aI1420
aI4592
aI289
aI18593
aI5
aI4592
aI289
aI3
aI21104
aI7
aI3665
aI5
aI2904
aI41
aI261
aI41
aI4592
aI4955
aI45
aI248
aI2378
aI1277
aI8257
aI24
aI3
aI17
aI4372
aI59075
aI5
aI7984
aI24
aI448
aI63765
asg6
S'Theory is thus informed by historical debates over positivism  and anti-positivism  debates over the primacy of structure and agency  as well as debates relating to other fundamental key concepts in the social sciences  biogenetics and humanities in general (e .g .'
p11
ss.