(dp1
S'input'
p2
(dp3
S'encoded'
p4
(lp5
I64
aI2179
aI394
aI16756
aI20435
asS'ori'
p6
S'This house would criminalize blasphemy'
p7
ssS'output'
p8
(dp9
g4
(lp10
I24
aI3
aI845
aI7
aI2767
aI24455
aI640
aI375
aI63765
asg6
S'In 2008  the issue of religious sensibilities arose again .'
p11
ss.