(dp1
S'input'
p2
(dp3
S'encoded'
p4
(lp5
I64
aI2179
aI43
aI63
aI2659
aI417
aI1690
aI3
aI12048
aI7
aI19084
asS'ori'
p6
S'This house believes that Israel should lift the blockade of Gaza'
p7
ssS'output'
p8
(dp9
g4
(lp10
I3
aI24858
aI4160
aI174
aI695
aI717
aI14
aI15
aI5
aI3899
aI63
aI24997
aI24998
aI89
aI1560
aI4278
aI7
aI5757
aI7292
aI5
aI863
aI5757
aI2144
aI382
aI3178
aI14
aI88
aI14
aI3
aI19190
aI19191
aI10318
aI75
aI3
aI6056
aI19187
aI63765
asg6
S'The UNHRC fact-finding mission also determined based on both "forensic and firearm evidence" that Furkan Dogan  a 19-year-old American citizen of Turkish descent  and five Turkish citizens were killed execution-style on May 31 on the MV Mavi Marmara by the Israeli commandos .'
p11
ss.