(dp1
S'input'
p2
(dp3
S'encoded'
p4
(lp5
I64
aI2179
aI394
aI5370
aI7146
aI4585
aI2446
asS'ori'
p6
S'This house would abolish intellectual property rights'
p7
ssS'output'
p8
(dp9
g4
(lp10
I1972
aI64
aI306
aI24210
aI24
aI3
aI619
aI7
aI3
aI24211
aI306
aI16784
aI5
aI24212
aI16538
aI3
aI419
aI24211
aI306
aI63
aI116
aI311
aI3
aI3565
aI7
aI223
aI4585
aI2446
aI63765
asg6
S'Clearly  this rule flies in the face of the first-user homesteading rule  arbitrarily and groundlessly overriding the very homesteading rule that is at the foundation of all property rights  .'
p11
ss.