(dp1
S'input'
p2
(dp3
S'encoded'
p4
(lp5
I64
aI2179
aI43
aI63
aI3
aI4990
aI4991
aI116
aI4850
aI24
aI12166
aI3
aI475
aI7
aI3532
aI3290
aI7
aI4714
asS'ori'
p6
S'This house believes that the Catholic Church is justified in forbidding the use of barrier methods of contraception'
p7
ssS'output'
p8
(dp9
g4
(lp10
I3
aI21598
aI7348
aI73
aI3
aI10381
aI45901
aI182
aI1112
aI1795
aI258
aI4837
aI45902
aI116
aI3589
aI63765
asg6
S'The dental dam or the plastic wrap are effective protection means whenever anilingus is performed .'
p11
ss.