(dp1
S'input'
p2
(dp3
S'encoded'
p4
(lp5
I64
aI2179
aI394
aI5284
aI150
aI3987
asS'ori'
p6
S'This house would reintroduce national service'
p7
ssS'output'
p8
(dp9
g4
(lp10
I3
aI1051
aI7
aI5647
aI5755
aI34
aI5828
aI122
aI135
aI45
aI4726
aI150
aI3497
aI397
aI3
aI285
aI2285
aI63765
asg6
S'The range of eligible ages for conscripting was expanded to meet national demand during the World Wars .'
p11
ss.