(dp1
S'input'
p2
(dp3
S'encoded'
p4
(lp5
I64
aI2179
aI43
aI63
aI3376
aI4938
aI417
aI316
aI3537
asS'ori'
p6
S'This house believes that endangered species should be protected'
p7
ssS'output'
p8
(dp9
g4
(lp10
I985
aI298
aI3
aI7798
aI73
aI2838
aI24
aI93
aI23107
aI3
aI248
aI159
aI41
aI24
aI4975
aI5
aI18855
aI63765
asg6
S'Co-extinction occurs when the extinction or decline in one accompanies the other  such as in plants and beetles  .'
p11
ss.