(dp1
S'input'
p2
(dp3
S'encoded'
p4
(lp5
I64
aI2179
aI394
aI2773
aI12505
asS'ori'
p6
S'This house would embrace multiculturalism'
p7
ssS'output'
p8
(dp9
g4
(lp10
I575
aI3
aI1848
aI7
aI78
aI7
aI12410
aI6449
aI24
aI5933
aI63
aI3975
aI4753
aI47
aI163
aI86
aI89
aI2471
aI100
aI186
aI63
aI417
aI443
aI593
aI316
aI513
aI3
aI2471
aI63765
asg6
S'Given the shift of people of color growing in size that trends indicate will make them a majority  some argue that Caucasian-Americans should no longer be considered the majority .'
p11
ss.