(dp1
S'input'
p2
(dp3
S'encoded'
p4
(lp5
I64
aI2179
aI394
aI2773
aI12505
asS'ori'
p6
S'This house would embrace multiculturalism'
p7
ssS'output'
p8
(dp9
g4
(lp10
I378
aI100
aI2478
aI11
aI2244
aI3
aI234
aI63
aI3
aI217
aI4885
aI3173
aI34
aI626
aI187
aI3905
aI5
aI2202
aI139
aI316
aI353
aI1831
aI24
aI89
aI11683
aI7
aI100
aI7
aI3
aI8257
aI5
aI7208
aI423
aI24
aI3
aI19853
aI11644
aI18438
aI5
aI4471
aI63765
asg6
S'However  some scholars have expressed the view that the most accurate explanation for modern-day United States culture and inter-ethnic relations can be found somewhere in a fusion of some of the concepts and ideas contained in the melting pot  assimilation  and Anglo-conformity models .'
p11
ss.