(dp1
S'input'
p2
(dp3
S'encoded'
p4
(lp5
I64
aI2179
aI43
aI63
aI134
aI116
aI400
aI21
aI34
aI3
aI260
aI45
aI3439
aI57
aI7
aI2381
asS'ori'
p6
S'This house believes that it is sometimes right for the government to restrict freedom of speech'
p7
ssS'output'
p8
(dp9
g4
(lp10
I3739
aI81
aI1762
aI51
aI32994
aI116
aI32995
aI13424
aI19
aI8414
aI3739
aI63
aI3
aI4265
aI5953
aI362
aI113
aI257
aI271
aI3914
aI55
aI1719
aI12
aI221
aI658
aI63765
asg6
S'Anyone who receives an NSL is gagged - forever - from telling anyone that the FBI demanded records  even if their identity has already been made public .'
p11
ss.