(dp1
S'input'
p2
(dp3
S'encoded'
p4
(lp5
I64
aI2179
aI43
aI223
aI2138
aI11
aI89
aI21
aI45
aI2185
aI372
asS'ori'
p6
S'This house believes all nations have a right to nuclear weapons'
p7
ssS'output'
p8
(dp9
g4
(lp10
I27542
aI2185
aI546
aI5136
aI89
aI12663
aI7
aI64
aI7960
aI2046
aI55
aI4630
aI7442
aI7
aI12757
aI11695
aI11694
aI63765
asg6
S'Harnessing nuclear power costs a fraction of this  considering Iran has abundant supplies of accessible uranium ore  .'
p11
ss.