(dp1
S'input'
p2
(dp3
S'encoded'
p4
(lp5
I64
aI2179
aI235
aI3
aI2136
aI7
aI3
aI2306
aI7
aI2390
asS'ori'
p6
S'This house supports the one-child policy of the republic of China'
p7
ssS'output'
p8
(dp9
g4
(lp10
I3
aI8700
aI2396
aI17800
aI60
aI89
aI1629
aI7
aI3073
aI14
aI3665
aI13874
aI5
aI4699
aI2722
aI5
aI2598
aI11794
aI5
aI5200
aI63765
asg6
S"The census provided demographers with a set of data on China's age-sex structure  fertility and mortality rates  and population density and distribution ."
p11
ss.