(dp1
S'input'
p2
(dp3
S'encoded'
p4
(lp5
I64
aI2179
aI43
aI63
aI3376
aI4938
aI417
aI316
aI3537
asS'ori'
p6
S'This house believes that endangered species should be protected'
p7
ssS'output'
p8
(dp9
g4
(lp10
I273
aI182
aI174
aI4249
aI21032
aI24
aI3
aI910
aI946
aI24
aI3
aI626
aI2549
aI63765
asg6
S'There are also anarchist currents in the movement  especially in the United Kingdom .'
p11
ss.