(dp1
S'input'
p2
(dp3
S'encoded'
p4
(lp5
I64
aI2179
aI394
aI2998
aI3
aI4360
aI7
aI3249
aI6804
aI24
aI3
aI102
asS'ori'
p6
S'This house would encourage the creation of private universities in the UK'
p7
ssS'output'
p8
(dp9
g4
(lp10
I276
aI24
aI64
aI1780
aI116
aI8994
aI45
aI89
aI5508
aI63
aI1647
aI3718
aI45
aI3
aI2145
aI63765
aI2221
aI24
aI1809
aI7
aI206
aI89
aI1445
aI532
aI7
aI705
aI2789
aI5
aI2158
aI136
aI413
aI24
aI9621
aI63765
asg6
S'Professional in this situation is referring to a legislature that acts similarly to the U .S . Congress in terms of having a large amount of staff members and spending more time in session .'
p11
ss.