(dp1
S'input'
p2
(dp3
S'encoded'
p4
(lp5
I64
aI2179
aI394
aI2017
aI262
asS'ori'
p6
S'This house would ban boxing'
p7
ssS'output'
p8
(dp9
g4
(lp10
I89
aI484
aI116
aI263
aI51
aI38519
aI484
aI73
aI89
aI1553
aI63765
asg6
S'A left-handed boxer is called an unorthodox boxer or a Southpaw .'
p11
ss.