(dp1
S'input'
p2
(dp3
S'encoded'
p4
(lp5
I64
aI2179
aI43
aI63
aI2157
aI2565
aI493
aI19084
aI382
aI4850
asS'ori'
p6
S"This house believes that Israel's 2008-2009 military operations against Gaza were justified"
p7
ssS'output'
p8
(dp9
g4
(lp10
I3
aI9596
aI263
aI14
aI3
aI2544
aI187
aI45
aI3497
aI3
aI2877
aI7
aI5572
aI5
aI7164
aI34
aI223
aI844
aI7
aI282
aI70
aI158
aI3326
aI2223
aI4212
aI63765
asg6
S'The resolution called on the bloc\'s member states to "publicly demand the implementation of [the report\'s] recommendations and accountability for all violations of international law  including alleged war crimes .'
p11
ss.