(dp1
S'input'
p2
(dp3
S'encoded'
p4
(lp5
I64
aI2179
aI43
aI8629
aI116
aI3
aI117
aI998
asS'ori'
p6
S'This house believes atheism is the only way'
p7
ssS'output'
p8
(dp9
g4
(lp10
I8620
aI4655
aI25
aI234
aI63
aI357
aI1068
aI2382
aI45
aI6365
aI4588
aI5
aI257
aI7094
aI134
aI1032
aI4712
aI24
aI3
aI998
aI63765
asg6
S"Curry explains his view that we don't need religion to explain morality and if anything it simply gets in the way ."
p11
ss.