(dp1
S'input'
p2
(dp3
S'encoded'
p4
(lp5
I64
aI2179
aI43
aI8629
aI116
aI3
aI117
aI998
asS'ori'
p6
S'This house believes atheism is the only way'
p7
ssS'output'
p8
(dp9
g4
(lp10
I75
aI1035
aI165
aI7
aI2793
aI2767
aI2428
aI5059
aI5480
aI41
aI89
aI972
aI423
aI24
aI1928
aI21738
aI8164
aI63765
asg6
S'By contrast  much of Eastern religious thought (chiefly Pantheist) posits God as a force contained in every imaginable phenomenon .'
p11
ss.