(dp1
S'input'
p2
(dp3
S'encoded'
p4
(lp5
I64
aI2179
aI394
aI4325
aI2042
aI270
aI89
aI11605
aI3324
asS'ori'
p6
S'This house would fund education using a voucher scheme'
p7
ssS'output'
p8
(dp9
g4
(lp10
I42
aI235
aI51
aI3226
aI24
aI3
aI151
aI152
aI45
aI51
aI315
aI45
aI1985
aI6941
aI569
aI738
aI34
aI271
aI63765
asg6
S'He supports an increase in the minimum wage to $10 an hour to give low-wage workers "a fair return for their work"  .'
p11
ss.