(dp1
S'input'
p2
(dp3
S'encoded'
p4
(lp5
I64
aI2179
aI43
aI63
aI2659
aI417
aI1690
aI3
aI12048
aI7
aI19084
asS'ori'
p6
S'This house believes that Israel should lift the blockade of Gaza'
p7
ssS'output'
p8
(dp9
g4
(lp10
I2659
aI706
aI3
aI19084
aI966
aI375
aI734
aI24
aI2116
aI366
aI3
aI2223
aI63765
asg6
S'Israel controlled the Gaza Strip again beginning in June 1967  after the Six-Day War .'
p11
ss.