(dp1
S'input'
p2
(dp3
S'encoded'
p4
(lp5
I64
aI2179
aI394
aI5284
aI150
aI3987
asS'ori'
p6
S'This house would reintroduce national service'
p7
ssS'output'
p8
(dp9
g4
(lp10
I3
aI5615
aI2548
aI7
aI5714
aI122
aI311
aI3
aI19018
aI60
aI725
aI3386
aI5786
aI17124
aI34
aI5999
aI3
aI5262
aI5
aI271
aI5409
aI21812
aI27897
aI122
aI11201
aI45
aI2503
aI7568
aI34
aI27898
aI5262
aI5904
aI63765
asg6
S'The young Nation of Islam was at the forefront  with many Black Muslims jailed for refusing the draft  and their leader Elijah Muhammed was sentenced to federal prison for inciting draft resistance .'
p11
ss.