(dp1
S'input'
p2
(dp3
S'encoded'
p4
(lp5
I64
aI2179
aI43
aI63
aI2659
aI417
aI1690
aI3
aI12048
aI7
aI19084
asS'ori'
p6
S'This house believes that Israel should lift the blockade of Gaza'
p7
ssS'output'
p8
(dp9
g4
(lp10
I2657
aI4881
aI1237
aI976
aI16523
aI34
aI5999
aI2659
aI475
aI7
aI3
aI10287
aI2315
aI158
aI3
aI21
aI7
aI63765
asg6
S'Egypt claimed several legal justifications for refusing Israel use of the Suez Canal  including the right of self-defence .'
p11
ss.