(dp1
S'input'
p2
(dp3
S'encoded'
p4
(lp5
I64
aI2179
aI43
aI63
aI2659
aI417
aI1690
aI3
aI12048
aI7
aI19084
asS'ori'
p6
S'This house believes that Israel should lift the blockade of Gaza'
p7
ssS'output'
p8
(dp9
g4
(lp10
I233
aI45
aI89
aI17110
aI10541
aI2659
aI19292
aI19103
aI19
aI3
aI2674
aI226
aI2657
aI843
aI19293
aI8570
aI18104
aI1495
aI73
aI19294
aI8766
aI45
aI11955
aI3
aI19103
aI63765
asg6
S'According to a tunnel operator  Israel bombards tunnels from the air  while Egypt either pumps poisonous gases  water or detonates explosives to destroy the tunnels .'
p11
ss.