(dp1
S'input'
p2
(dp3
S'encoded'
p4
(lp5
I64
aI2179
aI394
aI2017
aI262
asS'ori'
p6
S'This house would ban boxing'
p7
ssS'output'
p8
(dp9
g4
(lp10
I3
aI237
aI285
aI275
aI262
aI286
aI382
aI23558
aI24
aI63765
asg6
S'The first World Amateur Boxing Championships were staged in 1974  .'
p11
ss.