(dp1
S'input'
p2
(dp3
S'encoded'
p4
(lp5
I64
aI2179
aI394
aI2773
aI12505
asS'ori'
p6
S'This house would embrace multiculturalism'
p7
ssS'output'
p8
(dp9
g4
(lp10
I3
aI3991
aI2804
aI14
aI2637
aI2768
aI116
aI89
aI2804
aI1515
aI75
aI3
aI448
aI2333
aI7
aI3
aI626
aI2138
aI5207
aI3863
aI5
aI2637
aI2134
aI311
aI211
aI9621
aI14
aI1906
aI63765
asg6
S'The Universal Declaration on Cultural Diversity is a declaration adopted by the General Conference of the United Nations Educational  Scientific and Cultural Organization (UNESCO) at its thirty-first session on 2 November 2001  .'
p11
ss.