(dp1
S'input'
p2
(dp3
S'encoded'
p4
(lp5
I64
aI2179
aI394
aI190
aI3
aI21
aI45
aI3895
aI834
asS'ori'
p6
S'This house would limit the right to bear arms'
p7
ssS'output'
p8
(dp9
g4
(lp10
I17340
aI860
aI60
aI1374
aI182
aI292
aI1727
aI41
aI1856
aI45
aI296
aI24
aI6688
aI2449
aI60
aI17340
aI53
aI248
aI372
aI382
aI416
aI60
aI570
aI6809
aI24
aI3052
aI7
aI3874
aI2617
asg6
S'Robberies committed with guns are three times as likely to result in fatalities compared with robberies where other weapons were used  with similar patterns in cases of family violence '
p11
ss.