(dp1
S'input'
p2
(dp3
S'encoded'
p4
(lp5
I64
aI2179
aI43
aI63
aI134
aI116
aI400
aI21
aI34
aI3
aI260
aI45
aI3439
aI57
aI7
aI2381
asS'ori'
p6
S'This house believes that it is sometimes right for the government to restrict freedom of speech'
p7
ssS'output'
p8
(dp9
g4
(lp10
I217
aI7
aI132
aI6763
aI11698
aI7147
aI17047
aI5
aI2935
aI22879
aI63
aI6310
aI89
aI1341
aI3924
aI63765
asg6
S'Most of these sites contain Internet forums and news briefs that emphasize a particular viewpoint .'
p11
ss.