(dp1
S'input'
p2
(dp3
S'encoded'
p4
(lp5
I64
aI2179
aI43
aI24
aI3
aI475
aI7
aI12436
aI3364
asS'ori'
p6
S'This house believes in the use of affirmative action'
p7
ssS'output'
p8
(dp9
g4
(lp10
I3572
aI18459
aI89
aI2136
aI45
aI2998
aI3
aI3262
aI63765
asg6
S'Washington formulated a policy to encourage the "civilizing" process  .'
p11
ss.