(dp1
S'input'
p2
(dp3
S'encoded'
p4
(lp5
I64
aI2179
aI43
aI24
aI3
aI475
aI7
aI12436
aI3364
asS'ori'
p6
S'This house believes in the use of affirmative action'
p7
ssS'output'
p8
(dp9
g4
(lp10
I131
aI217
aI7
aI223
aI2706
aI6804
aI311
aI3
aI1200
aI126
aI182
aI44331
aI100
aI12436
aI3089
aI24
aI3052
aI7
aI6426
aI2812
aI3716
aI874
aI2706
aI7477
aI7102
aI63765
asg6
S'But most of all Korean universities at the top level are adapting some affirmative actions in cases of Chinese ethnic minority  North Korean refugees  etc .'
p11
ss.