(dp1
S'input'
p2
(dp3
S'encoded'
p4
(lp5
I64
aI2179
aI43
aI63
aI6670
aI546
aI417
aI316
aI89
aI1334
aI3108
aI7
aI4849
aI1886
aI2855
asS'ori'
p6
S'This house believes that wind power should be a primary focus of future energy supply'
p7
ssS'output'
p8
(dp9
g4
(lp10
I24
aI1191
aI7
aI2148
aI5563
aI1886
aI2835
aI415
aI19
aI18071
aI60
aI1841
aI19
aI3492
aI5095
aI92
aI116
aI1155
aI416
aI34
aI5154
aI5
aI19
aI16428
aI63765
asg6
S'In 2008  about 19% of global final energy consumption came from renewables  with 13% coming from traditional biomass  which is mainly used for heating  and 3 .2% from hydroelectricity  .'
p11
ss.