(dp1
S'input'
p2
(dp3
S'encoded'
p4
(lp5
I64
aI2179
aI394
aI2741
aI3
aI1560
aI6025
aI2784
asS'ori'
p6
S'This house would pass the American Jobs Act'
p7
ssS'output'
p8
(dp9
g4
(lp10
I64
aI12604
aI1839
aI1458
aI1967
aI24
aI3
aI5428
aI192
aI4555
aI63
aI443
aI1107
aI4661
aI116
aI1445
aI868
aI45
aI1466
aI152
aI2363
aI63765
asg6
S'This assumes perfect competition exists in the labour market  specifically that no single entity is large enough to affect wage levels .'
p11
ss.