(dp1
S'input'
p2
(dp3
S'encoded'
p4
(lp5
I64
aI2179
aI394
aI1499
aI3
aI8115
aI34564
aI17106
asS'ori'
p6
S'This house would build the Keystone XL pipeline'
p7
ssS'output'
p8
(dp9
g4
(lp10
I366
aI11346
aI7
aI3
aI8115
aI34564
aI1637
aI2579
aI45623
aI45
aI3
aI2145
aI63765
aI88
aI5110
aI4374
asg6
S'After completion of the Keystone XL line  oil pipelines to the U .S . may run nearly half-empty'
p11
ss.