(dp1
S'input'
p2
(dp3
S'encoded'
p4
(lp5
I64
aI2179
aI43
aI63
aI3357
aI5003
aI652
aI3
aI188
aI3262
asS'ori'
p6
S'This house believes that opinion polls harm the democratic process'
p7
ssS'output'
p8
(dp9
g4
(lp10
I93
aI2041
aI3500
aI3072
aI147
aI8684
aI45
aI7422
aI271
aI3357
aI5119
aI5
aI20660
aI63765
asg6
S'One research article examined individuals willingness to speak their opinion online and offline .'
p11
ss.