(dp1
S'input'
p2
(dp3
S'encoded'
p4
(lp5
I64
aI2179
aI43
aI63
aI6670
aI546
aI417
aI316
aI89
aI1334
aI3108
aI7
aI4849
aI1886
aI2855
asS'ori'
p6
S'This house believes that wind power should be a primary focus of future energy supply'
p7
ssS'output'
p8
(dp9
g4
(lp10
I3
aI710
aI7
aI3
aI5121
aI45
aI1255
aI2855
aI60
aI3497
aI47
aI5114
aI14
aI3
aI2994
aI7
aI1546
aI7
aI3
aI532
aI7
aI1886
aI104
aI6670
aI34
aI5
aI3
aI710
aI7
aI248
aI2879
aI45
aI32592
aI2410
aI588
aI73
aI6684
aI2410
aI462
aI63765
asg6
S'The ability of the grid to balance supply with demand will depend on the rate of change of the amount of energy produced (by wind  for example) and the ability of other sources to ramp production up or scale production down .'
p11
ss.