(dp1
S'input'
p2
(dp3
S'encoded'
p4
(lp5
I64
aI2179
aI43
aI24
aI3
aI475
aI7
aI12436
aI3364
asS'ori'
p6
S'This house believes in the use of affirmative action'
p7
ssS'output'
p8
(dp9
g4
(lp10
I2625
aI7
aI3010
aI1560
aI5300
aI7229
aI41
aI2118
aI19
aI89
aI1699
aI157
aI7
aI10250
aI5
aI2812
aI4067
aI63765
asg6
S'Americans of Latin American ancestry (often categorized as "Hispanic") come from a wide variety of racial and ethnic backgrounds .'
p11
ss.