(dp1
S'input'
p2
(dp3
S'encoded'
p4
(lp5
I64
aI2179
aI394
aI163
aI959
aI2042
aI3557
asS'ori'
p6
S'This house would make physical education compulsory'
p7
ssS'output'
p8
(dp9
g4
(lp10
I188
aI2042
aI116
aI89
aI3168
aI7
aI5205
aI5
aI2240
aI6390
aI24
aI92
aI4358
aI5
aI705
aI6004
aI3465
aI5
aI3475
aI24
aI89
aI2240
aI2328
aI63765
asg6
S'Democratic education is a theory of learning and school governance in which students and staff participate freely and equally in a school democracy .'
p11
ss.