(dp1
S'input'
p2
(dp3
S'encoded'
p4
(lp5
I64
aI2179
aI394
aI1499
aI177
aI1819
aI34
aI160
asS'ori'
p6
S'This house would build high rises for housing'
p7
ssS'output'
p8
(dp9
g4
(lp10
I15692
aI139
aI316
aI4846
aI736
aI1237
aI1486
aI63765
asg6
S'Apartments can be classified into several types .'
p11
ss.