(dp1
S'input'
p2
(dp3
S'encoded'
p4
(lp5
I64
aI2179
aI43
aI63
aI17574
aI417
aI316
aI3481
aI34
aI271
aI79
asS'ori'
p6
S'This house believes that housewives should be paid for their work'
p7
ssS'output'
p8
(dp9
g4
(lp10
I3
aI10933
aI116
aI63
aI223
aI869
aI1948
aI7
aI3
aI52
aI1304
aI3064
aI5
aI63
aI3064
aI2752
aI289
aI736
aI248
aI14036
aI7
aI3
aI52
aI41
aI261
aI63765
asg6
S'The truth is that all four parts of the economy generate wealth  and that wealth flows over into other sections of the economy as well .'
p11
ss.