(dp1
S'input'
p2
(dp3
S'encoded'
p4
(lp5
I64
aI2179
aI394
aI190
aI3
aI21
aI45
aI3895
aI834
asS'ori'
p6
S'This house would limit the right to bear arms'
p7
ssS'output'
p8
(dp9
g4
(lp10
I223
aI7
aI120
aI2522
aI2484
aI3
aI229
aI2446
aI2823
aI298
aI4215
aI3
aI1950
aI3264
aI63765
asg6
S'All of those rulings upheld the individual rights model when interpreting the Second Amendment .'
p11
ss.