(dp1
S'input'
p2
(dp3
S'encoded'
p4
(lp5
I64
aI2179
aI394
aI2998
aI3
aI4360
aI7
aI3249
aI6804
aI24
aI3
aI102
asS'ori'
p6
S'This house would encourage the creation of private universities in the UK'
p7
ssS'output'
p8
(dp9
g4
(lp10
I43449
aI3388
aI19
aI3
aI43456
aI24
aI2927
aI63765
asg6
S'Jacomb retired from the chancellorship in March 2010 .'
p11
ss.