(dp1
S'input'
p2
(dp3
S'encoded'
p4
(lp5
I64
aI2179
aI43
aI63
aI2659
aI417
aI1690
aI3
aI12048
aI7
aI19084
asS'ori'
p6
S'This house believes that Israel should lift the blockade of Gaza'
p7
ssS'output'
p8
(dp9
g4
(lp10
I3
aI285
aI83
aI991
aI2659
aI19
aI27077
aI3
aI2414
aI357
aI133
aI63
aI134
aI116
aI3
aI21
aI7
aI3
aI2135
aI3727
aI45
aI9110
aI24
aI3
aI19084
aI966
aI5
aI357
aI6261
aI351
aI6056
aI7188
aI493
aI86
aI63765
asg6
S'The world must stop Israel from intercepting the ships  We believe that it is the right of the foreign activists to arrive in the Gaza Strip  and we condemn any Israeli threats against them .'
p11
ss.