(dp1
S'input'
p2
(dp3
S'encoded'
p4
(lp5
I64
aI2179
aI43
aI24
aI3
aI475
aI7
aI12436
aI3364
asS'ori'
p6
S'This house believes in the use of affirmative action'
p7
ssS'output'
p8
(dp9
g4
(lp10
I223
aI784
aI7
aI3
aI7190
aI7
aI3
aI150
aI2849
aI3098
aI52630
aI182
aI20634
aI5
aI117
aI7
aI52630
aI3936
aI182
aI6426
aI63765
asg6
S'All eight of the directors of the national petroleum company  Petronas  are Malays  and only 3% of Petronas employees are Chinese .'
p11
ss.