(dp1
S'input'
p2
(dp3
S'encoded'
p4
(lp5
I64
aI2179
aI394
aI15841
aI2736
asS'ori'
p6
S'This house would disband ASEAN'
p7
ssS'output'
p8
(dp9
g4
(lp10
I11557
aI19
aI7600
aI24
aI351
aI2136
aI73
aI364
aI158
aI3
aI475
aI7
aI211
aI2295
aI5535
aI75
aI5
aI2736
aI2544
aI10
aI73
aI10
aI73
aI351
aI17541
aI92
aI4995
aI3
aI6349
aI2336
aI4657
aI73
aI22
aI5
aI16
aI2465
aI7
aI2736
aI2544
aI63765
asg6
S'k) abstention from participation in any policy or activity  including the use of its territory  pursued by and ASEAN Member State or non-ASEAN State or any non-State actor  which threatens the sovereignty  territorial integrity or political and economic stability of ASEAN Member States;  .'
p11
ss.