(dp1
S'input'
p2
(dp3
S'encoded'
p4
(lp5
I64
aI2179
aI394
aI5842
aI3569
aI446
aI13498
asS'ori'
p6
S'This house would introduce year round schooling'
p7
ssS'output'
p8
(dp9
g4
(lp10
I147
aI5
aI2142
aI186
aI15
aI24
aI1561
aI7
aI5
aI493
aI2042
aI63765
asg6
S'Individuals and organizations argue both in favor of and against year-round education .'
p11
ss.