(dp1
S'input'
p2
(dp3
S'encoded'
p4
(lp5
I64
aI2179
aI394
aI4325
aI2042
aI270
aI89
aI11605
aI3324
asS'ori'
p6
S'This house would fund education using a voucher scheme'
p7
ssS'output'
p8
(dp9
g4
(lp10
I257
aI221
aI70
aI132
aI3663
aI394
aI10662
aI8803
aI3237
aI5
aI324
aI11004
aI19
aI2503
aI3370
aI63765
asg6
S'" If made law  these provisions would remove sexual practices  and particularly same-sex unions  from federal jurisdiction .'
p11
ss.