(dp1
S'input'
p2
(dp3
S'encoded'
p4
(lp5
I64
aI2179
aI43
aI63
aI7382
aI116
aI400
aI4713
asS'ori'
p6
S'This house believes that bribery is sometimes acceptable'
p7
ssS'output'
p8
(dp9
g4
(lp10
I226
aI22547
aI237
aI406
aI24
aI60
aI3
aI7170
aI4440
aI2910
aI223
aI7
aI132
aI14782
aI4506
aI384
aI18301
aI34
aI7170
aI159
aI41
aI658
aI4440
aI7
aI3
aI6
aI7
aI3
aI3661
aI63765
asg6
S'While "corruption" indices first appeared in 1995 with the Corruption Perceptions Index  all of these metrics address different proxies for corruption  such as public perceptions of the extent of the problem  .'
p11
ss.