(dp1
S'input'
p2
(dp3
S'encoded'
p4
(lp5
I64
aI2179
aI43
aI63
aI6670
aI546
aI417
aI316
aI89
aI1334
aI3108
aI7
aI4849
aI1886
aI2855
asS'ori'
p6
S'This house believes that wind power should be a primary focus of future energy supply'
p7
ssS'output'
p8
(dp9
g4
(lp10
I89
aI136
aI379
aI5
aI4548
aI1022
aI3068
aI55
aI12
aI480
aI41
aI89
aI3500
aI24
aI3
aI2014
aI1886
aI2136
aI63765
asg6
S'A more detailed and updated technical analysis has been published as a two-part article in the journal Energy Policy  .'
p11
ss.