(dp1
S'input'
p2
(dp3
S'encoded'
p4
(lp5
I64
aI2179
aI43
aI63
aI1036
aI4828
aI33250
aI116
aI25073
aI45
aI3315
aI4562
asS'ori'
p6
S'This house believes that male infant circumcision is tantamount to child abuse'
p7
ssS'output'
p8
(dp9
g4
(lp10
I100
aI658
aI5
aI3249
aI3217
aI197
aI4748
aI11
aI5516
aI3183
aI7
aI4631
aI33250
aI63765
asg6
S'Some public and private health insurance providers have deleted coverage of elective non-therapeutic circumcision .'
p11
ss.