(dp1
S'input'
p2
(dp3
S'encoded'
p4
(lp5
I64
aI2179
aI394
aI117
aI7428
aI21151
aI34
aI11389
aI2042
aI24
aI4364
asS'ori'
p6
S'This house would only teach abstinence for sex education in schools'
p7
ssS'output'
p8
(dp9
g4
(lp10
I8803
aI8935
aI366
aI26489
aI116
aI89
aI575
aI5
aI134
aI116
aI3082
aI9208
aI45
aI124
aI5224
aI1191
aI3
aI4779
aI5
aI40
aI155
aI139
aI316
aI15519
asg6
S'sexual behavior after puberty is a given  and it is therefore crucial to provide information about the risks and how they can be minimized'
p11
ss.