(dp1
S'input'
p2
(dp3
S'encoded'
p4
(lp5
I64
aI2179
aI43
aI63
aI3376
aI4938
aI417
aI316
aI3537
asS'ori'
p6
S'This house believes that endangered species should be protected'
p7
ssS'output'
p8
(dp9
g4
(lp10
I273
aI11
aI12
aI89
aI696
aI7
aI16
aI3384
aI5182
aI2230
aI9404
aI7
aI3
aI127
aI7
aI7797
aI63765
asg6
S'There have been a number of economic arguments advanced regarding evaluation of the benefits of biodiversity .'
p11
ss.