(dp1
S'input'
p2
(dp3
S'encoded'
p4
(lp5
I64
aI2179
aI394
aI2773
aI12505
asS'ori'
p6
S'This house would embrace multiculturalism'
p7
ssS'output'
p8
(dp9
g4
(lp10
I15307
aI5206
aI3018
aI5
aI3057
aI3659
asg6
S'Multicultural classrooms promote decision-making and critical thinking'
p11
ss.