(dp1
S'input'
p2
(dp3
S'encoded'
p4
(lp5
I64
aI2179
aI43
aI8629
aI116
aI3
aI117
aI998
asS'ori'
p6
S'This house believes atheism is the only way'
p7
ssS'output'
p8
(dp9
g4
(lp10
I24
aI64
aI234
aI3369
aI7
aI3
aI18504
aI159
aI41
aI120
aI4955
aI45
aI3
aI3524
aI5
aI580
aI7
aI5480
aI182
aI5
aI182
aI3
aI3576
aI11673
aI7
aI8239
aI63765
asg6
S'In this view  questions of the supernatural  such as those relating to the existence and nature of God  are non-empirical and are the proper domain of theology .'
p11
ss.