(dp1
S'input'
p2
(dp3
S'encoded'
p4
(lp5
I64
aI2179
aI394
aI15841
aI2736
asS'ori'
p6
S'This house would disband ASEAN'
p7
ssS'output'
p8
(dp9
g4
(lp10
I6410
aI122
aI45
aI11
aI2343
aI1544
aI60
aI3123
aI5
aI3118
aI131
aI122
aI27901
aI1021
aI45
aI3
aI2372
aI22
aI1382
aI63765
asg6
S"Cambodia was to have joined together with Laos and Burma  but was deferred due to the country's internal political struggle ."
p11
ss.