(dp1
S'input'
p2
(dp3
S'encoded'
p4
(lp5
I64
aI2179
aI43
aI63
aI11083
aI10046
aI417
aI316
aI89
aI3135
aI4603
asS'ori'
p6
S'This house believes that Holocaust denial should be a criminal offence'
p7
ssS'output'
p8
(dp9
g4
(lp10
I233
aI45
aI3031
aI42588
aI42589
aI3
aI3445
aI7
aI2320
aI159
aI41
aI3
aI35595
aI5
aI3326
aI2320
aI2223
aI4212
aI675
aI3
aI11854
aI7
aI25461
aI116
aI311
aI3
aI1863
aI7
aI5
aI89
aI14673
aI988
aI13647
aI7
aI3950
aI11083
aI8164
aI3313
aI62
aI63765
asg6
S'According to historian Deborah Lipstadt  the concept of "comparable Allied wrongs" such as the post-war expulsions and alleged Allied war crimes like the bombing of Dresden  is at the center of  and a continuously repeated theme of  contemporary Holocaust denial; phenomenon she calls "immoral equivalencies"  .'
p11
ss.