(dp1
S'input'
p2
(dp3
S'encoded'
p4
(lp5
I64
aI2179
aI43
aI63
aI187
aI417
aI99
aI16642
aI3
aI6449
aI7
aI3935
asS'ori'
p6
S'This house believes that states should not subsidize the growing of tobacco'
p7
ssS'output'
p8
(dp9
g4
(lp10
I3935
aI14170
aI11
aI25359
aI60
aI25360
aI25361
aI2186
aI45
aI501
aI9257
aI45
aI316
aI6675
aI252
aI3
aI6090
aI7
aI19617
aI25362
aI63765
asg6
S'Tobacco manufacturers have experimented with combustionless vaporizer technology to allow cigarettes to be consumed without the formation of carcinogenic benzopyrenes  .'
p11
ss.