(dp1
S'input'
p2
(dp3
S'encoded'
p4
(lp5
I64
aI2179
aI43
aI63
aI2157
aI2565
aI493
aI19084
aI382
aI4850
asS'ori'
p6
S"This house believes that Israel's 2008-2009 military operations against Gaza were justified"
p7
ssS'output'
p8
(dp9
g4
(lp10
I155
aI11588
aI1191
aI2250
aI92
aI90
aI7
aI2250
aI116
aI64
aI63764
asg6
S'They talk about peace  which kind of peace is this ?'
p11
ss.