(dp1
S'input'
p2
(dp3
S'encoded'
p4
(lp5
I64
aI2179
aI43
aI24
aI3
aI475
aI7
aI12436
aI3364
asS'ori'
p6
S'This house believes in the use of affirmative action'
p7
ssS'output'
p8
(dp9
g4
(lp10
I42
aI174
aI1630
aI63
aI3
aI5496
aI394
aI96
aI3
aI6464
aI7
aI51
aI6048
aI5018
aI4758
aI63765
asg6
S'He also added that the ministry would support the creations of an Arab academic college  .'
p11
ss.