(dp1
S'input'
p2
(dp3
S'encoded'
p4
(lp5
I64
aI2179
aI43
aI63
aI3
aI4990
aI4991
aI116
aI4850
aI24
aI12166
aI3
aI475
aI7
aI3532
aI3290
aI7
aI4714
asS'ori'
p6
S'This house believes that the Catholic Church is justified in forbidding the use of barrier methods of contraception'
p7
ssS'output'
p8
(dp9
g4
(lp10
I134
aI417
aI316
aI418
aI63
aI691
aI3
aI475
aI7
aI3
aI3010
aI4256
aI55
aI12
aI996
aI2499
aI5
aI113
aI551
aI1968
aI24
aI100
aI11391
aI63765
asg6
S'It should be noted that since 1970 the use of the Latin Mass has been severely restricted  and even declared illegal in some dioceses .'
p11
ss.