(dp1
S'input'
p2
(dp3
S'encoded'
p4
(lp5
I64
aI2179
aI43
aI63
aI3
aI4991
aI7
aI180
aI417
aI316
aI5396
aI19
aI3
aI169
aI10
asS'ori'
p6
S'This house believes that the Church of England should be separated from the British state'
p7
ssS'output'
p8
(dp9
g4
(lp10
I3
aI237
aI8612
aI2161
aI24
aI667
aI4392
aI4373
aI24
aI114
aI51438
aI122
aI136
aI939
aI24
aI667
aI2086
aI63765
asg6
S'The first Anglican minister in New Jersey arrived in 1698  though Anglicanism was more popular in New York  .'
p11
ss.