(dp1
S'input'
p2
(dp3
S'encoded'
p4
(lp5
I64
aI2179
aI43
aI17
aI4941
aI857
aI3211
asS'ori'
p6
S'This house believes social deprivation causes crime'
p7
ssS'output'
p8
(dp9
g4
(lp10
I13913
aI2016
aI3
aI3168
aI122
aI643
aI75
aI13247
aI18002
aI5
aI134
aI12969
aI3
aI1647
aI7
aI89
aI3135
aI19
aI3
aI4921
aI63
aI155
aI182
aI10744
aI29291
aI63765
asg6
S'Differential association theory: The theory was developed by Edwin Sutherland and it examines the acts of a criminal from the perspective that they are learned behaviours  .'
p11
ss.