(dp1
S'input'
p2
(dp3
S'encoded'
p4
(lp5
I64
aI2179
aI43
aI17
aI4941
aI857
aI3211
asS'ori'
p6
S'This house believes social deprivation causes crime'
p7
ssS'output'
p8
(dp9
g4
(lp10
I8725
aI5
aI3492
aI3135
aI8281
aI1019
aI316
aI688
aI6212
aI378
aI273
aI273
aI182
aI2010
aI127
aI45
aI15
aI3
aI3822
aI5
aI9184
aI7210
aI620
aI271
aI2016
aI63765
asg6
S'Gangs and traditional criminal organisations cannot be universally linked (Decker  1998)  however there there are clear benefits to both the adult and youth organisation through their association .'
p11
ss.