(dp1
S'input'
p2
(dp3
S'encoded'
p4
(lp5
I64
aI2179
aI43
aI63
aI3
aI28431
aI7
aI2157
aI4624
aI75
aI39939
aI27257
aI122
aI4850
asS'ori'
p6
S'This house believes that the leaking of military documents by Anat Kamm was justified'
p7
ssS'output'
p8
(dp9
g4
(lp10
I2164
aI5917
aI2491
aI24
aI25
aI2394
aI10
aI7
aI3
aI2131
aI4506
aI2200
aI2221
aI34
aI3
aI63765
asg6
S'President Woodrow Wilson in his December 7  1915 State of the Union address asked Congress for the legislation:  .'
p11
ss.