(dp1
S'input'
p2
(dp3
S'encoded'
p4
(lp5
I64
aI2179
aI394
aI5284
aI150
aI3987
asS'ori'
p6
S'This house would reintroduce national service'
p7
ssS'output'
p8
(dp9
g4
(lp10
I5282
aI742
aI3313
aI394
aI99
aI84
aI351
aI3364
aI493
aI5259
aI7171
aI1706
aI2180
aI7090
aI41
aI25
aI705
aI440
aI12
aI136
aI311
aI12544
aI5
aI42
aI440
aI99
aI630
aI351
aI70
aI63765
asg6
S'Pelosi said she would not take any action against Rangel pending further committee findings  as his staff had been more at fault and he had not broken any law  .'
p11
ss.