(dp1
S'input'
p2
(dp3
S'encoded'
p4
(lp5
I64
aI2179
aI43
aI24
aI3
aI475
aI7
aI12436
aI3364
asS'ori'
p6
S'This house believes in the use of affirmative action'
p7
ssS'output'
p8
(dp9
g4
(lp10
I28307
aI18452
aI24
aI63
aI2295
aI353
aI777
aI2195
aI45
aI4933
aI63765
asg6
S'Mexicans residing in that territory found themselves subject to discrimination .'
p11
ss.