(dp1
S'input'
p2
(dp3
S'encoded'
p4
(lp5
I64
aI2179
aI394
aI2773
aI12505
asS'ori'
p6
S'This house would embrace multiculturalism'
p7
ssS'output'
p8
(dp9
g4
(lp10
I16111
aI9750
aI1047
aI41
aI3409
aI3012
aI3
aI2548
aI41
aI51
aI2016
aI7
aI78
aI81
aI3114
aI777
aI41
aI17365
aI45
aI3
aI2548
aI81
aI11
aI5125
aI5
aI2622
aI22
aI2446
aI5
aI5528
aI45
aI570
aI22
aI3808
aI63765
asg6
S'Civic nationalism (also known as liberal nationalism) defines the nation as an association of people who identify themselves as belonging to the nation  who have equal and shared political rights  and allegiance to similar political procedures  .'
p11
ss.