(dp1
S'input'
p2
(dp3
S'encoded'
p4
(lp5
I64
aI2179
aI13605
aI2258
aI45
aI2194
asS'ori'
p6
S'This house prefers trade to aid'
p7
ssS'output'
p8
(dp9
g4
(lp10
I509
aI63
aI3
aI127
aI7
aI2131
aI60
aI3
aI626
aI2549
aI440
aI12
aI8346
aI41
aI89
aI296
aI7
aI2776
aI226
aI3
aI16
aI2591
aI485
aI24
aI1561
aI7
aI3
aI169
aI370
aI3
aI320
aI1560
aI5277
aI3026
aI63
aI89
aI667
aI150
aI16
aI2136
aI122
aI534
aI63765
asg6
S'Realizing that the benefits of union with the United Kingdom had been severed as a result of independence while the economic ties remained in favor of the British Empire  the early American leadership saw that a new national economic policy was required .'
p11
ss.