(dp1
S'input'
p2
(dp3
S'encoded'
p4
(lp5
I64
aI2179
aI394
aI163
aI959
aI2042
aI3557
asS'ori'
p6
S'This house would make physical education compulsory'
p7
ssS'output'
p8
(dp9
g4
(lp10
I134
aI55
aI174
aI579
aI994
aI289
aI413
aI63765
asg6
S'It has also changed significantly over time  .'
p11
ss.