(dp1
S'input'
p2
(dp3
S'encoded'
p4
(lp5
I64
aI2179
aI43
aI24
aI3
aI475
aI7
aI12436
aI3364
asS'ori'
p6
S'This house believes in the use of affirmative action'
p7
ssS'output'
p8
(dp9
g4
(lp10
I45
aI1292
aI7170
aI12434
aI12533
aI5
aI6347
aI3936
aI717
aI14
aI7595
aI13055
aI24
aI128
aI45
aI881
aI7170
aI5
aI5913
aI63765
asg6
S'To avoid corruption  "company managers hired and promoted employees based on competitive examinations in order to prevent corruption and favoritism .'
p11
ss.