(dp1
S'input'
p2
(dp3
S'encoded'
p4
(lp5
I64
aI2179
aI43
aI223
aI2138
aI11
aI89
aI21
aI45
aI2185
aI372
asS'ori'
p6
S'This house believes all nations have a right to nuclear weapons'
p7
ssS'output'
p8
(dp9
g4
(lp10
I15082
aI7
aI2135
aI6700
aI5152
aI5
aI2891
aI7
aI2185
aI372
aI24
aI3
aI2696
aI116
aI625
aI63765
asg6
S'Dumping of foreign radioactive waste and development of nuclear weapons in the country is outlawed  .'
p11
ss.