(dp1
S'input'
p2
(dp3
S'encoded'
p4
(lp5
I64
aI2179
aI43
aI63
aI134
aI116
aI400
aI21
aI34
aI3
aI260
aI45
aI3439
aI57
aI7
aI2381
asS'ori'
p6
S'This house believes that it is sometimes right for the government to restrict freedom of speech'
p7
ssS'output'
p8
(dp9
g4
(lp10
I226
aI220
aI5
aI4991
aI474
aI888
aI24
aI725
aI3708
aI604
aI134
aI547
aI34
aI3
aI12860
aI7
aI50430
aI5
aI260
aI5224
aI95
aI7
aI3412
aI5
aI2198
aI463
aI174
aI28652
aI7456
aI63765
asg6
S'While governments and church encouraged printing in many ways because it allowed for the dissemination of Bibles and government information  works of dissent and criticism could also circulate rapidly .'
p11
ss.