(dp1
S'input'
p2
(dp3
S'encoded'
p4
(lp5
I64
aI2179
aI43
aI8629
aI116
aI3
aI117
aI998
asS'ori'
p6
S'This house believes atheism is the only way'
p7
ssS'output'
p8
(dp9
g4
(lp10
I24
aI5958
aI7
aI3
aI5240
aI26846
aI3168
aI89
aI17627
aI9368
aI7
aI143
aI55
aI5461
aI263
aI3
aI36683
aI21788
aI143
aI3
aI1592
aI399
aI7
aI92
aI122
aI1629
aI4884
aI75
aI3520
aI15036
aI63765
asg6
S'In light of the Big Bang theory  a stylized version of argument has emerged (sometimes called the Kalam cosmological argument  the following form of which was set forth by William Lane Craig):  .'
p11
ss.