(dp1
S'input'
p2
(dp3
S'encoded'
p4
(lp5
I64
aI2179
aI43
aI24
aI3
aI475
aI7
aI12436
aI3364
asS'ori'
p6
S'This house believes in the use of affirmative action'
p7
ssS'output'
p8
(dp9
g4
(lp10
I3
aI5969
aI5
aI2445
aI2446
aI2130
aI353
aI63
aI863
aI1727
aI136
aI3386
aI78
aI138
aI965
aI78
aI4386
aI536
aI7
aI2598
aI24
aI180
aI5
aI499
aI182
aI9928
aI63765
asg6
S'The Equality and Human Rights Commission found that five times more black people than white people per head of population in England and Wales are imprisoned .'
p11
ss.