(dp1
S'input'
p2
(dp3
S'encoded'
p4
(lp5
I64
aI2179
aI43
aI63
aI2659
aI417
aI1690
aI3
aI12048
aI7
aI19084
asS'ori'
p6
S'This house believes that Israel should lift the blockade of Gaza'
p7
ssS'output'
p8
(dp9
g4
(lp10
I14
aI492
aI217
aI3727
aI20
aI34
aI3900
aI4527
aI117
aI89
aI1896
aI5104
aI45
aI302
aI3
aI2345
aI63765
asg6
S'On 7 July  most activists left for home  leaving only a few dozen to continue the initiative  .'
p11
ss.