(dp1
S'input'
p2
(dp3
S'encoded'
p4
(lp5
I64
aI2179
aI394
aI2976
aI12243
aI24
aI954
aI126
aI1560
aI10723
asS'ori'
p6
S'This house would implement playoffs in collegiate level American football'
p7
ssS'output'
p8
(dp9
g4
(lp10
I155
aI2933
aI89
aI34949
aI4464
aI45
aI6372
aI493
aI34957
aI10
aI24
aI3
aI34959
aI20731
aI63765
asg6
S'They received a BCS bid to play against Boise State in the Fiesta Bowl .'
p11
ss.