(dp1
S'input'
p2
(dp3
S'encoded'
p4
(lp5
I64
aI2179
aI43
aI63
aI134
aI116
aI400
aI21
aI34
aI3
aI260
aI45
aI3439
aI57
aI7
aI2381
asS'ori'
p6
S'This house believes that it is sometimes right for the government to restrict freedom of speech'
p7
ssS'output'
p8
(dp9
g4
(lp10
I298
aI89
aI2548
aI116
aI311
aI2223
aI725
aI194
aI63
aI876
aI316
aI742
aI24
aI413
aI7
aI2250
aI182
aI159
aI89
aI21245
aI45
aI211
aI2419
aI63
aI271
aI31079
aI47
aI99
aI316
aI8633
aI87
aI572
aI41
aI1980
aI405
asg6
S'when a nation is at war  many things that might be said in time of peace are such a hindrance to its effort that their utterance will not be endured so long as men fight'
p11
ss.