(dp1
S'input'
p2
(dp3
S'encoded'
p4
(lp5
I64
aI2179
aI394
aI2017
aI3807
aI314
aI3433
asS'ori'
p6
S'This house would ban partial birth abortions'
p7
ssS'output'
p8
(dp9
g4
(lp10
I3
aI2145
aI63765
aI4409
aI171
aI1040
aI443
aI1597
aI14
aI3257
aI131
aI3
aI171
aI2807
aI351
aI260
aI3592
aI7
aI3257
aI63765
asg6
S'The U .S . Libertarian Party takes no position on abortion  but the Party opposes any government funding of abortion .'
p11
ss.