(dp1
S'input'
p2
(dp3
S'encoded'
p4
(lp5
I64
aI2179
aI43
aI63
aI134
aI116
aI400
aI21
aI34
aI3
aI260
aI45
aI3439
aI57
aI7
aI2381
asS'ori'
p6
S'This house believes that it is sometimes right for the government to restrict freedom of speech'
p7
ssS'output'
p8
(dp9
g4
(lp10
I3
aI7147
aI55
aI1607
aI5046
aI1191
aI3
aI447
aI7
aI1260
aI2381
aI63
aI12717
aI70
aI19288
aI63765
asg6
S'The internet has brought concerns about the limits of free speech that copyright law imposes .'
p11
ss.