(dp1
S'input'
p2
(dp3
S'encoded'
p4
(lp5
I64
aI2179
aI43
aI223
aI2138
aI11
aI89
aI21
aI45
aI2185
aI372
asS'ori'
p6
S'This house believes all nations have a right to nuclear weapons'
p7
ssS'output'
p8
(dp9
g4
(lp10
I134
aI122
aI2428
aI63
aI351
aI2721
aI291
aI3
aI2280
aI463
aI99
aI3051
aI89
aI8577
aI823
aI5
aI508
aI880
aI394
aI5747
aI2038
aI14959
aI93
aI63765
asg6
S'It was thought that any full-scale exchange between the powers could not produce a victorious side  and thus neither would willingly risk initiating one .'
p11
ss.