(dp1
S'input'
p2
(dp3
S'encoded'
p4
(lp5
I64
aI2179
aI394
aI1499
aI3
aI8115
aI34564
aI17106
asS'ori'
p6
S'This house would build the Keystone XL pipeline'
p7
ssS'output'
p8
(dp9
g4
(lp10
I3807
aI11676
aI57208
aI174
aI41
aI12079
aI6745
aI132
aI4678
aI501
aI3
aI17106
aI10541
aI45
aI1709
aI759
aI7
aI3
aI8942
aI773
aI6707
aI63765
asg6
S'Partial delivery stationKnown also as intermediate stations  these facilities allow the pipeline operator to deliver part of the product being transported .'
p11
ss.