(dp1
S'input'
p2
(dp3
S'encoded'
p4
(lp5
I64
aI2179
aI43
aI17
aI4941
aI857
aI3211
asS'ori'
p6
S'This house believes social deprivation causes crime'
p7
ssS'output'
p8
(dp9
g4
(lp10
I17
aI59011
aI88
aI174
aI3051
aI3211
aI75
aI5249
aI5269
aI19
aI3
aI8277
aI3905
aI63765
asg6
S'Social disorganisation may also produce crime by isolating communities from the mainstream culture .'
p11
ss.