(dp1
S'input'
p2
(dp3
S'encoded'
p4
(lp5
I64
aI2179
aI394
aI2017
aI628
asS'ori'
p6
S'This house would ban gambling'
p7
ssS'output'
p8
(dp9
g4
(lp10
I3
aI1592
aI4812
aI281
aI7685
aI3210
aI24
aI3
aI285
aI60
aI7685
aI7619
aI7
aI289
aI2639
aI41
aI480
aI24
aI905
aI14
aI3
aI9119
aI34
aI3
aI2148
aI7685
aI63765
asg6
S"The following lists major casino markets in the world with casino revenue of over US$1 000 million as published in PricewaterhouseCoopers's report on the outlook for the global casino market:  ."
p11
ss.