(dp1
S'input'
p2
(dp3
S'encoded'
p4
(lp5
I64
aI2179
aI394
aI4325
aI2042
aI270
aI89
aI11605
aI3324
asS'ori'
p6
S'This house would fund education using a voucher scheme'
p7
ssS'output'
p8
(dp9
g4
(lp10
I2233
aI5607
aI3434
aI843
aI45
aI19083
aI45
aI2503
aI3744
aI3
aI254
aI45
aI16580
aI8559
aI73
aI45
aI4934
aI89
aI187
aI710
aI45
aI10008
aI3
aI3492
aI4462
aI7
aI8559
aI63765
asg6
S'I am unwilling either to cede to federal courts the authority to redefine marriage  or to deny a states ability to preserve the traditional definition of marriage .'
p11
ss.