(dp1
S'input'
p2
(dp3
S'encoded'
p4
(lp5
I64
aI2179
aI43
aI24
aI3
aI475
aI7
aI12436
aI3364
asS'ori'
p6
S'This house believes in the use of affirmative action'
p7
ssS'output'
p8
(dp9
g4
(lp10
I508
aI57697
aI1545
aI3
aI57717
aI41
aI120
aI2686
aI24
aI3296
aI16260
aI11744
aI5
aI1507
aI57718
aI5
aI3
aI57719
aI41
aI120
aI15811
aI9073
aI736
aI14696
aI17080
aI5
aI17194
aI57720
aI63765
asg6
S"Thus  Zola described the high-born Rougons as those involved in politics (Son Excellence Eugene Rougon) and medicine (Le Docteur Pascal) and the low-born Macquarts as those fatally falling into alcoholism (L'Assommoir)  prostitution (Nana)  and homicide (La Bete humaine) ."
p11
ss.