(dp1
S'input'
p2
(dp3
S'encoded'
p4
(lp5
I64
aI2179
aI394
aI2741
aI3
aI1560
aI6025
aI2784
asS'ori'
p6
S'This house would pass the American Jobs Act'
p7
ssS'output'
p8
(dp9
g4
(lp10
I132
aI196
aI127
aI1074
aI196
aI197
aI196
aI6015
aI9
aI5
aI10400
aI45
aI2194
aI24
aI30635
aI63765
asg6
S'These unemployment benefits include unemployment insurance  unemployment compensation  welfare and subsidies to aid in retraining .'
p11
ss.