(dp1
S'input'
p2
(dp3
S'encoded'
p4
(lp5
I64
aI2179
aI394
aI2773
aI12505
asS'ori'
p6
S'This house would embrace multiculturalism'
p7
ssS'output'
p8
(dp9
g4
(lp10
I3082
aI223
aI2313
aI394
aI243
aI1719
aI316
aI2637
aI63765
asg6
S'"(2000: 12) Therefore  all imperialism would always  already be cultural .'
p11
ss.