(dp1
S'input'
p2
(dp3
S'encoded'
p4
(lp5
I64
aI2179
aI43
aI17
aI4941
aI857
aI3211
asS'ori'
p6
S'This house believes social deprivation causes crime'
p7
ssS'output'
p8
(dp9
g4
(lp10
I17552
aI2686
aI24
aI64
aI1039
aI1074
aI59091
aI44876
aI21856
aI32744
aI5
aI10458
aI3170
aI63765
asg6
S'" Sociologists involved in this approach include Auguste Comte  Emile Durkheim  and Herbert Spencer  .'
p11
ss.