(dp1
S'input'
p2
(dp3
S'encoded'
p4
(lp5
I64
aI2179
aI394
aI117
aI7428
aI21151
aI34
aI11389
aI2042
aI24
aI4364
asS'ori'
p6
S'This house would only teach abstinence for sex education in schools'
p7
ssS'output'
p8
(dp9
g4
(lp10
I24
aI89
aI2035
aI34
aI3
aI4701
aI927
aI4741
aI353
aI63
aI19
aI89
aI12390
aI4921
aI378
aI11390
aI3271
aI2722
aI24
aI3
aI626
aI187
aI182
aI149
aI12979
aI138
aI93
aI876
aI2274
aI1594
aI63765
asg6
S'In a study for The Guttmacher Institute  researchers found that from a comparative perspective  however  teenage pregnancy rates in the United States are less nuanced than one might initially assume .'
p11
ss.