(dp1
S'input'
p2
(dp3
S'encoded'
p4
(lp5
I64
aI2179
aI13605
aI2258
aI45
aI2194
asS'ori'
p6
S'This house prefers trade to aid'
p7
ssS'output'
p8
(dp9
g4
(lp10
I2164
aI31589
aI4692
aI63765
aI3351
aI1706
aI4652
aI63
aI24
aI25
aI10079
aI63765
asg6
S'President Ulysses S . Grant further echoes that in his quote here:  .'
p11
ss.