(dp1
S'input'
p2
(dp3
S'encoded'
p4
(lp5
I64
aI2179
aI394
aI2773
aI12505
asS'ori'
p6
S'This house would embrace multiculturalism'
p7
ssS'output'
p8
(dp9
g4
(lp10
I134
aI7395
aI89
aI2220
aI2768
aI7
aI7092
aI5
aI3357
aI3024
aI45
aI2572
aI271
aI7067
aI14
aI214
aI63
aI867
aI45
aI3
aI2886
aI7
aI2202
aI887
aI4066
aI5269
aI13522
aI3
aI4662
aI7
aI119
aI13716
aI63765
asg6
S'It encourages a broad diversity of experts and opinion leaders to share their perspectives on issues that go to the core of relations among diverse communities  broadening the choice of available commentary .'
p11
ss.