(dp1
S'input'
p2
(dp3
S'encoded'
p4
(lp5
I64
aI2179
aI43
aI17
aI4941
aI857
aI3211
asS'ori'
p6
S'This house believes social deprivation causes crime'
p7
ssS'output'
p8
(dp9
g4
(lp10
I6249
aI12969
aI40
aI2622
aI4596
aI5
aI17
aI6809
aI182
aI643
aI24
aI3
aI2346
aI7
aI17
aI13127
aI63765
asg6
S'Symbolic Interactionism: Examines how shared meanings and social patterns are developed in the course of social interactions  .'
p11
ss.