(dp1
S'input'
p2
(dp3
S'encoded'
p4
(lp5
I64
aI2179
aI43
aI24
aI3
aI475
aI7
aI12436
aI3364
asS'ori'
p6
S'This house believes in the use of affirmative action'
p7
ssS'output'
p8
(dp9
g4
(lp10
I35169
aI2791
aI63
aI7
aI260
aI1589
aI394
aI316
aI1629
aI11958
aI34
aI24
aI421
aI45
aI3
aI1719
aI1629
aI11958
aI34
aI3
aI47867
aI5
aI26859
aI63765
asg6
S"Singh announced that 27% of government positions would be set aside for OBC's in addition to the 22% already set aside for the SCs and STs  ."
p11
ss.