(dp1
S'input'
p2
(dp3
S'encoded'
p4
(lp5
I64
aI2179
aI43
aI24
aI3
aI475
aI7
aI12436
aI3364
asS'ori'
p6
S'This house believes in the use of affirmative action'
p7
ssS'output'
p8
(dp9
g4
(lp10
I273
aI55
aI1902
aI12
aI89
aI2369
aI1579
aI887
aI1560
aI187
aI45
aI2017
aI10250
aI73
aI4583
aI12514
aI24
aI4750
aI12912
aI24
aI3623
aI45
aI3
aI726
aI5
aI5016
aI752
aI24
aI43745
aI646
aI63765
aI29648
aI63765
asg6
S'There has recently been a strong push among American states to ban racial or gender preferences in university admissions  in reaction to the controversial and unprecedented decision in Grutter v . Bollinger .'
p11
ss.