(dp1
S'input'
p2
(dp3
S'encoded'
p4
(lp5
I64
aI2179
aI43
aI17
aI4941
aI857
aI3211
asS'ori'
p6
S'This house believes social deprivation causes crime'
p7
ssS'output'
p8
(dp9
g4
(lp10
I13007
aI13007
aI3888
aI45
aI16382
aI5205
aI620
aI17
aI952
aI63
aI8083
aI45
aI3
aI2891
aI7
aI3
aI14656
aI5
aI1735
aI838
aI7600
aI24
aI2022
aI63765
asg6
S'Socialization - Socialization refers to lifelong learning  through social experience  that contributes to the development of the personality and allows full participation in society  .'
p11
ss.