(dp1
S'input'
p2
(dp3
S'encoded'
p4
(lp5
I64
aI2179
aI43
aI17
aI4941
aI857
aI3211
asS'ori'
p6
S'This house believes social deprivation causes crime'
p7
ssS'output'
p8
(dp9
g4
(lp10
I136
aI1902
aI12717
aI7770
aI11
aI5953
aI63
aI187
aI124
aI3135
aI9991
aI34
aI223
aI1486
aI7
aI12717
aI8794
aI63765
asg6
S'More recently copyright holders have demanded that states provide criminal sanctions for all types of copyright infringement  .'
p11
ss.