(dp1
S'input'
p2
(dp3
S'encoded'
p4
(lp5
I64
aI2179
aI43
aI63
aI2659
aI417
aI1690
aI3
aI12048
aI7
aI19084
asS'ori'
p6
S'This house believes that Israel should lift the blockade of Gaza'
p7
ssS'output'
p8
(dp9
g4
(lp10
I567
aI2646
aI2203
aI5523
aI6056
aI2390
aI2450
aI2756
aI2046
aI2371
aI5964
aI6109
aI874
aI2047
aI2661
aI10121
aI10122
aI2670
aI5
aI7255
aI63765
asg6
S'Twelve non-Arab Asian countries condemned Israeli actions: China  India  Indonesia  Iran  Japan  Malaysia  Maldives  North Korea  Pakistan  Sri Lanka  Turkey and Uzbekistan .'
p11
ss.