(dp1
S'input'
p2
(dp3
S'encoded'
p4
(lp5
I64
aI2179
aI394
aI4325
aI2042
aI270
aI89
aI11605
aI3324
asS'ori'
p6
S'This house would fund education using a voucher scheme'
p7
ssS'output'
p8
(dp9
g4
(lp10
I2354
aI2041
aI256
aI182
aI9748
aI4722
aI2233
aI133
aI3
aI2543
aI5950
aI1881
aI298
aI155
aI9335
aI1191
aI5125
aI2446
aI63765
asg6
S'Crash research programs are hardly something  I believe  the Founding Fathers intended when they talked about equal rights .'
p11
ss.