(dp1
S'input'
p2
(dp3
S'encoded'
p4
(lp5
I64
aI2179
aI43
aI63
aI3
aI4990
aI4991
aI116
aI4850
aI24
aI12166
aI3
aI475
aI7
aI3532
aI3290
aI7
aI4714
asS'ori'
p6
S'This house believes that the Catholic Church is justified in forbidding the use of barrier methods of contraception'
p7
ssS'output'
p8
(dp9
g4
(lp10
I1920
aI134
aI116
aI3394
aI34
aI7332
aI37082
aI45
aI1292
aI419
aI13425
aI73
aI419
aI11785
aI7332
aI604
aI155
aI182
aI15
aI513
aI149
aI1112
aI63765
asg6
S'Nevertheless  it is recommended for condoms manufactures to avoid very thick  or very thin condoms  because they are both considered less effective  .'
p11
ss.