(dp1
S'input'
p2
(dp3
S'encoded'
p4
(lp5
I64
aI2179
aI43
aI63
aI2659
aI417
aI1690
aI3
aI12048
aI7
aI19084
asS'ori'
p6
S'This house believes that Israel should lift the blockade of Gaza'
p7
ssS'output'
p8
(dp9
g4
(lp10
I364
aI122
aI174
aI2238
aI75
aI89
aI2838
aI24
aI96
aI34
aI63734
aI5
aI75
aI89
aI12179
aI45
aI63740
aI2395
aI7
aI60
aI15485
aI6555
aI3203
aI572
aI9176
aI3203
aI5
aI982
aI376
aI2722
aI63765
asg6
S"Donors' activity was also characterized by a decline in support for PNGOs  and by a preference to concessionary loans (instead of grants) with generous grace periods  long repayment periods and low interest rates  ."
p11
ss.