(dp1
S'input'
p2
(dp3
S'encoded'
p4
(lp5
I64
aI2179
aI394
aI2773
aI12505
asS'ori'
p6
S'This house would embrace multiculturalism'
p7
ssS'output'
p8
(dp9
g4
(lp10
I134
aI3610
aI45
aI3218
aI2888
aI3527
aI1361
aI24
aI2328
aI3
aI306
aI7
aI70
aI2811
aI5125
aI4902
aI34
aI223
aI3236
aI34
aI64
aI2696
aI5
aI211
aI2622
aI3910
aI768
aI63
aI116
aI53
aI357
aI2118
aI1544
aI134
aI116
aI61
aI357
aI1781
aI24
aI279
asg6
S'"When it comes to our essential values  belief in democracy  the rule of law  tolerance  equal treatment for all  respect for this country and its shared heritage  then that is where we come together  it is what we hold in common ."'
p11
ss.