(dp1
S'input'
p2
(dp3
S'encoded'
p4
(lp5
I64
aI2179
aI43
aI223
aI2138
aI11
aI89
aI21
aI45
aI2185
aI372
asS'ori'
p6
S'This house believes all nations have a right to nuclear weapons'
p7
ssS'output'
p8
(dp9
g4
(lp10
I45
aI64
aI312
aI2450
aI5
aI3
aI626
aI187
aI2679
aI4293
aI89
aI2800
aI448
aI6293
aI9596
aI24
aI6466
aI34
aI2952
aI34
aI89
aI2533
aI63765
asg6
S"To this end  India and the United States jointly sponsored a UN General Assembly resolution in 1993 calling for negotiations for a 'cut-off' convention ."
p11
ss.