(dp1
S'input'
p2
(dp3
S'encoded'
p4
(lp5
I64
aI2179
aI394
aI4325
aI2042
aI270
aI89
aI11605
aI3324
asS'ori'
p6
S'This house would fund education using a voucher scheme'
p7
ssS'output'
p8
(dp9
g4
(lp10
I3007
aI2509
aI17
aI2702
aI2481
aI5
aI42
aI55
aI2856
aI34
aI725
aI2439
aI34
aI3
aI2326
aI45
aI316
aI5857
aI864
aI63765
asg6
S'Paul considers Social Security unconstitutional  and he has sought for many years for the program to be phased out  .'
p11
ss.