(dp1
S'input'
p2
(dp3
S'encoded'
p4
(lp5
I64
aI2179
aI394
aI2976
aI12243
aI24
aI954
aI126
aI1560
aI10723
asS'ori'
p6
S'This house would implement playoffs in collegiate level American football'
p7
ssS'output'
p8
(dp9
g4
(lp10
I34958
aI174
aI2428
aI134
aI394
aI11
aI89
aI1108
aI691
aI75
aI64
aI413
aI3
aI6764
aI3912
aI440
aI12
aI34880
aI41
aI3
aI8889
aI2333
aI63765
asg6
S'TCU also thought it would have a shot  since by this time the Mountain West had been reckoned as the strongest non-AQ conference .'
p11
ss.