(dp1
S'input'
p2
(dp3
S'encoded'
p4
(lp5
I64
aI2179
aI394
aI60
aI23587
asS'ori'
p6
S'This house would re-engage with Myanmar'
p7
ssS'output'
p8
(dp9
g4
(lp10
I50601
aI2935
aI5047
aI63
aI24
aI41470
aI3
aI50590
aI20501
aI9140
aI2180
aI2544
aI750
aI41478
aI41478
aI122
aI9249
aI75
aI631
aI29809
aI50602
aI41563
aI311
aI63765
aI1447
aI4150
aI311
aI732
aI3900
aI63765
asg6
S'Mizzima news reported that in Mandalay  the NLD divisional organising committee member Win Mya Mya was arrested by police sub-Inspector Tun Lwin Naung at 11&nbsp;p .m . last night at her home .'
p11
ss.