(dp1
S'input'
p2
(dp3
S'encoded'
p4
(lp5
I64
aI2179
aI43
aI63
aI134
aI116
aI400
aI21
aI34
aI3
aI260
aI45
aI3439
aI57
aI7
aI2381
asS'ori'
p6
S'This house believes that it is sometimes right for the government to restrict freedom of speech'
p7
ssS'output'
p8
(dp9
g4
(lp10
I3313
aI174
aI1966
aI63
aI2985
aI7
aI3
aI682
aI382
aI850
aI15283
aI45
aI316
aI5
aI3346
aI45
aI1191
aI3
aI217
aI125
aI2738
aI7
aI2023
aI70
aI5
aI2445
aI5
aI1706
aI6534
aI2010
aI5
aI713
aI786
aI13008
aI75
aI5050
aI2381
aI5
aI3
aI2234
aI7
aI63765
asg6
S'She also argued that critics of the commissions were causing Canadians to be "misled and lied to about the most basic aspects of Canadian law and human rights" and further stressed "the clear and present danger posed by discriminatory speech and the growth of e-hate .'
p11
ss.