(dp1
S'input'
p2
(dp3
S'encoded'
p4
(lp5
I64
aI2179
aI235
aI3
aI2136
aI7
aI3
aI2306
aI7
aI2390
asS'ori'
p6
S'This house supports the one-child policy of the republic of China'
p7
ssS'output'
p8
(dp9
g4
(lp10
I64
aI4309
aI45
aI6044
aI979
aI5136
aI24
aI1197
aI675
aI17790
aI23468
aI60011
aI8509
aI5
aI7
aI2346
aI5681
aI385
aI675
aI25127
asg6
S'This leads to somewhat lower costs in places like Beijing  Bangkok  Zaragoza  Phoenix  and  of course  coastal cities like Tripoli ."'
p11
ss.