(dp1
S'input'
p2
(dp3
S'encoded'
p4
(lp5
I64
aI2179
aI394
aI2017
aI3807
aI314
aI3433
asS'ori'
p6
S'This house would ban partial birth abortions'
p7
ssS'output'
p8
(dp9
g4
(lp10
I97
aI2198
aI116
aI63
aI3
aI143
aI230
aI4959
aI24
aI3
aI4960
aI7
aI41
aI3
aI4961
aI7
aI100
aI78
aI2931
aI45
aI316
aI938
aI136
aI4943
aI73
aI4947
aI138
aI3
aI4961
aI7
aI248
aI78
aI3
aI143
aI4962
aI45
aI4963
aI63
aI100
aI4964
aI182
aI938
aI136
aI1986
aI138
aI80
aI73
aI63
aI100
aI78
aI11
aI89
aI938
aI1352
aI21
aI45
aI3269
aI138
aI4965
aI877
aI63
aI116
aI788
aI45
aI316
aI4842
aI73
aI4966
aI63765
asg6
S'Another criticism is that the argument creates inequalities in the wrongness of killing: as the futures of some people appear to be far more valuable or desirable than the futures of other people  the argument appears to entail that some killings are far more wrong than others  or that some people have a far stronger right to life than othersa conclusion that is taken to be counterintuitive or unacceptable .'
p11
ss.