(dp1
S'input'
p2
(dp3
S'encoded'
p4
(lp5
I64
aI2179
aI394
aI2017
aI223
aI9058
aI23653
asS'ori'
p6
S'This house would ban all unsustainable logging'
p7
ssS'output'
p8
(dp9
g4
(lp10
I41
aI2173
aI24
aI10247
aI2475
aI6740
aI1413
aI34
aI7311
aI73
aI7987
aI116
aI513
aI51
aI1112
aI475
aI7
aI1413
aI5
aI116
aI3
aI734
aI1636
aI1413
aI3930
aI63765
asg6
S'As stated in Brazilian constitution  clearing land for crops or fields is considered an effective use of land and is the beginning towards land ownership  .'
p11
ss.