(dp1
S'input'
p2
(dp3
S'encoded'
p4
(lp5
I64
aI2179
aI394
aI2017
aI223
aI9058
aI23653
asS'ori'
p6
S'This house would ban all unsustainable logging'
p7
ssS'output'
p8
(dp9
g4
(lp10
I120
aI8491
aI689
aI3
aI596
aI7
aI1444
aI14
aI3
aI2411
aI6029
aI5
aI952
aI63
aI1967
aI14
aI6806
aI8254
aI6801
aI5
aI263
aI14
aI9319
aI45
aI11526
aI60
aI8254
aI9610
aI41
aI155
aI949
aI2456
aI2136
aI63765
asg6
S'Those attending recognized the importance of building on the vast knowledge and experience that exists on sustainable forest management (SFM) and called on negotiators to consult with forest stakeholders as they develop climate policy .'
p11
ss.