(dp1
S'input'
p2
(dp3
S'encoded'
p4
(lp5
I64
aI2179
aI394
aI5284
aI150
aI3987
asS'ori'
p6
S'This house would reintroduce national service'
p7
ssS'output'
p8
(dp9
g4
(lp10
I5259
aI2037
aI1237
aI188
aI1334
aI10496
aI34
aI25
aI10659
aI24
aI6632
aI5393
aI564
aI3299
aI4276
aI8861
aI725
aI15978
aI45
aI284
aI493
aI3
aI8598
aI15682
aI3405
aI1093
aI63765
aI24
aI8598
aI15682
aI3405
aI6285
aI81
aI440
aI2623
aI3761
aI5259
aI24
aI203
aI7024
aI5
aI1257
aI1334
aI10484
aI34
aI5040
aI5354
aI6220
aI5
aI809
aI2714
aI4276
aI878
aI15602
aI1309
aI63765
asg6
S"Rangel faced several Democratic primary challengers for his seat in 2010: Vincent Morgan  whose grassroots campaign bore many resemblances to Rangel's own against the scandal-plagued Adam Clayton Powell  Jr .  in 1970; Adam Clayton Powell IV  who had previously challenged Rangel in 1994; labor activist and past primary candidate for statewide office Jonathan Tasini; and former Obama campaign official Joyce Johnson  ."
p11
ss.