(dp1
S'input'
p2
(dp3
S'encoded'
p4
(lp5
I64
aI2179
aI394
aI16642
aI1376
aI5269
asS'ori'
p6
S'This house would subsidize poor communities'
p7
ssS'output'
p8
(dp9
g4
(lp10
I4583
aI5981
aI22547
aI3742
aI45
aI124
aI3
aI1761
aI45
aI12940
aI64
aI12027
aI7
aI130
aI63765
asg6
S'Gender Equity Indices seek to provide the tools to demonstrate this feature of poverty  .'
p11
ss.