(dp1
S'input'
p2
(dp3
S'encoded'
p4
(lp5
I64
aI2179
aI394
aI2017
aI3807
aI314
aI3433
asS'ori'
p6
S'This house would ban partial birth abortions'
p7
ssS'output'
p8
(dp9
g4
(lp10
I3
aI771
aI2494
aI16900
aI3
aI573
aI7
aI3
aI3486
aI4527
aI117
aI3
aI536
aI637
aI822
aI3
aI13760
aI63765
asg6
S'The doctor subsequently extracts the rest of the fetus  leaving only the head still inside the uterus .'
p11
ss.