(dp1
S'input'
p2
(dp3
S'encoded'
p4
(lp5
I64
aI2179
aI394
aI5284
aI150
aI3987
asS'ori'
p6
S'This house would reintroduce national service'
p7
ssS'output'
p8
(dp9
g4
(lp10
I24
aI2221
aI871
aI3
aI237
aI5262
aI2474
aI92
aI122
aI2425
aI75
aI5931
aI5932
aI63765
asg6
S'In 1940 Congress passed the first peace-time draft legislation  which was led by Grenville Clark .'
p11
ss.