(dp1
S'input'
p2
(dp3
S'encoded'
p4
(lp5
I64
aI2179
aI43
aI24
aI3
aI475
aI7
aI12436
aI3364
asS'ori'
p6
S'This house believes in the use of affirmative action'
p7
ssS'output'
p8
(dp9
g4
(lp10
I4983
aI5
aI4307
aI382
aI99
aI513
aI8564
aI45
aI8836
aI493
aI5786
aI75
aI4983
aI5
aI4307
aI122
aI12485
aI24
aI3744
aI7
aI70
aI63765
asg6
S'Christians and Jews were not considered equals to Muslims: testimony against Muslims by Christians and Jews was inadmissible in courts of law .'
p11
ss.