(dp1
S'input'
p2
(dp3
S'encoded'
p4
(lp5
I64
aI2179
aI394
aI475
aI2135
aI2194
aI6198
aI45
aI2041
aI5
aI13926
aI8732
aI63
aI1735
aI12708
aI5
aI5599
aI24
aI2203
aI45
aI1397
aI7149
aI5
aI12311
aI271
aI5119
aI4948
asS'ori'
p6
S'This house would use foreign aid funds to research and distribute software that allows bloggers and journalists in non-democratic countries to evade censorship and conceal their online activities'
p7
ssS'output'
p8
(dp9
g4
(lp10
I7151
aI545
aI89
aI8082
aI3500
aI88
aI316
aI615
aI73
aI5516
aI75
aI351
aI2018
aI41
aI759
aI7
aI3
aI1876
aI3262
aI7
aI14413
aI5
aI23011
aI3567
aI63765
asg6
S'Wikipedia: Content within a Wikipedia article may be modified or deleted by any editor as part of the normal process of editing and updating articles .'
p11
ss.