(dp1
S'input'
p2
(dp3
S'encoded'
p4
(lp5
I64
aI2179
aI394
aI60
aI23587
asS'ori'
p6
S'This house would re-engage with Myanmar'
p7
ssS'output'
p8
(dp9
g4
(lp10
I89
aI4276
aI8430
aI34
aI2586
aI14
aI41787
aI14
aI3
aI50676
aI7
aI25635
aI20624
aI324
aI6073
aI2217
aI138
aI50576
aI63
aI3293
aI1610
aI60
aI351
aI19170
aI7
aI11448
aI919
aI41
aI13799
aI86
aI7
aI271
aI546
aI3495
aI638
aI3
aI285
aI11
aI12
aI2376
aI9120
aI45
aI12800
aI27170
aI4946
aI3
aI4276
aI55
aI4155
aI45
aI1005
aI323
aI6124
aI5
aI2787
aI63765
asg6
S'A campaign labelled "Panties for Peace" began on 16 October; focussing on the superstitions of Burmas generals  particularly junta chief Than Shwe  that views contact with any item of womens wear as depriving them of their power  women throughout the world have been sending packages to Burmese embassies containing panties; the campaign has spread to Australia  Europe  Singapore and Thailand .'
p11
ss.