(dp1
S'input'
p2
(dp3
S'encoded'
p4
(lp5
I64
aI2179
aI394
aI60
aI23587
asS'ori'
p6
S'This house would re-engage with Myanmar'
p7
ssS'output'
p8
(dp9
g4
(lp10
I2157
aI2791
aI3
aI1581
aI7
aI89
aI33127
aI24
aI267
aI1410
aI385
aI41470
aI5
aI31858
aI63765
asg6
S"Burma's military announced the lifting of a curfew in two main cities  Mandalay and Yangon ."
p11
ss.