(dp1
S'input'
p2
(dp3
S'encoded'
p4
(lp5
I64
aI2179
aI394
aI2017
aI3807
aI314
aI3433
asS'ori'
p6
S'This house would ban partial birth abortions'
p7
ssS'output'
p8
(dp9
g4
(lp10
I14810
aI289
aI3
aI1257
aI292
aI2467
aI11
aI547
aI4710
aI63
aI182
aI89
aI1896
aI3286
aI149
aI138
aI3286
aI5545
aI45
aI3514
aI1642
aI3
aI3282
aI63765
asg6
S"Advances over the past three decades have allowed fetuses that are a few weeks less than 24 weeks old to survive outside the mother's womb ."
p11
ss.