(dp1
S'input'
p2
(dp3
S'encoded'
p4
(lp5
I64
aI2179
aI394
aI2976
aI12243
aI24
aI954
aI126
aI1560
aI10723
asS'ori'
p6
S'This house would implement playoffs in collegiate level American football'
p7
ssS'output'
p8
(dp9
g4
(lp10
I378
aI10665
aI34
aI89
aI4464
aI754
aI298
aI155
aI13361
aI24
aI3
aI5563
aI34949
aI10170
aI267
aI30109
aI470
aI3
aI28386
aI34
aI89
aI2333
aI410
aI45
aI1192
aI89
aI4464
aI63765
asg6
S"However  TCU's chances for a bid ended when they finished 18th in the final BCS rankings  two slots below the cutoff for a non-AQ conference champion to get a bid ."
p11
ss.