(dp1
S'input'
p2
(dp3
S'encoded'
p4
(lp5
I64
aI2179
aI394
aI1499
aI177
aI1819
aI34
aI160
asS'ori'
p6
S'This house would build high rises for housing'
p7
ssS'output'
p8
(dp9
g4
(lp10
I14945
aI60
aI39271
aI22821
aI4292
aI63
aI24
aI23994
aI5
aI16256
aI3
aI385
aI63
aI440
aI344
aI217
aI117
aI2151
aI2642
aI382
aI6521
aI5
aI60
aI9473
aI3056
aI153
aI773
aI41
aI982
aI41
aI63765
asg6
S'Tonight with Trevor McDonald highlighted that in Leeds and Manchester (perhaps the cities that had seen most development) only approximately half were occupied and with owner occupation often being as low as 10% .'
p11
ss.