(dp1
S'input'
p2
(dp3
S'encoded'
p4
(lp5
I64
aI2179
aI394
aI2017
aI223
aI9058
aI23653
asS'ori'
p6
S'This house would ban all unsustainable logging'
p7
ssS'output'
p8
(dp9
g4
(lp10
I7808
aI18865
aI182
aI121
aI45
aI96
aI2445
aI3269
aI63765
asg6
S'Tropical rainforests are unable to support human life  .'
p11
ss.