(dp1
S'input'
p2
(dp3
S'encoded'
p4
(lp5
I64
aI2179
aI394
aI2017
aI3807
aI314
aI3433
asS'ori'
p6
S'This house would ban partial birth abortions'
p7
ssS'output'
p8
(dp9
g4
(lp10
I380
aI1356
aI159
aI41
aI3859
aI15673
aI45
aI3
aI3271
aI1160
aI7
aI96
aI5
aI170
aI3293
aI14
aI3257
aI88
aI3226
aI3
aI11560
aI7
aI9411
aI4099
aI3621
aI63765
asg6
S'Various factors  such as emotional attachment to the pregnancy  lack of support  and conservative views on abortion  may increase the likelihood of experiencing negative reactions .'
p11
ss.