(dp1
S'input'
p2
(dp3
S'encoded'
p4
(lp5
I64
aI2179
aI394
aI475
aI2135
aI2194
aI6198
aI45
aI2041
aI5
aI13926
aI8732
aI63
aI1735
aI12708
aI5
aI5599
aI24
aI2203
aI45
aI1397
aI7149
aI5
aI12311
aI271
aI5119
aI4948
asS'ori'
p6
S'This house would use foreign aid funds to research and distribute software that allows bloggers and journalists in non-democratic countries to evade censorship and conceal their online activities'
p7
ssS'output'
p8
(dp9
g4
(lp10
I233
aI45
aI3
aI927
aI34
aI3296
aI2328
aI3
aI7147
aI61
aI155
aI4918
aI22
aI182
aI1727
aI136
aI1856
aI138
aI582
aI2144
aI45
aI2830
aI41
aI3357
aI3024
aI887
aI271
aI2716
aI6508
aI5
aI3417
aI63765
aI63765
aI7
aI2625
aI156
aI41
aI62120
aI63765
aI3218
aI2035
aI353
aI63
aI7
aI5119
aI22
aI2144
aI182
aI62120
asg6
S'According to the Institute for Politics  Democracy & the Internet  what they call "Online Political Citizens" (OPCs) are "seven times more likely than average citizens to serve as opinion leaders among their friends  relatives and colleagues . . .Normally  10% of Americans qualify as Influentials . Our study found that 69% of Online Political Citizens are Influentials ."'
p11
ss.