(dp1
S'input'
p2
(dp3
S'encoded'
p4
(lp5
I64
aI2179
aI43
aI63
aI11083
aI10046
aI417
aI316
aI89
aI3135
aI4603
asS'ori'
p6
S'This house believes that Holocaust denial should be a criminal offence'
p7
ssS'output'
p8
(dp9
g4
(lp10
I3
aI3516
aI122
aI641
aI34
aI3
aI6985
aI7
aI18420
aI89
aI63765
aI48017
aI1210
aI18382
aI5
aI2204
aI48002
aI41
aI720
aI6002
aI34
aI48014
aI5
aI34
aI3
aI8475
aI7
aI3
aI48017
aI905
aI41
aI89
aI720
aI11558
aI63765
asg6
S'The 1988 trial was notable for the appearance of Fred A . Leuchter  David Irving and Robert Faurisson as defense witnesses for Zundel  and for the presentation of the pseudo-scientific Leuchter report as a defense document .'
p11
ss.