(dp1
S'input'
p2
(dp3
S'encoded'
p4
(lp5
I64
aI2179
aI394
aI60
aI23587
asS'ori'
p6
S'This house would re-engage with Myanmar'
p7
ssS'output'
p8
(dp9
g4
(lp10
I89
aI905
aI1191
aI10685
aI3089
aI493
aI12081
aI3507
aI93
aI5290
aI81
aI9751
aI116
aI859
aI1928
aI4150
aI63765
asg6
S'A report about nightly actions against demonstrators quoted one resident who said: "The repression is continuing every night .'
p11
ss.