(dp1
S'input'
p2
(dp3
S'encoded'
p4
(lp5
I64
aI2179
aI394
aI163
aI959
aI2042
aI3557
asS'ori'
p6
S'This house would make physical education compulsory'
p7
ssS'output'
p8
(dp9
g4
(lp10
I3
aI437
aI2035
aI174
aI353
aI63
aI257
aI25313
aI764
aI751
aI2439
aI7
aI3485
aI16329
aI24
aI17820
aI116
aI1856
aI45
aI316
aI136
aI5012
aI63765
asg6
S'The latter study also found that if overweight begins before 8 years of age  obesity in adulthood is likely to be more severe  .'
p11
ss.