(dp1
S'input'
p2
(dp3
S'encoded'
p4
(lp5
I64
aI2179
aI394
aI2773
aI12505
asS'ori'
p6
S'This house would embrace multiculturalism'
p7
ssS'output'
p8
(dp9
g4
(lp10
I75
aI9227
aI14
aI1198
aI9025
aI45
aI64
aI11558
aI75
aI3270
aI63
aI3
aI117
aI2446
aI24
aI6372
aI9730
aI182
aI3
aI2446
aI7
aI3
aI237
aI2138
aI63765
asg6
S'By signing on  you default to this document by saying that the only rights in play here are the rights of the First Nations .'
p11
ss.