(dp1
S'input'
p2
(dp3
S'encoded'
p4
(lp5
I64
aI2179
aI394
aI16642
aI1376
aI5269
asS'ori'
p6
S'This house would subsidize poor communities'
p7
ssS'output'
p8
(dp9
g4
(lp10
I1202
aI7
aI64
aI394
aI1074
aI6025
aI63
aI1619
aI2146
aI643
aI950
aI6418
aI1441
aI73
aI89
aI177
aI126
aI7
aI2038
aI63765
asg6
S'Examples of this would include jobs that require highly developed skills  rare abilities  or a high level of risk .'
p11
ss.