(dp1
S'input'
p2
(dp3
S'encoded'
p4
(lp5
I64
aI2179
aI394
aI5370
aI7146
aI4585
aI2446
asS'ori'
p6
S'This house would abolish intellectual property rights'
p7
ssS'output'
p8
(dp9
g4
(lp10
I24
aI5958
aI7
aI64
aI725
aI12717
aI17029
aI182
aI4141
aI75
aI89
aI839
aI1039
aI45
aI3
aI24201
aI171
aI24
aI128
aI45
aI5426
aI3
aI6037
aI864
aI7
aI2483
aI63765
asg6
S'In light of this many copyright disputes are settled by a direct approach to the infringing party in order to settle the dispute out of court .'
p11
ss.