(dp1
S'input'
p2
(dp3
S'encoded'
p4
(lp5
I64
aI2179
aI43
aI63
aI1036
aI4828
aI33250
aI116
aI25073
aI45
aI3315
aI4562
asS'ori'
p6
S'This house believes that male infant circumcision is tantamount to child abuse'
p7
ssS'output'
p8
(dp9
g4
(lp10
I153
aI37796
aI5060
aI33293
aI139
aI316
aI12090
aI75
aI16871
aI3
aI33223
aI45
aI1616
aI3
aI33220
aI1592
aI33262
aI12624
aI63765
asg6
S'Often iatrogenically induced  paraphimosis can be prevented by returning the prepuce to cover the glans following penile manipulation .'
p11
ss.