(dp1
S'input'
p2
(dp3
S'encoded'
p4
(lp5
I64
aI2179
aI43
aI63
aI323
aI417
aI10009
aI211
aI9035
aI249
aI45
aI3426
aI211
aI2144
aI595
aI17
aI96
asS'ori'
p6
S'This house believes that Europe should weaken its austerity measures to guarantee its citizens greater social support'
p7
ssS'output'
p8
(dp9
g4
(lp10
I3
aI6085
aI9526
aI45
aI3
aI3545
aI7
aI667
aI2573
aI24
aI51
aI52
aI1563
aI89
aI4742
aI3569
aI7
aI1171
aI9527
aI4807
aI99
aI12
aI63765
asg6
S"The Greek banksvital to the provision of new investment in an economy facing a sixth year of continuous recessionhave certainly not been 'rescued'  .&nbsp; .&nbsp; ."
p11
ss.