(dp1
S'input'
p2
(dp3
S'encoded'
p4
(lp5
I64
aI2179
aI43
aI223
aI2138
aI11
aI89
aI21
aI45
aI2185
aI372
asS'ori'
p6
S'This house believes all nations have a right to nuclear weapons'
p7
ssS'output'
p8
(dp9
g4
(lp10
I3
aI5563
aI752
aI14
aI12073
aI3
aI2940
aI116
aI3
aI3896
aI7
aI3
aI169
aI1405
aI2161
aI5
aI574
aI8843
aI7
aI64
aI5354
aI116
aI534
aI45
aI3411
aI3446
aI6035
aI7
aI1447
aI13287
aI45
aI3
aI5723
aI7
aI3
aI869
aI34745
aI12033
aI63765
asg6
S'The final decision on firing the missiles is the responsibility of the British Prime Minister  and each holder of this office is required to write personal letters of last resort to the commanders of the four Trident missile-carrying submarines .'
p11
ss.