(dp1
S'input'
p2
(dp3
S'encoded'
p4
(lp5
I64
aI2179
aI43
aI24
aI3
aI475
aI7
aI12436
aI3364
asS'ori'
p6
S'This house believes in the use of affirmative action'
p7
ssS'output'
p8
(dp9
g4
(lp10
I51
aI1343
aI7
aI64
aI394
aI316
aI89
aI4758
aI12028
aI12912
aI252
aI5004
aI45
aI73
aI6029
aI7
aI3
aI10250
aI4935
aI7
aI10248
aI63765
asg6
S'An example of this would be a college processing admissions without regard to or knowledge of the racial characteristics of applicants  .'
p11
ss.