(dp1
S'input'
p2
(dp3
S'encoded'
p4
(lp5
I64
aI2179
aI394
aI5370
aI3
aI5286
asS'ori'
p6
S'This house would abolish the monarchy'
p7
ssS'output'
p8
(dp9
g4
(lp10
I12088
aI2781
aI15297
aI34
aI51
aI903
aI12088
aI15298
aI41
aI3
aI6367
aI399
aI1852
aI75
aI3
aI1523
aI1136
aI5667
aI12738
aI15299
aI3
aI5286
aI122
aI9274
aI41
aI89
aI3997
aI7
aI6773
aI1052
aI298
aI4332
aI7188
aI382
aI24
aI221
aI493
aI5352
aI5405
aI2236
aI5
aI15300
aI1567
aI271
aI15301
aI14
aI732
aI8323
aI298
aI3313
aI4020
aI12088
aI4996
aI63
aI3569
aI63765
asg6
S'Quebec nationalists agitated for an independent Quebec republicsuch as the Marxist form desired by the Front de liberation du Quebecand the monarchy was targeted as a symbol of anti-Anglophone demonstration  notably when assassination threats were in 1964 made against Queen Elizabeth II and Quebecers turned their backs on her procession when she toured Quebec City that year .'
p11
ss.