(dp1
S'input'
p2
(dp3
S'encoded'
p4
(lp5
I64
aI2179
aI13605
aI2258
aI45
aI2194
asS'ori'
p6
S'This house prefers trade to aid'
p7
ssS'output'
p8
(dp9
g4
(lp10
I397
aI63
aI413
aI8598
aI5549
aI4000
aI2973
aI493
aI3
aI7
aI5938
aI3820
aI45
aI951
aI502
aI311
aI3
aI5084
aI7
aI3
aI8678
aI63765
asg6
S'During that time  Adam Smith famously warned against the "interested sophistry" of industry  seeking to gain advantage at the cost of the consumers  .'
p11
ss.