(dp1
S'input'
p2
(dp3
S'encoded'
p4
(lp5
I64
aI2179
aI43
aI24
aI3
aI475
aI7
aI12436
aI3364
asS'ori'
p6
S'This house believes in the use of affirmative action'
p7
ssS'output'
p8
(dp9
g4
(lp10
I8532
aI2686
aI24
aI2178
aI4364
aI646
aI63765
aI13289
aI2240
aI3337
aI443
aI63765
asg6
S'Parents Involved in Community Schools v . Seattle School District No .'
p11
ss.