(dp1
S'input'
p2
(dp3
S'encoded'
p4
(lp5
I64
aI2179
aI43
aI8629
aI116
aI3
aI117
aI998
asS'ori'
p6
S'This house believes atheism is the only way'
p7
ssS'output'
p8
(dp9
g4
(lp10
I3
aI3661
aI116
aI3
aI1643
aI3375
aI34
aI63
aI18608
aI116
aI59
aI75
aI42525
aI595
aI1228
aI116
aI59
aI75
aI595
aI3148
aI5
aI87
aI14
aI63765
asg6
S'The problem is the same except for that omnibenevolence is replaced by omnimalevolence  greater good is replaced by greater evil  and so on .'
p11
ss.