(dp1
S'input'
p2
(dp3
S'encoded'
p4
(lp5
I64
aI2179
aI43
aI63
aI1036
aI4828
aI33250
aI116
aI25073
aI45
aI3315
aI4562
asS'ori'
p6
S'This house believes that male infant circumcision is tantamount to child abuse'
p7
ssS'output'
p8
(dp9
g4
(lp10
I233
aI45
aI89
aI905
aI75
aI3
aI2330
aI38966
aI2961
aI2904
aI3
aI10722
aI81
aI4830
aI60
aI25
aI3459
aI2969
aI45
aI4601
aI25
aI4928
aI34
aI9064
aI63765
asg6
S'According to a report by the German ddp press agency  the boy  who lives with his mother  plans to sue his father for 10 000 Euro  .'
p11
ss.