(dp1
S'input'
p2
(dp3
S'encoded'
p4
(lp5
I64
aI2179
aI394
aI2017
aI262
asS'ori'
p6
S'This house would ban boxing'
p7
ssS'output'
p8
(dp9
g4
(lp10
I1202
aI1074
aI20366
aI381
aI159
aI41
aI14969
aI73
aI40669
aI14016
aI16749
aI15059
aI20568
aI11254
aI33949
aI5
aI38505
aI63765
asg6
S'Examples include precision sports such as golf or curling  bodybuilding  tennis  cricket  volleyball  swimming  sprinting  and gymnastics .'
p11
ss.