(dp1
S'input'
p2
(dp3
S'encoded'
p4
(lp5
I64
aI2179
aI394
aI1499
aI177
aI1819
aI34
aI160
asS'ori'
p6
S'This house would build high rises for housing'
p7
ssS'output'
p8
(dp9
g4
(lp10
I155
aI2824
aI89
aI2323
aI34
aI773
aI224
aI982
aI5084
aI160
asg6
S'they grew a reputation for being undesirable low cost housing'
p11
ss.