(dp1
S'input'
p2
(dp3
S'encoded'
p4
(lp5
I64
aI2179
aI43
aI63
aI2203
aI60
aI51
aI997
aI2837
aI21716
aI1636
aI5349
aI417
aI2998
aI8532
aI45
aI3051
aI8578
asS'ori'
p6
S'This house believes that countries with an imbalanced male/female ratio skewed towards males should encourage parents to produce girls'
p7
ssS'output'
p8
(dp9
g4
(lp10
I6426
aI260
aI2962
aI342
aI63
aI3
aI11389
aI2837
aI34
aI18559
aI116
aI166
aI24
aI3945
aI2506
aI159
aI41
aI17792
aI5
aI37147
aI2449
aI45
aI3
aI582
aI7
aI24
aI643
aI2203
aI63765
asg6
S'Chinese government reports show that the sex ratio for newborns is 118:100 (boys:girls)  higher in rural areas such as Guangdong and Hainan (130:100) compared to the average of 104:100 in developed countries .'
p11
ss.