(dp1
S'input'
p2
(dp3
S'encoded'
p4
(lp5
I64
aI2179
aI235
aI3858
aI3
aI2240
aI4527
aI3485
aI45
asS'ori'
p6
S'This house supports raising the school leaving age to 18'
p7
ssS'output'
p8
(dp9
g4
(lp10
I1334
aI2042
aI694
aI7
aI3
aI237
aI7
aI2488
aI16063
aI2042
aI63765
asg6
S'Primary (or elementary) education consists of the first 57&nbsp;years of formal  structured education .'
p11
ss.