(dp1
S'input'
p2
(dp3
S'encoded'
p4
(lp5
I64
aI2179
aI394
aI2017
aI3807
aI314
aI3433
asS'ori'
p6
S'This house would ban partial birth abortions'
p7
ssS'output'
p8
(dp9
g4
(lp10
I14
aI2959
aI3
aI2482
aI2483
aI3382
aI45
aI3212
aI3
aI3257
aI2017
aI2784
aI75
aI89
aI752
aI7
aI63765
asg6
S'On April 18  2007  the Supreme Court voted to uphold the Partial-Birth Abortion Ban Act by a decision of 5-4  .'
p11
ss.