(dp1
S'input'
p2
(dp3
S'encoded'
p4
(lp5
I64
aI2179
aI43
aI63
aI3376
aI4938
aI417
aI316
aI3537
asS'ori'
p6
S'This house believes that endangered species should be protected'
p7
ssS'output'
p8
(dp9
g4
(lp10
I3
aI3445
aI7
aI16581
aI7862
aI4938
aI122
aI2428
aI45
aI316
aI237
aI1158
aI75
aI3
aI482
aI4179
aI5
aI4705
aI4035
aI38401
aI8267
aI114
aI134
aI88
aI11
aI12
aI237
aI416
aI24
aI495
aI4179
aI38402
aI768
aI24
aI4380
aI63765
aI3007
aI4179
aI38403
aI285
aI5
aI395
aI24
aI38404
aI4179
aI38405
aI92
aI13933
aI3
aI8615
aI7
aI89
aI38406
aI63765
asg6
S"The concept of cloning extinct species was thought to be first popularized by the successful novel and subsequent film Jurassic Park  though it may have been first used in John Brosnan's 1984 novel Carnosaur  then in F . Paul Wilson's 1989 novel Dydeetown World  and later in Piers Anthony's 1990 novel Balook  which featured the resurrection of a Baluchitherium ."
p11
ss.