(dp1
S'input'
p2
(dp3
S'encoded'
p4
(lp5
I64
aI2179
aI394
aI16642
aI1376
aI5269
asS'ori'
p6
S'This house would subsidize poor communities'
p7
ssS'output'
p8
(dp9
g4
(lp10
I24
aI25
aI26
aI3
aI27
aI10
aI28
aI22
aI29
aI30
aI31
aI32
aI25
aI33
aI34
aI3
aI35
aI36
aI7
aI37
aI38
aI5
aI39
aI40
aI41
aI42
aI43
aI44
aI45
aI46
aI38
aI47
aI48
aI49
aI50
aI45
aI51
aI52
aI53
aI10
aI54
aI55
aI56
aI3
aI57
aI7
aI38
aI5
aI58
aI59
aI38
aI60
aI61
aI42
aI62
aI3
aI27
aI10
aI63765
asg6
S'In his book  The Servile State  English political writer Hilaire Belloc makes his case for the natural instability of pure capitalism and discusses how  as he believes  attempts to reform capitalism will lead almost inexorably to an economy where state regulation has removed the freedom of capitalism and thereby replaced capitalism with what he calls the Servile State .'
p11
ss.