(dp1
S'input'
p2
(dp3
S'encoded'
p4
(lp5
I64
aI2179
aI394
aI5370
aI3
aI5286
asS'ori'
p6
S'This house would abolish the monarchy'
p7
ssS'output'
p8
(dp9
g4
(lp10
I2359
aI186
aI63
aI5285
aI116
aI3
aI1608
aI8050
aI783
aI2368
aI89
aI1518
aI188
aI2475
aI92
aI10520
aI89
aI696
aI7
aI1277
aI214
aI63765
asg6
S'Republicans argue that republicanism is the next logical step toward a fully democratic constitution which answers a number of key issues .'
p11
ss.