(dp1
S'input'
p2
(dp3
S'encoded'
p4
(lp5
I64
aI2179
aI394
aI2017
aI3807
aI314
aI3433
asS'ori'
p6
S'This house would ban partial birth abortions'
p7
ssS'output'
p8
(dp9
g4
(lp10
I41
aI643
aI4836
aI182
aI14
aI89
aI11473
aI16782
aI7
aI595
aI5
aI4270
aI16783
aI34
aI1343
aI182
aI136
aI12598
aI5
aI138
aI3
aI4836
aI234
aI83
aI16784
aI4145
aI100
aI1341
aI4927
aI7
aI2891
aI41
aI3
aI957
aI34
aI3
aI21
aI45
aI16785
aI3
aI234
aI116
aI120
aI564
aI4836
aI182
aI136
aI643
aI394
aI11
aI136
aI7
aI89
aI21
aI45
aI3269
aI14
aI3
aI16786
aI3
aI234
aI12983
aI357
aI223
aI11
aI51
aI5125
aI21
aI45
aI5
aI3
aI11473
aI7
aI643
aI4836
aI32
aI3
aI1802
aI957
aI311
aI92
aI3561
aI16787
aI3840
aI5
aI2445
aI4818
aI589
aI63
aI957
aI3943
aI291
aI93
aI5
aI267
aI2439
aI7
aI3485
aI47
aI11
aI89
aI16788
aI73
aI16789
aI3292
aI16790
aI273
aI116
aI443
aI159
aI16791
aI14
aI3
aI234
aI63765
asg6
S"As developed capacities are on a continuum  admitting of greater and lesser degreessome  for example  are more rational and self-conscious than otherstherefore: (1) the 'developed capacities view must arbitrarily select some particular degree of development as the cut-off point for the right to lifewhereas the 'natural capacities' view is non-arbitrary; (2) those whose capacities are more developed would have more of a right to life on the 'developed capacities' viewwhereas the 'natural capacities' view entails we all have an equal right to life; and (3) the continuum of developed capacities makes the exact point at which personhood ensues vague  and human beings around that point  say between one and two years of age  will have a shadowy or indeterminate moral statuswhereas there is no such indeterminacy on the 'natural capacities' view  ."
p11
ss.