(dp1
S'input'
p2
(dp3
S'encoded'
p4
(lp5
I64
aI2179
aI394
aI117
aI7428
aI21151
aI34
aI11389
aI2042
aI24
aI4364
asS'ori'
p6
S'This house would only teach abstinence for sex education in schools'
p7
ssS'output'
p8
(dp9
g4
(lp10
I887
aI5615
aI78
aI9633
aI24
aI100
aI399
aI7
aI8803
aI364
aI12197
aI7
aI25980
aI4793
aI63765
asg6
S'Among young people engaging in some form of sexual activity  definitions of virginity differ .'
p11
ss.