(dp1
S'input'
p2
(dp3
S'encoded'
p4
(lp5
I64
aI2179
aI43
aI63
aI187
aI417
aI99
aI16642
aI3
aI6449
aI7
aI3935
asS'ori'
p6
S'This house believes that states should not subsidize the growing of tobacco'
p7
ssS'output'
p8
(dp9
g4
(lp10
I1200
aI187
aI34
aI839
aI6751
aI382
aI7596
aI3882
aI5
aI2298
aI63765
asg6
S'Top states for direct payments were Iowa ($501 million)  Illinois ($454 million)  and Texas ($397 million) .'
p11
ss.