(dp1
S'input'
p2
(dp3
S'encoded'
p4
(lp5
I64
aI2179
aI43
aI63
aI3
aI21
aI45
aI12715
aI417
aI99
aI316
aI2897
asS'ori'
p6
S'This house believes that the right to asylum should not be absolute'
p7
ssS'output'
p8
(dp9
g4
(lp10
I134
aI2818
aI4669
aI61
aI134
aI3026
aI41
aI3
aI1277
aI845
aI7
aI2589
aI19
aI63765
asg6
S'It directly addressed what it saw as the key issue of migration from "coloured territories" .'
p11
ss.