(dp1
S'input'
p2
(dp3
S'encoded'
p4
(lp5
I64
aI2179
aI394
aI2017
aI262
asS'ori'
p6
S'This house would ban boxing'
p7
ssS'output'
p8
(dp9
g4
(lp10
I381
aI182
aI381
aI24
aI92
aI3
aI442
aI182
aI4555
aI3075
aI45
aI881
aI1610
aI291
aI12338
aI843
aI519
aI73
aI17320
aI63765
asg6
S'Limited-contact sports are sports in which the rules are specifically designed to prevent contact between players either intentionally or unintentionally .'
p11
ss.