(dp1
S'input'
p2
(dp3
S'encoded'
p4
(lp5
I64
aI2179
aI43
aI63
aI3
aI4990
aI4991
aI116
aI4850
aI24
aI12166
aI3
aI475
aI7
aI3532
aI3290
aI7
aI4714
asS'ori'
p6
S'This house believes that the Catholic Church is justified in forbidding the use of barrier methods of contraception'
p7
ssS'output'
p8
(dp9
g4
(lp10
I675
aI25
aI10872
aI9630
aI9631
aI116
aI21290
aI170
aI5
aI25
aI5204
aI5
aI8767
aI8032
aI776
aI3492
aI4990
aI2860
aI5
aI3527
aI63765
asg6
S'Like his predecessor  Benedict XVI is theologically conservative and his teaching and prolific writings defend traditional Catholic doctrine and values .'
p11
ss.