(dp1
S'input'
p2
(dp3
S'encoded'
p4
(lp5
I64
aI2179
aI394
aI4325
aI2042
aI270
aI89
aI11605
aI3324
asS'ori'
p6
S'This house would fund education using a voucher scheme'
p7
ssS'output'
p8
(dp9
g4
(lp10
I394
aI5370
aI3
aI2176
aI7
aI2042
aI5
aI6726
aI2503
aI2397
aI5
aI174
aI2807
aI443
aI3315
aI20
aI1265
aI63765
asg6
S'Would abolish the Department of Education and eliminate federal grants and regulation; also opposes No Child Left Behind .'
p11
ss.