(dp1
S'input'
p2
(dp3
S'encoded'
p4
(lp5
I64
aI2179
aI43
aI63
aI3
aI4991
aI7
aI180
aI417
aI316
aI5396
aI19
aI3
aI169
aI10
asS'ori'
p6
S'This house believes that the Church of England should be separated from the British state'
p7
ssS'output'
p8
(dp9
g4
(lp10
I3
aI2050
aI6080
aI7
aI4991
aI5
aI10
aI92
aI2586
aI60
aI3
aI70
aI55
aI322
aI736
aI61
aI100
aI1792
aI41
aI89
aI7
aI22
aI11647
aI63
aI221
aI1804
aI2382
aI736
aI658
aI2181
aI89
aI281
aI11055
aI63765
asg6
S'The strict separation of church and state which began with the 1905 law has evolved into what some see as a "form of political correctness that made bringing religion into public affairs a major taboo .'
p11
ss.