(dp1
S'input'
p2
(dp3
S'encoded'
p4
(lp5
I64
aI2179
aI235
aI3
aI2136
aI7
aI3
aI2306
aI7
aI2390
asS'ori'
p6
S'This house supports the one-child policy of the republic of China'
p7
ssS'output'
p8
(dp9
g4
(lp10
I3
aI3661
aI34
aI132
aI12716
aI116
aI99
aI3
aI1160
aI7
aI2635
aI24
aI1617
aI8117
aI24
aI3955
aI159
aI41
aI6719
aI3
aI131
aI3
aI959
aI60046
aI7
aI6785
aI2411
aI2711
aI7
aI78
aI736
aI1617
aI45
aI17783
aI14
aI6267
aI63765
asg6
S'The problem for these authors is not the lack of resources in space (as shown in books such as Mining the Sky)  but the physical impracticality of shipping vast numbers of people into space to "solve" overpopulation on Earth .'
p11
ss.