(dp1
S'input'
p2
(dp3
S'encoded'
p4
(lp5
I64
aI2179
aI394
aI3830
aI3
aI475
aI7
aI9441
aI13132
aI3102
aI24
aI276
aI381
asS'ori'
p6
S'This house would permit the use of performance enhancing drugs in professional sports'
p7
ssS'output'
p8
(dp9
g4
(lp10
I24
aI89
aI2035
aI22176
aI1869
aI695
aI63
aI3
aI532
aI7
aI13422
aI4867
aI122
aI183
aI982
aI45
aI11
aI351
aI7119
aI782
aI63765
asg6
S"In 2002  a study replicating Brown-Sequard's method determined that the amount of testosterone obtained was too low to have any clinical effect  ."
p11
ss.