(dp1
S'input'
p2
(dp3
S'encoded'
p4
(lp5
I64
aI2179
aI43
aI63
aI7382
aI116
aI400
aI4713
asS'ori'
p6
S'This house believes that bribery is sometimes acceptable'
p7
ssS'output'
p8
(dp9
g4
(lp10
I2148
aI4657
aI5
aI3
aI282
aI2154
aI2574
aI574
aI23328
aI60
aI658
aI5389
aI5
aI107
aI1760
aI7092
aI45
aI16325
aI1557
aI7
aI92
aI2148
aI4657
aI3012
aI41
aI3
aI658
aI189
aI63
aI881
aI184
aI73
aI17928
aI7170
aI63765
asg6
S'Global Integrity and the International Budget Partnership each dispense with public surveys and instead uses in-country experts to evaluate "the opposite of corruption"  which Global Integrity defines as the public policies that prevent  discourage  or expose corruption  .'
p11
ss.