(dp1
S'input'
p2
(dp3
S'encoded'
p4
(lp5
I64
aI2179
aI394
aI16642
aI1376
aI5269
asS'ori'
p6
S'This house would subsidize poor communities'
p7
ssS'output'
p8
(dp9
g4
(lp10
I6779
aI54019
aI59545
aI2802
aI55
aI2933
aI2935
aI63
aI3
aI10070
aI78
aI5
aI120
aI24
aI3
aI3945
aI2506
aI589
aI59483
aI59484
aI11
aI99
aI12
aI9400
aI7166
aI1191
aI3
aI2762
aI5
aI273
aI116
aI89
aI325
aI250
aI7
aI31254
aI63765
asg6
S'6-1-2005: MEP Eva Lichtenberger  question E-3589/04"Parliament has received news that the indigenous people and those in the rural areas around Montes Azules have not been duly informed about the project and there is a great deal of mistrust .'
p11
ss.