(dp1
S'input'
p2
(dp3
S'encoded'
p4
(lp5
I64
aI2179
aI394
aI190
aI3
aI21
aI45
aI3895
aI834
asS'ori'
p6
S'This house would limit the right to bear arms'
p7
ssS'output'
p8
(dp9
g4
(lp10
I233
aI45
aI89
aI12435
aI4370
aI9196
aI5
aI4330
aI34003
aI513
aI4283
aI3
aI217
aI2147
aI4387
aI94
aI63765
asg6
S'According to a 1999 Fortune survey  lawmakers and congressional staffers considered NRA the most influential lobbying group  .'
p11
ss.