(dp1
S'input'
p2
(dp3
S'encoded'
p4
(lp5
I64
aI2179
aI13605
aI2258
aI45
aI2194
asS'ori'
p6
S'This house prefers trade to aid'
p7
ssS'output'
p8
(dp9
g4
(lp10
I368
aI2138
aI417
aI12105
aI89
aI4442
aI7
aI271
aI2153
aI41
aI695
aI75
aI3
aI2800
aI5
aI16602
aI137
aI736
aI7277
aI5026
aI2203
aI12976
aI3
aI12977
aI63765
asg6
S'Western nations should donate a percentage of their GDP as determined by the UN  and pump money into helping impoverished countries climb the ladder .'
p11
ss.