(dp1
S'input'
p2
(dp3
S'encoded'
p4
(lp5
I64
aI2179
aI394
aI2741
aI3
aI1560
aI6025
aI2784
asS'ori'
p6
S'This house would pass the American Jobs Act'
p7
ssS'output'
p8
(dp9
g4
(lp10
I182
aI10001
aI2032
aI75
aI2206
aI2164
aI2713
aI2714
aI24
aI89
aI4465
aI12047
aI4506
aI45
aI89
aI2564
aI9621
aI7
aI2221
aI14
aI2555
aI63765
asg6
S'12) are bills proposed by US President Barack Obama in a nationally televised address to a joint session of Congress on September 8  2011  .'
p11
ss.