(dp1
S'input'
p2
(dp3
S'encoded'
p4
(lp5
I64
aI2179
aI394
aI60
aI23587
asS'ori'
p6
S'This house would re-engage with Myanmar'
p7
ssS'output'
p8
(dp9
g4
(lp10
I64
aI3019
aI45
aI991
aI3
aI15769
aI60
aI588
aI45
aI16983
aI13568
aI620
aI31858
aI100
aI371
aI24912
aI24
aI22651
aI7
aI20973
aI2880
aI773
aI416
aI63765
asg6
S'This failed to stop the marches  with up to 5 000 monks progressing through Yangon  some wearing masks in anticipation of tear gas being used .'
p11
ss.