(dp1
S'input'
p2
(dp3
S'encoded'
p4
(lp5
I64
aI2179
aI43
aI63
aI3
aI4538
aI7
aI4434
aI7793
aI283
aI45
aI3586
aI417
aI316
aI577
asS'ori'
p6
S'This house believes that the sale of violent video games to minors should be banned'
p7
ssS'output'
p8
(dp9
g4
(lp10
I378
aI725
aI4129
aI11
aI14497
aI45
aI99
aI5656
aI159
aI283
aI45
aI3862
aI5955
aI63765
asg6
S'However  many stores have opted to not sell such games to children anyway .'
p11
ss.