(dp1
S'input'
p2
(dp3
S'encoded'
p4
(lp5
I64
aI2179
aI43
aI63
aI2157
aI2565
aI493
aI19084
aI382
aI4850
asS'ori'
p6
S"This house believes that Israel's 2008-2009 military operations against Gaza were justified"
p7
ssS'output'
p8
(dp9
g4
(lp10
I24
aI425
aI751
aI732
aI5353
aI45
aI3
aI4160
aI14280
aI31090
aI89
aI4772
aI480
aI24
aI3
aI10613
aI1727
aI5532
aI2157
aI20031
aI24
aI19084
aI41
aI2784
aI7
aI1243
asg6
S'In January 2009  before her appointment to the mission  Christine Chinkin co-signed a letter published in the Sunday Times describing Israel\'s military offensive in Gaza as "an act of aggression'
p11
ss.