(dp1
S'input'
p2
(dp3
S'encoded'
p4
(lp5
I64
aI2179
aI43
aI24
aI3
aI475
aI7
aI12436
aI3364
asS'ori'
p6
S'This house believes in the use of affirmative action'
p7
ssS'output'
p8
(dp9
g4
(lp10
I132
aI4859
aI1074
aI3
aI3931
aI7
aI3386
aI78
aI773
aI4725
aI5815
aI45
aI965
aI78
aI5986
aI965
aI1560
aI3527
aI159
aI41
aI73
aI903
aI63765
asg6
S'These beliefs include the stereotype of Black people being morally inferior to White people  violating White American values such as hard-working or independent .'
p11
ss.