(dp1
S'input'
p2
(dp3
S'encoded'
p4
(lp5
I64
aI2179
aI394
aI5284
aI150
aI3987
asS'ori'
p6
S'This house would reintroduce national service'
p7
ssS'output'
p8
(dp9
g4
(lp10
I1920
aI12769
aI3
aI5262
aI75
aI3
aI2386
aI258
aI7
aI8667
aI89
aI5262
aI4294
aI7733
aI139
aI316
aI3536
aI472
aI604
aI7
aI3
aI376
aI24
aI4190
aI3
aI3996
aI2686
aI24
aI15344
aI3
aI7733
aI63765
asg6
S'Nevertheless  protesting the draft by the specific means of burning a draft registration card can be constitutionally prohibited  because of the government\'s interest in prohibiting the "nonspeech" element involved in destroying the card .'
p11
ss.