(dp1
S'input'
p2
(dp3
S'encoded'
p4
(lp5
I64
aI2179
aI43
aI63
aI7382
aI116
aI400
aI4713
asS'ori'
p6
S'This house believes that bribery is sometimes acceptable'
p7
ssS'output'
p8
(dp9
g4
(lp10
I7092
aI5
aI8850
aI11
aI689
aI3
aI918
aI7
aI7170
aI5
aI16
aI4212
aI158
aI137
aI8675
aI63
aI6332
aI3
aI2755
aI7
aI2328
aI6806
aI2891
aI5
aI306
aI7
aI70
asg6
S'experts and politicians have recognized the far-reaching impact of corruption and economic crimes  including money laundering that undermine the value of democracy  sustainable development  and rule of law'
p11
ss.