(dp1
S'input'
p2
(dp3
S'encoded'
p4
(lp5
I64
aI2179
aI394
aI2017
aI262
asS'ori'
p6
S'This house would ban boxing'
p7
ssS'output'
p8
(dp9
g4
(lp10
I3
aI66
aI277
aI283
aI382
aI4024
aI5688
aI7
aI381
aI63
aI4068
aI950
aI3365
aI45
aI265
aI159
aI41
aI13594
aI1440
aI13438
aI262
aI576
aI54923
aI5
aI54924
aI7756
aI1365
aI80
aI63765
asg6
S'The Ancient Olympic Games were largely composed of sports that tested skills related to combat  such as armored foot races  boxing  wrestling  pankration and chariot racing  amongst others .'
p11
ss.