(dp1
S'input'
p2
(dp3
S'encoded'
p4
(lp5
I64
aI2179
aI43
aI8629
aI116
aI3
aI117
aI998
asS'ori'
p6
S'This house believes atheism is the only way'
p7
ssS'output'
p8
(dp9
g4
(lp10
I1608
aI8301
aI39
aI4555
aI3
aI2096
aI7
aI2382
aI344
aI41
aI89
aI8481
aI24
aI3
aI2498
aI7
aI89
aI8528
aI63765
asg6
S'Next  Dawkins discusses specifically the idea of religion seen as a virus in the sense of a meme .'
p11
ss.