(dp1
S'input'
p2
(dp3
S'encoded'
p4
(lp5
I64
aI2179
aI43
aI8629
aI116
aI3
aI117
aI998
asS'ori'
p6
S'This house believes atheism is the only way'
p7
ssS'output'
p8
(dp9
g4
(lp10
I257
aI93
aI8403
aI3
aI2802
aI182
aI273
aI351
aI16379
aI4818
aI311
aI223
aI63764
asg6
S'If one asks the question  "Why are there any contingent beings at all ?'
p11
ss.