(dp1
S'input'
p2
(dp3
S'encoded'
p4
(lp5
I64
aI2179
aI43
aI63
aI3
aI21
aI45
aI12715
aI417
aI99
aI316
aI2897
asS'ori'
p6
S'This house believes that the right to asylum should not be absolute'
p7
ssS'output'
p8
(dp9
g4
(lp10
I2800
aI4363
aI7477
aI114
aI64
aI2554
aI116
aI99
aI689
aI75
aI3
aI2304
aI5
aI3709
aI86
aI60
aI7950
aI3
aI217
aI4947
aI1359
aI34
aI86
aI5
aI271
aI3874
aI63765
asg6
S'UN mandated refugees  though this status is not recognized by the Russian authorities) and help them with reaching the most desirable outcome for them and their family .'
p11
ss.