(dp1
S'input'
p2
(dp3
S'encoded'
p4
(lp5
I64
aI2179
aI43
aI63
aI3
aI4538
aI7
aI4434
aI7793
aI283
aI45
aI3586
aI417
aI316
aI577
asS'ori'
p6
S'This house believes that the sale of violent video games to minors should be banned'
p7
ssS'output'
p8
(dp9
g4
(lp10
I89
aI19057
aI4370
aI24
aI6879
aI3
aI2290
aI15498
aI5
aI7151
aI12514
aI7
aI78
aI24
aI3
aI94
aI63765
asg6
S'A followup survey in 2009 studied the purchase habits and content preferences of people in the group  .'
p11
ss.