(dp1
S'input'
p2
(dp3
S'encoded'
p4
(lp5
I64
aI2179
aI394
aI5284
aI150
aI3987
asS'ori'
p6
S'This house would reintroduce national service'
p7
ssS'output'
p8
(dp9
g4
(lp10
I9375
aI34
aI279
aI2498
aI55
aI575
aI5259
aI9153
aI24
aI3
aI16007
aI1051
aI226
aI3
aI150
aI9375
aI2131
aI55
aI693
aI575
aI5259
aI419
aI982
aI9153
aI73
aI51
aI7353
aI63765
asg6
S"Taxpayers for Common Sense has given Rangel ratings in the middling 4050 range  while the National Taxpayers Union has typically given Rangel very low ratings  or an 'F' grade  ."
p11
ss.