(dp1
S'input'
p2
(dp3
S'encoded'
p4
(lp5
I64
aI2179
aI394
aI2741
aI3
aI1560
aI6025
aI2784
asS'ori'
p6
S'This house would pass the American Jobs Act'
p7
ssS'output'
p8
(dp9
g4
(lp10
I89
aI88
aI3500
aI24
aI3
aI3572
aI901
aI2173
aI1499
aI96
aI34
aI3
aI8887
aI8723
aI2164
aI2714
aI4146
aI5016
aI7163
aI89
aI5240
aI759
aI7
aI92
aI42
aI742
aI394
aI316
aI1443
aI9375
aI45
aI6903
aI137
aI45
aI3
aI1193
aI126
aI14
aI9449
aI63765
aI63765
asg6
S'A May 21  2009 article in The Washington Post stated  "To build support for the stimulus package  President Obama vowed unprecedented transparency  a big part of which  he said  would be allowing taxpayers to track money to the street level on Recovery .gov . .'
p11
ss.