(dp1
S'input'
p2
(dp3
S'encoded'
p4
(lp5
I64
aI2179
aI394
aI2998
aI3
aI4360
aI7
aI3249
aI6804
aI24
aI3
aI102
asS'ori'
p6
S'This house would encourage the creation of private universities in the UK'
p7
ssS'output'
p8
(dp9
g4
(lp10
I14027
aI742
aI1210
aI14046
aI3
aI6804
aI2161
aI122
aI4001
aI7
aI3
aI2762
aI24
aI5
aI406
aI14047
aI63765
asg6
S'Grayling said David Willetts  the universities minister  was told of the project in 2010  and appeared enthusiastic  .'
p11
ss.