(dp1
S'input'
p2
(dp3
S'encoded'
p4
(lp5
I64
aI2179
aI394
aI2976
aI12243
aI24
aI954
aI126
aI1560
aI10723
asS'ori'
p6
S'This house would implement playoffs in collegiate level American football'
p7
ssS'output'
p8
(dp9
g4
(lp10
I97
aI34949
aI2333
aI3
aI34971
aI3418
aI1760
aI3
aI34949
aI15338
aI45
aI6726
aI93
aI11276
aI24
aI89
aI4684
aI5
aI768
aI475
aI536
aI45
aI536
aI45
aI1358
aI35014
aI92
aI394
aI11
aI2630
aI24
aI1561
aI63765
asg6
S"Another BCS conference  the SEC  merely uses the BCS standings to eliminate one team in a three-way tie and then use head to head to determine tiebreakers  which would have worked in Texas' favor  ."
p11
ss.