(dp1
S'input'
p2
(dp3
S'encoded'
p4
(lp5
I64
aI2179
aI394
aI5842
aI3569
aI446
aI13498
asS'ori'
p6
S'This house would introduce year round schooling'
p7
ssS'output'
p8
(dp9
g4
(lp10
I19
aI3
aI3904
aI1629
aI7
aI4748
aI3
aI4259
aI60
aI28125
aI5205
aI23768
aI56052
aI2240
aI182
aI3
aI217
aI2856
aI366
aI237
aI7
aI211
aI90
aI14092
aI5128
aI5
aI9041
aI10341
aI10323
aI28125
aI256
aI56052
aI2240
aI10031
aI967
aI667
aI9741
aI62136
aI62137
aI5
aI16172
aI2506
aI63765
asg6
S"From the existing set of After-school providers the ones with individualized learning modules  complimenting school (K-12) are the most sought after India's first of its kind for-profit provider  runs and manage academically oriented individualized after-school programs complimenting school syllabus across New Delhi  Noida  Gurgaon and Faridabad areas ."
p11
ss.