(dp1
S'input'
p2
(dp3
S'encoded'
p4
(lp5
I64
aI2179
aI43
aI17
aI4941
aI857
aI3211
asS'ori'
p6
S'This house believes social deprivation causes crime'
p7
ssS'output'
p8
(dp9
g4
(lp10
I64
aI88
aI2723
aI24
aI89
aI2022
aI1563
aI3203
aI7
aI22
aI16
aI73
aI17
aI9078
aI73
aI3060
aI159
aI41
aI89
aI1546
aI7
aI260
aI73
aI89
aI639
aI7
aI1691
aI16
aI2891
aI324
aI257
aI3
aI2022
aI1153
aI2369
aI5
aI685
aI2825
aI5
aI3
aI306
aI7
aI70
aI63765
asg6
S'This may occur in a society facing periods of political  economic or social turmoil or transition  such as a change of government or a period of rapid economic development  particularly if the society lacks strong and established institutions and the rule of law .'
p11
ss.