(dp1
S'input'
p2
(dp3
S'encoded'
p4
(lp5
I64
aI2179
aI43
aI8629
aI116
aI3
aI117
aI998
asS'ori'
p6
S'This house believes atheism is the only way'
p7
ssS'output'
p8
(dp9
g4
(lp10
I100
aI186
aI63
aI604
aI7
aI8565
aI3
aI285
aI55
aI12441
aI19
aI3
aI6555
aI7
aI5480
aI5
aI116
aI99
aI1839
aI63765
asg6
S'Some argue that because of sin  the world has fallen from the grace of God  and is not perfect .'
p11
ss.