(dp1
S'input'
p2
(dp3
S'encoded'
p4
(lp5
I64
aI2179
aI43
aI24
aI3
aI475
aI7
aI12436
aI3364
asS'ori'
p6
S'This house believes in the use of affirmative action'
p7
ssS'output'
p8
(dp9
g4
(lp10
I24
aI2042
aI64
aI90
aI7
aI5891
aI116
aI174
aI1047
aI41
aI48393
aI48394
aI63765
asg6
S'In education  this kind of quota is also known as Numerus clausus .'
p11
ss.