(dp1
S'input'
p2
(dp3
S'encoded'
p4
(lp5
I64
aI2179
aI235
aI3
aI2136
aI7
aI3
aI2306
aI7
aI2390
asS'ori'
p6
S'This house supports the one-child policy of the republic of China'
p7
ssS'output'
p8
(dp9
g4
(lp10
I136
aI703
aI116
aI3481
aI45
aI5027
aI3217
aI5
aI3
aI6203
aI7
aI4456
aI3257
aI63765
asg6
S'More attention is paid to adolescent health and the consequences of unsafe abortion .'
p11
ss.