(dp1
S'input'
p2
(dp3
S'encoded'
p4
(lp5
I64
aI2179
aI43
aI63
aI187
aI417
aI99
aI16642
aI3
aI6449
aI7
aI3935
asS'ori'
p6
S'This house believes that states should not subsidize the growing of tobacco'
p7
ssS'output'
p8
(dp9
g4
(lp10
I49591
aI4169
aI34
aI182
aI89
aI8942
aI6675
aI620
aI14833
aI5
aI4260
aI864
aI7
aI9008
aI5
aI43250
aI1024
aI3935
aI1179
aI5
aI34084
aI3935
aI153
aI4341
aI60
aI248
aI49375
aI92
aI182
aI768
aI29019
aI73
aI11437
aI736
aI89
aI9660
aI63765
asg6
S'CigarettesCigarettes  French for "small cigar"  are a product consumed through smoking and manufactured out of cured and finely cut tobacco leaves and reconstituted tobacco  often combined with other additives  which are then rolled or stuffed into a paper-wrapped cylinder  .'
p11
ss.