(dp1
S'input'
p2
(dp3
S'encoded'
p4
(lp5
I64
aI2179
aI394
aI4325
aI2042
aI270
aI89
aI11605
aI3324
asS'ori'
p6
S'This house would fund education using a voucher scheme'
p7
ssS'output'
p8
(dp9
g4
(lp10
I99
aI3980
aI116
aI3775
aI45
aI10274
aI64
aI1640
aI3503
aI63765
asg6
S'Not everyone is willing to admit this just yet .'
p11
ss.