(dp1
S'input'
p2
(dp3
S'encoded'
p4
(lp5
I64
aI2179
aI394
aI2017
aI628
asS'ori'
p6
S'This house would ban gambling'
p7
ssS'output'
p8
(dp9
g4
(lp10
I7649
aI2643
aI26240
aI475
aI7800
aI45
aI19358
aI2755
aI45
aI77
aI7768
aI63765
asg6
S'Gamblers today subconsciously use economics to equate value to certain plays .'
p11
ss.