(dp1
S'input'
p2
(dp3
S'encoded'
p4
(lp5
I64
aI2179
aI394
aI163
aI959
aI2042
aI3557
asS'ori'
p6
S'This house would make physical education compulsory'
p7
ssS'output'
p8
(dp9
g4
(lp10
I1964
aI3217
aI4372
aI18041
aI45
aI1796
aI7817
aI5
aI3204
aI2445
aI3217
aI620
aI5139
aI24
aI2506
aI159
aI41
aI3217
aI2042
aI33310
aI7129
aI19753
aI5
aI658
aI3217
aI63765
asg6
S'Applied health sciences endeavor to better understand and improve human health through applications in areas such as health education  biomedical engineering  biotechnology and public health .'
p11
ss.