(dp1
S'input'
p2
(dp3
S'encoded'
p4
(lp5
I64
aI2179
aI43
aI223
aI2138
aI11
aI89
aI21
aI45
aI2185
aI372
asS'ori'
p6
S'This house believes all nations have a right to nuclear weapons'
p7
ssS'output'
p8
(dp9
g4
(lp10
I3
aI3614
aI4676
aI7
aI3
aI910
aI122
aI2185
aI2349
aI114
aI3
aI3108
aI55
aI1438
aI45
aI1074
aI3609
aI45
aI3
aI475
aI7
aI2185
aI546
aI63765
asg6
S'The initial objective of the movement was nuclear disarmament  though the focus has shifted to include opposition to the use of nuclear power .'
p11
ss.