(dp1
S'input'
p2
(dp3
S'encoded'
p4
(lp5
I64
aI2179
aI394
aI2017
aI628
asS'ori'
p6
S'This house would ban gambling'
p7
ssS'output'
p8
(dp9
g4
(lp10
I24
aI61913
aI297
aI45
aI14275
aI3
aI150
aI5930
aI1410
aI3960
aI366
aI9073
aI7769
aI2612
aI63765
asg6
S'In 2002 Camelot decided to rebrand the National Lottery main draw after falling ticket sales .'
p11
ss.