(dp1
S'input'
p2
(dp3
S'encoded'
p4
(lp5
I64
aI2179
aI43
aI63
aI134
aI116
aI400
aI21
aI34
aI3
aI260
aI45
aI3439
aI57
aI7
aI2381
asS'ori'
p6
S'This house believes that it is sometimes right for the government to restrict freedom of speech'
p7
ssS'output'
p8
(dp9
g4
(lp10
I3
aI1643
aI3500
aI418
aI63
aI3552
aI182
aI136
aI5
aI136
aI2801
aI1365
aI777
aI289
aI40
aI844
aI7
aI2445
aI2446
aI182
aI45
aI316
aI1038
aI1052
aI41
aI5392
aI3
aI2653
aI2087
aI63765
asg6
S'The same article noted that human-rights advocates are more and more divided amongst themselves over how violations of human rights are to be defined  notably as regards the Middle East  .'
p11
ss.