(dp1
S'input'
p2
(dp3
S'encoded'
p4
(lp5
I64
aI2179
aI43
aI17
aI4941
aI857
aI3211
asS'ori'
p6
S'This house believes social deprivation causes crime'
p7
ssS'output'
p8
(dp9
g4
(lp10
I3
aI1511
aI6642
aI311
aI1167
aI3964
aI12743
aI116
aI3
aI5027
aI3
aI1511
aI152
aI116
aI311
aI73
aI1640
aI2510
aI151
aI152
aI3
aI79
aI116
aI693
aI1273
aI5
aI1483
aI5501
aI5
aI3
aI1511
aI127
aI8723
aI116
aI13945
aI63765
asg6
S'The typical employee at fast food chains is the adolescent  the typical wage is at or just above minimum wage  the work is typically hard and quite dangerous  and the typical benefits package is nonexistent .'
p11
ss.