(dp1
S'input'
p2
(dp3
S'encoded'
p4
(lp5
I64
aI2179
aI394
aI5370
aI3
aI5286
asS'ori'
p6
S'This house would abolish the monarchy'
p7
ssS'output'
p8
(dp9
g4
(lp10
I378
aI273
aI182
aI292
aI1185
aI1356
aI63
aI1629
aI11958
aI5794
aI159
aI41
aI3
aI626
aI2549
aI19
aI2938
aI53
aI595
aI546
aI876
aI2507
aI573
aI60
aI4679
aI63765
asg6
S'However  there are three important factors that set aside monarchies such as the United Kingdom from systems where greater power might otherwise rest with Parliament .'
p11
ss.