(dp1
S'input'
p2
(dp3
S'encoded'
p4
(lp5
I64
aI2179
aI394
aI2017
aI262
asS'ori'
p6
S'This house would ban boxing'
p7
ssS'output'
p8
(dp9
g4
(lp10
I378
aI273
aI116
aI637
aI511
aI34
aI6568
aI1610
aI159
aI41
aI773
aI801
aI60
aI89
aI7773
aI755
aI7478
aI73
aI99
aI63765
asg6
S'However  there is still opportunity for indirect contact  such as being hit with a ball  whether deliberately or not .'
p11
ss.