(dp1
S'input'
p2
(dp3
S'encoded'
p4
(lp5
I64
aI2179
aI394
aI190
aI3
aI21
aI45
aI3895
aI834
asS'ori'
p6
S'This house would limit the right to bear arms'
p7
ssS'output'
p8
(dp9
g4
(lp10
I691
aI626
aI187
aI2176
aI7
aI3362
aI2097
aI150
aI2613
aI2731
aI7142
aI55
aI5047
aI1157
aI41211
aI5
aI3135
aI3136
aI182
aI3
aI217
aI2147
aI2613
aI8677
aI5
aI3
aI2715
aI14478
aI2731
aI45
aI3
aI626
aI187
aI63765
asg6
S'Since 2006  United States Department of Justices annual National Drug Threat Assessment has reported Mexican DTOs and criminal groups are the most influential drug traffickers and the greatest organizational threat to the United States  .'
p11
ss.