(dp1
S'input'
p2
(dp3
S'encoded'
p4
(lp5
I64
aI2179
aI43
aI63
aI187
aI417
aI99
aI16642
aI3
aI6449
aI7
aI3935
asS'ori'
p6
S'This house believes that states should not subsidize the growing of tobacco'
p7
ssS'output'
p8
(dp9
g4
(lp10
I89
aI149
aI279
aI131
aI2601
aI939
aI399
aI116
aI620
aI58228
aI92
aI1233
aI270
aI7471
aI2674
aI24250
aI75
aI5154
aI5
aI1704
aI3
aI13160
aI252
aI58
aI6924
aI3217
aI4779
aI45
aI3
aI11040
aI63765
asg6
S'A less common but increasingly popular form is through vaporizers  which operate using hot air convection by heating and delivering the substance without combustion; thereby decreasing health risks to the lungs .'
p11
ss.