(dp1
S'input'
p2
(dp3
S'encoded'
p4
(lp5
I64
aI2179
aI394
aI2773
aI12505
asS'ori'
p6
S'This house would embrace multiculturalism'
p7
ssS'output'
p8
(dp9
g4
(lp10
I24
aI27338
aI92
aI116
aI890
aI12505
aI55
aI12
aI344
aI41
aI89
aI2731
aI45
aI12417
aI5
aI7973
aI51
aI1222
aI75
aI59364
aI45
aI1495
aI462
aI3
aI6449
aI1500
aI7
aI12417
aI7161
aI34
aI1201
aI9332
aI63765
asg6
S'In Aotearoa (New Zealand)  which is officially bi-cultural  multiculturalism has been seen as a threat to Maori  and possibly an attempt by Pakeha (whites) to water down the growing strength of Maori demands for self determination .'
p11
ss.