(dp1
S'input'
p2
(dp3
S'encoded'
p4
(lp5
I64
aI2179
aI43
aI3
aI626
aI187
aI116
aI1989
aI34
aI3102
aI2223
asS'ori'
p6
S"This house believes the United States is responsible for Mexico's drugs war"
p7
ssS'output'
p8
(dp9
g4
(lp10
I3
aI905
aI1706
aI187
aI63
aI23421
aI2613
aI5342
aI1074
aI63765
aI63765
aI6751
aI45
aI2613
aI8677
aI75
aI3
aI2145
aI63765
aI10
aI2176
aI7
aI6198
aI5925
aI75
aI3
aI2221
aI34
aI2893
aI115
aI45
aI3
aI16587
aI24
aI100
aI3052
aI366
aI3
aI8677
aI440
aI12
aI13633
aI75
aI2503
aI70
aI3353
aI779
aI14
aI2613
aI4694
aI24
aI80
aI226
aI8677
aI382
aI459
aI2758
aI9359
aI75
aI132
aI1643
aI779
asg6
S'" The report further states that "the Contra drug links include . . payments to drug traffickers by the U .S . State Department of funds authorized by the Congress for humanitarian assistance to the Contras  in some cases after the traffickers had been indicted by federal law enforcement agencies on drug charges  in others while traffickers were under active investigation by these same agencies ."'
p11
ss.