(dp1
S'input'
p2
(dp3
S'encoded'
p4
(lp5
I64
aI2179
aI43
aI63
aI3376
aI4938
aI417
aI316
aI3537
asS'ori'
p6
S'This house believes that endangered species should be protected'
p7
ssS'output'
p8
(dp9
g4
(lp10
I5681
aI5
aI7141
aI7025
aI174
aI11
aI1016
aI7797
aI19
aI1016
aI1495
aI5229
aI1404
aI75
aI6673
aI5
aI28728
aI4877
aI19
aI2445
aI7465
aI5
aI6678
aI63765
asg6
S'Coastal and marine environments also have reduced biodiversity from reduced water quality caused by pollution and sediments arising from human settlements and agriculture .'
p11
ss.