(dp1
S'input'
p2
(dp3
S'encoded'
p4
(lp5
I64
aI2179
aI394
aI2976
aI12243
aI24
aI954
aI126
aI1560
aI10723
asS'ori'
p6
S'This house would implement playoffs in collegiate level American football'
p7
ssS'output'
p8
(dp9
g4
(lp10
I3
aI237
aI34949
aI1011
aI319
aI122
aI2757
aI311
aI3
aI877
aI7
aI3
aI4758
aI10723
aI5159
aI24
aI3879
aI60
aI51
aI2603
aI75
aI3
aI5240
aI767
aI2333
aI3
aI2333
aI5
aI3
aI2422
aI20731
aI319
aI45
aI5873
aI3
aI145
aI63765
asg6
S'The first BCS Championship Game was played at the conclusion of the 1998 college football season in accordance with an agreement by the Big Ten Conference  the Pac-10 (now Pac-12) Conference  and the Rose Bowl Game to join the "Bowl Alliance" system .'
p11
ss.