(dp1
S'input'
p2
(dp3
S'encoded'
p4
(lp5
I64
aI2179
aI394
aI4325
aI2042
aI270
aI89
aI11605
aI3324
asS'ori'
p6
S'This house would fund education using a voucher scheme'
p7
ssS'output'
p8
(dp9
g4
(lp10
I2714
aI551
aI1020
aI30204
aI71
aI45
aI1444
aI3
aI34710
aI6764
aI2185
aI5152
aI14397
aI24
aI2129
aI63765
asg6
S'Obama declared himself flatly opposed to building the Yucca Mountain nuclear waste repository in Nevada  .'
p11
ss.