(dp1
S'input'
p2
(dp3
S'encoded'
p4
(lp5
I64
aI2179
aI43
aI63
aI3376
aI4938
aI417
aI316
aI3537
asS'ori'
p6
S'This house believes that endangered species should be protected'
p7
ssS'output'
p8
(dp9
g4
(lp10
I24
aI2330
aI2503
aI3216
aI2161
aI33799
aI2073
aI4673
aI6826
aI63
aI588
aI45
aI7
aI223
aI4938
aI47
aI316
aI7862
aI75
aI63765
asg6
S'In 2007  German Federal Environment Minister Sigmar Gabriel cited estimates that up to 30% of all species will be extinct by 2050  .'
p11
ss.