(dp1
S'input'
p2
(dp3
S'encoded'
p4
(lp5
I64
aI2179
aI43
aI223
aI2138
aI11
aI89
aI21
aI45
aI2185
aI372
asS'ori'
p6
S'This house believes all nations have a right to nuclear weapons'
p7
ssS'output'
p8
(dp9
g4
(lp10
I24
aI5
aI273
aI11
aI12
aI7058
aI1191
aI5
aI2198
aI7
aI1237
aI667
aI2185
aI5190
aI6787
aI24
aI3
aI626
aI187
aI63765
asg6
S'In 2008 and 2009  there have been protests about  and criticism of  several new nuclear reactor proposals in the United States  .'
p11
ss.