(dp1
S'input'
p2
(dp3
S'encoded'
p4
(lp5
I64
aI2179
aI43
aI63
aI134
aI116
aI400
aI21
aI34
aI3
aI260
aI45
aI3439
aI57
aI7
aI2381
asS'ori'
p6
S'This house believes that it is sometimes right for the government to restrict freedom of speech'
p7
ssS'output'
p8
(dp9
g4
(lp10
I3
aI2482
aI2483
aI174
aI743
aI63
aI3
aI3545
aI5377
aI3586
aI19
aI1609
aI22
aI2894
aI122
aI2481
aI1697
aI14
aI37967
aI646
aI63765
aI18721
aI37968
aI903
aI2178
aI2240
aI3337
aI63765
asg6
S'" The Supreme Court also ruled that the provision preventing minors from making political contributions was unconstitutional  relying on Tinker v . Des Moines Independent Community School District .'
p11
ss.