(dp1
S'input'
p2
(dp3
S'encoded'
p4
(lp5
I64
aI2179
aI43
aI63
aI1036
aI4828
aI33250
aI116
aI25073
aI45
aI3315
aI4562
asS'ori'
p6
S'This house believes that male infant circumcision is tantamount to child abuse'
p7
ssS'output'
p8
(dp9
g4
(lp10
I2369
aI350
aI19
aI2404
aI3715
aI63
aI33250
aI6714
aI3
aI2038
aI7
aI9583
aI7446
aI24
aI17566
aI1980
aI75
asg6
S'Strong evidence from Africa indicates that circumcision reduces the risk of HIV infection in heterosexual men by 38-66% '
p11
ss.