(dp1
S'input'
p2
(dp3
S'encoded'
p4
(lp5
I64
aI2179
aI394
aI2998
aI3
aI4360
aI7
aI3249
aI6804
aI24
aI3
aI102
asS'ori'
p6
S'This house would encourage the creation of private universities in the UK'
p7
ssS'output'
p8
(dp9
g4
(lp10
I42
aI2173
aI132
aI226
aI42
aI122
aI8070
aI89
aI10900
aI311
aI2609
aI21519
aI63765
asg6
S'He stated these while he was addressing a gathering at Central Provience .'
p11
ss.