(dp1
S'input'
p2
(dp3
S'encoded'
p4
(lp5
I64
aI2179
aI43
aI63
aI3
aI4990
aI4991
aI116
aI4850
aI24
aI12166
aI3
aI475
aI7
aI3532
aI3290
aI7
aI4714
asS'ori'
p6
S'This house believes that the Catholic Church is justified in forbidding the use of barrier methods of contraception'
p7
ssS'output'
p8
(dp9
g4
(lp10
I24
aI51
aI4506
aI45
aI89
aI2333
aI7
aI3
aI10841
aI7
aI6429
aI557
aI311
aI3
aI11298
aI7
aI4044
aI63765
aI495
aI12492
aI2116
aI9630
aI11589
aI14
aI3
aI214
aI7
aI1643
aI11389
aI8559
aI5
aI380
aI274
aI7
aI3
aI24031
aI7
aI26554
aI2643
aI675
aI1260
aI11004
aI3516
aI19877
aI5
aI520
aI588
aI45
aI75
aI78
aI7
aI3
aI1643
aI11389
aI182
aI958
aI10049
aI7
aI51
aI26851
aI57
aI63
aI6161
aI741
aI34
aI3107
aI57
aI7
aI460
aI63765
aI9730
aI134
aI1577
aI223
aI3
aI136
aI2010
aI40
aI4980
aI134
aI116
aI45
aI2445
aI10729
aI45
aI3
aI8666
aI10765
aI7
aI460
aI5
aI3833
aI45
aI7267
aI1102
aI271
aI2131
aI45
aI3
aI13751
aI7
aI3269
aI5
aI113
aI3150
aI45
aI20304
aI73
aI26852
aI60
aI3
aI3269
aI63
aI116
aI4651
aI63765
asg6
S'In an address to a conference of the Diocese of Rome held at the basilica of St . John Lateran 6 June 2005  Benedict remarked on the issues of same sex marriage and abortion:The various forms of the dissolution of matrimony today  like free unions  trial marriages and going up to pseudo-matrimonies by people of the same sex  are rather expressions of an anarchic freedom that wrongly passes for true freedom of man . .from here it becomes all the more clear how contrary it is to human love  to the profound vocation of man and woman  to systematically close their union to the gift of life  and even worse to suppress or tamper with the life that is born  .'
p11
ss.