(dp1
S'input'
p2
(dp3
S'encoded'
p4
(lp5
I64
aI2179
aI43
aI17
aI4941
aI857
aI3211
asS'ori'
p6
S'This house believes social deprivation causes crime'
p7
ssS'output'
p8
(dp9
g4
(lp10
I45
aI881
aI5
aI4823
aI45
aI2617
aI3
aI3135
aI2248
aI1039
aI12615
aI622
aI14
aI3965
aI17100
aI5
aI3
aI1184
aI5
aI4092
aI7
aI8597
aI63765
asg6
S'To prevent and respond to violence  the criminal justice approach relies primarily on deterrence  incarceration and the punishment and rehabilitation of perpetrators  .'
p11
ss.