(dp1
S'input'
p2
(dp3
S'encoded'
p4
(lp5
I64
aI2179
aI43
aI223
aI2138
aI11
aI89
aI21
aI45
aI2185
aI372
asS'ori'
p6
S'This house believes all nations have a right to nuclear weapons'
p7
ssS'output'
p8
(dp9
g4
(lp10
I134
aI116
aI99
aI2010
aI61
aI874
aI2047
aI5603
aI24
aI738
aI63765
asg6
S'It is not clear what North Korea got in return .'
p11
ss.