(dp1
S'input'
p2
(dp3
S'encoded'
p4
(lp5
I64
aI2179
aI394
aI5370
aI7146
aI4585
aI2446
asS'ori'
p6
S'This house would abolish intellectual property rights'
p7
ssS'output'
p8
(dp9
g4
(lp10
I24
aI25
aI284
aI4199
aI3408
aI2586
aI60
aI3
aI2096
aI7
aI45
aI1928
aI460
aI25
aI284
aI89
aI1998
aI42
aI11530
aI19
aI3
aI8032
aI7
aI18533
aI63765
asg6
S'In his own words  Hobbes\' reflection began with the idea of "giving to every man his own " a phrase he drew from the writings of Cicero .'
p11
ss.