(dp1
S'input'
p2
(dp3
S'encoded'
p4
(lp5
I64
aI2179
aI43
aI63
aI2659
aI417
aI1690
aI3
aI12048
aI7
aI19084
asS'ori'
p6
S'This house believes that Israel should lift the blockade of Gaza'
p7
ssS'output'
p8
(dp9
g4
(lp10
I24
aI3
aI3579
aI7
aI2250
aI2213
aI291
aI223
aI3
aI4615
aI311
aI2223
aI2659
aI55
aI459
aI223
aI3717
aI3
aI21
aI45
aI1049
aI708
aI7
aI3
aI4158
aI5555
aI63765
asg6
S'In the absence of peace treaties between all the parties at war  Israel has under all circumstances the right to maintain control of the captured territories .'
p11
ss.