(dp1
S'input'
p2
(dp3
S'encoded'
p4
(lp5
I64
aI2179
aI394
aI4325
aI2042
aI270
aI89
aI11605
aI3324
asS'ori'
p6
S'This house would fund education using a voucher scheme'
p7
ssS'output'
p8
(dp9
g4
(lp10
I2951
aI24
aI5
aI135
aI24
aI134
aI923
aI1735
aI443
aI136
aI138
aI7
aI3
aI658
aI2240
aI13052
aI45
aI475
aI11604
aI63765
asg6
S"Started in 1990  and expanded in 1995  it currently allows no more than 15% of the district's public school enrollment to use vouchers ."
p11
ss.