(dp1
S'input'
p2
(dp3
S'encoded'
p4
(lp5
I64
aI2179
aI43
aI24
aI3
aI475
aI7
aI12436
aI3364
asS'ori'
p6
S'This house believes in the use of affirmative action'
p7
ssS'output'
p8
(dp9
g4
(lp10
I3
aI260
aI2227
aI8778
aI675
aI3693
aI44446
aI45
aI3281
aI887
aI3
aI3920
aI2625
aI5
aI45
aI7428
aI86
aI620
aI1343
aI5
aI5248
aI40
aI45
aI3281
aI675
aI5948
aI63765
asg6
S'The government appointed agents  like Benjamin Hawkins  to live among the Native Americans and to teach them  through example and instruction  how to live like whites  .'
p11
ss.