(dp1
S'input'
p2
(dp3
S'encoded'
p4
(lp5
I64
aI2179
aI394
aI60
aI23587
asS'ori'
p6
S'This house would re-engage with Myanmar'
p7
ssS'output'
p8
(dp9
g4
(lp10
I3
aI22
aI1362
aI291
aI3
aI626
aI187
aI5
aI3118
aI12104
aI366
aI3
aI2157
aI3093
aI5
aI4434
aI7251
aI7
aI13539
aI63765
asg6
S'The political relationship between the United States and Burma worsened after the 1988 military coup and violent suppression of pro-democracy demonstrations .'
p11
ss.