(dp1
S'input'
p2
(dp3
S'encoded'
p4
(lp5
I64
aI2179
aI394
aI2773
aI12505
asS'ori'
p6
S'This house would embrace multiculturalism'
p7
ssS'output'
p8
(dp9
g4
(lp10
I24
aI211
aI12627
aI274
aI42883
aI116
aI2238
aI41
aI89
aI4918
aI45
aI2223
aI493
aI2321
aI7
aI3
aI5466
aI73
aI24
aI3
aI33
aI7
aI42886
aI42883
aI8579
aI63765
asg6
S'In its extremist forms ultranationalism is characterized as a call to war against enemies of the nation/state  secession or  in the case of ethnocentrist ultranationalism  genocide  .'
p11
ss.