(dp1
S'input'
p2
(dp3
S'encoded'
p4
(lp5
I64
aI2179
aI43
aI63
aI188
aI220
aI417
aI1619
aI4275
aI45
aI713
aI14799
aI7533
aI311
aI3
aI3721
aI5145
asS'ori'
p6
S'This house believes that democratic governments should require voters to present photo identification at the polling station'
p7
ssS'output'
p8
(dp9
g4
(lp10
I828
aI3211
aI427
aI1931
aI63
aI21
aI45
aI2490
aI34
aI100
aI2144
aI63765
asg6
S'Your crime took away that right to vote for some citizens .'
p11
ss.