(dp1
S'input'
p2
(dp3
S'encoded'
p4
(lp5
I64
aI2179
aI43
aI63
aI187
aI417
aI99
aI16642
aI3
aI6449
aI7
aI3935
asS'ori'
p6
S'This house believes that states should not subsidize the growing of tobacco'
p7
ssS'output'
p8
(dp9
g4
(lp10
I3
aI14833
aI7
aI3935
aI5
aI380
aI248
aI49563
aI3102
aI122
aI416
aI45
aI671
aI26572
aI5
aI45
aI2118
aI736
aI1610
aI60
aI3
aI3977
aI285
aI63765
asg6
S'The smoking of tobacco and various other hallucinogenic drugs was used to achieve trances and to come into contact with the spirit world .'
p11
ss.