(dp1
S'input'
p2
(dp3
S'encoded'
p4
(lp5
I64
aI2179
aI394
aI5370
aI3
aI5286
asS'ori'
p6
S'This house would abolish the monarchy'
p7
ssS'output'
p8
(dp9
g4
(lp10
I3
aI4634
aI7768
aI443
aI2488
aI2210
aI24
aI3
aI20495
aI4991
aI24
aI499
aI73
aI4991
aI7
aI4581
aI63765
asg6
S'The Sovereign plays no formal role in the disestablished Church in Wales or Church of Ireland .'
p11
ss.