(dp1
S'input'
p2
(dp3
S'encoded'
p4
(lp5
I64
aI2179
aI394
aI2773
aI12505
asS'ori'
p6
S'This house would embrace multiculturalism'
p7
ssS'output'
p8
(dp9
g4
(lp10
I2798
aI150
aI3914
aI75
aI1443
aI78
aI45
aI1654
aI271
aI2382
aI131
aI14401
aI45
aI3
aI3914
aI7
aI271
aI2671
aI2696
aI75
aI3270
aI5607
aI89
aI5761
aI2233
aI5607
aI89
aI8189
aI2233
aI5607
aI89
aI5711
aI131
aI2233
aI5607
aI89
aI42726
aI63765
asg6
S'Strengthening national identity by allowing people to follow their religion but subscribe to the identity of their host country  by saying "I am a Muslim  I am a Hindu  I am a Christian  but I am a Londoner too" .'
p11
ss.