(dp1
S'input'
p2
(dp3
S'encoded'
p4
(lp5
I64
aI2179
aI394
aI2017
aI628
asS'ori'
p6
S'This house would ban gambling'
p7
ssS'output'
p8
(dp9
g4
(lp10
I14
aI2394
aI3
aI2179
aI2351
aI3205
aI2180
aI557
aI89
aI3798
aI14
aI48762
aI5
aI5258
aI63765
aI6615
aI7147
aI628
aI54
aI7182
aI1795
aI5
aI3353
aI2784
aI7
aI63765
aI53
aI7092
aI24
aI3
aI7987
aI7
aI5119
aI2702
aI5
aI7182
aI934
aI3850
aI63
aI89
aI7701
aI3278
aI34
aI7147
aI628
aI394
aI454
aI8678
aI5
aI975
aI3
aI4657
aI7
aI7147
aI628
aI2351
aI7709
asg6
S'On December 3  2009  the House Financial Services Committee held a hearing on UIGEA and Rep . Franks Internet Gambling Regulation  Consumer Protection  and Enforcement Act of 2009 (H .R . 2267) where experts in the fields of online security and consumer safety testified that a regulatory framework for Internet gambling would protect consumers and ensure the integrity of Internet gambling financial transactions'
p11
ss.