(dp1
S'input'
p2
(dp3
S'encoded'
p4
(lp5
I64
aI2179
aI394
aI2773
aI12505
asS'ori'
p6
S'This house would embrace multiculturalism'
p7
ssS'output'
p8
(dp9
g4
(lp10
I58497
aI8187
aI4859
aI182
aI12429
aI24
aI3
aI18814
aI7
aI6655
aI10004
aI92
aI1944
aI13886
aI5
aI1462
aI45
aI454
aI5
aI3281
aI24
aI2251
aI60
aI223
aI78
aI3921
aI4975
aI5
aI8249
aI63765
asg6
S"Nhat Hanh's philosophical beliefs are grounded in the precepts of Buddhist teachings  which involve compassion and understanding to protect and live in harmony with all people  animals  plants  and minerals (88) ."
p11
ss.