(dp1
S'input'
p2
(dp3
S'encoded'
p4
(lp5
I64
aI2179
aI43
aI63
aI3
aI21
aI45
aI12715
aI417
aI99
aI316
aI2897
asS'ori'
p6
S'This house believes that the right to asylum should not be absolute'
p7
ssS'output'
p8
(dp9
g4
(lp10
I233
aI45
aI3
aI27988
aI24
aI2371
aI1348
aI7477
aI34
aI32236
aI63765
asg6
S'According to the UNHCR  in 2006 Japan accepted 26 refugees for resettlement  .'
p11
ss.