(dp1
S'input'
p2
(dp3
S'encoded'
p4
(lp5
I64
aI2179
aI43
aI223
aI2138
aI11
aI89
aI21
aI45
aI2185
aI372
asS'ori'
p6
S'This house believes all nations have a right to nuclear weapons'
p7
ssS'output'
p8
(dp9
g4
(lp10
I1769
aI24
aI3572
aI24
aI1906
aI873
aI751
aI3
aI27120
aI122
aI45
aI10686
aI211
aI7854
aI905
aI6056
aI5795
aI1405
aI2161
aI33538
aI33539
aI263
aI34
aI33537
aI45
aI316
aI9861
aI189
aI1688
aI75
aI33537
aI9566
aI285
aI2250
aI63765
asg6
S'Speaking in Washington in November 2007  days before the IAEA was to publish its latest report  Israeli Deputy Prime Minister Shaul Mofaz called for ElBaradei to be sacked  saying: "The policies followed by ElBaradei endanger world peace .'
p11
ss.