(dp1
S'input'
p2
(dp3
S'encoded'
p4
(lp5
I64
aI2179
aI394
aI4325
aI2042
aI270
aI89
aI11605
aI3324
asS'ori'
p6
S'This house would fund education using a voucher scheme'
p7
ssS'output'
p8
(dp9
g4
(lp10
I3
aI22282
aI4317
aI423
aI4615
aI7
aI3
aI1851
aI21
aI5
aI3
aI451
aI1260
aI2042
aI45
aI1334
aI4927
aI126
aI63765
asg6
S'The 1995-7 Rainbow Coalition (which contained parties of the centre right and the left) introduced free third-level education to primary degree level .'
p11
ss.