(dp1
S'input'
p2
(dp3
S'encoded'
p4
(lp5
I64
aI2179
aI394
aI2976
aI12243
aI24
aI954
aI126
aI1560
aI10723
asS'ori'
p6
S'This house would implement playoffs in collegiate level American football'
p7
ssS'output'
p8
(dp9
g4
(lp10
I3
aI2097
aI4758
aI10723
aI12247
aI12660
aI2394
aI22460
aI89
aI8634
aI13151
aI270
aI2333
aI642
aI5
aI863
aI21639
aI717
aI14
aI34949
aI12206
aI63765
asg6
S'The site\'s annual college football playoff simulation  December Madness  "plays" a mythical tournament using 11 conference champions and five at-large selections based on BCS rank  .'
p11
ss.