(dp1
S'input'
p2
(dp3
S'encoded'
p4
(lp5
I64
aI2179
aI43
aI63
aI2659
aI417
aI1690
aI3
aI12048
aI7
aI19084
asS'ori'
p6
S'This house believes that Israel should lift the blockade of Gaza'
p7
ssS'output'
p8
(dp9
g4
(lp10
I14
aI2116
aI134
aI122
aI5047
aI63
aI41
aI89
aI3623
aI45
aI19359
aI19097
aI14
aI3
aI19096
aI3
aI6273
aI10723
aI2016
aI394
aI1222
aI45
aI4918
aI1295
aI51
aI9061
aI29871
aI319
aI24
aI2659
aI34
aI3
aI16752
aI1565
aI10723
aI1011
aI63765
asg6
S'On June 2  it was reported that as a reaction to Israels raid on the flotilla  the Swedish Football Association would attempt to call off an upcoming qualifying game in Israel for the 2011 UEFA European Under-21 Football Championship  .'
p11
ss.