(dp1
S'input'
p2
(dp3
S'encoded'
p4
(lp5
I64
aI2179
aI394
aI2998
aI3
aI4360
aI7
aI3249
aI6804
aI24
aI3
aI102
asS'ori'
p6
S'This house would encourage the creation of private universities in the UK'
p7
ssS'output'
p8
(dp9
g4
(lp10
I3
aI21538
aI19001
aI10248
aI5
aI214
aI5572
aI45
aI3
aI1989
aI8902
aI7999
aI254
aI8902
aI2503
aI5496
aI7
aI3707
aI63765
asg6
S'The Akkreditierungsrat (Accreditation Council)  evaluates applicants and issues recommendations to the responsible Austrian accreditation authority (the Austrian Federal Ministry of Science & Research) .'
p11
ss.