(dp1
S'input'
p2
(dp3
S'encoded'
p4
(lp5
I64
aI2179
aI394
aI2017
aI3807
aI314
aI3433
asS'ori'
p6
S'This house would ban partial birth abortions'
p7
ssS'output'
p8
(dp9
g4
(lp10
I147
aI1724
aI358
aI777
aI604
aI155
aI358
aI3257
aI51
aI845
aI7
aI651
aI4811
aI5
aI154
aI5175
aI3257
aI45
aI316
aI41
aI118
aI5
aI4725
aI3699
aI41
aI3
aI15005
aI7
aI3257
aI63765
asg6
S'Abortion-rights individuals rarely consider themselves "pro-abortion " because they consider abortion an issue of bodily autonomy  and find forced abortion to be as legally and morally indefensible as the outlawing of abortion .'
p11
ss.