(dp1
S'input'
p2
(dp3
S'encoded'
p4
(lp5
I64
aI2179
aI394
aI2017
aI262
asS'ori'
p6
S'This house would ban boxing'
p7
ssS'output'
p8
(dp9
g4
(lp10
I155
aI1385
aI3
aI4787
aI1172
aI718
aI41
aI1174
aI5
aI5
aI1057
aI45
aI1169
aI1103
aI826
aI63765
asg6
S'They prefer the harder  slower punches (such as hooks and uppercuts) and tend to ignore combination punching .'
p11
ss.