(dp1
S'input'
p2
(dp3
S'encoded'
p4
(lp5
I64
aI2179
aI43
aI3
aI2206
aI116
aI4850
aI24
aI270
aI972
aI45
aI881
aI187
aI19
aI10443
aI2185
aI372
asS'ori'
p6
S'This house believes the US is justified in using force to prevent states from acquiring nuclear weapons'
p7
ssS'output'
p8
(dp9
g4
(lp10
I378
aI3
aI2206
aI55
aI4693
aI351
aI8792
aI291
aI120
aI16680
aI3300
aI5
aI2803
aI89
aI2010
aI11445
aI63765
asg6
S'However  the US has dismissed any similarities between those secessionist movements and Kosovo  a clear contradiction .'
p11
ss.