(dp1
S'input'
p2
(dp3
S'encoded'
p4
(lp5
I64
aI2179
aI394
aI117
aI7428
aI21151
aI34
aI11389
aI2042
aI24
aI4364
asS'ori'
p6
S'This house would only teach abstinence for sex education in schools'
p7
ssS'output'
p8
(dp9
g4
(lp10
I24
aI3
aI2471
aI7
aI667
aI14012
aI7
aI9583
aI7446
aI887
aI5615
aI78
aI458
aI887
aI5349
aI5
aI120
aI5844
aI45
aI63765
asg6
S'In 2006  the majority of new diagnoses of HIV infection among young people occurred among males and those aged 20 to 24 .'
p11
ss.