(dp1
S'input'
p2
(dp3
S'encoded'
p4
(lp5
I64
aI2179
aI43
aI63
aI134
aI116
aI400
aI21
aI34
aI3
aI260
aI45
aI3439
aI57
aI7
aI2381
asS'ori'
p6
S'This house believes that it is sometimes right for the government to restrict freedom of speech'
p7
ssS'output'
p8
(dp9
g4
(lp10
I75
aI64
aI3517
aI863
aI7
aI3
aI187
aI440
aI2215
aI3
aI2475
aI60
aI1353
aI378
aI3
aI4393
aI2533
aI122
aI13355
aI5
aI63765
asg6
S'By this stage  five of the states had ratified the Constitution with relative ease; however  the Massachusetts convention was bitter and contentious:  .'
p11
ss.