(dp1
S'input'
p2
(dp3
S'encoded'
p4
(lp5
I64
aI2179
aI43
aI63
aI2659
aI417
aI1690
aI3
aI12048
aI7
aI19084
asS'ori'
p6
S'This house believes that Israel should lift the blockade of Gaza'
p7
ssS'output'
p8
(dp9
g4
(lp10
I27110
aI7
aI2659
aI182
aI16
aI5
aI22
aI2637
aI4331
aI73
aI3089
aI63
aI3742
aI89
aI5642
aI73
aI697
aI8817
aI7
aI2591
aI60
aI3
aI10
aI7
aI2659
aI63765
asg6
S'Boycotts of Israel are economic and political cultural campaigns or actions that seek a selective or total cutting of ties with the State of Israel .'
p11
ss.