(dp1
S'input'
p2
(dp3
S'encoded'
p4
(lp5
I64
aI2179
aI394
aI1499
aI177
aI1819
aI34
aI160
asS'ori'
p6
S'This house would build high rises for housing'
p7
ssS'output'
p8
(dp9
g4
(lp10
I14
aI582
aI136
aI138
aI2642
aI7
aI5025
aI1560
aI2144
aI394
aI1068
aI45
aI831
aI45
aI19013
aI570
aI5200
aI45
aI6025
aI63765
asg6
S'On average  more than half of African American citizens would need to move to accomplish similar distribution to jobs .'
p11
ss.