(dp1
S'input'
p2
(dp3
S'encoded'
p4
(lp5
I64
aI2179
aI394
aI190
aI3
aI21
aI45
aI3895
aI834
asS'ori'
p6
S'This house would limit the right to bear arms'
p7
ssS'output'
p8
(dp9
g4
(lp10
I2196
aI8426
aI113
aI64
aI2802
aI60
aI100
aI176
aI63
aI164
aI1811
aI24
aI4434
aI3211
aI116
aI3
aI2028
aI226
aI80
aI176
aI63
aI1811
aI24
aI116
aI89
aI1228
aI24
aI2126
aI257
aI59
aI75
aI5125
aI2711
aI7
aI3943
aI604
aI7
aI3
aI4617
aI166
aI1718
aI34
aI22849
aI63765
asg6
S"Debate attends even this question  with some claiming that overall reduction in violent crime is the goal  while others claiming that reduction in gun-crime is a good in itself (even if replaced by equal numbers of  say  knife-crime) because of the gun's assumed higher potential for lethality  ."
p11
ss.