(dp1
S'input'
p2
(dp3
S'encoded'
p4
(lp5
I64
aI2179
aI394
aI5370
aI223
aI4013
aI10440
aI2446
aI4881
aI75
aI14482
aI11004
asS'ori'
p6
S'This house would abolish all collective bargaining rights claimed by trades unions'
p7
ssS'output'
p8
(dp9
g4
(lp10
I24
aI1906
aI3
aI23831
aI7
aI89
aI3572
aI4996
aI3432
aI45
aI1192
aI11140
aI7
aI271
aI2646
aI2598
aI63765
asg6
S'In November 1885  the Knights of a Washington city pushed to get rid of their Asian population .'
p11
ss.