(dp1
S'input'
p2
(dp3
S'encoded'
p4
(lp5
I64
aI2179
aI394
aI117
aI7428
aI21151
aI34
aI11389
aI2042
aI24
aI4364
asS'ori'
p6
S'This house would only teach abstinence for sex education in schools'
p7
ssS'output'
p8
(dp9
g4
(lp10
I75
aI117
aI7
aI3
aI187
aI634
aI45
aI6750
aI5
aI3222
aI5489
aI646
aI3592
aI63765
asg6
S'By 2009  only 25 of the 50 states continued to receive and pursue Title V funding  .'
p11
ss.