(dp1
S'input'
p2
(dp3
S'encoded'
p4
(lp5
I64
aI2179
aI43
aI223
aI2138
aI11
aI89
aI21
aI45
aI2185
aI372
asS'ori'
p6
S'This house believes all nations have a right to nuclear weapons'
p7
ssS'output'
p8
(dp9
g4
(lp10
I2985
aI10293
aI63
aI64
aI394
aI48
aI45
aI89
aI667
aI105
aI7
aI2185
aI372
aI5
aI394
aI3226
aI7630
aI45
aI3274
aI63765
asg6
S'Critics charge that this would lead to a new generation of nuclear weapons and would increase pressures to test .'
p11
ss.