(dp1
S'input'
p2
(dp3
S'encoded'
p4
(lp5
I64
aI2179
aI394
aI60
aI23587
asS'ori'
p6
S'This house would re-engage with Myanmar'
p7
ssS'output'
p8
(dp9
g4
(lp10
I9845
aI2164
aI1206
aI2839
aI63765
aI2813
aI451
aI15618
aI9991
aI493
aI3
aI12800
aI3024
aI397
aI25
aI2381
aI45
aI3
aI2800
aI448
aI6293
aI5
aI474
aI248
aI2203
aI45
aI1654
aI211
aI48
aI63765
asg6
S'Meanwhile  President George W . Bush introduced unilateral sanctions against the Burmese leaders during his speech to the UN General Assembly and encouraged other countries to follow its lead  .'
p11
ss.