(dp1
S'input'
p2
(dp3
S'encoded'
p4
(lp5
I64
aI2179
aI394
aI16756
aI20435
asS'ori'
p6
S'This house would criminalize blasphemy'
p7
ssS'output'
p8
(dp9
g4
(lp10
I3130
aI2617
aI2100
aI3
aI8667
aI7
aI3
aI6880
aI2734
aI24
aI6129
aI5
aI248
aI1647
aI7
aI2617
aI589
aI3
aI285
aI158
aI3
aI4257
aI7
aI89
aI4990
aI11200
aI63765
asg6
S'Previous violence included the burning of the Danish embassy in Syria and other acts of violence around the world  including the murder of a Catholic nun  .'
p11
ss.