(dp1
S'input'
p2
(dp3
S'encoded'
p4
(lp5
I64
aI2179
aI394
aI2773
aI12505
asS'ori'
p6
S'This house would embrace multiculturalism'
p7
ssS'output'
p8
(dp9
g4
(lp10
I113
aI114
aI273
aI182
aI2511
aI3
aI2022
aI7
aI3
aI626
aI187
aI637
aI11698
aI12375
aI63
aI182
aI12378
aI45
aI100
aI2812
aI2637
aI5
aI17
aI3136
aI5
aI12174
aI45
aI80
aI63765
asg6
S'Even though there are laws  the society of the United States still contain behaviors that are derogatory to some ethnic  cultural  and social groups  and preferential to others .'
p11
ss.