(dp1
S'input'
p2
(dp3
S'encoded'
p4
(lp5
I64
aI2179
aI43
aI63
aI2659
aI417
aI1690
aI3
aI12048
aI7
aI19084
asS'ori'
p6
S'This house believes that Israel should lift the blockade of Gaza'
p7
ssS'output'
p8
(dp9
g4
(lp10
I2248
aI2161
aI48884
aI366
aI7896
aI1870
aI45
aI260
aI9170
aI14
aI25
aI3089
aI2368
aI12187
aI3495
aI3867
aI2244
aI25
aI234
aI63
aI3
aI2528
aI122
aI89
aI5012
aI8220
aI63765
asg6
S"Justice Minister Yaakov Ne'eman  after reportedly lying to Government Cabinet on his actions toward nominating women  publicly expressed his view that the Court's ruling was a severe mistake  ."
p11
ss.