(dp1
S'input'
p2
(dp3
S'encoded'
p4
(lp5
I64
aI2179
aI43
aI63
aI3
aI4991
aI7
aI180
aI417
aI316
aI5396
aI19
aI3
aI169
aI10
asS'ori'
p6
S'This house believes that the Church of England should be separated from the British state'
p7
ssS'output'
p8
(dp9
g4
(lp10
I226
aI100
aI159
aI41
aI1330
aI9943
aI7
aI7718
aI2730
aI5
aI3520
aI9922
aI13224
aI3
aI1795
aI7
aI2767
aI5275
aI545
aI271
aI2624
aI80
aI675
aI3
aI9921
aI5437
aI5
aI4393
aI9947
aI5437
aI440
aI685
aI6001
aI63765
asg6
S'While some such as Roger Williams of Rhode Island and William Penn ensured the protection of religious minorities within their colonies  others like the Plymouth Colony and Massachusetts Bay Colony had established churches .'
p11
ss.