(dp1
S'input'
p2
(dp3
S'encoded'
p4
(lp5
I64
aI2179
aI43
aI63
aI2157
aI2565
aI493
aI19084
aI382
aI4850
asS'ori'
p6
S"This house believes that Israel's 2008-2009 military operations against Gaza were justified"
p7
ssS'output'
p8
(dp9
g4
(lp10
I1216
aI2233
aI63765
aI14078
aI2999
aI7
aI70
aI311
aI1206
aI16557
aI4750
aI2240
aI7
aI70
aI5
aI3000
aI8748
aI5606
aI7
aI3
aI282
aI70
aI3795
aI311
aI3
aI8434
aI1863
aI34
aI658
aI2181
aI186
aI63
aI3
aI4405
aI14
aI4013
aI1184
aI17784
aI3
aI3800
aI7
aI3135
aI73
aI2157
aI10426
aI1012
aI7102
asg6
S'Michael I . Krauss  Professor of Law at George Mason University School of Law and Abraham Bell  Director of the International Law Forum at the Jerusalem Center for Public Affairs  argue that the bar on collective punishment forbids the imposition of criminal or military penalties (imprisonment  death  etc .)'
p11
ss.