(dp1
S'input'
p2
(dp3
S'encoded'
p4
(lp5
I64
aI2179
aI394
aI60
aI23587
asS'ori'
p6
S'This house would re-engage with Myanmar'
p7
ssS'output'
p8
(dp9
g4
(lp10
I3
aI1260
aI3118
aI4317
aI1515
aI3
aI3904
aI11952
aI7
aI20214
aI6859
aI2951
aI75
aI89
aI94
aI7
aI2023
aI3727
aI63765
asg6
S'The Free Burma Coalition adopted the existing boycott of Pepsi originally started by a group of Canadian activists .'
p11
ss.