(dp1
S'input'
p2
(dp3
S'encoded'
p4
(lp5
I64
aI2179
aI43
aI63
aI3
aI4990
aI4991
aI116
aI4850
aI24
aI12166
aI3
aI475
aI7
aI3532
aI3290
aI7
aI4714
asS'ori'
p6
S'This house believes that the Catholic Church is justified in forbidding the use of barrier methods of contraception'
p7
ssS'output'
p8
(dp9
g4
(lp10
I9719
aI631
aI3611
aI63
aI3
aI3833
aI440
aI2623
aI3009
aI45
aI26945
aI3
aI6359
aI311
aI3
aI3130
aI9233
aI8599
aI4256
aI131
aI122
aI12090
aI19
aI1864
aI87
aI63765
asg6
S'Italian police revealed that the woman had previously attempted to accost the Pope at the previous Christmas Eve Mass  but was prevented from doing so  .'
p11
ss.