(dp1
S'input'
p2
(dp3
S'encoded'
p4
(lp5
I64
aI2179
aI394
aI163
aI959
aI2042
aI3557
asS'ori'
p6
S'This house would make physical education compulsory'
p7
ssS'output'
p8
(dp9
g4
(lp10
I1555
aI33989
aI7
aI12315
aI4309
aI45
aI33990
aI45
aI217
aI153
aI344
aI24
aI667
aI202
aI5825
aI63765
asg6
S'Unaccustomed overexertion of muscles leads to rhabdomyolysis (damage to muscle) most often seen in new army recruits  .'
p11
ss.