(dp1
S'input'
p2
(dp3
S'encoded'
p4
(lp5
I64
aI2179
aI235
aI3
aI2136
aI7
aI3
aI2306
aI7
aI2390
asS'ori'
p6
S'This house supports the one-child policy of the republic of China'
p7
ssS'output'
p8
(dp9
g4
(lp10
I7058
aI24
aI17790
aI382
aI9983
aI34
aI3
aI237
aI1896
aI2439
aI1592
aI3
aI9902
aI114
aI132
aI7058
aI11
aI4024
aI12
aI7947
aI63765
asg6
S'Protests in Beijing were frequent for the first few years following the 1999 edict  though these protests have largely been eradicated  .'
p11
ss.