(dp1
S'input'
p2
(dp3
S'encoded'
p4
(lp5
I64
aI2179
aI43
aI63
aI3
aI4538
aI7
aI4434
aI7793
aI283
aI45
aI3586
aI417
aI316
aI577
asS'ori'
p6
S'This house believes that the sale of violent video games to minors should be banned'
p7
ssS'output'
p8
(dp9
g4
(lp10
I897
aI4658
aI6348
aI24
aI8
aI1727
aI6323
aI60
aI17
aI5205
aI3168
aI92
aI4446
aI63
aI3862
aI88
aI7434
aI1243
aI19
aI8632
aI80
aI63765
asg6
S"Media effects theories in modern times originated with Bandura's social learning theory  which suggests that children may learn aggression from viewing others  ."
p11
ss.