(dp1
S'input'
p2
(dp3
S'encoded'
p4
(lp5
I64
aI2179
aI43
aI63
aI3
aI4990
aI4991
aI116
aI4850
aI24
aI12166
aI3
aI475
aI7
aI3532
aI3290
aI7
aI4714
asS'ori'
p6
S'This house believes that the Catholic Church is justified in forbidding the use of barrier methods of contraception'
p7
ssS'output'
p8
(dp9
g4
(lp10
I3
aI5248
aI26008
aI26009
aI27007
aI4991
aI3609
aI45
aI4714
aI4481
aI667
aI3290
aI7
aI19197
aI5
aI46598
aI1052
aI4015
aI7332
aI5
aI13454
asg6
S'The 2008 instruction Dignitas Personae reiterates Church opposition to contraception  mentioning new methods of interception and contragestion  notably female condoms and morning-after pills'
p11
ss.