(dp1
S'input'
p2
(dp3
S'encoded'
p4
(lp5
I64
aI2179
aI394
aI5370
aI3
aI5286
asS'ori'
p6
S'This house would abolish the monarchy'
p7
ssS'output'
p8
(dp9
g4
(lp10
I5672
aI5352
aI2549
aI4137
aI15334
aI279
aI24
aI2597
aI4634
aI187
aI63765
asg6
S'|- King Queen Kingdom Royal Rex (Regina) Common in larger sovereign states .'
p11
ss.