(dp1
S'input'
p2
(dp3
S'encoded'
p4
(lp5
I64
aI2179
aI43
aI63
aI2659
aI417
aI1690
aI3
aI12048
aI7
aI19084
asS'ori'
p6
S'This house believes that Israel should lift the blockade of Gaza'
p7
ssS'output'
p8
(dp9
g4
(lp10
I1592
aI3
aI19374
aI2513
aI51
aI282
aI2333
aI427
aI238
aI24
aI63747
aI2657
aI53
aI9642
aI8736
aI49
aI2155
aI34
aI3
aI63748
aI7
aI19084
aI63765
asg6
S'Following the 20082009 IsraelGaza conflict  an international conference took place in Sharm El-Sheikh  Egypt  where donors pledged almost $4 .5 billion for the resonstruction of Gaza .'
p11
ss.