(dp1
S'input'
p2
(dp3
S'encoded'
p4
(lp5
I64
aI2179
aI394
aI16756
aI20435
asS'ori'
p6
S'This house would criminalize blasphemy'
p7
ssS'output'
p8
(dp9
g4
(lp10
I14
aI2805
aI51
aI9719
aI4990
aI6423
aI2273
aI24753
aI16516
aI122
aI5047
aI45
aI11
aI12
aI1108
aI5327
aI311
aI3
aI7
aI25
aI4991
aI24
aI3
aI3386
aI7145
aI11571
aI4996
aI62862
aI63765
asg6
S'On February 6  an Italian Catholic priest named Andrea Santoro was reported to have been shot dead at the door-step of his church in the Black Sea port city Trabzon .'
p11
ss.