(dp1
S'input'
p2
(dp3
S'encoded'
p4
(lp5
I64
aI2179
aI43
aI63
aI2157
aI2565
aI493
aI19084
aI382
aI4850
asS'ori'
p6
S"This house believes that Israel's 2008-2009 military operations against Gaza were justified"
p7
ssS'output'
p8
(dp9
g4
(lp10
I3866
aI8844
aI63765
aI19389
aI116
aI89
aI809
aI2318
aI5025
aI2477
aI2483
aI707
aI5
aI5605
aI41
aI3
aI2217
aI3639
aI7
aI3
aI626
aI2138
aI282
aI3135
aI23989
aI34
aI3
aI809
aI16670
aI5
aI34
aI6122
aI63765
asg6
S'Richard J . Goldstone is a former South African Constitutional Court judge and served as the chief prosecutor of the United Nations International Criminal Tribunals for the former Yugoslavia and for Rwanda  .'
p11
ss.