(dp1
S'input'
p2
(dp3
S'encoded'
p4
(lp5
I64
aI2179
aI394
aI4325
aI2042
aI270
aI89
aI11605
aI3324
asS'ori'
p6
S'This house would fund education using a voucher scheme'
p7
ssS'output'
p8
(dp9
g4
(lp10
I12018
aI244
aI45
aI89
aI4308
aI63
aI394
aI501
aI51
aI6375
aI3361
aI51
aI1688
aI75
aI89
aI534
aI3361
aI45
aI10
aI3744
aI5
aI979
aI2503
aI3744
aI751
aI351
aI3361
aI463
aI316
aI788
aI45
aI3
aI2145
aI63765
aI2482
aI2483
aI63765
asg6
S'Stanley agreed to a compromise that would allow an administrative appeal (through an as-yet-to-be-worked-out process)  followed by a required appeal to state courts and lower federal courts before any appeal could be taken to the U .S . Supreme Court  .'
p11
ss.