(dp1
S'input'
p2
(dp3
S'encoded'
p4
(lp5
I64
aI2179
aI394
aI1499
aI177
aI1819
aI34
aI160
asS'ori'
p6
S'This house would build high rises for housing'
p7
ssS'output'
p8
(dp9
g4
(lp10
I134
aI116
aI2056
aI136
aI279
aI34
aI8015
aI7
aI3
aI279
aI3708
aI45
aI316
aI17926
aI864
aI620
aI89
aI17162
aI7865
aI73
aI63765
asg6
S'It is now more common for cleaning of the common ways to be contracted out through a managing agent or "factor" .'
p11
ss.