(dp1
S'input'
p2
(dp3
S'encoded'
p4
(lp5
I64
aI2179
aI394
aI16642
aI1376
aI5269
asS'ori'
p6
S'This house would subsidize poor communities'
p7
ssS'output'
p8
(dp9
g4
(lp10
I24
aI3
aI320
aI2164
aI13654
aI10507
aI63765
aI1309
aI2586
aI25
aI2223
aI14
aI130
aI75
aI5198
aI725
aI667
aI6543
aI45
aI9
aI158
aI15837
aI3606
aI4696
aI24
aI10289
aI658
aI160
aI5
aI136
aI63765
aI1210
aI29523
aI5810
aI159
aI4696
aI24
aI260
aI256
aI382
aI3002
aI604
aI42
aI353
aI69
aI16817
aI291
aI260
aI2194
aI5
aI120
aI81
aI463
aI99
aI1223
aI2510
aI3
aI130
aI1637
aI252
aI159
aI2194
aI63765
aI29523
aI3041
aI63
aI9
aI117
aI29524
aI231
aI14
aI3
aI260
asg6
S'In the early 1960s  President Lyndon B . Johnson began his War on Poverty by introducing many new elements to welfare  including Medicare  Medicaid  increases in subsidized public housing  and more . David Frum (2002) believed such increases in government programs were counterproductive  because he found positive correlations between government aid and those who could not stay above the poverty line without such aid . Frum concluded that welfare only bred dependence on the government '
p11
ss.