(dp1
S'input'
p2
(dp3
S'encoded'
p4
(lp5
I64
aI2179
aI43
aI63
aI2659
aI417
aI1690
aI3
aI12048
aI7
aI19084
asS'ori'
p6
S'This house believes that Israel should lift the blockade of Gaza'
p7
ssS'output'
p8
(dp9
g4
(lp10
I4809
aI63
aI9144
aI45
aI3218
aI19096
aI116
aI12509
aI45
aI3
aI78
aI7
aI19084
aI14
aI89
aI3993
aI2259
aI63765
asg6
S'Concluding that "What happened to our flotilla is happening to the people of Gaza on a daily basis .'
p11
ss.