(dp1
S'input'
p2
(dp3
S'encoded'
p4
(lp5
I64
aI2179
aI43
aI63
aI2659
aI417
aI1690
aI3
aI12048
aI7
aI19084
asS'ori'
p6
S'This house believes that Israel should lift the blockade of Gaza'
p7
ssS'output'
p8
(dp9
g4
(lp10
I3654
aI45
aI1579
aI45
aI1192
aI736
aI19084
aI41
aI725
aI7442
aI41
aI748
aI63765
asg6
S"We'll try to push to get into Gaza as many supplies as possible ."
p11
ss.