(dp1
S'input'
p2
(dp3
S'encoded'
p4
(lp5
I64
aI2179
aI394
aI190
aI3
aI21
aI45
aI3895
aI834
asS'ori'
p6
S'This house would limit the right to bear arms'
p7
ssS'output'
p8
(dp9
g4
(lp10
I3900
aI3892
aI934
aI4274
aI4274
aI4508
aI4508
aI8758
aI8758
aI3446
aI1795
aI24
aI3
aI3900
aI534
aI2346
aI34
aI4286
aI89
aI4187
aI1378
aI4404
aI24
aI1795
aI1642
aI3
aI3900
aI17309
aI17250
aI24337
aI17309
aI4508
aI13657
aI1051
aI934
aI4769
aI2217
aI1051
aI934
aI4769
aI63765
asg6
S'Home Firearms Safety Rifle Muzzle-loading Rifle Shotgun Muzzle-loading Shotgun Pistol Muzzle-loading Pistol Personal Protection in the Home (The required course for obtaining a Concealed Carry License in Michigan)Personal Protection Outside the Home Reloading Metallic Cartridges Reloading Shotgun Shells Range Safety Officer Chief Range Safety Officer  .'
p11
ss.