(dp1
S'input'
p2
(dp3
S'encoded'
p4
(lp5
I64
aI2179
aI394
aI60
aI23587
asS'ori'
p6
S'This house would re-engage with Myanmar'
p7
ssS'output'
p8
(dp9
g4
(lp10
I395
aI2962
aI2173
aI63
aI2377
aI19
aI3
aI50584
aI382
aI773
aI1969
aI24
aI45
aI3642
aI86
aI63765
asg6
S'Later reports stated that soldiers from the 99th LID were being sent in to confront them  .'
p11
ss.