(dp1
S'input'
p2
(dp3
S'encoded'
p4
(lp5
I64
aI2179
aI394
aI2773
aI12505
asS'ori'
p6
S'This house would embrace multiculturalism'
p7
ssS'output'
p8
(dp9
g4
(lp10
I273
aI182
aI2032
aI249
aI92
aI867
aI165
aI1706
aI138
aI132
aI63765
asg6
S'There are proposed measures which go much further than these .'
p11
ss.