(dp1
S'input'
p2
(dp3
S'encoded'
p4
(lp5
I64
aI2179
aI394
aI5370
aI7146
aI4585
aI2446
asS'ori'
p6
S'This house would abolish intellectual property rights'
p7
ssS'output'
p8
(dp9
g4
(lp10
I378
aI3
aI1968
aI12106
aI7
aI3955
aI5
aI248
aI2537
aI95
aI937
aI279
aI946
aI34
aI5207
aI3398
aI63765
asg6
S'However  the illegal copying of books and other text works remains common  especially for educational reasons .'
p11
ss.