(dp1
S'input'
p2
(dp3
S'encoded'
p4
(lp5
I64
aI2179
aI394
aI190
aI3
aI21
aI45
aI3895
aI834
asS'ori'
p6
S'This house would limit the right to bear arms'
p7
ssS'output'
p8
(dp9
g4
(lp10
I351
aI2035
aI176
aI63
aI211
aI3073
aI63
aI89
aI575
aI70
aI104
aI89
aI575
aI782
aI116
aI1754
aI3543
aI63
aI132
aI237
aI267
aI8358
aI382
aI3107
aI63765
asg6
S'Any study claiming that its data "shows" that a given law produced a given effect is simultaneously asserting that these first two assumptions were true .'
p11
ss.