(dp1
S'input'
p2
(dp3
S'encoded'
p4
(lp5
I64
aI2179
aI43
aI63
aI11083
aI10046
aI417
aI316
aI89
aI3135
aI4603
asS'ori'
p6
S'This house believes that Holocaust denial should be a criminal offence'
p7
ssS'output'
p8
(dp9
g4
(lp10
I3
aI5834
aI4902
aI7
aI4307
aI122
aI443
aI384
aI19
aI61
aI3
aI2370
aI500
aI45
aI271
aI2321
aI24
aI285
aI2223
aI2236
aI63765
asg6
S'The Nazi treatment of Jews was no different from what the Allies did to their enemies in World War II  .'
p11
ss.