(dp1
S'input'
p2
(dp3
S'encoded'
p4
(lp5
I64
aI2179
aI43
aI223
aI2138
aI11
aI89
aI21
aI45
aI2185
aI372
asS'ori'
p6
S'This house believes all nations have a right to nuclear weapons'
p7
ssS'output'
p8
(dp9
g4
(lp10
I7700
aI150
aI2702
aI19365
aI36660
aI36661
aI36662
aI739
aI89
aI4229
aI1848
aI19
aI237
aI45
aI237
aI475
aI493
aI1942
aI24
aI89
aI2381
aI14
aI3
aI5767
aI7
aI5445
aI10957
aI9763
aI7
aI150
aI5685
aI4758
aI24
aI667
aI9741
aI14
aI2871
aI89
aI2860
aI36662
aI742
aI5272
aI3905
aI60
aI211
aI605
aI14
aI6743
aI3965
aI63765
asg6
S'Indian National Security Advisor Shri Shivshankar Menon signaled a significant shift from "No first use" to "no first use against non-nuclear weapon states" in a speech on the occasion of Golden Jubilee celebrations of National Defence College in New Delhi on October 21  2010  a doctrine Menon said reflected India\'s "strategic culture  with its emphasis on minimal deterrence .'
p11
ss.