(dp1
S'input'
p2
(dp3
S'encoded'
p4
(lp5
I64
aI2179
aI43
aI8629
aI116
aI3
aI117
aI998
asS'ori'
p6
S'This house believes atheism is the only way'
p7
ssS'output'
p8
(dp9
g4
(lp10
I1237
aI3955
aI75
aI132
aI12716
aI480
aI291
aI5
aI399
aI3
aI2259
aI34
aI165
aI7
aI3
aI1593
aI7
aI667
aI8629
asg6
S'Several best-selling books by these authors  published between 2004 and 2007  form the basis for much of the discussion of New Atheism  .]'
p11
ss.