(dp1
S'input'
p2
(dp3
S'encoded'
p4
(lp5
I64
aI2179
aI43
aI63
aI2659
aI417
aI1690
aI3
aI12048
aI7
aI19084
asS'ori'
p6
S'This house believes that Israel should lift the blockade of Gaza'
p7
ssS'output'
p8
(dp9
g4
(lp10
I24
aI2116
aI3
aI24839
aI7116
aI89
aI8649
aI45
aI3
aI6056
aI260
aI620
aI5757
aI4307
aI63
aI3
aI2134
aI122
aI99
aI5283
aI24
aI97
aI15403
aI60
aI2659
aI5
aI89
aI2937
aI63
aI3
aI2414
aI316
aI16353
aI24
aI89
aI2696
aI159
aI41
aI6079
aI751
aI773
aI547
aI736
aI19084
aI63765
asg6
S'" In June 2011  the IHH conveyed a message to the Israeli government through Turkish Jews that the organization was not interested in another clash with Israel  and a proposal that the ships be inspected in a third-party country  such as Cyprus  before being allowed into Gaza  .'
p11
ss.