(dp1
S'input'
p2
(dp3
S'encoded'
p4
(lp5
I64
aI2179
aI43
aI63
aI3
aI21
aI45
aI12715
aI417
aI99
aI316
aI2897
asS'ori'
p6
S'This house believes that the right to asylum should not be absolute'
p7
ssS'output'
p8
(dp9
g4
(lp10
I3
aI631
aI503
aI100
aI1350
aI24
aI64
aI79
aI131
aI271
aI1028
aI122
aI63
aI7
aI21515
aI89
aI33
aI5
aI23482
aI134
aI122
aI99
aI3
aI1028
aI7
aI2909
aI5359
aI78
aI19
aI3
aI102
aI64
aI122
aI3
aI1028
aI7
aI2610
aI3243
aI270
aI2280
aI459
aI3
aI2610
aI2784
aI5
aI273
aI122
aI89
aI2010
aI1068
aI34
aI3
aI2610
aI3987
aI5
aI631
aI45
aI16861
aI1796
aI63765
asg6
S'The police enjoyed some success in this work but their job was that of proving a case and prosecuting it; it was not the job of actually removing people from the UK - this was the job of immigration officers using powers under the Immigration Act and there was a clear need for the Immigration Service and police to cooperate better .'
p11
ss.