(dp1
S'input'
p2
(dp3
S'encoded'
p4
(lp5
I64
aI2179
aI43
aI3
aI626
aI187
aI116
aI1989
aI34
aI3102
aI2223
asS'ori'
p6
S"This house believes the United States is responsible for Mexico's drugs war"
p7
ssS'output'
p8
(dp9
g4
(lp10
I93
aI4048
aI24
aI64
aI2513
aI116
aI3
aI475
aI7
aI667
aI258
aI45
aI103
aI271
aI2295
aI5
aI4155
aI2384
aI63765
asg6
S"One escalation in this conflict is the traffickers' use of new means to claim their territory and spread fear ."
p11
ss.