(dp1
S'input'
p2
(dp3
S'encoded'
p4
(lp5
I64
aI2179
aI43
aI63
aI3376
aI4938
aI417
aI316
aI3537
asS'ori'
p6
S'This house believes that endangered species should be protected'
p7
ssS'output'
p8
(dp9
g4
(lp10
I3
aI5084
aI7
aI19147
aI11022
aI6795
aI116
aI513
aI45
aI316
aI165
aI166
aI138
aI3
aI5084
aI7
aI1888
aI35
aI6795
aI63765
asg6
S'The cost of repairing damaged ecosystems is considered to be much higher than the cost of conserving natural ecosystems .'
p11
ss.