(dp1
S'input'
p2
(dp3
S'encoded'
p4
(lp5
I64
aI2179
aI43
aI63
aI3376
aI4938
aI417
aI316
aI3537
asS'ori'
p6
S'This house believes that endangered species should be protected'
p7
ssS'output'
p8
(dp9
g4
(lp10
I226
aI7797
aI5
aI6795
aI182
aI8112
aI3
aI786
aI7
aI892
aI86
aI116
aI63
aI7076
aI1019
aI8113
aI725
aI7826
aI5371
aI620
aI8114
aI5826
aI63765
asg6
S'While biodiversity and ecosystems are resilient  the danger of losing them is that humans cannot recreate many ecosystem functions through technological innovation .'
p11
ss.