(dp1
S'input'
p2
(dp3
S'encoded'
p4
(lp5
I64
aI2179
aI394
aI16756
aI20435
asS'ori'
p6
S'This house would criminalize blasphemy'
p7
ssS'output'
p8
(dp9
g4
(lp10
I3
aI70
aI493
aI20435
aI61672
aI2511
aI493
aI15785
aI3
aI2763
aI3081
aI13853
aI5714
aI5
aI7252
aI5941
aI63
aI21906
aI19
aI2763
aI2140
aI63765
asg6
S'The law against blasphemy complements laws against criticizing the Islamic regime  insulting Islam  and publishing materials that deviate from Islamic standards  .'
p11
ss.