(dp1
S'input'
p2
(dp3
S'encoded'
p4
(lp5
I64
aI2179
aI394
aI15841
aI2736
asS'ori'
p6
S'This house would disband ASEAN'
p7
ssS'output'
p8
(dp9
g4
(lp10
I87
aI24
aI3
aI31825
aI223
aI7
aI3
aI251
aI47
aI1985
aI4099
aI918
aI45
aI2736
aI10678
aI63765
asg6
S'So  in the longterm all of the problems will give negative impact to ASEAN indirectly .'
p11
ss.