(dp1
S'input'
p2
(dp3
S'encoded'
p4
(lp5
I64
aI2179
aI394
aI117
aI7428
aI21151
aI34
aI11389
aI2042
aI24
aI4364
asS'ori'
p6
S'This house would only teach abstinence for sex education in schools'
p7
ssS'output'
p8
(dp9
g4
(lp10
I378
aI5810
aI63
aI93
aI122
aI27402
aI366
aI33298
aI1641
aI5
aI5810
aI93
aI463
aI11
aI3385
aI11389
aI5
aI637
aI2455
aI27402
aI63765
asg6
S'However  44% believed that one was abstinent after genital touching and 33% believed one could have oral sex and still remain abstinent .'
p11
ss.