(dp1
S'input'
p2
(dp3
S'encoded'
p4
(lp5
I64
aI2179
aI394
aI5370
aI7146
aI4585
aI2446
asS'ori'
p6
S'This house would abolish intellectual property rights'
p7
ssS'output'
p8
(dp9
g4
(lp10
I42
aI3741
aI284
aI139
aI117
aI1336
aI316
aI11852
aI257
aI273
aI116
aI93
aI13873
aI8889
aI546
aI24
aI3
aI5686
aI5
aI63
aI546
aI12496
aI134
aI41
aI11852
aI1771
aI211
aI2554
aI41
aI159
aI63765
asg6
S'He concluded: My own can only truly be mine if there is one unambiguously strongest power in the realm  and that power treats it as mine  protecting its status as such .'
p11
ss.