(dp1
S'input'
p2
(dp3
S'encoded'
p4
(lp5
I64
aI2179
aI13605
aI2258
aI45
aI2194
asS'ori'
p6
S'This house prefers trade to aid'
p7
ssS'output'
p8
(dp9
g4
(lp10
I3164
aI2721
aI75
aI6658
aI7
aI211
aI3164
aI580
aI116
aI4617
aI45
aI316
aI7997
aI45
aI3
aI4615
aI61965
aI866
aI394
aI155
aI268
aI24
aI3
aI2721
aI63764
asg6
S'Voluntary exchange  by virtue of its voluntary nature  is assumed to be beneficial (ex ante) to the parties involvedwhy else would they engage in the exchange ?'
p11
ss.