(dp1
S'input'
p2
(dp3
S'encoded'
p4
(lp5
I64
aI2179
aI43
aI63
aI11083
aI10046
aI417
aI316
aI89
aI3135
aI4603
asS'ori'
p6
S'This house believes that Holocaust denial should be a criminal offence'
p7
ssS'output'
p8
(dp9
g4
(lp10
I24
aI2394
aI5
aI425
aI2204
aI48002
aI89
aI4169
aI2999
aI7
aI3600
aI311
aI3
aI4750
aI7
aI15370
aI3470
aI267
aI6035
aI45
aI6664
aI12739
aI176
aI63
aI3
aI2880
aI556
aI416
aI75
aI3
aI10782
aI45
aI3538
aI3
aI4307
aI500
aI99
aI4532
aI63765
asg6
S'In December 1978 and January 1979  Robert Faurisson  a French professor of literature at the University of Lyon  wrote two letters to Le Monde claiming that the gas chambers used by the Nazis to exterminate the Jews did not exist .'
p11
ss.