(dp1
S'input'
p2
(dp3
S'encoded'
p4
(lp5
I64
aI2179
aI394
aI2976
aI12243
aI24
aI954
aI126
aI1560
aI10723
asS'ori'
p6
S'This house would implement playoffs in collegiate level American football'
p7
ssS'output'
p8
(dp9
g4
(lp10
I64
aI116
aI9108
aI24
aI3
aI1643
aI2690
aI41
aI3
aI30734
aI3713
aI696
aI63765
asg6
S"Coaches' Poll: This is calculated in the same manner as the AP Poll number ."
p11
ss.