(dp1
S'input'
p2
(dp3
S'encoded'
p4
(lp5
I64
aI2179
aI43
aI63
aI3
aI4538
aI7
aI4434
aI7793
aI283
aI45
aI3586
aI417
aI316
aI577
asS'ori'
p6
S'This house believes that the sale of violent video games to minors should be banned'
p7
ssS'output'
p8
(dp9
g4
(lp10
I29278
aI24416
aI42
aI187
aI2676
aI588
aI1263
aI22
aI5
aI17
aI5143
aI24
aI575
aI63
aI124
aI51
aI5892
aI319
aI3269
aI34
aI63765
asg6
S'Exemplifying \'The Sims Online\'  he states "has built up entire political and social structures in given communities\' that provide an elaborate game life for participants"  .'
p11
ss.