(dp1
S'input'
p2
(dp3
S'encoded'
p4
(lp5
I64
aI2179
aI43
aI63
aI134
aI116
aI400
aI21
aI34
aI3
aI260
aI45
aI3439
aI57
aI7
aI2381
asS'ori'
p6
S'This house believes that it is sometimes right for the government to restrict freedom of speech'
p7
ssS'output'
p8
(dp9
g4
(lp10
I24
aI89
aI2961
aI2333
aI14
aI2871
aI60220
aI19090
aI89
aI8893
aI7
aI3
aI5761
aI2023
aI2221
aI2173
aI63
aI3
aI7050
aI2445
aI2446
aI2130
aI55
aI12
aI75
aI5
aI63
aI100
aI7
aI211
aI20463
aI182
aI2398
aI6212
aI45
aI3
aI2023
aI2763
aI2221
aI5
aI3
aI2023
aI6048
aI2133
aI15
aI7
aI92
aI233
aI45
aI19090
aI11
aI34
aI2023
aI3527
aI63765
asg6
S'In a press conference on October 2  2008  Tarek Fatah  a founder of the Muslim Canadian Congress  stated that the Ontario Human Rights Commission (OHRC) has been "infiltrated by Islamists" and that some of its commissioners are closely linked to the Canadian Islamic Congress and the Canadian Arab Federation  both of which  according to Fatah  have "contempt for Canadian values .'
p11
ss.