(dp1
S'input'
p2
(dp3
S'encoded'
p4
(lp5
I64
aI2179
aI394
aI2773
aI12505
asS'ori'
p6
S'This house would embrace multiculturalism'
p7
ssS'output'
p8
(dp9
g4
(lp10
I3916
aI9750
aI116
aI89
aI1361
aI63
aI89
aI2548
aI116
aI51
aI7370
aI4072
aI60
aI89
aI17
aI9913
aI291
aI3
aI384
aI17
aI4416
aI5
aI279
aI22
aI2170
aI63765
asg6
S'Integral nationalism is a belief that a nation is an organic unit  with a social hierarchy  co-operation between the different social classes and common political goals .'
p11
ss.