(dp1
S'input'
p2
(dp3
S'encoded'
p4
(lp5
I64
aI2179
aI43
aI63
aI6670
aI546
aI417
aI316
aI89
aI1334
aI3108
aI7
aI4849
aI1886
aI2855
asS'ori'
p6
S'This house believes that wind power should be a primary focus of future energy supply'
p7
ssS'output'
p8
(dp9
g4
(lp10
I3
aI2546
aI6670
aI6677
aI459
aI2955
aI116
aI3
aI6775
aI15127
aI15128
aI6670
aI6677
aI24
aI3
aI2809
aI63765
asg6
S'The largest wind farm under construction is the 845 MW Shepherds Flat Wind Farm in the USA .'
p11
ss.