(dp1
S'input'
p2
(dp3
S'encoded'
p4
(lp5
I64
aI2179
aI43
aI63
aI7382
aI116
aI400
aI4713
asS'ori'
p6
S'This house believes that bribery is sometimes acceptable'
p7
ssS'output'
p8
(dp9
g4
(lp10
I155
aI174
aI1074
aI12197
aI7
aI3057
aI1809
aI416
aI24
aI3
aI2889
aI63765
asg6
S'They also include definitions of critical terms used in the instrument .'
p11
ss.