(dp1
S'input'
p2
(dp3
S'encoded'
p4
(lp5
I64
aI2179
aI394
aI2773
aI12505
asS'ori'
p6
S'This house would embrace multiculturalism'
p7
ssS'output'
p8
(dp9
g4
(lp10
I1706
aI15
aI6348
aI14632
aI3
aI596
aI7
aI7960
aI40
aI1059
aI45
aI6900
aI60
aI3
aI248
aI5
aI80
aI5
aI61
aI116
aI311
aI5071
aI63765
asg6
S'Further  both theories reveal the importance of considering how best to interact with the Other and others  and what is at stake .'
p11
ss.