(dp1
S'input'
p2
(dp3
S'encoded'
p4
(lp5
I64
aI2179
aI43
aI63
aI187
aI417
aI99
aI16642
aI3
aI6449
aI7
aI3935
asS'ori'
p6
S'This house believes that states should not subsidize the growing of tobacco'
p7
ssS'output'
p8
(dp9
g4
(lp10
I4696
aI24
aI3964
aI5
aI7369
aI4423
aI11
aI29800
aI3
aI9586
aI7
aI1376
aI3926
aI5
aI3945
aI3941
aI24
aI725
aI2760
aI2203
aI946
aI24
aI2404
aI43151
aI3108
aI14
aI3
aI1068
aI45
aI3226
aI11954
aI3964
aI17529
aI3223
aI63765
asg6
S"Increases in food and fertilizer prices have underlined the vulnerability of poor urban and rural households in many developing countries  especially in Africa  renewing policymakers' focus on the need to increase staple food crop productivity ."
p11
ss.