(dp1
S'input'
p2
(dp3
S'encoded'
p4
(lp5
I64
aI2179
aI43
aI63
aI134
aI116
aI400
aI21
aI34
aI3
aI260
aI45
aI3439
aI57
aI7
aI2381
asS'ori'
p6
S'This house believes that it is sometimes right for the government to restrict freedom of speech'
p7
ssS'output'
p8
(dp9
g4
(lp10
I24
aI3
aI2954
aI2306
aI3
aI3119
aI2306
aI6013
aI6132
aI5
aI6133
aI7175
aI2953
aI5
aI2045
aI3249
aI684
aI63
aI6750
aI658
aI3592
aI182
aI2195
aI45
aI57
aI7
aI5224
aI2474
aI63765
asg6
S'In the Czech Republic  the Dominican Republic  Finland  Trinidad and Tobago  Slovakia  Poland and Iceland private bodies that receive public funding are subject to freedom of information legislation .'
p11
ss.