(dp1
S'input'
p2
(dp3
S'encoded'
p4
(lp5
I64
aI2179
aI394
aI5284
aI150
aI3987
asS'ori'
p6
S'This house would reintroduce national service'
p7
ssS'output'
p8
(dp9
g4
(lp10
I2368
aI3
aI312
aI7
aI3
aI2206
aI5262
aI51
aI1222
aI122
aI221
aI45
aI163
aI3
aI145
aI6044
aI6045
aI75
aI1646
aI134
aI736
aI89
aI5930
aI60
aI574
aI7
aI3
aI6046
aI5613
aI6047
aI699
aI89
aI696
aI63765
asg6
S"Toward the end of the US draft  an attempt was made to make the system somewhat fairer by turning it into a lottery  with each of the year's calendar dates randomly assigned a number ."
p11
ss.