(dp1
S'input'
p2
(dp3
S'encoded'
p4
(lp5
I64
aI2179
aI43
aI24
aI3
aI475
aI7
aI12436
aI3364
asS'ori'
p6
S'This house believes in the use of affirmative action'
p7
ssS'output'
p8
(dp9
g4
(lp10
I217
aI12511
aI4212
aI24
aI3
aI626
aI187
aI1409
aI4091
aI14
aI3
aI2259
aI7
aI4226
aI73
aI12909
aI2503
aI792
aI4212
aI8069
aI33022
aI717
aI14
aI63
aI3914
aI182
aI513
aI717
aI14
aI63765
asg6
S'Most hate crimes in the United States target victims on the basis of race or ethnicity (for Federal purposes  crimes targeting Hispanics based on that identity are considered based on ethnicity) .'
p11
ss.