(dp1
S'input'
p2
(dp3
S'encoded'
p4
(lp5
I64
aI2179
aI43
aI8629
aI116
aI3
aI117
aI998
asS'ori'
p6
S'This house believes atheism is the only way'
p7
ssS'output'
p8
(dp9
g4
(lp10
I51
aI7184
aI3173
aI7
aI6668
aI100
aI16379
aI4818
aI4532
aI394
aI14669
aI89
aI384
aI5612
aI7
aI773
aI89
aI2867
aI773
aI63
aI116
aI99
aI16379
aI63765
asg6
S'An adequate explanation of why some contingent beings exist would invoke a different sort of being  a necessary being that is not contingent  .'
p11
ss.