(dp1
S'input'
p2
(dp3
S'encoded'
p4
(lp5
I64
aI2179
aI43
aI63
aI3376
aI4938
aI417
aI316
aI3537
asS'ori'
p6
S'This house believes that endangered species should be protected'
p7
ssS'output'
p8
(dp9
g4
(lp10
I233
aI45
aI3
aI3
aI15203
aI7798
aI7
aI3
aI29555
aI24
aI2506
aI159
aI41
aI1005
aI2439
aI751
aI874
aI5
aI2318
aI875
aI2439
aI751
aI23658
aI2307
aI5
aI667
aI6113
aI891
aI19
aI3
aI1650
aI578
aI7
aI2445
aI4818
aI45
aI7025
aI838
aI7
aI3921
aI63
aI440
aI1301
aI344
aI86
aI751
aI5
aI382
aI3082
aI3191
aI38358
aI45
aI271
aI38359
aI8008
aI63765
asg6
S'According to the "overkill hypothesis"  the swift extinction of the megafauna in areas such as Australia (40 000 years before present)  North and South America (12 000 years before present)  Madagascar  Hawaii (300-1000 CE)  and New Zealand (1300-1500 CE)  resulted from the sudden introduction of human beings to environments full of animals that had never seen them before  and were therefore completely unadapted to their predation techniques  .'
p11
ss.