(dp1
S'input'
p2
(dp3
S'encoded'
p4
(lp5
I64
aI2179
aI43
aI63
aI134
aI116
aI400
aI21
aI34
aI3
aI260
aI45
aI3439
aI57
aI7
aI2381
asS'ori'
p6
S'This house believes that it is sometimes right for the government to restrict freedom of speech'
p7
ssS'output'
p8
(dp9
g4
(lp10
I1381
aI134
aI116
aI99
aI3467
aI3537
aI24
aI3
aI237
aI3264
aI3
aI2482
aI2483
aI743
aI24
aI14807
aI646
aI63765
aI4398
aI57
aI7
aI2016
aI45
aI316
aI89
aI2378
aI21
aI3537
aI75
aI134
aI63765
asg6
S'Although it is not explicitly protected in the First Amendment  the Supreme Court ruled  in NAACP v . Alabama    freedom of association to be a fundamental right protected by it .'
p11
ss.