(dp1
S'input'
p2
(dp3
S'encoded'
p4
(lp5
I64
aI2179
aI235
aI3
aI2136
aI7
aI3
aI2306
aI7
aI2390
asS'ori'
p6
S'This house supports the one-child policy of the republic of China'
p7
ssS'output'
p8
(dp9
g4
(lp10
I132
aI4027
aI14851
aI3862
aI9957
aI777
aI366
aI773
aI729
aI14837
aI5
aI3052
aI7
aI57078
aI24
aI18323
aI34
aI89
aI27527
aI73
aI481
aI4893
aI63765
asg6
S'" These stories depict children hanging themselves after being denied sweets  and cases of matricide in retribution for a scolding or late dinner  .'
p11
ss.