(dp1
S'input'
p2
(dp3
S'encoded'
p4
(lp5
I64
aI2179
aI394
aI4261
aI8667
aI3
aI9361
aI5
aI17069
asS'ori'
p6
S'This house would prohibit burning the stars and stripes'
p7
ssS'output'
p8
(dp9
g4
(lp10
I3
aI905
aI7
aI3
aI2221
aI24
aI13786
aI64
aI3264
aI63765
aI258
aI48855
aI960
aI73
aI2507
aI12705
aI36243
aI24
aI89
aI998
aI63
aI3
aI17541
aI8393
aI47
aI992
aI25556
aI93
aI73
aI136
aI4224
aI1856
aI45
aI789
aI73
aI7278
aI25
aI3364
aI63765
aI63765
asg6
S'The Report of the 108th Congress  in proposing this amendment  stated:" . .\'desecrate\' means deface  damage  or otherwise physically mistreat in a way that the actor knows will seriously offend one or more persons likely to observe or discover his action . ."  .'
p11
ss.