(dp1
S'input'
p2
(dp3
S'encoded'
p4
(lp5
I64
aI2179
aI394
aI117
aI7428
aI21151
aI34
aI11389
aI2042
aI24
aI4364
asS'ori'
p6
S'This house would only teach abstinence for sex education in schools'
p7
ssS'output'
p8
(dp9
g4
(lp10
I60
aI223
aI3
aI214
aI5
aI251
aI4955
aI45
aI5027
aI11389
aI233
aI45
aI3
aI2015
aI4758
aI7
aI7719
aI155
aI6540
aI316
aI206
aI11389
aI131
aI257
aI155
aI182
aI73
aI3548
aI45
aI3
aI1608
aI1059
aI1963
aI116
aI63
aI155
aI7817
aI3
aI596
aI7
aI1771
aI777
aI493
aI3271
aI9583
aI5
aI21155
asg6
S'With all the issues and problems relating to adolescent sex  according to the Medical College of Wisconsin  "Ideally  they wont be having sex  but if they are or intend to  the next best thing is that they understand the importance of protecting themselves against pregnancy  HIV and STDs ."'
p11
ss.