(dp1
S'input'
p2
(dp3
S'encoded'
p4
(lp5
I64
aI2179
aI13605
aI2258
aI45
aI2194
asS'ori'
p6
S'This house prefers trade to aid'
p7
ssS'output'
p8
(dp9
g4
(lp10
I958
aI138
aI18971
aI19049
aI45
aI3218
aI2194
aI2666
aI73
aI117
aI108
aI60
aI3049
aI73
aI1228
aI220
aI9087
aI43
aI357
aI417
aI358
aI3
aI1380
aI7
aI260
aI24
aI3
aI9413
aI2696
aI41
aI89
aI6954
aI1411
aI63765
asg6
S'Rather than attach strings to our aid dollars  or only Working with democracies or good governments  Sachs believes we should Consider the type of government in the needy country as a secondary Concern .'
p11
ss.