(dp1
S'input'
p2
(dp3
S'encoded'
p4
(lp5
I64
aI2179
aI43
aI63
aI3
aI28431
aI7
aI2157
aI4624
aI75
aI39939
aI27257
aI122
aI4850
asS'ori'
p6
S'This house believes that the leaking of military documents by Anat Kamm was justified'
p7
ssS'output'
p8
(dp9
g4
(lp10
I2211
aI2135
aI2202
aI2180
aI8384
aI4290
aI495
aI7599
aI7
aI4393
aI742
aI4272
aI132
aI4624
aI415
aI45
aI5958
aI155
aI5918
aI2034
aI3369
aI1191
aI3
aI6260
aI7
aI2136
aI2368
aI2661
aI5
aI2678
aI63765
asg6
S'" Senate Foreign Relations Committee chairman Senator John Kerry (Democrat) of Massachusetts said "However illegally these documents came to light  they raise serious questions about the reality of America\'s policy toward Pakistan and Afghanistan .'
p11
ss.