(dp1
S'input'
p2
(dp3
S'encoded'
p4
(lp5
I64
aI2179
aI394
aI16756
aI20435
asS'ori'
p6
S'This house would criminalize blasphemy'
p7
ssS'output'
p8
(dp9
g4
(lp10
I3
aI7149
aI7
aI889
aI1647
aI5
aI500
aI99
aI1074
aI20435
aI887
aI748
aI18
aI34
aI3593
aI92
aI382
aI32961
aI25590
aI7179
aI7
aI4714
aI73
aI3257
aI5
aI3
aI33
aI7
aI7045
aI3108
aI14
aI3211
aI63765
asg6
S'The Censorship of Publications Acts (1929 and 1946) did not include blasphemy among possible grounds for banning  which were indecency  obscenity  promotion of "unnatural" contraception or abortion  and (in the case of periodicals) excessive focus on crime  .'
p11
ss.