(dp1
S'input'
p2
(dp3
S'encoded'
p4
(lp5
I64
aI2179
aI43
aI8629
aI116
aI3
aI117
aI998
asS'ori'
p6
S'This house believes atheism is the only way'
p7
ssS'output'
p8
(dp9
g4
(lp10
I14
aI3
aI248
aI823
aI5480
aI606
aI22038
aI16646
aI5
aI3
aI11641
aI7
aI25938
aI9956
aI63765
asg6
S'On the other side  God placed sorrow  tears  and the souls of righteous martyrs .'
p11
ss.