(dp1
S'input'
p2
(dp3
S'encoded'
p4
(lp5
I64
aI2179
aI43
aI63
aI3
aI21
aI45
aI12715
aI417
aI99
aI316
aI2897
asS'ori'
p6
S'This house believes that the right to asylum should not be absolute'
p7
ssS'output'
p8
(dp9
g4
(lp10
I2356
aI116
aI174
aI4174
aI34
aI5
aI88
aI174
aI2723
aI252
aI15473
aI39841
aI63765
asg6
S'Depression is also characteristic for PTSD-patients and may also occur without accompanying PTSD .'
p11
ss.