(dp1
S'input'
p2
(dp3
S'encoded'
p4
(lp5
I64
aI2179
aI43
aI24
aI3
aI475
aI7
aI12436
aI3364
asS'ori'
p6
S'This house believes in the use of affirmative action'
p7
ssS'output'
p8
(dp9
g4
(lp10
I273
aI15353
aI1978
aI122
aI89
aI8569
aI2548
aI7
aI63
aI41324
aI3646
aI113
aI351
aI229
aI14436
aI843
aI24
aI3364
aI73
aI24
aI11249
aI63765
asg6
S'There scarcely ever was a civilised nation of that complexion  nor even any individual  eminent either in action or in speculation .'
p11
ss.