(dp1
S'input'
p2
(dp3
S'encoded'
p4
(lp5
I64
aI2179
aI394
aI3830
aI3
aI475
aI7
aI9441
aI13132
aI3102
aI24
aI276
aI381
asS'ori'
p6
S'This house would permit the use of performance enhancing drugs in professional sports'
p7
ssS'output'
p8
(dp9
g4
(lp10
I3217
aI4779
aI139
aI316
aI104
aI75
aI475
aI73
aI7045
aI16477
aI7
aI13922
aI12269
asg6
S'Health risks can be produced by long-term use or excessive doses of anabolic steroids'
p11
ss.