(dp1
S'input'
p2
(dp3
S'encoded'
p4
(lp5
I64
aI2179
aI43
aI8629
aI116
aI3
aI117
aI998
asS'ori'
p6
S'This house believes atheism is the only way'
p7
ssS'output'
p8
(dp9
g4
(lp10
I18735
aI5
aI18736
aI382
aI24
aI4031
aI1688
aI75
aI248
aI9744
aI14624
aI8237
aI159
aI41
aI18560
aI5
aI18737
aI63765
asg6
S"Knutzen and Meslier were in turn followed by other openly atheistic thinkers  such as Baron d'Holbach and Jacques-Andre Naigeon  ."
p11
ss.