(dp1
S'input'
p2
(dp3
S'encoded'
p4
(lp5
I64
aI2179
aI43
aI63
aI6670
aI546
aI417
aI316
aI89
aI1334
aI3108
aI7
aI4849
aI1886
aI2855
asS'ori'
p6
S'This house believes that wind power should be a primary focus of future energy supply'
p7
ssS'output'
p8
(dp9
g4
(lp10
I200
aI64
aI3532
aI394
aI7747
aI45
aI3
aI2042
aI7
aI7015
aI18097
aI24
aI6670
aI1886
aI63765
asg6
S'Reducing this barrier would contribute to the education of engineers specializing in wind energy .'
p11
ss.