(dp1
S'input'
p2
(dp3
S'encoded'
p4
(lp5
I64
aI2179
aI43
aI17
aI4941
aI857
aI3211
asS'ori'
p6
S'This house believes social deprivation causes crime'
p7
ssS'output'
p8
(dp9
g4
(lp10
I122
aI2966
aI45
aI126
aI3
aI5600
aI1528
aI291
aI1488
aI5
aI1445
aI3224
aI131
aI3
aI2234
aI7
aI5119
aI3550
aI3211
aI116
aI2645
aI45
aI3
aI1557
aI1445
aI3224
aI182
aI1031
aI45
aI141
aI136
aI30335
aI4112
aI5
aI1377
aI2702
aI63765
asg6
S'E-commerce was supposed to level the playing ground between small and large businesses  but the growth of online organized crime is leading to the opposite effect; large businesses are able to afford more bandwidth (to resist denial-of-service attacks) and superior security .'
p11
ss.