(dp1
S'input'
p2
(dp3
S'encoded'
p4
(lp5
I64
aI2179
aI43
aI63
aI3
aI21
aI45
aI12715
aI417
aI99
aI316
aI2897
asS'ori'
p6
S'This house believes that the right to asylum should not be absolute'
p7
ssS'output'
p8
(dp9
g4
(lp10
I1560
aI27872
aI9534
aI1004
aI89
aI6437
aI24
aI3
aI481
aI398
aI64
aI413
aI5869
aI311
aI1968
aI16761
aI4024
aI1157
aI204
aI24
aI3
aI4342
aI7
aI667
aI10426
aI493
aI1968
aI2610
aI24
aI63765
asg6
S'American nativist sentiment experienced a resurgence in the late 20th century  this time directed at illegal aliens  largely Mexican resulting in the passage of new penalties against illegal immigration in 1996 .'
p11
ss.