(dp1
S'input'
p2
(dp3
S'encoded'
p4
(lp5
I64
aI2179
aI43
aI223
aI2138
aI11
aI89
aI21
aI45
aI2185
aI372
asS'ori'
p6
S'This house believes all nations have a right to nuclear weapons'
p7
ssS'output'
p8
(dp9
g4
(lp10
I1592
aI3
aI18064
aI42134
aI2185
aI7750
aI3609
aI13806
aI24
aI327
aI63765
asg6
S'Following the Fukushima Daiichi nuclear disaster  anti-nuclear opposition intensified in Germany .'
p11
ss.