(dp1
S'input'
p2
(dp3
S'encoded'
p4
(lp5
I64
aI2179
aI43
aI223
aI2138
aI11
aI89
aI21
aI45
aI2185
aI372
asS'ori'
p6
S'This house believes all nations have a right to nuclear weapons'
p7
ssS'output'
p8
(dp9
g4
(lp10
I24
aI282
aI2702
aI89
aI2136
aI7
aI3965
aI246
aI3888
aI45
aI7188
aI7
aI2157
aI8692
aI5869
aI75
aI3
aI3024
aI7
aI93
aI10
aI45
aI3
aI3024
aI7
aI97
aI24
aI51
aI1222
aI45
aI881
aI3
aI248
aI10
aI19
aI14558
aI45
aI3
aI2731
aI7
aI475
aI7
aI2157
aI972
aI24
aI10938
aI7
aI211
aI2135
aI2136
aI2170
aI63765
asg6
S'In international security  a policy of deterrence generally refers to threats of military retaliation directed by the leaders of one state to the leaders of another in an attempt to prevent the other state from resorting to the threat of use of military force in pursuit of its foreign policy goals .'
p11
ss.