(dp1
S'input'
p2
(dp3
S'encoded'
p4
(lp5
I64
aI2179
aI43
aI63
aI3357
aI5003
aI652
aI3
aI188
aI3262
asS'ori'
p6
S'This house believes that opinion polls harm the democratic process'
p7
ssS'output'
p8
(dp9
g4
(lp10
I237
aI134
aI1772
aI3
aI10484
aI3084
aI257
aI155
aI11
aI221
aI351
aI8252
aI14
aI3
aI10472
aI40
aI165
aI8252
aI55
aI12
aI221
aI5
aI24
aI61
aI7815
aI155
aI11
aI12
aI1609
aI73
aI892
aI1528
aI63765
asg6
S'First  it lets the candidate know if they have made any progress on the ballot  how much progress has been made  and in what demographics they have been making or losing ground .'
p11
ss.