(dp1
S'input'
p2
(dp3
S'encoded'
p4
(lp5
I64
aI2179
aI43
aI63
aI2659
aI417
aI1690
aI3
aI12048
aI7
aI19084
asS'ori'
p6
S'This house believes that Israel should lift the blockade of Gaza'
p7
ssS'output'
p8
(dp9
g4
(lp10
I3754
aI282
aI70
aI2999
aI311
aI25188
aI4750
aI2240
aI7
aI70
aI1966
aI63
aI3
aI4347
aI27053
aI7414
aI14
aI282
aI70
aI4531
aI45
aI2218
aI6006
aI311
aI7145
aI7177
aI45
aI89
aI1780
aI24
aI92
aI3
aI2511
aI7
aI2223
aI291
aI187
aI182
aI24
aI972
aI63765
asg6
S"Anthony D'Amato  international law professor at Northwestern University School of Law  argued that the San Remo Manual on International Law Applicable to Armed Conflicts at Sea applies to a situation in which the laws of war between states are in force ."
p11
ss.