(dp1
S'input'
p2
(dp3
S'encoded'
p4
(lp5
I64
aI2179
aI394
aI4325
aI2042
aI270
aI89
aI11605
aI3324
asS'ori'
p6
S'This house would fund education using a voucher scheme'
p7
ssS'output'
p8
(dp9
g4
(lp10
I3007
aI2538
aI63
aI42
aI2807
aI5
aI5561
aI493
aI10400
aI34
aI2579
aI5
aI2880
aI6228
aI63765
asg6
S'Paul says that he opposes and votes against subsidies for oil and gas companies .'
p11
ss.