(dp1
S'input'
p2
(dp3
S'encoded'
p4
(lp5
I64
aI2179
aI43
aI63
aI2157
aI2565
aI493
aI19084
aI382
aI4850
asS'ori'
p6
S"This house believes that Israel's 2008-2009 military operations against Gaza were justified"
p7
ssS'output'
p8
(dp9
g4
(lp10
I64
aI1351
aI7
aI2617
aI5
aI8692
aI29457
aI2997
aI45
aI46404
aI9676
aI2250
aI24
aI3
aI2654
aI63765
asg6
S'This cycle of violence and retaliation impedes efforts to broker lasting peace in the region .'
p11
ss.