(dp1
S'input'
p2
(dp3
S'encoded'
p4
(lp5
I64
aI2179
aI394
aI1499
aI3
aI8115
aI34564
aI17106
asS'ori'
p6
S'This house would build the Keystone XL pipeline'
p7
ssS'output'
p8
(dp9
g4
(lp10
I24
aI2871
aI3
aI667
aI2086
aI1727
aI5598
aI3
aI12740
aI7
aI3
aI6669
aI3068
aI7
aI3
aI17106
aI3818
aI75
aI52542
aI52543
aI51
aI6669
aI29166
aI717
aI24
aI25502
aI63765
asg6
S'In October 2011  The New York Times questioned the impartiality of the environmental analysis of the pipeline done by Cardno Entrix  an environmental contractor based in Houston .'
p11
ss.