(dp1
S'input'
p2
(dp3
S'encoded'
p4
(lp5
I64
aI2179
aI43
aI24
aI3
aI475
aI7
aI12436
aI3364
asS'ori'
p6
S'This house believes in the use of affirmative action'
p7
ssS'output'
p8
(dp9
g4
(lp10
I5267
aI1799
aI89
aI3213
aI60
aI979
aI9441
aI6836
aI45
aI857
aI7931
aI6737
aI45
aI3
aI4900
aI24
aI9441
aI63765
asg6
S'Indeed  choosing a worker with lower performance (in comparison to salary) causes losses proportional to the difference in performance .'
p11
ss.