(dp1
S'input'
p2
(dp3
S'encoded'
p4
(lp5
I64
aI2179
aI394
aI5370
aI7146
aI4585
aI2446
asS'ori'
p6
S'This house would abolish intellectual property rights'
p7
ssS'output'
p8
(dp9
g4
(lp10
I97
aI782
aI7
aI8
aI11704
aI6417
aI116
aI45
aI521
aI964
aI45
aI4537
aI589
aI45
aI233
aI45
aI645
aI4692
aI32787
aI574
aI7156
aI63765
asg6
S'Another effect of modern patent usage is to cause competitors to design around (or to "invent around" according to R S Praveen Raj) each other\'s patents .'
p11
ss.