(dp1
S'input'
p2
(dp3
S'encoded'
p4
(lp5
I64
aI2179
aI394
aI5842
aI3569
aI446
aI13498
asS'ori'
p6
S'This house would introduce year round schooling'
p7
ssS'output'
p8
(dp9
g4
(lp10
I1453
aI3
aI127
aI7
aI3
aI2041
aI11918
aI5137
aI3
aI566
aI4779
aI63764
asg6
S'Do the benefits of the research yielded outweigh the associated risks ?'
p11
ss.