(dp1
S'input'
p2
(dp3
S'encoded'
p4
(lp5
I64
aI2179
aI43
aI63
aI3
aI4538
aI7
aI4434
aI7793
aI283
aI45
aI3586
aI417
aI316
aI577
asS'ori'
p6
S'This house believes that the sale of violent video games to minors should be banned'
p7
ssS'output'
p8
(dp9
g4
(lp10
I3
aI29246
aI15029
aI29247
aI34
aI6396
aI124
aI23663
aI7
aI29248
aI5
aI5600
aI311
aI89
aI1445
aI10900
aI2117
aI7
aI1237
aI7
aI4071
aI319
aI1366
aI63765
asg6
S'The Everquest Fan Faires for instance  provide weekends of socializing and playing  at a large gathering (an event of several thousands) of dedicated game fans .'
p11
ss.