(dp1
S'input'
p2
(dp3
S'encoded'
p4
(lp5
I64
aI2179
aI394
aI1499
aI3
aI8115
aI34564
aI17106
asS'ori'
p6
S'This house would build the Keystone XL pipeline'
p7
ssS'output'
p8
(dp9
g4
(lp10
I24
aI2871
aI52555
aI2791
aI134
aI122
aI3820
aI260
aI4268
aI34
aI89
aI667
aI3262
aI45
aI512
aI51221
aI263
aI51221
aI1811
aI2565
aI92
aI15166
aI3
aI3925
aI7
aI10382
aI12214
aI1492
aI1495
aI5
aI22146
aI19268
aI24
aI22902
aI366
aI2579
aI15177
aI3596
aI63765
asg6
S'In October 2009  Suncor announced it was seeking government approval for a new process to recover tailings called Tailings Reduction Operations  which accelerates the settling of fine clay  sand  water  and residual bitumen in ponds after oil sands extraction .'
p11
ss.