(dp1
S'input'
p2
(dp3
S'encoded'
p4
(lp5
I64
aI2179
aI43
aI63
aI3
aI21
aI45
aI12715
aI417
aI99
aI316
aI2897
asS'ori'
p6
S'This house believes that the right to asylum should not be absolute'
p7
ssS'output'
p8
(dp9
g4
(lp10
I233
aI45
aI3
aI3073
aI7
aI3
aI6056
aI7354
aI5496
aI3
aI696
aI7
aI132
aI1968
aI5307
aI9085
aI45
aI78
aI45
aI492
aI63765
asg6
S'According to the data of the Israeli Interior Ministry  the number of these illegal immigrants amounted to 26 635 people to July 2010  .'
p11
ss.