(dp1
S'input'
p2
(dp3
S'encoded'
p4
(lp5
I64
aI2179
aI43
aI3
aI626
aI187
aI116
aI1989
aI34
aI3102
aI2223
asS'ori'
p6
S"This house believes the United States is responsible for Mexico's drugs war"
p7
ssS'output'
p8
(dp9
g4
(lp10
I24
aI8690
aI742
aI63
aI3
aI8679
aI3742
aI3423
aI3
aI5
aI1370
aI45
aI6476
aI89
aI11844
aI75
aI972
aI7
aI834
aI5
aI182
aI113
aI1370
aI45
aI6476
aI271
aI284
aI2511
aI63765
asg6
S'In 2010 Calderon said that the cartels seek "to replace the government" and "are trying to impose a monopoly by force of arms  and are even trying to impose their own laws .'
p11
ss.