(dp1
S'input'
p2
(dp3
S'encoded'
p4
(lp5
I64
aI2179
aI43
aI63
aI187
aI417
aI99
aI16642
aI3
aI6449
aI7
aI3935
asS'ori'
p6
S'This house believes that states should not subsidize the growing of tobacco'
p7
ssS'output'
p8
(dp9
g4
(lp10
I25398
aI3
aI43224
aI2880
aI399
aI7
aI10141
aI736
aI3
aI11040
aI116
aI89
aI1595
aI5
aI419
aI1112
aI998
aI7
aI1704
aI3102
aI736
aI3
aI19464
aI3
aI2880
aI58252
aI2818
aI736
aI3
aI14004
aI7321
aI768
aI736
aI3
aI3780
aI5
aI19
aI273
aI45
aI3
aI5
aI4664
aI3
aI11674
aI545
aI149
aI138
aI89
aI1950
aI7
aI3
aI237
aI19465
aI63765
asg6
S'Inhaling the vaporized gas form of substances into the lungs is a quick and very effective way of delivering drugs into the bloodstream (as the gas diffuses directly into the pulmonary vein  then into the heart and from there to the brain) and affects the user within less than a second of the first inhalation .'
p11
ss.