(dp1
S'input'
p2
(dp3
S'encoded'
p4
(lp5
I64
aI2179
aI394
aI2017
aI262
asS'ori'
p6
S'This house would ban boxing'
p7
ssS'output'
p8
(dp9
g4
(lp10
I18303
aI41224
aI116
aI1240
aI279
aI887
aI518
aI206
aI440
aI572
aI14065
aI5
aI2933
aI89
aI325
aI725
aI592
aI45
aI3
aI536
aI63765
asg6
S'Dementia pugilistica is relatively common among boxers having had long careers and received a great many blows to the head .'
p11
ss.