(dp1
S'input'
p2
(dp3
S'encoded'
p4
(lp5
I64
aI2179
aI394
aI2773
aI12505
asS'ori'
p6
S'This house would embrace multiculturalism'
p7
ssS'output'
p8
(dp9
g4
(lp10
I1381
aI100
aI51752
aI3300
aI15
aI1420
aI5
aI8
aI11
aI6347
aI2547
aI1604
aI759
aI7
aI3
aI626
aI187
aI132
aI11
aI99
aI3488
aI657
aI96
aI887
aI15283
aI63765
asg6
S'Although some small-scale annexationist movements  both historical and modern  have promoted Canada becoming part of the United States  these have not attracted widespread support among Canadians .'
p11
ss.