(dp1
S'input'
p2
(dp3
S'encoded'
p4
(lp5
I64
aI2179
aI43
aI223
aI2138
aI11
aI89
aI21
aI45
aI2185
aI372
asS'ori'
p6
S'This house believes all nations have a right to nuclear weapons'
p7
ssS'output'
p8
(dp9
g4
(lp10
I155
aI221
aI117
aI1407
aI2955
aI1017
aI14
aI15
aI24
aI5
aI55
aI99
aI1651
aI63765
asg6
S'They made only slow progress; construction halted on both in 1994 and has not resumed .'
p11
ss.