(dp1
S'input'
p2
(dp3
S'encoded'
p4
(lp5
I64
aI2179
aI394
aI2976
aI12243
aI24
aI954
aI126
aI1560
aI10723
asS'ori'
p6
S'This house would implement playoffs in collegiate level American football'
p7
ssS'output'
p8
(dp9
g4
(lp10
I3
aI34949
aI10931
aI34
aI3
aI5159
aI122
aI3
aI1643
aI41
aI3375
aI63
aI3
aI3366
aI5216
aI4758
aI10723
aI3713
aI59
aI3
aI30734
aI3713
aI63765
asg6
S'The BCS formula for the 200506 season was the same as 200405  except that the Harris Interactive College Football Poll replaced the AP poll .'
p11
ss.