(dp1
S'input'
p2
(dp3
S'encoded'
p4
(lp5
I64
aI2179
aI235
aI3
aI2136
aI7
aI3
aI2306
aI7
aI2390
asS'ori'
p6
S'This house supports the one-child policy of the republic of China'
p7
ssS'output'
p8
(dp9
g4
(lp10
I42
aI43
aI63
aI64
aI2096
aI55
aI174
aI12
aI557
aI75
aI100
aI78
aI638
aI2445
aI2231
aI63765
asg6
S'He believes that this idea has also been held by some people throughout human history .'
p11
ss.