(dp1
S'input'
p2
(dp3
S'encoded'
p4
(lp5
I64
aI2179
aI394
aI5284
aI150
aI3987
asS'ori'
p6
S'This house would reintroduce national service'
p7
ssS'output'
p8
(dp9
g4
(lp10
I24
aI5259
aI5
aI3
aI460
aI81
aI394
aI1199
aI25
aI22
aI15763
aI667
aI2086
aI10
aI15764
aI15765
aI15766
aI3
aI495
aI4380
aI63765
aI3755
aI188
aI666
aI24
aI15678
aI4322
aI3
aI11411
aI63765
asg6
S'In 1964  Rangel and the man who would become his political mentor  New York State Assemblyman Percy Sutton  co-founded the John F . Kennedy Democratic Club in Harlem (later renamed the Rev .'
p11
ss.