(dp1
S'input'
p2
(dp3
S'encoded'
p4
(lp5
I64
aI2179
aI394
aI2017
aI262
asS'ori'
p6
S'This house would ban boxing'
p7
ssS'output'
p8
(dp9
g4
(lp10
I8
aI262
aI322
aI24
aI323
aI324
aI325
aI326
aI5
aI327
aI63765
asg6
S'Modern boxing evolved in Europe  particularly Great Britain and Germany .'
p11
ss.