(dp1
S'input'
p2
(dp3
S'encoded'
p4
(lp5
I64
aI2179
aI394
aI5370
aI3
aI5286
asS'ori'
p6
S'This house would abolish the monarchy'
p7
ssS'output'
p8
(dp9
g4
(lp10
I2643
aI3
aI2210
aI116
aI75
aI2533
aI775
aI6405
aI63765
asg6
S'Today  the role is by convention effectively ceremonial  .'
p11
ss.