(dp1
S'input'
p2
(dp3
S'encoded'
p4
(lp5
I64
aI2179
aI43
aI17
aI4941
aI857
aI3211
asS'ori'
p6
S'This house believes social deprivation causes crime'
p7
ssS'output'
p8
(dp9
g4
(lp10
I89
aI658
aI3217
aI1039
aI8497
aI3
aI1334
aI2466
aI7
aI2617
aI2233
aI63765
asg6
S'A public health approach emphasizes the primary prevention of violence  i .e .'
p11
ss.