(dp1
S'input'
p2
(dp3
S'encoded'
p4
(lp5
I64
aI2179
aI394
aI117
aI7428
aI21151
aI34
aI11389
aI2042
aI24
aI4364
asS'ori'
p6
S'This house would only teach abstinence for sex education in schools'
p7
ssS'output'
p8
(dp9
g4
(lp10
I24
aI3
aI3912
aI24
aI3
aI398
aI273
aI122
aI89
aI6038
aI597
aI45
aI773
aI89
aI3874
aI5
aI51
aI16187
aI3315
aI463
aI316
aI17692
aI75
aI3
aI8559
aI7
aI3
aI8532
aI63765
asg6
S"In the West  in the mid-20th century  there was a stigma attached to being a 'one-parent family ' and an illegitimate child could be legitimized by the marriage of the parents ."
p11
ss.