(dp1
S'input'
p2
(dp3
S'encoded'
p4
(lp5
I64
aI2179
aI43
aI63
aI3
aI4991
aI7
aI180
aI417
aI316
aI5396
aI19
aI3
aI169
aI10
asS'ori'
p6
S'This house believes that the Church of England should be separated from the British state'
p7
ssS'output'
p8
(dp9
g4
(lp10
I64
aI4217
aI11445
aI24
aI2165
aI708
aI7
aI3
aI4991
aI2425
aI45
aI546
aI13084
aI5
aI3214
aI7
aI5277
aI1052
aI24
aI3
aI10889
aI4573
aI92
aI122
aI3272
aI24
aI3
aI31385
aI7
aI9823
aI24
aI63765
asg6
S'This unresolved contradiction in ultimate control of the Church led to power struggles and crises of leadership  notably in the Investiture Controversy  which was resolved in the Concordat of Worms in 1122 .'
p11
ss.