(dp1
S'input'
p2
(dp3
S'encoded'
p4
(lp5
I64
aI2179
aI43
aI63
aI2157
aI2565
aI493
aI19084
aI382
aI4850
asS'ori'
p6
S"This house believes that Israel's 2008-2009 military operations against Gaza were justified"
p7
ssS'output'
p8
(dp9
g4
(lp10
I3
aI19102
aI5
aI1186
aI7
aI5805
aI7
aI5806
aI7
aI19084
aI3180
aI11
aI12
aI3493
asg6
S'the livelihoods and assets of tens of thousands of Gaza civilians have been affected'
p11
ss.