(dp1
S'input'
p2
(dp3
S'encoded'
p4
(lp5
I64
aI2179
aI394
aI2998
aI3
aI4360
aI7
aI3249
aI6804
aI24
aI3
aI102
asS'ori'
p6
S'This house would encourage the creation of private universities in the UK'
p7
ssS'output'
p8
(dp9
g4
(lp10
I7
aI3
aI2546
aI658
aI2572
aI17657
aI11
aI12
aI9272
aI7
aI47264
aI63765
asg6
S"15 of the world's 20 largest public share offerings have been privatizations of telecoms  ."
p11
ss.