(dp1
S'input'
p2
(dp3
S'encoded'
p4
(lp5
I64
aI2179
aI43
aI24
aI3
aI475
aI7
aI12436
aI3364
asS'ori'
p6
S'This house believes in the use of affirmative action'
p7
ssS'output'
p8
(dp9
g4
(lp10
I44494
aI48
aI45
aI3
aI1811
aI24
aI4232
aI1565
aI5
aI2793
aI1565
aI5307
aI24
aI3
aI150
aI3957
aI10931
aI7
aI3
aI5148
aI5891
aI2784
aI7
aI5
aI3
aI2610
aI2784
aI7
aI564
aI2028
aI122
aI45
aI1049
aI3
aI2554
aI3037
aI5200
aI7
aI12909
aI75
aI3583
aI2610
aI24
aI5973
aI45
aI3904
aI3162
aI63765
asg6
S'Nordicism lead to the reduction in Southern European and Eastern European immigrants in the National Origins Formula of the Emergency Quota Act of 1921 and the Immigration Act of 1924  whose goal was to maintain the status quo distribution of ethnicity by limiting immigration in proportion to existing populations .'
p11
ss.