(dp1
S'input'
p2
(dp3
S'encoded'
p4
(lp5
I64
aI2179
aI43
aI63
aI3376
aI4938
aI417
aI316
aI3537
asS'ori'
p6
S'This house believes that endangered species should be protected'
p7
ssS'output'
p8
(dp9
g4
(lp10
I24
aI248
aI4199
aI211
aI4676
aI116
aI45
aI949
aI150
aI2167
aI34
aI3
aI6793
aI5
aI6806
aI475
aI7
aI7128
aI2768
aI63765
asg6
S'In other words  its objective is to develop national strategies for the conservation and sustainable use of biological diversity .'
p11
ss.