(dp1
S'input'
p2
(dp3
S'encoded'
p4
(lp5
I64
aI2179
aI394
aI16642
aI1376
aI5269
asS'ori'
p6
S'This house would subsidize poor communities'
p7
ssS'output'
p8
(dp9
g4
(lp10
I3
aI4324
aI79
aI2051
aI11
aI7539
aI725
aI130
aI3552
aI63
aI133
aI3
aI667
aI3645
aI881
aI147
aI63
aI182
aI1559
aI73
aI63
aI1160
aI950
aI19
aI10494
aI34
aI79
aI63765
asg6
S'The tougher work restrictions have upset many poverty advocates that believe the new regulations prevent individuals that are vulnerable or that lack skills from preparing for work .'
p11
ss.