(dp1
S'input'
p2
(dp3
S'encoded'
p4
(lp5
I64
aI2179
aI43
aI63
aI3
aI21
aI45
aI12715
aI417
aI99
aI316
aI2897
asS'ori'
p6
S'This house believes that the right to asylum should not be absolute'
p7
ssS'output'
p8
(dp9
g4
(lp10
I3
aI17409
aI128
aI122
aI165
aI149
aI2147
aI24
aI3
aI2145
aI63765
aI946
aI366
aI89
aI281
aI4251
aI24
aI667
aI2086
aI4996
aI24
aI63765
asg6
S'The Orange Order was much less influential in the U .S .  especially after a major riot in New York City in 1871 .'
p11
ss.