(dp1
S'input'
p2
(dp3
S'encoded'
p4
(lp5
I64
aI2179
aI394
aI4325
aI2042
aI270
aI89
aI11605
aI3324
asS'ori'
p6
S'This house would fund education using a voucher scheme'
p7
ssS'output'
p8
(dp9
g4
(lp10
I42
aI3172
aI63
aI2143
aI417
aI316
aI1031
aI45
aI3165
aI271
aI137
aI24
aI351
aI998
aI63
aI155
aI2383
aI63765
asg6
S'" He argues that corporations should be able to spend their money in any way that they want  .'
p11
ss.