(dp1
S'input'
p2
(dp3
S'encoded'
p4
(lp5
I64
aI2179
aI394
aI2998
aI3
aI4360
aI7
aI3249
aI6804
aI24
aI3
aI102
asS'ori'
p6
S'This house would encourage the creation of private universities in the UK'
p7
ssS'output'
p8
(dp9
g4
(lp10
I21610
aI4750
aI9590
aI2062
aI24
aI9590
aI4281
aI116
aI3
aI117
aI3249
aI4750
aI24
aI4281
aI3847
aI256
aI24
aI70
aI1757
aI5
aI17501
aI63765
asg6
S'Leman University Geneva  founded in Geneva Switzerland  is the only Private University in Switzerland offering programs in Law (Bachelor  Masters and Ph .D .) .'
p11
ss.