(dp1
S'input'
p2
(dp3
S'encoded'
p4
(lp5
I64
aI2179
aI394
aI4325
aI2042
aI270
aI89
aI11605
aI3324
asS'ori'
p6
S'This house would fund education using a voucher scheme'
p7
ssS'output'
p8
(dp9
g4
(lp10
I24
aI425
aI42
aI988
aI25
aI2369
aI96
aI34
aI1655
aI3249
aI17
aI2702
aI2156
aI63765
asg6
S'" In January 2000  he repeated his strong support for creating private Social Security accounts  .'
p11
ss.