(dp1
S'input'
p2
(dp3
S'encoded'
p4
(lp5
I64
aI2179
aI394
aI2017
aI3807
aI314
aI3433
asS'ori'
p6
S'This house would ban partial birth abortions'
p7
ssS'output'
p8
(dp9
g4
(lp10
I3
aI1379
aI366
aI155
aI2791
aI271
aI752
aI24
aI3371
aI155
aI3382
aI45
aI3383
aI15
aI3254
aI5
aI3259
aI63765
asg6
S'The day after they announced their decision in Vuitch  they voted to hear both Roe and Doe  .'
p11
ss.