(dp1
S'input'
p2
(dp3
S'encoded'
p4
(lp5
I64
aI2179
aI235
aI3
aI2136
aI7
aI3
aI2306
aI7
aI2390
asS'ori'
p6
S'This house supports the one-child policy of the republic of China'
p7
ssS'output'
p8
(dp9
g4
(lp10
I233
aI45
aI3
aI8700
aI3
aI52950
aI122
aI34
aI385
aI34
aI3946
aI5
aI34
aI63765
asg6
S'According to the 2000 census  the TFR was 1 .85 (0 .86 for cities  1 .08 for towns and 1 .43 for villages/outposts) .'
p11
ss.