(dp1
S'input'
p2
(dp3
S'encoded'
p4
(lp5
I64
aI2179
aI394
aI475
aI2135
aI2194
aI6198
aI45
aI2041
aI5
aI13926
aI8732
aI63
aI1735
aI12708
aI5
aI5599
aI24
aI2203
aI45
aI1397
aI7149
aI5
aI12311
aI271
aI5119
aI4948
asS'ori'
p6
S'This house would use foreign aid funds to research and distribute software that allows bloggers and journalists in non-democratic countries to evade censorship and conceal their online activities'
p7
ssS'output'
p8
(dp9
g4
(lp10
I7147
aI7149
aI19296
aI116
aI3
aI3262
aI416
aI75
aI11976
aI39152
aI7147
aI1517
aI45
aI24972
aI3
aI1022
aI2738
aI7
aI7147
aI24314
aI5
aI951
aI3757
aI45
aI2507
aI11664
aI7371
aI63765
asg6
S'Internet censorship circumvention is the process used by technologically savvy Internet users to bypass the technical aspects of Internet filtering and gain access to otherwise censored material .'
p11
ss.