(dp1
S'input'
p2
(dp3
S'encoded'
p4
(lp5
I64
aI2179
aI43
aI3
aI626
aI187
aI116
aI1989
aI34
aI3102
aI2223
asS'ori'
p6
S"This house believes the United States is responsible for Mexico's drugs war"
p7
ssS'output'
p8
(dp9
g4
(lp10
I89
aI6449
aI696
aI7
aI2144
aI182
aI2853
aI63
aI3
aI1157
aI2157
aI116
aI183
aI1173
aI24
aI3
aI619
aI7
aI10
aI1843
aI89
aI8799
aI8800
aI7
aI89
aI136
aI3085
aI681
aI63765
asg6
S'A growing number of citizens are concerned that the Mexican military is "becoming too powerful in the face of state weakness  a chilling reminder of a more repressive era .'
p11
ss.