(dp1
S'input'
p2
(dp3
S'encoded'
p4
(lp5
I64
aI2179
aI43
aI17
aI4941
aI857
aI3211
asS'ori'
p6
S'This house believes social deprivation causes crime'
p7
ssS'output'
p8
(dp9
g4
(lp10
I14053
aI116
aI3057
aI7
aI17
aI708
aI3168
aI604
aI134
aI3418
aI12604
aI63
aI17
aI2567
aI3446
aI7243
aI5
aI4859
aI63
aI184
aI13537
aI182
aI17
aI2183
aI116
aI93
aI1025
aI6668
aI3168
aI116
aI153
aI401
aI45
aI41
aI89
aI17
aI9022
aI63765
asg6
S"Gibbs is critical of Hirschi's Social Control Theory because it merely assumes that social relationships  personal investments and beliefs that discourage delinquency are social controls (which is one reason why Hirschi's theory is often referred to as a Social Bond Theory) ."
p11
ss.