(dp1
S'input'
p2
(dp3
S'encoded'
p4
(lp5
I64
aI2179
aI394
aI5284
aI150
aI3987
asS'ori'
p6
S'This house would reintroduce national service'
p7
ssS'output'
p8
(dp9
g4
(lp10
I24
aI42
aI2933
aI89
aI2272
aI11151
aI19
aI11845
aI4758
aI63765
asg6
S'In 2006 he received a Presidential Medal from Baruch College  .'
p11
ss.