(dp1
S'input'
p2
(dp3
S'encoded'
p4
(lp5
I64
aI2179
aI43
aI17
aI4941
aI857
aI3211
asS'ori'
p6
S'This house believes social deprivation causes crime'
p7
ssS'output'
p8
(dp9
g4
(lp10
I3
aI869
aI1486
aI7
aI708
aI139
aI3709
aI881
aI17076
aI13537
aI63765
asg6
S'The four types of control can help prevent juvenile delinquency are:  .'
p11
ss.