(dp1
S'input'
p2
(dp3
S'encoded'
p4
(lp5
I64
aI2179
aI43
aI63
aI187
aI417
aI99
aI16642
aI3
aI6449
aI7
aI3935
asS'ori'
p6
S'This house believes that states should not subsidize the growing of tobacco'
p7
ssS'output'
p8
(dp9
g4
(lp10
I132
aI49366
aI11
aI49369
aI5110
aI19
aI4477
aI32462
aI3
aI3935
aI252
aI18311
aI134
aI45
aI10873
aI1551
aI3858
aI3
aI6929
aI289
aI3
aI2346
aI7
aI3
aI11362
aI63765
asg6
S'These barns have flues run from externally-fed fire boxes  heat-curing the tobacco without exposing it to smoke  slowly raising the temperature over the course of the curing .'
p11
ss.