(dp1
S'input'
p2
(dp3
S'encoded'
p4
(lp5
I64
aI2179
aI43
aI223
aI2138
aI11
aI89
aI21
aI45
aI2185
aI372
asS'ori'
p6
S'This house believes all nations have a right to nuclear weapons'
p7
ssS'output'
p8
(dp9
g4
(lp10
I226
aI3
aI2411
aI2471
aI7
aI187
aI11
aI20621
aI45
aI3
aI11567
aI7
aI3
aI2185
aI2184
aI2268
aI89
aI1896
aI187
aI11
aI843
aI3763
aI45
aI2267
aI3
aI2268
aI73
aI11
aI5535
aI2185
aI372
aI256
aI226
aI99
aI773
aI2789
aI7
aI3
aI2268
aI63765
asg6
S'While the vast majority of states have adhered to the stipulations of the Nuclear Nonproliferation Treaty  a few states have either refused to sign the treaty or have pursued nuclear weapons programs while not being members of the treaty .'
p11
ss.