(dp1
S'input'
p2
(dp3
S'encoded'
p4
(lp5
I64
aI2179
aI43
aI63
aI134
aI116
aI400
aI21
aI34
aI3
aI260
aI45
aI3439
aI57
aI7
aI2381
asS'ori'
p6
S'This house believes that it is sometimes right for the government to restrict freedom of speech'
p7
ssS'output'
p8
(dp9
g4
(lp10
I3
aI440
aI12
aI17314
aI75
aI51
aI2388
aI2483
aI128
aI24
aI89
aI4256
aI14427
aI155
aI382
aI1360
aI16096
aI366
aI2303
aI3343
aI411
aI32977
aI3435
aI89
aI20799
aI34
aI86
aI24
aI51
aI15947
aI33
aI63765
asg6
S'The "Zyprexa documents" had been sealed by an earlier court order in a mass tort case; they were widely disseminated after Alaska attorney James Gottstein issued a subpoena for them in an unrelated case .'
p11
ss.