(dp1
S'input'
p2
(dp3
S'encoded'
p4
(lp5
I64
aI2179
aI13605
aI2258
aI45
aI2194
asS'ori'
p6
S'This house prefers trade to aid'
p7
ssS'output'
p8
(dp9
g4
(lp10
I2135
aI2573
aI5
aI2882
aI5945
aI2385
aI5092
aI3
aI16
aI2282
aI7
aI1167
aI6449
aI2646
aI2138
aI63765
asg6
S'Foreign investment and export industries helped fuel the economic expansion of fast growing Asian nations  .'
p11
ss.