(dp1
S'input'
p2
(dp3
S'encoded'
p4
(lp5
I64
aI2179
aI394
aI163
aI959
aI2042
aI3557
asS'ori'
p6
S'This house would make physical education compulsory'
p7
ssS'output'
p8
(dp9
g4
(lp10
I8544
aI16329
aI378
aI139
aI174
aI48
aI45
aI3020
aI158
aI23969
aI177
aI1991
aI1347
aI3780
aI4368
aI7016
aI251
aI5057
aI5
aI248
aI14678
aI63765
asg6
S'Childhood obesity however can also lead to life-threatening conditions including diabetes  high blood pressure  heart disease  sleep problems  cancer  and other disorders  .'
p11
ss.