(dp1
S'input'
p2
(dp3
S'encoded'
p4
(lp5
I64
aI2179
aI394
aI475
aI2135
aI2194
aI6198
aI45
aI2041
aI5
aI13926
aI8732
aI63
aI1735
aI12708
aI5
aI5599
aI24
aI2203
aI45
aI1397
aI7149
aI5
aI12311
aI271
aI5119
aI4948
asS'ori'
p6
S'This house would use foreign aid funds to research and distribute software that allows bloggers and journalists in non-democratic countries to evade censorship and conceal their online activities'
p7
ssS'output'
p8
(dp9
g4
(lp10
I147
aI5
aI2142
aI88
aI268
aI24
aI34
aI3292
aI2767
aI73
aI2190
aI3398
aI45
aI13198
aI45
aI6217
aI13541
aI1021
aI45
aI18230
aI73
aI864
aI7
aI2384
aI7
aI976
aI73
aI248
aI6203
aI63765
asg6
S'Individuals and organizations may engage in self-censorship for moral  religious  or business reasons  to conform to societal norms  due to intimidation  or out of fear of legal or other consequences .'
p11
ss.