(dp1
S'input'
p2
(dp3
S'encoded'
p4
(lp5
I64
aI2179
aI394
aI4325
aI2042
aI270
aI89
aI11605
aI3324
asS'ori'
p6
S'This house would fund education using a voucher scheme'
p7
ssS'output'
p8
(dp9
g4
(lp10
I3007
aI122
aI2200
aI89
aI11590
aI2802
aI311
aI89
aI15997
aI171
aI2196
aI75
aI13693
aI2671
aI25152
aI49058
aI1191
aI40
aI2022
aI417
aI4823
aI257
aI89
aI7993
aI460
aI81
aI297
aI493
aI8866
aI3217
aI197
aI6887
aI1298
aI16865
aI85
aI34
aI1530
aI3131
aI63765
asg6
S'Paul  was asked a hypothetical question at a Tea Party debate by CNN host Wolf Blitzer about how society should respond if a healthy 30-year-old man who decided against buying health insurance suddenly requires intensive care for six months .'
p11
ss.