(dp1
S'input'
p2
(dp3
S'encoded'
p4
(lp5
I64
aI2179
aI394
aI4261
aI8667
aI3
aI9361
aI5
aI17069
asS'ori'
p6
S'This house would prohibit burning the stars and stripes'
p7
ssS'output'
p8
(dp9
g4
(lp10
I397
aI4116
aI1727
aI28
aI2381
aI3645
aI382
aI958
aI3301
aI63765
asg6
S'During colonial times  English speech regulations were rather restrictive .'
p11
ss.