(dp1
S'input'
p2
(dp3
S'encoded'
p4
(lp5
I64
aI2179
aI43
aI63
aI3
aI4990
aI4991
aI116
aI4850
aI24
aI12166
aI3
aI475
aI7
aI3532
aI3290
aI7
aI4714
asS'ori'
p6
S'This house believes that the Catholic Church is justified in forbidding the use of barrier methods of contraception'
p7
ssS'output'
p8
(dp9
g4
(lp10
I1198
aI17347
aI3
aI9788
aI1198
aI2380
aI45
aI5004
aI9835
aI41
aI89
aI829
aI7
aI1260
aI4662
aI63765
aI5
aI13447
aI24
aI2247
aI2487
aI63765
asg6
S'""If you obey the gospel  you ought to regard celibacy as a matter of free choice . .They [Jesus and Paul] glory in faith alone .'
p11
ss.