(dp1
S'input'
p2
(dp3
S'encoded'
p4
(lp5
I64
aI2179
aI43
aI63
aI11083
aI10046
aI417
aI316
aI89
aI3135
aI4603
asS'ori'
p6
S'This house believes that Holocaust denial should be a criminal offence'
p7
ssS'output'
p8
(dp9
g4
(lp10
I48012
aI5
aI25
aI3648
aI18001
aI15327
aI1966
aI63
aI3
aI4185
aI7
aI3
aI3135
aI4674
aI7
aI2547
aI4185
aI116
aI51
aI8794
aI7
aI3
aI2550
aI7
aI2446
aI63765
asg6
S'Keegstra and his lawyer  Doug Christie  argued that the section of the Criminal Code of Canada (now section 319{2})  is an infringement of the Charter of Rights (section 9{b}) .'
p11
ss.