(dp1
S'input'
p2
(dp3
S'encoded'
p4
(lp5
I64
aI2179
aI394
aI1499
aI177
aI1819
aI34
aI160
asS'ori'
p6
S'This house would build high rises for housing'
p7
ssS'output'
p8
(dp9
g4
(lp10
I24
aI89
aI11276
aI19
aI39524
aI4750
aI928
aI63
aI3
aI5545
aI39509
aI440
aI12
aI13549
aI4039
aI5
aI463
aI316
aI575
aI667
aI3269
aI60
aI39525
aI60
aI39526
aI5
aI32112
aI63765
asg6
S'In 1970 a team from Strathclyde University demonstrated that the old tenements had been basically sound  and could be given new life with replumbing with kitchens and bathroom  .'
p11
ss.