(dp1
S'input'
p2
(dp3
S'encoded'
p4
(lp5
I64
aI2179
aI394
aI2773
aI12505
asS'ori'
p6
S'This house would embrace multiculturalism'
p7
ssS'output'
p8
(dp9
g4
(lp10
I30710
aI3172
aI114
aI63
aI132
aI256
aI99
aI117
aI382
aI89
aI807
aI131
aI63
aI155
aI1438
aI2637
aI3348
aI7
aI2755
aI5
aI24
aI89
aI998
aI63
aI2264
aI368
aI3708
aI7
aI3659
aI5
aI773
aI63765
asg6
S'Elyachar argues though  that these programs not only were a failure  but that they shifted cultural opinions of value (personal and cultural) in a way that favored Western ways of thinking and being   .'
p11
ss.