(dp1
S'input'
p2
(dp3
S'encoded'
p4
(lp5
I64
aI2179
aI394
aI5370
aI223
aI4013
aI10440
aI2446
aI4881
aI75
aI14482
aI11004
asS'ori'
p6
S'This house would abolish all collective bargaining rights claimed by trades unions'
p7
ssS'output'
p8
(dp9
g4
(lp10
I132
aI6225
aI11004
aI378
aI5873
aI13388
aI92
aI24
aI4031
aI182
aI2789
aI7
aI28068
aI3
aI2692
aI150
aI2258
aI2131
aI6127
aI63765
asg6
S'These enterprise unions  however  join industry-wide federations which in turn are members of Rengo  the Japanese national trade union confederation  .'
p11
ss.