(dp1
S'input'
p2
(dp3
S'encoded'
p4
(lp5
I64
aI2179
aI43
aI63
aI3
aI4538
aI7
aI4434
aI7793
aI283
aI45
aI3586
aI417
aI316
aI577
asS'ori'
p6
S'This house believes that the sale of violent video games to minors should be banned'
p7
ssS'output'
p8
(dp9
g4
(lp10
I653
aI3384
aI45
aI3
aI4980
aI378
aI159
aI39171
aI11
aI12
aI1779
aI41
aI89
aI7693
aI1623
aI75
aI9126
aI5
aI17372
aI7
aI7793
aI283
aI5
aI3
aI4927
aI7
aI678
aI503
aI75
aI283
aI87
aI1545
aI88
aI316
aI5022
aI45
aI3
aI12390
aI2617
aI7
aI248
aI136
aI4434
aI2789
aI7
aI3
aI57038
aI63765
asg6
S'Despite arguments to the contrary  however  such characterizations have been employed as a marketing tool by makers and distributors of non-violent video games  and the degree of popularity enjoyed by games so described may be attributed to the comparative violence of other more violent members of the supergenre .'
p11
ss.