(dp1
S'input'
p2
(dp3
S'encoded'
p4
(lp5
I64
aI2179
aI43
aI63
aI3376
aI4938
aI417
aI316
aI3537
asS'ori'
p6
S'This house believes that endangered species should be protected'
p7
ssS'output'
p8
(dp9
g4
(lp10
I725
aI5188
aI18846
aI5
aI2900
aI7
aI223
aI3102
aI11
aI63765
asg6
S'Many chemical formulae and forty-five percent of all drugs have bio-origin  .'
p11
ss.