(dp1
S'input'
p2
(dp3
S'encoded'
p4
(lp5
I64
aI2179
aI394
aI2017
aI3807
aI314
aI3433
asS'ori'
p6
S'This house would ban partial birth abortions'
p7
ssS'output'
p8
(dp9
g4
(lp10
I34
aI1343
aI4801
aI4802
aI3748
aI4446
aI4803
aI870
aI3
aI4204
aI45
aI142
aI3702
aI3
aI710
aI45
aI4804
aI5
aI63765
asg6
S'For example  Mary Ann Warren suggests consciousness (at least the capacity to feel pain)  reasoning  self-motivation  the ability to communicate  and self-awareness  .'
p11
ss.