(dp1
S'input'
p2
(dp3
S'encoded'
p4
(lp5
I64
aI2179
aI43
aI63
aI3
aI4991
aI7
aI180
aI417
aI316
aI5396
aI19
aI3
aI169
aI10
asS'ori'
p6
S'This house believes that the Church of England should be separated from the British state'
p7
ssS'output'
p8
(dp9
g4
(lp10
I24
aI248
aI6509
aI3
aI536
aI7
aI260
aI73
aI536
aI7
aI10
aI73
aI248
aI878
aI167
aI88
aI316
aI118
aI534
aI45
aI316
aI89
aI2544
aI7
aI89
aI575
aI2247
aI63765
asg6
S'In other kingdoms  the head of government or head of state or other high-ranking official figures may be legally required to be a member of a given faith .'
p11
ss.