(dp1
S'input'
p2
(dp3
S'encoded'
p4
(lp5
I64
aI2179
aI13605
aI2258
aI45
aI2194
asS'ori'
p6
S'This house prefers trade to aid'
p7
ssS'output'
p8
(dp9
g4
(lp10
I2351
aI3205
aI1052
aI8907
aI139
aI316
aI221
aI12757
aI45
aI3
aI1376
aI620
aI2186
aI159
aI41
aI1109
aI27669
aI63765
asg6
S'Financial services  notably savings  can be made accessible to the poor through technology  such as mobile banking  .'
p11
ss.