(dp1
S'input'
p2
(dp3
S'encoded'
p4
(lp5
I64
aI2179
aI394
aI163
aI959
aI2042
aI3557
asS'ori'
p6
S'This house would make physical education compulsory'
p7
ssS'output'
p8
(dp9
g4
(lp10
I6030
aI56568
aI444
aI116
aI4328
aI5
aI2449
aI45
aI51
aI2845
aI6535
aI444
aI63765
asg6
S"Simple weighingThe person's weight is measured and compared to an estimated ideal weight ."
p11
ss.