(dp1
S'input'
p2
(dp3
S'encoded'
p4
(lp5
I64
aI2179
aI43
aI63
aI2659
aI417
aI1690
aI3
aI12048
aI7
aI19084
asS'ori'
p6
S'This house believes that Israel should lift the blockade of Gaza'
p7
ssS'output'
p8
(dp9
g4
(lp10
I3
aI15885
aI5496
aI7
aI2135
aI2181
aI3435
aI89
aI3419
aI3270
aI3
aI260
aI3740
aI13773
aI3
aI988
aI6056
aI4212
aI62
aI14
aI3
aI282
aI2178
aI158
aI220
aI2142
aI5
aI6619
aI45
aI2118
aI1544
aI136
aI138
aI351
aI413
aI751
aI493
aI3
aI10
aI7
aI3
aI27161
aI7254
aI5
aI45
aI342
aI3
aI212
aI546
aI7
aI70
aI45
aI881
aI2659
aI19
aI61
aI116
aI5024
aI7
aI4212
aI493
aI7275
aI5
aI8579
aI493
aI3
aI19088
aI78
aI63765
asg6
S'" The Sudanese Ministry of Foreign Affairs issued a statement saying the "Sudan government  strongly condemning the repeated Israeli crimes  calls on the international community  including governments  organizations and peoples  to come together  more than [at] any time before  against the state of the Zionist enemy and to show the real power of law to prevent Israel from what is committing of crimes against humanity and genocide against the Palestinian people .'
p11
ss.