(dp1
S'input'
p2
(dp3
S'encoded'
p4
(lp5
I64
aI2179
aI394
aI5842
aI3569
aI446
aI13498
asS'ori'
p6
S'This house would introduce year round schooling'
p7
ssS'output'
p8
(dp9
g4
(lp10
I4364
aI1102
aI24
aI481
aI2116
aI5
aI3852
aI24
aI320
aI2555
aI63765
asg6
S'Schools close in late June and reopen in early September .'
p11
ss.