(dp1
S'input'
p2
(dp3
S'encoded'
p4
(lp5
I64
aI2179
aI43
aI3
aI626
aI187
aI116
aI1989
aI34
aI3102
aI2223
asS'ori'
p6
S"This house believes the United States is responsible for Mexico's drugs war"
p7
ssS'output'
p8
(dp9
g4
(lp10
I20717
aI23389
aI23338
aI7509
aI5606
aI3435
aI89
aI1849
aI3
aI1643
aI1379
aI2618
aI63
aI2164
aI2136
aI14
aI3102
aI116
aI89
aI656
aI17531
aI19
aI3130
aI9636
aI45
aI2613
aI2136
aI63765
asg6
S"Rafael Lemaitre  ONDCP Communications Director  issued a response the same day stating that President Obama's policy on drugs is a marked departure from previous approaches to drug policy  ."
p11
ss.