(dp1
S'input'
p2
(dp3
S'encoded'
p4
(lp5
I64
aI2179
aI394
aI2017
aI223
aI9058
aI23653
asS'ori'
p6
S'This house would ban all unsustainable logging'
p7
ssS'output'
p8
(dp9
g4
(lp10
I3
aI2231
aI7
aI217
aI2609
aI1560
aI2203
aI1230
aI7404
aI7
aI7809
aI5
aI22921
aI63765
asg6
S'The history of most Central American countries involves cycles of deforestation and reforestation .'
p11
ss.