(dp1
S'input'
p2
(dp3
S'encoded'
p4
(lp5
I64
aI2179
aI43
aI8629
aI116
aI3
aI117
aI998
asS'ori'
p6
S'This house believes atheism is the only way'
p7
ssS'output'
p8
(dp9
g4
(lp10
I2985
aI957
aI864
aI63
aI1237
aI8313
aI382
aI2062
aI75
aI147
aI81
aI406
aI45
aI316
aI270
aI3
aI2382
aI34
aI4992
aI73
aI7330
aI792
aI159
aI41
aI2351
aI951
aI3757
aI45
aI546
aI73
aI8831
aI5387
aI15517
aI63765
asg6
S'Critics point out that several religions were founded by individuals who appeared to be using the religion for immoral or corrupt purposes  such as financial gain  access to power  or justifying multiple wives .'
p11
ss.