(dp1
S'input'
p2
(dp3
S'encoded'
p4
(lp5
I64
aI2179
aI43
aI24
aI3
aI475
aI7
aI12436
aI3364
asS'ori'
p6
S'This house believes in the use of affirmative action'
p7
ssS'output'
p8
(dp9
g4
(lp10
I3
aI2445
aI2446
aI3601
aI2031
aI64
aI103
aI41
aI261
aI2618
aI63
aI7
aI5946
aI4546
aI7
aI2613
aI4212
aI182
aI7565
aI2449
aI60
aI7
aI4546
aI5948
aI63765
asg6
S'The Human Rights Watch supported this claim as well  stating that of blacks convicted of drug crimes 71% are incarcerated  compared with 63% of convicted whites  .'
p11
ss.