(dp1
S'input'
p2
(dp3
S'encoded'
p4
(lp5
I64
aI2179
aI43
aI8629
aI116
aI3
aI117
aI998
asS'ori'
p6
S'This house believes atheism is the only way'
p7
ssS'output'
p8
(dp9
g4
(lp10
I3
aI26
aI122
aI480
aI14
aI88
aI5
aI545
aI89
aI3427
aI440
aI753
aI443
aI63765
asg6
S'The book was published on May 1  2007  and within a week had reached No .'
p11
ss.