(dp1
S'input'
p2
(dp3
S'encoded'
p4
(lp5
I64
aI2179
aI43
aI63
aI187
aI417
aI99
aI16642
aI3
aI6449
aI7
aI3935
asS'ori'
p6
S'This house believes that states should not subsidize the growing of tobacco'
p7
ssS'output'
p8
(dp9
g4
(lp10
I14833
aI88
aI1510
aI7747
aI45
aI3
aI2234
aI7
aI25266
aI15845
aI8977
aI3
aI1263
aI2598
aI3
aI5973
aI7
aI25266
aI3052
aI24
aI3
aI448
aI2598
aI9461
aI45
aI14832
aI55
aI99
aI3503
aI12
aI9108
aI63765
asg6
S'Smoking may substantially contribute to the growth of influenza epidemics affecting the entire population  .However the proportion of influenza cases in the general non-smoking population attributable to smokers has not yet been calculated .'
p11
ss.