(dp1
S'input'
p2
(dp3
S'encoded'
p4
(lp5
I64
aI2179
aI43
aI63
aI2659
aI417
aI1690
aI3
aI12048
aI7
aI19084
asS'ori'
p6
S'This house believes that Israel should lift the blockade of Gaza'
p7
ssS'output'
p8
(dp9
g4
(lp10
I51
aI7075
aI7
aI3
aI3089
aI788
aI75
aI3
aI18024
aI7
aI3
aI19096
aI5
aI211
aI655
aI5
aI271
aI3914
aI63765
asg6
S'An examination of the actions taken by the organizers of the flotilla and its participants and their identity .'
p11
ss.