(dp1
S'input'
p2
(dp3
S'encoded'
p4
(lp5
I64
aI2179
aI43
aI17
aI4941
aI857
aI3211
asS'ori'
p6
S'This house believes social deprivation causes crime'
p7
ssS'output'
p8
(dp9
g4
(lp10
I17
aI57589
aI16229
aI982
aI3211
aI2722
aI45
aI15703
aI6685
aI4935
aI17119
aI19
aI7294
aI15794
aI382
aI655
aI24
aI89
aI21328
aI24
aI92
aI13537
aI122
aI5530
aI8935
aI5
aI63
aI5032
aI122
aI4595
aI24
aI17
aI5
aI2637
aI4098
aI620
aI89
aI3262
aI7
aI2141
aI63765
asg6
S'Social disorganization theory: linking (directly) low crime rates to neighborhood ecological characteristics  youths from disadvantaged neighborhoods were participants in a subculture in which delinquency was approved behavior and that criminality was acquired in social and cultural settings through a process of interaction .'
p11
ss.