(dp1
S'input'
p2
(dp3
S'encoded'
p4
(lp5
I64
aI2179
aI43
aI17
aI4941
aI857
aI3211
asS'ori'
p6
S'This house believes social deprivation causes crime'
p7
ssS'output'
p8
(dp9
g4
(lp10
I229
aI4817
aI73
aI20009
aI2038
aI1356
aI63
aI88
aI163
aI849
aI136
aI1856
aI1074
aI982
aI1306
aI43958
aI73
aI3
aI5374
aI45
aI9139
aI50494
aI1243
aI8627
aI5
aI14686
aI63765
asg6
S'Individual psychological or behavioural risk factors that may make offending more likely include low intelligence  impulsiveness or the inability to delay gratification  aggression  empathy  and restlessness  .'
p11
ss.