(dp1
S'input'
p2
(dp3
S'encoded'
p4
(lp5
I64
aI2179
aI394
aI2017
aI628
asS'ori'
p6
S'This house would ban gambling'
p7
ssS'output'
p8
(dp9
g4
(lp10
I273
aI116
aI443
aI3292
aI11627
aI45
aI628
asg6
S'there is no moral impediment to gambling'
p11
ss.