(dp1
S'input'
p2
(dp3
S'encoded'
p4
(lp5
I64
aI2179
aI43
aI17
aI4941
aI857
aI3211
asS'ori'
p6
S'This house believes social deprivation causes crime'
p7
ssS'output'
p8
(dp9
g4
(lp10
I63
aI89
aI8420
aI116
aI353
aI31953
aI73
aI89
aI6188
aI20
aI820
aI5
aI63
aI6809
aI24
aI3135
aI364
aI182
aI99
aI1032
aI717
aI14
aI53
aI4285
aI3281
aI63765
asg6
S'that a car is found unlocked or a window left open and that patterns in criminal activity are not simply based on where criminals live .'
p11
ss.