(dp1
S'input'
p2
(dp3
S'encoded'
p4
(lp5
I64
aI2179
aI13605
aI2258
aI45
aI2194
asS'ori'
p6
S'This house prefers trade to aid'
p7
ssS'output'
p8
(dp9
g4
(lp10
I24
aI89
aI19057
aI2035
aI45
aI19002
aI19058
aI11670
aI63
aI917
aI7
aI189
aI5
aI1683
aI2194
aI1721
aI45
aI316
aI149
aI5117
aI4386
aI2898
aI24
aI3
aI19059
aI63765
asg6
S'In a followup study to Collier  Dalgaard finds that regardless of policies and utility  aid seems to be less efficient per dollar in the tropics .'
p11
ss.