(dp1
S'input'
p2
(dp3
S'encoded'
p4
(lp5
I64
aI2179
aI43
aI17
aI4941
aI857
aI3211
asS'ori'
p6
S'This house believes social deprivation causes crime'
p7
ssS'output'
p8
(dp9
g4
(lp10
I3503
aI3
aI5556
aI7
aI9184
aI24
aI1197
aI159
aI41
aI20004
aI7764
aI6715
aI3
aI24366
aI63
aI5268
aI182
aI31488
aI60
aI804
aI63765
asg6
S'Yet the presence of youth in places such as shopping malls fuels the panic that kids are loitering with intent .'
p11
ss.