(dp1
S'input'
p2
(dp3
S'encoded'
p4
(lp5
I64
aI2179
aI394
aI5370
aI223
aI4013
aI10440
aI2446
aI4881
aI75
aI14482
aI11004
asS'ori'
p6
S'This house would abolish all collective bargaining rights claimed by trades unions'
p7
ssS'output'
p8
(dp9
g4
(lp10
I93
aI2131
aI5409
aI81
aI2398
aI2778
aI3
aI4766
aI7
aI3
aI23880
aI122
aI5240
aI2029
aI23884
aI81
aI373
aI3
aI1173
aI2159
aI23885
aI7
aI3
aI368
aI2133
aI7
aI23807
aI63765
asg6
S'One union leader who closely observed the experiences of the ARU was Big Bill Haywood  who became the powerful secretary treasurer of the Western Federation of Miners (WFM) .'
p11
ss.