(dp1
S'input'
p2
(dp3
S'encoded'
p4
(lp5
I64
aI2179
aI394
aI5284
aI150
aI3987
asS'ori'
p6
S'This house would reintroduce national service'
p7
ssS'output'
p8
(dp9
g4
(lp10
I64
aI116
aI3107
aI24
aI4581
aI946
aI41
aI3
aI4331
aI34
aI2776
aI19
aI3
aI169
aI370
aI13806
aI63765
asg6
S'This is true in Ireland especially as the campaigns for independence from the British Empire intensified .'
p11
ss.