(dp1
S'input'
p2
(dp3
S'encoded'
p4
(lp5
I64
aI2179
aI43
aI63
aI3
aI4991
aI7
aI180
aI417
aI316
aI5396
aI19
aI3
aI169
aI10
asS'ori'
p6
S'This house believes that the Church of England should be separated from the British state'
p7
ssS'output'
p8
(dp9
g4
(lp10
I24
aI3
aI2980
aI2475
aI122
aI10139
aI41
aI6285
aI63765
asg6
S'in 1789 the Georgia Constitution was amended as follows:"Article IV .'
p11
ss.