(dp1
S'input'
p2
(dp3
S'encoded'
p4
(lp5
I64
aI2179
aI394
aI5370
aI223
aI4013
aI10440
aI2446
aI4881
aI75
aI14482
aI11004
asS'ori'
p6
S'This house would abolish all collective bargaining rights claimed by trades unions'
p7
ssS'output'
p8
(dp9
g4
(lp10
I13925
aI33
aI5841
aI273
aI24
aI3
aI2503
aI3337
aI2483
aI382
aI353
aI12344
aI7
aI18349
aI45
aI3559
aI3
aI2475
aI7
aI3
aI626
aI187
aI5
aI3
aI11869
aI2784
aI5
aI60
aI3438
aI45
aI23931
aI3
aI2223
aI4948
aI7
aI3
aI260
aI63765
asg6
S'conspiracy case tried there in the Federal District Court were found guilty of conspiring to violate the Constitution of the United States and the Espionage Act and with attempting to obstruct the war activities of the Government .'
p11
ss.