(dp1
S'input'
p2
(dp3
S'encoded'
p4
(lp5
I64
aI2179
aI394
aI5370
aI7146
aI4585
aI2446
asS'ori'
p6
S'This house would abolish intellectual property rights'
p7
ssS'output'
p8
(dp9
g4
(lp10
I100
aI95
aI182
aI7176
aI75
aI12717
aI24
aI2293
aI34
aI2439
aI366
aI3
aI1012
aI63765
asg6
S"Some works are covered by copyright in Spain for 80 years after the author's death  ."
p11
ss.