(dp1
S'input'
p2
(dp3
S'encoded'
p4
(lp5
I64
aI2179
aI394
aI15841
aI2736
asS'ori'
p6
S'This house would disband ASEAN'
p7
ssS'output'
p8
(dp9
g4
(lp10
I3
aI2646
aI2720
aI3014
aI116
aI45
aI3709
aI7400
aI3
aI2351
aI3210
aI63765
asg6
S"The Asian Currency Unit's purpose is to help stabilize the region's financial markets ."
p11
ss.