(dp1
S'input'
p2
(dp3
S'encoded'
p4
(lp5
I64
aI2179
aI394
aI2017
aI628
asS'ori'
p6
S'This house would ban gambling'
p7
ssS'output'
p8
(dp9
g4
(lp10
I64
aI1380
aI7
aI5930
aI378
aI122
aI443
aI136
aI138
aI3
aI5200
aI7
aI9532
aI75
aI6374
aI28827
aI397
aI3
aI34129
aI34130
aI63765
asg6
S'This type of lottery  however  was no more than the distribution of gifts by wealthy noblemen during the Saturnalian revelries .'
p11
ss.