(dp1
S'input'
p2
(dp3
S'encoded'
p4
(lp5
I64
aI2179
aI394
aI4325
aI2042
aI270
aI89
aI11605
aI3324
asS'ori'
p6
S'This house would fund education using a voucher scheme'
p7
ssS'output'
p8
(dp9
g4
(lp10
I3
aI12018
aI7074
aI10762
aI45
aI9575
aI89
aI2034
aI1701
aI3
aI1592
aI1379
aI378
aI298
aI3
aI4132
aI10
aI2128
aI7
aI2042
aI3382
aI99
aI45
aI15914
aI3
aI7074
aI63765
asg6
S'The Stanley plan seemed to suffer a serious blow the following day  however  when the Virginia State Board of Education voted not to endorse the plan  .'
p11
ss.