(dp1
S'input'
p2
(dp3
S'encoded'
p4
(lp5
I64
aI2179
aI43
aI17
aI4941
aI857
aI3211
asS'ori'
p6
S'This house believes social deprivation causes crime'
p7
ssS'output'
p8
(dp9
g4
(lp10
I725
aI7
aI3
aI2038
aI1356
aI34
aI8803
aI2617
aI182
aI3
aI1643
aI41
aI34
aI13794
aI2577
aI2617
aI63765
asg6
S'Many of the risk factors for sexual violence are the same as for intimate partner violence .'
p11
ss.