(dp1
S'input'
p2
(dp3
S'encoded'
p4
(lp5
I64
aI2179
aI394
aI2741
aI3
aI1560
aI6025
aI2784
asS'ori'
p6
S'This house would pass the American Jobs Act'
p7
ssS'output'
p8
(dp9
g4
(lp10
I3
aI1546
aI394
aI3226
aI6329
aI14
aI3
aI2602
aI7160
aI75
aI2155
aI289
aI2439
aI63765
asg6
S'The change would increase taxes on the merged banks by $7 billion over 10 years .'
p11
ss.