(dp1
S'input'
p2
(dp3
S'encoded'
p4
(lp5
I64
aI2179
aI43
aI17
aI4941
aI857
aI3211
asS'ori'
p6
S'This house believes social deprivation causes crime'
p7
ssS'output'
p8
(dp9
g4
(lp10
I3932
aI8803
aI1586
aI45
aI501
aI8803
aI3136
aI136
aI57
aI63765
asg6
S'5) Promoting sexual freedom: Moves to allow sexual groups more freedom  .'
p11
ss.