(dp1
S'input'
p2
(dp3
S'encoded'
p4
(lp5
I64
aI2179
aI43
aI63
aI3
aI4990
aI4991
aI116
aI4850
aI24
aI12166
aI3
aI475
aI7
aI3532
aI3290
aI7
aI4714
asS'ori'
p6
S'This house believes that the Catholic Church is justified in forbidding the use of barrier methods of contraception'
p7
ssS'output'
p8
(dp9
g4
(lp10
I3
aI11648
aI311
aI89
aI11094
aI3446
aI6218
aI89
aI6218
aI63
aI3515
aI2131
aI24
aI93
aI19215
aI4309
aI45
aI17113
aI93
aI3780
aI5
aI691
aI3
aI8559
aI9022
aI116
aI45
aI316
aI89
aI2267
aI7
aI3
aI10729
aI291
aI5480
aI5
aI7275
aI63765
asg6
S'The "conjugal act" aims at a deeply personal unity  a unity that  beyond union in one flesh  leads to forming one heart and soul" since the marriage bond is to be a sign of the love between God and humanity  .'
p11
ss.