(dp1
S'input'
p2
(dp3
S'encoded'
p4
(lp5
I64
aI2179
aI43
aI17
aI4941
aI857
aI3211
asS'ori'
p6
S'This house believes social deprivation causes crime'
p7
ssS'output'
p8
(dp9
g4
(lp10
I13794
aI2577
aI5
aI8803
aI2617
aI11
aI2034
aI5
aI959
aI1043
aI8803
aI5
aI3760
aI3217
aI251
aI34
aI4091
aI5
aI34
aI271
aI3862
aI5
aI48
aI45
aI177
aI17
aI5
aI16
aI5136
aI63765
asg6
S'Intimate partner and sexual violence have serious short- and long-term physical  mental  sexual and reproductive health problems for victims and for their children  and lead to high social and economic costs .'
p11
ss.