(dp1
S'input'
p2
(dp3
S'encoded'
p4
(lp5
I64
aI2179
aI43
aI63
aI3
aI21
aI45
aI12715
aI417
aI99
aI316
aI2897
asS'ori'
p6
S'This house believes that the right to asylum should not be absolute'
p7
ssS'output'
p8
(dp9
g4
(lp10
I2610
aI55
aI12
aI89
aI281
aI2878
aI7
aI2598
aI2234
aI5
aI2637
aI1546
aI638
aI165
aI7
aI3
aI2231
aI7
aI2048
aI63765
asg6
S'Immigration has been a major source of population growth and cultural change throughout much of the history of Sweden .'
p11
ss.