(dp1
S'input'
p2
(dp3
S'encoded'
p4
(lp5
I64
aI2179
aI43
aI63
aI2157
aI2565
aI493
aI19084
aI382
aI4850
asS'ori'
p6
S"This house believes that Israel's 2008-2009 military operations against Gaza were justified"
p7
ssS'output'
p8
(dp9
g4
(lp10
I14153
aI24
aI7365
aI5523
aI6048
aI3024
aI5
aI5953
aI63
aI155
aI19084
aI63765
asg6
S'Protesters in Sudan condemned Arab leaders and demanded that they "show Gaza support"  .'
p11
ss.