(dp1
S'input'
p2
(dp3
S'encoded'
p4
(lp5
I64
aI2179
aI394
aI60
aI23587
asS'ori'
p6
S'This house would re-engage with Myanmar'
p7
ssS'output'
p8
(dp9
g4
(lp10
I42
aI5
aI863
aI3417
aI440
aI12
aI9249
aI14
aI2555
aI63765
asg6
S'He and five colleagues had been arrested on 26 September .'
p11
ss.