(dp1
S'input'
p2
(dp3
S'encoded'
p4
(lp5
I64
aI2179
aI394
aI2741
aI3
aI1560
aI6025
aI2784
asS'ori'
p6
S'This house would pass the American Jobs Act'
p7
ssS'output'
p8
(dp9
g4
(lp10
I6941
aI41
aI261
aI41
aI9452
aI7246
aI89
aI77
aI126
aI7
aI24744
aI2038
aI73
aI4308
aI131
aI162
aI99
aI21
aI155
aI47
aI8052
aI100
aI413
aI5
aI2419
aI45
aI154
aI89
aI1796
aI303
aI63765
asg6
S'Workers as well as employers accept a certain level of imperfection  risk or compromise  but usually not right away; they will invest some time and effort to find a better match .'
p11
ss.