(dp1
S'input'
p2
(dp3
S'encoded'
p4
(lp5
I64
aI2179
aI235
aI3
aI2136
aI7
aI3
aI2306
aI7
aI2390
asS'ori'
p6
S'This house supports the one-child policy of the republic of China'
p7
ssS'output'
p8
(dp9
g4
(lp10
I3
aI3716
aI8313
aI182
aI8378
aI2639
aI5
aI2639
aI5714
aI2639
aI9691
aI53003
aI49909
aI5
aI89
aI696
aI7
aI667
aI8313
aI5
aI9646
aI53004
aI5
aI40016
aI63765
asg6
S'The minority religions are Christianity (between 40 million  3%  and 54 million  4%)  Islam (20 million  1 .5%)  Hinduism  Dongbaism  Bon and a number of new religions and sects (particularly Xiantianism and Falun Gong) .'
p11
ss.