(dp1
S'input'
p2
(dp3
S'encoded'
p4
(lp5
I64
aI2179
aI43
aI63
aI3357
aI5003
aI652
aI3
aI188
aI3262
asS'ori'
p6
S'This house believes that opinion polls harm the democratic process'
p7
ssS'output'
p8
(dp9
g4
(lp10
I134
aI116
aI41
aI165
aI89
aI3728
aI7
aI1795
aI41
aI134
aI116
aI93
aI7
aI4922
aI63765
asg6
S'It is as much a measure of protection as it is one of oppression .'
p11
ss.