(dp1
S'input'
p2
(dp3
S'encoded'
p4
(lp5
I64
aI2179
aI43
aI223
aI2138
aI11
aI89
aI21
aI45
aI2185
aI372
asS'ori'
p6
S'This house believes all nations have a right to nuclear weapons'
p7
ssS'output'
p8
(dp9
g4
(lp10
I38494
aI237
aI1767
aI83
aI99
aI316
aI3981
aI7
aI5377
aI89
aI35826
aI1950
aI1767
aI73
aI866
aI2943
aI2945
aI116
aI99
aI2944
aI63765
asg6
S'Second-strike capabilityA first strike must not be capable of preventing a retaliatory second strike or else mutual destruction is not assured .'
p11
ss.