(dp1
S'input'
p2
(dp3
S'encoded'
p4
(lp5
I64
aI2179
aI43
aI8629
aI116
aI3
aI117
aI998
asS'ori'
p6
S'This house believes atheism is the only way'
p7
ssS'output'
p8
(dp9
g4
(lp10
I64
aI6832
aI500
aI99
aI1074
aI120
aI81
aI1654
aI14624
aI8313
aI159
aI41
aI100
aI18621
aI63765
asg6
S'This figure did not include those who follow atheistic religions  such as some Buddhists  .'
p11
ss.