(dp1
S'input'
p2
(dp3
S'encoded'
p4
(lp5
I64
aI2179
aI394
aI4325
aI2042
aI270
aI89
aI11605
aI3324
asS'ori'
p6
S'This house would fund education using a voucher scheme'
p7
ssS'output'
p8
(dp9
g4
(lp10
I63
aI1643
aI1379
aI433
aI12018
aI9328
aI25
aI2240
aI3592
aI2029
aI19
aI3480
aI75
aI3
aI3400
aI2180
aI5
aI2200
aI63
aI51256
aI5262
aI89
aI1352
aI9368
aI92
aI504
aI89
aI3592
aI755
aI89
aI3337
aI7464
aI9213
aI73
aI99
aI63765
asg6
S'That same day  Governor Stanley withdrew his school funding bill from consideration by the drafting committee and asked that Almond draft a stronger version which permitted a funding cut-off whether a district integrated voluntarily or not  .'
p11
ss.