(dp1
S'input'
p2
(dp3
S'encoded'
p4
(lp5
I64
aI2179
aI43
aI223
aI2138
aI11
aI89
aI21
aI45
aI2185
aI372
asS'ori'
p6
S'This house believes all nations have a right to nuclear weapons'
p7
ssS'output'
p8
(dp9
g4
(lp10
I3
aI626
aI187
aI2674
aI972
aI34
aI1343
aI55
aI32655
aI12447
aI63
aI134
aI1301
aI5468
aI12008
aI41
aI89
aI2486
aI1862
aI5
aI63
aI64
aI399
aI7
aI3965
aI122
aI344
aI41
aI93
aI7
aI1872
aI5537
aI24
aI2145
aI63765
aI2185
aI2136
aI63765
asg6
S'The United States Air Force  for example  has retrospectively contended that it never advocated MAD as a sole strategy  and that this form of deterrence was seen as one of numerous options in U .S . nuclear policy  .'
p11
ss.