(dp1
S'input'
p2
(dp3
S'encoded'
p4
(lp5
I64
aI2179
aI394
aI2773
aI12505
asS'ori'
p6
S'This house would embrace multiculturalism'
p7
ssS'output'
p8
(dp9
g4
(lp10
I4223
aI5
aI2610
aI2547
aI63765
asg6
S'Citizenship and immigration Canada states:  .'
p11
ss.