(dp1
S'input'
p2
(dp3
S'encoded'
p4
(lp5
I64
aI2179
aI13605
aI2258
aI45
aI2194
asS'ori'
p6
S'This house prefers trade to aid'
p7
ssS'output'
p8
(dp9
g4
(lp10
I2206
aI70
aI1298
aI3964
aI2194
aI316
aI698
aI14
aI8866
aI3964
aI311
aI3900
aI107
aI7
aI53
aI3
aI18970
aI3281
aI5
aI41
aI89
aI296
aI2642
aI7
aI61
aI116
aI698
aI116
aI416
aI14
aI6676
aI63765
asg6
S'US law requires food aid be spent on buying food at home  instead of where the hungry live  and  as a result  half of what is spent is used on transport  .'
p11
ss.