(dp1
S'input'
p2
(dp3
S'encoded'
p4
(lp5
I64
aI2179
aI235
aI3
aI2136
aI7
aI3
aI2306
aI7
aI2390
asS'ori'
p6
S'This house supports the one-child policy of the republic of China'
p7
ssS'output'
p8
(dp9
g4
(lp10
I134
aI116
aI1604
aI2601
aI330
aI45
aI1049
aI3964
aI2702
aI24
aI89
aI285
aI37005
aI75
aI89
aI36738
aI7
aI7822
aI6373
aI5031
aI2579
aI5031
aI1495
aI5031
aI31277
aI5031
aI18178
aI5
aI5031
aI6830
aI63765
asg6
S'It is becoming increasingly difficult to maintain food security in a world beset by a confluence of "peak" phenomena  namely peak oil  peak water  peak phosphorus  peak grain and peak fish .'
p11
ss.