(dp1
S'input'
p2
(dp3
S'encoded'
p4
(lp5
I64
aI2179
aI43
aI17
aI4941
aI857
aI3211
asS'ori'
p6
S'This house believes social deprivation causes crime'
p7
ssS'output'
p8
(dp9
g4
(lp10
I3032
aI4969
aI2586
aI2760
aI2431
aI3168
aI75
aI8813
aI14
aI89
aI73
aI7
aI773
aI89
aI1228
aI2007
aI41
aI51
aI43245
aI493
aI14779
aI1347
aI45
aI268
aI24
aI13537
aI63765
asg6
S"Walter Reckless began developing Containment Theory by focusing on a youth's self-conception or self-image of being a good person as an insulator against peer pressure to engage in delinquency ."
p11
ss.