(dp1
S'input'
p2
(dp3
S'encoded'
p4
(lp5
I64
aI2179
aI394
aI16642
aI1376
aI5269
asS'ori'
p6
S'This house would subsidize poor communities'
p7
ssS'output'
p8
(dp9
g4
(lp10
I64
aI667
aI16
aI191
aI24
aI421
aI45
aI89
aI2914
aI2882
aI5
aI51
aI7380
aI24
aI7632
aI1016
aI376
aI2722
aI2322
aI7243
aI5
aI10903
aI1028
aI2234
aI63765
asg6
S'This new economic incentive  in addition to a net export and an influx in gold  reduced interest rates  increased investments  and sparked job growth  .'
p11
ss.