(dp1
S'input'
p2
(dp3
S'encoded'
p4
(lp5
I64
aI2179
aI235
aI3858
aI3
aI2240
aI4527
aI3485
aI45
asS'ori'
p6
S'This house supports raising the school leaving age to 18'
p7
ssS'output'
p8
(dp9
g4
(lp10
I1021
aI45
aI18545
aI2322
aI1347
aI14
aI4358
aI24
aI23544
aI36637
aI7
aI89
aI77
aI4442
aI7
aI4358
aI34
aI36638
aI7
aI7239
aI5652
aI24
aI4364
aI366
aI63765
asg6
S'Due to globalization  increased pressure on students in curricular activitiesRemoval of a certain percentage of students for improvisation of academics (usually practiced in schools  after 10th grade)  .'
p11
ss.