(dp1
S'input'
p2
(dp3
S'encoded'
p4
(lp5
I64
aI2179
aI394
aI2017
aI628
asS'ori'
p6
S'This house would ban gambling'
p7
ssS'output'
p8
(dp9
g4
(lp10
I589
aI7
aI102
aI3939
aI6372
aI3
aI150
aI5930
aI5654
aI1609
aI3
aI582
aI2097
aI2612
aI289
aI2155
aI1521
aI19
aI3
aI3569
aI53
aI2612
aI3722
aI1640
aI470
aI63
aI63765
asg6
S'Around 70% of UK adults play the National Lottery regularly  making the average annual sales over 5 billion apart from the year 2000-01 where sales dropped just below that .'
p11
ss.