(dp1
S'input'
p2
(dp3
S'encoded'
p4
(lp5
I64
aI2179
aI394
aI190
aI3
aI21
aI45
aI3895
aI834
asS'ori'
p6
S'This house would limit the right to bear arms'
p7
ssS'output'
p8
(dp9
g4
(lp10
I3
aI4283
aI8090
aI89
aI696
aI7
aI31921
aI63527
aI4094
aI3969
aI57
aI3969
aI381
aI2809
aI63765
asg6
S"The NRA publishes a number of periodicals including:American RiflemanAmerican Hunter Shooting IllustratedAmerica's 1st Freedom Shooting Sports USA  ."
p11
ss.