(dp1
S'input'
p2
(dp3
S'encoded'
p4
(lp5
I64
aI2179
aI13605
aI2258
aI45
aI2194
asS'ori'
p6
S'This house prefers trade to aid'
p7
ssS'output'
p8
(dp9
g4
(lp10
I3
aI3661
aI116
aI3198
aI24
aI7456
aI6449
aI385
aI159
aI41
aI7457
aI7458
aI5
aI7459
aI63765
asg6
S"The problem is worst in Africa's rapidly growing cities  such as Cairo  Lagos and Kinshasa ."
p11
ss.