(dp1
S'input'
p2
(dp3
S'encoded'
p4
(lp5
I64
aI2179
aI43
aI63
aI3376
aI4938
aI417
aI316
aI3537
asS'ori'
p6
S'This house believes that endangered species should be protected'
p7
ssS'output'
p8
(dp9
g4
(lp10
I153
aI33834
aI29511
aI6323
aI24
aI643
aI2203
aI5
aI382
aI1706
aI33834
aI60
aI2083
aI18851
aI24
aI3
aI2760
aI285
aI45
aI836
aI177
aI9023
aI2724
aI12633
aI45
aI2083
aI2456
aI5
aI7438
aI63765
asg6
S'Often hybridized breeds originated in developed countries and were further hybridized with local varieties in the developing world to create high yield strains resistant to local climate and diseases .'
p11
ss.