(dp1
S'input'
p2
(dp3
S'encoded'
p4
(lp5
I64
aI2179
aI394
aI2773
aI12505
asS'ori'
p6
S'This house would embrace multiculturalism'
p7
ssS'output'
p8
(dp9
g4
(lp10
I51772
aI2538
aI3
aI2223
aI122
aI89
aI3894
aI131
aI2230
aI3
aI7723
aI89
aI730
aI34
aI3
aI1560
aI51773
aI63765
asg6
S'Bumsted says the war was a stalemate but regarding the Indians "was a victory for the American expansionists .'
p11
ss.