(dp1
S'input'
p2
(dp3
S'encoded'
p4
(lp5
I64
aI2179
aI43
aI63
aI2659
aI417
aI1690
aI3
aI12048
aI7
aI19084
asS'ori'
p6
S'This house believes that Israel should lift the blockade of Gaza'
p7
ssS'output'
p8
(dp9
g4
(lp10
I3
aI2135
aI2961
aI2016
aI92
aI978
aI4136
aI7
aI5599
aI24
aI2659
aI5
aI3
aI19088
aI5555
aI55
aI14111
aI3
aI6056
aI2157
aI5768
aI7793
aI5
aI1498
aI19
aI4752
aI7
aI884
aI14
aI2128
aI3
aI1410
aI15185
aI63765
asg6
S'The Foreign Press Association  which represents hundreds of journalists in Israel and the Palestinian territories  has complained the Israeli military seized video and equipment from dozens of reporters on board the main ship .'
p11
ss.