(dp1
S'input'
p2
(dp3
S'encoded'
p4
(lp5
I64
aI2179
aI43
aI223
aI2138
aI11
aI89
aI21
aI45
aI2185
aI372
asS'ori'
p6
S'This house believes all nations have a right to nuclear weapons'
p7
ssS'output'
p8
(dp9
g4
(lp10
I211
aI1334
aI5371
aI24
aI64
aI803
aI233
aI45
aI3500
aI3501
aI182
aI45
aI2998
aI2041
aI5
aI2891
aI45
aI1456
aI73
aI124
aI5941
aI3205
aI1498
aI5
aI4678
aI34
aI2544
aI187
aI45
aI2187
aI2721
aI7
aI3863
aI5
aI1022
aI5224
aI5
aI477
aI63765
asg6
S'Its primary functions in this area  according to Article III  are to encourage research and development  to secure or provide materials  services  equipment and facilities for Member States  to foster exchange of scientific and technical information and training  .'
p11
ss.