(dp1
S'input'
p2
(dp3
S'encoded'
p4
(lp5
I64
aI2179
aI43
aI63
aI134
aI116
aI400
aI21
aI34
aI3
aI260
aI45
aI3439
aI57
aI7
aI2381
asS'ori'
p6
S'This house believes that it is sometimes right for the government to restrict freedom of speech'
p7
ssS'output'
p8
(dp9
g4
(lp10
I134
aI685
aI267
aI274
aI7
aI54
aI14
aI45
aI124
aI7184
aI3183
aI7
aI658
aI214
aI5
aI45
aI975
aI63
aI3183
aI245
aI7691
aI4287
aI3293
aI63765
asg6
S'It established two forms of regulation on broadcasters: to provide adequate coverage of public issues  and to ensure that coverage fairly represented opposing views  .'
p11
ss.