(dp1
S'input'
p2
(dp3
S'encoded'
p4
(lp5
I64
aI2179
aI394
aI4325
aI2042
aI270
aI89
aI11605
aI3324
asS'ori'
p6
S'This house would fund education using a voucher scheme'
p7
ssS'output'
p8
(dp9
g4
(lp10
I3007
aI55
aI12
aI3531
aI75
aI30442
aI34
aI5334
aI493
aI2474
aI45
aI3709
aI1294
aI5119
aI3315
aI3967
aI63765
asg6
S'Paul has been criticized by CNET for voting against legislation to help catch online child predators .'
p11
ss.