(dp1
S'input'
p2
(dp3
S'encoded'
p4
(lp5
I64
aI2179
aI43
aI8629
aI116
aI3
aI117
aI998
asS'ori'
p6
S'This house believes atheism is the only way'
p7
ssS'output'
p8
(dp9
g4
(lp10
I8301
aI174
aI3369
aI97
aI8580
aI19
aI4988
aI24
aI92
aI1391
aI51
aI5545
aI460
aI2729
aI25
aI8581
aI8582
aI864
aI45
aI51
aI8583
aI7652
aI7
aI45
aI316
aI3321
aI5
aI8584
aI45
aI3810
aI25
aI1036
aI8585
aI1969
aI19
aI19
aI773
aI3321
aI75
aI3
aI63765
asg6
S'Dawkins also questions another story from Genesis 19 in which Lot  an old man  offers his maiden daughter out to an angry mob of "wicked men" to be raped and humiliated to save his male guests (Angels sent from God) from being raped by the "wicked men" .'
p11
ss.