(dp1
S'input'
p2
(dp3
S'encoded'
p4
(lp5
I64
aI2179
aI43
aI223
aI2138
aI11
aI89
aI21
aI45
aI2185
aI372
asS'ori'
p6
S'This house believes all nations have a right to nuclear weapons'
p7
ssS'output'
p8
(dp9
g4
(lp10
I24
aI320
aI11759
aI695
aI63
aI267
aI4949
aI417
aI11788
aI3
aI2762
aI5
aI3
aI2762
aI63765
asg6
S'In early 1943 Oppenheimer determined that two projects should proceed forwards: the "Thin Man" project (plutonium gun) and the "Fat Man" project (plutonium implosion) .'
p11
ss.