(dp1
S'input'
p2
(dp3
S'encoded'
p4
(lp5
I64
aI2179
aI43
aI63
aI188
aI220
aI417
aI1619
aI4275
aI45
aI713
aI14799
aI7533
aI311
aI3
aI3721
aI5145
asS'ori'
p6
S'This house believes that democratic governments should require voters to present photo identification at the polling station'
p7
ssS'output'
p8
(dp9
g4
(lp10
I19959
aI3481
aI34
aI75
aI3
aI4408
aI171
aI2618
aI64
aI63
aI9792
aI3009
aI45
aI20304
aI18223
aI63765
asg6
S'Fliers paid for by the Republican Party  stating "SKIP THIS ELECTION" that allegedly attempted to suppress African-American turnout .'
p11
ss.