(dp1
S'input'
p2
(dp3
S'encoded'
p4
(lp5
I64
aI2179
aI43
aI63
aI188
aI220
aI417
aI1619
aI4275
aI45
aI713
aI14799
aI7533
aI311
aI3
aI3721
aI5145
asS'ori'
p6
S'This house believes that democratic governments should require voters to present photo identification at the polling station'
p7
ssS'output'
p8
(dp9
g4
(lp10
I311
aI3516
aI3
aI7048
aI382
aI121
aI45
aI3051
aI351
aI6002
aI81
aI4881
aI155
aI382
aI99
aI1031
aI45
aI4726
aI3
aI4352
aI63765
asg6
S"At trial  the plaintiffs were unable to produce any witnesses who claimed they were not able to meet the law's requirements ."
p11
ss.