(dp1
S'input'
p2
(dp3
S'encoded'
p4
(lp5
I64
aI2179
aI394
aI4325
aI2042
aI270
aI89
aI11605
aI3324
asS'ori'
p6
S'This house would fund education using a voucher scheme'
p7
ssS'output'
p8
(dp9
g4
(lp10
I378
aI24
aI51
aI3625
aI24
aI2318
aI7537
aI89
aI11342
aI2200
aI49717
aI12057
aI5424
aI7412
aI1191
aI25
aI14704
aI1265
aI7412
aI116
aI325
aI3797
aI63765
asg6
S'However  in an interview in South Carolina  a reporter asked ALG sponsor Howard Rich about his motivation behind out-of-state contributions; Rich said:"There is great satisfaction .'
p11
ss.