(dp1
S'input'
p2
(dp3
S'encoded'
p4
(lp5
I64
aI2179
aI394
aI15841
aI2736
asS'ori'
p6
S'This house would disband ASEAN'
p7
ssS'output'
p8
(dp9
g4
(lp10
I734
aI24
aI3
aI5336
aI2586
aI1655
aI8281
aI545
aI211
aI3278
aI60
aI3
aI2033
aI7
aI12402
aI64
aI2028
aI63765
asg6
S'Beginning in 1997  the bloc began creating organisations within its framework with the intention of achieving this goal .'
p11
ss.