(dp1
S'input'
p2
(dp3
S'encoded'
p4
(lp5
I64
aI2179
aI43
aI63
aI1036
aI4828
aI33250
aI116
aI25073
aI45
aI3315
aI4562
asS'ori'
p6
S'This house believes that male infant circumcision is tantamount to child abuse'
p7
ssS'output'
p8
(dp9
g4
(lp10
I24
aI89
aI2035
aI45
aI1358
aI3
aI217
aI4902
aI34
aI33288
aI12217
aI33274
aI3041
aI63
aI270
aI13210
aI122
aI136
aI138
aI33250
aI311
aI4608
aI14676
aI33288
aI63765
asg6
S'" In a study to determine the most cost-effective treatment for phimosis  Van Howe concluded that using cream was 75% more cost-effective than circumcision at treating pathological phimosis  .'
p11
ss.