(dp1
S'input'
p2
(dp3
S'encoded'
p4
(lp5
I64
aI2179
aI43
aI63
aI134
aI116
aI400
aI21
aI34
aI3
aI260
aI45
aI3439
aI57
aI7
aI2381
asS'ori'
p6
S'This house believes that it is sometimes right for the government to restrict freedom of speech'
p7
ssS'output'
p8
(dp9
g4
(lp10
I3693
aI32887
aI122
aI4546
aI7
aI3135
aI13110
aI366
aI42
aI122
aI353
aI2257
aI3
aI5
aI19713
aI7
aI22859
aI5
aI3731
aI3550
aI260
aI75
aI972
aI2617
aI5
aI4563
aI24
aI3
aI20
aI11406
aI14229
aI41
aI261
aI41
aI7252
aI5
aI8978
aI89
aI8275
aI883
aI263
aI3
aI3034
aI3485
aI2257
aI570
aI7208
aI63765
asg6
S'Benjamin Gitlow was convicted of criminal anarchy after he was found advocating the "necessity and propriety of overthrowing and overturning organized government by force  violence and unlawful means" in the Left Wing Manifesto  as well as publishing and circulating a radical newspaper called The Revolutionary Age advocating similar ideas  .'
p11
ss.