(dp1
S'input'
p2
(dp3
S'encoded'
p4
(lp5
I64
aI2179
aI43
aI63
aI134
aI116
aI400
aI21
aI34
aI3
aI260
aI45
aI3439
aI57
aI7
aI2381
asS'ori'
p6
S'This house believes that it is sometimes right for the government to restrict freedom of speech'
p7
ssS'output'
p8
(dp9
g4
(lp10
I54
aI7
aI3953
aI5
aI6881
aI378
aI11
aI12
aI7915
aI75
aI3
aI2482
aI2483
aI24
aI380
aI3052
aI63765
asg6
S'Content-based regulation of television and radio  however  have been sustained by the Supreme Court in various cases .'
p11
ss.