(dp1
S'input'
p2
(dp3
S'encoded'
p4
(lp5
I64
aI2179
aI394
aI2017
aI3807
aI314
aI3433
asS'ori'
p6
S'This house would ban partial birth abortions'
p7
ssS'output'
p8
(dp9
g4
(lp10
I89
aI5971
aI3518
aI7
aI3
aI2015
aI3600
aI14
aI3257
aI5
aI1043
aI3217
aI353
aI63
aI2992
aI1934
aI2036
aI1896
aI73
aI443
aI6203
aI7
aI3257
aI226
aI2992
aI60
aI22997
aI1892
aI5
aI248
aI5229
aI251
aI382
aI136
aI1856
aI45
aI905
aI4099
aI6203
aI63765
asg6
S'A 2008 systematic review of the medical literature on abortion and mental health found that high-quality studies consistently showed few or no mental-health consequences of abortion  while studies with methodologic flaws and other quality problems were more likely to report negative consequences  .'
p11
ss.