(dp1
S'input'
p2
(dp3
S'encoded'
p4
(lp5
I64
aI2179
aI43
aI223
aI2138
aI11
aI89
aI21
aI45
aI2185
aI372
asS'ori'
p6
S'This house believes all nations have a right to nuclear weapons'
p7
ssS'output'
p8
(dp9
g4
(lp10
I24
aI273
aI122
aI89
aI7038
aI6773
aI311
aI3
aI47350
aI28197
aI5190
aI24
aI92
aI9841
aI24
aI2617
aI63765
asg6
S'In 1977 there was a massive demonstration at the Superphenix breeder reactor in Creys-Malvillein which culminated in violence  .'
p11
ss.