(dp1
S'input'
p2
(dp3
S'encoded'
p4
(lp5
I64
aI2179
aI235
aI3
aI2136
aI7
aI3
aI2306
aI7
aI2390
asS'ori'
p6
S'This house supports the one-child policy of the republic of China'
p7
ssS'output'
p8
(dp9
g4
(lp10
I1920
aI3
aI1691
aI2068
aI3226
aI24
aI2445
aI2598
aI116
aI850
aI100
aI1411
aI63765
asg6
S'Nevertheless  the rapid recent increase in human population is causing some concern .'
p11
ss.