(dp1
S'input'
p2
(dp3
S'encoded'
p4
(lp5
I64
aI2179
aI43
aI63
aI1036
aI4828
aI33250
aI116
aI25073
aI45
aI3315
aI4562
asS'ori'
p6
S'This house believes that male infant circumcision is tantamount to child abuse'
p7
ssS'output'
p8
(dp9
g4
(lp10
I378
aI24
aI320
aI2779
aI751
aI3
aI2482
aI2483
aI440
aI575
aI211
aI2528
aI3
aI4928
aI81
aI440
aI12272
aI7
aI3
aI10722
aI440
aI1063
aI33242
aI63765
asg6
S'However  in early August 2004  before the Supreme Court had given its ruling  the father  who had custody of the boy  had him circumcised  .'
p11
ss.