(dp1
S'input'
p2
(dp3
S'encoded'
p4
(lp5
I64
aI2179
aI43
aI223
aI2138
aI11
aI89
aI21
aI45
aI2185
aI372
asS'ori'
p6
S'This house believes all nations have a right to nuclear weapons'
p7
ssS'output'
p8
(dp9
g4
(lp10
I2390
aI116
aI3
aI117
aI2185
aI372
aI10
aI45
aI11
aI9161
aI3
aI475
aI7
aI2185
aI372
aI63765
asg6
S'China is the only nuclear weapons state to have guaranteed the non-first use of nuclear weapons .'
p11
ss.