(dp1
S'input'
p2
(dp3
S'encoded'
p4
(lp5
I64
aI2179
aI43
aI24
aI3
aI475
aI7
aI12436
aI3364
asS'ori'
p6
S'This house believes in the use of affirmative action'
p7
ssS'output'
p8
(dp9
g4
(lp10
I134
aI3581
aI75
aI3
aI2211
aI5
aI2179
aI7
aI5260
aI7
aI3
aI626
aI187
aI7
aI875
aI24
aI2221
aI10899
aI63
aI223
aI44448
aI3920
aI2625
aI4651
aI545
aI3
aI2336
aI447
aI7
aI3
aI626
aI187
aI316
aI5
aI155
aI182
aI27744
aI551
aI45
aI316
aI2144
aI7
aI3
aI626
aI2396
aI63
aI3
aI6481
aI7
aI159
aI4223
aI4197
aI99
aI24
aI351
aI2690
aI20308
aI73
aI2507
aI1466
aI3
aI21
aI7
aI351
aI3920
aI1560
aI45
aI6419
aI73
aI248
aI4585
aI63765
asg6
S'"Be it enacted by the Senate and House of Representatives of the United States of America in Congress assembled  That all noncitizen Native Americans born within the territorial limits of the United States be  and they are hereby  declared to be citizens of the United States: Provided  That the granting of such citizenship shall not in any manner impair or otherwise affect the right of any Native American to tribal or other property .|20px|20px .'
p11
ss.