(dp1
S'input'
p2
(dp3
S'encoded'
p4
(lp5
I64
aI2179
aI394
aI117
aI7428
aI21151
aI34
aI11389
aI2042
aI24
aI4364
asS'ori'
p6
S'This house would only teach abstinence for sex education in schools'
p7
ssS'output'
p8
(dp9
g4
(lp10
I134
aI32
aI2498
aI63
aI3
aI126
aI7
aI57479
aI5
aI2038
aI1708
aI394
aI174
aI316
aI166
aI24
aI132
aI17092
asg6
S'It makes sense that the level of impulsivity and risk taking would also be higher in these teens ."'
p11
ss.