(dp1
S'input'
p2
(dp3
S'encoded'
p4
(lp5
I64
aI2179
aI43
aI63
aI3
aI4538
aI7
aI4434
aI7793
aI283
aI45
aI3586
aI417
aI316
aI577
asS'ori'
p6
S'This house believes that the sale of violent video games to minors should be banned'
p7
ssS'output'
p8
(dp9
g4
(lp10
I64
aI116
aI89
aI4173
aI12027
aI7
aI3492
aI897
aI92
aI667
aI897
aI11
aI3761
aI75
aI3015
aI3
aI7600
aI15498
aI7
aI3
aI658
aI63765
asg6
S'This is a distinguishing feature of traditional media which New media have challenged by altering the participation habits of the public .'
p11
ss.