(dp1
S'input'
p2
(dp3
S'encoded'
p4
(lp5
I64
aI2179
aI43
aI63
aI2157
aI2565
aI493
aI19084
aI382
aI4850
asS'ori'
p6
S"This house believes that Israel's 2008-2009 military operations against Gaza were justified"
p7
ssS'output'
p8
(dp9
g4
(lp10
I1272
aI5546
aI2659
aI7
aI844
aI7
aI282
aI5
aI2173
aI63
aI3
aI6056
aI5
aI1560
aI2277
aI316
aI5841
aI311
aI3
aI282
aI3135
aI2483
aI63765
asg6
S'Chavez accused Israel of "flagrant violations of International Law" and stated that the Israeli and American presidents be tried at the International Criminal Court .'
p11
ss.