(dp1
S'input'
p2
(dp3
S'encoded'
p4
(lp5
I64
aI2179
aI394
aI3830
aI3
aI475
aI7
aI9441
aI13132
aI3102
aI24
aI276
aI381
asS'ori'
p6
S'This house would permit the use of performance enhancing drugs in professional sports'
p7
ssS'output'
p8
(dp9
g4
(lp10
I42
aI1629
aI1295
aI375
aI41
aI1059
aI42
aI463
aI42
aI1587
aI97
aI17814
aI869
aI6862
aI19
aI3
aI312
aI45
aI1985
aI1063
aI89
aI16371
aI7
aI1071
aI5
aI45
aI1192
aI1063
aI45
aI3
aI1414
aI63765
asg6
S'He set off again as best he could [but] he needed another injection four miles from the end to give him a semblance of speed and to get him to the finish  .'
p11
ss.