(dp1
S'input'
p2
(dp3
S'encoded'
p4
(lp5
I64
aI2179
aI43
aI63
aI3
aI4538
aI7
aI4434
aI7793
aI283
aI45
aI3586
aI417
aI316
aI577
asS'ori'
p6
S'This house believes that the sale of violent video games to minors should be banned'
p7
ssS'output'
p8
(dp9
g4
(lp10
I4555
aI56883
aI1966
aI63
aI725
aI5018
aI4741
aI11
aI51
aI7518
aI5
aI508
aI3019
aI45
aI4149
aI3
aI127
aI7
aI159
aI18439
aI63765
asg6
S'Specifically  Herz argued that many academic researchers have an anti-capitalist bias  and thus failed to notice the benefits of such traits  .'
p11
ss.