(dp1
S'input'
p2
(dp3
S'encoded'
p4
(lp5
I64
aI2179
aI43
aI63
aI3
aI4990
aI4991
aI116
aI4850
aI24
aI12166
aI3
aI475
aI7
aI3532
aI3290
aI7
aI4714
asS'ori'
p6
S'This house believes that the Catholic Church is justified in forbidding the use of barrier methods of contraception'
p7
ssS'output'
p8
(dp9
g4
(lp10
I4213
aI12892
aI39944
aI43
aI63
aI3
aI4990
aI4991
aI417
aI7968
aI211
aI1597
aI14
aI3
aI475
aI7
aI7332
aI45
aI881
aI9583
aI6241
aI63765
aI39944
aI237
aI2791
aI25
aI1597
aI14
aI21152
aI475
aI24
aI24
aI89
aI1849
aI45
aI89
aI2802
aI75
aI89
aI4990
aI2935
aI2904
aI11342
aI397
aI89
aI2333
aI24
aI4232
aI2404
aI63765
aI366
aI2618
aI63
aI3
aI2333
aI440
aI99
aI788
aI89
aI1597
aI14
aI21152
aI475
aI39944
aI122
aI2200
aI34
aI25
aI3446
aI3357
aI5
aI742
aI63
aI42
aI5810
aI7332
aI417
aI316
aI416
aI45
aI881
aI3
aI4155
aI7
aI9583
asg6
S"Bishop Kevin Dowling believes that the Catholic Church should reverse its position on the use of condoms to prevent HIV transmission  .   Dowling first announced his position on condom use in 2001  in a response to a question by a Catholic news agency reporter during a bishops' conference in southern Africa . After stating that the bishop's conference had not taken a position on condom use  Dowling was asked for his personal opinion  and said that he believed condoms should be used to prevent the spread of HIV"
p11
ss.