(dp1
S'input'
p2
(dp3
S'encoded'
p4
(lp5
I64
aI2179
aI43
aI63
aI187
aI417
aI99
aI16642
aI3
aI6449
aI7
aI3935
asS'ori'
p6
S'This house believes that states should not subsidize the growing of tobacco'
p7
ssS'output'
p8
(dp9
g4
(lp10
I1592
aI3
aI1560
aI3202
aI2223
aI89
aI1546
aI24
aI3497
aI5
aI89
aI1546
aI24
aI203
aI972
aI547
aI34
aI3
aI2891
aI7
aI3
aI14815
aI63765
asg6
S'Following the American Civil War  a change in demand and a change in labor force allowed for the development of the cigarette .'
p11
ss.