(dp1
S'input'
p2
(dp3
S'encoded'
p4
(lp5
I64
aI2179
aI43
aI24
aI3
aI475
aI7
aI12436
aI3364
asS'ori'
p6
S'This house believes in the use of affirmative action'
p7
ssS'output'
p8
(dp9
g4
(lp10
I226
aI67
aI122
aI3374
aI24
aI3
aI7717
aI2295
aI24
aI89
aI10103
aI5946
aI353
aI12344
aI7
aI5986
aI3
aI70
aI45
aI44513
aI149
aI138
aI5
aI443
aI136
aI138
aI25198
aI7
aI3
aI44514
aI1530
aI3131
aI42
aI73
aI3313
aI4197
aI1007
aI3
aI2295
asg6
S'While slavery was criminalized in the Oregon Territory in 1844  a so-called "lash law" subjected blacks found guilty of violating the law to whippingsno less than 20 and no more than 39 strokes of the lashevery six months "until he or she shall quit the territory ."'
p11
ss.