(dp1
S'input'
p2
(dp3
S'encoded'
p4
(lp5
I64
aI2179
aI43
aI63
aI1036
aI4828
aI33250
aI116
aI25073
aI45
aI3315
aI4562
asS'ori'
p6
S'This house believes that male infant circumcision is tantamount to child abuse'
p7
ssS'output'
p8
(dp9
g4
(lp10
I3
aI1560
aI2015
aI2016
aI418
aI63
aI2015
aI956
aI24
aI3
aI2206
aI1005
aI5
aI2547
aI500
aI99
aI8958
aI16412
aI33250
aI7
aI18559
aI63765
asg6
S'The American Medical Association (1999) noted that medical associations in the US  Australia  and Canada did not recommend routine circumcision of newborns .'
p11
ss.