(dp1
S'input'
p2
(dp3
S'encoded'
p4
(lp5
I64
aI2179
aI394
aI2741
aI3
aI1560
aI6025
aI2784
asS'ori'
p6
S'This house would pass the American Jobs Act'
p7
ssS'output'
p8
(dp9
g4
(lp10
I3
aI1848
aI1931
aI19
aI4696
aI3
aI4442
aI7
aI3
aI2598
aI81
aI182
aI2100
aI24
aI196
aI2722
aI63765
asg6
S'The shift away from self-employment increases the percentage of the population who are included in unemployment rates .'
p11
ss.