(dp1
S'input'
p2
(dp3
S'encoded'
p4
(lp5
I64
aI2179
aI394
aI5370
aI3
aI5286
asS'ori'
p6
S'This house would abolish the monarchy'
p7
ssS'output'
p8
(dp9
g4
(lp10
I298
aI134
aI3610
aI45
aI6287
aI6243
aI134
aI116
aI6584
aI45
aI302
aI3
aI6417
aI7
aI271
aI6237
aI5489
aI63765
aI22704
aI2236
aI5672
aI7
aI3
aI41
aI89
aI11011
aI5489
aI99
aI89
aI2477
aI5354
aI34
aI3
aI5102
aI7
aI271
aI6444
aI63765
asg6
S'When it comes to deposed monarchs  it is customary to continue the usage of their monarchical title (e .g .  Constantine II  King of the Hellenes) as a courtesy title  not a constitutional office  for the duration of their lifetime .'
p11
ss.