(dp1
S'input'
p2
(dp3
S'encoded'
p4
(lp5
I64
aI2179
aI43
aI63
aI3
aI21
aI45
aI12715
aI417
aI99
aI316
aI2897
asS'ori'
p6
S'This house believes that the right to asylum should not be absolute'
p7
ssS'output'
p8
(dp9
g4
(lp10
I1210
aI20529
aI55
aI3017
aI63
aI64
aI876
aI316
aI3818
aI374
aI3
aI3914
aI7733
aI3324
aI116
aI29019
aI864
aI63765
asg6
S'David Blunkett has suggested that this might be done once the identity card scheme is rolled out  .'
p11
ss.