(dp1
S'input'
p2
(dp3
S'encoded'
p4
(lp5
I64
aI2179
aI43
aI3
aI626
aI187
aI116
aI1989
aI34
aI3102
aI2223
asS'ori'
p6
S"This house believes the United States is responsible for Mexico's drugs war"
p7
ssS'output'
p8
(dp9
g4
(lp10
I685
aI24
aI3
aI2176
aI7
aI3
aI2907
aI75
aI51
aI2784
aI7
aI2116
aI23371
aI63765
asg6
S'Established in the Department of the Treasury by an act of June 14  1930 (46 Stat .'
p11
ss.