(dp1
S'input'
p2
(dp3
S'encoded'
p4
(lp5
I64
aI2179
aI43
aI63
aI3
aI4990
aI4991
aI116
aI4850
aI24
aI12166
aI3
aI475
aI7
aI3532
aI3290
aI7
aI4714
asS'ori'
p6
S'This house believes that the Catholic Church is justified in forbidding the use of barrier methods of contraception'
p7
ssS'output'
p8
(dp9
g4
(lp10
I751
aI3
aI9794
aI3
aI4990
aI4991
aI440
aI89
aI15655
aI1173
aI1597
aI24
aI3
aI22
aI128
aI7
aI5669
aI368
aI211
aI10978
aI6521
aI89
aI9889
aI1860
aI24
aI3
aI17
aI5052
aI5
aI21290
aI134
aI4881
aI45
aI316
aI3
aI117
aI3266
aI5711
aI4991
aI63765
asg6
S'Before the Reformation  the Catholic Church had a uniquely powerful position in the political order of medieval western Europe; its clergymen occupied a privileged location in the social class structure; and theologically  it claimed to be the only legitimate Christian Church .'
p11
ss.