(dp1
S'input'
p2
(dp3
S'encoded'
p4
(lp5
I64
aI2179
aI394
aI2017
aI3807
aI314
aI3433
asS'ori'
p6
S'This house would ban partial birth abortions'
p7
ssS'output'
p8
(dp9
g4
(lp10
I1237
aI187
aI11
aI3581
aI92
aI84
aI782
aI257
aI3254
aI646
aI63765
aI3255
aI116
aI3853
aI63765
asg6
S'Several states have enacted "trigger laws" which "would take effect if Roe v . Wade is overturned .'
p11
ss.