(dp1
S'input'
p2
(dp3
S'encoded'
p4
(lp5
I64
aI2179
aI43
aI63
aI6670
aI546
aI417
aI316
aI89
aI1334
aI3108
aI7
aI4849
aI1886
aI2855
asS'ori'
p6
S'This house believes that wind power should be a primary focus of future energy supply'
p7
ssS'output'
p8
(dp9
g4
(lp10
I6797
aI139
aI174
aI316
aI5476
aI75
aI14322
aI6693
aI5
aI6967
aI6788
aI19
aI3
aI6670
aI5109
aI397
aI2955
aI5
aI3099
aI63765
asg6
S'Birds can also be disrupted by visual  noise  and vibration impacts from the wind turbines during construction and operation .'
p11
ss.