(dp1
S'input'
p2
(dp3
S'encoded'
p4
(lp5
I64
aI2179
aI43
aI63
aI2659
aI417
aI1690
aI3
aI12048
aI7
aI19084
asS'ori'
p6
S'This house believes that Israel should lift the blockade of Gaza'
p7
ssS'output'
p8
(dp9
g4
(lp10
I24
aI2927
aI2659
aI2052
aI51
aI164
aI9561
aI14
aI19084
aI60
aI2453
aI2676
aI5
aI19
aI2871
aI2659
aI2052
aI89
aI7088
aI9561
aI14
aI3
aI19084
aI966
aI63765
asg6
S'In March 1993  Israel imposed an overall closure on Gaza with newly built checkpoints; and  from October 2000  Israel imposed a comprehensive closure on the Gaza Strip  .'
p11
ss.