(dp1
S'input'
p2
(dp3
S'encoded'
p4
(lp5
I64
aI2179
aI43
aI63
aI1036
aI4828
aI33250
aI116
aI25073
aI45
aI3315
aI4562
asS'ori'
p6
S'This house believes that male infant circumcision is tantamount to child abuse'
p7
ssS'output'
p8
(dp9
g4
(lp10
I257
aI4774
aI116
aI45
aI316
aI416
aI273
aI182
aI1237
aI2083
aI4777
aI13210
aI139
aI316
aI1964
aI45
aI3
aI312
aI7
aI3
aI33221
aI571
aI1460
aI45
aI3
aI2083
aI4777
aI139
aI316
aI8271
aI311
aI3
aI1548
aI7
aI3
aI33221
aI45
aI591
aI3
aI37728
aI33262
aI2083
aI4777
aI139
aI316
aI8271
aI24
aI89
aI456
aI589
aI3
aI2653
aI7
aI3
aI33221
aI24
aI61
aI116
aI263
aI89
aI39812
aI456
aI591
aI63765
asg6
S'If anesthesia is to be used there are several options: local anesthetic cream (EMLA cream) can be applied to the end of the penis 6090 minutes prior to the procedure; local anesthetic can be injected at the base of the penis to block the dorsal penile nerve; local anesthetic can be injected in a ring around the middle of the penis in what is called a subcutaneous ring block  .'
p11
ss.