(dp1
S'input'
p2
(dp3
S'encoded'
p4
(lp5
I64
aI2179
aI394
aI2017
aI628
asS'ori'
p6
S'This house would ban gambling'
p7
ssS'output'
p8
(dp9
g4
(lp10
I217
aI283
aI2757
aI11
aI4301
aI63
aI975
aI3
aI2179
aI55
aI311
aI223
aI1727
aI51
aI502
aI289
aI3
aI12338
asg6
S'Most games played have mathematically-determined odds that ensure the house has at all times an advantage over the players'
p11
ss.