(dp1
S'input'
p2
(dp3
S'encoded'
p4
(lp5
I64
aI2179
aI43
aI63
aI2157
aI2565
aI493
aI19084
aI382
aI4850
asS'ori'
p6
S"This house believes that Israel's 2008-2009 military operations against Gaza were justified"
p7
ssS'output'
p8
(dp9
g4
(lp10
I3
aI4317
aI174
aI4063
aI63
aI351
aI2250
aI5597
aI83
aI1074
aI51
aI312
aI45
aI3
aI12048
aI5
aI51
aI5560
aI7
aI223
aI7
aI19094
aI158
aI3
aI19087
aI1634
aI60
aI2657
aI63765
asg6
S"The coalition also affirmed that any peace initiatives must include an end to the blockade  and an opening of all of Gaza's crossings  including the Rafah crossing with Egypt  ."
p11
ss.