(dp1
S'input'
p2
(dp3
S'encoded'
p4
(lp5
I64
aI2179
aI394
aI2017
aI628
asS'ori'
p6
S'This house would ban gambling'
p7
ssS'output'
p8
(dp9
g4
(lp10
I134
aI122
aI7863
aI63
aI273
aI122
aI2909
aI89
aI1177
aI45
aI53
aI5
aI298
aI3
aI438
aI7782
aI382
aI7783
aI5
aI63
aI2999
aI34193
aI440
aI34194
aI864
aI64
aI1177
aI63765
asg6
S'It was speculated that there was actually a pattern to where and when the winning tickets were sold  and that Professor Ginther had figured out this pattern  .'
p11
ss.