(dp1
S'input'
p2
(dp3
S'encoded'
p4
(lp5
I64
aI2179
aI43
aI63
aI6670
aI546
aI417
aI316
aI89
aI1334
aI3108
aI7
aI4849
aI1886
aI2855
asS'ori'
p6
S'This house believes that wind power should be a primary focus of future energy supply'
p7
ssS'output'
p8
(dp9
g4
(lp10
I2185
aI1886
aI927
aI270
aI55977
aI3073
aI5
aI248
aI2879
aI63765
asg6
S'Reference: Nuclear Energy Institute  using EPRI data and other sources .hOE  .'
p11
ss.