(dp1
S'input'
p2
(dp3
S'encoded'
p4
(lp5
I64
aI2179
aI43
aI24
aI3
aI475
aI7
aI12436
aI3364
asS'ori'
p6
S'This house believes in the use of affirmative action'
p7
ssS'output'
p8
(dp9
g4
(lp10
I64
aI122
aI7
aI9208
aI596
aI45
aI3202
aI2446
aI3727
aI81
aI463
aI99
aI1192
aI89
aI569
aI3516
aI24
aI10
aI3744
aI63765
asg6
S'This was of crucial importance to civil rights activists who could not get a fair trial in state courts .'
p11
ss.