(dp1
S'input'
p2
(dp3
S'encoded'
p4
(lp5
I64
aI2179
aI394
aI16756
aI20435
asS'ori'
p6
S'This house would criminalize blasphemy'
p7
ssS'output'
p8
(dp9
g4
(lp10
I3
aI1447
aI2007
aI45
aI316
aI17124
aI24
aI3
aI626
aI187
aI34
aI20435
aI122
aI20892
aI20553
aI24
aI4393
aI278
aI646
aI63765
aI63765
asg6
S'The last person to be jailed in the United States for blasphemy was Abner Kneeland in 1838 (a Massachusetts case: Commonwealth v . Kneeland)  .'
p11
ss.