(dp1
S'input'
p2
(dp3
S'encoded'
p4
(lp5
I64
aI2179
aI394
aI60
aI23587
asS'ori'
p6
S'This house would re-engage with Myanmar'
p7
ssS'output'
p8
(dp9
g4
(lp10
I3
aI128
aI174
aI4542
aI351
aI2145
aI63765
aI2144
aI19
aI1864
aI2190
aI60
aI3
aI2786
aI147
aI63765
asg6
S'The order also prohibits any U .S . citizens from doing business with the designated individuals  .'
p11
ss.