(dp1
S'input'
p2
(dp3
S'encoded'
p4
(lp5
I64
aI2179
aI394
aI5284
aI150
aI3987
asS'ori'
p6
S'This house would reintroduce national service'
p7
ssS'output'
p8
(dp9
g4
(lp10
I134
aI557
aI63
aI3
aI3351
aI45
aI2221
aI7
aI3
aI2280
aI45
aI2222
aI2223
aI5
aI45
aI836
aI793
aI2375
aI2100
aI3
aI546
aI45
aI6412
aI5610
aI63765
asg6
S"It held that the Constitution's grant to Congress of the powers to declare war and to create standing armies included the power to mandate conscription ."
p11
ss.