(dp1
S'input'
p2
(dp3
S'encoded'
p4
(lp5
I64
aI2179
aI394
aI2773
aI12505
asS'ori'
p6
S'This house would embrace multiculturalism'
p7
ssS'output'
p8
(dp9
g4
(lp10
I3
aI6090
aI7
aI89
aI2148
aI2144
aI910
aI394
aI48
aI45
aI3
aI2426
aI7
aI188
aI2148
aI2825
aI1655
aI3
aI1617
aI34
aI2148
aI22
aI13502
aI5
aI747
aI394
aI24
aI4031
aI6223
aI3
aI4
aI7
aI4223
aI311
aI89
aI2148
aI126
aI63765
asg6
S'The formation of a global citizens movement would lead to the establishment of democratic global institutions  creating the space for global political discourse and decisions  would in turn reinforce the notion of citizenship at a global level .'
p11
ss.