(dp1
S'input'
p2
(dp3
S'encoded'
p4
(lp5
I64
aI2179
aI43
aI63
aI2203
aI60
aI51
aI997
aI2837
aI21716
aI1636
aI5349
aI417
aI2998
aI8532
aI45
aI3051
aI8578
asS'ori'
p6
S'This house believes that countries with an imbalanced male/female ratio skewed towards males should encourage parents to produce girls'
p7
ssS'output'
p8
(dp9
g4
(lp10
I965
aI13843
aI404
aI34
aI289
aI634
aI45
aI342
aI89
aI5043
aI4229
aI2838
aI226
aI248
aI10250
aI3136
aI2036
aI4229
aI7936
aI3920
aI1560
aI207
aI73
aI443
aI1546
aI73
aI51
aI3226
aI63765
asg6
S'White births (which account for over 80%) continued to show a statistically significant decline  while other racial groups showed non-statistically significant declines (Japanese  Native American  other)  little or no change (black)  or an increase (Chinese) .'
p11
ss.