(dp1
S'input'
p2
(dp3
S'encoded'
p4
(lp5
I64
aI2179
aI394
aI16756
aI20435
asS'ori'
p6
S'This house would criminalize blasphemy'
p7
ssS'output'
p8
(dp9
g4
(lp10
I34
aI6396
aI3
aI5445
aI13286
aI5781
aI619
aI11148
aI237
aI451
aI75
aI9702
aI10798
aI7
aI4044
aI4720
aI24
aI116
aI27790
aI89
aI3977
aI7
aI38658
aI34
aI63765
asg6
S'For instance  The Golden Arrow Holy Face Devotion (Prayer) first introduced by Sister Marie of St Peter in 1844 is recited "in a spirit of reparation for blasphemy" .'
p11
ss.