(dp1
S'input'
p2
(dp3
S'encoded'
p4
(lp5
I64
aI2179
aI394
aI16756
aI20435
asS'ori'
p6
S'This house would criminalize blasphemy'
p7
ssS'output'
p8
(dp9
g4
(lp10
I378
aI273
aI116
aI6037
aI289
aI61
aI399
aI64
aI20435
aI88
aI84
aI5
aI755
aI134
aI18562
aI41
aI20435
aI24
aI3
aI1671
aI2498
aI63765
asg6
S'However  there is dispute over what form this blasphemy may take and whether it qualifies as blasphemy in the conventional sense .'
p11
ss.