(dp1
S'input'
p2
(dp3
S'encoded'
p4
(lp5
I64
aI2179
aI43
aI63
aI3
aI4991
aI7
aI180
aI417
aI316
aI5396
aI19
aI3
aI169
aI10
asS'ori'
p6
S'This house believes that the Church of England should be separated from the British state'
p7
ssS'output'
p8
(dp9
g4
(lp10
I378
aI3
aI2161
aI7
aI2042
aI55
aI5008
aI45
aI64
aI2198
aI75
aI1710
aI4680
aI45
aI4358
aI34
aI1185
aI9716
aI7
aI271
aI2386
aI8313
aI5
aI3964
aI26361
aI5605
aI24
aI6954
aI4364
aI5878
aI1341
aI703
aI45
aI13216
aI63
aI574
aI2767
aI17650
aI88
aI3236
aI25
aI2386
aI2051
aI2286
aI20143
aI63765
asg6
S"However  the Minister of Education has responded to this criticism by giving leave to students for important holidays of their specific religions  and food menus served in secondary schools pay particular attention to ensuring that each religious observer may respect his religion's specific restrictions concerning diets ."
p11
ss.