(dp1
S'input'
p2
(dp3
S'encoded'
p4
(lp5
I64
aI2179
aI13605
aI2258
aI45
aI2194
asS'ori'
p6
S'This house prefers trade to aid'
p7
ssS'output'
p8
(dp9
g4
(lp10
I1052
aI89
aI9953
aI4999
aI4604
aI905
aI480
aI24
aI2871
aI263
aI63
aI3072
aI3
aI2282
aI7
aI2206
aI2135
aI2194
aI3592
aI520
aI45
aI2767
aI2142
aI459
aI2164
aI2345
aI63765
asg6
S'Notably  a four-day Boston Globe special report  published in October 2006  called "Exporting Faith"  that examined the expansion of US foreign aid funding going to religious organizations under President Bush\'s faith-based initiative .'
p11
ss.