(dp1
S'input'
p2
(dp3
S'encoded'
p4
(lp5
I64
aI2179
aI43
aI63
aI134
aI116
aI400
aI21
aI34
aI3
aI260
aI45
aI3439
aI57
aI7
aI2381
asS'ori'
p6
S'This house believes that it is sometimes right for the government to restrict freedom of speech'
p7
ssS'output'
p8
(dp9
g4
(lp10
I24
aI11602
aI646
aI63765
aI3
aI3357
aI7
aI3
aI2483
aI513
aI5344
aI3014
aI5
aI3
aI3579
aI7
aI1334
aI89
aI3356
aI3357
aI3026
aI15
aI3052
aI41
aI206
aI794
aI52695
aI41
aI759
aI7
aI3
aI1334
aI3014
aI3274
aI63765
asg6
S'In Zelman v . Simmons-Harris  the opinion of the Court considered secular purpose and the absence of primary effect; a concurring opinion saw both cases as having treated entanglement as part of the primary purpose test  .'
p11
ss.