(dp1
S'input'
p2
(dp3
S'encoded'
p4
(lp5
I64
aI2179
aI394
aI163
aI959
aI2042
aI3557
asS'ori'
p6
S'This house would make physical education compulsory'
p7
ssS'output'
p8
(dp9
g4
(lp10
I3048
aI273
aI55
aI12
aI89
aI1445
aI1848
aI1636
aI149
aI12705
aI9381
aI79
aI5
aI923
aI311
aI870
aI7
aI3
aI2598
aI4712
aI2338
aI5982
aI63765
asg6
S"Worldwide there has been a large shift towards less physically demanding work  and currently at least 60% of the world's population gets insufficient exercise  ."
p11
ss.