(dp1
S'input'
p2
(dp3
S'encoded'
p4
(lp5
I64
aI2179
aI394
aI2773
aI12505
asS'ori'
p6
S'This house would embrace multiculturalism'
p7
ssS'output'
p8
(dp9
g4
(lp10
I58212
aI5076
aI63765
aI58213
aI646
aI63765
asg6
S'Hayunga  E .G .  Pinn  V .W .'
p11
ss.