(dp1
S'input'
p2
(dp3
S'encoded'
p4
(lp5
I64
aI2179
aI394
aI2773
aI12505
asS'ori'
p6
S'This house would embrace multiculturalism'
p7
ssS'output'
p8
(dp9
g4
(lp10
I187
aI4197
aI84
aI1112
aI249
aI5
aI53
aI4620
aI4604
aI249
aI45
aI975
aI859
aI4350
aI7
aI271
aI16
aI5
aI17
aI3020
aI63765
asg6
S'States shall take effective measures and  where appropriate  special measures to ensure continuing improvement of their economic and social conditions .'
p11
ss.