(dp1
S'input'
p2
(dp3
S'encoded'
p4
(lp5
I64
aI2179
aI394
aI60
aI23587
asS'ori'
p6
S'This house would re-engage with Myanmar'
p7
ssS'output'
p8
(dp9
g4
(lp10
I298
aI3
aI413
aI415
aI3727
aI16983
aI3141
aI1607
aI1544
aI3
aI78
aI7
aI3118
aI45
aI8672
aI63765
asg6
S'When the time came activists monks successfully brought together the people of Burma to protest .'
p11
ss.