(dp1
S'input'
p2
(dp3
S'encoded'
p4
(lp5
I64
aI2179
aI43
aI63
aI3
aI28431
aI7
aI2157
aI4624
aI75
aI39939
aI27257
aI122
aI4850
asS'ori'
p6
S'This house believes that the leaking of military documents by Anat Kamm was justified'
p7
ssS'output'
p8
(dp9
g4
(lp10
I6091
aI56230
aI56231
aI56231
aI56232
aI21936
aI56233
aI3386
aI63765
asg6
S'|- Denmark Yderst Hemmeligt Hemmeligt Fortroligt Til TjenestebrugForeign Service:Fortroligt(thin Black border) .'
p11
ss.