(dp1
S'input'
p2
(dp3
S'encoded'
p4
(lp5
I64
aI2179
aI43
aI223
aI2138
aI11
aI89
aI21
aI45
aI2185
aI372
asS'ori'
p6
S'This house believes all nations have a right to nuclear weapons'
p7
ssS'output'
p8
(dp9
g4
(lp10
I24
aI20971
aI33541
aI3
aI536
aI7
aI2330
aI1306
aI3987
aI742
aI33542
aI394
aI99
aI316
aI1031
aI45
aI3051
aI868
aI7371
aI34
aI89
aI2185
aI2418
aI751
aI5
aI394
aI117
aI316
aI1031
aI45
aI163
aI134
aI736
aI89
aI1942
aI75
aI1191
aI63765
asg6
S'In 2006 Ernst Uhrlau  the head of German intelligence service  said Tehran would not be able to produce enough material for a nuclear bomb before 2010 and would only be able to make it into a weapon by about 2015  .'
p11
ss.