(dp1
S'input'
p2
(dp3
S'encoded'
p4
(lp5
I64
aI2179
aI43
aI8629
aI116
aI3
aI117
aI998
asS'ori'
p6
S'This house believes atheism is the only way'
p7
ssS'output'
p8
(dp9
g4
(lp10
I1381
aI8301
aI473
aI3
aI2386
aI2497
aI8528
aI10636
aI42
aI55
aI99
aI4881
aI63
aI3
aI2096
aI2126
aI122
aI1748
aI4179
aI5
aI273
aI11
aI12
aI248
aI10049
aI34
aI570
aI7208
aI24
aI3
aI1257
aI63765
asg6
S'Although Dawkins invented the specific term meme independently  he has not claimed that the idea itself was entirely novel  and there have been other expressions for similar ideas in the past .'
p11
ss.