(dp1
S'input'
p2
(dp3
S'encoded'
p4
(lp5
I64
aI2179
aI43
aI63
aI6670
aI546
aI417
aI316
aI89
aI1334
aI3108
aI7
aI4849
aI1886
aI2855
asS'ori'
p6
S'This house believes that wind power should be a primary focus of future energy supply'
p7
ssS'output'
p8
(dp9
g4
(lp10
I3
aI8667
aI7
aI6674
aI6715
aI2832
aI589
aI2155
aI7962
aI7
aI6695
aI6696
aI4386
aI3569
aI131
aI134
aI116
aI2845
aI63
aI35
aI3539
aI139
aI117
aI1181
aI1191
aI2642
aI7
aI63
aI532
aI87
aI273
aI116
aI89
aI2914
aI3226
aI7
aI2155
aI7962
aI7
aI6930
aI6695
aI6696
aI4386
aI3569
aI22642
aI7
aI6930
aI6695
aI116
aI4968
aI45
aI73
aI7962
aI7
aI63765
asg6
S'The burning of fossil fuels produces around 21 .3 billion tonnes (21 .3 gigatonnes) of carbon dioxide per year  but it is estimated that natural processes can only absorb about half of that amount  so there is a net increase of 10 .65 billion tonnes of atmospheric carbon dioxide per year (one tonne of atmospheric carbon is equivalent to 44/12 or 3 .7 tonnes of carbon)  .'
p11
ss.