(dp1
S'input'
p2
(dp3
S'encoded'
p4
(lp5
I64
aI2179
aI43
aI63
aI187
aI417
aI99
aI16642
aI3
aI6449
aI7
aI3935
asS'ori'
p6
S'This house believes that states should not subsidize the growing of tobacco'
p7
ssS'output'
p8
(dp9
g4
(lp10
I87
aI2083
aI5677
aI107
aI7
aI6798
aI3
aI7408
aI5
aI16
aI7
aI271
aI3900
aI2696
aI182
aI107
aI5175
aI864
aI7
aI3
aI192
aI5
aI3472
aI113
aI1295
aI271
aI1413
aI63765
asg6
S'So local farmers  instead of improving the agricultural and economic self-sufficiency of their home country  are instead forced out of the market and perhaps even off their land .'
p11
ss.