(dp1
S'input'
p2
(dp3
S'encoded'
p4
(lp5
I64
aI2179
aI43
aI63
aI187
aI417
aI99
aI16642
aI3
aI6449
aI7
aI3935
asS'ori'
p6
S'This house believes that states should not subsidize the growing of tobacco'
p7
ssS'output'
p8
(dp9
g4
(lp10
I100
aI7
aI3
aI19266
aI25402
aI24
aI2296
aI416
aI45
aI3051
aI23690
aI34
aI2145
aI63765
aI3935
aI7311
aI4228
aI11695
aI25403
aI48
aI5
aI25400
aI5
aI25318
aI63765
asg6
S'Some of the mineral apatite in Florida used to produce phosphate for U .S .A . tobacco crops contains uranium  radium  lead 210 and polonium 210 and radon  .'
p11
ss.