(dp1
S'input'
p2
(dp3
S'encoded'
p4
(lp5
I64
aI2179
aI394
aI16756
aI20435
asS'ori'
p6
S'This house would criminalize blasphemy'
p7
ssS'output'
p8
(dp9
g4
(lp10
I51
aI2763
aI9959
aI2046
aI2000
aI211
aI70
aI493
aI20435
aI19
aI9690
aI63765
asg6
S'An Islamic theocracy  Iran derives its law against blasphemy from Sharia .'
p11
ss.