(dp1
S'input'
p2
(dp3
S'encoded'
p4
(lp5
I64
aI2179
aI394
aI2773
aI12505
asS'ori'
p6
S'This house would embrace multiculturalism'
p7
ssS'output'
p8
(dp9
g4
(lp10
I229
aI11504
aI3024
aI159
aI41
aI2401
aI51768
aI73
aI51736
aI11
aI572
aI12
aI4415
aI41
aI2084
aI24
aI320
aI4127
aI60
aI3
aI626
aI187
aI5
aI22700
aI14022
aI2073
aI51769
aI41
aI3
aI212
aI5409
aI7
aI3
aI4395
aI3028
aI1381
aI19068
aI75
aI3
aI1119
aI15388
aI63765
asg6
S"Individual aboriginal leaders  such as Joseph Brant or Tecumseh have long been viewed as heroes in Canada's early battles with the United States and Saul identifies Gabriel Dumont as the real leader of the Northwest Rebellion  although overshadowed by the better-known Louis Riel  ."
p11
ss.