(dp1
S'input'
p2
(dp3
S'encoded'
p4
(lp5
I64
aI2179
aI43
aI17
aI4941
aI857
aI3211
asS'ori'
p6
S'This house believes social deprivation causes crime'
p7
ssS'output'
p8
(dp9
g4
(lp10
I1191
aI29528
aI4386
aI5403
aI7
aI223
aI12418
aI24
aI3
aI2318
aI182
aI64
aI378
aI116
aI24
aI759
aI12955
aI75
aI3
aI68
aI63
aI5546
aI4222
aI182
aI637
aI1398
aI4546
aI5
aI1192
aI572
aI11268
aI226
aI5948
aI637
aI302
aI45
aI9944
aI3
aI12472
aI7
aI725
aI4212
aI113
aI887
aI777
aI63765
asg6
S'About seventy per cent of all prisoners in the South are black; this  however  is in part explained by the fact that accused Negroes are still easily convicted and get long sentences  while whites still continue to escape the penalty of many crimes even among themselves .'
p11
ss.