(dp1
S'input'
p2
(dp3
S'encoded'
p4
(lp5
I64
aI2179
aI235
aI3
aI2136
aI7
aI3
aI2306
aI7
aI2390
asS'ori'
p6
S'This house supports the one-child policy of the republic of China'
p7
ssS'output'
p8
(dp9
g4
(lp10
I226
aI2598
aI708
aI139
aI1944
aI249
aI63
aI3204
aI4830
aI75
aI1710
aI86
aI595
aI708
aI7
aI271
aI10947
aI100
aI256
aI11
aI7098
aI86
aI45
aI8043
aI63765
asg6
S"While population control can involve measures that improve people's lives by giving them greater control of their reproduction  some programs have exposed them to exploitation  ."
p11
ss.