(dp1
S'input'
p2
(dp3
S'encoded'
p4
(lp5
I64
aI2179
aI394
aI2976
aI12243
aI24
aI954
aI126
aI1560
aI10723
asS'ori'
p6
S'This house would implement playoffs in collegiate level American football'
p7
ssS'output'
p8
(dp9
g4
(lp10
I24
aI5520
aI4400
aI4290
aI16544
aI16545
aI2791
aI63
aI42
aI122
aI15110
aI3
aI7454
aI7
aI89
aI3831
aI493
aI3
aI34949
aI41
aI51
aI2207
aI459
aI3
aI18423
aI2784
aI63765
asg6
S'In 2009  senior Utah senator Orrin Hatch announced that he was exploring the possibility of a lawsuit against the BCS as an anti-competitive trust under the Sherman Anti-Trust Act .'
p11
ss.