(dp1
S'input'
p2
(dp3
S'encoded'
p4
(lp5
I64
aI2179
aI43
aI8629
aI116
aI3
aI117
aI998
asS'ori'
p6
S'This house believes atheism is the only way'
p7
ssS'output'
p8
(dp9
g4
(lp10
I2388
aI12197
aI7
aI56804
aI1074
aI63
aI7
aI3
aI4169
aI4990
aI6165
aI6207
aI26397
aI34
aI4895
aI134
aI116
aI2758
aI1382
aI493
aI7687
aI63
aI29750
aI2206
aI7
aI5
aI63
aI7
aI2204
aI5382
aI2999
aI7
aI18556
aI311
aI3
aI4750
aI7
aI20544
aI63765
asg6
S'Earlier definitions of antitheism include that of the French Catholic philosopher Jacques Maritain (1953)  for whom it is "an active struggle against everything that reminds us of God" (p .&nbsp;104)  and that of Robert Flint (1877)  Professor of Divinity at the University of Edinburgh .'
p11
ss.