(dp1
S'input'
p2
(dp3
S'encoded'
p4
(lp5
I64
aI2179
aI43
aI63
aI6670
aI546
aI417
aI316
aI89
aI1334
aI3108
aI7
aI4849
aI1886
aI2855
asS'ori'
p6
S'This house believes that wind power should be a primary focus of future energy supply'
p7
ssS'output'
p8
(dp9
g4
(lp10
I18950
aI2203
aI159
aI41
aI2547
aI3
aI2206
aI5
aI1005
aI182
aI887
aI3
aI2810
aI4386
aI7282
aI8678
aI7
aI2881
aI24
aI3
aI285
aI92
aI116
aI748
aI7583
aI45
aI89
aI657
aI5120
aI5200
aI2923
aI63765
asg6
S'Industrialised countries such as Canada  the US  and Australia are among the highest per capita consumers of electricity in the world  which is possible thanks to a widespread electrical distribution network .'
p11
ss.