(dp1
S'input'
p2
(dp3
S'encoded'
p4
(lp5
I64
aI2179
aI394
aI5284
aI150
aI3987
asS'ori'
p6
S'This house would reintroduce national service'
p7
ssS'output'
p8
(dp9
g4
(lp10
I16634
aI3609
aI122
aI13449
aI946
aI24
aI3
aI4192
aI385
aI53
aI12082
aI3
aI145
aI63765
asg6
S'Scattered opposition was encountered especially in the northern cities where African-Americans protested the system .'
p11
ss.