(dp1
S'input'
p2
(dp3
S'encoded'
p4
(lp5
I64
aI2179
aI43
aI63
aI6670
aI546
aI417
aI316
aI89
aI1334
aI3108
aI7
aI4849
aI1886
aI2855
asS'ori'
p6
S'This house believes that wind power should be a primary focus of future energy supply'
p7
ssS'output'
p8
(dp9
g4
(lp10
I378
aI6728
aI500
aI4574
aI419
aI320
aI99
aI45
aI475
aI1994
aI6720
aI34
aI211
aI839
aI6729
aI5109
aI24
aI128
aI45
aI1292
aI3896
aI24
aI3
aI6730
aI6669
aI6731
aI7
aI6418
aI6267
aI6719
aI63765
asg6
S'However  Enercon did choose very early not to use permanent magnets for its direct drive turbines  in order to avoid responsibility in the bad environmental imprint of rare earth mining  .'
p11
ss.