(dp1
S'input'
p2
(dp3
S'encoded'
p4
(lp5
I64
aI2179
aI43
aI63
aI3
aI21
aI45
aI12715
aI417
aI99
aI316
aI2897
asS'ori'
p6
S'This house believes that the right to asylum should not be absolute'
p7
ssS'output'
p8
(dp9
g4
(lp10
I3
aI16761
aI4294
aI2784
aI122
aI11177
aI620
aI14
aI3
aI8599
aI7
aI3
aI237
aI285
aI2223
aI5
aI547
aI3903
aI2183
aI138
aI751
aI158
aI3
aI546
aI45
aI163
aI16761
aI5844
aI289
aI5641
aI60
aI3
aI631
aI63765
asg6
S'The 1914 Aliens Registration Act was rushed through on the eve of the First World War and allowed stricter controls than before including the power to make aliens aged over 16 register with the police  .'
p11
ss.