(dp1
S'input'
p2
(dp3
S'encoded'
p4
(lp5
I64
aI2179
aI394
aI2741
aI3
aI1560
aI6025
aI2784
asS'ori'
p6
S'This house would pass the American Jobs Act'
p7
ssS'output'
p8
(dp9
g4
(lp10
I3
aI30547
aI2196
aI2645
aI45
aI3
aI4342
aI7
aI64
aI2029
aI221
aI2010
aI63
aI100
aI24
aI3
aI626
aI187
aI2221
aI513
aI150
aI9025
aI45
aI316
aI89
aI12175
aI22
aI5433
aI63765
asg6
S'The acrimonious debate leading to the passage of this bill made clear that some in the United States Congress considered national default to be a viable political option .'
p11
ss.