(dp1
S'input'
p2
(dp3
S'encoded'
p4
(lp5
I64
aI2179
aI43
aI8629
aI116
aI3
aI117
aI998
asS'ori'
p6
S'This house believes atheism is the only way'
p7
ssS'output'
p8
(dp9
g4
(lp10
I155
aI382
aI174
aI136
aI1856
aI45
aI905
aI63
aI155
aI382
aI4384
aI45
aI2490
aI63
aI155
aI5868
aI63
aI155
aI900
aI2385
aI4736
aI81
aI122
aI9419
aI5
aI45
aI3553
aI777
aI41
aI24
aI3
aI2178
aI63765
asg6
S'They were also more likely to report that they were registered to vote  that they volunteered  that they personally helped someone who was homeless  and to describe themselves as "active in the community .'
p11
ss.