(dp1
S'input'
p2
(dp3
S'encoded'
p4
(lp5
I64
aI2179
aI394
aI4261
aI8667
aI3
aI9361
aI5
aI17069
asS'ori'
p6
S'This house would prohibit burning the stars and stripes'
p7
ssS'output'
p8
(dp9
g4
(lp10
I42
aI4513
aI25
aI8865
aI45
aI3
aI3854
aI2483
aI7
aI3368
aI7
aI2298
aI131
aI42
aI6196
aI64
aI3361
aI63765
asg6
S'He appealed his conviction to the Fifth Court of Appeals of Texas  but he lost this appeal .'
p11
ss.