(dp1
S'input'
p2
(dp3
S'encoded'
p4
(lp5
I64
aI2179
aI43
aI63
aI3
aI21
aI45
aI12715
aI417
aI99
aI316
aI2897
asS'ori'
p6
S'This house believes that the right to asylum should not be absolute'
p7
ssS'output'
p8
(dp9
g4
(lp10
I3
aI2120
aI7
aI2557
aI3
aI2135
aI12418
aI2979
aI759
aI3288
aI89
aI5982
aI4341
aI60
aI3
aI831
aI45
aI4031
aI22772
aI736
aI51
aI2470
aI2904
aI63765
asg6
S'The events of 2006 involving the foreign prisoners crisis  (see Part 2)  prompted a "re-branding" exercise combined with the move to turn IND into an executive agency .'
p11
ss.