(dp1
S'input'
p2
(dp3
S'encoded'
p4
(lp5
I64
aI2179
aI394
aI3830
aI3
aI475
aI7
aI9441
aI13132
aI3102
aI24
aI276
aI381
asS'ori'
p6
S'This house would permit the use of performance enhancing drugs in professional sports'
p7
ssS'output'
p8
(dp9
g4
(lp10
I16062
aI81
aI118
aI23327
aI1507
aI378
aI83
aI1897
aI89
aI3564
aI20780
aI4404
aI63765
asg6
S'Practitioners who legally prescribe medicine however must possess a valid DEA license .'
p11
ss.