(dp1
S'input'
p2
(dp3
S'encoded'
p4
(lp5
I64
aI2179
aI394
aI5370
aI3
aI5286
asS'ori'
p6
S'This house would abolish the monarchy'
p7
ssS'output'
p8
(dp9
g4
(lp10
I4985
aI45
aI3
aI5286
aI182
aI13314
aI24
aI658
aI3269
aI24
aI667
aI6113
aI63765
asg6
S'References to the monarchy are commonplace in public life in New Zealand .'
p11
ss.