(dp1
S'input'
p2
(dp3
S'encoded'
p4
(lp5
I64
aI2179
aI13605
aI2258
aI45
aI2194
asS'ori'
p6
S'This house prefers trade to aid'
p7
ssS'output'
p8
(dp9
g4
(lp10
I89
aI237
aI446
aI7
aI7249
aI7
aI3
aI2332
aI2804
aI8147
aI122
aI3714
aI24
aI717
aI14
aI4948
aI3227
aI24
aI24
aI2203
aI63765
asg6
S'A first round of monitoring of the 12 Paris Declaration indicators was conducted in 2006 based on activities undertaken in 2005 in 34 countries .'
p11
ss.