(dp1
S'input'
p2
(dp3
S'encoded'
p4
(lp5
I64
aI2179
aI394
aI2017
aI262
asS'ori'
p6
S'This house would ban boxing'
p7
ssS'output'
p8
(dp9
g4
(lp10
I257
aI1955
aI1956
aI3
aI1946
aI484
aI47
aI1957
aI24
aI5
aI1958
aI1730
aI1257
aI25
aI299
aI675
aI89
aI1959
aI1960
aI89
aI1961
aI63765
asg6
S'If executed correctly  the aggressive boxer will lunge in and sail harmlessly past his opponent like a bull missing a matador .'
p11
ss.