(dp1
S'input'
p2
(dp3
S'encoded'
p4
(lp5
I64
aI2179
aI43
aI223
aI2138
aI11
aI89
aI21
aI45
aI2185
aI372
asS'ori'
p6
S'This house believes all nations have a right to nuclear weapons'
p7
ssS'output'
p8
(dp9
g4
(lp10
I134
aI55
aI12
aI3444
aI63
aI3
aI12033
aI92
aI2659
aI2933
aI19
aI327
aI11
aI12
aI10797
aI45
aI1378
aI2940
aI60
aI2185
aI11521
aI87
aI41
aI45
aI1985
aI2659
aI89
aI1950
aI1767
aI5201
aI63765
asg6
S'It has been asserted that the submarines which Israel received from Germany have been adapted to carry missiles with nuclear warheads  so as to give Israel a second strike capability  .'
p11
ss.