(dp1
S'input'
p2
(dp3
S'encoded'
p4
(lp5
I64
aI2179
aI43
aI17
aI4941
aI857
aI3211
asS'ori'
p6
S'This house believes social deprivation causes crime'
p7
ssS'output'
p8
(dp9
g4
(lp10
I64
aI697
aI139
aI316
aI630
aI462
aI736
aI1021
aI45
aI4435
aI1021
aI45
aI17194
aI5
aI1640
aI289
aI41
aI89
aI839
aI296
aI7
aI2223
aI73
aI100
aI248
aI399
aI7
aI2513
aI63765
asg6
S"This total can be broken down into 52% (or 782'000) due to suicide  35 .5% (or 535'000) due to homicide  and just over 12% (182'000) as a direct result of war or some other form of conflict  ."
p11
ss.