(dp1
S'input'
p2
(dp3
S'encoded'
p4
(lp5
I64
aI2179
aI43
aI63
aI2157
aI2565
aI493
aI19084
aI382
aI4850
asS'ori'
p6
S"This house believes that Israel's 2008-2009 military operations against Gaza were justified"
p7
ssS'output'
p8
(dp9
g4
(lp10
I3
aI6056
aI2157
aI742
aI100
aI13410
aI7
aI8797
aI440
aI1567
aI864
aI45
aI316
aI1950
aI73
aI2156
aI5
aI3
aI296
aI7
aI8943
aI9218
aI63765
asg6
S'The Israeli military said some allegations of misconduct had turned out to be second or third-hand accounts and the result of recycled rumours  .'
p11
ss.