(dp1
S'input'
p2
(dp3
S'encoded'
p4
(lp5
I64
aI2179
aI394
aI163
aI959
aI2042
aI3557
asS'ori'
p6
S'This house would make physical education compulsory'
p7
ssS'output'
p8
(dp9
g4
(lp10
I223
aI5235
aI182
aI16852
aI5
aI13534
aI182
aI1260
aI45
aI4574
aI61
aI45
aI1453
aI60
aI271
aI413
aI63765
asg6
S'All lessons are optional  and pupils are free to choose what to do with their time .'
p11
ss.