(dp1
S'input'
p2
(dp3
S'encoded'
p4
(lp5
I64
aI2179
aI394
aI5370
aI3
aI5286
asS'ori'
p6
S'This house would abolish the monarchy'
p7
ssS'output'
p8
(dp9
g4
(lp10
I5285
aI24
aI3
aI626
aI2549
aI116
aI3
aI910
aI92
aI1048
aI45
aI10662
aI3
aI169
aI5286
aI5
aI3423
aI134
aI60
aI89
aI2306
aI63
aI55
aI89
aI536
aI7
aI10
aI63765
asg6
S'Republicanism in the United Kingdom is the movement which seeks to remove the British monarchy and replace it with a republic that has a non-hereditary head of state .'
p11
ss.