(dp1
S'input'
p2
(dp3
S'encoded'
p4
(lp5
I64
aI2179
aI43
aI63
aI2659
aI417
aI1690
aI3
aI12048
aI7
aI19084
asS'ori'
p6
S'This house believes that Israel should lift the blockade of Gaza'
p7
ssS'output'
p8
(dp9
g4
(lp10
I807
aI45
aI124
aI51
aI3173
aI34
aI73
aI8185
aI14
aI64
aI5
aI3
aI248
aI2596
aI457
aI122
aI3531
aI63765
asg6
S"Israel's failure to provide an explanation for or details on this and the other nine deaths was criticized  ."
p11
ss.