(dp1
S'input'
p2
(dp3
S'encoded'
p4
(lp5
I64
aI2179
aI43
aI8629
aI116
aI3
aI117
aI998
asS'ori'
p6
S'This house believes atheism is the only way'
p7
ssS'output'
p8
(dp9
g4
(lp10
I51
aI13485
aI21910
aI7
aI5133
aI116
aI6278
aI63765
asg6
S'An infinite regress of movers is impossible .'
p11
ss.