(dp1
S'input'
p2
(dp3
S'encoded'
p4
(lp5
I64
aI2179
aI43
aI63
aI3
aI4538
aI7
aI4434
aI7793
aI283
aI45
aI3586
aI417
aI316
aI577
asS'ori'
p6
S'This house believes that the sale of violent video games to minors should be banned'
p7
ssS'output'
p8
(dp9
g4
(lp10
I56968
aI89
aI319
aI60
aI117
aI6669
aI6938
aI2125
aI89
aI15654
aI3
aI7740
aI83
aI1746
aI1693
aI60
aI89
aI7773
aI226
aI2284
aI3
aI758
aI7
aI3
aI126
aI63765
asg6
S'Alleyway - A game with only environmental hazards featuring a non-violent main-character wherein the player must break blocks (mild violence) with a ball while avoiding the floor of the level .'
p11
ss.