(dp1
S'input'
p2
(dp3
S'encoded'
p4
(lp5
I64
aI2179
aI394
aI2017
aI628
asS'ori'
p6
S'This house would ban gambling'
p7
ssS'output'
p8
(dp9
g4
(lp10
I5458
aI75
aI1945
aI5
aI7707
aI1649
aI116
aI174
aI279
aI63765
asg6
S'Payment by check and wire transfer is also common .'
p11
ss.