(dp1
S'input'
p2
(dp3
S'encoded'
p4
(lp5
I64
aI2179
aI43
aI63
aI3
aI28431
aI7
aI2157
aI4624
aI75
aI39939
aI27257
aI122
aI4850
asS'ori'
p6
S'This house believes that the leaking of military documents by Anat Kamm was justified'
p7
ssS'output'
p8
(dp9
g4
(lp10
I132
aI2962
aI342
aI63
aI3
aI2145
aI63765
aI122
aI1719
aI8681
aI7
aI3
aI12149
aI3968
aI60
aI3
aI4047
aI31023
aI7214
aI2923
aI63765
asg6
S'These reports show that the U .S . was already aware of the ISI connection with the al Qaeda terrorist network .'
p11
ss.