(dp1
S'input'
p2
(dp3
S'encoded'
p4
(lp5
I64
aI2179
aI43
aI63
aI3
aI4538
aI7
aI4434
aI7793
aI283
aI45
aI3586
aI417
aI316
aI577
asS'ori'
p6
S'This house believes that the sale of violent video games to minors should be banned'
p7
ssS'output'
p8
(dp9
g4
(lp10
I3
aI29242
aI2173
aI63
aI134
aI47
aI475
aI51
aI18945
aI968
aI7
aI64
aI137
aI45
aI3709
aI836
aI256
aI24
aI5269
aI24
aI3
aI41396
aI5
aI23930
aI2506
aI45
aI3709
aI7428
aI4358
aI1028
aI950
aI63765
asg6
S'The ESA stated that it will use an unspecified portion of this money to help create after-school programs in "underserved" communities in the Oakland and Sacramento areas to help teach students job skills  .'
p11
ss.