(dp1
S'input'
p2
(dp3
S'encoded'
p4
(lp5
I64
aI2179
aI13605
aI2258
aI45
aI2194
asS'ori'
p6
S'This house prefers trade to aid'
p7
ssS'output'
p8
(dp9
g4
(lp10
I2042
aI116
aI174
aI89
aI281
aI3661
aI113
aI24
aI3
aI7420
aI2138
aI63765
asg6
S'Education is also a major problem  even in the wealthier nations .'
p11
ss.