(dp1
S'input'
p2
(dp3
S'encoded'
p4
(lp5
I64
aI2179
aI394
aI2998
aI3
aI4360
aI7
aI3249
aI6804
aI24
aI3
aI102
asS'ori'
p6
S'This house would encourage the creation of private universities in the UK'
p7
ssS'output'
p8
(dp9
g4
(lp10
I24
aI3
aI437
aI33
aI89
aI5325
aI3593
aI1495
aI9178
aI122
aI871
aI24
aI2871
aI63765
asg6
S'In the latter case a civil-society-initiated referendum banning water privatization was passed in October 2004 .'
p11
ss.