(dp1
S'input'
p2
(dp3
S'encoded'
p4
(lp5
I64
aI2179
aI43
aI223
aI2138
aI11
aI89
aI21
aI45
aI2185
aI372
asS'ori'
p6
S'This house believes all nations have a right to nuclear weapons'
p7
ssS'output'
p8
(dp9
g4
(lp10
I4615
aI45
aI3
aI11570
aI1461
aI45
aI7246
aI1022
aI2169
aI249
aI1964
aI75
aI3
aI27120
aI63765
asg6
S'Parties to the NPT agree to accept technical safeguard measures applied by the IAEA .'
p11
ss.