(dp1
S'input'
p2
(dp3
S'encoded'
p4
(lp5
I64
aI2179
aI394
aI1499
aI177
aI1819
aI34
aI160
asS'ori'
p6
S'This house would build high rises for housing'
p7
ssS'output'
p8
(dp9
g4
(lp10
I2234
aI116
aI45
aI3
aI6
aI63
aI134
aI1501
aI3
aI6543
aI7872
aI470
aI63765
asg6
S'Growth is "smart growth"  to the extent that it includes the elements listed below  .'
p11
ss.