(dp1
S'input'
p2
(dp3
S'encoded'
p4
(lp5
I64
aI2179
aI394
aI16756
aI20435
asS'ori'
p6
S'This house would criminalize blasphemy'
p7
ssS'output'
p8
(dp9
g4
(lp10
I2482
aI2767
aI5409
aI12163
aI1076
aI12164
aI742
aI14
aI2805
aI63
aI89
aI122
aI45
aI8472
aI34
aI3
aI21694
aI289
aI3
aI9735
aI1075
aI14852
aI24
aI25
aI237
aI3623
aI45
aI3
aI1025
aI34
aI3
aI27161
aI3364
aI116
aI604
aI7
aI3
aI852
aI155
aI3860
aI75
aI16619
aI63765
asg6
S'Iran\'s supreme religious leader Ayatollah Ali Khamenei said on February 6  2006  that a "Zionist conspiracy" was to blame for the row over the Prophet Muhammad cartoons  in his first reaction to the controversy: "The reason for the Zionist action is because of the loss they suffered by Hamas winning" .'
p11
ss.