(dp1
S'input'
p2
(dp3
S'encoded'
p4
(lp5
I64
aI2179
aI43
aI63
aI2157
aI2565
aI493
aI19084
aI382
aI4850
asS'ori'
p6
S"This house believes that Israel's 2008-2009 military operations against Gaza were justified"
p7
ssS'output'
p8
(dp9
g4
(lp10
I926
aI281
aI448
aI1308
aI53789
aI81
aI5605
aI41
aI2217
aI7
aI2565
aI7
aI3
aI2669
aI7396
aI972
aI24
aI2173
aI63
aI19389
aI905
aI116
aI51
aI3357
aI75
aI93
aI94
aI7
aI78
aI4300
aI617
aI271
aI17524
aI60
aI913
aI3757
aI45
aI3
aI7279
aI5
aI3944
aI271
aI284
aI12906
aI63765
asg6
S'Australian Major General Jim Molan (retired)  who served as chief of operations of the Iraq multinational force in 200405  stated that "The Goldstone report is an opinion by one group of people putting forward their judgments  with limited access to the facts  and reflecting their own prejudices .'
p11
ss.