(dp1
S'input'
p2
(dp3
S'encoded'
p4
(lp5
I64
aI2179
aI43
aI63
aI134
aI116
aI400
aI21
aI34
aI3
aI260
aI45
aI3439
aI57
aI7
aI2381
asS'ori'
p6
S'This house believes that it is sometimes right for the government to restrict freedom of speech'
p7
ssS'output'
p8
(dp9
g4
(lp10
I3238
aI7
aI3292
aI18812
aI186
aI63
aI38845
aI3384
aI17896
aI3
aI68
aI63
aI8
aI2445
aI2446
aI182
aI667
aI45
aI223
aI8175
aI6599
aI611
aI443
aI1706
aI138
aI3
aI7234
aI24
aI63765
asg6
S'Defenders of moral universalism argue that relativistic arguments neglect the fact that modern human rights are new to all cultures  dating back no further than the UDHR in 1948 .'
p11
ss.