(dp1
S'input'
p2
(dp3
S'encoded'
p4
(lp5
I64
aI2179
aI394
aI4261
aI8667
aI3
aI9361
aI5
aI17069
asS'ori'
p6
S'This house would prohibit burning the stars and stripes'
p7
ssS'output'
p8
(dp9
g4
(lp10
I1792
aI9609
aI646
aI63765
aI626
aI187
aI4132
aI646
aI63765
aI3386
aI63765
asg6
S'See Watts v . United States  Virginia v . Black .'
p11
ss.