(dp1
S'input'
p2
(dp3
S'encoded'
p4
(lp5
I64
aI2179
aI394
aI2017
aI628
asS'ori'
p6
S'This house would ban gambling'
p7
ssS'output'
p8
(dp9
g4
(lp10
I24
aI89
aI667
aI8057
aI45
aI84
aI502
aI7
aI64
aI1546
aI37121
aI14059
aI5
aI37122
aI14057
aI182
aI1766
aI864
aI37122
aI5930
aI14933
aI1504
aI967
aI102
aI14930
aI63765
asg6
S'In a new venture to take advantage of this change  Gamestec Plc and Tabboxx (UK) Ltd are rolling out Tabboxx lottery vending machines across UK pubs .'
p11
ss.