(dp1
S'input'
p2
(dp3
S'encoded'
p4
(lp5
I64
aI2179
aI43
aI63
aI6670
aI546
aI417
aI316
aI89
aI1334
aI3108
aI7
aI4849
aI1886
aI2855
asS'ori'
p6
S'This house believes that wind power should be a primary focus of future energy supply'
p7
ssS'output'
p8
(dp9
g4
(lp10
I3
aI3098
aI1760
aI1201
aI643
aI2947
aI22667
aI92
aI116
aI717
aI14
aI22668
aI6930
aI17540
aI2186
aI5
aI5182
aI6670
aI7249
aI1761
aI45
aI5847
aI89
aI2326
aI7
aI3328
aI7533
aI3328
aI16742
aI5
aI6670
aI6677
aI2891
aI63765
asg6
S'The company uses self developed technologies  Windscape which is based on CSIROs atmospheric modelling technology and advanced wind monitoring tools  to undertake a program of site identification  site validation and wind farm development .'
p11
ss.