(dp1
S'input'
p2
(dp3
S'encoded'
p4
(lp5
I64
aI2179
aI394
aI2773
aI12505
asS'ori'
p6
S'This house would embrace multiculturalism'
p7
ssS'output'
p8
(dp9
g4
(lp10
I34
aI3
aI13749
aI7
aI150
aI6218
aI3
aI1511
aI2548
aI3237
aI4933
aI493
aI15575
aI14
aI3
aI2259
aI7
aI12909
aI63765
asg6
S'For the sake of national unity  the typical nation practices discrimination against migrants on the basis of ethnicity .'
p11
ss.