(dp1
S'input'
p2
(dp3
S'encoded'
p4
(lp5
I64
aI2179
aI43
aI63
aI134
aI116
aI400
aI21
aI34
aI3
aI260
aI45
aI3439
aI57
aI7
aI2381
asS'ori'
p6
S'This house believes that it is sometimes right for the government to restrict freedom of speech'
p7
ssS'output'
p8
(dp9
g4
(lp10
I64
aI10730
aI174
aI1404
aI21146
aI24
aI2083
aI12088
aI897
aI60
aI1137
aI12720
aI7252
aI51
aI7066
aI15785
aI3
aI2130
aI34
aI211
aI752
aI63765
asg6
S'This affair also caused indignation in local Quebec media  with La Presse publishing an editorial criticizing the Commission for its decision .'
p11
ss.