(dp1
S'input'
p2
(dp3
S'encoded'
p4
(lp5
I64
aI2179
aI43
aI8629
aI116
aI3
aI117
aI998
asS'ori'
p6
S'This house believes atheism is the only way'
p7
ssS'output'
p8
(dp9
g4
(lp10
I10642
aI4439
aI40
aI100
aI7
aI132
aI147
aI2433
aI493
aI3
aI4099
aI8490
aI7
aI2382
aI63765
asg6
S'Hitchens describes how some of these individuals fought against the negative influences of religion .'
p11
ss.