(dp1
S'input'
p2
(dp3
S'encoded'
p4
(lp5
I64
aI2179
aI43
aI63
aI187
aI417
aI99
aI16642
aI3
aI6449
aI7
aI3935
asS'ori'
p6
S'This house believes that states should not subsidize the growing of tobacco'
p7
ssS'output'
p8
(dp9
g4
(lp10
I24
aI217
aI2203
aI132
aI6228
aI843
aI11
aI572
aI685
aI8005
aI73
aI11
aI7674
aI3
aI281
aI2287
aI2851
aI73
aI8306
aI153
aI89
aI809
aI10
aI11844
aI63765
asg6
S'In most countries these companies either have long established dominance  or have purchased the major domestic producer or producers  often a former state monopoly .'
p11
ss.