(dp1
S'input'
p2
(dp3
S'encoded'
p4
(lp5
I64
aI2179
aI43
aI63
aI134
aI116
aI400
aI21
aI34
aI3
aI260
aI45
aI3439
aI57
aI7
aI2381
asS'ori'
p6
S'This house believes that it is sometimes right for the government to restrict freedom of speech'
p7
ssS'output'
p8
(dp9
g4
(lp10
I282
aI2445
aI2446
aI182
aI24
aI1237
aI3052
aI545
aI136
aI7088
aI5
aI16920
aI2742
aI2361
aI63765
asg6
S'International human rights regime\'s are in several cases "nested" within more comprehensive and overlapping regional agreements .'
p11
ss.