(dp1
S'input'
p2
(dp3
S'encoded'
p4
(lp5
I64
aI2179
aI394
aI5370
aI3
aI5286
asS'ori'
p6
S'This house would abolish the monarchy'
p7
ssS'output'
p8
(dp9
g4
(lp10
I25
aI9880
aI35835
aI122
aI3
aI237
aI5672
aI45
aI306
aI289
aI89
aI17593
aI2549
aI4166
aI8881
aI45
aI3
aI713
aI2288
aI7
aI180
aI114
aI211
aI10359
aI1948
aI3784
aI2369
aI2742
aI19686
aI63765
asg6
S'His grandson Athelstan was the first king to rule over a unitary kingdom roughly corresponding to the present borders of England  though its constituent parts retained strong regional identities .'
p11
ss.