(dp1
S'input'
p2
(dp3
S'encoded'
p4
(lp5
I64
aI2179
aI394
aI5284
aI150
aI3987
asS'ori'
p6
S'This house would reintroduce national service'
p7
ssS'output'
p8
(dp9
g4
(lp10
I93
aI7
aI132
aI10660
aI27939
aI122
aI4546
aI7
aI2284
aI3
aI5262
aI131
aI575
aI89
aI5001
aI904
aI7
aI863
aI2439
aI63765
asg6
S'One of these  Stephen Spiro  was convicted of avoiding the draft  but given a suspended sentence of five years .'
p11
ss.