(dp1
S'input'
p2
(dp3
S'encoded'
p4
(lp5
I64
aI2179
aI394
aI117
aI7428
aI21151
aI34
aI11389
aI2042
aI24
aI4364
asS'ori'
p6
S'This house would only teach abstinence for sex education in schools'
p7
ssS'output'
p8
(dp9
g4
(lp10
I257
aI42
aI139
aI99
aI687
aI51
aI3859
aI1362
aI60
aI89
aI3833
aI81
aI98
aI234
aI11389
aI41
aI6421
aI45
aI34916
aI768
aI42
aI116
aI136
aI1856
aI45
aI1199
aI17634
aI4447
aI4435
aI73
aI6448
aI19
aI11232
aI63765
asg6
S'If he can not establish an emotional relationship with a woman  who does view sex as connected to intimacy  then he is more likely to become depressed  commit suicide or die from illness  .'
p11
ss.