(dp1
S'input'
p2
(dp3
S'encoded'
p4
(lp5
I64
aI2179
aI394
aI5370
aI7146
aI4585
aI2446
asS'ori'
p6
S'This house would abolish intellectual property rights'
p7
ssS'output'
p8
(dp9
g4
(lp10
I25
aI3068
aI7
aI3
aI8942
aI7
aI203
aI111
aI35
aI2635
aI41
aI4585
aI116
aI136
aI12979
aI63765
asg6
S'His analysis of the product of labor upon natural resources as property (usufruct) is more nuanced .'
p11
ss.