(dp1
S'input'
p2
(dp3
S'encoded'
p4
(lp5
I64
aI2179
aI394
aI5370
aI3
aI5286
asS'ori'
p6
S'This house would abolish the monarchy'
p7
ssS'output'
p8
(dp9
g4
(lp10
I395
aI14
aI6495
aI387
aI463
aI174
aI316
aI513
aI41
aI89
aI7
aI89
aI90
aI24
aI3
aI2498
aI63
aI273
aI122
aI89
aI5672
aI41
aI3
aI10832
aI536
aI7
aI10
aI226
aI650
aI546
aI122
aI557
aI75
aI6499
aI21141
aI459
aI89
aI2475
aI63765
asg6
S'Later on  Fascist Italy could also be considered as a "constitutional monarchy" of a kind  in the sense that there was a king as the titular head of state while actual power was held by Benito Mussolini under a constitution .'
p11
ss.