(dp1
S'input'
p2
(dp3
S'encoded'
p4
(lp5
I64
aI2179
aI13605
aI2258
aI45
aI2194
asS'ori'
p6
S'This house prefers trade to aid'
p7
ssS'output'
p8
(dp9
g4
(lp10
I6770
aI2666
aI182
aI7783
aI5
aI8592
aI24
aI159
aI89
aI998
aI63
aI5918
aI6198
aI92
aI182
aI768
aI575
aI41
aI2397
aI45
aI2083
aI14985
aI622
aI4259
aI10323
aI1636
aI200
aI130
aI63765
asg6
S'Toronto Dollars are sold and redeemed in such a way that raise funds which are then given as grants to local charities  primarily ones oriented towards reducing poverty  .'
p11
ss.