(dp1
S'input'
p2
(dp3
S'encoded'
p4
(lp5
I64
aI2179
aI43
aI63
aI2659
aI417
aI1690
aI3
aI12048
aI7
aI19084
asS'ori'
p6
S'This house believes that Israel should lift the blockade of Gaza'
p7
ssS'output'
p8
(dp9
g4
(lp10
I29918
aI29919
aI89
aI4176
aI24
aI3
aI3993
aI29920
aI55
aI3531
aI3
aI24839
aI3270
aI63
aI78
aI47
aI7817
aI419
aI4319
aI63
aI3
aI24839
aI116
aI9186
aI2670
aI5
aI2973
aI63
aI3
aI782
aI7
aI3
aI2979
aI394
aI316
aI45
aI9157
aI3
aI3912
aI63
aI2670
aI116
aI17476
aI2126
aI60
aI3
aI20135
aI7
aI2046
aI6129
aI16619
aI5
aI19134
aI63765
asg6
S'Cuneyt Ulsever  a commentator in the daily Hurriyet  has criticized the IHH  saying that People will understand very soon that the IHH is harming Turkey  and warned that the effect of the crisis would be to persuade the West that Turkey is aligning itself with the likes of Iran  Syria  Hamas and Hezbollah  .'
p11
ss.