(dp1
S'input'
p2
(dp3
S'encoded'
p4
(lp5
I64
aI2179
aI43
aI63
aI2157
aI2565
aI493
aI19084
aI382
aI4850
asS'ori'
p6
S"This house believes that Israel's 2008-2009 military operations against Gaza were justified"
p7
ssS'output'
p8
(dp9
g4
(lp10
I24
aI89
aI960
aI7142
aI75
aI3
aI285
aI3217
aI2134
aI7
aI3
aI3217
aI4678
aI13683
aI382
aI353
aI45
aI316
aI11022
aI73
aI3158
aI7
aI3590
aI5
aI1334
aI3217
aI85
aI4367
aI3860
aI12414
aI5
aI31268
aI382
aI2916
aI11022
aI73
aI3158
asg6
S"In a damage assessment by the World Health Organization  48% of the 122 health facilities assessed were found to be damaged or destroyed  15 of Gaza's 27 hospitals and 41 primary health care centers suffered damages  and 29 ambulances were partially damaged or destroyed "
p11
ss.