(dp1
S'input'
p2
(dp3
S'encoded'
p4
(lp5
I64
aI2179
aI394
aI60
aI23587
asS'ori'
p6
S'This house would re-engage with Myanmar'
p7
ssS'output'
p8
(dp9
g4
(lp10
I132
aI3157
aI1074
aI3
aI4515
aI7
aI5409
aI41475
aI4347
aI41476
aI41477
aI19
aI2179
aI11653
aI2426
aI7
aI3
aI150
aI2445
aI2446
aI2130
aI448
aI41845
aI7
aI136
aI138
aI22
aI12418
aI232
aI7
aI667
aI5428
aI2511
aI63
aI501
aI5428
aI11004
aI5
aI19153
aI17337
aI7
aI2961
aI7149
aI5
aI3645
aI7
aI2720
aI3237
aI63765
asg6
S'These reforms include the release of pro-democracy leader Aung San Suu Kyi from house arrest  establishment of the National Human Rights Commission  general amnesties of more than 200 political prisoners  institution of new labour laws that allow labour unions and strikes  relaxation of press censorship and regulations of currency practices  .'
p11
ss.