(dp1
S'input'
p2
(dp3
S'encoded'
p4
(lp5
I64
aI2179
aI43
aI63
aI134
aI116
aI400
aI21
aI34
aI3
aI260
aI45
aI3439
aI57
aI7
aI2381
asS'ori'
p6
S'This house believes that it is sometimes right for the government to restrict freedom of speech'
p7
ssS'output'
p8
(dp9
g4
(lp10
I3
aI10729
aI2124
aI752
aI48197
aI5
aI48197
aI7
aI492
aI695
aI63
aI34
aI51
aI6293
aI45
aI316
aI3537
aI134
aI83
aI9042
aI60
aI3
aI3445
aI7
aI89
aI10359
aI6293
aI73
aI3
aI3025
aI3445
aI7
aI6293
aI7579
aI3
aI655
aI24
aI3
aI6293
aI83
aI3222
aI89
aI279
aI3014
aI63
aI116
aI24
aI3
aI279
aI376
aI63765
asg6
S'The Love Parade decision (1 BvQ 28/01 and 1 BvQ 30/01 of 12 July 2001) determined that for an assembly to be protected it must comply with the concept of a constituent assembly  or the so-called narrow concept of assembly whereby the participants in the assembly must pursue a common purpose that is in the common interest  .'
p11
ss.