(dp1
S'input'
p2
(dp3
S'encoded'
p4
(lp5
I64
aI2179
aI43
aI3
aI626
aI187
aI116
aI1989
aI34
aI3102
aI2223
asS'ori'
p6
S"This house believes the United States is responsible for Mexico's drugs war"
p7
ssS'output'
p8
(dp9
g4
(lp10
I4042
aI7
aI3934
aI534
aI3
aI3264
aI45
aI3
aI2475
aI63765
asg6
S'Prohibition of alcohol required the 18th Amendment to the Constitution .'
p11
ss.