(dp1
S'input'
p2
(dp3
S'encoded'
p4
(lp5
I64
aI2179
aI235
aI839
aI4168
aI7
aI4996
aI34759
asS'ori'
p6
S'This house supports direct election of city mayors'
p7
ssS'output'
p8
(dp9
g4
(lp10
I3
aI237
aI2818
aI2990
aI8828
aI122
aI451
aI24
aI595
aI407
aI24
aI41
aI759
aI7
aI3
aI4211
aI3663
aI7
aI3
aI595
aI407
aI254
aI2784
aI63765
asg6
S'The first directly elected mayor was introduced in Greater London in 2000 as part of the statutory provisions of the Greater London Authority Act 1999 .'
p11
ss.