(dp1
S'input'
p2
(dp3
S'encoded'
p4
(lp5
I64
aI2179
aI43
aI8629
aI116
aI3
aI117
aI998
asS'ori'
p6
S'This house believes atheism is the only way'
p7
ssS'output'
p8
(dp9
g4
(lp10
I3
aI8300
aI122
aI8309
aI14
aI3
aI1262
aI14
aI3
aI2779
aI459
aI3
aI5489
aI7
aI3
aI5480
aI5699
aI63765
asg6
S'The documentary was rebroadcast on the More4 channel on the 25 August 2010 under the title of The God Delusion  .'
p11
ss.