(dp1
S'input'
p2
(dp3
S'encoded'
p4
(lp5
I64
aI2179
aI43
aI63
aI3
aI28431
aI7
aI2157
aI4624
aI75
aI39939
aI27257
aI122
aI4850
asS'ori'
p6
S'This house believes that the leaking of military documents by Anat Kamm was justified'
p7
ssS'output'
p8
(dp9
g4
(lp10
I2201
aI4881
aI24
aI2959
aI63
aI10637
aI5516
aI211
aI15029
aI4761
aI92
aI440
aI1366
aI63765
asg6
S'WikiLeaks claimed in April 2010 that Facebook deleted its fan page  which had 30 000 fans  .'
p11
ss.