(dp1
S'input'
p2
(dp3
S'encoded'
p4
(lp5
I64
aI2179
aI394
aI163
aI959
aI2042
aI3557
asS'ori'
p6
S'This house would make physical education compulsory'
p7
ssS'output'
p8
(dp9
g4
(lp10
I3
aI3855
aI764
aI60
aI51
aI803
aI7
aI3
aI51566
aI3
aI51568
aI11765
aI63
aI55
aI17646
aI45
aI3
aI1584
aI51566
aI5
aI51569
aI51566
aI3
aI12037
aI5
aI51570
aI4367
aI3839
aI63765
asg6
S"The circuit begins with an area of the hypothalamus  the arcuate nucleus  that has outputs to the lateral hypothalamus (LH) and ventromedial hypothalamus (VMH)  the brain's feeding and satiety centers  respectively  ."
p11
ss.