(dp1
S'input'
p2
(dp3
S'encoded'
p4
(lp5
I64
aI2179
aI394
aI163
aI959
aI2042
aI3557
asS'ori'
p6
S'This house would make physical education compulsory'
p7
ssS'output'
p8
(dp9
g4
(lp10
I77
aI959
aI5
aI1043
aI17085
aI5
aI3
aI19979
aI10141
aI416
aI45
aI1029
aI86
aI139
aI3226
aI2038
aI7
aI16329
aI63765
asg6
S'Certain physical and mental illnesses and the pharmaceutical substances used to treat them can increase risk of obesity .'
p11
ss.