(dp1
S'input'
p2
(dp3
S'encoded'
p4
(lp5
I64
aI2179
aI394
aI16756
aI20435
asS'ori'
p6
S'This house would criminalize blasphemy'
p7
ssS'output'
p8
(dp9
g4
(lp10
I3
aI4991
aI24
aI499
aI122
aI20495
aI24
aI63765
asg6
S'The Church in Wales was disestablished in 1920  .'
p11
ss.