(dp1
S'input'
p2
(dp3
S'encoded'
p4
(lp5
I64
aI2179
aI394
aI2773
aI12505
asS'ori'
p6
S'This house would embrace multiculturalism'
p7
ssS'output'
p8
(dp9
g4
(lp10
I89
aI279
aI3487
aI7
aI725
aI159
aI189
aI116
aI63
aI155
aI1292
aI5044
aI351
aI2386
aI2812
aI2767
aI73
aI2637
aI2178
aI3527
aI41
aI2609
aI63765
asg6
S'A common aspect of many such policies is that they avoid presenting any specific ethnic  religious  or cultural community values as central  .'
p11
ss.