(dp1
S'input'
p2
(dp3
S'encoded'
p4
(lp5
I64
aI2179
aI43
aI63
aI3
aI4538
aI7
aI4434
aI7793
aI283
aI45
aI3586
aI417
aI316
aI577
asS'ori'
p6
S'This house believes that the sale of violent video games to minors should be banned'
p7
ssS'output'
p8
(dp9
g4
(lp10
I8183
aI2141
aI427
aI238
aI14
aI15
aI19821
aI1629
aI1458
aI2120
aI5
aI397
aI1876
aI18241
aI5600
aI53
aI1237
aI2789
aI7
aI93
aI8183
aI394
aI6372
aI14
aI89
aI658
aI14263
aI63765
asg6
S'Clan interaction took place on both professionally set competition events  and during normal casual playing where several members of one clan would play on a public server .'
p11
ss.