(dp1
S'input'
p2
(dp3
S'encoded'
p4
(lp5
I64
aI2179
aI43
aI17
aI4941
aI857
aI3211
asS'ori'
p6
S'This house believes social deprivation causes crime'
p7
ssS'output'
p8
(dp9
g4
(lp10
I11714
aI63701
aI89
aI10185
aI7
aI32789
aI5810
aI63
aI17
aI41
aI261
aI41
aI7128
aI1356
aI2757
aI89
aI2210
aI5
aI557
aI3
aI234
aI63
aI4285
aI417
aI99
aI316
aI557
aI1989
aI298
aI1356
aI850
aI271
aI5032
aI382
aI3515
aI271
aI708
asg6
S'Enrico Ferri  a student of Lombroso  believed that social as well as biological factors played a role  and held the view that criminals should not be held responsible when factors causing their criminality were beyond their control'
p11
ss.