(dp1
S'input'
p2
(dp3
S'encoded'
p4
(lp5
I64
aI2179
aI43
aI17
aI4941
aI857
aI3211
asS'ori'
p6
S'This house believes social deprivation causes crime'
p7
ssS'output'
p8
(dp9
g4
(lp10
I725
aI274
aI7
aI2617
aI493
aI3495
aI3862
aI5
aI3
aI15429
aI34
aI6396
aI139
aI296
aI24
aI959
aI4817
aI5
aI17
aI251
aI63
aI1453
aI99
aI4937
aI48
aI45
aI806
aI12461
aI73
aI1012
aI63765
asg6
S'Many forms of violence against women  children and the elderly  for instance  can result in physical  psychological and social problems that do not necessarily lead to injury  disability or death .'
p11
ss.