(dp1
S'input'
p2
(dp3
S'encoded'
p4
(lp5
I64
aI2179
aI13605
aI2258
aI45
aI2194
asS'ori'
p6
S'This house prefers trade to aid'
p7
ssS'output'
p8
(dp9
g4
(lp10
I9033
aI3252
aI1621
aI1360
aI4004
aI41
aI89
aI482
aI2326
aI116
aI717
aI14
aI3089
aI159
aI41
aI5894
aI3862
aI24
aI2240
aI73
aI701
aI49083
aI63765
aI24
aI2299
aI34
aI1343
aI3
aI2696
aI60
aI3
aI2546
aI159
aI2326
aI23127
aI2722
aI7
aI3569
aI5951
aI24
aI3945
aI803
aI3722
aI75
aI5
aI3862
aI2754
aI2642
aI51
aI20072
aI24
aI6951
asg6
S'Conditional Cash Transfers  widely credited as a successful anti-poverty program  is based on actions such as enrolling children in school or receiving vaccinations  . In Mexico  for example  the country with the largest such program  dropout rates of 1619 year olds in rural area dropped by 20% and children gained half an inch in height '
p11
ss.