(dp1
S'input'
p2
(dp3
S'encoded'
p4
(lp5
I64
aI2179
aI43
aI17
aI4941
aI857
aI3211
asS'ori'
p6
S'This house believes social deprivation causes crime'
p7
ssS'output'
p8
(dp9
g4
(lp10
I6290
aI116
aI51
aI14478
aI2823
aI18712
aI3075
aI45
aI1782
aI15422
aI5115
aI63765
asg6
S'Bureaucracy is an organizational model rationally designed to perform tasks efficiently  .'
p11
ss.