(dp1
S'input'
p2
(dp3
S'encoded'
p4
(lp5
I64
aI2179
aI43
aI63
aI134
aI116
aI400
aI21
aI34
aI3
aI260
aI45
aI3439
aI57
aI7
aI2381
asS'ori'
p6
S'This house believes that it is sometimes right for the government to restrict freedom of speech'
p7
ssS'output'
p8
(dp9
g4
(lp10
I1966
aI493
aI89
aI7
aI2446
aI3543
aI63
aI16874
aI7
aI3
aI2475
aI500
aI99
aI4979
aI3
aI1560
aI78
aI382
aI31110
aI271
aI2446
aI5
aI3082
aI63
aI4625
aI382
aI24
aI17042
aI3
aI78
aI1996
aI3819
aI5
aI41
aI155
aI4593
aI7687
aI155
aI11
aI443
aI1068
aI7
aI1341
aI7680
asg6
S'84  argued against a "Bill of Rights " asserting that ratification of the Constitution did not mean the American people were surrendering their rights  and  therefore  that protections were unnecessary: "Here  in strictness  the people surrender nothing  and as they retain everything  they have no need of particular reservations ."'
p11
ss.