(dp1
S'input'
p2
(dp3
S'encoded'
p4
(lp5
I64
aI2179
aI394
aI2998
aI3
aI4360
aI7
aI3249
aI6804
aI24
aI3
aI102
asS'ori'
p6
S'This house would encourage the creation of private universities in the UK'
p7
ssS'output'
p8
(dp9
g4
(lp10
I24
aI248
aI4199
aI3
aI55501
aI94
aI5
aI3
aI80
aI24
aI3
aI55502
aI2345
aI2909
aI182
aI1592
aI3
aI48
aI7
aI2145
aI63765
asg6
S'In other words  the Annapolis Group and the others in the NAICU initiative actually are following the lead of U .S .'
p11
ss.