(dp1
S'input'
p2
(dp3
S'encoded'
p4
(lp5
I64
aI2179
aI43
aI63
aI3
aI4990
aI4991
aI116
aI4850
aI24
aI12166
aI3
aI475
aI7
aI3532
aI3290
aI7
aI4714
asS'ori'
p6
S'This house believes that the Catholic Church is justified in forbidding the use of barrier methods of contraception'
p7
ssS'output'
p8
(dp9
g4
(lp10
I35
aI3874
aI2569
aI3290
aI19
aI2189
aI397
aI77
aI1948
aI7
aI3
aI13762
aI182
aI547
aI691
aI155
aI84
aI502
aI7
aI13763
aI2396
aI75
aI580
asg6
S'Natural family planning methods (abstaining from intercourse during certain parts of the menstrual cycle) are allowed  since they take advantage of "a faculty provided by nature ."'
p11
ss.