(dp1
S'input'
p2
(dp3
S'encoded'
p4
(lp5
I64
aI2179
aI43
aI17
aI4941
aI857
aI3211
asS'ori'
p6
S'This house believes social deprivation causes crime'
p7
ssS'output'
p8
(dp9
g4
(lp10
I33800
aI7505
aI24
aI25
aI3955
aI1374
aI39893
aI5
aI6704
aI5
aI3
aI3059
aI57945
aI146
aI15495
aI5
aI21985
aI350
aI34
aI3
aI544
aI7
aI1445
aI6684
aI7497
aI41
aI89
aI296
aI7
aI14810
aI24
aI2186
aI5
aI63765
asg6
S'Jared Diamond in his award-winning books  Guns  Germs and Steel and The Third Chimpanzee provides sociological and anthropological evidence for the rise of large scale warfare as a result of advances in technology and city-states .'
p11
ss.