(dp1
S'input'
p2
(dp3
S'encoded'
p4
(lp5
I64
aI2179
aI235
aI3858
aI3
aI2240
aI4527
aI3485
aI45
asS'ori'
p6
S'This house supports raising the school leaving age to 18'
p7
ssS'output'
p8
(dp9
g4
(lp10
I42
aI3197
aI63
aI4364
aI1453
aI99
aI6752
aI212
aI3240
aI117
aI3539
aI63765
asg6
S'He writes that schools do not reward real achievement  only processes .'
p11
ss.