(dp1
S'input'
p2
(dp3
S'encoded'
p4
(lp5
I64
aI2179
aI43
aI63
aI6670
aI546
aI417
aI316
aI89
aI1334
aI3108
aI7
aI4849
aI1886
aI2855
asS'ori'
p6
S'This house believes that wind power should be a primary focus of future energy supply'
p7
ssS'output'
p8
(dp9
g4
(lp10
I768
aI1199
aI570
aI45
aI7776
aI6719
aI2844
aI5090
aI50861
aI131
aI99
aI2914
aI69
aI1886
aI2879
asg6
S'(They then become similar to ordinary mining reserves  economically recoverable but not net positive energy sources .)'
p11
ss.