(dp1
S'input'
p2
(dp3
S'encoded'
p4
(lp5
I64
aI2179
aI394
aI2773
aI12505
asS'ori'
p6
S'This house would embrace multiculturalism'
p7
ssS'output'
p8
(dp9
g4
(lp10
I443
aI93
aI19
aI97
aI2637
aI4304
aI24
aI2547
aI116
aI5175
aI45
aI4680
aI271
aI3905
aI5
aI3442
aI3
aI2023
aI3905
aI63765
asg6
S'No one from another cultural background in Canada is forced to leave their culture and adopt the Canadian culture .'
p11
ss.