(dp1
S'input'
p2
(dp3
S'encoded'
p4
(lp5
I64
aI2179
aI394
aI1499
aI177
aI1819
aI34
aI160
asS'ori'
p6
S'This house would build high rises for housing'
p7
ssS'output'
p8
(dp9
g4
(lp10
I217
aI7
aI3
aI2546
aI6811
aI6819
aI24
aI2547
aI182
aI353
aI24
aI6770
aI20181
aI5
aI89
aI4270
aI3
aI217
aI385
aI63765
asg6
S'Most of the largest residential towers in Canada are found in Toronto  Vancouver  and (to a lesser extent) Montreal: the most densely-populated cities .'
p11
ss.