(dp1
S'input'
p2
(dp3
S'encoded'
p4
(lp5
I64
aI2179
aI394
aI2017
aI628
asS'ori'
p6
S'This house would ban gambling'
p7
ssS'output'
p8
(dp9
g4
(lp10
I283
aI159
aI41
aI22518
aI7738
aI7736
aI5
aI7737
aI22517
aI19
aI384
aI2506
aI7
aI323
aI63765
asg6
S'Games such as craps  baccarat  roulette  and blackjack originate from different areas of Europe .'
p11
ss.