(dp1
S'input'
p2
(dp3
S'encoded'
p4
(lp5
I64
aI2179
aI235
aI3
aI2136
aI7
aI3
aI2306
aI7
aI2390
asS'ori'
p6
S'This house supports the one-child policy of the republic of China'
p7
ssS'output'
p8
(dp9
g4
(lp10
I37448
aI37449
aI18483
aI3172
aI63
aI3
aI1848
aI24
aI3174
aI63
aI458
aI24
aI3
aI83
aI316
aI4635
aI24
aI3
aI4659
aI7
aI3
aI7932
aI2438
aI63
aI427
aI238
aI311
aI3
aI413
aI63765
asg6
S'Paige Whaley Eager argues that the shift in perception that occurred in the 1960s must be understood in the context of the demographic changes that took place at the time  .'
p11
ss.