(dp1
S'input'
p2
(dp3
S'encoded'
p4
(lp5
I64
aI2179
aI394
aI1499
aI177
aI1819
aI34
aI160
asS'ori'
p6
S'This house would build high rises for housing'
p7
ssS'output'
p8
(dp9
g4
(lp10
I39227
aI55
aI12
aI263
aI7
aI3
aI5832
aI5
aI1059
aI1202
aI7
aI3926
aI2569
aI717
aI14
aI3
aI6174
aI7
aI1673
aI73
aI7
aI3
aI63765
asg6
S'Shibam has been called "one of the oldest and best examples of urban planning based on the principle of vertical construction" or "Manhattan of the desert"  .'
p11
ss.