(dp1
S'input'
p2
(dp3
S'encoded'
p4
(lp5
I64
aI2179
aI394
aI2773
aI12505
asS'ori'
p6
S'This house would embrace multiculturalism'
p7
ssS'output'
p8
(dp9
g4
(lp10
I24
aI51
aI1222
aI45
aI9036
aI3577
aI34
aI2760
aI2637
aI13347
aI2768
aI477
aI4750
aI282
aI7743
aI869
aI4764
aI4724
aI8526
aI6029
aI5
aI950
aI63765
asg6
S'In an attempt to offer solutions for developing cultural competence  Diversity Training University International (DTUI) isolated four cognitive components: (a) Awareness  (b) Attitude  (c) Knowledge  and (d) Skills .'
p11
ss.