(dp1
S'input'
p2
(dp3
S'encoded'
p4
(lp5
I64
aI2179
aI13605
aI2258
aI45
aI2194
asS'ori'
p6
S'This house prefers trade to aid'
p7
ssS'output'
p8
(dp9
g4
(lp10
I34
aI3
aI7484
aI7
aI3
aI398
aI3
aI845
aI122
aI99
aI41
aI165
aI1191
aI3
aI126
aI7
aI16290
aI41
aI134
aI122
aI3
aI2234
aI7
aI2143
aI5
aI2352
aI42901
aI5
aI3
aI4705
aI214
aI2230
aI203
aI2446
aI63765
asg6
S'For the remainder of the century the issue was not as much about the level of Protectionism as it was the growth of Corporations and Capital centralization and the subsequent issues regarding Labor rights .'
p11
ss.