(dp1
S'input'
p2
(dp3
S'encoded'
p4
(lp5
I64
aI2179
aI394
aI2017
aI223
aI9058
aI23653
asS'ori'
p6
S'This house would ban all unsustainable logging'
p7
ssS'output'
p8
(dp9
g4
(lp10
I7809
aI55
aI4099
aI4738
aI14
aI3
aI3216
aI24
aI1809
aI7
aI8100
aI15522
aI852
aI7
aI7797
aI6795
aI852
aI7
aI6687
aI5
aI2322
aI36821
aI887
aI725
aI248
aI3398
aI63765
asg6
S'Deforestation has negative implications on the environment in terms of soil erosion  loss of biodiversity ecosystems  loss of wildlife and increased desertification among many other reasons  .'
p11
ss.