(dp1
S'input'
p2
(dp3
S'encoded'
p4
(lp5
I64
aI2179
aI43
aI63
aI134
aI116
aI400
aI21
aI34
aI3
aI260
aI45
aI3439
aI57
aI7
aI2381
asS'ori'
p6
S'This house believes that it is sometimes right for the government to restrict freedom of speech'
p7
ssS'output'
p8
(dp9
g4
(lp10
I89
aI25711
aI12039
aI45
aI89
aI658
aI9441
aI24851
aI5
aI1108
aI75
aI89
aI25712
aI3152
aI89
aI8649
aI19
aI3
aI11652
aI1787
aI75
aI89
aI25713
aI45
aI25
aI1536
aI25709
aI12217
aI25710
aI373
aI89
aI15540
aI45
aI1260
aI4640
aI63765
asg6
S"A sensational climax to a lifetime's public performance  stabbed and shot by a bearded fundamentalist  a message from the killer pinned by a dagger to his chest  Theo van Gogh became a martyr to free expression ."
p11
ss.