(dp1
S'input'
p2
(dp3
S'encoded'
p4
(lp5
I64
aI2179
aI43
aI63
aI134
aI116
aI400
aI21
aI34
aI3
aI260
aI45
aI3439
aI57
aI7
aI2381
asS'ori'
p6
S'This house believes that it is sometimes right for the government to restrict freedom of speech'
p7
ssS'output'
p8
(dp9
g4
(lp10
I50392
aI480
aI24
aI122
aI495
aI1849
aI45
aI3
aI4679
aI7
aI7
aI260
aI4295
aI7
aI29184
aI2504
aI6383
aI63765
asg6
S"Areopagitica  published in 1644  was John Milton's response to the Parliament of England's re-introduction of government licensing of printers  hence publishers  ."
p11
ss.