(dp1
S'input'
p2
(dp3
S'encoded'
p4
(lp5
I64
aI2179
aI394
aI2976
aI12243
aI24
aI954
aI126
aI1560
aI10723
asS'ori'
p6
S'This house would implement playoffs in collegiate level American football'
p7
ssS'output'
p8
(dp9
g4
(lp10
I134
aI122
aI246
aI4635
aI378
aI63
aI117
aI93
aI11276
aI394
aI1192
aI89
aI12248
aI41
aI134
aI394
aI316
aI1273
aI45
aI2986
aI1443
aI89
aI1950
aI2333
aI11276
aI736
aI89
aI34949
aI20731
aI289
aI89
aI34949
aI2333
aI63765
asg6
S'It was generally understood  however  that only one team would get a berth  as it would be hard to justify allowing a second mid-major conference team into a BCS bowl over a BCS conference runner-up .'
p11
ss.