(dp1
S'input'
p2
(dp3
S'encoded'
p4
(lp5
I64
aI2179
aI43
aI63
aI3
aI4538
aI7
aI4434
aI7793
aI283
aI45
aI3586
aI417
aI316
aI577
asS'ori'
p6
S'This house believes that the sale of violent video games to minors should be banned'
p7
ssS'output'
p8
(dp9
g4
(lp10
I87
aI53
aI273
aI116
aI89
aI22
aI708
aI273
aI83
aI316
aI100
aI7
aI3166
aI5
aI10983
aI2935
aI47
aI316
aI10686
aI63765
asg6
S'So where there is a political control there must be some of false and fabricated news will be publish .'
p11
ss.