(dp1
S'input'
p2
(dp3
S'encoded'
p4
(lp5
I64
aI2179
aI43
aI63
aI3
aI4990
aI4991
aI116
aI4850
aI24
aI12166
aI3
aI475
aI7
aI3532
aI3290
aI7
aI4714
asS'ori'
p6
S'This house believes that the Catholic Church is justified in forbidding the use of barrier methods of contraception'
p7
ssS'output'
p8
(dp9
g4
(lp10
I6359
aI3007
aI10852
aI11533
aI3
aI1597
aI24
aI25
aI10857
aI10027
aI10858
aI63765
asg6
S"Pope Paul VI reaffirmed the Church's position in his 1968 encyclical Humanae Vitae (Human Life) ."
p11
ss.