(dp1
S'input'
p2
(dp3
S'encoded'
p4
(lp5
I64
aI2179
aI43
aI223
aI2138
aI11
aI89
aI21
aI45
aI2185
aI372
asS'ori'
p6
S'This house believes all nations have a right to nuclear weapons'
p7
ssS'output'
p8
(dp9
g4
(lp10
I134
aI116
aI99
aI51
aI845
aI63
aI1230
aI2185
aI89
aI2802
aI7
aI13410
aI33537
aI1706
aI742
aI63765
asg6
S'It is not an issue that involves nuclear material; it\'s a question of allegations " ElBaradei further said  .'
p11
ss.