(dp1
S'input'
p2
(dp3
S'encoded'
p4
(lp5
I64
aI2179
aI394
aI2017
aI262
asS'ori'
p6
S'This house would ban boxing'
p7
ssS'output'
p8
(dp9
g4
(lp10
I45
aI831
aI822
aI3
aI1258
aI814
aI116
aI263
aI45
aI3
aI63765
asg6
S'To move inside the opponent\'s extended arm is called "bobbing to the inside" .'
p11
ss.