(dp1
S'input'
p2
(dp3
S'encoded'
p4
(lp5
I64
aI2179
aI43
aI63
aI2157
aI2565
aI493
aI19084
aI382
aI4850
asS'ori'
p6
S"This house believes that Israel's 2008-2009 military operations against Gaza were justified"
p7
ssS'output'
p8
(dp9
g4
(lp10
I3
aI1643
aI883
aI174
aI5047
aI63
aI16619
aI5260
aI742
aI155
aI382
aI332
aI60
aI3
aI2194
aI7
aI13594
aI4503
aI5
aI372
aI8764
aI19
aI3
aI19088
aI150
aI254
aI575
aI75
aI2659
aI3
aI626
aI187
aI5
aI248
aI2203
aI63765
asg6
S'The same newspaper also reported that Hamas representatives said they were fighting with the aid of armored vehicles and weapons confiscated from the Palestinian National Authority  given by Israel  the United States and other countries  .'
p11
ss.