(dp1
S'input'
p2
(dp3
S'encoded'
p4
(lp5
I64
aI2179
aI43
aI63
aI134
aI116
aI400
aI21
aI34
aI3
aI260
aI45
aI3439
aI57
aI7
aI2381
asS'ori'
p6
S'This house believes that it is sometimes right for the government to restrict freedom of speech'
p7
ssS'output'
p8
(dp9
g4
(lp10
I3
aI2503
aI631
aI11
aI2200
aI14195
aI19
aI3
aI4265
aI45
aI14899
aI462
aI132
aI6763
aI131
aI3
aI4265
aI729
aI2618
aI63
aI3
aI237
aI3264
aI4641
aI3
aI21
aI45
aI351
aI2381
aI113
aI257
aI134
aI1230
aI10535
aI63765
asg6
S'The federal police have asked permission from the FBI to crack down these sites  but the FBI denied  stating that the First Amendment guarantees the right to any speech  even if it involves racism .'
p11
ss.