(dp1
S'input'
p2
(dp3
S'encoded'
p4
(lp5
I64
aI2179
aI43
aI63
aI1036
aI4828
aI33250
aI116
aI25073
aI45
aI3315
aI4562
asS'ori'
p6
S'This house believes that male infant circumcision is tantamount to child abuse'
p7
ssS'output'
p8
(dp9
g4
(lp10
I508
aI42
aI680
aI366
aI33242
aI18489
aI5
aI42
aI122
aI24
aI3
aI419
aI2784
aI7
aI2246
aI3
aI35353
aI15351
aI298
aI42
aI122
aI9249
aI311
aI8434
aI54188
aI63765
asg6
S'Thus he shortly after circumcised Timothy ()  and he was in the very act of observing the Mosaic ritual when he was arrested at Jerusalem ( sqq .) .'
p11
ss.