(dp1
S'input'
p2
(dp3
S'encoded'
p4
(lp5
I64
aI2179
aI43
aI63
aI3
aI4991
aI7
aI180
aI417
aI316
aI5396
aI19
aI3
aI169
aI10
asS'ori'
p6
S'This house believes that the Church of England should be separated from the British state'
p7
ssS'output'
p8
(dp9
g4
(lp10
I3
aI70
aI122
aI5
aI1237
aI14153
aI19
aI3945
aI2506
aI2433
aI493
aI2503
aI2634
aI24
aI61
aI373
aI1047
aI41
aI3
aI31436
aI2223
aI63765
asg6
S'The law was unpopular; and several protesters from rural areas  fought against federal troops in what became known as the Cristero War .'
p11
ss.