(dp1
S'input'
p2
(dp3
S'encoded'
p4
(lp5
I64
aI2179
aI394
aI2998
aI3
aI4360
aI7
aI3249
aI6804
aI24
aI3
aI102
asS'ori'
p6
S'This house would encourage the creation of private universities in the UK'
p7
ssS'output'
p8
(dp9
g4
(lp10
I691
aI9022
aI3565
aI3
aI4750
aI7
aI10187
aI10188
aI1005
aI2098
aI41
aI89
aI3249
aI4750
aI24
aI63765
aI3
aI267
aI2455
aI117
aI3249
aI6804
aI63765
asg6
S"Since Bond University's foundation  the University of Notre Dame Australia opened as a private university  in 1989 . the two remain Australia's only private universities ."
p11
ss.