(dp1
S'input'
p2
(dp3
S'encoded'
p4
(lp5
I64
aI2179
aI394
aI163
aI959
aI2042
aI3557
asS'ori'
p6
S'This house would make physical education compulsory'
p7
ssS'output'
p8
(dp9
g4
(lp10
I189
aI9503
aI311
aI5373
aI2022
aI189
aI3654
aI45
aI5579
aI8935
aI45
aI881
aI16329
aI5
aI189
aI3654
aI45
aI1029
aI923
aI20693
aI78
aI63765
asg6
S"'Upstream' policies look at changing society  'midstream' policies try to alter individuals' behavior to prevent obesity  and 'downstream' policies try to treat currently afflicted people  ."
p11
ss.