(dp1
S'input'
p2
(dp3
S'encoded'
p4
(lp5
I64
aI2179
aI394
aI15841
aI2736
asS'ori'
p6
S'This house would disband ASEAN'
p7
ssS'output'
p8
(dp9
g4
(lp10
I487
aI312
aI7
aI2258
aI382
aI637
aI982
aI92
aI1155
aI7
aI86
aI382
aI3250
aI2995
aI45
aI2203
aI1642
aI3
aI2654
aI3375
aI3123
aI5
aI23587
aI382
aI24
aI2135
aI2258
aI60
aI2900
aI5
aI2900
aI3839
aI7
aI271
aI2362
aI461
aI45
aI248
aI2736
aI2203
aI63765
asg6
S'Until end of 2010  Intra-Asean trade were still low which mainly of them were mostly exporting to countries outside the region  except Laos and Myanmar were ASEAN-oriented in foreign trade with 80 percent and 50 percent respectively of their exports went to other ASEAN countries  .'
p11
ss.