(dp1
S'input'
p2
(dp3
S'encoded'
p4
(lp5
I64
aI2179
aI394
aI16756
aI20435
asS'ori'
p6
S'This house would criminalize blasphemy'
p7
ssS'output'
p8
(dp9
g4
(lp10
I279
aI70
aI13548
aI12888
aI366
aI3
aI4360
aI24
aI7
aI3
aI1156
aI1260
aI10
aI2396
aI155
aI382
aI3843
aI60
aI3
aI2475
aI5
aI395
aI3
aI912
aI2475
aI63765
asg6
S'Common law precedents persisted after the creation in 1922 of the Irish Free State  provided they were consistent with the 1922 Constitution  and later the current (1937) Constitution .'
p11
ss.