(dp1
S'input'
p2
(dp3
S'encoded'
p4
(lp5
I64
aI2179
aI43
aI63
aI187
aI417
aI99
aI16642
aI3
aI6449
aI7
aI3935
asS'ori'
p6
S'This house believes that states should not subsidize the growing of tobacco'
p7
ssS'output'
p8
(dp9
g4
(lp10
I574
aI3569
aI7
aI3
aI697
aI1413
aI7
aI2661
aI116
aI18850
aI34
aI3935
aI63765
asg6
S'Each year 5% of the total land of Pakistan is cultivated for tobacco .'
p11
ss.