(dp1
S'input'
p2
(dp3
S'encoded'
p4
(lp5
I64
aI2179
aI394
aI3830
aI3
aI475
aI7
aI9441
aI13132
aI3102
aI24
aI276
aI381
asS'ori'
p6
S'This house would permit the use of performance enhancing drugs in professional sports'
p7
ssS'output'
p8
(dp9
g4
(lp10
I50186
aI5
aI211
aI9702
aI3102
aI382
aI19994
aI24
aI248
aI381
aI63765
asg6
S'Benzedrine and its sister drugs were irresistible in other sports .'
p11
ss.