(dp1
S'input'
p2
(dp3
S'encoded'
p4
(lp5
I64
aI2179
aI43
aI63
aI2157
aI2565
aI493
aI19084
aI382
aI4850
asS'ori'
p6
S"This house believes that Israel's 2008-2009 military operations against Gaza were justified"
p7
ssS'output'
p8
(dp9
g4
(lp10
I5795
aI2135
aI2161
aI742
aI2820
aI2659
aI45
aI991
aI3
aI7045
aI5
aI12618
aI475
aI7
aI972
aI312
aI211
aI2157
aI2565
aI5
aI840
aI3549
aI2219
aI19
aI19084
asg6
S'Vietnam\'s Deputy Foreign Minister said  "We urged Israel to stop the excessive and disproportionate use of force  end its military operations and immediately withdraw forces from Gaza ."'
p11
ss.