(dp1
S'input'
p2
(dp3
S'encoded'
p4
(lp5
I64
aI2179
aI13605
aI2258
aI45
aI2194
asS'ori'
p6
S'This house prefers trade to aid'
p7
ssS'output'
p8
(dp9
g4
(lp10
I1260
aI2258
aI768
aI230
aI51
aI16
aI191
aI34
aI89
aI4226
aI45
aI3
aI490
aI24
aI7701
aI2203
aI60
aI7654
aI19803
aI73
aI6114
aI6075
aI7701
aI976
aI5143
aI47
aI11
aI89
aI7595
aI502
aI24
aI7659
aI2573
aI45
aI271
aI2203
aI5
aI99
aI3418
aI24
aI195
aI63765
asg6
S'Free trade  then  creates an economic incentive for a race to the bottom in regulatory institutions; countries with lax  lenient  non-enforced  or selectively enforced regulatory legal structures will have a competitive advantage in attracting investment to their countries  and not merely in wages .'
p11
ss.