(dp1
S'input'
p2
(dp3
S'encoded'
p4
(lp5
I64
aI2179
aI394
aI16642
aI1376
aI5269
asS'ori'
p6
S'This house would subsidize poor communities'
p7
ssS'output'
p8
(dp9
g4
(lp10
I155
aI2845
aI63
aI1191
aI2642
aI7
aI223
aI1794
aI24
aI17194
aI2722
aI139
aI316
aI9445
aI34
aI75
aI3802
aI24
aI3
aI532
aI7
aI4925
aI24
aI574
aI10326
aI73
aI10
aI63765
asg6
S'They estimated that about half of all variation in homicide rates can be accounted for by differences in the amount of inequality in each province or state .'
p11
ss.