(dp1
S'input'
p2
(dp3
S'encoded'
p4
(lp5
I64
aI2179
aI394
aI2017
aI223
aI9058
aI23653
asS'ori'
p6
S'This house would ban all unsustainable logging'
p7
ssS'output'
p8
(dp9
g4
(lp10
I50294
aI1699
aI7797
aI7
aI4938
aI7
aI6797
aI6905
aI8091
aI7867
aI5
aI4938
aI7
aI166
aI4975
aI47
aI174
aI316
aI3740
aI3493
aI75
aI3
aI4099
aI6788
aI7
aI7809
aI63765
asg6
S'Nigerias wide biodiversity of 899 species of birds  274 mammals  154 reptiles  53 amphibians and 4 715 species of higher plants will also be strongly affected by the negative impacts of deforestation .'
p11
ss.