(dp1
S'input'
p2
(dp3
S'encoded'
p4
(lp5
I64
aI2179
aI394
aI190
aI3
aI21
aI45
aI3895
aI834
asS'ori'
p6
S'This house would limit the right to bear arms'
p7
ssS'output'
p8
(dp9
g4
(lp10
I958
aI3
aI2477
aI5452
aI13219
aI3
aI3657
aI7
aI3
aI1950
aI3264
aI1237
aI1727
aI45
aI6310
aI3
aI2157
aI4659
aI7
aI3
aI3264
aI5
aI3
aI2210
aI7
aI3
aI3988
aI41
aI89
aI972
aI45
aI776
aI150
aI6349
aI44999
aI33372
aI5
aI454
aI493
aI4485
aI63765
asg6
S'Rather  the Constitutional delegates altered the language of the Second Amendment several times to emphasize the military context of the amendment and the role of the militia as a force to defend national sovereignty  quell insurrection  and protect against tyranny  .'
p11
ss.