(dp1
S'input'
p2
(dp3
S'encoded'
p4
(lp5
I64
aI2179
aI394
aI163
aI959
aI2042
aI3557
asS'ori'
p6
S'This house would make physical education compulsory'
p7
ssS'output'
p8
(dp9
g4
(lp10
I3073
aI4446
aI63
aI4358
aI81
aI1160
aI7631
aI34
aI6372
aI1453
aI99
aI8123
aI736
aI5587
aI261
aI5045
aI3939
aI5
aI1381
aI4364
aI182
aI2056
aI8813
aI271
aI703
aI14
aI3
aI3274
aI902
aI226
aI5506
aI2042
aI2992
aI342
aI63
aI3425
aI4194
aI63765
asg6
S'Data suggests that students who lack opportunities for play do not grow into happy  well adjusted adults  and  although schools are now focusing their attention on the test scores while eliminating recess/physical education  studies show that recess and/or P .E .'
p11
ss.