(dp1
S'input'
p2
(dp3
S'encoded'
p4
(lp5
I64
aI2179
aI394
aI4325
aI2042
aI270
aI89
aI11605
aI3324
asS'ori'
p6
S'This house would fund education using a voucher scheme'
p7
ssS'output'
p8
(dp9
g4
(lp10
I2145
aI63765
aI2211
aI2180
aI15803
aI2218
aI3205
aI7
aI2228
aI3707
aI5
aI5440
aI7
aI7700
aI2181
aI2180
aI14
aI2181
aI3217
aI2042
aI203
aI5
aI7340
aI2135
aI9711
aI2702
aI5
aI3664
aI2181
aI3318
aI14173
aI934
aI5261
aI1354
aI1354
aI1354
aI63765
asg6
S'|-valign="top" U .S . Senate committee memberships Armed Services Committee; (Chairman of the) Commerce  Science and Transportation Committee; (Chairman of the) Indian Affairs Committee; Committee on POW/MIA Affairs Health  Education  Labor  and Pensions  Foreign Relations; Homeland Security and Governmental Affairs; Veterans\' Affairs Advised auto safety subcommittee (1964) None None None  .'
p11
ss.