(dp1
S'input'
p2
(dp3
S'encoded'
p4
(lp5
I64
aI2179
aI394
aI2017
aI3807
aI314
aI3433
asS'ori'
p6
S'This house would ban partial birth abortions'
p7
ssS'output'
p8
(dp9
g4
(lp10
I134
aI116
aI1966
aI63
aI1640
aI41
aI134
aI394
aI99
aI316
aI4727
aI45
aI4898
aI1788
aI4899
aI34
aI3
aI4894
aI45
aI454
aI86
aI19
aI959
aI652
aI134
aI394
aI99
aI316
aI4727
aI45
aI4898
aI1788
aI4899
aI7
aI89
aI3486
aI63765
asg6
S'It is argued that just as it would not be permissible to refuse temporary accommodation for the guest to protect them from physical harm  it would not be permissible to refuse temporary accommodation of a fetus  .'
p11
ss.