(dp1
S'input'
p2
(dp3
S'encoded'
p4
(lp5
I64
aI2179
aI43
aI17
aI4941
aI857
aI3211
asS'ori'
p6
S'This house believes social deprivation causes crime'
p7
ssS'output'
p8
(dp9
g4
(lp10
I526
aI3
aI1444
aI7
aI8782
aI20004
aI4367
aI116
aI99
aI3818
aI60
aI2178
aI8326
aI24
aI3777
aI131
aI116
aI3418
aI3
aI296
aI7
aI14147
aI5980
aI63765
asg6
S'Furthermore  the building of centralized shopping centers is not done with community solidarity in mind  but is merely the result of profit considerations .'
p11
ss.