(dp1
S'input'
p2
(dp3
S'encoded'
p4
(lp5
I64
aI2179
aI394
aI2017
aI262
asS'ori'
p6
S'This house would ban boxing'
p7
ssS'output'
p8
(dp9
g4
(lp10
I100
aI7
aI3
aI410
aI518
aI155
aI182
aI332
aI24
aI88
aI99
aI316
aI53
aI155
aI2109
aI15190
aI41335
aI41336
aI41337
aI41338
aI41339
aI1093
aI41340
aI41341
aI23349
aI41342
aI16948
aI3572
aI2365
aI63765
asg6
S'Some of the champion boxers include: (City they are fighting in  may not be where they live)Kimberly Nelson Portland  OregonNick Anesi Durango  ColoradoStephen Wasser Jr .St .Louis  MissouriAndresea Legateniz Orlando  FloridaKali Andrews Washington  D .C  .'
p11
ss.