(dp1
S'input'
p2
(dp3
S'encoded'
p4
(lp5
I64
aI2179
aI43
aI63
aI2659
aI417
aI1690
aI3
aI12048
aI7
aI19084
asS'ori'
p6
S'This house believes that Israel should lift the blockade of Gaza'
p7
ssS'output'
p8
(dp9
g4
(lp10
I3520
aI2233
aI63765
aI1120
aI89
aI2999
aI311
aI27268
aI122
aI5546
aI7
aI773
aI18807
aI1021
aI45
aI89
aI5052
aI6018
aI63
aI16053
aI589
aI1274
aI14
aI3
aI19084
aI966
aI5
aI42
aI14664
aI75
aI2618
aI63
aI3
aI2659
aI4282
aI4612
aI7
aI2659
aI41
aI24
aI1849
aI1120
aI68
aI63
aI2233
aI500
aI1074
aI3741
aI2496
aI7
aI3
aI2513
aI116
aI7486
aI545
aI61
aI116
aI1876
aI5
aI4666
aI63765
aI63765
aI93
aI7
aI3
aI217
aI15645
aI2181
aI7
aI425
aI122
aI3
aI6056
aI648
aI14
aI19084
aI273
aI122
aI3819
aI63
aI463
aI316
aI136
aI4825
aI45
aI64
aI2346
aI311
aI63
aI413
aI63765
asg6
S'William I . Robinson  a professor at UCSB  was accused of being antisemitic due to a class assignment that revolved around Israel\'s attack on the Gaza strip  and he replied by stating that the Israel lobby labels "any criticism" of Israel as anti-Semitic In response  Robinson said: "The fact that I did include my interpretation of the Israeli-Palestinian conflict is totally within what is normal and expected . . One of the most pressing affairs of January was the Israeli assault on Gaza - there was nothing that could be more relevant to this course at that time .'
p11
ss.