(dp1
S'input'
p2
(dp3
S'encoded'
p4
(lp5
I64
aI2179
aI235
aI3
aI2136
aI7
aI3
aI2306
aI7
aI2390
asS'ori'
p6
S'This house supports the one-child policy of the republic of China'
p7
ssS'output'
p8
(dp9
g4
(lp10
I89
aI2696
aI463
aI1024
aI211
aI7910
aI5
aI45521
aI211
aI31814
aI5
aI64
aI394
aI342
aI117
aI41
aI89
aI69
aI951
aI45
aI2153
aI653
aI3
aI852
aI7
aI2352
aI1186
aI63765
asg6
S'A country could cut its forests and deplete its fisheries  and this would show only as a positive gain to GDP  despite the loss of capital assets .'
p11
ss.