(dp1
S'input'
p2
(dp3
S'encoded'
p4
(lp5
I64
aI2179
aI394
aI4325
aI2042
aI270
aI89
aI11605
aI3324
asS'ori'
p6
S'This house would fund education using a voucher scheme'
p7
ssS'output'
p8
(dp9
g4
(lp10
I3
aI7210
aI12734
aI13524
aI6664
aI13525
aI89
aI10845
aI1137
aI13526
aI89
aI282
aI2134
aI34
aI3
aI2891
aI7
aI57
aI7
aI2042
aI3232
aI63
aI3
aI21
aI45
aI2042
aI116
aI89
aI2378
aI2445
aI21
aI92
aI1019
aI4532
aI252
aI3
aI5556
aI7
aI10
aI127
aI5
aI3
aI1795
aI7
aI229
aI9934
aI63765
asg6
S"The Organisation Internationale pour le Droit a l'Education et la Liberte d'Enseignement (OIDEL)  a international non-profit organization for the development of freedom of education  maintains that the right to education is a fundamental human right which cannot exist without the presence of State benefits and the protection of individual liberties ."
p11
ss.