(dp1
S'input'
p2
(dp3
S'encoded'
p4
(lp5
I64
aI2179
aI43
aI63
aI2203
aI60
aI51
aI997
aI2837
aI21716
aI1636
aI5349
aI417
aI2998
aI8532
aI45
aI3051
aI8578
asS'ori'
p6
S'This house believes that countries with an imbalanced male/female ratio skewed towards males should encourage parents to produce girls'
p7
ssS'output'
p8
(dp9
g4
(lp10
I1381
aI251
aI159
aI41
aI1674
aI3211
aI2722
aI88
aI316
aI566
aI60
aI177
aI17839
aI5349
aI138
aI134
aI116
aI99
aI2010
aI63
aI159
aI251
aI394
aI4466
aI24
aI3968
aI60
aI982
aI17839
aI5349
aI138
aI63765
asg6
S'Although problems such as rising crime rates may be associated with high male-female ratios (more males than females)  it is not clear that such problems would arise in connection with low male-female ratios (fewer males than females) .'
p11
ss.