(dp1
S'input'
p2
(dp3
S'encoded'
p4
(lp5
I64
aI2179
aI43
aI63
aI134
aI116
aI400
aI21
aI34
aI3
aI260
aI45
aI3439
aI57
aI7
aI2381
asS'ori'
p6
S'This house believes that it is sometimes right for the government to restrict freedom of speech'
p7
ssS'output'
p8
(dp9
g4
(lp10
I3
aI22484
aI4294
aI2784
aI73
aI5549
aI2784
aI7
aI116
aI89
aI626
aI187
aI2503
aI3304
aI63
aI221
aI134
aI89
aI3135
aI1305
aI34
aI3739
aI45
aI63765
asg6
S'The Alien Registration Act or Smith Act () of 1940 is a United States federal statute that made it a criminal offense for anyone to  .'
p11
ss.