(dp1
S'input'
p2
(dp3
S'encoded'
p4
(lp5
I64
aI2179
aI43
aI63
aI1036
aI4828
aI33250
aI116
aI25073
aI45
aI3315
aI4562
asS'ori'
p6
S'This house believes that male infant circumcision is tantamount to child abuse'
p7
ssS'output'
p8
(dp9
g4
(lp10
I3
aI8532
aI417
aI1358
aI61
aI116
aI24
aI3
aI1059
aI376
aI7
aI3
aI4828
aI73
aI3315
asg6
S'the parents should determine what is in the best interest of the infant or child'
p11
ss.