(dp1
S'input'
p2
(dp3
S'encoded'
p4
(lp5
I64
aI2179
aI43
aI63
aI17574
aI417
aI316
aI3481
aI34
aI271
aI79
asS'ori'
p6
S'This house believes that housewives should be paid for their work'
p7
ssS'output'
p8
(dp9
g4
(lp10
I3
aI15473
aI10486
aI14411
aI89
aI3833
aI610
aI732
aI536
aI14
aI89
aI818
aI60
aI15
aI4039
aI15474
aI63765
asg6
S"The accompanying picture displayed a woman leaning her head on a man's shoulder  with both sound asleep ."
p11
ss.