(dp1
S'input'
p2
(dp3
S'encoded'
p4
(lp5
I64
aI2179
aI43
aI8629
aI116
aI3
aI117
aI998
asS'ori'
p6
S'This house believes atheism is the only way'
p7
ssS'output'
p8
(dp9
g4
(lp10
I18619
aI18620
aI174
aI3017
aI63
aI5480
aI8257
aI182
aI17938
aI7
aI4928
aI63765
asg6
S"Sigmund Freud also suggested that god concepts are projections of one's father  ."
p11
ss.