(dp1
S'input'
p2
(dp3
S'encoded'
p4
(lp5
I64
aI2179
aI43
aI63
aI17574
aI417
aI316
aI3481
aI34
aI271
aI79
asS'ori'
p6
S'This house believes that housewives should be paid for their work'
p7
ssS'output'
p8
(dp9
g4
(lp10
I273
aI182
aI7631
aI63
aI182
aI2867
aI45
aI4031
aI462
aI298
aI93
aI116
aI557
aI4914
aI34
aI97
aI4224
aI261
aI773
aI92
aI116
aI3
aI1839
aI4462
aI7
aI3
aI85
aI12472
aI63765
asg6
S'There are opportunities that are necessary to turn down when one is held accountable for another persons well being  which is the perfect definition of the care penalty .'
p11
ss.