(dp1
S'input'
p2
(dp3
S'encoded'
p4
(lp5
I64
aI2179
aI394
aI5370
aI7146
aI4585
aI2446
asS'ori'
p6
S'This house would abolish intellectual property rights'
p7
ssS'output'
p8
(dp9
g4
(lp10
I12717
aI70
aI41
aI5377
aI73
aI23697
aI2445
aI8252
asg6
S'copyright law as preventing or slowing human progress'
p11
ss.