(dp1
S'input'
p2
(dp3
S'encoded'
p4
(lp5
I64
aI2179
aI235
aI3
aI2136
aI7
aI3
aI2306
aI7
aI2390
asS'ori'
p6
S'This house supports the one-child policy of the republic of China'
p7
ssS'output'
p8
(dp9
g4
(lp10
I89
aI696
aI7
aI2185
aI11887
aI22627
aI4975
aI378
aI3
aI177
aI5136
aI7
aI22627
aI946
aI34
aI1376
aI2203
aI163
aI7269
aI3
aI6676
aI7
aI1445
aI1183
aI7
aI60003
aI18197
aI45
aI60004
aI7
aI1445
aI2203
aI63765
asg6
S'A number of nuclear powered desalination plants exist; However  the high costs of desalination  especially for poor countries  make impractical the transport of large amounts of desalinated seawater to interiors of large countries  .'
p11
ss.