(dp1
S'input'
p2
(dp3
S'encoded'
p4
(lp5
I64
aI2179
aI394
aI117
aI7428
aI21151
aI34
aI11389
aI2042
aI24
aI4364
asS'ori'
p6
S'This house would only teach abstinence for sex education in schools'
p7
ssS'output'
p8
(dp9
g4
(lp10
I5027
aI8578
aI1199
aI7374
aI1592
aI3
aI37298
aI13762
aI92
aI985
aI24
aI3
aI626
aI187
aI311
aI51
aI582
aI3485
aI7
aI1381
aI134
aI139
aI1569
aI1360
aI291
aI384
aI8578
aI63765
asg6
S'Adolescent girls become fertile following the menarche (first menstrual period)  which occurs in the United States at an average age of 12 .5  although it can vary widely between different girls .'
p11
ss.