(dp1
S'input'
p2
(dp3
S'encoded'
p4
(lp5
I64
aI2179
aI43
aI63
aI1036
aI4828
aI33250
aI116
aI25073
aI45
aI3315
aI4562
asS'ori'
p6
S'This house believes that male infant circumcision is tantamount to child abuse'
p7
ssS'output'
p8
(dp9
g4
(lp10
I45476
aI73
aI1558
aI4983
aI81
aI382
aI33242
aI382
aI401
aI45
aI41
aI8446
aI4983
aI73
aI54261
aI63765
asg6
S'Colossians 3:20)  or conversely Christians who were circumcised were referred to as Jewish Christians or Judaizers .'
p11
ss.