(dp1
S'input'
p2
(dp3
S'encoded'
p4
(lp5
I64
aI2179
aI394
aI117
aI7428
aI21151
aI34
aI11389
aI2042
aI24
aI4364
asS'ori'
p6
S'This house would only teach abstinence for sex education in schools'
p7
ssS'output'
p8
(dp9
g4
(lp10
I59589
aI116
aI6212
aI45
aI4817
aI16933
aI887
aI17092
aI63765
asg6
S'Sexting is linked to psychological distress among teens .'
p11
ss.