(dp1
S'input'
p2
(dp3
S'encoded'
p4
(lp5
I64
aI2179
aI394
aI16642
aI1376
aI5269
asS'ori'
p6
S'This house would subsidize poor communities'
p7
ssS'output'
p8
(dp9
g4
(lp10
I25
aI217
aI1185
aI2992
aI24700
aI5
aI24701
aI23411
aI685
aI132
aI5342
aI24
aI15
aI3
aI626
aI187
aI5
aI24
aI387
aI63765
asg6
S'His most important studies (Putnam  Leonardi  and Nanetti 1993  Putnam 2000) established these links in both the United States and in Italy .'
p11
ss.