(dp1
S'input'
p2
(dp3
S'encoded'
p4
(lp5
I64
aI2179
aI43
aI63
aI3
aI4538
aI7
aI4434
aI7793
aI283
aI45
aI3586
aI417
aI316
aI577
asS'ori'
p6
S'This house believes that the sale of violent video games to minors should be banned'
p7
ssS'output'
p8
(dp9
g4
(lp10
I725
aI7
aI3
aI2992
aI3781
aI61
aI12422
aI4434
aI73
aI1946
aI8935
aI5
aI725
aI18287
aI5
aI4658
aI63765
asg6
S"Many of the studies don't define what constitutes violent or aggressive behavior  and many confuse short-term and long-term effects ."
p11
ss.