(dp1
S'input'
p2
(dp3
S'encoded'
p4
(lp5
I64
aI2179
aI394
aI15841
aI2736
asS'ori'
p6
S'This house would disband ASEAN'
p7
ssS'output'
p8
(dp9
g4
(lp10
I257
aI132
aI2997
aI182
aI8894
aI155
aI88
aI9012
aI31727
aI16
aI5726
aI45
aI687
aI7087
aI7
aI903
aI31728
aI45
aI3518
aI3
aI6037
aI63765
asg6
S'If these efforts are ineffective  they may ask SEOM (Senior Economic Officials Meetings) to establish panel of independent arbitrators to review the dispute .'
p11
ss.