(dp1
S'input'
p2
(dp3
S'encoded'
p4
(lp5
I64
aI2179
aI394
aI2773
aI12505
asS'ori'
p6
S'This house would embrace multiculturalism'
p7
ssS'output'
p8
(dp9
g4
(lp10
I2025
aI7
aI5
aI2900
aI62600
aI159
aI41
aI12952
aI8243
aI5
aI1117
aI22842
aI34303
aI5810
aI24
aI3
aI2637
aI2925
aI7
aI965
aI45
aI5
aI3
aI667
aI5307
aI19
aI4232
aI5
aI2793
aI323
aI5
aI4359
aI21330
aI5
aI17722
aI60
aI4232
aI5
aI2793
aI1565
aI5307
aI41
aI89
aI2731
aI45
aI63765
asg6
S'Supporters of Anglo-Saxonism and 100 percent Americanism  such as Milton Gordon and Henry Pratt Fairchild believed in the cultural superiority of white Anglo-Americans to non-whites and the new immigrants from Southern and Eastern Europe  and perceived acculturation and intermarriage with Southern and Eastern European immigrants as a threat to Anglo-Americans .'
p11
ss.