(dp1
S'input'
p2
(dp3
S'encoded'
p4
(lp5
I64
aI2179
aI43
aI63
aI3376
aI4938
aI417
aI316
aI3537
asS'ori'
p6
S'This house believes that endangered species should be protected'
p7
ssS'output'
p8
(dp9
g4
(lp10
I100
aI3921
aI159
aI41
aI7867
aI60
aI271
aI8136
aI5
aI8137
aI45
aI8138
aI11
aI51
aI8139
aI7077
aI45
aI6669
aI652
aI5
aI508
aI88
aI2830
aI41
aI89
aI8140
aI63765
asg6
S"Some animals  such as amphibians with their semi-permeable skin and linkages to wetlands  have an acute sensitivity to environmental harm and thus may serve as a miner's canary ."
p11
ss.