(dp1
S'input'
p2
(dp3
S'encoded'
p4
(lp5
I64
aI2179
aI43
aI223
aI2138
aI11
aI89
aI21
aI45
aI2185
aI372
asS'ori'
p6
S'This house believes all nations have a right to nuclear weapons'
p7
ssS'output'
p8
(dp9
g4
(lp10
I2046
aI116
aI89
aI18377
aI7
aI3
aI5188
aI372
aI2533
aI92
aI2024
aI5188
aI372
aI11676
aI2938
aI5
aI2410
aI4678
aI63765
asg6
S'Iran is a signatory of the Chemical Weapons Convention  which bans chemical weapons  delivery systems  and production facilities  .'
p11
ss.