(dp1
S'input'
p2
(dp3
S'encoded'
p4
(lp5
I64
aI2179
aI394
aI2017
aI223
aI9058
aI23653
asS'ori'
p6
S'This house would ban all unsustainable logging'
p7
ssS'output'
p8
(dp9
g4
(lp10
I4190
aI3
aI78
aI45
aI1024
aI6762
aI946
aI120
aI81
aI3281
aI24
aI3945
aI1948
aI7
aI3
aI2696
aI47
aI2909
aI8988
aI271
aI3993
aI3269
aI691
aI134
aI32
aI7807
aI271
aI3993
aI1227
aI136
aI330
aI63765
asg6
S'Prohibiting the people to cut trees  especially those who live in rural parts of the country will actually hurt their daily life since it makes meeting their daily needs more difficult .'
p11
ss.