(dp1
S'input'
p2
(dp3
S'encoded'
p4
(lp5
I64
aI2179
aI43
aI63
aI134
aI116
aI400
aI21
aI34
aI3
aI260
aI45
aI3439
aI57
aI7
aI2381
asS'ori'
p6
S'This house believes that it is sometimes right for the government to restrict freedom of speech'
p7
ssS'output'
p8
(dp9
g4
(lp10
I3
aI30734
aI905
aI461
aI14
aI45
aI3943
aI63
aI2164
aI2714
aI440
aI443
aI2033
aI7
aI59474
aI3
aI2860
aI131
aI2359
aI75
aI17579
aI63765
aI1308
aI34008
aI63765
aI3478
aI136
aI24
aI3
aI998
aI7
aI89
aI3426
aI63
aI3
aI2860
aI394
aI99
aI316
aI42214
aI63765
asg6
S'The AP report went on to say that President Obama had no intention of reimposing the doctrine  but Republicans (led by Sen . Jim DeMint  R-S . Carolina) wanted more in the way of a guarantee that the doctrine would not be reimposed  .'
p11
ss.