(dp1
S'input'
p2
(dp3
S'encoded'
p4
(lp5
I64
aI2179
aI43
aI24
aI3
aI475
aI7
aI12436
aI3364
asS'ori'
p6
S'This house believes in the use of affirmative action'
p7
ssS'output'
p8
(dp9
g4
(lp10
I273
aI182
aI3663
aI2761
aI60
aI1160
aI7
aI6029
aI7
aI3
aI12461
aI2784
aI54722
aI17459
aI63765
asg6
S"There are provisions dealing with employer's lack of knowledge of the disability (Equality Act 2010 Sch 8 para 20) ."
p11
ss.