(dp1
S'input'
p2
(dp3
S'encoded'
p4
(lp5
I64
aI2179
aI43
aI63
aI2157
aI2565
aI493
aI19084
aI382
aI4850
asS'ori'
p6
S"This house believes that Israel's 2008-2009 military operations against Gaza were justified"
p7
ssS'output'
p8
(dp9
g4
(lp10
I5
aI570
aI3226
aI24
aI1687
aI9144
aI24
aI3
aI626
aI2549
aI5
aI2048
aI63765
asg6
S'and similar increase in attacks happened in the United Kingdom and Sweden  .'
p11
ss.