(dp1
S'input'
p2
(dp3
S'encoded'
p4
(lp5
I64
aI2179
aI394
aI2976
aI12243
aI24
aI954
aI126
aI1560
aI10723
asS'ori'
p6
S'This house would implement playoffs in collegiate level American football'
p7
ssS'output'
p8
(dp9
g4
(lp10
I12247
aI2985
aI957
aI45
aI380
aI14534
aI5
aI4851
aI6203
aI63
aI89
aI4758
aI10723
aI12247
aI394
aI713
aI63765
asg6
S'Playoff critics point to various obstacles and unintended consequences that a college football playoff would present .'
p11
ss.