(dp1
S'input'
p2
(dp3
S'encoded'
p4
(lp5
I64
aI2179
aI43
aI63
aI2659
aI417
aI1690
aI3
aI12048
aI7
aI19084
asS'ori'
p6
S'This house believes that Israel should lift the blockade of Gaza'
p7
ssS'output'
p8
(dp9
g4
(lp10
I19
aI2116
aI5806
aI7
aI78
aI28912
aI638
aI380
aI385
aI967
aI3
aI626
aI187
aI5
aI2547
aI45
aI8672
aI3
aI19096
aI19097
aI5
aI3
aI4705
aI6468
aI7
aI3
aI19190
aI19195
aI19196
aI5
aI211
aI8416
aI158
aI4248
aI4347
aI4348
aI3069
aI3070
aI30026
aI3431
aI6770
aI15389
aI14967
aI5
aI20181
aI63765
asg6
S'From June 15  thousands of people rallied throughout various cities across the United States and Canada to protest the flotilla raid and the subsequent seizure of the MV Rachel Corrie and its crew  including Chicago  San Francisco  Los Angeles  Minneapolis  Minnesota  Toronto  Ottawa  Montreal and Vancouver  .'
p11
ss.