(dp1
S'input'
p2
(dp3
S'encoded'
p4
(lp5
I64
aI2179
aI43
aI223
aI2138
aI11
aI89
aI21
aI45
aI2185
aI372
asS'ori'
p6
S'This house believes all nations have a right to nuclear weapons'
p7
ssS'output'
p8
(dp9
g4
(lp10
I24
aI2779
aI3
aI27120
aI2791
aI63
aI2046
aI55
aI244
aI45
aI89
aI7074
aI45
aI14387
aI1277
aI3369
aI2230
aI211
aI1257
aI2185
aI4948
aI63765
asg6
S'In August 2007 the IAEA announced that Iran has agreed to a plan to resolve key questions regarding its past nuclear activities .'
p11
ss.