(dp1
S'input'
p2
(dp3
S'encoded'
p4
(lp5
I64
aI2179
aI394
aI4325
aI2042
aI270
aI89
aI11605
aI3324
asS'ori'
p6
S'This house would fund education using a voucher scheme'
p7
ssS'output'
p8
(dp9
g4
(lp10
I80
aI186
aI63
aI691
aI3862
aI19
aI5026
aI5743
aI49
aI9358
aI3573
aI658
aI4364
aI2240
aI4662
aI256
aI394
aI501
aI132
aI4358
aI45
aI13521
aI864
aI7
aI6730
aI4364
aI5
aI12015
aI89
aI1796
aI2042
aI58
aI6481
aI3
aI546
aI45
aI4358
aI5
aI271
aI8532
aI99
aI2240
aI5725
aI63765
asg6
S'Others argue that since children from impoverished families almost exclusively attend public schools  school choice programs would allow these students to opt out of bad schools and acquire a better education  thereby granting the decision-making power to students and their parents  not school administrators .'
p11
ss.