(dp1
S'input'
p2
(dp3
S'encoded'
p4
(lp5
I64
aI2179
aI394
aI2017
aI223
aI9058
aI23653
asS'ori'
p6
S'This house would ban all unsustainable logging'
p7
ssS'output'
p8
(dp9
g4
(lp10
I8254
aI1379
aI427
aI238
aI14
aI2394
aI63765
asg6
S'Forest Day 5 took place on 4 December 2011 .'
p11
ss.