(dp1
S'input'
p2
(dp3
S'encoded'
p4
(lp5
I64
aI2179
aI394
aI163
aI959
aI2042
aI3557
asS'ori'
p6
S'This house would make physical education compulsory'
p7
ssS'output'
p8
(dp9
g4
(lp10
I273
aI55
aI12
aI51
aI317
aI24
aI2068
aI2439
aI63
aI11183
aI11786
aI5
aI444
aI589
aI3
aI11173
aI3498
aI89
aI595
aI3217
aI2038
aI63765
asg6
S'There has been an acceptance in recent years that abdominal fat and weight around the abdomen constitute a greater health risk  .'
p11
ss.