(dp1
S'input'
p2
(dp3
S'encoded'
p4
(lp5
I64
aI2179
aI13605
aI2258
aI45
aI2194
asS'ori'
p6
S'This house prefers trade to aid'
p7
ssS'output'
p8
(dp9
g4
(lp10
I11551
aI45
aI64
aI5513
aI116
aI7871
aI75
aI3
aI2148
aI2258
aI1412
aI193
aI5224
aI5
aI7166
aI13716
aI45
aI3709
aI975
aI63
aI3
aI5513
aI116
aI5898
aI75
aI2751
aI2748
aI24
aI3
aI285
aI2576
aI145
aI63318
aI1647
aI5
aI3462
aI3
aI2902
aI63
aI2362
aI463
aI6372
aI24
aI3
aI4849
aI9449
aI7
aI3
aI285
aI52
aI63765
asg6
S'Adherence to this pledge is monitored by the Global Trade Alert providing up-to-date information and informed commentary to help ensure that the G20 pledge is met by maintaining confidence in the world trading system  detering beggar-thy-neighbour acts  and preserving the contribution that exports could play in the future recovery of the world economy .'
p11
ss.