(dp1
S'input'
p2
(dp3
S'encoded'
p4
(lp5
I64
aI2179
aI43
aI63
aI3
aI4538
aI7
aI4434
aI7793
aI283
aI45
aI3586
aI417
aI316
aI577
asS'ori'
p6
S'This house believes that the sale of violent video games to minors should be banned'
p7
ssS'output'
p8
(dp9
g4
(lp10
I378
aI24
aI1485
aI3
aI4706
aI7
aI3
aI2961
aI5
aI3953
aI182
aI2398
aI3365
aI45
aI63
aI7
aI3
aI30702
aI2426
aI193
aI2857
aI96
aI45
aI3
aI3904
aI128
aI63765
asg6
S'However  in practice the ethics of the press and television are closely related to that of the hegemonic establishment  providing vital support to the existing order .'
p11
ss.