(dp1
S'input'
p2
(dp3
S'encoded'
p4
(lp5
I64
aI2179
aI394
aI5370
aI3
aI5286
asS'ori'
p6
S'This house would abolish the monarchy'
p7
ssS'output'
p8
(dp9
g4
(lp10
I3
aI8
aI6437
aI7
aI6438
aI5
aI2586
aI60
aI3
aI6439
aI7
aI3
aI28
aI5286
aI75
aI3
aI4679
aI7
aI180
aI24
aI1688
aI75
aI3
aI1560
aI2232
aI7
aI5
aI3
aI4169
aI2232
aI7
aI63765
asg6
S'The modern resurgence of parliamentarism and anti-monarchism began with the overthrow of the English monarchy by the Parliament of England in 1649  followed by the American Revolution of 1776 and the French Revolution of 1792 .'
p11
ss.