(dp1
S'input'
p2
(dp3
S'encoded'
p4
(lp5
I64
aI2179
aI394
aI5370
aI223
aI4013
aI10440
aI2446
aI4881
aI75
aI14482
aI11004
asS'ori'
p6
S'This house would abolish all collective bargaining rights claimed by trades unions'
p7
ssS'output'
p8
(dp9
g4
(lp10
I64
aI122
aI97
aI998
aI24
aI92
aI3
aI23843
aI2385
aI45
aI11955
aI3
aI23831
aI63765
asg6
S'This was another way in which the AFL helped to destroy the Knights .'
p11
ss.