(dp1
S'input'
p2
(dp3
S'encoded'
p4
(lp5
I64
aI2179
aI43
aI17
aI4941
aI857
aI3211
asS'ori'
p6
S'This house believes social deprivation causes crime'
p7
ssS'output'
p8
(dp9
g4
(lp10
I89
aI696
aI7
aI7990
aI2438
aI24
aI3
aI2258
aI7
aI41727
aI1445
aI3226
aI24
aI14014
aI7500
aI92
aI182
aI5501
aI45
aI3217
aI5
aI2885
aI60559
aI75
aI5462
aI182
aI2056
aI4450
aI2930
aI958
aI138
aI9256
aI6449
aI696
aI7
aI8114
aI5
aI2410
aI116
aI2056
aI10256
aI14
aI51
aI2409
aI6684
aI63765
asg6
S'A number of qualitative changes in the trade of counterfeit products:a large increase in fake goods which are dangerous to health and safety;most products repossessed by authorities are now household items rather than luxury goods;a growing number of technological products; and production is now operated on an industrial scale  .'
p11
ss.