(dp1
S'input'
p2
(dp3
S'encoded'
p4
(lp5
I64
aI2179
aI43
aI63
aI3
aI4538
aI7
aI4434
aI7793
aI283
aI45
aI3586
aI417
aI316
aI577
asS'ori'
p6
S'This house believes that the sale of violent video games to minors should be banned'
p7
ssS'output'
p8
(dp9
g4
(lp10
I8536
aI3900
aI7025
aI139
aI19578
aI3
aI2234
aI7
aI17
aI4764
aI950
aI1587
aI34
aI1343
aI45
aI7817
aI3
aI10584
aI7
aI80
aI63765
asg6
S'Abusive home environments can inhibit the growth of social cognitive skills needed  for example  to understand the intentions of others  .'
p11
ss.