(dp1
S'input'
p2
(dp3
S'encoded'
p4
(lp5
I64
aI2179
aI43
aI63
aI3
aI28431
aI7
aI2157
aI4624
aI75
aI39939
aI27257
aI122
aI4850
asS'ori'
p6
S'This house believes that the leaking of military documents by Anat Kamm was justified'
p7
ssS'output'
p8
(dp9
g4
(lp10
I413
aI742
aI63
aI3
aI4445
aI257
aI134
aI3019
aI45
aI9925
aI29130
aI394
aI3742
aI516
aI2474
aI5
aI1545
aI3
aI3889
aI260
aI98
aI1068
aI45
aI454
aI2157
aI2208
aI3
aI658
aI98
aI1068
aI5224
aI45
aI707
aI720
aI189
aI5
aI3
aI1637
aI291
aI3
aI267
aI116
aI29131
aI330
aI45
aI3960
aI63765
asg6
S'Time said that the administration  if it failed to convict Morison  would seek additional legislation and described the ongoing conflict: "The Government does need to protect military secrets  the public does need information to judge defense policies  and the line between the two is surpassingly difficult to draw .'
p11
ss.