(dp1
S'input'
p2
(dp3
S'encoded'
p4
(lp5
I64
aI2179
aI235
aI3
aI2136
aI7
aI3
aI2306
aI7
aI2390
asS'ori'
p6
S'This house supports the one-child policy of the republic of China'
p7
ssS'output'
p8
(dp9
g4
(lp10
I3269
aI7511
aI55
aI136
aI138
aI2291
aI5
aI4828
aI4699
aI55
aI3722
aI994
aI63765
asg6
S'Life expectancy has more than doubled  and infant mortality has dropped significantly .'
p11
ss.