(dp1
S'input'
p2
(dp3
S'encoded'
p4
(lp5
I64
aI2179
aI43
aI63
aI2157
aI2565
aI493
aI19084
aI382
aI4850
asS'ori'
p6
S"This house believes that Israel's 2008-2009 military operations against Gaza were justified"
p7
ssS'output'
p8
(dp9
g4
(lp10
I2800
aI3601
aI3531
aI905
aI10577
aI63
aI9792
aI4693
aI73
aI3192
aI165
aI7
aI3
aI350
aI2396
aI24
aI6056
aI260
aI905
aI19
aI492
aI14
aI3
aI93
aI1070
aI5
aI14
aI3
aI248
aI1070
aI3092
aI14600
aI25061
aI75
aI19084
aI5726
aI63765
asg6
S"UN Watch criticized Goldstone's report methodologies that allegedly dismissed or ignored much of the evidence provided in Israeli Government report from July 2009 on the one hand and on the other hand endorsed unquestionably testimonies by Gaza officials  ."
p11
ss.