(dp1
S'input'
p2
(dp3
S'encoded'
p4
(lp5
I64
aI2179
aI394
aI2017
aI262
asS'ori'
p6
S'This house would ban boxing'
p7
ssS'output'
p8
(dp9
g4
(lp10
I8
aI1801
aI28300
aI7985
aI12242
aI182
aI570
aI45
aI3
aI6000
aI6085
aI277
aI266
aI7
aI54923
aI5
aI501
aI89
aI1699
aI1051
aI7
aI15
aI535
aI5
aI1778
aI8008
aI63765
asg6
S'Modern mixed martial arts competitions are similar to the historic Greek Olympic sport of pankration and allow a wide range of both striking and grappling techniques .'
p11
ss.