(dp1
S'input'
p2
(dp3
S'encoded'
p4
(lp5
I64
aI2179
aI43
aI63
aI3
aI21
aI45
aI12715
aI417
aI99
aI316
aI2897
asS'ori'
p6
S'This house believes that the right to asylum should not be absolute'
p7
ssS'output'
p8
(dp9
g4
(lp10
I366
aI9227
aI3
aI16631
aI2029
aI736
aI70
aI2164
aI42181
aI742
aI24
aI89
aI2381
aI63
aI5
aI9745
aI493
aI5307
aI47
aI99
aI9138
aI3
aI251
aI1404
aI75
aI3
aI16
aI58
aI174
aI10993
aI15785
aI3
aI7
aI4933
aI5
aI493
aI5307
aI24
aI643
aI2138
asg6
S'After signing the 2009 amnesty bill into law  President Lula said  in a speech  that "repression and intolerance against immigrants will not solve the problems caused by the economic crisis"  thereby also harshly criticizing the "policy of discrimination and prejudice" against immigrants in developed nations'
p11
ss.