(dp1
S'input'
p2
(dp3
S'encoded'
p4
(lp5
I64
aI2179
aI43
aI63
aI3
aI4538
aI7
aI4434
aI7793
aI283
aI45
aI3586
aI417
aI316
aI577
asS'ori'
p6
S'This house believes that the sale of violent video games to minors should be banned'
p7
ssS'output'
p8
(dp9
g4
(lp10
I233
aI45
aI16655
aI5
aI38985
aI42349
aI5
aI29067
aI3
aI696
aI7
aI2992
aI14
aI283
aI5
aI2617
aI116
aI1488
aI5
aI3
aI2041
aI861
aI19
aI9066
aI10577
aI92
aI1453
aI419
aI207
aI45
aI4203
aI89
aI839
aI3063
asg6
S'According to Flew and Humphreys  Freedman (2001) and Goldstein (2001) the number of studies on games and violence is small and the research suffers from flawed methodologies which do very little to prove a direct link '
p11
ss.