(dp1
S'input'
p2
(dp3
S'encoded'
p4
(lp5
I64
aI2179
aI13605
aI2258
aI45
aI2194
asS'ori'
p6
S'This house prefers trade to aid'
p7
ssS'output'
p8
(dp9
g4
(lp10
I132
aI1074
aI192
aI717
aI2752
aI159
aI41
aI2135
aI839
aI7243
aI5
aI16250
aI7243
aI63765
asg6
S'These include market based flows such as foreign direct investments and portfolio investments .'
p11
ss.