(dp1
S'input'
p2
(dp3
S'encoded'
p4
(lp5
I64
aI2179
aI394
aI117
aI7428
aI21151
aI34
aI11389
aI2042
aI24
aI4364
asS'ori'
p6
S'This house would only teach abstinence for sex education in schools'
p7
ssS'output'
p8
(dp9
g4
(lp10
I1706
aI63
aI3
aI15092
aI99
aI3226
aI2363
aI7
aI2613
aI475
aI73
aI16620
aI6809
aI7
aI2835
aI3646
aI98
aI134
aI296
aI24
aI166
aI2722
aI7
aI2083
aI2613
aI13675
aI3211
asg6
S'Further that the facilitates "does not increase levels of drug use or risky patterns of consumption  nor does it result in higher rates of local drug acquisition crime ."'
p11
ss.