(dp1
S'input'
p2
(dp3
S'encoded'
p4
(lp5
I64
aI2179
aI43
aI63
aI2659
aI417
aI1690
aI3
aI12048
aI7
aI19084
asS'ori'
p6
S'This house believes that Israel should lift the blockade of Gaza'
p7
ssS'output'
p8
(dp9
g4
(lp10
I3313
aI378
aI3829
aI60
aI61
aI3313
aI513
aI1160
aI7
aI285
aI116
aI4807
aI21233
aI131
aI63
aI26494
aI2206
aI19
aI17113
aI89
aI2136
aI63765
asg6
S'She  however  disagreed with what she considered Netanyahu\'s lack of policy: "The world is certainly hypocritical  but that doesn\'t absolve us from forming a policy .'
p11
ss.