(dp1
S'input'
p2
(dp3
S'encoded'
p4
(lp5
I64
aI2179
aI43
aI63
aI134
aI116
aI400
aI21
aI34
aI3
aI260
aI45
aI3439
aI57
aI7
aI2381
asS'ori'
p6
S'This house believes that it is sometimes right for the government to restrict freedom of speech'
p7
ssS'output'
p8
(dp9
g4
(lp10
I4057
aI39144
aI13998
aI39145
aI116
aI1047
aI34
aI3593
aI77
aI1367
aI81
aI3470
aI39146
aI1191
aI93
aI7
aI732
aI10530
aI19
aI27081
aI351
aI7
aI732
aI248
aI10530
aI63765
asg6
S'Hollywood publicist Pat Kingsley is known for banning certain writers who wrote undesirably about one of her clients from interviewing any of her other clients .'
p11
ss.