(dp1
S'input'
p2
(dp3
S'encoded'
p4
(lp5
I64
aI2179
aI394
aI2998
aI3
aI4360
aI7
aI3249
aI6804
aI24
aI3
aI102
asS'ori'
p6
S'This house would encourage the creation of private universities in the UK'
p7
ssS'output'
p8
(dp9
g4
(lp10
I3
aI863
aI281
aI1948
aI7
aI10252
aI182
aI902
aI36548
aI4758
aI3393
aI12521
aI5
aI6035
aI7
aI11898
aI63765
asg6
S'The five major parts of admission are ACT/SAT scores  GPA  College Application  Essay  and Letters of Recommendation  .'
p11
ss.