(dp1
S'input'
p2
(dp3
S'encoded'
p4
(lp5
I64
aI2179
aI43
aI8629
aI116
aI3
aI117
aI998
asS'ori'
p6
S'This house believes atheism is the only way'
p7
ssS'output'
p8
(dp9
g4
(lp10
I257
aI24
aI68
aI3
aI7209
aI7
aI6029
aI182
aI773
aI3432
aI1706
aI5
aI1706
aI611
aI63
aI116
aI6244
aI45
aI316
aI3
aI768
aI5480
aI116
aI773
aI3432
aI611
aI60
aI86
aI5
aI116
aI3082
aI14234
aI24
aI15712
aI63765
asg6
S'If in fact the frontiers of knowledge are being pushed further and further back (and that is bound to be the case)  then God is being pushed back with them  and is therefore continually in retreat .'
p11
ss.