(dp1
S'input'
p2
(dp3
S'encoded'
p4
(lp5
I64
aI2179
aI394
aI2741
aI3
aI1560
aI6025
aI2784
asS'ori'
p6
S'This house would pass the American Jobs Act'
p7
ssS'output'
p8
(dp9
g4
(lp10
I3
aI433
aI116
aI45
aI3165
aI2155
aI7
aI3
aI137
aI14
aI2042
aI45
aI8731
aI3592
aI45
aI2363
aI131
aI3
aI9612
aI45
aI9385
aI10
aI5088
aI7
aI2419
aI311
aI2363
aI182
aI2604
aI5
aI5500
aI6278
aI45
aI2976
aI63765
asg6
S'The Governor is "Required" to spend $45 billion of the money on education to restore funding to 2008 levels but the mechanisms to enforce state maintenance of effort at 2005-06 levels are complex and potentially impossible to implement  .'
p11
ss.