(dp1
S'input'
p2
(dp3
S'encoded'
p4
(lp5
I64
aI2179
aI43
aI63
aI1036
aI4828
aI33250
aI116
aI25073
aI45
aI3315
aI4562
asS'ori'
p6
S'This house believes that male infant circumcision is tantamount to child abuse'
p7
ssS'output'
p8
(dp9
g4
(lp10
I3
aI2016
aI122
aI1016
aI298
aI117
aI5332
aI60
aI443
aI2231
aI7
aI33288
aI382
aI2100
aI5
aI3
aI12716
aI3041
aI63
aI3
aI920
aI782
aI7
aI33250
aI88
aI316
aI24954
aI24
aI1445
aI759
aI75
aI33288
aI63765
asg6
S'The association was reduced when only subjects with no history of phimosis were included  and the authors concluded that the protective effect of circumcision may be mediated in large part by phimosis  .'
p11
ss.