(dp1
S'input'
p2
(dp3
S'encoded'
p4
(lp5
I64
aI2179
aI394
aI15841
aI2736
asS'ori'
p6
S'This house would disband ASEAN'
p7
ssS'output'
p8
(dp9
g4
(lp10
I233
aI45
aI3
aI3727
aI3
aI2175
aI7
aI16
aI12997
aI394
aI7919
aI1466
aI5945
aI24
aI3
aI2308
aI5
aI394
aI521
aI5806
aI7
aI26445
aI45
aI523
aI271
aI6025
aI63765
asg6
S'According to the activists  the agenda of economic integration would negatively affect industries in the Philippines and would cause thousands of Filipinos to lose their jobs  .'
p11
ss.