(dp1
S'input'
p2
(dp3
S'encoded'
p4
(lp5
I64
aI2179
aI394
aI1499
aI3
aI8115
aI34564
aI17106
asS'ori'
p6
S'This house would build the Keystone XL pipeline'
p7
ssS'output'
p8
(dp9
g4
(lp10
I5
aI2597
aI6684
aI8043
aI24
aI3
aI320
aI2569
aI11240
aI63765
asg6
S'and larger scale exploitation in the early planning phase  .'
p11
ss.