(dp1
S'input'
p2
(dp3
S'encoded'
p4
(lp5
I64
aI2179
aI43
aI63
aI2157
aI2565
aI493
aI19084
aI382
aI4850
asS'ori'
p6
S"This house believes that Israel's 2008-2009 military operations against Gaza were justified"
p7
ssS'output'
p8
(dp9
g4
(lp10
I292
aI6056
aI30431
aI14
aI16619
aI19160
aI5
aI11995
aI1589
aI768
aI3178
aI863
aI16619
aI455
aI63765
asg6
S'Three Israeli airstrikes on Hamas mortar and rocket positions then killed five Hamas fighters .'
p11
ss.