(dp1
S'input'
p2
(dp3
S'encoded'
p4
(lp5
I64
aI2179
aI43
aI63
aI820
aI12564
aI182
aI3
aI217
aI1112
aI1869
aI7
aI10656
aI4672
aI34
aI5276
asS'ori'
p6
S'This house believes that open primaries are the most effective method of selecting candidates for elections'
p7
ssS'output'
p8
(dp9
g4
(lp10
I2490
aI3
aI5086
aI524
aI34
aI223
aI4672
aI63
aI11
aI89
aI2490
aI3
aI151
aI524
aI34
aI223
aI4672
aI63
aI11
aI89
aI2490
aI351
aI2755
aI34
aI89
aI10484
aI60
aI89
aI1683
aI5125
aI45
aI3
aI582
aI63765
asg6
S'Vote the maximum points for all candidates that have a higher-than-average utility; vote the minimum points for all candidates that have a lower-than-average utility; vote any value for a candidate with a utility equal to the average .'
p11
ss.