(dp1
S'input'
p2
(dp3
S'encoded'
p4
(lp5
I64
aI2179
aI43
aI63
aI187
aI417
aI99
aI16642
aI3
aI6449
aI7
aI3935
asS'ori'
p6
S'This house believes that states should not subsidize the growing of tobacco'
p7
ssS'output'
p8
(dp9
g4
(lp10
I64
aI55
aI891
aI24
aI89
aI1720
aI157
aI7
aI14833
aI1761
aI5
aI21387
aI19
aI223
aI289
aI3
aI285
aI63765
asg6
S'This has resulted in a staggering variety of smoking tools and paraphernalia from all over the world .'
p11
ss.