(dp1
S'input'
p2
(dp3
S'encoded'
p4
(lp5
I64
aI2179
aI394
aI190
aI3
aI21
aI45
aI3895
aI834
asS'ori'
p6
S'This house would limit the right to bear arms'
p7
ssS'output'
p8
(dp9
g4
(lp10
I3
aI2471
aI3357
aI3613
aI75
aI2248
aI3765
aI227
aI3173
aI7
aI3
aI2471
aI976
aI3702
aI1265
aI64
aI752
aI63765
asg6
S'The majority opinion  authored by Justice Scalia  gives explanation of the majority legal reasoning behind this decision  .'
p11
ss.