(dp1
S'input'
p2
(dp3
S'encoded'
p4
(lp5
I64
aI2179
aI43
aI63
aI2157
aI2565
aI493
aI19084
aI382
aI4850
asS'ori'
p6
S"This house believes that Israel's 2008-2009 military operations against Gaza were justified"
p7
ssS'output'
p8
(dp9
g4
(lp10
I487
aI3
aI19084
aI905
aI155
aI3019
aI45
aI6261
aI3
aI12073
aI7
aI11994
aI5
aI19289
aI311
aI6056
aI2224
aI4367
aI63765
asg6
S'Until the Gaza Report they failed to condemn the firing of rockets and mortars at Israeli civilian centers .'
p11
ss.