(dp1
S'input'
p2
(dp3
S'encoded'
p4
(lp5
I64
aI2179
aI43
aI63
aI6670
aI546
aI417
aI316
aI89
aI1334
aI3108
aI7
aI4849
aI1886
aI2855
asS'ori'
p6
S'This house believes that wind power should be a primary focus of future energy supply'
p7
ssS'output'
p8
(dp9
g4
(lp10
I34
aI6670
aI1886
aI3
aI2386
aI2170
aI1629
aI1074
aI4537
aI10577
aI5
aI2760
aI136
aI9100
aI5
aI5117
aI6670
aI5109
aI45
aI3226
aI3
aI5084
aI9049
aI7
aI6670
aI1886
aI63765
asg6
S'For wind energy  the specific goals set include  "improving design methodologies and developing more reliable and efficient wind turbines to increase the cost competitiveness of wind energy .'
p11
ss.