(dp1
S'input'
p2
(dp3
S'encoded'
p4
(lp5
I64
aI2179
aI394
aI2017
aI628
asS'ori'
p6
S'This house would ban gambling'
p7
ssS'output'
p8
(dp9
g4
(lp10
I628
aI116
aI2056
aI89
aI4066
aI11443
aI5
aI9618
aI5938
asg6
S'Gambling is now a diverse  vibrant and innovative industry'
p11
ss.