(dp1
S'input'
p2
(dp3
S'encoded'
p4
(lp5
I64
aI2179
aI43
aI63
aI187
aI417
aI99
aI16642
aI3
aI6449
aI7
aI3935
asS'ori'
p6
S'This house believes that states should not subsidize the growing of tobacco'
p7
ssS'output'
p8
(dp9
g4
(lp10
I1715
aI18998
aI11192
aI809
aI536
aI7
aI3
aI626
aI2138
aI2891
aI2326
aI2845
aI63
aI6677
aI10400
aI5084
aI1376
aI2203
aI1191
aI2155
aI89
aI3569
aI24
aI6196
aI7408
aI63765
aI116
aI3
aI4901
aI14613
aI7
aI2148
aI2258
aI53
aI3
aI3912
aI8896
aI2155
aI89
aI3569
aI14
aI1771
aI211
aI6678
aI60
aI89
aI2923
aI7
aI10400
aI5
aI2358
aI63
aI5136
aI2760
aI2203
aI1191
aI2155
aI24
aI1718
aI6196
aI7408
aI2362
aI63765
aI17221
aI2155
aI2666
aI116
aI3
aI4968
aI7
aI126
aI7
aI2891
aI115
asg6
S'Mark Malloch Brown  former head of the United Nations Development Program  estimated that farm subsidies cost poor countries about US$50 billion a year in lost agricultural exports:  .   "It is the extraordinary distortion of global trade  where the West spends $360 billion a year on protecting its agriculture with a network of subsidies and tariffs that costs developing countries about US$50 billion in potential lost agricultural exports . Fifty billion dollars is the equivalent of today\'s level of development assistance ."'
p11
ss.