(dp1
S'input'
p2
(dp3
S'encoded'
p4
(lp5
I64
aI2179
aI394
aI2773
aI12505
asS'ori'
p6
S'This house would embrace multiculturalism'
p7
ssS'output'
p8
(dp9
g4
(lp10
I75
aI6466
aI703
aI45
aI3802
aI291
aI132
aI3136
aI5
aI3
aI2471
aI3
aI260
aI88
aI2187
aI4120
aI1636
aI86
aI75
aI3
aI2471
aI5
aI24
aI4031
aI521
aI3
aI15871
aI94
aI45
aI4031
aI41512
aI5
aI9775
aI8277
aI3905
aI63765
asg6
S'By calling attention to differences between these groups and the majority  the government may foster resentment towards them by the majority and  in turn  cause the immigrant group to turn inward and shun mainstream culture .'
p11
ss.