(dp1
S'input'
p2
(dp3
S'encoded'
p4
(lp5
I64
aI2179
aI394
aI1499
aI177
aI1819
aI34
aI160
asS'ori'
p6
S'This house would build high rises for housing'
p7
ssS'output'
p8
(dp9
g4
(lp10
I64
aI1179
aI60
aI869
aI24718
aI5
aI7246
aI3
aI2083
aI6203
aI36002
aI5
aI7246
aI3
aI11707
aI6203
aI89
aI4308
aI60
aI100
aI3996
aI7
aI15
aI73
aI24718
aI1598
aI75
aI136
aI8275
aI249
aI159
aI41
aI15930
aI2051
aI15948
aI6761
aI45
aI7013
aI5
aI36026
aI4361
aI63765
asg6
S'This leaves policy-makers with four choices: intensify and accept the local consequences  sprawl and accept the wider consequences  a compromise with some element of both  or intensify accompanied by more radical measures such as parking restrictions  closing roads to traffic and carfree zones .'
p11
ss.