(dp1
S'input'
p2
(dp3
S'encoded'
p4
(lp5
I64
aI2179
aI43
aI63
aI1036
aI4828
aI33250
aI116
aI25073
aI45
aI3315
aI4562
asS'ori'
p6
S'This house believes that male infant circumcision is tantamount to child abuse'
p7
ssS'output'
p8
(dp9
g4
(lp10
I136
aI1991
aI735
aI138
aI1179
aI3
aI33221
aI487
aI51
aI8975
aI116
aI753
aI53
aI51
aI5125
aI2588
aI7
aI1991
aI2752
aI736
aI3
aI16897
aI14994
aI5
aI864
aI7
aI3
aI35996
aI89
aI1299
aI14987
aI5933
aI116
aI1803
aI311
aI64
aI8975
aI63765
asg6
S'More blood enters than leaves the penis until an equilibrium is reached where an equal volume of blood flows into the dilated arteries and out of the constricted veins; a constant erectile size is achieved at this equilibrium .'
p11
ss.