(dp1
S'input'
p2
(dp3
S'encoded'
p4
(lp5
I64
aI2179
aI394
aI5370
aI7146
aI4585
aI2446
asS'ori'
p6
S'This house would abolish intellectual property rights'
p7
ssS'output'
p8
(dp9
g4
(lp10
I2198
aI7
aI7156
aI753
aI51
aI320
aI5031
aI24
aI8235
aI326
aI291
aI5
aI24
aI89
aI4276
aI493
aI37288
aI63
aI135
aI45
aI1409
aI12717
aI183
aI5
aI24
aI3
aI3670
aI7
aI3031
aI8510
aI11519
aI45
aI64
aI1379
aI3
aI8889
aI1978
aI3227
aI493
aI7146
aI1841
aI1102
aI45
aI259
aI7156
aI63765
asg6
S'Criticism of patents reached an early peak in Victorian Britain between 1850 and 1880  in a campaign against patenting that expanded to target copyright too and  in the judgment of historian Adrian Johns  "remains to this day the strongest [campaign] ever undertaken against intellectual property"  coming close to abolishing patents  .'
p11
ss.