(dp1
S'input'
p2
(dp3
S'encoded'
p4
(lp5
I64
aI2179
aI394
aI5284
aI150
aI3987
asS'ori'
p6
S'This house would reintroduce national service'
p7
ssS'output'
p8
(dp9
g4
(lp10
I24
aI1191
aI5605
aI24
aI3
aI2157
aI226
aI3589
aI2224
aI3987
aI73
aI100
aI248
aI399
aI7
aI4834
aI3987
aI63765
asg6
S'In 2005 about 15% served in the military  while 31% performed civilian service or some other form of alternative service .'
p11
ss.