(dp1
S'input'
p2
(dp3
S'encoded'
p4
(lp5
I64
aI2179
aI43
aI63
aI2157
aI2565
aI493
aI19084
aI382
aI4850
asS'ori'
p6
S"This house believes that Israel's 2008-2009 military operations against Gaza were justified"
p7
ssS'output'
p8
(dp9
g4
(lp10
I136
aI138
aI11994
aI382
aI17377
aI19
aI19084
aI736
aI4232
aI2659
aI14
aI63
aI1379
aI63765
asg6
S'More than 20 rockets were fired from Gaza into southern Israel on that day  .'
p11
ss.