(dp1
S'input'
p2
(dp3
S'encoded'
p4
(lp5
I64
aI2179
aI394
aI2773
aI12505
asS'ori'
p6
S'This house would embrace multiculturalism'
p7
ssS'output'
p8
(dp9
g4
(lp10
I42
aI742
aI63
aI3
aI30656
aI7
aI3914
aI5
aI271
aI2446
aI45
aI10008
aI271
aI3910
aI417
aI316
aI3345
aI63765
asg6
S"He said that the distinctiveness of people's identity and their rights to preserve their heritage should be acknowledged  ."
p11
ss.