(dp1
S'input'
p2
(dp3
S'encoded'
p4
(lp5
I64
aI2179
aI394
aI4261
aI8667
aI3
aI9361
aI5
aI17069
asS'ori'
p6
S'This house would prohibit burning the stars and stripes'
p7
ssS'output'
p8
(dp9
g4
(lp10
I3
aI2176
aI7
aI9711
aI2702
aI459
aI3
aI2813
aI4445
aI113
aI7861
aI87
aI938
aI41
aI45
aI4749
aI2083
aI631
aI10437
aI45
aI5004
aI2985
aI7
aI3
aI2223
aI14
aI2459
aI41
aI1718
aI23274
aI777
aI63765
asg6
S'The Department of Homeland Security under the Bush Administration "ha[d] even gone so far as to tell local police departments to regard critics of the War on Terrorism as potential terrorists themselves .'
p11
ss.