(dp1
S'input'
p2
(dp3
S'encoded'
p4
(lp5
I64
aI2179
aI43
aI63
aI3
aI21
aI45
aI12715
aI417
aI99
aI316
aI2897
asS'ori'
p6
S'This house believes that the right to asylum should not be absolute'
p7
ssS'output'
p8
(dp9
g4
(lp10
I257
aI357
aI182
aI45
aI1409
aI147
aI564
aI4680
aI88
aI11
aI4557
aI63765
aI357
aI394
aI1068
aI89
aI419
aI384
aI145
aI7
aI2372
aI2610
aI708
aI138
aI357
aI11
aI311
aI3
aI1798
aI5
aI8069
aI147
aI24
aI128
aI45
aI975
aI63
aI155
aI182
aI56
aI116
aI99
aI2233
aI133
aI51
aI1112
aI3353
aI1862
aI63765
asg6
S'If we are to target individuals whose leave may have expired . .then we would need a very different system of internal immigration control than we have at the moment  and targeting individuals in order to ensure that they are removed is not  I believe  an effective enforcement strategy .'
p11
ss.