(dp1
S'input'
p2
(dp3
S'encoded'
p4
(lp5
I64
aI2179
aI394
aI2741
aI3
aI1560
aI6025
aI2784
asS'ori'
p6
S'This house would pass the American Jobs Act'
p7
ssS'output'
p8
(dp9
g4
(lp10
I64
aI2322
aI2855
aI7
aI7500
aI5
aI3205
aI1298
aI136
aI6941
aI1879
aI7517
aI63765
asg6
S'This increased supply of goods and services requires more workers  increasing employment .'
p11
ss.