(dp1
S'input'
p2
(dp3
S'encoded'
p4
(lp5
I64
aI2179
aI43
aI63
aI3
aI28431
aI7
aI2157
aI4624
aI75
aI39939
aI27257
aI122
aI4850
asS'ori'
p6
S'This house believes that the leaking of military documents by Anat Kamm was justified'
p7
ssS'output'
p8
(dp9
g4
(lp10
I15
aI2201
aI5
aI20429
aI6833
aI45
aI64
aI905
aI41
aI2010
aI350
aI63
aI3
aI786
aI1404
aI75
aI3
aI20346
aI440
aI12
aI20684
aI13187
aI63765
asg6
S'" Both Wikileaks and Greenwald pointed to this report as clear evidence that the danger caused by the leak had been vastly overstated  .'
p11
ss.