(dp1
S'input'
p2
(dp3
S'encoded'
p4
(lp5
I64
aI2179
aI394
aI15841
aI2736
asS'ori'
p6
S'This house would disband ASEAN'
p7
ssS'output'
p8
(dp9
g4
(lp10
I3
aI2736
aI1107
aI6188
aI394
aI501
aI28332
aI45
aI5744
aI223
aI5224
aI3365
aI45
aI3
aI6380
aI45
aI316
aI4012
aI31725
aI374
aI63765
asg6
S'The ASEAN Single Window would allow importers to submit all information related to the transaction to be entered electronically once .'
p11
ss.