(dp1
S'input'
p2
(dp3
S'encoded'
p4
(lp5
I64
aI2179
aI43
aI8629
aI116
aI3
aI117
aI998
asS'ori'
p6
S'This house believes atheism is the only way'
p7
ssS'output'
p8
(dp9
g4
(lp10
I3
aI12521
aI8623
aI17944
aI864
aI55904
aI2342
aI45
aI100
aI7
aI3
aI3384
aI34
aI3
aI3524
aI7
aI5480
aI751
aI7322
aI25
aI3292
aI2342
aI45
aI5711
aI10004
aI63765
asg6
S'The essay briefly lays out Russells objections to some of the arguments for the existence of God before discussing his moral objections to Christian teachings .'
p11
ss.