(dp1
S'input'
p2
(dp3
S'encoded'
p4
(lp5
I64
aI2179
aI43
aI63
aI3
aI4538
aI7
aI4434
aI7793
aI283
aI45
aI3586
aI417
aI316
aI577
asS'ori'
p6
S'This house believes that the sale of violent video games to minors should be banned'
p7
ssS'output'
p8
(dp9
g4
(lp10
I887
aI8578
aI3
aI2038
aI7
aI251
aI122
aI292
aI45
aI869
aI1727
aI166
aI34
aI120
aI81
aI2757
aI4434
aI283
aI14189
aI63765
aI120
aI81
aI2757
aI248
aI283
asg6
S'Among girls  the risk of problems was three to four times higher for those who played violent games vs . those who played other games'
p11
ss.