(dp1
S'input'
p2
(dp3
S'encoded'
p4
(lp5
I64
aI2179
aI13605
aI2258
aI45
aI2194
asS'ori'
p6
S'This house prefers trade to aid'
p7
ssS'output'
p8
(dp9
g4
(lp10
I17911
aI116
aI51
aI3749
aI2018
aI7
aI3
aI23323
aI2014
aI7
aI7800
aI3
aI2014
aI7
aI16
aI2234
aI5
aI7
aI3
aI2014
aI7
aI2891
aI7800
aI63765
asg6
S'Easterly is an associate editor of the Quarterly Journal of Economics  the Journal of Economic Growth  and of the Journal of Development Economics .'
p11
ss.