(dp1
S'input'
p2
(dp3
S'encoded'
p4
(lp5
I64
aI2179
aI43
aI8629
aI116
aI3
aI117
aI998
asS'ori'
p6
S'This house believes atheism is the only way'
p7
ssS'output'
p8
(dp9
g4
(lp10
I10642
aI4453
aI63
aI34647
aI500
aI99
aI14459
aI63
aI3
aI869
aI10055
aI382
aI99
aI311
aI223
aI1420
aI362
aI5
aI63
aI155
aI440
aI5387
aI12716
aI223
aI773
aI441
aI725
aI2467
aI366
aI3
aI8438
aI5
aI7376
aI63
aI155
aI1453
aI99
aI1461
aI14
aI7094
aI63765
aI3
aI7721
aI314
aI5
aI3
aI18476
aI7
aI63765
asg6
S'Hitchens claims that Gibson did not realize that the four Gospels were not at all historical records  and that they had multiple authors  all being written many decades after the Crucifixion  and  moreover  that they do not agree on anything "of importance" (e .g .  the virgin birth and the genealogy of Jesus) .'
p11
ss.