(dp1
S'input'
p2
(dp3
S'encoded'
p4
(lp5
I64
aI2179
aI394
aI2976
aI12243
aI24
aI954
aI126
aI1560
aI10723
asS'ori'
p6
S'This house would implement playoffs in collegiate level American football'
p7
ssS'output'
p8
(dp9
g4
(lp10
I2713
aI2714
aI55
aI13850
aI864
aI24
aI1561
aI7
aI89
aI12247
aI751
aI5
aI366
aI3
aI2145
aI63765
aI2272
aI4168
aI63765
aI14
aI1906
aI24
aI237
aI3625
aI41
aI14077
aI38927
aI7
aI571
aI754
aI3
aI3625
aI60
aI89
aI2802
aI1191
aI3
aI4740
aI63765
aI2714
aI2233
aI1190
aI351
aI7994
aI2007
aI394
aI3943
aI63
aI257
aI5603
aI89
aI38928
aI7
aI4144
aI81
aI6372
aI638
aI3
aI5159
aI5
aI725
aI7
aI86
aI11
aI93
aI852
aI73
aI267
aI7931
aI443
aI2010
aI12974
aI744
aI63
aI357
aI417
aI316
aI1655
aI89
aI12247
aI145
aI63765
aI784
aI4144
aI63765
aI63
aI394
aI316
aI292
aI295
aI45
aI1358
aI89
aI150
aI410
aI63765
aI134
aI394
aI4549
aI292
aI1417
aI3286
aI45
aI3
aI5159
aI63765
aI1198
aI463
aI11258
aI611
aI14
aI3
aI1949
aI5159
aI63765
aI2233
aI3084
aI351
aI2034
aI15029
aI7
aI4758
aI10723
aI81
aI55
aI3829
aI60
aI8316
aI14
aI64
aI63765
aI87
aI32107
aI1393
aI3741
aI444
aI589
aI89
aI207
aI5171
aI63765
aI2233
aI1190
aI3
aI21
aI1963
aI45
aI1453
asg6
S"Barack Obama has spoken out in favor of a playoff  before and after the 2008 U .S . presidential election . On November 18  2008  in Obama's first interview as president-elect  Steve Kroft of 60 Minutes ended the interview with a question about the topic . Obama replied: I think any sensible person would say that if you've got a bunch of teams who play throughout the season  and many of them have one loss or two losses  there's no clear decisive winner that we should be creating a playoff system . Eight teams . That would be three rounds  to determine a national champion . It would add three extra weeks to the season . You could trim back on the regular season . I don't know any serious fan of college football who has disagreed with me on this . So  I'm gonna throw my weight around a little bit . I think it's the right thing to do "
p11
ss.