(dp1
S'input'
p2
(dp3
S'encoded'
p4
(lp5
I64
aI2179
aI43
aI63
aI3357
aI5003
aI652
aI3
aI188
aI3262
asS'ori'
p6
S'This house believes that opinion polls harm the democratic process'
p7
ssS'output'
p8
(dp9
g4
(lp10
I3
aI3357
aI7
aI3
aI5212
aI7768
aI3
aI759
aI7
aI3
aI658
aI3357
aI92
aI139
aI521
aI3
aI10185
aI45
aI142
aI63
aI271
aI3357
aI83
aI316
aI26218
aI63765
asg6
S'The opinion of the instructor plays the part of the public opinion which can cause the student to feel that their opinion must be silenced .'
p11
ss.