(dp1
S'input'
p2
(dp3
S'encoded'
p4
(lp5
I64
aI2179
aI394
aI2773
aI12505
asS'ori'
p6
S'This house would embrace multiculturalism'
p7
ssS'output'
p8
(dp9
g4
(lp10
I2642
aI2383
aI223
aI2610
aI999
aI5
aI3943
aI155
aI11843
aI3739
aI19
aI97
aI2812
aI4304
aI63765
asg6
S'Half want all immigration stopped  and 41% say they distrust anyone from another ethnic background  .'
p11
ss.