(dp1
S'input'
p2
(dp3
S'encoded'
p4
(lp5
I64
aI2179
aI394
aI1499
aI177
aI1819
aI34
aI160
asS'ori'
p6
S'This house would build high rises for housing'
p7
ssS'output'
p8
(dp9
g4
(lp10
I311
aI3
aI1643
aI413
aI3
aI1674
aI673
aI7
aI21862
aI17415
aI3
aI2891
aI7
aI667
aI2955
aI8008
aI159
aI41
aI145
aI1444
aI399
aI7
aI5
aI89
aI6449
aI3984
aI75
aI725
aI3946
aI5
aI385
aI45
aI4593
aI2598
aI508
aI545
aI271
aI284
aI8179
aI138
aI78
aI45
aI667
aI3946
aI5
aI7
aI9446
aI2425
aI45
aI64
aI2823
aI773
aI5839
aI24
aI15172
aI4996
aI2506
aI63765
asg6
S'At the same time the rising influence of modernist architecture  the development of new construction techniques  such as system building (a form of prefabrication)  and a growing desire by many towns and cities to retain population (and thus prestige) within their own boundaries (rather than "export" people to New Towns and "out of boundary" peripheral estates) led to this model being abandoned in Britain\'s inner city areas .'
p11
ss.