(dp1
S'input'
p2
(dp3
S'encoded'
p4
(lp5
I64
aI2179
aI43
aI63
aI3
aI4990
aI4991
aI116
aI4850
aI24
aI12166
aI3
aI475
aI7
aI3532
aI3290
aI7
aI4714
asS'ori'
p6
S'This house believes that the Catholic Church is justified in forbidding the use of barrier methods of contraception'
p7
ssS'output'
p8
(dp9
g4
(lp10
I155
aI11
aI12
aI8117
aI45
aI316
aI1112
aI24
aI200
aI7446
aI2722
aI24
aI15
aI1980
aI5
aI3495
aI63765
asg6
S'They have been shown to be effective in reducing infection rates in both men and women .'
p11
ss.