(dp1
S'input'
p2
(dp3
S'encoded'
p4
(lp5
I64
aI2179
aI394
aI163
aI959
aI2042
aI3557
asS'ori'
p6
S'This house would make physical education compulsory'
p7
ssS'output'
p8
(dp9
g4
(lp10
I64
aI4839
aI1794
aI24
aI4350
aI19
aI477
aI116
aI93
aI7
aI3
aI1277
aI7031
aI3802
aI291
aI1337
aI12349
aI5
aI3
aI2597
aI2598
aI63765
asg6
S'This genetic variation in improvement from training is one of the key physiological differences between elite athletes and the larger population  .'
p11
ss.