(dp1
S'input'
p2
(dp3
S'encoded'
p4
(lp5
I64
aI2179
aI394
aI60
aI23587
asS'ori'
p6
S'This house would re-engage with Myanmar'
p7
ssS'output'
p8
(dp9
g4
(lp10
I89
aI3048
aI3364
aI75
aI12708
aI10162
aI24
aI387
aI47
aI1629
aI89
aI50674
aI34
aI2250
aI5
aI96
aI3
aI78
aI7
aI23587
aI620
aI3
aI7147
aI63765
asg6
S'A worldwide action by bloggers originating in Italy will set a signpost for peace and support the people of Myanmar through the internet .'
p11
ss.