(dp1
S'input'
p2
(dp3
S'encoded'
p4
(lp5
I64
aI2179
aI43
aI17
aI4941
aI857
aI3211
asS'ori'
p6
S'This house believes social deprivation causes crime'
p7
ssS'output'
p8
(dp9
g4
(lp10
I2204
aI12605
aI63765
aI17028
aI6833
aI864
aI63
aI351
aI17
aI3665
aI55
aI5371
aI63
aI182
aI136
aI1178
aI138
aI80
aI63765
asg6
S'Robert K . Merton (19102003) pointed out that any social structure has functions that are more obvious than others  .'
p11
ss.