(dp1
S'input'
p2
(dp3
S'encoded'
p4
(lp5
I64
aI2179
aI43
aI63
aI3
aI28431
aI7
aI2157
aI4624
aI75
aI39939
aI27257
aI122
aI4850
asS'ori'
p6
S'This house believes that the leaking of military documents by Anat Kamm was justified'
p7
ssS'output'
p8
(dp9
g4
(lp10
I1592
aI89
aI3361
aI34
aI89
aI22836
aI14
aI3
aI759
aI7
aI4290
aI12468
aI4135
aI15865
aI2164
aI2029
aI2172
aI11204
aI29130
aI14
aI425
aI3
aI1447
aI1379
aI7
aI25
aI5367
aI653
aI3
aI3609
aI45
aI3
aI22836
aI63765
asg6
S"Following a 1998 appeal for a pardon on the part of Senator Daniel Patrick Moynihan  President Bill Clinton pardoned Morison on January 20  2001  the last day of his presidency  despite the CIA's opposition to the pardon  ."
p11
ss.