(dp1
S'input'
p2
(dp3
S'encoded'
p4
(lp5
I64
aI2179
aI394
aI5370
aI223
aI4013
aI10440
aI2446
aI4881
aI75
aI14482
aI11004
asS'ori'
p6
S'This house would abolish all collective bargaining rights claimed by trades unions'
p7
ssS'output'
p8
(dp9
g4
(lp10
I64
aI23939
aI7982
aI5
aI477
aI47
aI316
aI3
aI3290
aI7
aI3
aI6663
aI63765
asg6
S'This self-imposed drill  discipline and training will be the methods of the O .'
p11
ss.