(dp1
S'input'
p2
(dp3
S'encoded'
p4
(lp5
I64
aI2179
aI43
aI63
aI6670
aI546
aI417
aI316
aI89
aI1334
aI3108
aI7
aI4849
aI1886
aI2855
asS'ori'
p6
S'This house believes that wind power should be a primary focus of future energy supply'
p7
ssS'output'
p8
(dp9
g4
(lp10
I2880
aI11913
aI2755
aI8126
aI1495
aI2835
aI55978
aI6712
aI1394
aI4204
aI5085
aI22920
aI5092
aI7801
aI16674
aI7371
aI2881
aI105
aI60
aI6923
aI697
aI1495
aI582
aI4204
aI63765
asg6
S'Gas & Liquid Fuels) Value Chain - Water Consumption  LCA Emission intensity & Capacity factor Feedstock / Fuel / Resource Raw Material ProductionL/MWh[L/GJ] Fermentation/ Processing/RefiningL/MWh[L/GJ] Electricity generation with Closed-loop Cooling Total Water ConsumptionL/MWh CO2-eqkg/MWhe SO2kg/MWh NOxkg/MWh H2Skg/MWh Particulatekg/MWh Cdmg/MWh Hgmg/MWh On-Site Accidentsdeaths/TWyr Average Capacity Factor% .'
p11
ss.