(dp1
S'input'
p2
(dp3
S'encoded'
p4
(lp5
I64
aI2179
aI43
aI63
aI2157
aI2565
aI493
aI19084
aI382
aI4850
asS'ori'
p6
S"This house believes that Israel's 2008-2009 military operations against Gaza were justified"
p7
ssS'output'
p8
(dp9
g4
(lp10
I31265
aI174
aI4292
aI725
aI7
aI3
aI2997
aI221
aI75
aI3
aI6054
aI45
aI1476
aI6606
aI960
aI1710
aI3180
aI869
aI315
aI4149
aI45
aI4680
aI9274
aI2506
aI7283
aI289
aI31078
aI1609
aI289
aI7467
aI62
aI45
aI19088
aI3941
aI24
aI19084
aI16802
aI30431
aI53
aI3
aI2038
aI7
aI6606
aI960
aI394
aI316
aI183
aI325
aI5
aI1443
aI5619
aI1183
aI7
aI2893
aI2194
aI45
aI19084
aI311
aI2038
aI45
aI777
aI63765
asg6
S'Kemp also highlighted many of the efforts made by the IDF to reduce collateral damage including; Giving civilians four hour notice to leave targeted areas  dropping over 900 000 leaflets  making over 30 000 phone calls to Palestinian households in Gaza  aborting airstrikes where the risk of collateral damage would be too great and allowing huge amounts of humanitarian aid to Gaza  at risk to themselves  .'
p11
ss.