(dp1
S'input'
p2
(dp3
S'encoded'
p4
(lp5
I64
aI2179
aI394
aI1499
aI177
aI1819
aI34
aI160
asS'ori'
p6
S'This house would build high rises for housing'
p7
ssS'output'
p8
(dp9
g4
(lp10
I15227
aI3
aI2546
aI4996
aI24
aI181
aI116
aI5810
aI45
aI11698
aI3
aI2810
aI5232
aI7
aI4475
aI1693
aI24
aI3
aI102
aI1202
aI1074
aI3
aI39234
aI2682
aI1693
aI24
aI3
aI39235
aI3
aI1693
aI24
aI35912
aI5
aI3
aI4156
aI4566
aI24
aI3
aI874
aI2087
aI63765
asg6
S"Glasgow  the largest city in Scotland  is believed to contain the highest concentration of tower blocks in the UK - examples include the Hutchesontown C blocks in the Gorbals  the 20-storey blocks in Sighthill  and the 31-storey Red Road (flats) in the city's north east ."
p11
ss.