(dp1
S'input'
p2
(dp3
S'encoded'
p4
(lp5
I64
aI2179
aI394
aI5370
aI7146
aI4585
aI2446
asS'ori'
p6
S'This house would abolish intellectual property rights'
p7
ssS'output'
p8
(dp9
g4
(lp10
I24
aI208
aI61
aI93
aI15934
aI116
aI99
aI3
aI4514
aI131
aI3
aI2755
aI7
aI3
aI4514
aI63765
asg6
S'In essence  what one owns is not the object but the value of the object .'
p11
ss.