(dp1
S'input'
p2
(dp3
S'encoded'
p4
(lp5
I64
aI2179
aI43
aI63
aI2157
aI2565
aI493
aI19084
aI382
aI4850
asS'ori'
p6
S"This house believes that Israel's 2008-2009 military operations against Gaza were justified"
p7
ssS'output'
p8
(dp9
g4
(lp10
I3
aI4169
aI2135
aI5496
aI263
aI3
aI7279
aI3611
aI75
aI3
aI905
aI5
aI13031
aI7
aI27555
aI703
aI63765
asg6
S'" The French foreign ministry called the facts revealed by the report "extremely serious" and deserving of utmost attention  .'
p11
ss.