(dp1
S'input'
p2
(dp3
S'encoded'
p4
(lp5
I64
aI2179
aI394
aI5370
aI3
aI5286
asS'ori'
p6
S'This house would abolish the monarchy'
p7
ssS'output'
p8
(dp9
g4
(lp10
I45108
aI162
aI985
aI1191
aI93
aI3569
aI366
aI89
aI9621
aI764
aI5
aI2435
aI3083
aI3
aI9621
aI63765
asg6
S'Prorogation usually occurs about one year after a session begins  and formally concludes the session  .'
p11
ss.