(dp1
S'input'
p2
(dp3
S'encoded'
p4
(lp5
I64
aI2179
aI394
aI2017
aI262
asS'ori'
p6
S'This house would ban boxing'
p7
ssS'output'
p8
(dp9
g4
(lp10
I362
aI7
aI363
aI262
aI364
aI365
aI366
aI3
aI367
aI7
aI3
aI368
aI369
aI370
aI298
aI3
aI371
aI7
aI372
aI373
aI279
aI374
aI375
aI5
aI376
aI24
aI332
aI60
aI3
aI272
aI377
aI63765
asg6
S'Records of Classical boxing activity disappeared after the fall of the Western Roman Empire when the wearing of weapons became common once again and interest in fighting with the fists waned .'
p11
ss.