(dp1
S'input'
p2
(dp3
S'encoded'
p4
(lp5
I64
aI2179
aI235
aI3
aI2136
aI7
aI3
aI2306
aI7
aI2390
asS'ori'
p6
S'This house supports the one-child policy of the republic of China'
p7
ssS'output'
p8
(dp9
g4
(lp10
I24
aI2048
aI13759
aI116
aI117
aI3557
aI751
aI11389
aI1546
aI63765
asg6
S'In Sweden  sterilization is only compulsory before sex change  .'
p11
ss.