(dp1
S'input'
p2
(dp3
S'encoded'
p4
(lp5
I64
aI2179
aI394
aI2741
aI3
aI1560
aI6025
aI2784
asS'ori'
p6
S'This house would pass the American Jobs Act'
p7
ssS'output'
p8
(dp9
g4
(lp10
I1920
aI24
aI3
aI3059
aI2152
aI7
aI3
aI34063
aI2845
aI63
aI3
aI2784
aI440
aI2322
aI3
aI696
aI7
aI4968
aI6025
aI75
aI2639
aI45
aI2639
aI63765
asg6
S'Nevertheless  in the third quarter of 2011  the CBO estimated that the Act had increased the number of full-time equivalent jobs by 0 .5 million to 3 .3 million  .'
p11
ss.