(dp1
S'input'
p2
(dp3
S'encoded'
p4
(lp5
I64
aI2179
aI43
aI63
aI3
aI4538
aI7
aI4434
aI7793
aI283
aI45
aI3586
aI417
aI316
aI577
asS'ori'
p6
S'This house believes that the sale of violent video games to minors should be banned'
p7
ssS'output'
p8
(dp9
g4
(lp10
I51
aI1185
aI2802
aI5046
aI3
aI6
aI45
aI92
aI3
aI673
aI7
aI3
aI2326
aI3525
aI289
aI736
aI3
aI709
aI24
aI2240
aI63765
asg6
S"An important question concerns the extent to which the influence of the program carries over into the child's conduct in school ."
p11
ss.