(dp1
S'input'
p2
(dp3
S'encoded'
p4
(lp5
I64
aI2179
aI43
aI63
aI3
aI4990
aI4991
aI116
aI4850
aI24
aI12166
aI3
aI475
aI7
aI3532
aI3290
aI7
aI4714
asS'ori'
p6
S'This house believes that the Catholic Church is justified in forbidding the use of barrier methods of contraception'
p7
ssS'output'
p8
(dp9
g4
(lp10
I45
aI64
aI312
aI3
aI626
aI15558
aI4991
aI235
aI658
aI3592
aI5
aI2322
aI7600
aI24
aI3874
aI2569
aI3205
aI75
aI658
aI5
aI3249
aI779
aI63765
asg6
S'To this end  the United Methodist Church supports "adequate public funding and increased participation in family planning services by public and private agencies .'
p11
ss.