(dp1
S'input'
p2
(dp3
S'encoded'
p4
(lp5
I64
aI2179
aI394
aI2017
aI628
asS'ori'
p6
S'This house would ban gambling'
p7
ssS'output'
p8
(dp9
g4
(lp10
I29252
aI5119
aI628
aI122
aI174
aI451
aI24
aI64
aI122
aI3
aI237
aI413
aI78
aI463
aI14674
aI26220
aI5
aI6900
aI60
aI574
aI248
aI24
aI51
aI5216
aI3216
asg6
S'Multiplayer online gambling was also introduced in 1999  this was the first time people could gamble  chat and interact with each other in an interactive environment'
p11
ss.