(dp1
S'input'
p2
(dp3
S'encoded'
p4
(lp5
I64
aI2179
aI394
aI5284
aI150
aI3987
asS'ori'
p6
S'This house would reintroduce national service'
p7
ssS'output'
p8
(dp9
g4
(lp10
I42
aI5461
aI41
aI89
aI5409
aI887
aI3
aI3386
aI12362
aI24
aI3
aI10
aI5
aI174
aI373
aI5578
aI3154
aI60
aI433
aI7
aI667
aI2086
aI2109
aI15771
aI81
aI14342
aI34
aI5259
aI45
aI5110
aI14
aI3
aI4408
aI41
aI261
aI41
aI188
aI10472
aI1637
aI397
aI25
aI63765
asg6
S'He emerged as a leader among the black legislators in the state  and also became politically friendly with Governor of New York Nelson Rockefeller  who arranged for Rangel to run on the Republican as well as Democratic ballot line during his 1968 re-election  .'
p11
ss.