(dp1
S'input'
p2
(dp3
S'encoded'
p4
(lp5
I64
aI2179
aI394
aI2998
aI3
aI4360
aI7
aI3249
aI6804
aI24
aI3
aI102
asS'ori'
p6
S'This house would encourage the creation of private universities in the UK'
p7
ssS'output'
p8
(dp9
g4
(lp10
I155
aI174
aI103
aI63
aI3862
aI417
aI99
aI316
aI13336
aI34
aI3
aI3089
aI7
aI271
aI8532
aI5
aI63
aI1710
aI86
aI64
aI511
aI394
aI2998
aI86
aI45
aI316
aI6197
aI5
aI70
aI43210
aI2144
aI63765
asg6
S'They also claim that children should not be punished for the actions of their parents and that giving them this opportunity would encourage them to be contributing and law abiding citizens .'
p11
ss.