(dp1
S'input'
p2
(dp3
S'encoded'
p4
(lp5
I64
aI2179
aI394
aI4325
aI2042
aI270
aI89
aI11605
aI3324
asS'ori'
p6
S'This house would fund education using a voucher scheme'
p7
ssS'output'
p8
(dp9
g4
(lp10
I45
aI975
aI63
aI3
aI7074
aI122
aI89
aI5433
aI15
aI3
aI2240
aI2128
aI5
aI3
aI2083
aI30111
aI6018
aI2128
aI394
aI1068
aI45
aI3442
aI89
aI30111
aI6018
aI7074
aI73
aI10
aI6198
aI394
aI316
aI1024
aI1295
aI63765
asg6
S'To ensure that the plan was a "local option " both the school board and the local pupil assignment board would need to adopt a pupil assignment plan  or state funds would be cut off  .'
p11
ss.