(dp1
S'input'
p2
(dp3
S'encoded'
p4
(lp5
I64
aI2179
aI43
aI63
aI323
aI417
aI10009
aI211
aI9035
aI249
aI45
aI3426
aI211
aI2144
aI595
aI17
aI96
asS'ori'
p6
S'This house believes that Europe should weaken its austerity measures to guarantee its citizens greater social support'
p7
ssS'output'
p8
(dp9
g4
(lp10
I122
aI2273
aI3
aI414
aI7
aI3
aI3569
aI75
aI24
aI63765
asg6
S'"Austerity" was named the word of the year by Merriam-Webster in 2010  .'
p11
ss.