(dp1
S'input'
p2
(dp3
S'encoded'
p4
(lp5
I64
aI2179
aI43
aI63
aI3
aI4990
aI4991
aI116
aI4850
aI24
aI12166
aI3
aI475
aI7
aI3532
aI3290
aI7
aI4714
asS'ori'
p6
S'This house believes that the Catholic Church is justified in forbidding the use of barrier methods of contraception'
p7
ssS'output'
p8
(dp9
g4
(lp10
I10967
aI497
aI3
aI10727
aI2240
aI24
aI26656
aI5607
aI26657
aI92
aI122
aI4322
aI24
aI25
aI9302
aI24
aI63765
asg6
S'Ratzinger attended the elementary school in Aschau am Inn  which was renamed in his honour in 2009  .'
p11
ss.