(dp1
S'input'
p2
(dp3
S'encoded'
p4
(lp5
I64
aI2179
aI394
aI4325
aI2042
aI270
aI89
aI11605
aI3324
asS'ori'
p6
S'This house would fund education using a voucher scheme'
p7
ssS'output'
p8
(dp9
g4
(lp10
I35062
aI13443
aI4880
aI14
aI3
aI51355
aI51356
aI342
aI131
aI55
aI691
aI1611
aI732
aI7217
aI63765
asg6
S'Rhee defended herself on the Tavis Smiley Show  but has since retracted her comments .'
p11
ss.