(dp1
S'input'
p2
(dp3
S'encoded'
p4
(lp5
I64
aI2179
aI43
aI223
aI2138
aI11
aI89
aI21
aI45
aI2185
aI372
asS'ori'
p6
S'This house believes all nations have a right to nuclear weapons'
p7
ssS'output'
p8
(dp9
g4
(lp10
I3
aI2877
aI7
aI64
aI27979
aI32
aI2450
aI3
aI117
aI1047
aI2696
aI60
aI2185
aI372
aI92
aI116
aI99
aI89
aI171
aI45
aI3
aI11570
aI131
aI116
aI637
aI547
aI45
aI1378
aI864
aI2185
aI2228
aI60
aI3
aI573
aI7
aI3
aI285
aI63765
asg6
S'The implementation of this waiver makes India the only known country with nuclear weapons which is not a party to the NPT but is still allowed to carry out nuclear commerce with the rest of the world  .'
p11
ss.