(dp1
S'input'
p2
(dp3
S'encoded'
p4
(lp5
I64
aI2179
aI43
aI17
aI4941
aI857
aI3211
asS'ori'
p6
S'This house believes social deprivation causes crime'
p7
ssS'output'
p8
(dp9
g4
(lp10
I17
aI57589
aI3168
aI116
aI717
aI14
aI3
aI79
aI7
aI1117
aI59020
aI5
aI25517
aI645
aI63765
aI11344
aI7
aI3
aI4248
aI2240
aI63765
asg6
S'Social disorganization theory is based on the work of Henry McKay and Clifford R . Shaw of the Chicago School  .'
p11
ss.