(dp1
S'input'
p2
(dp3
S'encoded'
p4
(lp5
I64
aI2179
aI394
aI2998
aI3
aI4360
aI7
aI3249
aI6804
aI24
aI3
aI102
asS'ori'
p6
S'This house would encourage the creation of private universities in the UK'
p7
ssS'output'
p8
(dp9
g4
(lp10
I34
aI1420
aI3398
aI100
aI41
aI9953
aI4758
aI39681
aI4758
aI5
aI3
aI4758
aI7
aI3520
aI3784
aI3
aI2497
aI226
aI100
aI2825
aI6481
aI1896
aI10438
aI1603
aI159
aI41
aI55488
aI4750
aI475
aI3
aI2497
asg6
S'For historical reasons  some universities&mdash;such as Boston College  Dartmouth College  and The College of William & Mary&mdash;have retained the term "college " while some institutions granting few graduate degrees  such as Wesleyan University  use the term "university ."'
p11
ss.