(dp1
S'input'
p2
(dp3
S'encoded'
p4
(lp5
I64
aI2179
aI43
aI63
aI6670
aI546
aI417
aI316
aI89
aI1334
aI3108
aI7
aI4849
aI1886
aI2855
asS'ori'
p6
S'This house believes that wind power should be a primary focus of future energy supply'
p7
ssS'output'
p8
(dp9
g4
(lp10
I134
aI55
aI12
aI685
aI63
aI273
aI116
aI15167
aI7
aI159
aI5107
aI1344
aI24
aI3
aI102
aI5
aI134
aI55
aI12
aI6833
aI864
aI63
aI273
aI116
aI443
aI1022
aI1025
aI6668
aI64
aI14953
aI463
aI99
aI316
aI1607
aI736
aI3
aI201
aI3987
aI3324
aI45
aI2677
aI13516
aI419
aI1691
aI2438
aI24
aI6844
aI2448
aI1887
aI1671
aI1344
aI116
aI2951
aI73
aI5267
aI999
aI63765
asg6
S'It has been established that there is 20 GW of such diesel plant in the UK and it has been pointed out that there is no technical reason why this quantity could not be brought into the Reserve Service scheme to assist handling very rapid changes in renewable output  whilst conventional plant is started or indeed stopped  .'
p11
ss.