(dp1
S'input'
p2
(dp3
S'encoded'
p4
(lp5
I64
aI2179
aI394
aI5284
aI150
aI3987
asS'ori'
p6
S'This house would reintroduce national service'
p7
ssS'output'
p8
(dp9
g4
(lp10
I24
aI2871
aI667
aI3343
aI448
aI15877
aI15878
aI4693
aI3
aI3831
aI5
aI8088
aI5259
aI5
aI15766
aI7
aI351
aI15879
aI3270
aI63
aI223
aI13030
aI3762
aI7327
aI440
aI579
aI531
aI63765
asg6
S'In October 1999  new Attorney General Eliot Spitzer dismissed the lawsuit and cleared Rangel and Sutton of any wrongdoing  saying that all monies properly owed had changed hands  .'
p11
ss.