(dp1
S'input'
p2
(dp3
S'encoded'
p4
(lp5
I64
aI2179
aI394
aI16756
aI20435
asS'ori'
p6
S'This house would criminalize blasphemy'
p7
ssS'output'
p8
(dp9
g4
(lp10
I14
aI2116
aI2145
aI63765
aI3337
aI707
aI1216
aI2648
aI63765
aI20891
aI7
aI3
aI2793
aI3337
aI7
aI5879
aI24
aI89
aI3357
aI743
aI24
aI1561
aI7
aI20890
aI179
aI63
aI3
aI20435
aI3304
aI10048
aI15
aI3
aI2426
aI2489
aI5
aI3
aI1260
aI5982
aI2489
aI7
aI3
aI237
aI3264
aI45
aI3
aI626
aI187
aI2475
asg6
S"On June 30  2010  U .S . District Judge Michael M . Bayslon of the Eastern District of Pennsylvania  in a 68-page Opinion  ruled in favor of Kalman  finding that the Pennsylvania's blasphemy statute violated both the Establishment Clause and the Free Exercise Clause of the First Amendment to the United States Constitution "
p11
ss.