(dp1
S'input'
p2
(dp3
S'encoded'
p4
(lp5
I64
aI2179
aI43
aI8629
aI116
aI3
aI117
aI998
asS'ori'
p6
S'This house believes atheism is the only way'
p7
ssS'output'
p8
(dp9
g4
(lp10
I2382
aI21927
aI8661
aI1215
aI24
aI25
aI26
aI116
aI2382
aI5501
aI63764
asg6
S'Religion apologist Keith Ward in his book Is Religion Dangerous ?'
p11
ss.