(dp1
S'input'
p2
(dp3
S'encoded'
p4
(lp5
I64
aI2179
aI235
aI3
aI2136
aI7
aI3
aI2306
aI7
aI2390
asS'ori'
p6
S'This house supports the one-child policy of the republic of China'
p7
ssS'output'
p8
(dp9
g4
(lp10
I24
aI2450
aI3
aI2598
aI2824
aI19
aI2639
aI78
aI24
aI45
aI1640
aI289
aI2155
aI75
aI89
aI3226
aI24
aI2439
aI63765
asg6
S'In India  the population grew from 361 .1 million people in 1951 to just over 1 .2 billion by 2011  a 235% increase in 60 years .'
p11
ss.