(dp1
S'input'
p2
(dp3
S'encoded'
p4
(lp5
I64
aI2179
aI43
aI63
aI3376
aI4938
aI417
aI316
aI3537
asS'ori'
p6
S'This house believes that endangered species should be protected'
p7
ssS'output'
p8
(dp9
g4
(lp10
I3
aI38365
aI382
aI1237
aI4938
aI7
aI38366
aI6797
aI63
aI5605
aI41
aI89
aI3964
aI2878
aI45
aI3
aI38364
aI63765
asg6
S"The moa were several species of flightless birds that served as a food source to the Haast's Eagle  ."
p11
ss.