(dp1
S'input'
p2
(dp3
S'encoded'
p4
(lp5
I64
aI2179
aI43
aI63
aI3
aI4538
aI7
aI4434
aI7793
aI283
aI45
aI3586
aI417
aI316
aI577
asS'ori'
p6
S'This house believes that the sale of violent video games to minors should be banned'
p7
ssS'output'
p8
(dp9
g4
(lp10
I60
aI7793
aI283
aI3
aI2823
aI116
aI3
aI1410
aI5345
aI81
aI4712
aI24347
aI60
aI136
aI524
aI73
aI6115
aI7
aI3
aI8580
aI298
aI42
aI1040
aI759
aI24
aI89
aI4434
aI2784
aI63765
asg6
S'With video games  the model is the main character  who gets rewarded with more points or advancement of the story  when he takes part in a violent act .'
p11
ss.