(dp1
S'input'
p2
(dp3
S'encoded'
p4
(lp5
I64
aI2179
aI394
aI2773
aI12505
asS'ori'
p6
S'This house would embrace multiculturalism'
p7
ssS'output'
p8
(dp9
g4
(lp10
I3
aI19404
aI92
aI116
aI3250
aI62617
aI62610
aI55
aI2754
aI967
aI30985
aI63765
asg6
S'The Taliban which is mostly ethnicly Pashtun  has gained Anti-Pashtunism across non-Pashtun Afghans .'
p11
ss.