(dp1
S'input'
p2
(dp3
S'encoded'
p4
(lp5
I64
aI2179
aI43
aI63
aI3
aI21
aI45
aI12715
aI417
aI99
aI316
aI2897
asS'ori'
p6
S'This house believes that the right to asylum should not be absolute'
p7
ssS'output'
p8
(dp9
g4
(lp10
I24
aI5947
aI19
aI10348
aI5
aI6575
aI19131
aI4933
aI19
aI271
aI284
aI150
aI220
aI2586
aI45
aI9110
aI24
aI326
aI63765
asg6
S'In 1967  Asians from Kenya and Uganda  fearing discrimination from their own national governments  began to arrive in Britain .'
p11
ss.