(dp1
S'input'
p2
(dp3
S'encoded'
p4
(lp5
I64
aI2179
aI394
aI1499
aI3
aI8115
aI34564
aI17106
asS'ori'
p6
S'This house would build the Keystone XL pipeline'
p7
ssS'output'
p8
(dp9
g4
(lp10
I64
aI3262
aI14463
aI267
aI45
aI869
aI1727
aI3
aI532
aI7
aI17153
aI18104
aI4386
aI4540
aI7
aI5563
aI8942
aI41
aI3
aI7
aI1671
aI2579
aI63765
asg6
S'This process generates two to four times the amount of greenhouse gases per barrel of final product as the "production" of conventional oil  .'
p11
ss.