(dp1
S'input'
p2
(dp3
S'encoded'
p4
(lp5
I64
aI2179
aI394
aI16642
aI1376
aI5269
asS'ori'
p6
S'This house would subsidize poor communities'
p7
ssS'output'
p8
(dp9
g4
(lp10
I8801
aI23083
aI5
aI23084
aI23085
aI11
aI12
aI656
aI75
aI1228
aI2877
aI60
aI3236
aI45
aI8069
aI448
aI4445
aI5
aI918
aI9404
aI63765
asg6
S'Mexicos Oportunidades and Brazils Bolsa Familia) have been marked by good implementation with respect to targeting  general administration and impact evaluation .'
p11
ss.