(dp1
S'input'
p2
(dp3
S'encoded'
p4
(lp5
I64
aI2179
aI43
aI63
aI3
aI21
aI45
aI12715
aI417
aI99
aI316
aI2897
asS'ori'
p6
S'This house believes that the right to asylum should not be absolute'
p7
ssS'output'
p8
(dp9
g4
(lp10
I3327
aI2610
aI88
aI316
aI3288
aI75
aI3
aI3984
aI45
aI9944
aI3202
aI2223
aI73
aI9751
aI24
aI3
aI2696
aI7
aI5304
aI63765
asg6
S'Unauthorized immigration may be prompted by the desire to escape civil war or repression in the country of origin .'
p11
ss.