(dp1
S'input'
p2
(dp3
S'encoded'
p4
(lp5
I64
aI2179
aI394
aI190
aI3
aI21
aI45
aI3895
aI834
asS'ori'
p6
S'This house would limit the right to bear arms'
p7
ssS'output'
p8
(dp9
g4
(lp10
I3
aI34256
aI38364
aI2611
aI934
aI2326
aI4789
aI75
aI3
aI150
aI4274
aI2016
aI116
aI14764
aI1636
aI494
aI3862
aI19
aI45
aI4742
aI7353
aI5
aI13738
aI5268
aI63
aI212
aI1374
aI182
aI99
aI20121
aI75
aI8063
aI89
aI3943
aI1039
aI63765
asg6
S'The Eddie Eagle Gun Safety Program  administered by the National Rifle Association (NRA)  is geared towards younger children from pre-kindergarten to sixth grade  and teaches kids that real guns are not toys by emphasizing a "just say no" approach  .'
p11
ss.