(dp1
S'input'
p2
(dp3
S'encoded'
p4
(lp5
I64
aI2179
aI43
aI63
aI134
aI116
aI400
aI21
aI34
aI3
aI260
aI45
aI3439
aI57
aI7
aI2381
asS'ori'
p6
S'This house believes that it is sometimes right for the government to restrict freedom of speech'
p7
ssS'output'
p8
(dp9
g4
(lp10
I3
aI21
aI24
aI28006
aI98
aI99
aI4345
aI9564
aI34
aI18436
aI7
aI10129
aI73
aI6442
aI7
aI11095
aI63
aI116
aI717
aI14
aI4226
aI12909
aI4583
aI73
aI2382
aI5
aI63
aI12422
aI18436
aI45
aI521
aI652
aI63765
asg6
S'(2) The right in subsection (1) does not extend to-(a) propaganda for war;(b) incitement of imminent violence; or (c) advocacy of hatred that is based on race  ethnicity  gender or religion  and that constitutes incitement to cause harm .'
p11
ss.