(dp1
S'input'
p2
(dp3
S'encoded'
p4
(lp5
I64
aI2179
aI394
aI5842
aI3569
aI446
aI13498
asS'ori'
p6
S'This house would introduce year round schooling'
p7
ssS'output'
p8
(dp9
g4
(lp10
I24
aI2547
aI3
aI237
aI1379
aI7
aI3424
aI12931
aI34
aI658
aI4364
aI116
aI3
aI13495
aI751
aI3
aI1447
aI10572
aI7
aI2116
aI63765
asg6
S'In Canada  the first day of summer vacation for public schools is the Thursday before the last Friday of June .'
p11
ss.