(dp1
S'input'
p2
(dp3
S'encoded'
p4
(lp5
I64
aI2179
aI43
aI63
aI2157
aI2565
aI493
aI19084
aI382
aI4850
asS'ori'
p6
S"This house believes that Israel's 2008-2009 military operations against Gaza were justified"
p7
ssS'output'
p8
(dp9
g4
(lp10
I526
aI19357
aI11994
aI182
aI777
aI1968
aI113
aI298
aI1653
aI311
aI2157
aI14507
aI604
aI3
aI11994
aI182
aI87
aI12610
aI5
aI9566
aI3180
aI24
aI3
aI803
aI19
aI92
aI3
aI11994
aI182
aI17377
aI41
aI261
aI41
aI53
aI155
aI1413
aI508
aI5986
aI267
aI2378
aI2747
aI7
aI3
aI2511
aI7
aI4798
aI5
aI19382
aI63765
asg6
S'Furthermore  Qassam rockets are themselves illegal  even when aimed at military objects  because the rockets are so imprecise and endanger civilians in the area from which the rockets are fired as well as where they land  thus violating two fundamental principles of the laws of war: distinction and proportionality  .'
p11
ss.