(dp1
S'input'
p2
(dp3
S'encoded'
p4
(lp5
I64
aI2179
aI235
aI3858
aI3
aI2240
aI4527
aI3485
aI45
asS'ori'
p6
S'This house supports raising the school leaving age to 18'
p7
ssS'output'
p8
(dp9
g4
(lp10
I24
aI3
aI2240
aI3569
aI7
aI4358
aI20
aI2240
aI751
aI3
aI3485
aI7
aI3250
aI311
aI3485
aI3
aI23127
aI2994
aI122
aI2810
aI1365
aI6057
aI5
aI5006
aI1365
aI8446
aI4358
aI63765
asg6
S'In the 2005-6 school year 5 .6% of students left school before the age of 18  mostly at age 16; the dropout rate was highest amongst Bedouin (9 .8%) and lowest amongst Jewish students (4 .7%)  .'
p11
ss.