(dp1
S'input'
p2
(dp3
S'encoded'
p4
(lp5
I64
aI2179
aI43
aI223
aI2138
aI11
aI89
aI21
aI45
aI2185
aI372
asS'ori'
p6
S'This house believes all nations have a right to nuclear weapons'
p7
ssS'output'
p8
(dp9
g4
(lp10
I3
aI910
aI116
aI89
aI17
aI910
aI92
aI2922
aI311
aI3
aI2083
aI150
aI5
aI282
aI126
aI63765
asg6
S'The anti-nuclear movement is a social movement which operates at the local  national  and international level .'
p11
ss.