(dp1
S'input'
p2
(dp3
S'encoded'
p4
(lp5
I64
aI2179
aI43
aI63
aI6670
aI546
aI417
aI316
aI89
aI1334
aI3108
aI7
aI4849
aI1886
aI2855
asS'ori'
p6
S'This house believes that wind power should be a primary focus of future energy supply'
p7
ssS'output'
p8
(dp9
g4
(lp10
I134
aI4246
aI63
aI2456
aI1546
aI4778
aI89
aI165
aI136
aI4229
aI2731
aI45
aI6687
aI5
aI3082
aI235
aI6670
aI6738
aI5
aI248
aI274
aI7
aI6844
aI1886
aI63765
asg6
S'" It notes that climate change poses a much more significant threat to wildlife  and therefore supports wind farms and other forms of renewable energy .'
p11
ss.