(dp1
S'input'
p2
(dp3
S'encoded'
p4
(lp5
I64
aI2179
aI43
aI63
aI187
aI417
aI99
aI16642
aI3
aI6449
aI7
aI3935
asS'ori'
p6
S'This house believes that states should not subsidize the growing of tobacco'
p7
ssS'output'
p8
(dp9
g4
(lp10
I3
aI2229
aI55
aI12
aI12498
aI75
aI725
aI3927
aI2138
aI41
aI2722
aI11
aI843
aI73
aI3350
aI63765
asg6
S'The trend has been paralleled by many industrialized nations as rates have either leveled-off or declined .'
p11
ss.