(dp1
S'input'
p2
(dp3
S'encoded'
p4
(lp5
I64
aI2179
aI394
aI5370
aI223
aI4013
aI10440
aI2446
aI4881
aI75
aI14482
aI11004
asS'ori'
p6
S'This house would abolish all collective bargaining rights claimed by trades unions'
p7
ssS'output'
p8
(dp9
g4
(lp10
I2200
aI132
aI1980
aI6668
aI271
aI6228
aI7360
aI462
aI60
aI23847
aI5
aI3654
aI45
aI79
aI864
aI51
aI17590
aI1362
aI60
aI3550
aI203
aI63765
asg6
S"[Hoover] asked these men why their companies didn't sit down with Gompers and try to work out an amicable relationship with organized labor ."
p11
ss.