(dp1
S'input'
p2
(dp3
S'encoded'
p4
(lp5
I64
aI2179
aI394
aI3830
aI3
aI475
aI7
aI9441
aI13132
aI3102
aI24
aI276
aI381
asS'ori'
p6
S'This house would permit the use of performance enhancing drugs in professional sports'
p7
ssS'output'
p8
(dp9
g4
(lp10
I3
aI11875
aI2962
aI45
aI3
aI3343
aI448
aI620
aI3
aI5795
aI3343
aI448
aI63765
asg6
S'The Administrator reports to the Attorney General through the Deputy Attorney General  .'
p11
ss.