(dp1
S'input'
p2
(dp3
S'encoded'
p4
(lp5
I64
aI2179
aI43
aI8629
aI116
aI3
aI117
aI998
asS'ori'
p6
S'This house believes atheism is the only way'
p7
ssS'output'
p8
(dp9
g4
(lp10
I24
aI25
aI3625
aI7
aI8644
aI34
aI3
aI8298
aI7
aI223
aI3148
aI8301
aI2538
aI24
aI1849
aI63
aI3
aI3524
aI7
aI3269
aI14
aI6267
aI116
aI5267
aI2146
aI8354
aI131
aI63
aI63
aI116
aI6668
aI357
aI83
aI949
aI51
aI3173
aI34
aI134
aI63
aI4655
aI63
aI18429
aI159
aI41
aI7829
aI63765
asg6
S'In his interview of McGrath for The Root of All Evil Dawkins says in response that the existence of life on earth is indeed highly improbable  but that that is why we must develop an explanation for it that explains that improbability  such as evolution  .'
p11
ss.