(dp1
S'input'
p2
(dp3
S'encoded'
p4
(lp5
I64
aI2179
aI43
aI24
aI3
aI475
aI7
aI12436
aI3364
asS'ori'
p6
S'This house believes in the use of affirmative action'
p7
ssS'output'
p8
(dp9
g4
(lp10
I13944
aI30866
aI2381
aI45
aI1191
aI27279
aI94
aI3024
aI24
aI36299
aI6521
aI2953
aI4646
aI45
aI3
aI11808
aI61
aI4646
aI45
aI3
aI2963
aI116
aI89
aI829
aI7
aI12009
aI3692
aI45
aI8316
aI63765
aI63765
asg6
S'Heinrich Himmler speech to about 100 SS Group Leaders in Posen  occupied Poland  1943:"What happens to the Russians  what happens to the Czechs  is a matter of utter indifference to me . .'
p11
ss.