(dp1
S'input'
p2
(dp3
S'encoded'
p4
(lp5
I64
aI2179
aI394
aI475
aI2135
aI2194
aI6198
aI45
aI2041
aI5
aI13926
aI8732
aI63
aI1735
aI12708
aI5
aI5599
aI24
aI2203
aI45
aI1397
aI7149
aI5
aI12311
aI271
aI5119
aI4948
asS'ori'
p6
S'This house would use foreign aid funds to research and distribute software that allows bloggers and journalists in non-democratic countries to evade censorship and conceal their online activities'
p7
ssS'output'
p8
(dp9
g4
(lp10
I2445
aI2446
aI11
aI12
aI4354
aI3
aI291
aI3
aI2186
aI10323
aI5
aI3
aI2755
aI10323
aI9636
aI45
aI3
aI7147
aI63765
asg6
S'Human rights have been termed the "missing link" between the technology oriented and the value oriented approaches to the Internet  .'
p11
ss.