(dp1
S'input'
p2
(dp3
S'encoded'
p4
(lp5
I64
aI2179
aI394
aI1499
aI177
aI1819
aI34
aI160
asS'ori'
p6
S'This house would build high rises for housing'
p7
ssS'output'
p8
(dp9
g4
(lp10
I24
aI1640
aI7
aI658
aI7935
aI7012
aI382
aI34
aI35842
aI60
aI117
aI41
aI1693
aI7
aI1530
aI4027
aI73
aI63765
asg6
S'In 1953  just 23% of public sector approvals were for flats  with only 3% high-rise (defined as blocks of six stories or more) .'
p11
ss.