(dp1
S'input'
p2
(dp3
S'encoded'
p4
(lp5
I64
aI2179
aI394
aI16756
aI20435
asS'ori'
p6
S'This house would criminalize blasphemy'
p7
ssS'output'
p8
(dp9
g4
(lp10
I20524
aI4983
aI5841
aI45
aI20525
aI864
aI3
aI4196
aI63765
asg6
S'Outraged Christians tried to drown out the 2002 reading .'
p11
ss.