(dp1
S'input'
p2
(dp3
S'encoded'
p4
(lp5
I64
aI2179
aI43
aI63
aI2157
aI2565
aI493
aI19084
aI382
aI4850
asS'ori'
p6
S"This house believes that Israel's 2008-2009 military operations against Gaza were justified"
p7
ssS'output'
p8
(dp9
g4
(lp10
I10233
aI10234
aI557
aI311
aI3
aI3010
aI1560
aI11091
aI24
aI10233
aI10234
aI63765
asg6
S'|- Sao Paulo 3 000 Held at the Latin American Memorial in Sao Paulo  .'
p11
ss.