(dp1
S'input'
p2
(dp3
S'encoded'
p4
(lp5
I64
aI2179
aI394
aI5284
aI150
aI3987
asS'ori'
p6
S'This house would reintroduce national service'
p7
ssS'output'
p8
(dp9
g4
(lp10
I4237
aI193
aI2322
aI3592
aI34
aI10
aI5
aI2083
aI70
aI3353
aI382
aI2100
aI24
aI3
aI4562
aI2784
aI7
aI63765
asg6
S"Rangel's amendments providing increased funding for state and local law enforcement were included in the Anti-Drug Abuse Act of 1986  ."
p11
ss.