(dp1
S'input'
p2
(dp3
S'encoded'
p4
(lp5
I64
aI2179
aI43
aI63
aI134
aI116
aI400
aI21
aI34
aI3
aI260
aI45
aI3439
aI57
aI7
aI2381
asS'ori'
p6
S'This house believes that it is sometimes right for the government to restrict freedom of speech'
p7
ssS'output'
p8
(dp9
g4
(lp10
I134
aI116
aI384
aI19
aI5
aI99
aI45
aI316
aI4419
aI60
aI3
aI3445
aI7
aI57
aI7
aI2381
aI73
aI4640
aI63765
asg6
S'It is different from and not to be confused with the concept of freedom of speech or expression .'
p11
ss.