(dp1
S'input'
p2
(dp3
S'encoded'
p4
(lp5
I64
aI2179
aI394
aI5370
aI7146
aI4585
aI2446
asS'ori'
p6
S'This house would abolish intellectual property rights'
p7
ssS'output'
p8
(dp9
g4
(lp10
I132
aI4585
aI2446
aI5
aI3
aI3730
aI2488
aI145
aI7
aI4585
aI163
aI2776
aI34
aI147
aI19
aI2083
aI2178
aI2829
aI45
aI454
aI271
aI21851
aI5
aI52259
aI18043
aI5
aI12997
aI7
aI4585
aI442
aI5
aI4585
aI5224
aI24
aI3
aI2696
aI41
aI89
aI2207
aI4877
aI19
aI89
aI595
aI11629
aI7
aI1184
aI34
aI13135
aI24
aI16
aI2488
aI5
aI2604
aI441
aI5404
aI7
aI3930
aI63
aI3830
aI3
aI1694
aI4936
aI7
aI2622
aI2038
aI5
aI3930
aI24
aI6228
aI5
aI197
aI493
aI3891
aI7
aI2395
aI34
aI667
aI4949
aI691
aI136
aI194
aI463
aI316
aI416
aI41
aI6606
aI34
aI3
aI3757
aI45
aI5
aI136
aI9100
aI5224
aI2230
aI159
aI194
aI41
aI8921
aI2231
aI5
aI3
aI6036
aI7
aI17904
aI18043
aI5
aI29689
aI7
aI5404
aI3325
aI3
aI3930
aI7
aI4585
aI92
aI52260
aI3
aI998
aI34
aI5143
aI159
aI41
aI150
aI3210
aI34
aI6228
aI5
aI3
aI1408
aI5440
aI7
aI4585
aI620
aI2604
aI7276
aI7
aI147
aI5
aI248
aI1795
aI7
aI7797
aI1021
aI45
aI12181
aI7
aI14498
aI6678
aI3237
aI63765
asg6
S'These property rights and the whole formal system of property make possible:Greater independence for individuals from local community arrangements to protect their assets;Clear  provable  and protectable ownership;The standardization and integration of property rules and property information in the country as a whole;Increased trust arising from a greater certainty of punishment for cheating in economic transactions;More formal and complex written statements of ownership that permit the easier assumption of shared risk and ownership in companies  and insurance against risk;Greater availability of loans for new projects  since more things could be used as collateral for the loans;Easier access to and more reliable information regarding such things as credit history and the worth of assets;Increased fungibility  standardization and transferability of statements documenting the ownership of property  which paves the way for structures such as national markets for companies and the easy transportation of property through complex networks of individuals and other entities;Greater protection of biodiversity due to minimizing of shifting agriculture practices .'
p11
ss.