(dp1
S'input'
p2
(dp3
S'encoded'
p4
(lp5
I64
aI2179
aI43
aI63
aI2659
aI417
aI1690
aI3
aI12048
aI7
aI19084
asS'ori'
p6
S'This house believes that Israel should lift the blockade of Gaza'
p7
ssS'output'
p8
(dp9
g4
(lp10
I14
aI3
aI19190
aI19191
aI10318
aI3
aI1410
aI15185
aI7
aI3
aI19184
aI18471
aI19192
aI3156
aI3
aI12878
aI60
aI19193
aI372
aI5
aI3281
aI4477
aI158
aI19
aI1374
aI5768
aI19
aI2377
aI63765
asg6
S'On the MV Mavi Marmara  the main ship of the convoy  passengers fiercely resisted the boarding with makeshift weapons and live fire  including from guns seized from soldiers .'
p11
ss.