(dp1
S'input'
p2
(dp3
S'encoded'
p4
(lp5
I64
aI2179
aI43
aI223
aI2138
aI11
aI89
aI21
aI45
aI2185
aI372
asS'ori'
p6
S'This house believes all nations have a right to nuclear weapons'
p7
ssS'output'
p8
(dp9
g4
(lp10
I132
aI1074
aI2213
aI159
aI41
aI23729
aI2236
aI5099
aI2233
aI37053
aI5099
aI2236
aI5612
aI5
aI667
aI5099
aI41
aI261
aI41
aI2361
aI159
aI41
aI23729
aI2233
aI5
aI3
aI2272
aI2185
aI5597
aI7
aI63765
asg6
S'These include treaties such as SALT II (never ratified)  START I (expired)  INF  START II (never ratified)  SORT  and New START  as well as non-binding agreements such as SALT I and the Presidential Nuclear Initiatives of 1991 .'
p11
ss.