(dp1
S'input'
p2
(dp3
S'encoded'
p4
(lp5
I64
aI2179
aI13605
aI2258
aI45
aI2194
asS'ori'
p6
S'This house prefers trade to aid'
p7
ssS'output'
p8
(dp9
g4
(lp10
I134
aI174
aI3206
aI45
aI17928
aI4388
aI92
aI11
aI99
aI440
aI351
aI282
aI952
aI14
aI3
aI2148
aI192
aI45
aI1453
aI87
aI63765
asg6
S'It also helps to expose firms  which have not had any international experience on the global market to do so .'
p11
ss.