(dp1
S'input'
p2
(dp3
S'encoded'
p4
(lp5
I64
aI2179
aI394
aI5842
aI3569
aI446
aI13498
asS'ori'
p6
S'This house would introduce year round schooling'
p7
ssS'output'
p8
(dp9
g4
(lp10
I2041
aI353
aI63
aI17076
aI11653
aI2722
aI5031
aI291
aI4194
aI63765
aI5
aI4194
aI63765
aI14
aI2240
aI873
asg6
S'research found that juvenile arrest rates peak between 2 p .m . and 6 p .m . on school days '
p11
ss.