(dp1
S'input'
p2
(dp3
S'encoded'
p4
(lp5
I64
aI2179
aI394
aI475
aI2135
aI2194
aI6198
aI45
aI2041
aI5
aI13926
aI8732
aI63
aI1735
aI12708
aI5
aI5599
aI24
aI2203
aI45
aI1397
aI7149
aI5
aI12311
aI271
aI5119
aI4948
asS'ori'
p6
S'This house would use foreign aid funds to research and distribute software that allows bloggers and journalists in non-democratic countries to evade censorship and conceal their online activities'
p7
ssS'output'
p8
(dp9
g4
(lp10
I7226
aI7149
aI270
aI18301
aI227
aI3757
aI45
aI282
aI7151
aI131
aI31743
aI4506
aI2287
aI7149
aI5
aI3757
aI45
aI136
aI2083
aI7151
aI63765
asg6
S'Circumventing censorship using proxies gives access to international content  but doesnt address domestic censorship and access to more local content .'
p11
ss.