(dp1
S'input'
p2
(dp3
S'encoded'
p4
(lp5
I64
aI2179
aI43
aI63
aI3
aI4538
aI7
aI4434
aI7793
aI283
aI45
aI3586
aI417
aI316
aI577
asS'ori'
p6
S'This house believes that the sale of violent video games to minors should be banned'
p7
ssS'output'
p8
(dp9
g4
(lp10
I1381
aI100
aI17
aI6834
aI96
aI64
aI3063
aI9069
aI5
aI5507
aI251
aI60
aI3
aI3904
aI3600
aI190
aI2496
aI7
aI7090
aI24
aI64
aI803
aI63765
asg6
S'Although some social scientists support this link  methodological and theoretical problems with the existing literature limit interpretation of findings in this area .'
p11
ss.