(dp1
S'input'
p2
(dp3
S'encoded'
p4
(lp5
I64
aI2179
aI43
aI63
aI2659
aI417
aI1690
aI3
aI12048
aI7
aI19084
asS'ori'
p6
S'This house believes that Israel should lift the blockade of Gaza'
p7
ssS'output'
p8
(dp9
g4
(lp10
I9046
aI7
aI3
aI3099
aI3
aI2377
aI382
aI19369
aI75
aI11677
aI24898
aI3
aI2216
aI7
aI3
aI6056
aI5451
aI63765
asg6
S'Ahead of the operation  the soldiers were briefed by Vice-Admiral Eli Marom  the commander of the Israeli Navy .'
p11
ss.