(dp1
S'input'
p2
(dp3
S'encoded'
p4
(lp5
I64
aI2179
aI394
aI163
aI959
aI2042
aI3557
asS'ori'
p6
S'This house would make physical education compulsory'
p7
ssS'output'
p8
(dp9
g4
(lp10
I3
aI4386
aI7282
aI28283
aI1886
aI2855
aI4580
aI8411
aI291
aI384
aI2317
aI5
aI2203
aI63765
asg6
S'The per capita dietary energy supply varies markedly between different regions and countries .'
p11
ss.