(dp1
S'input'
p2
(dp3
S'encoded'
p4
(lp5
I64
aI2179
aI394
aI4325
aI2042
aI270
aI89
aI11605
aI3324
asS'ori'
p6
S'This house would fund education using a voucher scheme'
p7
ssS'output'
p8
(dp9
g4
(lp10
I24
aI492
aI3
aI667
aI2086
aI1727
aI5047
aI63
aI4290
aI2714
aI55
aI5541
aI45
aI4576
aI462
aI9128
aI75
aI34
aI3
aI1511
aI3874
aI63765
asg6
S'In July 2008 The New York Times reported that Senator Obama has promised to bring down premiums by $2 500 for the typical family .'
p11
ss.