(dp1
S'input'
p2
(dp3
S'encoded'
p4
(lp5
I64
aI2179
aI43
aI24
aI3
aI475
aI7
aI12436
aI3364
asS'ori'
p6
S'This house believes in the use of affirmative action'
p7
ssS'output'
p8
(dp9
g4
(lp10
I100
aI833
aI7
aI12436
aI3364
aI133
aI3
aI117
aI3480
aI24
aI1799
aI291
aI10248
aI417
aI316
aI6612
aI63765
asg6
S'Some opponents of affirmative action believe the only consideration in choosing between applicants should be merit .'
p11
ss.