(dp1
S'input'
p2
(dp3
S'encoded'
p4
(lp5
I64
aI2179
aI394
aI4325
aI2042
aI270
aI89
aI11605
aI3324
asS'ori'
p6
S'This house would fund education using a voucher scheme'
p7
ssS'output'
p8
(dp9
g4
(lp10
I4276
aI3328
aI187
aI63
aI875
aI2998
aI3249
aI3186
aI589
aI3
aI285
aI324
aI620
aI1260
aI2258
aI63765
asg6
S'Barr\'s campaign site states that America "should encourage private involvement around the world  particularly through free trade .'
p11
ss.