(dp1
S'input'
p2
(dp3
S'encoded'
p4
(lp5
I64
aI2179
aI43
aI63
aI3
aI21
aI45
aI12715
aI417
aI99
aI316
aI2897
asS'ori'
p6
S'This house believes that the right to asylum should not be absolute'
p7
ssS'output'
p8
(dp9
g4
(lp10
I24
aI1849
aI24
aI2451
aI10139
aI5
aI59
aI3
aI70
aI14
aI7477
aI45
aI1796
aI4506
aI120
aI147
aI81
aI11
aI4172
aI45
aI2451
aI24
aI1068
aI7
aI282
aI1795
aI63765
asg6
S'In response  in 1997  Russia amended and replaced the 1993 Law on Refugees to better address those individuals who have traveled to Russia in need of international protection .'
p11
ss.