(dp1
S'input'
p2
(dp3
S'encoded'
p4
(lp5
I64
aI2179
aI235
aI3
aI2136
aI7
aI3
aI2306
aI7
aI2390
asS'ori'
p6
S'This house supports the one-child policy of the republic of China'
p7
ssS'output'
p8
(dp9
g4
(lp10
I5053
aI256
aI158
aI5175
aI13759
aI6570
aI24
aI217
aI4192
aI1565
aI2203
aI41
aI261
aI41
aI248
aI136
aI73
aI149
aI408
aI2203
aI63765
asg6
S'Eugenics programs including forced sterilization existed in most Northern European countries  as well as other more or less Protestant countries .'
p11
ss.