(dp1
S'input'
p2
(dp3
S'encoded'
p4
(lp5
I64
aI2179
aI43
aI63
aI3
aI4538
aI7
aI4434
aI7793
aI283
aI45
aI3586
aI417
aI316
aI577
asS'ori'
p6
S'This house believes that the sale of violent video games to minors should be banned'
p7
ssS'output'
p8
(dp9
g4
(lp10
I3
aI10
aI7
aI2300
aI122
aI2343
aI75
aI2599
aI248
aI187
aI158
aI120
aI63
aI440
aI871
aI2511
aI395
aI551
aI3
aI187
aI24
aI51
aI18398
aI8418
aI2173
aI63
aI155
aI182
aI5283
aI24
aI1771
aI3
aI9
aI7
aI3862
aI5
aI24
aI7277
aI8532
aI5918
aI131
aI3
aI3337
aI752
aI4488
aI271
aI254
aI45
aI1453
aI87
aI63765
asg6
S'The State of California was joined by eleven other States  including those that had passed laws later declared unconstitutional; the States  in an amicus brief  stated that they are "vitally interested in protecting the welfare of children and in helping parents raise them" but the District Court\'s decision restricts their authority to do so  .'
p11
ss.