(dp1
S'input'
p2
(dp3
S'encoded'
p4
(lp5
I64
aI2179
aI394
aI1499
aI177
aI1819
aI34
aI160
asS'ori'
p6
S'This house would build high rises for housing'
p7
ssS'output'
p8
(dp9
g4
(lp10
I165
aI7
aI64
aI31759
aI55
aI12
aI4238
aI24
aI3
aI3912
aI35893
aI691
aI3
aI320
aI63765
asg6
S'Much of this regeneration has been concentrated in the West Midlands since the early 1990s .'
p11
ss.