(dp1
S'input'
p2
(dp3
S'encoded'
p4
(lp5
I64
aI2179
aI394
aI4325
aI2042
aI270
aI89
aI11605
aI3324
asS'ori'
p6
S'This house would fund education using a voucher scheme'
p7
ssS'output'
p8
(dp9
g4
(lp10
I443
aI3874
aI417
aI316
aI5175
aI45
aI5678
aI5268
aI45
aI89
aI2240
aI155
aI3084
aI116
aI11388
asg6
S'no family should be forced to send kids to a school they know is failing'
p11
ss.