(dp1
S'input'
p2
(dp3
S'encoded'
p4
(lp5
I64
aI2179
aI394
aI190
aI3
aI21
aI45
aI3895
aI834
asS'ori'
p6
S'This house would limit the right to bear arms'
p7
ssS'output'
p8
(dp9
g4
(lp10
I4319
aI4320
aI3708
aI3
aI4321
aI122
aI4322
aI3
aI4317
aI45
aI991
aI2611
aI2617
aI24
aI5
aI226
aI1932
aI138
aI4323
aI246
aI427
aI89
aI4324
aI1566
aI14
aI2611
aI54
aI138
aI4323
aI63765
asg6
S'Soon parting ways  the NCBH was renamed the Coalition to Stop Gun Violence in 1990  and while smaller than HCI  generally took a tougher stand on gun regulation than HCI  .'
p11
ss.