(dp1
S'input'
p2
(dp3
S'encoded'
p4
(lp5
I64
aI2179
aI43
aI63
aI3
aI4538
aI7
aI4434
aI7793
aI283
aI45
aI3586
aI417
aI316
aI577
asS'ori'
p6
S'This house believes that the sale of violent video games to minors should be banned'
p7
ssS'output'
p8
(dp9
g4
(lp10
I279
aI11450
aI1074
aI864
aI2497
aI34
aI5
aI366
aI89
aI29252
aI303
aI55
aI3041
aI63765
asg6
S'Common phrases include "lol" ("laughing out loud")  "n00b" (deragoratory term for "new beginner") and after a multiplayer match has concluded  "gg" ("good game") .'
p11
ss.