(dp1
S'input'
p2
(dp3
S'encoded'
p4
(lp5
I64
aI2179
aI43
aI24
aI3
aI475
aI7
aI12436
aI3364
asS'ori'
p6
S'This house believes in the use of affirmative action'
p7
ssS'output'
p8
(dp9
g4
(lp10
I2145
aI63765
aI2470
aI128
aI75
aI2164
aI2866
aI64
aI2470
aI128
aI123
aI89
aI150
aI2190
aI6225
aI2136
aI5
aI534
aI260
aI779
aI45
aI84
aI12436
aI3364
aI24
aI96
aI7
aI2190
aI7762
aI63765
asg6
S"1979 - U .S . Executive Order 12138Issued by President Carter  this executive order created a National Women's Business Enterprise Policy and required government agencies to take affirmative action in support of women's business enterprises ."
p11
ss.