(dp1
S'input'
p2
(dp3
S'encoded'
p4
(lp5
I64
aI2179
aI43
aI8629
aI116
aI3
aI117
aI998
asS'ori'
p6
S'This house believes atheism is the only way'
p7
ssS'output'
p8
(dp9
g4
(lp10
I233
aI45
aI89
aI479
aI75
aI60917
aI60918
aI24
aI3
aI2014
aI7
aI13181
aI2992
aI273
aI116
aI443
aI4229
aI4704
aI291
aI18799
aI5
aI229
aI13181
aI24
aI6091
aI5
aI3
aI3140
aI2203
aI63
aI11
aI979
aI2722
aI7
aI2382
aI138
aI3
aI626
aI187
aI63765
asg6
S'According to a 2007 paper by Liesbeth Snoep in the Journal of Happiness Studies  there is no significant correlation between religiosity and individual happiness in Denmark and the Netherlands  countries that have lower rates of religion than the United States  .'
p11
ss.