(dp1
S'input'
p2
(dp3
S'encoded'
p4
(lp5
I64
aI2179
aI43
aI63
aI6670
aI546
aI417
aI316
aI89
aI1334
aI3108
aI7
aI4849
aI1886
aI2855
asS'ori'
p6
S'This house believes that wind power should be a primary focus of future energy supply'
p7
ssS'output'
p8
(dp9
g4
(lp10
I3
aI8
aI6670
aI546
aI5938
aI2586
aI24
aI60
aI3
aI4543
aI2410
aI7
aI6670
aI5109
aI75
aI6880
aI14170
aI24246
aI6709
aI24247
aI5
aI9252
aI63765
asg6
S'The modern wind power industry began in 1979 with the serial production of wind turbines by Danish manufacturers Kuriant  Vestas  Nordtank  and Bonus .'
p11
ss.