(dp1
S'input'
p2
(dp3
S'encoded'
p4
(lp5
I64
aI2179
aI394
aI3830
aI3
aI475
aI7
aI9441
aI13132
aI3102
aI24
aI276
aI381
asS'ori'
p6
S'This house would permit the use of performance enhancing drugs in professional sports'
p7
ssS'output'
p8
(dp9
g4
(lp10
I13922
aI12269
aI11
aI12
aI416
aI75
aI12349
aI24
aI725
aI276
aI381
aI158
aI15059
aI6903
aI5
aI7834
aI13991
aI14016
aI1108
aI4883
aI7964
aI12246
aI576
aI1801
aI28300
aI7985
aI262
aI5
aI10723
aI63765
asg6
S'Anabolic steroids have been used by athletes in many professional sports  including cricket  track and field  weightlifting  bodybuilding  shot put  cycling  baseball  wrestling  mixed martial arts  boxing  and football .'
p11
ss.