(dp1
S'input'
p2
(dp3
S'encoded'
p4
(lp5
I64
aI2179
aI43
aI63
aI2157
aI2565
aI493
aI19084
aI382
aI4850
asS'ori'
p6
S"This house believes that Israel's 2008-2009 military operations against Gaza were justified"
p7
ssS'output'
p8
(dp9
g4
(lp10
I2659
aI174
aI2173
aI63
aI3
aI4160
aI394
aI316
aI121
aI45
aI2802
aI19088
aI13668
aI81
aI17377
aI11994
aI311
aI2659
aI63765
asg6
S'Israel also stated that the mission would be unable to question Palestinian militants who fired rockets at Israel  .'
p11
ss.