(dp1
S'input'
p2
(dp3
S'encoded'
p4
(lp5
I64
aI2179
aI43
aI24
aI3
aI475
aI7
aI12436
aI3364
asS'ori'
p6
S'This house believes in the use of affirmative action'
p7
ssS'output'
p8
(dp9
g4
(lp10
I8261
aI57745
aI1926
aI7
aI3
aI8
aI38330
aI10165
aI3921
aI1533
aI7076
aI81
aI382
aI513
aI63765
asg6
S'Carl Hagenbeck  inventor of the modern zoos  exhibited animals beside humans who were considered "savages"  .'
p11
ss.