(dp1
S'input'
p2
(dp3
S'encoded'
p4
(lp5
I64
aI2179
aI43
aI17
aI4941
aI857
aI3211
asS'ori'
p6
S'This house believes social deprivation causes crime'
p7
ssS'output'
p8
(dp9
g4
(lp10
I3
aI27623
aI116
aI93
aI45
aI4895
aI3
aI14276
aI55
aI3141
aI12
aI27623
aI8935
aI116
aI8935
aI63
aI78
aI87
aI14276
aI63765
asg6
S'The deviant is one to whom the label has successfully been applied; deviant behavior is behavior that people so label  .'
p11
ss.