(dp1
S'input'
p2
(dp3
S'encoded'
p4
(lp5
I64
aI2179
aI43
aI17
aI4941
aI857
aI3211
asS'ori'
p6
S'This house believes social deprivation causes crime'
p7
ssS'output'
p8
(dp9
g4
(lp10
I2025
aI7
aI3
aI145
aI957
aI45
aI979
aI8803
aI648
aI2722
aI298
aI3939
aI5
aI3862
aI182
aI5396
aI63765
asg6
S'Supporters of the system point to lower sexual assault rates when adults and children are separated .'
p11
ss.