(dp1
S'input'
p2
(dp3
S'encoded'
p4
(lp5
I64
aI2179
aI43
aI24
aI3
aI475
aI7
aI12436
aI3364
asS'ori'
p6
S'This house believes in the use of affirmative action'
p7
ssS'output'
p8
(dp9
g4
(lp10
I14
aI3
aI237
aI3728
aI3
aI2533
aI55
aI2754
aI317
aI75
aI3
aI282
aI2178
aI60
aI3179
aI138
aI5895
aI187
aI3503
aI45
aI1199
aI4615
aI63765
asg6
S'On the first measure  the Convention has gained near-universal acceptance by the international community  with fewer than twenty (mostly small) states yet to become parties  .'
p11
ss.