(dp1
S'input'
p2
(dp3
S'encoded'
p4
(lp5
I64
aI2179
aI394
aI4261
aI8667
aI3
aI9361
aI5
aI17069
asS'ori'
p6
S'This house would prohibit burning the stars and stripes'
p7
ssS'output'
p8
(dp9
g4
(lp10
I14
aI2871
aI1210
aI8844
aI63765
aI4505
aI6955
aI25
aI5262
aI7733
aI311
aI89
aI8390
aI557
aI5156
aI3
aI2218
aI2219
aI2114
aI1863
aI14
aI5463
aI1193
aI24
aI11685
aI63765
asg6
S'On October 15  1965  David J . Miller burned his draft card at a rally held near the Armed Forces Induction Center on Whitehall Street in Manhattan .'
p11
ss.