(dp1
S'input'
p2
(dp3
S'encoded'
p4
(lp5
I64
aI2179
aI43
aI63
aI2659
aI417
aI1690
aI3
aI12048
aI7
aI19084
asS'ori'
p6
S'This house believes that Israel should lift the blockade of Gaza'
p7
ssS'output'
p8
(dp9
g4
(lp10
I2659
aI547
aI117
aI913
aI1183
aI7
aI2409
aI5092
aI736
aI19084
aI1460
aI45
aI2116
aI63765
asg6
S'Israel allowed only limited amounts of industrial fuel into Gaza prior to June 2010  .'
p11
ss.