(dp1
S'input'
p2
(dp3
S'encoded'
p4
(lp5
I64
aI2179
aI394
aI3830
aI3
aI475
aI7
aI9441
aI13132
aI3102
aI24
aI276
aI381
asS'ori'
p6
S'This house would permit the use of performance enhancing drugs in professional sports'
p7
ssS'output'
p8
(dp9
g4
(lp10
I24
aI3
aI4417
aI13160
aI4562
aI92
aI1501
aI809
aI8257
aI7
aI2613
aI4562
aI116
aI1038
aI41
aI34664
aI1177
aI7
aI475
aI3725
aI75
aI63765
aI475
aI653
aI6029
aI7
aI206
aI89
aI5315
aI73
aI36636
aI17
aI5954
aI4817
aI73
aI959
aI3661
aI63
aI116
aI1404
aI73
aI13678
aI75
aI3
aI475
aI36636
aI475
aI24
aI6398
aI24
aI92
aI134
aI116
aI12705
aI6893
asg6
S'In 1987  the DSM-IIIR category "psychoactive substance abuse " which includes former concepts of drug abuse is defined as "a maladaptive pattern of use indicated by . .continued use despite knowledge of having a persistent or recurrent social  occupational  psychological or physical problem that is caused or exacerbated by the use (or by) recurrent use in situations in which it is physically hazardous ."'
p11
ss.