(dp1
S'input'
p2
(dp3
S'encoded'
p4
(lp5
I64
aI2179
aI394
aI5370
aI3
aI5286
asS'ori'
p6
S'This house would abolish the monarchy'
p7
ssS'output'
p8
(dp9
g4
(lp10
I3
aI11023
aI5
aI9062
aI566
aI60
aI132
aI16165
aI182
aI162
aI9483
aI75
aI3
aI566
aI2134
aI63765
asg6
S'The invitation and expenses associated with these undertakings are usually borne by the associated organization .'
p11
ss.