(dp1
S'input'
p2
(dp3
S'encoded'
p4
(lp5
I64
aI2179
aI43
aI63
aI3
aI4538
aI7
aI4434
aI7793
aI283
aI45
aI3586
aI417
aI316
aI577
asS'ori'
p6
S'This house believes that the sale of violent video games to minors should be banned'
p7
ssS'output'
p8
(dp9
g4
(lp10
I1480
aI2100
aI341
aI1074
aI4257
aI648
aI60
aI89
aI1689
aI1942
aI12120
aI92
aI296
aI24
aI1012
aI73
aI5012
aI806
aI4435
aI5
aI8798
aI63765
asg6
S'Commonly included depictions include murder  assault with a deadly weapon  accidents which result in death or severe injury  suicide  and torture .'
p11
ss.