(dp1
S'input'
p2
(dp3
S'encoded'
p4
(lp5
I64
aI2179
aI394
aI16642
aI1376
aI5269
asS'ori'
p6
S'This house would subsidize poor communities'
p7
ssS'output'
p8
(dp9
g4
(lp10
I3964
aI23067
aI11604
aI5
aI23068
aI182
aI479
aI23109
aI9274
aI45
aI1376
aI3941
aI63
aI155
aI139
aI475
aI45
aI2290
aI3964
aI311
aI5925
aI14971
aI6776
aI63765
asg6
S'Food stamps  vouchers  and coupons are near-cash paper tokens targeted to poor households that they can use to purchase food at authorized retail locations .'
p11
ss.