(dp1
S'input'
p2
(dp3
S'encoded'
p4
(lp5
I64
aI2179
aI43
aI63
aI11083
aI10046
aI417
aI316
aI89
aI3135
aI4603
asS'ori'
p6
S'This house believes that Holocaust denial should be a criminal offence'
p7
ssS'output'
p8
(dp9
g4
(lp10
I14
aI2805
aI18382
aI374
aI375
aI5598
aI3
aI11083
aI5005
aI3
aI24037
aI4510
aI7
aI3
aI2406
aI257
aI273
aI122
aI51
aI31216
aI6856
aI45
aI2011
aI223
aI3
aI4307
aI40
aI2118
aI87
aI725
aI6432
asg6
S'On 28 February  Irving once again questioned the Holocaust  asking "Given the ruthless efficiency of the Germans  if there was an extermination programme to kill all the Jews  how come so many survived ?"'
p11
ss.