(dp1
S'input'
p2
(dp3
S'encoded'
p4
(lp5
I64
aI2179
aI394
aI5370
aI3
aI5286
asS'ori'
p6
S'This house would abolish the monarchy'
p7
ssS'output'
p8
(dp9
g4
(lp10
I3
aI5354
aI7
aI4138
aI3036
aI122
aI99
aI2435
aI5337
aI114
aI24035
aI122
aI1031
aI45
aI12185
aI25
aI284
aI2868
aI24
aI25
aI6271
aI3866
aI63765
asg6
S'The office of Lord Protector was not formally hereditary  though Cromwell was able to nominate his own successor in his son  Richard .'
p11
ss.