(dp1
S'input'
p2
(dp3
S'encoded'
p4
(lp5
I64
aI2179
aI394
aI117
aI7428
aI21151
aI34
aI11389
aI2042
aI24
aI4364
asS'ori'
p6
S'This house would only teach abstinence for sex education in schools'
p7
ssS'output'
p8
(dp9
g4
(lp10
I134
aI116
aI2263
aI63
aI64
aI47
aI48
aI45
aI51
aI3226
aI24
aI4155
aI7
aI887
aI20123
aI3226
aI3
aI696
aI7
aI3861
aI16513
aI5
aI3433
aI5
aI1985
aI544
aI45
aI2513
aI291
aI3950
aI17
aI3527
aI63765
asg6
S'It is feared that this will lead to an increase in spread of HIV/AIDS among adolescents  increase the number of unwanted pregnancies and abortions  and give rise to conflict between contemporary social values .'
p11
ss.