(dp1
S'input'
p2
(dp3
S'encoded'
p4
(lp5
I64
aI2179
aI394
aI475
aI2135
aI2194
aI6198
aI45
aI2041
aI5
aI13926
aI8732
aI63
aI1735
aI12708
aI5
aI5599
aI24
aI2203
aI45
aI1397
aI7149
aI5
aI12311
aI271
aI5119
aI4948
asS'ori'
p6
S'This house would use foreign aid funds to research and distribute software that allows bloggers and journalists in non-democratic countries to evade censorship and conceal their online activities'
p7
ssS'output'
p8
(dp9
g4
(lp10
I9797
aI3205
aI159
aI41
aI60986
aI5
aI15461
aI182
aI89
aI2386
aI1380
aI7
aI2432
aI2127
aI5
aI139
aI400
aI316
aI416
aI45
aI12030
aI7372
aI10417
aI113
aI298
aI443
aI9797
aI116
aI1587
aI75
aI5005
aI34
aI89
aI9797
aI736
aI3
aI1643
aI3657
aI63
aI116
aI416
aI14
aI3
aI3851
aI3328
aI73
aI75
aI5005
aI34
aI89
aI9797
aI19
aI89
aI3657
aI63
aI98
aI99
aI2931
aI14
aI3
aI3851
aI3328
aI63765
asg6
S'Translation services such as babelfish .yahoo .com  and translate .google .com  are a specific type of proxy website and can sometimes be used to display blocked pages even when no translation is needed by asking for a translation into the same language that is used on the original site or by asking for a translation from a language that does not appear on the original site .'
p11
ss.