(dp1
S'input'
p2
(dp3
S'encoded'
p4
(lp5
I64
aI2179
aI43
aI223
aI2138
aI11
aI89
aI21
aI45
aI2185
aI372
asS'ori'
p6
S'This house believes all nations have a right to nuclear weapons'
p7
ssS'output'
p8
(dp9
g4
(lp10
I2450
aI55
aI217
aI6847
aI2302
aI15
aI1413
aI5
aI15185
aI4472
aI92
aI11
aI89
aI1051
aI7
aI63765
asg6
S'India has most probably bought both land and ship variants which have a range of 120&nbsp;km .'
p11
ss.