(dp1
S'input'
p2
(dp3
S'encoded'
p4
(lp5
I64
aI2179
aI394
aI16756
aI20435
asS'ori'
p6
S'This house would criminalize blasphemy'
p7
ssS'output'
p8
(dp9
g4
(lp10
I24
aI4720
aI10427
aI4213
aI7
aI18887
aI5
aI12229
aI9833
aI63
aI5708
aI38230
aI45
aI7564
aI9937
aI5
aI26531
aI7
aI5672
aI3520
aI382
aI20436
aI63765
asg6
S'In 1713  Peter Browne  bishop of Cork and Ross preached that loyal toasts to "the glorious  pious  and immortal memory" of King William were blasphemous  .'
p11
ss.