(dp1
S'input'
p2
(dp3
S'encoded'
p4
(lp5
I64
aI2179
aI43
aI63
aI134
aI116
aI400
aI21
aI34
aI3
aI260
aI45
aI3439
aI57
aI7
aI2381
asS'ori'
p6
S'This house believes that it is sometimes right for the government to restrict freedom of speech'
p7
ssS'output'
p8
(dp9
g4
(lp10
I155
aI133
aI63
aI3
aI1998
aI1629
aI4884
aI75
aI876
aI1074
aI282
aI13634
aI45
aI92
aI3
aI102
aI116
aI99
aI89
aI171
aI5
aI394
aI296
aI24
aI4490
aI7
aI132
aI9160
aI75
aI5524
aI63765
asg6
S'They believe that the phrase "rights set forth by law" might include international conventions to which the UK is not a party  and would result in incorporation of these instruments by stealth .'
p11
ss.