(dp1
S'input'
p2
(dp3
S'encoded'
p4
(lp5
I64
aI2179
aI43
aI63
aI3
aI4990
aI4991
aI116
aI4850
aI24
aI12166
aI3
aI475
aI7
aI3532
aI3290
aI7
aI4714
asS'ori'
p6
S'This house believes that the Catholic Church is justified in forbidding the use of barrier methods of contraception'
p7
ssS'output'
p8
(dp9
g4
(lp10
I3
aI4757
aI63
aI45881
aI60
aI351
aI13160
aI840
aI1592
aI2189
aI95
aI41
aI89
aI13788
aI116
aI7430
aI63765
asg6
S'The suggestion that douching with any substance immediately following intercourse works as a contraceptive is untrue .'
p11
ss.