(dp1
S'input'
p2
(dp3
S'encoded'
p4
(lp5
I64
aI2179
aI43
aI3
aI626
aI187
aI116
aI1989
aI34
aI3102
aI2223
asS'ori'
p6
S"This house believes the United States is responsible for Mexico's drugs war"
p7
ssS'output'
p8
(dp9
g4
(lp10
I2762
aI8788
aI116
aI51
aI3099
aI7
aI3
aI2145
aI63765
aI3933
aI7
aI3934
aI3935
aI3892
aI5
aI8766
aI1881
aI45
aI19139
aI3
aI3142
aI7
aI3892
aI736
aI2299
aI24
aI51
aI1222
aI45
aI16543
aI3
aI1157
aI2613
aI8679
aI7
aI372
aI63765
asg6
S'Project Gunrunner is an operation of the U .S . Bureau of Alcohol  Tobacco  Firearms and Explosives (ATF) intended to stem the flow of firearms into Mexico  in an attempt to deprive the Mexican drug cartels of weapons  .'
p11
ss.