(dp1
S'input'
p2
(dp3
S'encoded'
p4
(lp5
I64
aI2179
aI394
aI5370
aI3
aI5286
asS'ori'
p6
S'This house would abolish the monarchy'
p7
ssS'output'
p8
(dp9
g4
(lp10
I1420
aI1202
aI7
aI4631
aI5286
aI1074
aI3
aI5781
aI369
aI6487
aI75
aI131
aI153
aI1841
aI19
aI3
aI1643
aI5
aI3
aI1260
aI4168
aI7
aI6297
aI7
aI3
aI6613
aI278
aI63765
asg6
S'Historical examples of elective monarchy include the Holy Roman Emperors (chosen by prince-electors  but often coming from the same dynasty)  and the free election of kings of the PolishLithuanian Commonwealth .'
p11
ss.