(dp1
S'input'
p2
(dp3
S'encoded'
p4
(lp5
I64
aI2179
aI43
aI63
aI6670
aI546
aI417
aI316
aI89
aI1334
aI3108
aI7
aI4849
aI1886
aI2855
asS'ori'
p6
S'This house believes that wind power should be a primary focus of future energy supply'
p7
ssS'output'
p8
(dp9
g4
(lp10
I50119
aI5181
aI73
aI11683
aI5181
aI463
aI1817
aI1476
aI3
aI413
aI3
aI5152
aI55
aI45
aI316
aI8095
aI63765
asg6
S'Subcritical reactors or fusion reactors could greatly reduce the time the waste has to be stored  .'
p11
ss.