(dp1
S'input'
p2
(dp3
S'encoded'
p4
(lp5
I64
aI2179
aI43
aI223
aI2138
aI11
aI89
aI21
aI45
aI2185
aI372
asS'ori'
p6
S'This house believes all nations have a right to nuclear weapons'
p7
ssS'output'
p8
(dp9
g4
(lp10
I1381
aI3
aI24031
aI7
aI3
aI943
aI2131
aI754
aI3
aI2237
aI2223
aI5
aI1817
aI1016
aI5317
aI291
aI3
aI626
aI187
aI5
aI3
aI2304
aI2133
aI943
aI2488
aI2868
aI15
aI2138
aI485
aI24
aI89
aI1021
aI45
aI3
aI859
aI5556
aI7
aI89
aI419
aI1445
aI696
aI7
aI11915
aI2185
aI11521
aI24
aI15
aI2138
aI63765
asg6
S'Although the dissolution of the Soviet Union ended the Cold War and greatly reduced tensions between the United States and the Russian Federation (the Soviet Union\'s formal successor state)  both nations remained in a "nuclear stand-off" due to the continuing presence of a very large number of deliverable nuclear warheads in both nations .'
p11
ss.