(dp1
S'input'
p2
(dp3
S'encoded'
p4
(lp5
I64
aI2179
aI43
aI63
aI3
aI21
aI45
aI12715
aI417
aI99
aI316
aI2897
asS'ori'
p6
S'This house believes that the right to asylum should not be absolute'
p7
ssS'output'
p8
(dp9
g4
(lp10
I8446
aI2895
aI2156
aI5
aI4585
aI122
aI8764
aI4307
aI382
aI9249
aI5
aI17377
aI19
aI271
aI6025
aI5
aI15561
aI382
aI2552
aI1592
aI3
aI2223
aI3
aI696
aI7
aI4307
aI24
aI6048
aI2203
aI8231
aI100
aI809
aI40801
aI4307
aI382
aI5175
aI864
aI7
aI271
aI4492
aI24
aI8434
aI40802
aI5
aI248
aI385
aI7
aI3
aI3912
aI2895
aI75
aI2658
aI638
aI3
aI1592
aI3
aI2223
aI3
aI2711
aI8231
aI24
aI25484
aI19
aI45
aI24
aI2669
aI19
aI45
aI24
aI40803
aI19
aI45
aI24
aI2657
aI19
aI45
aI24
aI5963
aI19
aI45
aI5
aI24
aI6129
aI19
aI45
aI63765
asg6
S'Jewish bank accounts and property was confiscated  Jews were arrested and fired from their jobs  and synagogues were attacked Following the 1948 Arab-Israeli War  the number of Jews in Arab countries fell steeply: some 10 000 former Palestinain Jews were forced out of their homes in Jerusalem  Hebron and other cities of the West Bank by Jordan throughout the war; following the war the numbers fell in Yemen from 55 000 to 4 000; in Iraq from 135 000 to 6 000; in Aden from 8 000 to 800; in Egypt from 80 000 to 50 000; in Libya from 38 000 to 4 000; and in Syria from 30 000 to 5 000  .'
p11
ss.