(dp1
S'input'
p2
(dp3
S'encoded'
p4
(lp5
I64
aI2179
aI43
aI63
aI134
aI116
aI400
aI21
aI34
aI3
aI260
aI45
aI3439
aI57
aI7
aI2381
asS'ori'
p6
S'This house believes that it is sometimes right for the government to restrict freedom of speech'
p7
ssS'output'
p8
(dp9
g4
(lp10
I34
aI4679
aI45
aI790
aI755
aI73
aI99
aI3724
aI417
aI11
aI3
aI710
aI45
aI512
aI5136
asg6
S'It\'s for Parliament to decide whether or not respondents should have the ability to recover costs ."'
p11
ss.