(dp1
S'input'
p2
(dp3
S'encoded'
p4
(lp5
I64
aI2179
aI394
aI2017
aI3807
aI314
aI3433
asS'ori'
p6
S'This house would ban partial birth abortions'
p7
ssS'output'
p8
(dp9
g4
(lp10
I3535
aI12
aI3141
aI4602
aI34
aI807
aI45
aI6455
aI4821
aI34
aI3433
aI24
aI3052
aI7
aI3460
aI5013
aI63765
asg6
S'Doctors "have been successfully sued for failure to refer patients for late-term abortions in cases of fetal abnormalities .'
p11
ss.