(dp1
S'input'
p2
(dp3
S'encoded'
p4
(lp5
I64
aI2179
aI394
aI2017
aI628
asS'ori'
p6
S'This house would ban gambling'
p7
ssS'output'
p8
(dp9
g4
(lp10
I134
aI116
aI5810
aI63
aI628
aI14680
aI88
aI24
aI759
aI316
aI2794
aI75
aI3
aI284
aI10517
aI4859
aI1191
aI3
aI580
aI7
aI1880
aI63765
asg6
S"It is believed that gambling addiction may  in part  be influenced by the gambler's own erroneous beliefs about the nature of probability ."
p11
ss.