(dp1
S'input'
p2
(dp3
S'encoded'
p4
(lp5
I64
aI2179
aI394
aI2773
aI12505
asS'ori'
p6
S'This house would embrace multiculturalism'
p7
ssS'output'
p8
(dp9
g4
(lp10
I26038
aI5
aI26055
aI7
aI12505
aI5
aI15307
aI2042
aI139
aI316
aI9429
aI41
aI63765
asg6
S"Kincheloe and Steinberg's taxonomy of multiculturalism and multicultural education can be summarised as follows:  ."
p11
ss.