(dp1
S'input'
p2
(dp3
S'encoded'
p4
(lp5
I64
aI2179
aI394
aI5284
aI150
aI3987
asS'ori'
p6
S'This house would reintroduce national service'
p7
ssS'output'
p8
(dp9
g4
(lp10
I136
aI138
aI2639
aI1980
aI382
aI5807
aI736
aI3
aI4169
aI2157
aI24
aI64
aI998
aI291
aI3
aI2439
aI5
aI63765
asg6
S'More than 2 .6 million men were inducted into the French military in this way between the years 1800 and 1813  .'
p11
ss.