(dp1
S'input'
p2
(dp3
S'encoded'
p4
(lp5
I64
aI2179
aI43
aI24
aI3
aI475
aI7
aI12436
aI3364
asS'ori'
p6
S'This house believes in the use of affirmative action'
p7
ssS'output'
p8
(dp9
g4
(lp10
I3
aI28932
aI28933
aI28934
aI3
aI150
aI2266
aI150
aI216
aI910
aI667
aI3386
aI15155
aI171
aI2548
aI7
aI5714
aI626
aI44554
aI2548
aI7
aI44555
aI22713
aI2138
aI2344
aI7
aI3
aI2318
aI44556
aI1136
aI44557
aI2548
aI7
aI38806
aI3
aI8446
aI720
aI2344
aI5
aI3
aI965
aI128
aI7
aI12125
aI182
aI887
aI3
aI2825
aI217
aI1480
aI2840
aI24
aI64
aI998
aI63765
asg6
S'The Ku Klux Klan  the National Alliance  National Socialist Movement (United States)  New Black Panther Party  Nation of Islam  United Nuwaubian Nation of Moors  Aryan Nations  League of the South  Voz de Aztlan  Nation of Yahweh  the Jewish Defense League  and the White Order of Thule are among the institutions most commonly identified in this way .'
p11
ss.