(dp1
S'input'
p2
(dp3
S'encoded'
p4
(lp5
I64
aI2179
aI394
aI60
aI23587
asS'ori'
p6
S'This house would re-engage with Myanmar'
p7
ssS'output'
p8
(dp9
g4
(lp10
I14
aI2555
aI1405
aI2161
aI29806
aI29807
aI21143
aI12142
aI14031
aI9930
aI588
aI45
aI8641
aI25
aI234
aI63
aI16844
aI5586
aI60
aI3
aI12800
aI6073
aI55
aI3019
aI41
aI23587
aI98
aI99
aI1909
aI2931
aI45
aI1579
aI34
aI48410
aI5
aI6945
aI45
aI808
aI75
aI63765
aI55
aI12
aI3
aI10931
aI416
aI298
aI357
aI250
aI60
aI23587
aI131
aI588
aI45
aI64
aI3517
aI134
aI55
aI99
aI12
aI482
aI1381
aI134
aI55
aI12
aI725
aI2439
aI1719
asg6
S'On September 28  Prime Minister Datuk Seri Abdullah Ahmad Badawi stood up to voice his view that ASEAN\'s constructive engagement with the Burmese junta has failed  as Myanmar does not occasionally appear to push for democratisation and fails to abide by ASEAN\'s demands:  .   "It has been the formula used when we deal with Myanmar but up to this stage  it has not been successful although it has been many years already'
p11
ss.