(dp1
S'input'
p2
(dp3
S'encoded'
p4
(lp5
I64
aI2179
aI394
aI2773
aI12505
asS'ori'
p6
S'This house would embrace multiculturalism'
p7
ssS'output'
p8
(dp9
g4
(lp10
I24
aI88
aI3
aI51803
aI5162
aI211
aI7074
aI92
aI3542
aI14
aI3
aI4
aI63
aI3
aI51803
aI47
aI99
aI3423
aI73
aI51807
aI351
aI3904
aI2969
aI73
aI22
aI2929
aI63765
asg6
S'In May 2007  the AoC released its "Implementation Plan 2007-2009"  which elaborated on the notion that the AoC will not replace or reconstitute any existing plans or political channels .'
p11
ss.