(dp1
S'input'
p2
(dp3
S'encoded'
p4
(lp5
I64
aI2179
aI394
aI190
aI3
aI21
aI45
aI3895
aI834
asS'ori'
p6
S'This house would limit the right to bear arms'
p7
ssS'output'
p8
(dp9
g4
(lp10
I100
aI833
aI133
aI63
aI3
aI70
aI6006
aI60
aI3
aI21
aI45
aI1576
aI5
aI3895
aI834
aI3537
aI75
aI3
aI1950
aI3264
aI45
aI3
aI626
aI187
aI2475
aI5
aI64
aI70
aI55
aI615
aI3
aI1950
aI3264
aI45
aI89
aI60462
aI5340
aI19
aI89
aI2378
aI1795
aI63765
asg6
S'Some opponents believe that the law conflicts with the right to keep and bear arms protected by the Second Amendment to the United States Constitution  and this law has modified the Second Amendment to a revocable privilege from a fundamental protection .'
p11
ss.