(dp1
S'input'
p2
(dp3
S'encoded'
p4
(lp5
I64
aI2179
aI13605
aI2258
aI45
aI2194
asS'ori'
p6
S'This house prefers trade to aid'
p7
ssS'output'
p8
(dp9
g4
(lp10
I4720
aI1147
aI22999
aI18560
aI22999
aI1906
aI11155
aI88
aI122
aI89
aI4743
aI8928
aI63765
asg6
S'Peter Thomas Bauer  Baron Bauer (6 November 1915  Budapest - 2 May 2002  London) was a developmental economist .'
p11
ss.