(dp1
S'input'
p2
(dp3
S'encoded'
p4
(lp5
I64
aI2179
aI394
aI5370
aI7146
aI4585
aI2446
asS'ori'
p6
S'This house would abolish intellectual property rights'
p7
ssS'output'
p8
(dp9
g4
(lp10
I3
aI626
aI187
aI12717
aI5354
aI32
aI134
aI2010
aI63
aI3
aI1104
aI116
aI443
aI1494
aI34
aI650
aI4294
aI63765
asg6
S'The United States Copyright Office makes it clear that the technique is no substitute for actual registration  .'
p11
ss.