(dp1
S'input'
p2
(dp3
S'encoded'
p4
(lp5
I64
aI2179
aI394
aI2773
aI12505
asS'ori'
p6
S'This house would embrace multiculturalism'
p7
ssS'output'
p8
(dp9
g4
(lp10
I2023
aI12468
aI26
aI4712
aI3369
aI3
aI2136
aI7
aI2023
aI12505
aI63765
aI57974
aI524
aI864
aI63
aI725
aI2637
aI3237
aI159
aI41
aI1443
aI33002
aI19245
aI45
aI316
aI5605
aI24
aI14904
aI5
aI1193
aI54440
aI182
aI1032
aI5993
aI60
aI2023
aI5
aI368
aI3905
aI63765
aI42
aI174
aI8375
aI1411
aI1191
aI3
aI696
aI7
aI2068
aI5307
aI81
aI182
aI99
aI773
aI19865
aI7464
aI736
aI2547
aI63765
aI99
aI5205
aI843
aI28
aI73
aI63765
aI42
aI7101
aI63
aI12505
aI95
aI1796
aI24
aI3168
aI138
aI24
aI1485
asg6
S'Canadian Daniel Stoffman\'s book "Who Gets In" questions the policy of Canadian multiculturalism . Stoffman points out that many cultural practices  such as allowing dog meat to be served in restaurants and street cockfighting  are simply incompatible with Canadian and Western culture  . He also raises concern about the number of recent immigrants who are not being linguistically integrated into Canada (i .e .  not learning either English or French)  . He stresses that multiculturalism works better in theory than in practice'
p11
ss.