(dp1
S'input'
p2
(dp3
S'encoded'
p4
(lp5
I64
aI2179
aI43
aI63
aI3
aI4990
aI4991
aI116
aI4850
aI24
aI12166
aI3
aI475
aI7
aI3532
aI3290
aI7
aI4714
asS'ori'
p6
S'This house believes that the Catholic Church is justified in forbidding the use of barrier methods of contraception'
p7
ssS'output'
p8
(dp9
g4
(lp10
I41
aI89
aI1945
aI1460
aI45
aI73
aI397
aI3271
aI45
aI881
aI652
aI45
aI3
aI49777
aI89
aI1945
aI366
aI314
aI45
aI1945
aI63
aI3
aI4906
aI55
aI99
aI6942
aI51
aI43793
aI19
aI3
aI49778
aI881
aI3
aI475
aI7
aI7445
aI12730
aI1991
aI73
aI49779
aI759
aI7
aI3
aI3262
aI7
aI1610
aI6585
aI19
aI89
aI1047
aI7445
aI49780
aI759
aI7
aI4256
aI19616
aI7250
aI63765
asg6
S'as a check prior to or during pregnancy  to prevent harm to the babyas a check after birth  to check that the baby has not caught an STI from the motherto prevent the use of infected donated blood or organsas part of the process of contact tracing from a known infected individualas part of mass epidemiological surveillance  .'
p11
ss.