(dp1
S'input'
p2
(dp3
S'encoded'
p4
(lp5
I64
aI2179
aI43
aI63
aI2157
aI2565
aI493
aI19084
aI382
aI4850
asS'ori'
p6
S"This house believes that Israel's 2008-2009 military operations against Gaza were justified"
p7
ssS'output'
p8
(dp9
g4
(lp10
I3
aI3623
aI7
aI3
aI2218
aI2219
aI7
aI2659
aI122
aI5523
aI41
asg6
S'the reaction of the armed forces of Israel was condemned as "disproportional'
p11
ss.