(dp1
S'input'
p2
(dp3
S'encoded'
p4
(lp5
I64
aI2179
aI394
aI190
aI3
aI21
aI45
aI3895
aI834
asS'ori'
p6
S'This house would limit the right to bear arms'
p7
ssS'output'
p8
(dp9
g4
(lp10
I443
aI2446
aI417
aI1978
aI316
aI547
aI45
aI316
aI788
aI1931
aI75
aI3
aI260
asg6
S'no rights should ever be allowed to be taken away by the government'
p11
ss.