(dp1
S'input'
p2
(dp3
S'encoded'
p4
(lp5
I64
aI2179
aI43
aI223
aI2138
aI11
aI89
aI21
aI45
aI2185
aI372
asS'ori'
p6
S'This house believes all nations have a right to nuclear weapons'
p7
ssS'output'
p8
(dp9
g4
(lp10
I3
aI943
aI2326
aI459
aI3
aI3414
aI3601
aI7
aI809
aI11859
aI2217
aI11860
aI11861
aI1018
aI5
aI1151
aI24
aI325
aI11862
aI7
aI3
aI394
aI475
aI3
aI905
aI41
aI89
aI11863
aI3820
aI45
aI11864
aI41
aI165
aI41
aI748
aI3
aI1560
aI2419
aI63765
asg6
S"The Soviet program  under the suspicious watch of former NKVD chief Lavrenty Beria (a participant and victor in Stalin's Great Purge of the 1930s)  would use the Report as a blueprint  seeking to duplicate as much as possible the American effort ."
p11
ss.