(dp1
S'input'
p2
(dp3
S'encoded'
p4
(lp5
I64
aI2179
aI43
aI63
aI323
aI417
aI10009
aI211
aI9035
aI249
aI45
aI3426
aI211
aI2144
aI595
aI17
aI96
asS'ori'
p6
S'This house believes that Europe should weaken its austerity measures to guarantee its citizens greater social support'
p7
ssS'output'
p8
(dp9
g4
(lp10
I24
aI3
aI8300
aI9574
aI221
aI75
aI89
aI94
aI7
aI6085
aI5599
aI134
aI116
aI1966
aI63
aI6095
aI417
aI836
aI51
aI9099
aI2130
aI5
aI972
aI9308
aI45
aI9575
aI19
aI7931
aI675
aI3120
aI500
aI63765
asg6
S'In the documentary Debtocracy made by a group of Greek journalists  it is argued that Greece should create an audit commission  and force bondholders to suffer from losses  like Ecuador did .'
p11
ss.