(dp1
S'input'
p2
(dp3
S'encoded'
p4
(lp5
I64
aI2179
aI43
aI63
aI134
aI116
aI400
aI21
aI34
aI3
aI260
aI45
aI3439
aI57
aI7
aI2381
asS'ori'
p6
S'This house believes that it is sometimes right for the government to restrict freedom of speech'
p7
ssS'output'
p8
(dp9
g4
(lp10
I57
aI7
aI5224
aI116
aI174
aI3467
aI3537
aI75
aI1647
aI159
aI41
aI3
aI57
aI7
aI5224
aI5
aI1795
aI7
aI3261
aI2784
aI7
aI7050
aI24
aI2547
aI63765
asg6
S'Freedom of information is also explicitly protected by acts such as the Freedom of Information and Protection of Privacy Act of Ontario  in Canada .'
p11
ss.