(dp1
S'input'
p2
(dp3
S'encoded'
p4
(lp5
I64
aI2179
aI394
aI2773
aI12505
asS'ori'
p6
S'This house would embrace multiculturalism'
p7
ssS'output'
p8
(dp9
g4
(lp10
I24
aI64
aI998
aI155
aI88
aI637
aI4593
aI5
aI1485
aI223
aI7
aI271
aI2637
aI3787
aI131
aI1579
aI3610
aI45
aI155
aI47
aI4883
aI271
aI2671
aI2444
aI237
aI63765
asg6
S'In this way  they may still retain and practice all of their cultural traditions but "when push comes to shove" they will put their host nation\'s interests first .'
p11
ss.