(dp1
S'input'
p2
(dp3
S'encoded'
p4
(lp5
I64
aI2179
aI394
aI4325
aI2042
aI270
aI89
aI11605
aI3324
asS'ori'
p6
S'This house would fund education using a voucher scheme'
p7
ssS'output'
p8
(dp9
g4
(lp10
I3225
aI3007
aI451
aI2474
aI45
aI4549
aI89
aI44577
aI2489
aI45
aI3
aI3851
aI3113
aI63765
asg6
S'Accordingly  Paul introduced legislation to add a sunset clause to the original authorization  .'
p11
ss.