(dp1
S'input'
p2
(dp3
S'encoded'
p4
(lp5
I64
aI2179
aI394
aI2998
aI3
aI4360
aI7
aI3249
aI6804
aI24
aI3
aI102
asS'ori'
p6
S'This house would encourage the creation of private universities in the UK'
p7
ssS'output'
p8
(dp9
g4
(lp10
I89
aI3249
aI2190
aI55
aI3
aI710
aI45
aI3108
aI223
aI4825
aI2445
aI5
aI2351
aI2635
aI7624
aI2386
aI5371
aI63765
asg6
S'A private business has the ability to focus all relevant human and financial resources onto specific functions .'
p11
ss.