(dp1
S'input'
p2
(dp3
S'encoded'
p4
(lp5
I64
aI2179
aI394
aI2773
aI12505
asS'ori'
p6
S'This house would embrace multiculturalism'
p7
ssS'output'
p8
(dp9
g4
(lp10
I30588
aI60
aI36073
aI5
aI11837
aI3
aI1685
aI7004
aI62577
aI3
aI18780
aI7
aI3447
aI1210
aI62575
aI55
aI89
aI44572
aI116
aI3
aI4121
aI7
aI5480
aI446
aI25
aI42989
aI63765
asg6
S'Reunited with Vera and watching the setting sun gilding the Statue of Liberty  David Quixano has a prophetic vision: "It is the Fires of God round His Crucible .'
p11
ss.