(dp1
S'input'
p2
(dp3
S'encoded'
p4
(lp5
I64
aI2179
aI394
aI5842
aI3569
aI446
aI13498
asS'ori'
p6
S'This house would introduce year round schooling'
p7
ssS'output'
p8
(dp9
g4
(lp10
I34
aI1928
aI292
aI31739
aI4364
aI93
aI149
aI2240
aI83
aI316
aI2676
asg6
S'for every three multitrack schools  one less school must be built'
p11
ss.