(dp1
S'input'
p2
(dp3
S'encoded'
p4
(lp5
I64
aI2179
aI43
aI223
aI2138
aI11
aI89
aI21
aI45
aI2185
aI372
asS'ori'
p6
S'This house believes all nations have a right to nuclear weapons'
p7
ssS'output'
p8
(dp9
g4
(lp10
I100
aI2985
aI7
aI3
aI187
aI3563
aI63
aI155
aI11
aI3019
aI45
aI9042
aI60
aI3500
aI10852
aI75
aI11388
aI45
aI163
aI2349
aI3
aI15081
aI972
aI24
aI150
aI2569
aI5
aI2136
aI60
aI3236
aI45
aI2185
aI372
aI113
aI226
aI155
aI9012
aI248
aI187
aI45
aI7074
aI34
aI271
aI2702
aI252
aI2185
aI372
aI63765
asg6
S'Some critics of the nuclear-weapons states contend that they have failed to comply with Article VI by failing to make disarmament the driving force in national planning and policy with respect to nuclear weapons  even while they ask other states to plan for their security without nuclear weapons  .'
p11
ss.