(dp1
S'input'
p2
(dp3
S'encoded'
p4
(lp5
I64
aI2179
aI43
aI8629
aI116
aI3
aI117
aI998
asS'ori'
p6
S'This house believes atheism is the only way'
p7
ssS'output'
p8
(dp9
g4
(lp10
I24
aI8301
aI2244
aI25
aI15282
aI34
aI267
aI3955
aI1268
aI34
aI271
aI2198
aI7
aI22303
aI24
aI2206
aI6804
aI24
aI10437
aI675
aI10451
aI2992
aI6361
aI5
aI248
aI2637
aI3
aI267
aI3955
aI182
aI166
aI3
aI5018
aI20
aI5
aI211
aI22304
aI60
aI3707
aI2901
aI5
aI5
aI7146
aI22305
aI22306
aI5
aI15
aI3365
aI45
aI3
aI22306
aI10730
aI22307
aI63765
asg6
S'In 1998 Dawkins expressed his appreciation for two books  famous for their criticism of postmodernism in US universities  in departments like literary studies  anthropology and other cultural studies; the two books are Higher Superstition: The Academic Left and Its Quarrels with Science (by Gross and Levitt) and Intellectual Impostures (by Sokal and Bricmont)  both related to the Sokal affair hoax  .'
p11
ss.