(dp1
S'input'
p2
(dp3
S'encoded'
p4
(lp5
I64
aI2179
aI394
aI2773
aI12505
asS'ori'
p6
S'This house would embrace multiculturalism'
p7
ssS'output'
p8
(dp9
g4
(lp10
I64
aI183
aI116
aI4669
aI24
aI12410
aI7
aI2384
asg6
S'This too is addressed in "The Color of Fear ."'
p11
ss.