(dp1
S'input'
p2
(dp3
S'encoded'
p4
(lp5
I64
aI2179
aI394
aI2017
aI223
aI9058
aI23653
asS'ori'
p6
S'This house would ban all unsustainable logging'
p7
ssS'output'
p8
(dp9
g4
(lp10
I174
aI691
aI8121
aI8254
aI6795
aI182
aI4492
aI45
aI725
aI248
aI4938
aI3
aI852
aI7
aI3
aI8121
aI1404
aI248
aI26336
aI4658
aI7
aI6954
aI7831
aI63765
asg6
S'Also  since kelp forest ecosystems are homes to many other species  the loss of the kelp caused other cascade effects of secondary extinctions  .'
p11
ss.