(dp1
S'input'
p2
(dp3
S'encoded'
p4
(lp5
I64
aI2179
aI13605
aI2258
aI45
aI2194
asS'ori'
p6
S'This house prefers trade to aid'
p7
ssS'output'
p8
(dp9
g4
(lp10
I3
aI18978
aI7
aI658
aI2373
aI24
aI809
aI943
aI187
aI397
aI271
aI3060
aI45
aI89
aI192
aI52
aI263
aI34
aI1016
aI2158
aI14
aI3217
aI5
aI2042
aI1732
aI1879
aI130
aI63765
asg6
S'The reconfiguration of public financing in former Soviet states during their transition to a market economy called for reduced spending on health and education  sharply increasing poverty  .'
p11
ss.