(dp1
S'input'
p2
(dp3
S'encoded'
p4
(lp5
I64
aI2179
aI394
aI5284
aI150
aI3987
asS'ori'
p6
S'This house would reintroduce national service'
p7
ssS'output'
p8
(dp9
g4
(lp10
I5259
aI55
aI2933
aI89
aI696
aI7
aI16058
aI1603
aI158
aI4259
aI19
aI16059
aI4750
aI2088
aI4750
aI16060
aI4750
aI70
aI2240
aI5
aI15124
aI4758
aI63765
asg6
S'Rangel has received a number of honorary degrees  including ones from Hofstra University (1989)  Syracuse University (2001)  Suffolk University Law School (2002)  and Bard College (2008)  .'
p11
ss.