(dp1
S'input'
p2
(dp3
S'encoded'
p4
(lp5
I64
aI2179
aI394
aI2017
aI262
asS'ori'
p6
S'This house would ban boxing'
p7
ssS'output'
p8
(dp9
g4
(lp10
I3
aI1592
aI182
aI100
aI7
aI3
aI217
aI641
aI593
aI1011
aI1625
aI158
aI3
aI405
aI7
aI3
aI398
aI63
aI394
aI11
aI440
aI3
aI7968
aI296
aI382
aI155
aI1668
aI754
aI366
aI3
aI1094
aI1119
aI14189
aI63765
aI2094
aI32818
aI24
aI64
aI659
aI1011
aI303
aI32818
aI3
aI32819
aI3761
aI1119
aI3
aI1874
aI410
aI63765
asg6
S'The following are some of the most notable longer championship distances  including the Fight of the Century  that would have had the reverse result were they abruptly ended after the 12th round:June 18  1941: Joe Louis vs . Billy Conn  In this heavyweight championship match  Conn  the light-heavyweight titleholder  challenged Louis  the defending champion .'
p11
ss.