(dp1
S'input'
p2
(dp3
S'encoded'
p4
(lp5
I64
aI2179
aI43
aI63
aI3
aI21
aI45
aI12715
aI417
aI99
aI316
aI2897
asS'ori'
p6
S'This house believes that the right to asylum should not be absolute'
p7
ssS'output'
p8
(dp9
g4
(lp10
I3
aI128
aI122
aI575
aI45
aI79
aI60
aI3
aI631
aI45
aI37556
aI2183
aI311
aI223
aI8856
aI24
aI3
aI4326
aI7
aI3
aI11509
aI5
aI3
aI3987
aI122
aI1031
aI45
aI905
aI63
aI134
aI440
aI3110
aI3
aI8791
aI24
aI869
aI5101
aI63765
asg6
S'The order was given to work with the police to re-establish embarkation controls at all ports in the wake of the bombings and the service was able to report that it had completed the task in four hours .'
p11
ss.