(dp1
S'input'
p2
(dp3
S'encoded'
p4
(lp5
I64
aI2179
aI394
aI1499
aI177
aI1819
aI34
aI160
asS'ori'
p6
S'This house would build high rises for housing'
p7
ssS'output'
p8
(dp9
g4
(lp10
I27438
aI27439
aI3926
aI19356
aI92
aI4696
aI2598
aI11794
aI47
aI1476
aI4386
aI7282
aI8420
aI475
aI60
aI127
aI45
aI3
aI2148
aI3216
aI131
aI47
aI174
aI3226
aI17184
aI7
aI4502
aI7013
aI9102
aI3
aI2083
aI3216
aI24
aI120
aI6776
aI53
aI134
aI985
aI63765
asg6
S'Ceteris paribus  urban intensification which increases population density will reduce per capita car use  with benefits to the global environment  but will also increase concentrations of motor traffic  worsening the local environment in those locations where it occurs .'
p11
ss.