(dp1
S'input'
p2
(dp3
S'encoded'
p4
(lp5
I64
aI2179
aI394
aI2773
aI12505
asS'ori'
p6
S'This house would embrace multiculturalism'
p7
ssS'output'
p8
(dp9
g4
(lp10
I14
aI3
aI30322
aI905
aI51
aI4834
aI45
aI3
aI19853
aI11644
aI3905
aI122
aI13008
aI14
aI3
aI414
aI263
aI53
aI2341
aI8175
aI75
aI773
aI1748
aI2341
aI5
aI2751
aI443
aI1610
aI73
aI3186
aI174
aI63765
asg6
S'On The Colbert Report  an alternative to the melting pot culture was posed on The Word called "Lunchables " where separate cultures "co-exist" by being entirely separate and maintaining no contact or involvement (see also NIMBY) .'
p11
ss.