(dp1
S'input'
p2
(dp3
S'encoded'
p4
(lp5
I64
aI2179
aI394
aI2017
aI628
asS'ori'
p6
S'This house would ban gambling'
p7
ssS'output'
p8
(dp9
g4
(lp10
I3
aI3364
aI458
aI589
aI2116
aI298
aI3
aI260
aI6021
aI869
aI7160
aI45
aI9105
aI289
aI2639
aI2666
aI24
aI6751
aI7327
aI45
aI1191
aI7689
aI12338
aI63765
asg6
S'The action occurred around June 8  2009  when the government ordered four banks to freeze over 34 million dollars in payments owed to about 27 000 poker players  .'
p11
ss.