(dp1
S'input'
p2
(dp3
S'encoded'
p4
(lp5
I64
aI2179
aI13605
aI2258
aI45
aI2194
asS'ori'
p6
S'This house prefers trade to aid'
p7
ssS'output'
p8
(dp9
g4
(lp10
I24
aI8079
aI1887
aI100
aI8252
aI55
aI12
aI221
aI273
aI182
aI637
aI725
aI2506
aI53
aI3
aI1061
aI7
aI1546
aI83
aI316
aI8507
aI257
aI3
aI3811
aI1629
aI34
aI182
aI45
aI316
aI753
aI63765
asg6
S'In summary  whilst some progress has been made there are still many areas where the pace of change must be accelerated if the targets set for 2010 are to be reached .'
p11
ss.