(dp1
S'input'
p2
(dp3
S'encoded'
p4
(lp5
I64
aI2179
aI43
aI17
aI4941
aI857
aI3211
asS'ori'
p6
S'This house believes social deprivation causes crime'
p7
ssS'output'
p8
(dp9
g4
(lp10
I57594
aI42327
aI2962
aI63
aI725
aI7
aI3
aI2992
aI92
aI11
aI7541
aI5
aI3872
aI3211
aI3742
aI45
aI6365
aI64
aI620
aI89
aI3168
aI7
aI57595
aI511
aI92
aI187
aI63
aI3872
aI2617
aI116
aI622
aI89
aI6424
aI7
aI511
aI5
aI3757
aI63765
asg6
S'Phillippia Simmons reports that many of the studies which have investigated intra- and interracial crime seek to explain this through a theory of macrostructural opportunity which states that interracial violence is primarily a function of opportunity and access  .'
p11
ss.