(dp1
S'input'
p2
(dp3
S'encoded'
p4
(lp5
I64
aI2179
aI394
aI4325
aI2042
aI270
aI89
aI11605
aI3324
asS'ori'
p6
S'This house would fund education using a voucher scheme'
p7
ssS'output'
p8
(dp9
g4
(lp10
I24
aI42
aI2822
aI864
aI493
aI2997
aI45
aI5370
aI3
aI4288
aI4758
aI2618
aI63
aI357
aI182
aI4001
aI116
aI243
aI1228
aI63765
asg6
S'In 2004  he spoke out against efforts to abolish the electoral college  stating that "Democracy  we are told  is always good .'
p11
ss.