(dp1
S'input'
p2
(dp3
S'encoded'
p4
(lp5
I64
aI2179
aI43
aI63
aI2659
aI417
aI1690
aI3
aI12048
aI7
aI19084
asS'ori'
p6
S'This house believes that Israel should lift the blockade of Gaza'
p7
ssS'output'
p8
(dp9
g4
(lp10
I7
aI120
aI63
aI182
aI3964
aI19297
aI182
aI3862
aI459
aI2439
aI63765
asg6
S'Of those that are food insecure  65% are children under 18 years .'
p11
ss.