(dp1
S'input'
p2
(dp3
S'encoded'
p4
(lp5
I64
aI2179
aI394
aI163
aI959
aI2042
aI3557
asS'ori'
p6
S'This house would make physical education compulsory'
p7
ssS'output'
p8
(dp9
g4
(lp10
I46269
aI461
aI14
aI45
aI836
aI3
aI1260
aI2240
aI24
aI3926
aI2318
aI312
aI60
aI3
aI2096
aI7
aI1609
aI132
aI2379
aI5
aI188
aI2747
aI12757
aI45
aI3862
aI7
aI3
aI1376
aI63765
asg6
S"Leue went on to create The Free School in Albany's urban south end with the idea of making these freedoms and democratic principles accessible to children of the poor ."
p11
ss.