(dp1
S'input'
p2
(dp3
S'encoded'
p4
(lp5
I64
aI2179
aI394
aI16642
aI1376
aI5269
asS'ori'
p6
S'This house would subsidize poor communities'
p7
ssS'output'
p8
(dp9
g4
(lp10
I378
aI2478
aI675
aI1210
aI29513
aI5
aI11895
aI15701
aI133
aI63
aI3
aI2196
aI289
aI9
aI3905
aI463
aI316
aI136
aI4885
aI257
aI574
aI2386
aI9
aI2326
aI382
aI3072
aI4205
aI63765
asg6
S'However  scholars like David Ellwood and Lawrence Summers (1985) believe that the debate over welfare culture could be more accurate if each specific welfare program were examined individually  .'
p11
ss.