(dp1
S'input'
p2
(dp3
S'encoded'
p4
(lp5
I64
aI2179
aI394
aI2741
aI3
aI1560
aI6025
aI2784
asS'ori'
p6
S'This house would pass the American Jobs Act'
p7
ssS'output'
p8
(dp9
g4
(lp10
I97
aI8959
aI2586
aI397
aI5
aI2427
aI487
aI63765
asg6
S'Another recession began during 1990 and lasted until 1992 .'
p11
ss.