(dp1
S'input'
p2
(dp3
S'encoded'
p4
(lp5
I64
aI2179
aI394
aI2998
aI3
aI4360
aI7
aI3249
aI6804
aI24
aI3
aI102
asS'ori'
p6
S'This house would encourage the creation of private universities in the UK'
p7
ssS'output'
p8
(dp9
g4
(lp10
I28786
aI14144
aI5
aI9178
aI24
aI2686
aI3
aI2546
aI24
aI2351
aI2231
aI311
aI3
aI413
aI63765
asg6
S"Nippon Telegraph and Telephone's privatization in 1987 involved the largest share-offering in financial history at the time  ."
p11
ss.