(dp1
S'input'
p2
(dp3
S'encoded'
p4
(lp5
I64
aI2179
aI394
aI4325
aI2042
aI270
aI89
aI11605
aI3324
asS'ori'
p6
S'This house would fund education using a voucher scheme'
p7
ssS'output'
p8
(dp9
g4
(lp10
I3007
aI55
aI174
aI742
aI63
aI311
aI3
aI2503
aI126
aI42
aI2807
aI2997
aI45
aI16580
aI8559
aI41
aI4722
aI248
aI138
aI89
aI2131
aI291
aI93
aI460
aI5
aI93
aI3833
aI63765
asg6
S'Paul has also said that at the federal level he opposes efforts to redefine marriage as something other than a union between one man and one woman .'
p11
ss.