(dp1
S'input'
p2
(dp3
S'encoded'
p4
(lp5
I64
aI2179
aI43
aI8629
aI116
aI3
aI117
aI998
asS'ori'
p6
S'This house believes atheism is the only way'
p7
ssS'output'
p8
(dp9
g4
(lp10
I64
aI116
aI263
aI14559
aI18574
aI4
aI63
aI223
aI78
aI133
aI24
aI5480
aI19
aI545
aI64
aI234
aI122
aI3
aI18575
aI63
aI9776
aI182
aI1032
aI24
aI10046
aI63765
asg6
S'This is called theistic innatismthe notion that all people believe in God from birth; within this view was the connotation that atheists are simply in denial  .'
p11
ss.