(dp1
S'input'
p2
(dp3
S'encoded'
p4
(lp5
I64
aI2179
aI394
aI3830
aI3
aI475
aI7
aI9441
aI13132
aI3102
aI24
aI276
aI381
asS'ori'
p6
S'This house would permit the use of performance enhancing drugs in professional sports'
p7
ssS'output'
p8
(dp9
g4
(lp10
I132
aI2142
aI1966
aI63
aI475
aI7
aI132
aI3102
aI98
aI99
aI48
aI45
aI3
aI959
aI73
aI4817
aI231
aI534
aI34
aI159
aI14768
aI459
aI3
aI706
aI13160
aI2784
aI63765
asg6
S'These organizations argued that use of these drugs does not lead to the physical or psychological dependence required for such scheduling under the Controlled Substance Act .'
p11
ss.