(dp1
S'input'
p2
(dp3
S'encoded'
p4
(lp5
I64
aI2179
aI394
aI16642
aI1376
aI5269
asS'ori'
p6
S'This house would subsidize poor communities'
p7
ssS'output'
p8
(dp9
g4
(lp10
I4943
aI8246
aI122
aI13988
aI24
aI64
aI639
aI19
aI2506
aI545
aI3
aI2506
aI2435
aI4443
aI75
aI3
aI59491
aI59492
aI41
aI261
aI41
aI19
aI59497
aI1136
aI59498
aI41
aI122
aI217
aI2758
aI397
aI3
aI639
aI7
aI5086
aI6937
aI7
aI8254
aI34
aI6678
aI41
aI36895
aI5544
aI63765
asg6
S'Valuable timber was extracted in this period from areas within the areas formally owned by the Comunidad Lacandona  as well as from Marques de Comillas  as COFOLASA/CORFO was most active during the period of maximum conversion of forest for agriculture as colonisation proceeded .'
p11
ss.