(dp1
S'input'
p2
(dp3
S'encoded'
p4
(lp5
I64
aI2179
aI43
aI63
aI3
aI4990
aI4991
aI116
aI4850
aI24
aI12166
aI3
aI475
aI7
aI3532
aI3290
aI7
aI4714
asS'ori'
p6
S'This house believes that the Catholic Church is justified in forbidding the use of barrier methods of contraception'
p7
ssS'output'
p8
(dp9
g4
(lp10
I75
aI31830
aI3
aI314
aI708
aI910
aI1966
aI63
aI3495
aI417
aI11
aI708
aI289
aI271
aI3
aI910
aI440
aI1102
aI2591
aI45
aI17656
aI63765
asg6
S'By emphasising "control"  the birth control movement argued that women should have control over their reproduction; the movement had close ties to feminism .'
p11
ss.