(dp1
S'input'
p2
(dp3
S'encoded'
p4
(lp5
I64
aI2179
aI394
aI2773
aI12505
asS'ori'
p6
S'This house would embrace multiculturalism'
p7
ssS'output'
p8
(dp9
g4
(lp10
I3
aI6898
aI34
aI3
aI2023
aI3914
aI153
aI2981
aI100
aI51786
aI727
aI63765
asg6
S'The search for the Canadian identity often shows some whimsical results .'
p11
ss.