(dp1
S'input'
p2
(dp3
S'encoded'
p4
(lp5
I64
aI2179
aI394
aI2773
aI12505
asS'ori'
p6
S'This house would embrace multiculturalism'
p7
ssS'output'
p8
(dp9
g4
(lp10
I3
aI2497
aI20349
aI122
aI6859
aI401
aI45
aI62613
aI24
aI3
aI5
aI3
aI4360
aI7
aI3
aI20349
aI10
aI122
aI6859
aI1881
aI45
aI316
aI89
aI62610
aI10
aI131
aI395
aI579
aI158
aI24
aI3
aI10
aI41
aI30985
aI63765
asg6
S'The term Afghan was originally referred to Pashtuns in the middle-ages and the creation of the Afghan state was originally intended to be a Pashtun State but later changed including non-Pashtuns in the state as Afghans .'
p11
ss.