(dp1
S'input'
p2
(dp3
S'encoded'
p4
(lp5
I64
aI2179
aI43
aI63
aI2157
aI2565
aI493
aI19084
aI382
aI4850
asS'ori'
p6
S"This house believes that Israel's 2008-2009 military operations against Gaza were justified"
p7
ssS'output'
p8
(dp9
g4
(lp10
I27108
aI524
aI864
aI63
aI459
aI282
aI2893
aI70
aI631
aI182
aI11354
aI45
aI316
aI2224
aI5
aI508
aI12632
aI19
aI1274
aI1375
aI2435
aI5427
aI736
aI3
aI2218
aI2219
aI7
aI89
aI171
aI45
aI89
aI2513
aI73
aI2818
aI7787
aI24
aI3
aI5638
aI63765
asg6
S'HRW points out that under international humanitarian law  police are presumed to be civilian - and thus immune from attack - unless formally incorporated into the armed forces of a party to a conflict or directly participating in the hostilities  .'
p11
ss.