(dp1
S'input'
p2
(dp3
S'encoded'
p4
(lp5
I64
aI2179
aI394
aI117
aI7428
aI21151
aI34
aI11389
aI2042
aI24
aI4364
asS'ori'
p6
S'This house would only teach abstinence for sex education in schools'
p7
ssS'output'
p8
(dp9
g4
(lp10
I271
aI7090
aI2722
aI887
aI2145
aI63765
aI17092
aI440
aI2322
aI24
aI5
aI1592
aI1445
aI7936
aI19
aI45
aI63765
asg6
S'Their findings included:Birth rates among U .S . teens had increased in 2006 and 2007  following large declines from 1991 to 2005 .'
p11
ss.