(dp1
S'input'
p2
(dp3
S'encoded'
p4
(lp5
I64
aI2179
aI235
aI3
aI2136
aI7
aI3
aI2306
aI7
aI2390
asS'ori'
p6
S'This house supports the one-child policy of the republic of China'
p7
ssS'output'
p8
(dp9
g4
(lp10
I132
aI214
aI182
aI946
aI15467
aI24
aI2390
aI34
aI267
aI3398
aI63765
asg6
S'These issues are especially pertinent in China for two reasons .'
p11
ss.