(dp1
S'input'
p2
(dp3
S'encoded'
p4
(lp5
I64
aI2179
aI43
aI63
aI188
aI220
aI417
aI1619
aI4275
aI45
aI713
aI14799
aI7533
aI311
aI3
aI3721
aI5145
asS'ori'
p6
S'This house believes that democratic governments should require voters to present photo identification at the polling station'
p7
ssS'output'
p8
(dp9
g4
(lp10
I2359
aI8304
aI111
aI3903
aI7543
aI4352
aI41
aI3
aI7494
aI7
aI89
aI15971
aI2029
aI63765
asg6
S'Republicans insisted upon stricter ID requirements as the price of a bipartisan bill  .'
p11
ss.