(dp1
S'input'
p2
(dp3
S'encoded'
p4
(lp5
I64
aI2179
aI43
aI8629
aI116
aI3
aI117
aI998
asS'ori'
p6
S'This house believes atheism is the only way'
p7
ssS'output'
p8
(dp9
g4
(lp10
I24
aI51
aI3625
aI60
aI413
aI10649
aI8301
aI1190
aI63
aI2341
aI22258
aI122
aI89
aI10985
aI22
aI22259
aI45
aI750
aI2767
aI78
aI45
aI3
aI3707
aI10779
aI63765
asg6
S"In an interview with TIME magazine  Dawkins said:I think that Gould's separate compartments was a purely political ploy to win middle-of-the-road religious people to the science camp ."
p11
ss.