(dp1
S'input'
p2
(dp3
S'encoded'
p4
(lp5
I64
aI2179
aI394
aI2017
aI3807
aI314
aI3433
asS'ori'
p6
S'This house would ban partial birth abortions'
p7
ssS'output'
p8
(dp9
g4
(lp10
I374
aI3
aI16888
aI116
aI11584
aI16897
aI3
aI771
aI1760
aI51
aI3602
aI5
aI16898
aI45
aI1785
aI3
aI1582
aI63765
asg6
S"Once the cervix is sufficiently dilated  the doctor uses an ultrasound and forceps to grasp the fetus's leg ."
p11
ss.