(dp1
S'input'
p2
(dp3
S'encoded'
p4
(lp5
I64
aI2179
aI394
aI4325
aI2042
aI270
aI89
aI11605
aI3324
asS'ori'
p6
S'This house would fund education using a voucher scheme'
p7
ssS'output'
p8
(dp9
g4
(lp10
I24
aI89
aI913
aI9359
aI122
aI3714
aI14
aI3338
aI7
aI51353
aI63
aI3072
aI755
aI2040
aI382
aI20621
aI45
aI311
aI784
aI4364
aI131
aI1301
aI3072
aI755
aI5725
aI73
aI5251
aI88
aI11
aI18359
aI60
aI3
aI3274
aI727
aI63765
asg6
S'In 2009 a limited investigation was conducted on behalf of OSSE that examined whether protocols were adhered to at eight schools  but never examined whether administrators or teachers may have tampered with the test results .'
p11
ss.