(dp1
S'input'
p2
(dp3
S'encoded'
p4
(lp5
I64
aI2179
aI394
aI5370
aI7146
aI4585
aI2446
asS'ori'
p6
S'This house would abolish intellectual property rights'
p7
ssS'output'
p8
(dp9
g4
(lp10
I8446
aI70
aI1501
aI1237
aI5980
aI564
aI4658
aI182
aI570
aI45
aI120
aI7
aI8
aI7146
aI4585
aI2511
aI114
aI3
aI4
aI7
aI7146
aI6464
aI41
aI4585
aI98
aI99
aI9568
aI45
aI4532
aI1052
aI3
aI6174
aI7
aI24187
aI122
aI416
aI45
aI2986
aI14291
aI99
aI12717
aI24
aI3
aI398
aI63765
asg6
S"Jewish law includes several considerations whose effects are similar to those of modern intellectual property laws  though the notion of intellectual creations as property does not seem to exist  notably the principle of Hasagat Ge'vul (unfair encroachment) was used to justify limited-term publisher (but not author) copyright in the 16th century  ."
p11
ss.