(dp1
S'input'
p2
(dp3
S'encoded'
p4
(lp5
I64
aI2179
aI43
aI63
aI2157
aI2565
aI493
aI19084
aI382
aI4850
asS'ori'
p6
S"This house believes that Israel's 2008-2009 military operations against Gaza were justified"
p7
ssS'output'
p8
(dp9
g4
(lp10
I89
aI425
aI8672
aI75
aI8446
aI3495
aI822
aI3
aI6056
aI15858
aI81
aI500
aI2383
aI64
aI4045
aI45
aI84
aI238
aI24
aI3218
aI891
aI24
aI271
aI11653
aI5
aI4705
aI4515
aI252
aI10293
aI63765
asg6
S'A January 7 sit-in protest by 8 Jewish women inside the Israeli consulate  who did "not want this massacre to take place in our name"  resulted in their arrest and subsequent release without charge  .'
p11
ss.