(dp1
S'input'
p2
(dp3
S'encoded'
p4
(lp5
I64
aI2179
aI43
aI223
aI2138
aI11
aI89
aI21
aI45
aI2185
aI372
asS'ori'
p6
S'This house believes all nations have a right to nuclear weapons'
p7
ssS'output'
p8
(dp9
g4
(lp10
I273
aI55
aI12
aI3678
aI60
aI3
aI913
aI8252
aI14
aI2185
aI2349
aI53
aI3
aI863
aI5925
aI2185
aI372
aI187
aI637
aI11
aI11521
aI291
aI86
aI5
aI11
aI8117
aI89
aI3615
aI45
aI4115
aI1706
aI63765
asg6
S'There has been disappointment with the limited progress on nuclear disarmament  where the five authorized nuclear weapons states still have 22 000 warheads between them and have shown a reluctance to disarm further  .'
p11
ss.