(dp1
S'input'
p2
(dp3
S'encoded'
p4
(lp5
I64
aI2179
aI43
aI17
aI4941
aI857
aI3211
asS'ori'
p6
S'This house believes social deprivation causes crime'
p7
ssS'output'
p8
(dp9
g4
(lp10
I41
aI45
aI3
aI3957
aI7
aI64
aI21328
aI7
aI2617
aI887
aI5025
aI2625
aI17552
aI3932
aI3
aI3168
aI11
aI6833
aI1636
aI271
aI4232
aI3910
aI63765
asg6
S'As to the origins of this subculture of violence among African Americans  sociologists promoting the theory have pointed towards their Southern heritage .'
p11
ss.