(dp1
S'input'
p2
(dp3
S'encoded'
p4
(lp5
I64
aI2179
aI394
aI10662
aI626
aI187
aI2157
aI2697
aI19
aI2371
asS'ori'
p6
S'This house would remove United States military bases from Japan'
p7
ssS'output'
p8
(dp9
g4
(lp10
I64
aI122
aI89
aI281
aI521
aI7
aI3
aI2224
aI6043
aI41
aI2625
aI463
aI99
aI1670
aI291
aI1357
aI5
aI2224
aI63765
asg6
S'This was a major cause of the civilian casualties  as Americans could not distinguish between combatants and civilian .'
p11
ss.