(dp1
S'input'
p2
(dp3
S'encoded'
p4
(lp5
I64
aI2179
aI394
aI4325
aI2042
aI270
aI89
aI11605
aI3324
asS'ori'
p6
S'This house would fund education using a voucher scheme'
p7
ssS'output'
p8
(dp9
g4
(lp10
I42
aI742
aI63
aI2206
aI231
aI14
aI2135
aI2579
aI116
aI281
aI594
aI9586
aI89
aI2034
aI2731
aI45
aI3218
aI2702
aI3218
aI52
aI5
aI3
aI261
aI773
aI7
aI3218
aI7375
asg6
S'He said that US dependence on foreign oil is "a major strategic vulnerability  a serious threat to our security  our economy and the well being of our planet ."'
p11
ss.