(dp1
S'input'
p2
(dp3
S'encoded'
p4
(lp5
I64
aI2179
aI43
aI63
aI2659
aI417
aI1690
aI3
aI12048
aI7
aI19084
asS'ori'
p6
S'This house believes that Israel should lift the blockade of Gaza'
p7
ssS'output'
p8
(dp9
g4
(lp10
I41
aI89
aI7346
aI155
aI8037
aI63
aI658
aI3205
aI324
aI3217
aI3205
aI11
aI3860
aI14997
aI2034
aI2038
aI45
aI3
aI4902
aI7
aI63765
asg6
S'As a consequence  they note that public services  particularly health services  have suffered  posing "a serious risk to the treatment of patients" .'
p11
ss.