(dp1
S'input'
p2
(dp3
S'encoded'
p4
(lp5
I64
aI2179
aI394
aI4325
aI2042
aI270
aI89
aI11605
aI3324
asS'ori'
p6
S'This house would fund education using a voucher scheme'
p7
ssS'output'
p8
(dp9
g4
(lp10
I691
aI6954
aI4364
aI11
aI3006
aI271
aI13543
aI3274
aI2741
aI2722
aI75
aI24
aI4196
aI5
aI24
aI27488
aI226
aI10727
aI2240
aI2741
aI2722
aI11
aI3006
aI24
aI4196
aI5
aI24
aI27488
aI63765
asg6
S'Since 2007  secondary schools have improved their standardized test pass rates by 14% in reading and 17% in math  while elementary school pass rates have improved 6% in reading and 15% in math .'
p11
ss.