(dp1
S'input'
p2
(dp3
S'encoded'
p4
(lp5
I64
aI2179
aI394
aI2017
aI262
asS'ori'
p6
S'This house would ban boxing'
p7
ssS'output'
p8
(dp9
g4
(lp10
I64
aI139
aI316
aI344
aI24
aI3
aI405
aI291
aI2001
aI2002
aI5
aI1328
aI1329
aI63765
asg6
S'This can be seen in the fight between Diego Corrales and Floyd Mayweather .'
p11
ss.