(dp1
S'input'
p2
(dp3
S'encoded'
p4
(lp5
I64
aI2179
aI394
aI2017
aI262
asS'ori'
p6
S'This house would ban boxing'
p7
ssS'output'
p8
(dp9
g4
(lp10
I89
aI2035
aI480
aI24
aI2009
aI353
aI63
aI147
aI60
aI89
aI2231
aI7
aI41223
aI876
aI12940
aI89
aI2838
aI24
aI15
aI959
aI5
aI1043
aI9441
aI34
aI593
aI138
aI2439
aI63765
asg6
S'A 2009 study published in Brain found that individuals with a history of concussions might demonstrate a decline in both physical and mental performance for longer than 30 years .'
p11
ss.