(dp1
S'input'
p2
(dp3
S'encoded'
p4
(lp5
I64
aI2179
aI43
aI223
aI2138
aI11
aI89
aI21
aI45
aI2185
aI372
asS'ori'
p6
S'This house believes all nations have a right to nuclear weapons'
p7
ssS'output'
p8
(dp9
g4
(lp10
I64
aI463
aI4753
aI63
aI273
aI116
aI89
aI1718
aI2185
aI814
aI13278
aI215
aI691
aI3
aI6902
aI1355
aI11777
aI63765
asg6
S'This could indicate that there is a potential nuclear arm stockpile replacement since the isotope naturally decays .'
p11
ss.