(dp1
S'input'
p2
(dp3
S'encoded'
p4
(lp5
I64
aI2179
aI43
aI3
aI626
aI187
aI116
aI1989
aI34
aI3102
aI2223
asS'ori'
p6
S"This house believes the United States is responsible for Mexico's drugs war"
p7
ssS'output'
p8
(dp9
g4
(lp10
I3944
aI14
aI3
aI3099
aI3343
aI448
aI8842
aI8843
aI742
aI63
aI3
aI626
aI187
aI260
aI116
aI63765
aI3
aI4148
aI45
aI991
aI3
aI3142
aI7
aI1968
aI1374
aI45
aI2299
aI5
aI63
aI3
aI28435
aI6212
aI45
aI3099
aI1167
aI5
aI1389
aI116
aI217
aI1856
aI45
aI302
aI34
aI2439
aI41
aI136
aI1374
aI2931
aI311
aI1157
aI3211
aI8555
aI63765
asg6
S'Reflecting on the operation  Attorney General Eric Holder said that the United States government is " . .losing the battle to stop the flow of illegal guns to Mexico " and that the carnage linked to Operation Fast and Furious is most likely to continue for years  as more guns appear at Mexican crime scenes  .'
p11
ss.