(dp1
S'input'
p2
(dp3
S'encoded'
p4
(lp5
I64
aI2179
aI43
aI63
aI2157
aI2565
aI493
aI19084
aI382
aI4850
asS'ori'
p6
S"This house believes that Israel's 2008-2009 military operations against Gaza were justified"
p7
ssS'output'
p8
(dp9
g4
(lp10
I3
aI19389
aI905
aI62
aI34
aI3
aI6460
aI4515
aI7
aI19155
aI19156
aI5
aI226
aI19156
aI116
aI24
aI9912
aI34
aI3757
aI45
aI1063
aI75
aI3
aI282
aI4156
aI1633
aI63765
asg6
S'The Goldstone report calls for the immediate release of Gilad Shalit and  while Shalit is in captivity  for access to him by the International Red Cross  .'
p11
ss.