(dp1
S'input'
p2
(dp3
S'encoded'
p4
(lp5
I64
aI2179
aI43
aI63
aI3
aI4990
aI4991
aI116
aI4850
aI24
aI12166
aI3
aI475
aI7
aI3532
aI3290
aI7
aI4714
asS'ori'
p6
S'This house believes that the Catholic Church is justified in forbidding the use of barrier methods of contraception'
p7
ssS'output'
p8
(dp9
g4
(lp10
I64
aI42
aI742
aI116
aI3011
aI45
aI3
aI8
aI26849
aI7
aI3707
aI564
aI16260
aI116
aI717
aI14
aI3
aI546
aI7
aI1025
aI45
aI3084
aI3
aI10933
aI63765
asg6
S'This  he said  is contradictory to the modern acclamation of science whose excellence is based on the power of reason to know the truth .'
p11
ss.