(dp1
S'input'
p2
(dp3
S'encoded'
p4
(lp5
I64
aI2179
aI394
aI2017
aI3807
aI314
aI3433
asS'ori'
p6
S'This house would ban partial birth abortions'
p7
ssS'output'
p8
(dp9
g4
(lp10
I3
aI2483
aI3350
aI45
aI163
aI51
aI1222
aI311
aI15099
aI64
aI845
aI1068
aI99
aI14387
aI3
aI330
aI2802
aI7
aI298
aI3269
aI764
aI63765
asg6
S'The Court declined to make an attempt at resolving this issue  noting: "We need not resolve the difficult question of when life begins .'
p11
ss.