(dp1
S'input'
p2
(dp3
S'encoded'
p4
(lp5
I64
aI2179
aI394
aI117
aI7428
aI21151
aI34
aI11389
aI2042
aI24
aI4364
asS'ori'
p6
S'This house would only teach abstinence for sex education in schools'
p7
ssS'output'
p8
(dp9
g4
(lp10
I248
aI2767
aI101
aI133
aI63
aI8803
aI6029
aI116
aI6791
aI2504
aI271
aI12179
aI34
aI26087
aI717
aI14
aI21151
aI63765
asg6
S'Other religious conservatives believe that sexual knowledge is unavoidable  hence their preference for curricula based on abstinence  .'
p11
ss.