(dp1
S'input'
p2
(dp3
S'encoded'
p4
(lp5
I64
aI2179
aI394
aI3830
aI3
aI475
aI7
aI9441
aI13132
aI3102
aI24
aI276
aI381
asS'ori'
p6
S'This house would permit the use of performance enhancing drugs in professional sports'
p7
ssS'output'
p8
(dp9
g4
(lp10
I24
aI421
aI604
aI63626
aI13422
aI116
aI2434
aI24
aI2579
aI19518
aI17814
aI55
aI3
aI1718
aI45
aI521
aI89
aI5501
aI14005
aI24
aI3
aI19464
aI63765
asg6
S'In addition  because estered testosterone is dissolved in oil  intravenous injection has the potential to cause a dangerous embolism (clot) in the bloodstream .'
p11
ss.