(dp1
S'input'
p2
(dp3
S'encoded'
p4
(lp5
I64
aI2179
aI43
aI63
aI187
aI417
aI99
aI16642
aI3
aI6449
aI7
aI3935
asS'ori'
p6
S'This house believes that states should not subsidize the growing of tobacco'
p7
ssS'output'
p8
(dp9
g4
(lp10
I2927
aI366
aI267
aI3286
aI7
aI816
aI3842
aI2952
aI2179
aI10253
aI45
aI2155
aI34
aI6793
aI63765
asg6
S'March 19: After two weeks of closed door negotiations  House agrees to $17 billion for conservation .'
p11
ss.