(dp1
S'input'
p2
(dp3
S'encoded'
p4
(lp5
I64
aI2179
aI394
aI2976
aI12243
aI24
aI954
aI126
aI1560
aI10723
asS'ori'
p6
S'This house would implement playoffs in collegiate level American football'
p7
ssS'output'
p8
(dp9
g4
(lp10
I3
aI34987
aI461
aI14
aI45
aI103
aI3
aI34949
aI1011
aI60
aI89
aI750
aI289
aI7716
aI24
aI3
aI1096
aI20731
aI63765
asg6
S'The Tigers went on to claim the BCS championship with a 21&ndash;14 win over Oklahoma in the Sugar Bowl .'
p11
ss.