(dp1
S'input'
p2
(dp3
S'encoded'
p4
(lp5
I64
aI2179
aI43
aI223
aI2138
aI11
aI89
aI21
aI45
aI2185
aI372
asS'ori'
p6
S'This house believes all nations have a right to nuclear weapons'
p7
ssS'output'
p8
(dp9
g4
(lp10
I1942
aI187
aI171
aI45
aI3
aI11570
aI81
aI3345
aI5
aI9931
aI1257
aI2185
aI372
aI63765
asg6
S'Non-nuclear weapon states party to the NPT who acknowledged and eliminated past nuclear weapons programs:Libya  .'
p11
ss.