(dp1
S'input'
p2
(dp3
S'encoded'
p4
(lp5
I64
aI2179
aI394
aI60
aI23587
asS'ori'
p6
S'This house would re-engage with Myanmar'
p7
ssS'output'
p8
(dp9
g4
(lp10
I7
aI3
aI15159
aI60755
aI803
aI874
aI7
aI41470
aI116
aI418
aI34
aI211
aI6418
aI1991
aI60754
aI5
aI8160
aI60751
aI63765
asg6
S'Burma\'s "Valley of Rubies"  the mountainous Mogok area  north of Mandalay  is noted for its rare pigeon\'s blood rubies and blue sapphires  .'
p11
ss.