(dp1
S'input'
p2
(dp3
S'encoded'
p4
(lp5
I64
aI2179
aI43
aI63
aI3
aI4538
aI7
aI4434
aI7793
aI283
aI45
aI3586
aI417
aI316
aI577
asS'ori'
p6
S'This house believes that the sale of violent video games to minors should be banned'
p7
ssS'output'
p8
(dp9
g4
(lp10
I7147
aI10598
aI116
aI570
aI45
aI29258
aI1381
aI3
aI7147
aI10598
aI55
aI12
aI4857
aI289
aI413
aI19
aI29258
aI63765
asg6
S'Internet slang is similar to Leetspeak although the Internet Slang has been derived over time from Leetspeak .'
p11
ss.