(dp1
S'input'
p2
(dp3
S'encoded'
p4
(lp5
I64
aI2179
aI394
aI2017
aI262
asS'ori'
p6
S'This house would ban boxing'
p7
ssS'output'
p8
(dp9
g4
(lp10
I725
aI381
aI47
aI27703
aI1610
aI266
aI60
aI3
aI442
aI34
aI77
aI6398
aI73
aI1106
aI45
aI3709
aI1476
aI3
aI4697
aI7
aI959
aI16481
aI73
aI3512
aI34
aI648
aI73
aI29784
aI651
aI652
aI63765
asg6
S'Many sports will penalise contact sport with the rules for certain situations or instances to help reduce the incidence of physical trauma or litigation for assault or grievous bodily harm .'
p11
ss.