(dp1
S'input'
p2
(dp3
S'encoded'
p4
(lp5
I64
aI2179
aI394
aI2773
aI12505
asS'ori'
p6
S'This house would embrace multiculturalism'
p7
ssS'output'
p8
(dp9
g4
(lp10
I508
aI2767
aI3136
aI81
aI3319
aI93
aI2386
aI10933
aI45
aI3
aI6591
aI7
aI248
aI2767
aI10439
aI182
aI513
aI224
aI75
aI3
aI51803
aI63765
asg6
S'Thus  religious groups who assert one specific truth to the exclusion of other religious doctrines are considered undesirable by the AoC .'
p11
ss.