(dp1
S'input'
p2
(dp3
S'encoded'
p4
(lp5
I64
aI2179
aI394
aI2017
aI262
asS'ori'
p6
S'This house would ban boxing'
p7
ssS'output'
p8
(dp9
g4
(lp10
I3
aI1948
aI7
aI3
aI2009
aI217
aI3493
aI75
aI41249
aI2219
aI182
aI3
aI41251
aI5
aI41252
aI63765
asg6
S'The parts of the brain most affected by rotational forces are the midbrain and diencephalon  .'
p11
ss.