(dp1
S'input'
p2
(dp3
S'encoded'
p4
(lp5
I64
aI2179
aI43
aI223
aI2138
aI11
aI89
aI21
aI45
aI2185
aI372
asS'ori'
p6
S'This house believes all nations have a right to nuclear weapons'
p7
ssS'output'
p8
(dp9
g4
(lp10
I2985
aI1706
aI1966
aI63
aI134
aI463
aI3880
aI89
aI667
aI834
aI4226
aI64
aI413
aI45
aI949
aI38484
aI34
aI2948
aI63765
asg6
S'Critics further argued that it could trigger a new arms race  this time to develop countermeasures for SDI .'
p11
ss.