(dp1
S'input'
p2
(dp3
S'encoded'
p4
(lp5
I64
aI2179
aI43
aI63
aI2157
aI2565
aI493
aI19084
aI382
aI4850
asS'ori'
p6
S"This house believes that Israel's 2008-2009 military operations against Gaza were justified"
p7
ssS'output'
p8
(dp9
g4
(lp10
I3
aI6054
aI416
aI13594
aI31097
aI45
aI975
aI63
aI6875
aI382
aI8088
aI7
aI13705
aI63765
asg6
S'The IDF used D9 armored bulldozers to ensure that paths were cleared of IEDs .'
p11
ss.