(dp1
S'input'
p2
(dp3
S'encoded'
p4
(lp5
I64
aI2179
aI13605
aI2258
aI45
aI2194
asS'ori'
p6
S'This house prefers trade to aid'
p7
ssS'output'
p8
(dp9
g4
(lp10
I3249
aI7192
aI4667
aI2748
aI24
aI658
aI189
aI73
aI24
aI3
aI28753
aI7
aI3024
aI557
aI611
aI63765
asg6
S'Private investors  lacking confidence in public policies or in the steadfastness of leaders  held back .'
p11
ss.