(dp1
S'input'
p2
(dp3
S'encoded'
p4
(lp5
I64
aI2179
aI394
aI60
aI23587
asS'ori'
p6
S'This house would re-engage with Myanmar'
p7
ssS'output'
p8
(dp9
g4
(lp10
I1381
aI725
aI12800
aI2433
aI2274
aI34
aI3
aI2692
aI100
aI12800
aI3250
aI19
aI3
aI2812
aI5275
aI174
aI5605
aI24
aI3
aI169
aI3118
aI202
aI63765
asg6
S'Although many Burmese fought initially for the Japanese  some Burmese  mostly from the ethnic minorities  also served in the British Burma Army  .'
p11
ss.