(dp1
S'input'
p2
(dp3
S'encoded'
p4
(lp5
I64
aI2179
aI394
aI2017
aI628
asS'ori'
p6
S'This house would ban gambling'
p7
ssS'output'
p8
(dp9
g4
(lp10
I3
aI2195
aI1386
aI45
aI750
aI611
aI628
aI7931
aI60
aI136
aI628
aI63765
asg6
S'The subject tries to win back gambling losses with more gambling .'
p11
ss.