(dp1
S'input'
p2
(dp3
S'encoded'
p4
(lp5
I64
aI2179
aI394
aI2017
aI223
aI9058
aI23653
asS'ori'
p6
S'This house would ban all unsustainable logging'
p7
ssS'output'
p8
(dp9
g4
(lp10
I1981
aI3
aI5496
aI7
aI18848
aI28607
aI55
aI174
aI12
aI108
aI60
aI248
aI2041
aI2825
aI311
aI3
aI150
aI5
aI2083
aI2363
aI159
aI41
aI3
aI14911
aI927
aI7
aI3707
aI28608
aI7408
aI4750
aI5
aI3
aI150
aI2185
aI1886
aI2904
aI63765
asg6
S'Besides the Ministry of Forestry  CIFOR has also been working with other research institutions at the national and local levels  such as the Indonesian Institute of Science  (LIPI)  Bogor Agricultural University  (IPB) and the National Nuclear Energy Agency  (BATAN) .'
p11
ss.