(dp1
S'input'
p2
(dp3
S'encoded'
p4
(lp5
I64
aI2179
aI394
aI117
aI7428
aI21151
aI34
aI11389
aI2042
aI24
aI4364
asS'ori'
p6
S'This house would only teach abstinence for sex education in schools'
p7
ssS'output'
p8
(dp9
g4
(lp10
I725
aI8313
aI7428
aI63
aI8803
aI8935
aI1642
aI7
aI8559
aI116
aI4992
aI87
aI271
aI14581
aI142
aI63
aI64
aI4588
aI417
aI316
aI1578
aI41
aI759
aI7
aI11389
aI2042
aI63765
asg6
S'Many religions teach that sexual behavior outside of marriage is immoral  so their adherents feel that this morality should be taught as part of sex education .'
p11
ss.