(dp1
S'input'
p2
(dp3
S'encoded'
p4
(lp5
I64
aI2179
aI43
aI63
aI1036
aI4828
aI33250
aI116
aI25073
aI45
aI3315
aI4562
asS'ori'
p6
S'This house believes that male infant circumcision is tantamount to child abuse'
p7
ssS'output'
p8
(dp9
g4
(lp10
I2538
aI63
aI33242
aI5
aI33239
aI47
aI316
aI13336
aI1042
aI75
aI3
aI34
aI3
aI2138
aI182
aI33239
aI5
aI223
aI3
aI2179
aI7
aI2659
aI182
aI33239
aI24
aI3780
asg6
S'says that circumcised and uncircumcised will be punished alike by the Lord; for "all the nations are uncircumcised  and all the house of Israel are uncircumcised in heart ."'
p11
ss.