(dp1
S'input'
p2
(dp3
S'encoded'
p4
(lp5
I64
aI2179
aI43
aI63
aI3
aI4990
aI4991
aI116
aI4850
aI24
aI12166
aI3
aI475
aI7
aI3532
aI3290
aI7
aI4714
asS'ori'
p6
S'This house believes that the Catholic Church is justified in forbidding the use of barrier methods of contraception'
p7
ssS'output'
p8
(dp9
g4
(lp10
I3
aI4990
aI4991
aI55
aI243
aI7212
aI3495
aI19
aI3
aI10706
aI6246
aI5
aI87
aI7212
aI19
aI725
aI7
aI3
aI4991
aI747
aI63765
asg6
S'The Catholic Church has always excluded women from the ordained clergy  and so excluded from many of the church decisions .'
p11
ss.