(dp1
S'input'
p2
(dp3
S'encoded'
p4
(lp5
I64
aI2179
aI43
aI63
aI3
aI21
aI45
aI12715
aI417
aI99
aI316
aI2897
asS'ori'
p6
S'This house believes that the right to asylum should not be absolute'
p7
ssS'output'
p8
(dp9
g4
(lp10
I725
aI248
aI1565
aI2131
aI2544
aI187
aI2531
aI271
aI21
aI45
aI1788
aI2610
aI708
aI83
aI312
aI75
aI289
aI23530
aI19
aI132
aI9901
aI187
aI131
aI100
aI2494
aI56
aI132
aI2051
aI9046
aI7
aI3
asg6
S'Many other European Union member states exercised their right to temporary immigration control (which must end by 2011) over entrants from these accession states  but some subsequently removed these restrictions ahead of the 2011 deadline]'
p11
ss.