(dp1
S'input'
p2
(dp3
S'encoded'
p4
(lp5
I64
aI2179
aI394
aI163
aI959
aI2042
aI3557
asS'ori'
p6
S'This house would make physical education compulsory'
p7
ssS'output'
p8
(dp9
g4
(lp10
I3
aI2207
aI122
aI7233
aI24
aI75
aI1935
aI46090
aI12323
aI53587
aI2029
aI53588
aI1715
aI12300
aI5
aI25168
aI19884
aI18006
aI45
aI5918
aI6198
aI34
aI16366
aI5
aI45
aI3018
aI188
aI2042
aI589
aI3
aI285
aI63765
asg6
S'The Trust was launched in 2004 by Tim Brighouse  Tom Conti  Bill Nighy  Mark Stephens and Geoffrey Robertson QC to raise funds for bursaries and to promote democratic education around the world .'
p11
ss.