(dp1
S'input'
p2
(dp3
S'encoded'
p4
(lp5
I64
aI2179
aI394
aI5842
aI3569
aI446
aI13498
asS'ori'
p6
S'This house would introduce year round schooling'
p7
ssS'output'
p8
(dp9
g4
(lp10
I132
aI3424
aI2240
aI256
aI693
aI4793
aI994
aI19
aI3
aI1949
aI2240
aI2326
aI24
aI1809
aI7
aI8508
aI2170
aI5
aI43440
aI63765
asg6
S'These summer school programs typically differ significantly from the regular school program in terms of curriculum  goals  and rigor .'
p11
ss.