(dp1
S'input'
p2
(dp3
S'encoded'
p4
(lp5
I64
aI2179
aI43
aI63
aI323
aI417
aI10009
aI211
aI9035
aI249
aI45
aI3426
aI211
aI2144
aI595
aI17
aI96
asS'ori'
p6
S'This house believes that Europe should weaken its austerity measures to guarantee its citizens greater social support'
p7
ssS'output'
p8
(dp9
g4
(lp10
I134
aI116
aI89
aI9057
aI7
aI1237
aI384
aI1106
aI7
aI1171
aI13539
aI24594
aI60
aI89
aI279
aI5304
aI24
aI7147
aI17
aI7276
aI5
aI3
aI24595
aI212
aI24596
aI7150
aI5556
aI2319
aI60
aI248
aI1488
aI956
aI63765
asg6
S'It is a collection of several different instances of continuous demonstrations countrywide  with a common origin in internet social networks and the Democracia Real Ya web presence  along with 200 other small associations  .'
p11
ss.