(dp1
S'input'
p2
(dp3
S'encoded'
p4
(lp5
I64
aI2179
aI43
aI63
aI187
aI417
aI99
aI16642
aI3
aI6449
aI7
aI3935
asS'ori'
p6
S'This house believes that states should not subsidize the growing of tobacco'
p7
ssS'output'
p8
(dp9
g4
(lp10
I24
aI874
aI875
aI3
aI217
aI279
aI399
aI7
aI14833
aI122
aI24
aI19269
aI92
aI2643
aI182
aI1059
aI1047
aI41
aI3
aI2250
aI19269
aI3619
aI15
aI45
aI248
aI7704
aI5
aI395
aI1565
aI3919
aI41
aI89
aI10796
aI7
aI9600
aI5
aI2163
aI63765
asg6
S'In North America the most common form of smoking was in pipes  which today are best known as the peace pipes offered both to other tribes and later European settlers as a gesture of goodwill and diplomacy .'
p11
ss.