(dp1
S'input'
p2
(dp3
S'encoded'
p4
(lp5
I64
aI2179
aI394
aI5370
aI3
aI5286
asS'ori'
p6
S'This house would abolish the monarchy'
p7
ssS'output'
p8
(dp9
g4
(lp10
I3
aI2210
aI24
aI3
aI4991
aI7
aI180
aI116
aI3
aI217
aI5520
aI35852
aI3
aI10757
aI7
aI10364
aI116
aI3
aI6268
aI5409
aI7
aI3
aI4991
aI5
aI7
aI3
aI3048
aI8612
aI10695
aI63765
asg6
S"The Crown's role in the Church of England is titular; the most senior clergyman  the Archbishop of Canterbury  is the spiritual leader of the Church and of the worldwide Anglican Communion  ."
p11
ss.