(dp1
S'input'
p2
(dp3
S'encoded'
p4
(lp5
I64
aI2179
aI394
aI16642
aI1376
aI5269
asS'ori'
p6
S'This house would subsidize poor communities'
p7
ssS'output'
p8
(dp9
g4
(lp10
I89
aI2035
aI75
aI9457
aI12969
aI7
aI3
aI2929
aI620
aI92
aI4925
aI88
aI1466
aI16
aI2234
aI63765
asg6
S'A study by Perotti (1996) examines of the channels through which inequality may affect economic growth .'
p11
ss.