(dp1
S'input'
p2
(dp3
S'encoded'
p4
(lp5
I64
aI2179
aI394
aI5370
aI223
aI4013
aI10440
aI2446
aI4881
aI75
aI14482
aI11004
asS'ori'
p6
S'This house would abolish all collective bargaining rights claimed by trades unions'
p7
ssS'output'
p8
(dp9
g4
(lp10
I400
aI273
aI182
aI17029
aI289
aI3
aI2131
aI64
aI324
aI985
aI24
aI3052
aI7
aI6941
aI17377
aI252
aI1640
aI521
aI24
aI89
aI2131
aI9998
aI63765
asg6
S'Sometimes there are disputes over the union contract; this particularly occurs in cases of workers fired without just cause in a union workplace .'
p11
ss.