(dp1
S'input'
p2
(dp3
S'encoded'
p4
(lp5
I64
aI2179
aI235
aI3
aI2136
aI7
aI3
aI2306
aI7
aI2390
asS'ori'
p6
S'This house supports the one-child policy of the republic of China'
p7
ssS'output'
p8
(dp9
g4
(lp10
I17938
aI4753
aI63
aI217
aI3926
aI2234
aI289
aI3
aI1608
aI2439
aI47
aI316
aI24
aI2760
aI2203
aI63765
asg6
S'Projections indicate that most urban growth over the next 25 years will be in developing countries  .'
p11
ss.