(dp1
S'input'
p2
(dp3
S'encoded'
p4
(lp5
I64
aI2179
aI43
aI63
aI820
aI12564
aI182
aI3
aI217
aI1112
aI1869
aI7
aI10656
aI4672
aI34
aI5276
asS'ori'
p6
S'This house believes that open primaries are the most effective method of selecting candidates for elections'
p7
ssS'output'
p8
(dp9
g4
(lp10
I134
aI55
aI12
aI8117
aI75
aI3
aI12549
aI12199
aI63
aI351
aI5334
aI1869
aI92
aI116
aI3191
aI83
aI316
aI843
aI12550
aI73
aI12551
aI116
aI876
aI99
aI4145
aI3
aI1643
aI1359
aI1928
aI413
aI134
aI116
aI1964
aI45
aI3
aI1643
aI1629
aI7
aI7532
aI63765
asg6
S'It has been shown by the GibbardSatterthwaite theorem that any voting method which is completely strategy-free must be either dictatorial or nondeterministic (that is  might not select the same outcome every time it is applied to the same set of voter preferences) .'
p11
ss.