(dp1
S'input'
p2
(dp3
S'encoded'
p4
(lp5
I64
aI2179
aI43
aI17
aI4941
aI857
aI3211
asS'ori'
p6
S'This house believes social deprivation causes crime'
p7
ssS'output'
p8
(dp9
g4
(lp10
I89
aI626
aI187
aI2176
aI7
aI2248
aI905
aI92
aI5007
aI17194
aI9067
aI291
aI5
aI2173
aI63
aI7
aI3
aI4212
aI5007
aI7
aI3
aI7582
aI382
aI3386
aI382
aI965
aI5
aI382
aI248
aI13438
aI63765
asg6
S'A United States Department of Justice report which surveyed homicide statistics between 1974 and 2004 stated that of the crimes surveyed  52 .2% of the offenders were Black  45 .8% were White  and 2% were Other Races .'
p11
ss.