(dp1
S'input'
p2
(dp3
S'encoded'
p4
(lp5
I64
aI2179
aI43
aI223
aI2138
aI11
aI89
aI21
aI45
aI2185
aI372
asS'ori'
p6
S'This house believes all nations have a right to nuclear weapons'
p7
ssS'output'
p8
(dp9
g4
(lp10
I3
aI2333
aI122
aI3234
aI12402
aI3
aI14637
aI7
aI89
aI285
aI1260
aI7
aI2185
aI372
aI5
aI440
aI3
aI3014
aI7
aI1444
aI886
aI291
aI2185
aI1942
aI187
aI5
aI1942
aI187
aI24
aI4645
aI45
aI3
aI2185
aI2268
aI63765
asg6
S'The Conference was entitled Achieving the Vision of a World Free of Nuclear Weapons and had the purpose of building consensus between nuclear weapon states and non-nuclear weapon states in relation to the Nuclear Non-proliferation Treaty  .'
p11
ss.