(dp1
S'input'
p2
(dp3
S'encoded'
p4
(lp5
I64
aI2179
aI43
aI63
aI1036
aI4828
aI33250
aI116
aI25073
aI45
aI3315
aI4562
asS'ori'
p6
S'This house believes that male infant circumcision is tantamount to child abuse'
p7
ssS'output'
p8
(dp9
g4
(lp10
I10006
aI19
aI64
aI94
aI122
aI3
aI1334
aI14223
aI19
aI92
aI3
aI320
aI5711
aI4991
aI2824
aI63765
asg6
S'Converts from this group was the primary kernel from which the early Christian Church grew .'
p11
ss.