(dp1
S'input'
p2
(dp3
S'encoded'
p4
(lp5
I64
aI2179
aI43
aI63
aI3376
aI4938
aI417
aI316
aI3537
asS'ori'
p6
S'This house believes that endangered species should be protected'
p7
ssS'output'
p8
(dp9
g4
(lp10
I8
aI8236
aI7
aI6793
aI5245
aI139
aI316
aI353
aI24
aI3
aI481
aI398
aI6480
aI639
aI324
aI24
aI180
aI5
aI181
aI63765
asg6
S'Modern roots of conservation biology can be found in the late 19th century Enlightenment period particularly in England and Scotland  .'
p11
ss.