(dp1
S'input'
p2
(dp3
S'encoded'
p4
(lp5
I64
aI2179
aI394
aI2017
aI3807
aI314
aI3433
asS'ori'
p6
S'This house would ban partial birth abortions'
p7
ssS'output'
p8
(dp9
g4
(lp10
I734
aI24
aI320
aI3
aI3772
aI3773
aI2133
aI7
aI875
aI3
aI150
aI3257
aI2133
aI5
aI3257
aI3535
aI24
aI3806
aI3761
aI3
aI2017
aI24
aI2503
aI3337
aI3744
aI24
aI3
aI4192
aI3337
aI7
aI2300
aI4232
aI3337
aI7
aI667
aI2086
aI5
aI3337
aI7
aI3806
aI63765
asg6
S'Beginning in early 2004  the Planned Parenthood Federation of America  the National Abortion Federation  and abortion doctors in Nebraska challenged the ban in federal district courts in the Northern District of California  Southern District of New York  and District of Nebraska .'
p11
ss.