(dp1
S'input'
p2
(dp3
S'encoded'
p4
(lp5
I64
aI2179
aI43
aI223
aI2138
aI11
aI89
aI21
aI45
aI2185
aI372
asS'ori'
p6
S'This house believes all nations have a right to nuclear weapons'
p7
ssS'output'
p8
(dp9
g4
(lp10
I604
aI8351
aI122
aI344
aI41
aI89
aI2267
aI7
aI8114
aI2891
aI710
aI45
aI4537
aI11984
aI372
aI252
aI100
aI399
aI7
aI8351
aI122
aI513
aI8018
aI14
aI8351
aI382
aI153
aI263
aI34
aI41
aI34
aI8018
aI24
aI3
aI2185
aI834
aI4226
aI2126
aI5
aI725
aI2759
aI6834
aI5
aI11985
aI11986
aI34
aI89
aI2017
aI14
aI2185
aI8351
aI63765
asg6
S'Because testing was seen as a sign of technological development (the ability to design usable weapons without some form of testing was considered dubious)  halts on testing were often called for as stand-ins for halts in the nuclear arms race itself  and many prominent scientists and statesmen lobbied for a ban on nuclear testing .'
p11
ss.