(dp1
S'input'
p2
(dp3
S'encoded'
p4
(lp5
I64
aI2179
aI394
aI60
aI23587
asS'ori'
p6
S'This house would re-engage with Myanmar'
p7
ssS'output'
p8
(dp9
g4
(lp10
I1381
aI89
aI3419
aI98
aI99
aI11
aI3
aI546
aI7
aI89
aI9596
aI134
aI1298
aI3
aI654
aI7
aI223
aI211
aI2789
aI5
aI55
aI12
aI344
aI41
aI89
aI1848
aI24
aI1597
aI7
aI2390
aI63765
asg6
S'Although a statement does not have the power of a resolution  it requires the consent of all its members and has been seen as a shift in position of China  .'
p11
ss.