(dp1
S'input'
p2
(dp3
S'encoded'
p4
(lp5
I64
aI2179
aI43
aI63
aI3
aI4990
aI4991
aI116
aI4850
aI24
aI12166
aI3
aI475
aI7
aI3532
aI3290
aI7
aI4714
asS'ori'
p6
S'This house believes that the Catholic Church is justified in forbidding the use of barrier methods of contraception'
p7
ssS'output'
p8
(dp9
g4
(lp10
I34
aI165
aI7
aI211
aI3524
aI3
aI4991
aI4258
aI3402
aI13744
aI41
aI3
aI1334
aI3014
aI7
aI11389
aI100
aI5318
aI113
aI5810
aI63
aI2189
aI311
aI1727
aI53
aI3271
aI122
aI99
aI89
aI748
aI296
aI41
aI912
aI3271
aI5
aI122
aI10966
aI1381
aI64
aI122
aI1301
aI878
aI4990
aI2860
aI63765
asg6
S'For much of its existence  the Church heavily emphasized procreation as the primary purpose of sex some Catholics even believed that intercourse at times where pregnancy was not a possible result (such as current pregnancy and menopause) was sinful  although this was never official Catholic doctrine .'
p11
ss.