(dp1
S'input'
p2
(dp3
S'encoded'
p4
(lp5
I64
aI2179
aI394
aI60
aI23587
asS'ori'
p6
S'This house would re-engage with Myanmar'
p7
ssS'output'
p8
(dp9
g4
(lp10
I3
aI2471
aI7
aI2598
aI4830
aI24
aI3
aI50532
aI7620
aI92
aI116
aI5239
aI291
aI3
aI50609
aI60714
aI5
aI3
aI41041
aI17094
aI63765
asg6
S"The majority of Burma's population lives in the Irrawaddy valley  which is situated between the Rakhine Yoma and the Shan Plateau ."
p11
ss.