(dp1
S'input'
p2
(dp3
S'encoded'
p4
(lp5
I64
aI2179
aI43
aI63
aI3376
aI4938
aI417
aI316
aI3537
asS'ori'
p6
S'This house believes that endangered species should be protected'
p7
ssS'output'
p8
(dp9
g4
(lp10
I8582
aI4938
aI63
aI2641
aI19
aI89
aI13513
aI4938
aI1378
aI14
aI217
aI7
aI3
aI13513
aI4839
aI5224
aI5
aI113
aI114
aI3
aI13513
aI4938
aI88
aI1199
aI7862
aI3
aI8582
aI4938
aI4830
aI14
aI63765
asg6
S"Daughter species that evolve from a parent species carry on most of the parent species' genetic information  and even though the parent species may become extinct  the daughter species lives on ."
p11
ss.