(dp1
S'input'
p2
(dp3
S'encoded'
p4
(lp5
I64
aI2179
aI43
aI223
aI2138
aI11
aI89
aI21
aI45
aI2185
aI372
asS'ori'
p6
S'This house believes all nations have a right to nuclear weapons'
p7
ssS'output'
p8
(dp9
g4
(lp10
I281
aI2185
aI2349
aI3136
aI1074
aI4276
aI34
aI2185
aI2349
aI12084
aI5
aI282
aI2039
aI34
aI3
aI2466
aI7
aI2185
aI2223
aI63765
asg6
S'Major nuclear disarmament groups include Campaign for Nuclear Disarmament  Greenpeace and International Physicians for the Prevention of Nuclear War .'
p11
ss.