(dp1
S'input'
p2
(dp3
S'encoded'
p4
(lp5
I64
aI2179
aI43
aI63
aI188
aI220
aI417
aI1619
aI4275
aI45
aI713
aI14799
aI7533
aI311
aI3
aI3721
aI5145
asS'ori'
p6
S'This house believes that democratic governments should require voters to present photo identification at the polling station'
p7
ssS'output'
p8
(dp9
g4
(lp10
I2203
aI158
aI6065
aI2293
aI6095
aI387
aI6110
aI5
aI2652
aI2206
aI187
aI11
aI159
aI2511
aI158
aI7715
aI5
aI2980
aI63765
asg6
S'Countries including Belgium  Spain  Greece  Italy  Malta  and seven US states have such laws  including Indiana and Georgia  .'
p11
ss.