(dp1
S'input'
p2
(dp3
S'encoded'
p4
(lp5
I64
aI2179
aI394
aI2773
aI12505
asS'ori'
p6
S'This house would embrace multiculturalism'
p7
ssS'output'
p8
(dp9
g4
(lp10
I134
aI122
aI878
aI2136
aI34
aI165
aI7
aI3
aI398
aI45
aI3018
aI1565
aI2610
aI5
aI45
aI1576
aI864
aI120
aI81
aI500
aI99
aI791
aI3
aI1565
aI24233
aI5345
aI7
aI926
aI2022
aI63765
asg6
S'It was official policy for much of the 20th century to promote European immigration and to keep out those who did not fit the European  predominately Anglo-Celtic  character of Australian society .'
p11
ss.