(dp1
S'input'
p2
(dp3
S'encoded'
p4
(lp5
I64
aI2179
aI43
aI8629
aI116
aI3
aI117
aI998
asS'ori'
p6
S'This house believes atheism is the only way'
p7
ssS'output'
p8
(dp9
g4
(lp10
I3
aI2165
aI3014
aI7
aI3
aI8580
aI116
aI89
aI829
aI7
aI165
aI2196
aI63765
asg6
S'The ultimate purpose of the story is a matter of much debate .'
p11
ss.