(dp1
S'input'
p2
(dp3
S'encoded'
p4
(lp5
I64
aI2179
aI43
aI63
aI6670
aI546
aI417
aI316
aI89
aI1334
aI3108
aI7
aI4849
aI1886
aI2855
asS'ori'
p6
S'This house believes that wind power should be a primary focus of future energy supply'
p7
ssS'output'
p8
(dp9
g4
(lp10
I100
aI5120
aI546
aI116
aI2590
aI75
aI8667
aI7311
aI92
aI182
aI8501
aI4555
aI34
aI3
aI3014
aI63765
asg6
S'Some electrical power is generated by burning crops which are grown specifically for the purpose .'
p11
ss.