(dp1
S'input'
p2
(dp3
S'encoded'
p4
(lp5
I64
aI2179
aI394
aI2017
aI262
asS'ori'
p6
S'This house would ban boxing'
p7
ssS'output'
p8
(dp9
g4
(lp10
I273
aI182
aI267
aI274
aI7
aI275
aI5
aI276
aI63765
asg6
S'There are two forms of boxing: amateur and professional .'
p11
ss.