(dp1
S'input'
p2
(dp3
S'encoded'
p4
(lp5
I64
aI2179
aI43
aI63
aI3
aI4538
aI7
aI4434
aI7793
aI283
aI45
aI3586
aI417
aI316
aI577
asS'ori'
p6
S'This house believes that the sale of violent video games to minors should be banned'
p7
ssS'output'
p8
(dp9
g4
(lp10
I378
aI64
aI28220
aI291
aI897
aI5
aI4212
aI88
aI935
aI6037
aI958
aI138
aI96
aI897
aI4658
aI6348
aI63765
asg6
S'However  this discrepancy between media and real-life crimes may arguably dispute rather than support media effects theories .'
p11
ss.