(dp1
S'input'
p2
(dp3
S'encoded'
p4
(lp5
I64
aI2179
aI43
aI63
aI3
aI4990
aI4991
aI116
aI4850
aI24
aI12166
aI3
aI475
aI7
aI3532
aI3290
aI7
aI4714
asS'ori'
p6
S'This house believes that the Catholic Church is justified in forbidding the use of barrier methods of contraception'
p7
ssS'output'
p8
(dp9
g4
(lp10
I214
aI1858
aI3
aI4990
aI4991
aI5
aI7444
aI11
aI1199
aI726
aI24
aI3
aI1257
aI5895
aI2439
aI622
aI604
aI725
aI2759
aI2767
aI3024
aI11
aI3867
aI551
aI271
aI3609
aI45
aI3
aI475
aI7
aI7332
aI34
aI4714
aI73
aI4368
aI2466
aI63765
asg6
S'Issues surrounding the Catholic Church and AIDS have become controversial in the past twenty years  primarily because many prominent religious leaders have publicly declared their opposition to the use of condoms for contraception or disease prevention .'
p11
ss.