(dp1
S'input'
p2
(dp3
S'encoded'
p4
(lp5
I64
aI2179
aI43
aI63
aI3376
aI4938
aI417
aI316
aI3537
asS'ori'
p6
S'This house believes that endangered species should be protected'
p7
ssS'output'
p8
(dp9
g4
(lp10
I6826
aI1069
aI41
aI177
aI41
aI4938
aI4386
aI3569
aI14
aI63765
asg6
S'Estimates reach as high as 140 000 species per year (based on Species-area theory)  .'
p11
ss.