(dp1
S'input'
p2
(dp3
S'encoded'
p4
(lp5
I64
aI2179
aI43
aI63
aI3
aI4538
aI7
aI4434
aI7793
aI283
aI45
aI3586
aI417
aI316
aI577
asS'ori'
p6
S'This house believes that the sale of violent video games to minors should be banned'
p7
ssS'output'
p8
(dp9
g4
(lp10
I20323
aI375
aI4513
aI45
aI3
aI2482
aI2483
aI7593
aI45
aI3776
aI3
aI3355
aI2528
aI13505
aI89
aI3864
aI7
aI3865
aI45
aI3
aI2483
aI24
aI88
aI63765
asg6
S"Schwarzenegger again appealed to the Supreme Court  looking to overturn the Ninth Circuit's ruling  filing a writ of certiorari to the Court in May 2009 ."
p11
ss.