(dp1
S'input'
p2
(dp3
S'encoded'
p4
(lp5
I64
aI2179
aI43
aI8629
aI116
aI3
aI117
aI998
asS'ori'
p6
S'This house believes atheism is the only way'
p7
ssS'output'
p8
(dp9
g4
(lp10
I42
aI55
aI174
aI12
aI3740
aI3057
aI7
aI3
aI22025
aI7983
aI3168
aI7
aI3
aI903
aI4412
aI411
aI22181
aI63765
asg6
S'He has also been strongly critical of the Gaia philosophy theory of the independent scientist James Lovelock  .'
p11
ss.