(dp1
S'input'
p2
(dp3
S'encoded'
p4
(lp5
I64
aI2179
aI43
aI63
aI3
aI28431
aI7
aI2157
aI4624
aI75
aI39939
aI27257
aI122
aI4850
asS'ori'
p6
S'This house believes that the leaking of military documents by Anat Kamm was justified'
p7
ssS'output'
p8
(dp9
g4
(lp10
I100
aI260
aI13415
aI11
aI579
aI11881
aI5224
aI736
aI4846
aI5224
aI366
aI14198
aI4736
aI60
aI89
aI1792
aI3
aI1147
aI16948
aI3008
aI33
aI34
aI1343
aI63765
asg6
S'Some government prosecutors have retro-actively changed unclassified information into classified information after charging someone with a crime; see the Thomas Andrews Drake case for example .'
p11
ss.