(dp1
S'input'
p2
(dp3
S'encoded'
p4
(lp5
I64
aI2179
aI43
aI63
aI2157
aI2565
aI493
aI19084
aI382
aI4850
asS'ori'
p6
S"This house believes that Israel's 2008-2009 military operations against Gaza were justified"
p7
ssS'output'
p8
(dp9
g4
(lp10
I24
aI88
aI31090
aI729
aI3
aI4694
aI3270
aI63
aI732
aI3419
aI117
aI4669
aI42177
aI2827
aI43213
aI5
aI99
aI42177
aI24
aI43154
aI63765
asg6
S'In May 2009  Chinkin denied the charges  saying that her statement only addressed jus ad bellum  and not jus in bello .'
p11
ss.