(dp1
S'input'
p2
(dp3
S'encoded'
p4
(lp5
I64
aI2179
aI43
aI223
aI2138
aI11
aI89
aI21
aI45
aI2185
aI372
asS'ori'
p6
S'This house believes all nations have a right to nuclear weapons'
p7
ssS'output'
p8
(dp9
g4
(lp10
I3
aI35
aI2635
aI720
aI2132
aI8607
aI63
aI89
aI6832
aI7
aI116
aI4885
aI45
aI545
aI89
aI1896
aI5805
aI63765
asg6
S'The Natural Resources Defense Council speculates that a figure of 200 is accurate to within a few tens  .'
p11
ss.