(dp1
S'input'
p2
(dp3
S'encoded'
p4
(lp5
I64
aI2179
aI394
aI117
aI7428
aI21151
aI34
aI11389
aI2042
aI24
aI4364
asS'ori'
p6
S'This house would only teach abstinence for sex education in schools'
p7
ssS'output'
p8
(dp9
g4
(lp10
I134
aI88
aI174
aI316
aI8735
aI620
aI11389
aI12716
aI10649
aI702
aI42929
aI11389
aI42929
aI73
aI11389
aI2042
aI7150
aI6763
aI63765
asg6
S'It may also be delivered through sex self-help authors  magazine advice columnists  sex columnists  or sex education web sites .'
p11
ss.