(dp1
S'input'
p2
(dp3
S'encoded'
p4
(lp5
I64
aI2179
aI43
aI63
aI2157
aI2565
aI493
aI19084
aI382
aI4850
asS'ori'
p6
S"This house believes that Israel's 2008-2009 military operations against Gaza were justified"
p7
ssS'output'
p8
(dp9
g4
(lp10
I2657
aI174
aI2946
aI36512
aI631
aI2319
aI3
aI2581
aI63765
asg6
S'Egypt also deployed 500 CSF anti-riot police along the border  .'
p11
ss.