(dp1
S'input'
p2
(dp3
S'encoded'
p4
(lp5
I64
aI2179
aI43
aI63
aI3
aI4990
aI4991
aI116
aI4850
aI24
aI12166
aI3
aI475
aI7
aI3532
aI3290
aI7
aI4714
asS'ori'
p6
S'This house believes that the Catholic Church is justified in forbidding the use of barrier methods of contraception'
p7
ssS'output'
p8
(dp9
g4
(lp10
I64
aI667
aI2086
aI2190
aI2274
aI4260
aI117
aI8136
aI7332
aI42
aI122
aI9249
aI75
aI3754
aI22375
aI34
aI206
aI49
aI2652
aI2665
aI7
aI3
aI5254
aI24
aI25
aI63765
asg6
S'This New York business initially manufactured only skin condoms (in 1890 he was arrested by Anthony Comstock for having almost seven hundred of the devices in his house)  .'
p11
ss.