(dp1
S'input'
p2
(dp3
S'encoded'
p4
(lp5
I64
aI2179
aI43
aI8629
aI116
aI3
aI117
aI998
asS'ori'
p6
S'This house believes atheism is the only way'
p7
ssS'output'
p8
(dp9
g4
(lp10
I378
aI8643
aI8644
aI89
aI2999
aI7
aI1420
aI8239
aI311
aI8611
aI4750
aI122
aI8645
aI34
aI3
aI2326
aI131
aI122
aI99
aI2100
aI24
aI3
aI8300
aI63765
asg6
S'However  Alister McGrath  a Professor of Historical Theology at Oxford University  was interviewed for the program  but was not included in the documentary  .'
p11
ss.