(dp1
S'input'
p2
(dp3
S'encoded'
p4
(lp5
I64
aI2179
aI43
aI24
aI3
aI475
aI7
aI12436
aI3364
asS'ori'
p6
S'This house believes in the use of affirmative action'
p7
ssS'output'
p8
(dp9
g4
(lp10
I159
aI89
aI145
aI116
aI4725
aI2481
aI131
aI3
aI2528
aI49954
aI171
aI55
aI416
aI211
aI708
aI7
aI4679
aI45
aI881
aI89
aI22
aI21073
aI7
aI64
aI145
aI63765
asg6
S'Such a system is morally unconstitutional  but the ruling ANC party has used its control of parliament to prevent a political reversal of this system .'
p11
ss.