(dp1
S'input'
p2
(dp3
S'encoded'
p4
(lp5
I64
aI2179
aI43
aI63
aI3
aI4538
aI7
aI4434
aI7793
aI283
aI45
aI3586
aI417
aI316
aI577
asS'ori'
p6
S'This house believes that the sale of violent video games to minors should be banned'
p7
ssS'output'
p8
(dp9
g4
(lp10
I653
aI64
aI877
aI448
aI4724
aI7
aI3
aI845
aI1544
aI60
aI3492
aI12432
aI55
aI2425
aI89
aI696
aI7
aI319
aI14184
aI5
aI7010
aI45
aI836
aI7793
aI283
aI4555
aI34
aI4015
aI10950
aI63765
asg6
S'Despite this conclusion  general awareness of the issue together with traditional stereotyping has led a number of game developers and designers to create non-violent video games specifically for female audiences .'
p11
ss.