(dp1
S'input'
p2
(dp3
S'encoded'
p4
(lp5
I64
aI2179
aI394
aI10662
aI626
aI187
aI2157
aI2697
aI19
aI2371
asS'ori'
p6
S'This house would remove United States military bases from Japan'
p7
ssS'output'
p8
(dp9
g4
(lp10
I89
aI2017
aI14
aI372
aI24
aI11542
aI34
aI267
aI572
aI3203
aI366
aI3
aI2606
aI5
aI5175
aI2297
aI75
aI2371
aI397
aI3
aI17769
aI6874
aI639
aI174
aI419
aI1856
aI4329
aI45
aI211
aI2891
aI63765
asg6
S'A ban on weapons in Okinawa for two long periods after the invasion and forced annexation by Japan during the Meiji Restoration period also very likely contributed to its development .'
p11
ss.