(dp1
S'input'
p2
(dp3
S'encoded'
p4
(lp5
I64
aI2179
aI43
aI63
aI7382
aI116
aI400
aI4713
asS'ori'
p6
S'This house believes that bribery is sometimes acceptable'
p7
ssS'output'
p8
(dp9
g4
(lp10
I7382
aI12422
aI89
aI3211
aI5
aI116
aI1038
aI75
aI70
aI4735
aI41
aI3
aI3847
aI1710
aI701
aI73
aI15916
aI7
aI351
aI19170
aI7
aI2755
aI45
aI673
aI3
aI3089
aI7
aI51
aI878
aI73
aI248
aI2007
aI24
aI10293
aI7
aI89
aI658
aI73
aI976
aI3938
aI63765
asg6
S"Bribery constitutes a crime and is defined by Black's Law Dictionary as the offering  giving  receiving  or soliciting of any item of value to influence the actions of an official or other person in charge of a public or legal duty ."
p11
ss.