(dp1
S'input'
p2
(dp3
S'encoded'
p4
(lp5
I64
aI2179
aI394
aI16756
aI20435
asS'ori'
p6
S'This house would criminalize blasphemy'
p7
ssS'output'
p8
(dp9
g4
(lp10
I89
aI5430
aI34
aI3
aI14153
aI742
aI63
aI3
aI4515
aI7
aI3
aI4035
aI122
aI89
aI22259
aI75
aI62966
aI45
aI652
aI5761
aI2203
aI10126
aI3
aI9735
aI27897
aI5
aI3517
aI89
aI22496
aI47
aI1301
aI2455
aI3575
aI24
aI3
aI619
aI7
aI49254
aI75
aI2287
aI73
aI2135
aI2321
aI63765
asg6
S'A spokesperson for the protesters said that the release of the film was a ploy by imperialists to harm Muslim countries  insult the prophet Muhammed  and stage a Crusade  adding: "We will never remain silent in the face of ploys by domestic or foreign enemies  .'
p11
ss.