(dp1
S'input'
p2
(dp3
S'encoded'
p4
(lp5
I64
aI2179
aI394
aI1499
aI177
aI1819
aI34
aI160
asS'ori'
p6
S'This house would build high rises for housing'
p7
ssS'output'
p8
(dp9
g4
(lp10
I9812
aI6271
aI122
aI39508
aI35677
aI18560
aI37120
aI643
aI217
aI7
aI3
aI24402
aI1693
aI14
aI498
aI7
aI499
aI6729
aI407
aI63765
asg6
S"Philip Flower's son was Cyril Flower  1st Baron Battersea developed most of the mansion blocks on Prince of Wales Drive  London ."
p11
ss.