(dp1
S'input'
p2
(dp3
S'encoded'
p4
(lp5
I64
aI2179
aI394
aI2773
aI12505
asS'ori'
p6
S'This house would embrace multiculturalism'
p7
ssS'output'
p8
(dp9
g4
(lp10
I53613
aI3174
aI5
aI4279
aI1230
aI3914
aI5
aI773
aI4375
aI63765
asg6
S'One-dimensional idolic perception and communication involves identity and being identical .'
p11
ss.