(dp1
S'input'
p2
(dp3
S'encoded'
p4
(lp5
I64
aI2179
aI43
aI63
aI3
aI4538
aI7
aI4434
aI7793
aI283
aI45
aI3586
aI417
aI316
aI577
asS'ori'
p6
S'This house believes that the sale of violent video games to minors should be banned'
p7
ssS'output'
p8
(dp9
g4
(lp10
I897
aI673
aI73
aI897
aI4658
aI182
aI416
aI897
aI2992
aI12911
aI4279
aI3168
aI5
aI6362
aI45
aI6455
aI45
aI3
aI6348
aI1191
aI3
aI3708
aI24
aI92
aI4256
aI897
aI1466
aI40
aI271
aI10950
aI1190
aI5
aI14476
aI63765
asg6
S'Media influence or media effects are used media studies  psychology  communication theory and sociology to refer to the theories about the ways in which mass media affect how their audiences think and behave .'
p11
ss.