(dp1
S'input'
p2
(dp3
S'encoded'
p4
(lp5
I64
aI2179
aI43
aI223
aI2138
aI11
aI89
aI21
aI45
aI2185
aI372
asS'ori'
p6
S'This house believes all nations have a right to nuclear weapons'
p7
ssS'output'
p8
(dp9
g4
(lp10
I134
aI116
aI622
aI51
aI2674
aI2925
aI468
aI60
aI1274
aI7832
aI63765
asg6
S'It is primarily an air superiority fighter with air-to-ground attack capabilities  .'
p11
ss.