(dp1
S'input'
p2
(dp3
S'encoded'
p4
(lp5
I64
aI2179
aI394
aI5284
aI150
aI3987
asS'ori'
p6
S'This house would reintroduce national service'
p7
ssS'output'
p8
(dp9
g4
(lp10
I155
aI382
aI416
aI24
aI658
aI2955
aI4949
aI5
aI400
aI174
aI45
aI5751
aI3213
aI7520
aI24
aI380
aI1948
aI7
aI3
aI2087
aI2330
aI52
aI159
aI41
aI3
aI6719
aI5938
aI63765
asg6
S'They were used in public construction projects  and sometimes also to fill worker shortages in various parts of the East German economy  such as the mining industry .'
p11
ss.