(dp1
S'input'
p2
(dp3
S'encoded'
p4
(lp5
I64
aI2179
aI394
aI5370
aI223
aI4013
aI10440
aI2446
aI4881
aI75
aI14482
aI11004
asS'ori'
p6
S'This house would abolish all collective bargaining rights claimed by trades unions'
p7
ssS'output'
p8
(dp9
g4
(lp10
I113
aI3386
aI6941
aI513
aI7483
aI868
aI45
aI791
aI3
aI759
aI382
aI246
aI7212
aI19
aI3
aI2131
aI63765
asg6
S'" Even black workers considered skilled enough to fit the part were generally excluded from the Union .'
p11
ss.