(dp1
S'input'
p2
(dp3
S'encoded'
p4
(lp5
I64
aI2179
aI13605
aI2258
aI45
aI2194
asS'ori'
p6
S'This house prefers trade to aid'
p7
ssS'output'
p8
(dp9
g4
(lp10
I64
aI1298
aI89
aI2369
aI22
aI47
aI378
aI3
aI727
aI463
aI5500
aI163
aI2194
aI938
aI136
aI1112
aI5
aI5117
aI63765
asg6
S'This requires a strong political will  however  the results could potentially make aid far more effective and efficient  .'
p11
ss.