(dp1
S'input'
p2
(dp3
S'encoded'
p4
(lp5
I64
aI2179
aI394
aI117
aI7428
aI21151
aI34
aI11389
aI2042
aI24
aI4364
asS'ori'
p6
S'This house would only teach abstinence for sex education in schools'
p7
ssS'output'
p8
(dp9
g4
(lp10
I89
aI3572
aI10
aI2035
aI7
aI5027
aI3534
aI353
aI63
aI7
aI3
aI3534
aI440
aI89
aI2231
aI7
aI773
aI3321
aI73
aI8803
aI9972
aI75
aI1980
aI564
aI5755
aI10497
aI2439
aI63765
asg6
S'A 1992 Washington state study of 535 adolescent mothers found that 62% of the mothers had a history of being raped or sexual molested by men whose ages averaged 27 years .'
p11
ss.