(dp1
S'input'
p2
(dp3
S'encoded'
p4
(lp5
I64
aI2179
aI394
aI5370
aI7146
aI4585
aI2446
asS'ori'
p6
S'This house would abolish intellectual property rights'
p7
ssS'output'
p8
(dp9
g4
(lp10
I134
aI116
aI14409
aI63
aI3
aI24209
aI24
aI132
aI1202
aI1577
aI89
aI3807
aI9473
aI7
aI3
aI15446
aI4585
aI63765
aI1413
aI5
aI7
aI80
aI1021
aI99
aI45
aI237
aI3056
aI5
aI475
aI7
aI63
aI4585
aI134
aI116
aI1719
aI131
aI1021
aI45
aI25
aI1841
aI588
aI60
aI51
aI2096
aI63765
asg6
S'It is plain that the innovator in these examples becomes a partial owner of the tangible property (e .g .  land and logs) of others  due not to first occupation and use of that property (for it is already owned)  but due to his coming up with an idea .'
p11
ss.