(dp1
S'input'
p2
(dp3
S'encoded'
p4
(lp5
I64
aI2179
aI394
aI2017
aI3807
aI314
aI3433
asS'ori'
p6
S'This house would ban partial birth abortions'
p7
ssS'output'
p8
(dp9
g4
(lp10
I80
aI4776
aI493
aI225
aI475
aI7
aI3460
aI4777
aI397
aI3257
aI41
aI134
aI4778
aI1718
aI3217
aI4779
aI45
aI3
aI3314
aI3833
aI63765
asg6
S'Others caution against unnecessary use of fetal anesthetic during abortion  as it poses potential health risks to the pregnant woman  .'
p11
ss.