(dp1
S'input'
p2
(dp3
S'encoded'
p4
(lp5
I64
aI2179
aI43
aI223
aI2138
aI11
aI89
aI21
aI45
aI2185
aI372
asS'ori'
p6
S'This house believes all nations have a right to nuclear weapons'
p7
ssS'output'
p8
(dp9
g4
(lp10
I93
aI122
aI63
aI3965
aI3168
aI4617
aI63
aI15
aI1249
aI440
aI279
aI12598
aI2468
aI2170
aI63765
asg6
S'One was that deterrence theory assumed that both sides had common rational peaceful goals .'
p11
ss.