(dp1
S'input'
p2
(dp3
S'encoded'
p4
(lp5
I64
aI2179
aI43
aI63
aI3
aI21
aI45
aI12715
aI417
aI99
aI316
aI2897
asS'ori'
p6
S'This house believes that the right to asylum should not be absolute'
p7
ssS'output'
p8
(dp9
g4
(lp10
I75
aI395
aI2140
aI3353
aI2610
aI3243
aI382
aI9083
aI5717
aI5
aI7476
aI63765
asg6
S'By later standards enforcement immigration officers were badly trained and equipped .'
p11
ss.