(dp1
S'input'
p2
(dp3
S'encoded'
p4
(lp5
I64
aI2179
aI43
aI63
aI2157
aI2565
aI493
aI19084
aI382
aI4850
asS'ori'
p6
S"This house believes that Israel's 2008-2009 military operations against Gaza were justified"
p7
ssS'output'
p8
(dp9
g4
(lp10
I2659
aI55
aI742
aI63
aI132
aI260
aI9323
aI5
aI3
aI4679
aI1444
aI182
aI759
aI7
aI3
aI16619
aI2667
aI5
aI41
aI159
aI3266
aI3811
aI63765
asg6
S'Israel has said that these government ministries and the parliament building are part of the Hamas infrastructure and as such legitimate targets .'
p11
ss.