(dp1
S'input'
p2
(dp3
S'encoded'
p4
(lp5
I64
aI2179
aI43
aI63
aI3
aI21
aI45
aI12715
aI417
aI99
aI316
aI2897
asS'ori'
p6
S'This house believes that the right to asylum should not be absolute'
p7
ssS'output'
p8
(dp9
g4
(lp10
I3
aI3719
aI15800
aI1863
aI4246
aI63
aI226
aI3
aI696
aI7
aI976
aI5307
aI32254
aI7477
aI5
aI12715
aI13895
aI55
aI99
aI1818
aI1510
aI691
aI3
aI3
aI696
aI7
aI1968
aI5307
aI55
aI2322
aI7884
aI5
aI691
aI3
aI2644
aI55
aI12782
aI3
aI696
aI7
aI976
aI5307
aI63765
asg6
S'The Pew Hispanic Center notes that while the number of legal immigrants (including LPRs  refugees  and asylum seekers) arriving has not varied substantially since the 1980s  the number of illegal immigrants has increased dramatically and  since the mid 1990s  has surpassed the number of legal immigrants  .'
p11
ss.