(dp1
S'input'
p2
(dp3
S'encoded'
p4
(lp5
I64
aI2179
aI394
aI2017
aI262
asS'ori'
p6
S'This house would ban boxing'
p7
ssS'output'
p8
(dp9
g4
(lp10
I1268
aI1369
aI1074
aI1220
aI1281
aI1266
aI1267
aI1145
aI1146
aI1314
aI54841
aI1094
aI1282
aI1279
aI1280
aI1149
aI1150
aI1117
aI1118
aI1285
aI1286
aI5
aI1212
aI1213
aI63765
asg6
S'Famous Swarmers include Rocky Marciano  Mike Tyson  Manny Pacquiao  Chris Arreola  Joe Frazier  Harry Greb  Miguel Cotto  Henry Armstrong  Ricky Hatton  and Arturo Gatti .'
p11
ss.