(dp1
S'input'
p2
(dp3
S'encoded'
p4
(lp5
I64
aI2179
aI43
aI3
aI626
aI187
aI116
aI1989
aI34
aI3102
aI2223
asS'ori'
p6
S"This house believes the United States is responsible for Mexico's drugs war"
p7
ssS'output'
p8
(dp9
g4
(lp10
I2812
aI12906
aI11
aI174
aI5461
aI24
aI3
aI2613
aI2223
aI5
aI1376
aI5
aI17107
aI10070
aI5269
aI11
aI12
aI9274
aI75
aI3
aI631
aI2157
aI2613
aI8677
aI5
aI3
aI2248
aI145
aI63765
asg6
S'Ethnic prejudices have also emerged in the drug war  and poor and helpless indigenous communities have been targeted by the police  military  drug traffickers and the justice system .'
p11
ss.