(dp1
S'input'
p2
(dp3
S'encoded'
p4
(lp5
I64
aI2179
aI43
aI63
aI3
aI28431
aI7
aI2157
aI4624
aI75
aI39939
aI27257
aI122
aI4850
asS'ori'
p6
S'This house believes that the leaking of military documents by Anat Kamm was justified'
p7
ssS'output'
p8
(dp9
g4
(lp10
I3
aI22
aI15593
aI7
aI4624
aI5
aI271
aI30475
aI47
aI316
aI3611
aI75
aI89
aI9806
aI7
aI5806
aI63765
asg6
S'The political relevance of documents and their verisimilitude will be revealed by a cast of thousands .'
p11
ss.