(dp1
S'input'
p2
(dp3
S'encoded'
p4
(lp5
I64
aI2179
aI394
aI16642
aI1376
aI5269
asS'ori'
p6
S'This house would subsidize poor communities'
p7
ssS'output'
p8
(dp9
g4
(lp10
I3964
aI34
aI79
aI256
aI124
aI3964
aI23105
aI24
aI2721
aI34
aI89
aI575
aI532
aI7
aI79
aI3818
aI63765
asg6
S'Food for work (FFW) programs provide food rations in exchange for a given amount of work done .'
p11
ss.