(dp1
S'input'
p2
(dp3
S'encoded'
p4
(lp5
I64
aI2179
aI43
aI223
aI2138
aI11
aI89
aI21
aI45
aI2185
aI372
asS'ori'
p6
S'This house believes all nations have a right to nuclear weapons'
p7
ssS'output'
p8
(dp9
g4
(lp10
I3
aI2210
aI7
aI3
aI11509
aI24
aI3
aI1996
aI7
aI2371
aI3
aI4707
aI3566
aI7
aI3
aI2206
aI34
aI270
aI86
aI41
aI261
aI41
aI271
aI594
aI596
aI116
aI637
aI17350
aI4591
aI63765
asg6
S'The role of the bombings in the surrender of Japan  the ethical justification of the US for using them  as well as their strategic importance  is still hotly debated  .'
p11
ss.