(dp1
S'input'
p2
(dp3
S'encoded'
p4
(lp5
I64
aI2179
aI394
aI5284
aI150
aI3987
asS'ori'
p6
S'This house would reintroduce national service'
p7
ssS'output'
p8
(dp9
g4
(lp10
I6230
aI658
aI6231
aI6232
aI5
aI3
aI5891
aI6233
aI6234
aI6235
aI6236
aI63765
asg6
S'Arriere-banCivil conscriptionCivilian Public ServiceCorveeEconomic conscriptionImpressment and the Quota SystemIndentured servantInvoluntary servitudeNational ServiceZivildienst  .'
p11
ss.