(dp1
S'input'
p2
(dp3
S'encoded'
p4
(lp5
I64
aI2179
aI394
aI5284
aI150
aI3987
asS'ori'
p6
S'This house would reintroduce national service'
p7
ssS'output'
p8
(dp9
g4
(lp10
I768
aI14
aI838
aI11608
aI42
aI4867
aI25
aI70
aI4927
aI19
aI3
aI4044
aI63765
aI4750
aI2240
aI7
aI70
aI24
aI63765
asg6
S"Then  on full scholarship  he obtained his law degree from the St . John's University School of Law in 1960  ."
p11
ss.