(dp1
S'input'
p2
(dp3
S'encoded'
p4
(lp5
I64
aI2179
aI43
aI63
aI2659
aI417
aI1690
aI3
aI12048
aI7
aI19084
asS'ori'
p6
S'This house believes that Israel should lift the blockade of Gaza'
p7
ssS'output'
p8
(dp9
g4
(lp10
I42
aI263
aI3
aI1274
aI2784
aI7
aI2223
aI3227
aI75
aI3
aI6056
aI202
aI493
aI29787
aI81
aI382
aI1370
aI45
aI1746
aI620
aI12048
aI63765
asg6
S'He called the attack "an act of war undertaken by the Israeli army against defenseless civilians" who were trying to break through Israel\'s "criminal blockade .'
p11
ss.