(dp1
S'input'
p2
(dp3
S'encoded'
p4
(lp5
I64
aI2179
aI43
aI24
aI3
aI475
aI7
aI12436
aI3364
asS'ori'
p6
S'This house believes in the use of affirmative action'
p7
ssS'output'
p8
(dp9
g4
(lp10
I271
aI3014
aI116
aI45
aI3709
aI6804
aI2976
aI3
aI2536
aI2136
aI24
aI3
aI10185
aI12912
aI5
aI705
aI5666
aI3539
aI311
aI5204
aI5
aI16203
aI5204
aI2363
aI63765
asg6
S'Their purpose is to help universities implement the reservation policy in the student admissions and staff recruitment processes at teaching and non teaching levels .'
p11
ss.