(dp1
S'input'
p2
(dp3
S'encoded'
p4
(lp5
I64
aI2179
aI394
aI117
aI7428
aI21151
aI34
aI11389
aI2042
aI24
aI4364
asS'ori'
p6
S'This house would only teach abstinence for sex education in schools'
p7
ssS'output'
p8
(dp9
g4
(lp10
I24
aI3
aI2176
aI7
aI3217
aI5
aI2445
aI3205
aI685
aI89
asg6
S'" In 1997 the Department of Health and Human Services established a "Girl Power!"'
p11
ss.