(dp1
S'input'
p2
(dp3
S'encoded'
p4
(lp5
I64
aI2179
aI43
aI8629
aI116
aI3
aI117
aI998
asS'ori'
p6
S'This house believes atheism is the only way'
p7
ssS'output'
p8
(dp9
g4
(lp10
I100
aI2985
aI7
aI2382
aI158
aI14588
aI3366
aI5
aI10642
aI3319
aI63
aI14524
aI8313
aI5
aI271
aI5781
aI3955
aI182
aI99
aI23984
aI2080
aI131
aI107
aI182
aI33630
aI7
aI2445
aI147
aI123
aI45
aI15521
aI17
aI7128
aI5
aI22
aI1227
asg6
S'Some critics of religion  including Dennett  Harris  and Hitchens  assert that theist religions and their holy books are not divinely inspired  but instead are fabrications of non-divine human individuals  created to fulfill social  biological  and political needs '
p11
ss.