(dp1
S'input'
p2
(dp3
S'encoded'
p4
(lp5
I64
aI2179
aI43
aI63
aI6670
aI546
aI417
aI316
aI89
aI1334
aI3108
aI7
aI4849
aI1886
aI2855
asS'ori'
p6
S'This house believes that wind power should be a primary focus of future energy supply'
p7
ssS'output'
p8
(dp9
g4
(lp10
I3922
aI89
aI11683
aI1886
aI2448
aI5125
aI45
aI3
aI912
aI2148
aI2448
aI5
aI63
aI64
aI98
aI99
aI3226
aI24
aI3
aI4849
aI768
aI3
aI1047
aI912
aI11935
aI2844
aI394
aI1447
aI2439
aI11935
aI19
aI7145
aI1495
aI394
aI1447
aI2639
aI2439
aI5
aI89
aI136
aI4599
aI11683
aI3262
aI270
aI117
aI11914
aI19
aI7145
aI1495
aI394
aI11
aI5092
aI34
aI2155
aI2439
aI63765
asg6
S'Assuming a fusion energy output equal to the current global output and that this does not increase in the future  then the known current lithium reserves would last 3000 years  lithium from sea water would last 60 million years  and a more complicated fusion process using only deuterium from sea water would have fuel for 150 billion years  .'
p11
ss.