(dp1
S'input'
p2
(dp3
S'encoded'
p4
(lp5
I64
aI2179
aI43
aI8629
aI116
aI3
aI117
aI998
asS'ori'
p6
S'This house believes atheism is the only way'
p7
ssS'output'
p8
(dp9
g4
(lp10
I378
aI298
aI8301
aI8403
aI8494
aI40
aI725
aI3862
aI19
aI25
aI2240
aI11
aI8501
aI588
aI3985
aI24
aI7829
aI8494
aI116
aI6196
aI34
aI4199
aI5
aI1890
aI4993
aI63
aI217
aI7
aI86
aI6847
aI63765
asg6
S"However  when Dawkins asks Gluck how many children from his school have grown up believing in evolution  Gluck is lost for words  and eventually admits that most of them probably don't ."
p11
ss.