(dp1
S'input'
p2
(dp3
S'encoded'
p4
(lp5
I64
aI2179
aI394
aI15841
aI2736
asS'ori'
p6
S'This house would disband ASEAN'
p7
ssS'output'
p8
(dp9
g4
(lp10
I11958
aI19
aI6798
aI574
aI2544
aI2600
aI3
aI5336
aI174
aI2942
aI14
aI2250
aI5
aI2465
aI24
aI3
aI2654
aI63765
aI14
aI2394
aI3
aI2769
aI2646
aI4560
aI2268
aI122
aI2340
aI60
aI3
aI2033
aI7
aI1646
aI2769
aI2770
aI736
aI89
aI4560
aI63765
aI3
aI2268
aI427
aI782
aI14
aI2927
aI366
aI223
aI131
aI93
aI7
aI3
aI2544
aI187
aI11
aI2215
aI134
aI63765
aI134
aI373
aI1518
aI1112
aI14
aI2116
aI366
aI3
aI2308
aI2215
aI134
aI775
aI3593
aI223
aI2185
aI372
aI24
aI3
aI2654
asg6
S"Aside from improving each member state's economies  the bloc also focused on peace and stability in the region . On 15 December 1995  the Southeast Asian Nuclear-Weapon-Free Zone Treaty was signed with the intention of turning Southeast Asia into a Nuclear-Weapon-Free Zone . The treaty took effect on 28 March 1997 after all but one of the member states have ratified it . It became fully effective on 21 June 2001  after the Philippines ratified it  effectively banning all nuclear weapons in the region "
p11
ss.