(dp1
S'input'
p2
(dp3
S'encoded'
p4
(lp5
I64
aI2179
aI235
aI3
aI2136
aI7
aI3
aI2306
aI7
aI2390
asS'ori'
p6
S'This house supports the one-child policy of the republic of China'
p7
ssS'output'
p8
(dp9
g4
(lp10
I233
aI45
aI22437
aI3
aI2411
aI2471
aI7
aI2445
aI5989
aI11
aI99
aI3940
aI6806
aI12431
aI5
aI44
aI45
aI3281
aI18202
aI3154
aI12431
aI1453
aI99
aI1546
aI3
aI68
aI63
aI2445
aI3524
aI55
aI990
aI12
aI11681
aI45
aI3
aI6267
aI5
aI725
aI7
aI211
aI5179
aI63765
asg6
S'According to Knight  the vast majority of human societies have not lived sustainable lifestyles  and attempts to live environmentally friendly lifestyles do not change the fact that human existence has ultimately been destructive to the Earth and many of its non-human organisms  .'
p11
ss.