(dp1
S'input'
p2
(dp3
S'encoded'
p4
(lp5
I64
aI2179
aI13605
aI2258
aI45
aI2194
asS'ori'
p6
S'This house prefers trade to aid'
p7
ssS'output'
p8
(dp9
g4
(lp10
I34
aI1343
aI3
aI285
aI2895
aI24
aI211
aI5272
aI3
aI957
aI7
aI234
aI22999
aI440
aI12
aI2257
aI34
aI2439
aI2618
aI63
aI3
aI4
aI63
aI16173
aI5
aI1022
aI7092
aI394
aI17114
aI1228
aI189
aI92
aI1228
aI220
aI394
aI768
aI2976
aI34
aI3
aI1228
aI7
aI122
aI63765
asg6
S'For example  the World Bank  in its   reflected the point of view Bauer had been advocating for years  stating that the notion that "good advisers and technical experts would formulate good policies  which good governments would then implement for the good of society" was outdated:  .'
p11
ss.