(dp1
S'input'
p2
(dp3
S'encoded'
p4
(lp5
I64
aI2179
aI394
aI163
aI959
aI2042
aI3557
asS'ori'
p6
S'This house would make physical education compulsory'
p7
ssS'output'
p8
(dp9
g4
(lp10
I24
aI2953
aI13534
aI182
aI4666
aI45
aI1453
aI311
aI870
aI292
aI5101
aI7
aI25738
aI89
aI3427
aI397
aI1334
aI5
aI6954
aI2042
aI63765
asg6
S'In Poland  pupils are expected to do at least three hours of PE a week during primary and secondary education  .'
p11
ss.