(dp1
S'input'
p2
(dp3
S'encoded'
p4
(lp5
I64
aI2179
aI394
aI60
aI23587
asS'ori'
p6
S'This house would re-engage with Myanmar'
p7
ssS'output'
p8
(dp9
g4
(lp10
I291
aI5
aI3118
aI122
aI743
aI75
aI89
aI3034
aI2132
aI9270
aI75
aI3
aI448
aI5
aI49
aI223
aI2738
aI7
aI2022
aI897
aI382
aI38907
aI73
aI1607
aI459
aI260
aI708
aI459
aI3
aI12800
aI998
aI45
aI18401
aI92
aI4341
aI5459
aI5
aI2609
aI2569
aI60
aI3
aI3664
aI2877
aI7
aI14622
aI4859
aI63765
asg6
S'Between 1962 and 1974  Burma was ruled by a revolutionary council headed by the general  and almost all aspects of society (business  media  production) were nationalized or brought under government control under the Burmese Way to Socialism which combined Soviet-style nationalisation and central planning with the governmental implementation of superstitious beliefs .'
p11
ss.