(dp1
S'input'
p2
(dp3
S'encoded'
p4
(lp5
I64
aI2179
aI394
aI163
aI959
aI2042
aI3557
asS'ori'
p6
S'This house would make physical education compulsory'
p7
ssS'output'
p8
(dp9
g4
(lp10
I46307
aI2165
aI957
aI116
aI63
aI8
aI5989
aI182
aI87
aI46308
aI165
aI136
aI2604
aI138
aI11780
aI46309
aI3
aI2864
aI147
aI83
aI5751
aI24
aI2022
aI182
aI87
aI1818
aI63
aI2488
aI116
aI2867
aI45
aI8527
aI17
aI8326
aI5
aI61
aI42
aI1809
aI5344
aI4588
aI63765
asg6
S'Durkheims ultimate point is that modern societies are so complexso much more complex than primitive hunter-gatherer societiesand the roles individuals must fill in society are so varied that formal mass-education is necessary to instill social solidarity and what he terms secular morality .'
p11
ss.