(dp1
S'input'
p2
(dp3
S'encoded'
p4
(lp5
I64
aI2179
aI394
aI190
aI3
aI21
aI45
aI3895
aI834
asS'ori'
p6
S'This house would limit the right to bear arms'
p7
ssS'output'
p8
(dp9
g4
(lp10
I217
aI2138
aI1781
aI3
aI546
aI45
aI454
aI777
aI80
aI5
aI631
aI271
aI284
aI2295
aI41
aI89
aI2378
aI546
aI2464
aI75
aI6349
aI63765
asg6
S'Most nations hold the power to protect themselves  others  and police their own territory as a fundamental power vested by sovereignty .'
p11
ss.