(dp1
S'input'
p2
(dp3
S'encoded'
p4
(lp5
I64
aI2179
aI394
aI2998
aI3
aI4360
aI7
aI3249
aI6804
aI24
aI3
aI102
asS'ori'
p6
S'This house would encourage the creation of private universities in the UK'
p7
ssS'output'
p8
(dp9
g4
(lp10
I378
aI3
aI752
aI45
aI5751
aI864
aI3
aI30279
aI4370
aI73
aI99
aI47
aI316
aI20
aI588
aI45
aI574
aI229
aI4758
aI55501
aI94
aI116
aI99
aI89
aI3578
aI760
aI5
aI351
aI752
aI1191
aI7787
aI24
aI3
aI2206
aI2935
aI10170
aI1834
aI60
aI3
aI229
aI2825
asg6
S'However  the decision to fill out the reputational survey or not will be left up to each individual college as: "the Annapolis Group is not a legislative body and any decision about participating in the US News rankings rests with the individual institutions ."'
p11
ss.