(dp1
S'input'
p2
(dp3
S'encoded'
p4
(lp5
I64
aI2179
aI43
aI24
aI3
aI475
aI7
aI12436
aI3364
asS'ori'
p6
S'This house believes in the use of affirmative action'
p7
ssS'output'
p8
(dp9
g4
(lp10
I51
aI229
aI1068
aI99
aI316
aI2909
aI12391
aI24
aI128
aI45
aI316
aI12392
aI493
aI63765
asg6
S'An individual need not be actually harmed in order to be discriminated against .'
p11
ss.