(dp1
S'input'
p2
(dp3
S'encoded'
p4
(lp5
I64
aI2179
aI43
aI223
aI2138
aI11
aI89
aI21
aI45
aI2185
aI372
asS'ori'
p6
S'This house believes all nations have a right to nuclear weapons'
p7
ssS'output'
p8
(dp9
g4
(lp10
I2046
aI55
aI263
aI14
aI3
aI10
aI7
aI2659
aI45
aI2267
aI3
aI11570
aI7246
aI6978
aI7
aI211
aI2185
aI4678
aI5
aI238
aI211
aI2185
aI4678
aI459
aI27120
aI16849
aI63765
asg6
S'Iran has called on the state of Israel to sign the NPT  accept inspection of its nuclear facilities  and place its nuclear facilities under IAEA safeguards  .'
p11
ss.