(dp1
S'input'
p2
(dp3
S'encoded'
p4
(lp5
I64
aI2179
aI43
aI63
aI1036
aI4828
aI33250
aI116
aI25073
aI45
aI3315
aI4562
asS'ori'
p6
S'This house believes that male infant circumcision is tantamount to child abuse'
p7
ssS'output'
p8
(dp9
g4
(lp10
I1210
aI18059
aI14083
aI7
aI3
aI25339
aI5
aI3315
aI3217
aI2136
aI5
aI6442
aI2180
aI7
aI3
aI4137
aI34923
aI4758
aI7
aI2039
aI55
aI2173
aI63
aI15010
aI55
aI99
aI12
aI2200
aI45
aI3518
aI3
aI33250
aI2136
aI5
aI116
aI99
aI89
aI2544
aI7
aI3
aI4758
aI63765
asg6
S"David Forbes  chair of the pediatrics and child health policy and advocacy committee of the Royal Australasian College of Physicians has stated that Morris has not been asked to review the college's circumcision policy and is not a member of the college  ."
p11
ss.