(dp1
S'input'
p2
(dp3
S'encoded'
p4
(lp5
I64
aI2179
aI394
aI2773
aI12505
asS'ori'
p6
S'This house would embrace multiculturalism'
p7
ssS'output'
p8
(dp9
g4
(lp10
I136
aI1032
aI6303
aI4439
aI89
aI4224
aI15507
aI41
aI271
aI6029
aI1191
aI3
aI63765
asg6
S'More simply  Anderson (1984) describes a persons schema as their "organized knowledge about the world" (p .&nbsp;372) .'
p11
ss.