(dp1
S'input'
p2
(dp3
S'encoded'
p4
(lp5
I64
aI2179
aI394
aI3830
aI3
aI475
aI7
aI9441
aI13132
aI3102
aI24
aI276
aI381
asS'ori'
p6
S'This house would permit the use of performance enhancing drugs in professional sports'
p7
ssS'output'
p8
(dp9
g4
(lp10
I3206
aI11575
aI63
aI51
aI306
aI2521
aI55
aI458
aI5
aI236
aI3
aI2446
aI7
aI3
aI742
aI16731
aI5606
aI448
aI1210
aI50258
aI63765
asg6
S'"The B-sample helps confirm that an anti-doping rule violation has occurred and protects the rights of the athletes"  said WADA Director General David Howman .'
p11
ss.