(dp1
S'input'
p2
(dp3
S'encoded'
p4
(lp5
I64
aI2179
aI394
aI2017
aI223
aI9058
aI23653
asS'ori'
p6
S'This house would ban all unsustainable logging'
p7
ssS'output'
p8
(dp9
g4
(lp10
I298
aI759
aI7
aI89
aI8254
aI116
aI56
aI3
aI6762
aI443
aI593
aI36827
aI1931
aI64
aI1495
aI204
aI24
aI89
aI165
aI36828
aI2456
aI63765
asg6
S'When part of a forest is removed  the trees no longer evaporate away this water  resulting in a much drier climate .'
p11
ss.