(dp1
S'input'
p2
(dp3
S'encoded'
p4
(lp5
I64
aI2179
aI43
aI63
aI11083
aI10046
aI417
aI316
aI89
aI3135
aI4603
asS'ori'
p6
S'This house believes that Holocaust denial should be a criminal offence'
p7
ssS'output'
p8
(dp9
g4
(lp10
I89
aI1896
aI3131
aI751
aI134
aI2098
aI3
aI5756
aI2135
aI5496
aI2030
aI12792
aI12817
aI33595
aI11083
aI116
aI99
aI89
aI10790
aI845
aI63
aI93
aI12363
aI63765
asg6
S'A few months before it opened  the Iranian Foreign Ministry spokesman Hamid Reza Asefi stated: "The Holocaust is not a sacred issue that one can\'t touch .'
p11
ss.