(dp1
S'input'
p2
(dp3
S'encoded'
p4
(lp5
I64
aI2179
aI43
aI63
aI3376
aI4938
aI417
aI316
aI3537
asS'ori'
p6
S'This house believes that endangered species should be protected'
p7
ssS'output'
p8
(dp9
g4
(lp10
I64
aI258
aI63
aI273
aI182
aI595
aI2722
aI7
aI7797
aI852
aI24
aI1197
aI53
aI3
aI8106
aI7
aI3064
aI116
aI2715
aI63765
asg6
S'This means that there are greater rates of biodiversity loss in places where the inequity of wealth is greatest  .'
p11
ss.