(dp1
S'input'
p2
(dp3
S'encoded'
p4
(lp5
I64
aI2179
aI394
aI5370
aI223
aI4013
aI10440
aI2446
aI4881
aI75
aI14482
aI11004
asS'ori'
p6
S'This house would abolish all collective bargaining rights claimed by trades unions'
p7
ssS'output'
p8
(dp9
g4
(lp10
I6269
aI3
aI2016
aI55
aI12
aI23674
aI9409
aI24
aI4445
aI189
aI92
aI250
aI60
aI2148
aI3139
aI3
aI2410
aI7
aI7500
aI5
aI725
aI248
aI214
aI92
aI182
aI6992
aI189
aI63
aI47
aI4549
aI45
aI51
aI685
aI2351
aI145
aI63765
asg6
S'Consequently  the association has been dynamically supportive in administration policies which deal with global trafficking  the production of goods  and many other issues  which are optimistic policies that will add to an established financial system .'
p11
ss.