(dp1
S'input'
p2
(dp3
S'encoded'
p4
(lp5
I64
aI2179
aI394
aI60
aI23587
asS'ori'
p6
S'This house would re-engage with Myanmar'
p7
ssS'output'
p8
(dp9
g4
(lp10
I5615
aI12992
aI5672
aI60686
aI661
aI3
aI136
aI1173
aI60682
aI24
aI63765
asg6
S"Toungoo's young  ambitious king Tabinshwehti defeated the more powerful Hanthawaddy in 1541 ."
p11
ss.