(dp1
S'input'
p2
(dp3
S'encoded'
p4
(lp5
I64
aI2179
aI394
aI2017
aI628
asS'ori'
p6
S'This house would ban gambling'
p7
ssS'output'
p8
(dp9
g4
(lp10
I64
aI139
aI1074
aI1647
aI159
aI41
aI17395
aI5
aI648
aI63765
asg6
S'This can include acts such as robbery and assault .'
p11
ss.