(dp1
S'input'
p2
(dp3
S'encoded'
p4
(lp5
I64
aI2179
aI43
aI63
aI2659
aI417
aI1690
aI3
aI12048
aI7
aI19084
asS'ori'
p6
S'This house believes that Israel should lift the blockade of Gaza'
p7
ssS'output'
p8
(dp9
g4
(lp10
I3
aI869
aI455
aI2552
aI89
aI17009
aI24
aI19151
aI19152
aI773
aI416
aI45
aI1709
aI5092
aI45
aI19084
aI3188
aI267
aI6941
aI63765
asg6
S'The four fighters attacked a terminal in Nahal Oz being used to deliver fuel to Gaza  killing two workers .'
p11
ss.