(dp1
S'input'
p2
(dp3
S'encoded'
p4
(lp5
I64
aI2179
aI43
aI63
aI6670
aI546
aI417
aI316
aI89
aI1334
aI3108
aI7
aI4849
aI1886
aI2855
asS'ori'
p6
S'This house believes that wind power should be a primary focus of future energy supply'
p7
ssS'output'
p8
(dp9
g4
(lp10
I24
aI3
aI2145
aI63765
aI7311
aI8501
aI34
aI18105
aI182
aI3
aI217
aI5
aI7
aI3
aI6844
aI1886
aI2879
aI63765
asg6
S'In the U .S .  crops grown for biofuels are the most land- and water-intensive of the renewable energy sources .'
p11
ss.