(dp1
S'input'
p2
(dp3
S'encoded'
p4
(lp5
I64
aI2179
aI394
aI2773
aI12505
asS'ori'
p6
S'This house would embrace multiculturalism'
p7
ssS'output'
p8
(dp9
g4
(lp10
I79
aI116
aI22245
aI7
aI3
aI8659
aI20713
aI7
aI3
aI2196
aI24
aI3
aI1592
aI2439
aI63765
asg6
S"Cliteur's 1999 work is indicative of the polemic tone of the debate in the following years ."
p11
ss.