(dp1
S'input'
p2
(dp3
S'encoded'
p4
(lp5
I64
aI2179
aI235
aI3
aI2136
aI7
aI3
aI2306
aI7
aI2390
asS'ori'
p6
S'This house supports the one-child policy of the republic of China'
p7
ssS'output'
p8
(dp9
g4
(lp10
I323
aI45
aI874
aI875
aI45
aI22871
aI45
aI2609
aI875
aI45
aI2318
aI875
aI45
aI2770
aI2653
aI45
aI2653
aI2087
aI874
aI2404
aI45
aI2404
aI45
aI63765
asg6
S'Europe  2 .66 to 1 .41 North America  3 .47 to 1 .99 Oceania  3 .87 to 2 .30 Central America  6 .38 to 2 .66 South America  5 .75 to 2 .49 Asia (excluding Middle East)  5 .85 to 2 .43 Middle East &#38; North Africa  6 .99 to 3 .37 Sub-Saharan Africa  6 .7 to 5 .53  .'
p11
ss.