(dp1
S'input'
p2
(dp3
S'encoded'
p4
(lp5
I64
aI2179
aI394
aI2773
aI12505
asS'ori'
p6
S'This house would embrace multiculturalism'
p7
ssS'output'
p8
(dp9
g4
(lp10
I725
aI3950
aI220
aI1385
aI45
aI1594
aI3
aI78
aI155
aI306
aI223
aI4231
aI45
aI3
aI1643
aI12420
aI958
aI138
aI2341
aI4259
aI717
aI14
aI12909
aI63765
asg6
S'Many contemporary governments prefer to assume the people they rule all belong to the same nationality rather than separate ones based on ethnicity .'
p11
ss.