(dp1
S'input'
p2
(dp3
S'encoded'
p4
(lp5
I64
aI2179
aI43
aI63
aI134
aI116
aI400
aI21
aI34
aI3
aI260
aI45
aI3439
aI57
aI7
aI2381
asS'ori'
p6
S'This house believes that it is sometimes right for the government to restrict freedom of speech'
p7
ssS'output'
p8
(dp9
g4
(lp10
I64
aI234
aI55
aI6612
aI7960
aI1090
aI1301
aI401
aI45
aI5
aI713
aI24
aI3
aI3258
aI3052
aI7
aI31085
aI646
aI63765
aI626
aI187
aI5
aI23872
aI646
aI63765
aI626
aI187
aI63765
asg6
S'This view has merit considering Holmes never referred to "clear and present danger" in the companion cases of Frohwerk v . United States and Debs v . United States .'
p11
ss.