(dp1
S'input'
p2
(dp3
S'encoded'
p4
(lp5
I64
aI2179
aI43
aI63
aI6670
aI546
aI417
aI316
aI89
aI1334
aI3108
aI7
aI4849
aI1886
aI2855
asS'ori'
p6
S'This house believes that wind power should be a primary focus of future energy supply'
p7
ssS'output'
p8
(dp9
g4
(lp10
I60
aI3
aI6732
aI7
aI2409
aI6939
aI6670
aI5109
aI6940
aI24
aI3
aI5806
aI273
aI11
aI12
aI311
aI870
aI6688
aI7
aI6941
aI1021
aI45
aI3
aI2955
aI3099
aI5
aI5088
aI7
aI6670
aI5109
aI5
aI248
aI772
aI5
aI457
aI5022
aI45
aI3
aI6670
aI546
aI3269
aI1351
aI63765
asg6
S'With the installation of industrial sized wind turbines numbering in the thousands  there have been at least 40 fatalities of workers due to the construction  operation  and maintenance of wind turbines  and other injuries and deaths attributed to the wind power life cycle  .'
p11
ss.