(dp1
S'input'
p2
(dp3
S'encoded'
p4
(lp5
I64
aI2179
aI43
aI63
aI2157
aI2565
aI493
aI19084
aI382
aI4850
asS'ori'
p6
S"This house believes that Israel's 2008-2009 military operations against Gaza were justified"
p7
ssS'output'
p8
(dp9
g4
(lp10
I298
aI3
aI7869
aI3009
aI45
aI4680
aI5
aI163
aI271
aI998
aI45
aI19084
aI4996
aI155
aI382
aI4001
aI75
aI51
aI6056
aI5798
aI45
aI738
aI45
aI3
aI2179
aI63765
asg6
S'When the surviving al-Samounis attempted to leave and make their way to Gaza City  they were told by an Israeli soldier to return to the house  .'
p11
ss.