(dp1
S'input'
p2
(dp3
S'encoded'
p4
(lp5
I64
aI2179
aI394
aI2773
aI12505
asS'ori'
p6
S'This house would embrace multiculturalism'
p7
ssS'output'
p8
(dp9
g4
(lp10
I64
aI12508
aI2818
aI611
aI45
aI3
aI498
aI5
aI12522
aI12937
aI7
aI10933
aI5
aI546
aI63765
asg6
S"This relates directly back to Machiavelli's The Prince  and Foucault's aforementioned conceptions of truth and power ."
p11
ss.