(dp1
S'input'
p2
(dp3
S'encoded'
p4
(lp5
I64
aI2179
aI43
aI63
aI6670
aI546
aI417
aI316
aI89
aI1334
aI3108
aI7
aI4849
aI1886
aI2855
asS'ori'
p6
S'This house believes that wind power should be a primary focus of future energy supply'
p7
ssS'output'
p8
(dp9
g4
(lp10
I1950
aI1198
aI18070
aI75
aI3328
aI87
aI99
aI223
aI2195
aI45
aI3
aI1643
aI6812
aI1177
aI311
aI3
aI1643
aI413
aI604
aI24
aI3
aI1643
aI238
aI63765
asg6
S"Second  you diversify by site so they're not all subject to the same weather pattern at the same time because they're in the same place ."
p11
ss.