(dp1
S'input'
p2
(dp3
S'encoded'
p4
(lp5
I64
aI2179
aI394
aI190
aI3
aI21
aI45
aI3895
aI834
asS'ori'
p6
S'This house would limit the right to bear arms'
p7
ssS'output'
p8
(dp9
g4
(lp10
I2277
aI4167
aI496
aI5
aI1279
aI4692
aI63765
aI2859
aI382
aI60443
aI397
aI4332
aI44
aI41
aI122
aI2164
aI3875
aI3876
aI24
aI267
aI2341
aI44
aI117
aI89
aI1896
aI3286
aI1521
aI63765
asg6
S'Presidents Andrew Jackson and Harry S . Truman were uninjured during assassination attempts  as was President Gerald Ford in two separate attempts only a few weeks apart  .'
p11
ss.