(dp1
S'input'
p2
(dp3
S'encoded'
p4
(lp5
I64
aI2179
aI43
aI24
aI3
aI475
aI7
aI12436
aI3364
asS'ori'
p6
S'This house believes in the use of affirmative action'
p7
ssS'output'
p8
(dp9
g4
(lp10
I24
aI64
aI234
aI10252
aI116
aI99
aI51
aI12473
aI22673
aI45
aI6752
aI1377
aI6612
aI131
aI958
aI89
aI998
aI45
aI3220
aI3
aI4160
aI41
aI574
aI4750
aI3012
aI134
aI63765
asg6
S'In this view  admission is not an honor bestowed to reward superior merit but rather a way to advance the mission as each university defines it .'
p11
ss.