(dp1
S'input'
p2
(dp3
S'encoded'
p4
(lp5
I64
aI2179
aI43
aI63
aI2203
aI60
aI51
aI997
aI2837
aI21716
aI1636
aI5349
aI417
aI2998
aI8532
aI45
aI3051
aI8578
asS'ori'
p6
S'This house believes that countries with an imbalanced male/female ratio skewed towards males should encourage parents to produce girls'
p7
ssS'output'
p8
(dp9
g4
(lp10
I2445
aI11389
aI17839
aI843
aI311
aI314
aI73
aI24
aI3
aI2598
aI41
aI89
aI3730
aI876
aI316
aI3507
aI24
aI351
aI7
aI869
aI3
aI2837
aI7
aI5349
aI45
aI5350
aI3
aI2837
aI7
aI5350
aI45
aI5349
aI3
aI5973
aI7
aI5349
aI73
aI3
aI5973
aI7
aI5350
aI63765
asg6
S'Human sex ratios  either at birth or in the population as a whole  might be quoted in any of four ways: the ratio of males to females  the ratio of females to males  the proportion of males  or the proportion of females .'
p11
ss.