(dp1
S'input'
p2
(dp3
S'encoded'
p4
(lp5
I64
aI2179
aI43
aI63
aI2659
aI417
aI1690
aI3
aI12048
aI7
aI19084
asS'ori'
p6
S'This house believes that Israel should lift the blockade of Gaza'
p7
ssS'output'
p8
(dp9
g4
(lp10
I131
aI357
aI174
aI2383
aI45
aI1792
aI51
aI312
aI45
aI3
aI12048
aI92
aI1183
aI45
aI4013
aI1184
aI7
aI1191
aI2639
aI16618
aI63765
asg6
S'But we also want to see an end to the blockade  which amounts to collective punishment of about 1 .5 million Palestinians .'
p11
ss.