(dp1
S'input'
p2
(dp3
S'encoded'
p4
(lp5
I64
aI2179
aI394
aI2017
aI3807
aI314
aI3433
asS'ori'
p6
S'This house would ban partial birth abortions'
p7
ssS'output'
p8
(dp9
g4
(lp10
I3718
aI273
aI116
aI89
aI1488
aI6381
aI545
aI3
aI4408
aI171
aI63765
asg6
S'Similarly  there is a small abortion-rights faction within the Republican Party .'
p11
ss.