(dp1
S'input'
p2
(dp3
S'encoded'
p4
(lp5
I64
aI2179
aI43
aI63
aI2203
aI60
aI51
aI997
aI2837
aI21716
aI1636
aI5349
aI417
aI2998
aI8532
aI45
aI3051
aI8578
asS'ori'
p6
S'This house believes that countries with an imbalanced male/female ratio skewed towards males should encourage parents to produce girls'
p7
ssS'output'
p8
(dp9
g4
(lp10
I3
aI37140
aI1869
aI237
aI2435
aI15377
aI24
aI3
aI75
aI37141
aI10507
aI63765
aI37140
aI4889
aI63
aI16554
aI4946
aI3
aI10501
aI13947
aI182
aI136
aI8112
aI138
aI16554
aI4946
aI3
aI10502
aI13947
aI63765
asg6
S'The Shettles method  first formally theorized in the 1960s by Landrum B . Shettles  proposes that sperm containing the X (female) chromosome are more resilient than sperm containing the Y (male) chromosome .'
p11
ss.