(dp1
S'input'
p2
(dp3
S'encoded'
p4
(lp5
I64
aI2179
aI43
aI63
aI134
aI116
aI400
aI21
aI34
aI3
aI260
aI45
aI3439
aI57
aI7
aI2381
asS'ori'
p6
S'This house believes that it is sometimes right for the government to restrict freedom of speech'
p7
ssS'output'
p8
(dp9
g4
(lp10
I5404
aI7
aI6174
aI182
aI19
aI89
aI976
aI957
aI7
aI234
aI99
aI54898
aI5
aI1619
aI2705
aI2496
aI75
aI3744
aI45
aI4576
aI864
aI1999
aI24
aI1341
aI8312
aI6398
aI63765
asg6
S'Statements of principle are  from a legal point of view  not determinative and require extensive interpretation by courts to bring out meaning in particular factual situations .'
p11
ss.