(dp1
S'input'
p2
(dp3
S'encoded'
p4
(lp5
I64
aI2179
aI43
aI63
aI3
aI21
aI45
aI12715
aI417
aI99
aI316
aI2897
asS'ori'
p6
S'This house believes that the right to asylum should not be absolute'
p7
ssS'output'
p8
(dp9
g4
(lp10
I3
aI905
aI24905
aI60
aI2010
aI11636
aI63
aI273
aI382
aI1896
aI18
aI45
aI6476
aI89
aI667
aI2784
aI14
aI3
aI2259
aI7
aI1771
aI3
aI7517
aI192
aI575
aI63
aI89
aI696
aI7
aI169
aI9452
aI158
aI407
aI6676
aI169
aI7461
aI5
aI3
aI14872
aI382
aI5536
aI8855
aI24
aI3
aI3912
aI22799
aI63765
asg6
S'The report conceded  with clear frustration  that there were few grounds to impose a new Act on the basis of protecting the employment market given that a number of British employers  including London Transport  British Railways and the NHS were actively recruiting in the West Indies .'
p11
ss.