(dp1
S'input'
p2
(dp3
S'encoded'
p4
(lp5
I64
aI2179
aI43
aI63
aI2659
aI417
aI1690
aI3
aI12048
aI7
aI19084
asS'ori'
p6
S'This house believes that Israel should lift the blockade of Gaza'
p7
ssS'output'
p8
(dp9
g4
(lp10
I3
aI2414
aI7
aI3
aI19084
aI19096
aI19097
aI5870
aI292
aI7628
aI2414
aI5
aI292
aI11949
aI626
aI187
aI1260
aI19084
aI910
aI13178
aI24879
aI24880
aI73
aI11157
aI6095
aI6085
aI15185
aI45
aI19084
aI24881
aI7628
aI6095
aI6085
aI15185
aI45
aI19084
aI5
aI1565
aI4276
aI45
aI312
aI3
aI19383
aI14
aI19084
aI19190
aI19191
aI10318
aI24882
aI24839
aI24883
aI2670
aI24839
aI24884
aI10502
aI24885
aI24839
aI63765
asg6
S'The ships of the Gaza flotilla raid comprised three passenger ships and three cargo ships:Challenger 1 (small yacht)  United States  Free Gaza Movement MS Eleftheri Mesogios (Free Mediterranean) or Sofia (cargo boat)  Greece Greek Ship to Gaza Sfendoni (small passenger boat)  Greece Greek Ship to Gaza and European Campaign to End the Siege on Gaza MV Mavi Marmara (passenger ship)  Comoros  IHH Gazze  Turkey  IHH Defne Y  Kiribati  IHH  .'
p11
ss.