(dp1
S'input'
p2
(dp3
S'encoded'
p4
(lp5
I64
aI2179
aI43
aI63
aI187
aI417
aI99
aI16642
aI3
aI6449
aI7
aI3935
asS'ori'
p6
S'This house believes that states should not subsidize the growing of tobacco'
p7
ssS'output'
p8
(dp9
g4
(lp10
I134
aI116
aI6675
aI7153
aI24
aI267
aI620
aI37328
aI38077
aI73
aI24
aI89
aI22337
aI399
aI63765
asg6
S'It is consumed orally  in two forms: through sweetened strands  or in a shredded form .'
p11
ss.