(dp1
S'input'
p2
(dp3
S'encoded'
p4
(lp5
I64
aI2179
aI43
aI223
aI2138
aI11
aI89
aI21
aI45
aI2185
aI372
asS'ori'
p6
S'This house believes all nations have a right to nuclear weapons'
p7
ssS'output'
p8
(dp9
g4
(lp10
I2390
aI637
aI13271
aI100
aI2295
aI92
aI134
aI4158
aI397
aI3
aI12522
aI2223
aI4881
aI75
aI2450
aI5
aI2450
aI637
aI13271
aI100
aI2295
aI4881
aI75
aI2390
aI63765
asg6
S'China still occupies some territory which it captured during the aforementioned war  claimed by India  and India still occupies some territory claimed by China .'
p11
ss.