(dp1
S'input'
p2
(dp3
S'encoded'
p4
(lp5
I64
aI2179
aI43
aI63
aI2659
aI417
aI1690
aI3
aI12048
aI7
aI19084
asS'ori'
p6
S'This house believes that Israel should lift the blockade of Gaza'
p7
ssS'output'
p8
(dp9
g4
(lp10
I5101
aI751
aI3
aI19097
aI3
aI536
aI7
aI3
aI24839
aI24906
aI24907
aI24908
aI551
aI520
aI45
aI1979
aI3
aI6056
aI885
aI134
aI2056
aI63765
asg6
S'Hours before the raid  the head of the IHH  Fehmi Bulent Yldrm declared  "We\'re going to defeat the Israeli commandoswe\'re declaring it now .'
p11
ss.