(dp1
S'input'
p2
(dp3
S'encoded'
p4
(lp5
I64
aI2179
aI43
aI63
aI2157
aI2565
aI493
aI19084
aI382
aI4850
asS'ori'
p6
S"This house believes that Israel's 2008-2009 military operations against Gaza were justified"
p7
ssS'output'
p8
(dp9
g4
(lp10
I46525
aI3
aI8672
aI122
aI9274
aI75
aI89
aI4435
aI11236
aI3188
aI5
aI11030
aI63765
asg6
S'|- Mosul The protest was targeted by a suicide bomber  killing 1 and wounding 16 .'
p11
ss.