(dp1
S'input'
p2
(dp3
S'encoded'
p4
(lp5
I64
aI2179
aI394
aI2017
aI262
asS'ori'
p6
S'This house would ban boxing'
p7
ssS'output'
p8
(dp9
g4
(lp10
I518
aI1485
aI271
aI950
aI14
aI267
aI125
aI1486
aI7
aI826
aI1487
aI63765
asg6
S'Boxers practice their skills on two basic types of punching bags .'
p11
ss.