(dp1
S'input'
p2
(dp3
S'encoded'
p4
(lp5
I64
aI2179
aI394
aI2017
aI628
asS'ori'
p6
S'This house would ban gambling'
p7
ssS'output'
p8
(dp9
g4
(lp10
I397
aI64
aI413
aI639
aI7682
aI1567
aI289
aI89
aI1182
aI5973
aI7
aI64
aI532
aI1646
aI289
aI2639
aI60
aI7611
aI5
aI7685
aI1646
aI289
aI2639
aI5
aI2639
aI3839
aI63765
asg6
S'During this time period  Betting turned over a substantial proportion of this amount  turning over 13 081 .44 million  with Bingo and Casino turning over 26 .75 million and 347 .87 million respectively  .'
p11
ss.