(dp1
S'input'
p2
(dp3
S'encoded'
p4
(lp5
I64
aI2179
aI43
aI63
aI2659
aI417
aI1690
aI3
aI12048
aI7
aI19084
asS'ori'
p6
S'This house believes that Israel should lift the blockade of Gaza'
p7
ssS'output'
p8
(dp9
g4
(lp10
I2460
aI3017
aI63
aI366
aI3
aI726
aI19389
aI905
aI2659
aI1153
aI2247
aI63
aI3
aI626
aI2138
aI139
aI1453
aI89
aI14330
aI1028
aI7
aI11336
aI2120
aI3365
aI45
aI2659
aI63765
asg6
S'Analysts suggested that after the controversial UN-sponsored Goldstone Report  Israel lacks faith that the United Nations can do a credible job of investigating events related to Israel  .'
p11
ss.