(dp1
S'input'
p2
(dp3
S'encoded'
p4
(lp5
I64
aI2179
aI394
aI5370
aI7146
aI4585
aI2446
asS'ori'
p6
S'This house would abolish intellectual property rights'
p7
ssS'output'
p8
(dp9
g4
(lp10
I3202
aI3744
aI3798
aI11704
aI3052
aI139
aI5
aI153
aI1453
aI2222
aI7156
aI99
aI3564
aI63765
asg6
S'Civil courts hearing patent cases can and often do declare patents not valid .'
p11
ss.