(dp1
S'input'
p2
(dp3
S'encoded'
p4
(lp5
I64
aI2179
aI43
aI63
aI3
aI21
aI45
aI12715
aI417
aI99
aI316
aI2897
asS'ori'
p6
S'This house believes that the right to asylum should not be absolute'
p7
ssS'output'
p8
(dp9
g4
(lp10
I2784
aI5
aI415
aI736
aI972
aI14
aI2805
aI60
aI3
aI1592
aI4149
aI45
aI9701
aI83
aI316
aI575
aI75
aI15
aI4224
aI8491
aI1544
aI311
aI93
aI7
aI2786
aI5641
aI24
aI180
aI5
aI499
aI73
aI351
aI5641
aI5354
aI24
aI181
aI73
aI4192
aI41892
aI2135
aI150
aI83
aI843
aI11
aI9107
aI11932
aI4555
aI34
aI3
aI792
aI7
aI8559
aI73
aI1416
aI45
aI3
aI3900
aI2159
aI34
aI89
aI16107
aI7
aI4268
aI311
aI89
aI5084
aI7
aI751
aI773
aI547
aI45
aI9701
aI24
aI89
aI3202
aI2115
aI7
aI180
aI6525
aI182
aI128
aI45
aI156
aI34
aI89
aI16107
aI7
aI4268
aI3
aI12938
aI83
aI11
aI4680
aI63
aI122
aI4626
aI34
aI136
aI138
aI1530
aI3131
aI5
aI311
aI870
aI292
aI3131
aI7
aI63
aI4680
aI83
aI316
aI1188
aI311
aI3
aI413
aI7
aI1609
aI3
aI3393
aI63765
asg6
S"Act 2004 and came into force on 1 February 2005 with the following rules: Notice to marry must be given by both persons attending together at one of 76 Designated Register Offices' in England and Wales or any Register Office in Scotland or Northern IrelandThe foreign national must either have entry clearance specifically for the purposes of marriage or apply to the Home Secretary for a Certificate of Approval  at a cost of 135  before being allowed to marry in a civil ceremony (Church of England ceremonies are exempt)In order to qualify for a Certificate of Approval the applicant must have leave that was granted for more than six months and at least three months of that leave must be remaining at the time of making the application ."
p11
ss.