(dp1
S'input'
p2
(dp3
S'encoded'
p4
(lp5
I64
aI2179
aI43
aI63
aI3
aI21
aI45
aI12715
aI417
aI99
aI316
aI2897
asS'ori'
p6
S'This house believes that the right to asylum should not be absolute'
p7
ssS'output'
p8
(dp9
g4
(lp10
I1592
aI3
aI312
aI7
aI285
aI2223
aI2236
aI1182
aI3136
aI7
aI78
aI19
aI5555
aI4141
aI24
aI326
aI324
aI2960
aI5
aI28941
aI63765
asg6
S'Following the end of World War II  substantial groups of people from Soviet-controlled territories settled in Britain  particularly Poles and Ukrainians .'
p11
ss.