(dp1
S'input'
p2
(dp3
S'encoded'
p4
(lp5
I64
aI2179
aI394
aI2773
aI12505
asS'ori'
p6
S'This house would embrace multiculturalism'
p7
ssS'output'
p8
(dp9
g4
(lp10
I3
aI3912
aI324
aI3
aI2579
aI5
aI10326
aI7
aI18162
aI71
aI725
aI7
aI3
aI189
aI7135
aI19
aI2609
aI2547
aI60
aI3
aI150
aI1886
aI2326
aI1655
aI1793
aI28947
aI5
aI6449
aI368
aI20160
aI63765
asg6
S'The west  particularly the oil and gas-producing province of Alberta  opposed many of the policies emanating from central Canada  with the National Energy Program creating considerable antagonism and growing western alienation .'
p11
ss.