(dp1
S'input'
p2
(dp3
S'encoded'
p4
(lp5
I64
aI2179
aI394
aI2017
aI262
asS'ori'
p6
S'This house would ban boxing'
p7
ssS'output'
p8
(dp9
g4
(lp10
I51
aI1343
aI7
aI89
aI723
aI1419
aI122
aI3
aI1420
aI405
aI7
aI1270
aI1271
aI1272
aI89
aI1242
aI73
aI493
aI1085
aI1086
aI3
aI484
aI73
aI1272
aI1421
aI63765
asg6
S'An example of a style matchup was the historical fight of Julio Cesar Chavez  a swarmer or in-fighter  against Meldrick Taylor  the boxer or out-fighter (see Chavez versus Taylor) .'
p11
ss.