(dp1
S'input'
p2
(dp3
S'encoded'
p4
(lp5
I64
aI2179
aI235
aI3
aI2136
aI7
aI3
aI2306
aI7
aI2390
asS'ori'
p6
S'This house supports the one-child policy of the republic of China'
p7
ssS'output'
p8
(dp9
g4
(lp10
I443
aI10763
aI63
aI41
aI357
aI4095
aI3
aI35982
aI7
aI3
aI285
aI357
aI182
aI1612
aI12968
aI97
aI6000
aI3
aI7926
aI7
aI3
aI1702
aI63765
asg6
S"It's no accident that as we celebrate the urbanization of the world  we are quickly approaching another historic watershed: the disappearance of the wild ."
p11
ss.