(dp1
S'input'
p2
(dp3
S'encoded'
p4
(lp5
I64
aI2179
aI394
aI117
aI7428
aI21151
aI34
aI11389
aI2042
aI24
aI4364
asS'ori'
p6
S'This house would only teach abstinence for sex education in schools'
p7
ssS'output'
p8
(dp9
g4
(lp10
I63
aI116
aI2167
aI24
aI92
aI3
aI1334
aI2028
aI116
aI45
aI5643
aI2613
aI1517
aI45
aI1049
aI19514
aI11681
aI5
aI7605
aI8935
aI75
aI12619
aI1517
aI1191
aI100
aI2613
aI4779
aI226
aI1430
aI80
aI14
aI221
aI311
aI89
aI2333
aI24
aI9175
aI6065
aI75
aI2749
aI7
aI3
aI2613
aI55911
aI2923
aI282
aI8791
aI972
aI14
aI594
aI2613
aI2136
aI63765
asg6
S'That is  strategies in which the primary goal is to enable drug users to maintain addictive  destructive  and compulsive behavior by misleading users about some drug risks while ignoring others .|"Statement on so-called \'Harm Reduction\' polices" made at a conference in Brussels  Belgium by signatories of the drug prohibitionist network International Task Force on Strategic Drug Policy  .'
p11
ss.