(dp1
S'input'
p2
(dp3
S'encoded'
p4
(lp5
I64
aI2179
aI394
aI2773
aI12505
asS'ori'
p6
S'This house would embrace multiculturalism'
p7
ssS'output'
p8
(dp9
g4
(lp10
I3
aI12716
aI9530
aI271
aI5407
aI63
aI155
aI26056
aI7838
aI89
aI3057
aI15307
aI1597
aI5
aI63
aI5407
aI417
aI84
aI64
aI736
aI404
aI41
aI155
aI358
aI271
aI26055
aI63765
asg6
S'The authors warn their readers that they overtly advocate a critical multicultural position and that readers should take this into account as they consider their taxonomy  .'
p11
ss.