(dp1
S'input'
p2
(dp3
S'encoded'
p4
(lp5
I64
aI2179
aI43
aI24
aI3
aI475
aI7
aI12436
aI3364
asS'ori'
p6
S'This house believes in the use of affirmative action'
p7
ssS'output'
p8
(dp9
g4
(lp10
I15969
aI2385
aI45
aI949
aI89
aI12436
aI3364
aI7074
aI34
aI3
aI7749
aI2240
aI7
aI70
aI366
aI3
aI4342
aI7
aI9005
aI24
aI92
aI472
aI3
aI475
aI7
aI10250
aI12514
aI75
aI658
aI6804
aI2300
aI4364
aI63765
asg6
S'Sander helped to develop a socioeconomically-based affirmative action plan for the UCLA School of Law after the passage of Proposition 209 in 1996 which prohibited the use of racial preferences by public universities California schools .'
p11
ss.