(dp1
S'input'
p2
(dp3
S'encoded'
p4
(lp5
I64
aI2179
aI43
aI8629
aI116
aI3
aI117
aI998
asS'ori'
p6
S'This house believes atheism is the only way'
p7
ssS'output'
p8
(dp9
g4
(lp10
I3
aI1809
aI5
aI182
aI1724
aI416
aI34
aI5
aI271
aI6417
aI55
aI12
aI2552
aI19
aI1237
aI9116
aI63765
asg6
S'The terms "dominionist" and "dominionism" are rarely used for self-description  and their usage has been attacked from several quarters .'
p11
ss.