(dp1
S'input'
p2
(dp3
S'encoded'
p4
(lp5
I64
aI2179
aI43
aI24
aI3
aI475
aI7
aI12436
aI3364
asS'ori'
p6
S'This house believes in the use of affirmative action'
p7
ssS'output'
p8
(dp9
g4
(lp10
I725
aI2144
aI81
aI2118
aI19
aI3
aI1740
aI4416
aI154
aI64
aI2136
aI7
aI3
aI260
aI3181
aI5
aI4406
aI134
aI691
aI155
aI142
aI134
aI1040
aI1931
aI271
aI2446
aI45
aI5969
aI63765
asg6
S'Many citizens who come from the upper classes find this policy of the government biased and oppose it  since they feel it takes away their rights to equality .'
p11
ss.