(dp1
S'input'
p2
(dp3
S'encoded'
p4
(lp5
I64
aI2179
aI43
aI63
aI7382
aI116
aI400
aI4713
asS'ori'
p6
S'This house believes that bribery is sometimes acceptable'
p7
ssS'output'
p8
(dp9
g4
(lp10
I34
aI1343
aI24
aI725
aI6117
aI3151
aI2203
aI19
aI61
aI416
aI45
aI316
aI3
aI2793
aI5336
aI134
aI88
aI316
aI6584
aI45
aI9036
aI5132
aI9532
aI45
aI3535
aI5
aI15501
aI34
aI3
aI11676
aI7
aI3987
aI311
aI351
aI126
aI7
aI2015
aI85
aI24
aI3
aI3217
aI7935
aI63765
asg6
S'For example  in many formerly Communist countries from what used to be the Eastern Bloc it may be customary to offer expensive gifts to doctors and nurses for the delivery of service at any level of medical care in the non-private health sector  .'
p11
ss.