(dp1
S'input'
p2
(dp3
S'encoded'
p4
(lp5
I64
aI2179
aI394
aI2017
aI628
asS'ori'
p6
S'This house would ban gambling'
p7
ssS'output'
p8
(dp9
g4
(lp10
I14760
aI2789
aI81
aI999
aI8491
aI5460
aI382
aI136
aI1856
aI45
aI358
aI3
aI2571
aI311
aI3
aI5460
aI5
aI382
aI136
aI3057
aI7
aI14760
aI3600
aI63765
asg6
S'GA members who stopped attending meetings were more likely to consider the sharing at the meetings "meaningless" and were more critical of GA literature .'
p11
ss.