(dp1
S'input'
p2
(dp3
S'encoded'
p4
(lp5
I64
aI2179
aI43
aI63
aI7382
aI116
aI400
aI4713
asS'ori'
p6
S'This house believes that bribery is sometimes acceptable'
p7
ssS'output'
p8
(dp9
g4
(lp10
I1928
aI3569
aI4741
aI311
aI3
aI2609
aI171
aI2240
aI3
aI43639
aI18893
aI63
aI23777
aI5520
aI5
aI43654
aI5726
aI4370
aI289
aI5726
aI311
aI3
aI2240
aI63765
asg6
S'Every year researchers at the Central Party School  the CCP organ that trains senior and midlevel officials  survey over 100 officials at the school .'
p11
ss.