(dp1
S'input'
p2
(dp3
S'encoded'
p4
(lp5
I64
aI2179
aI394
aI16642
aI1376
aI5269
asS'ori'
p6
S'This house would subsidize poor communities'
p7
ssS'output'
p8
(dp9
g4
(lp10
I3262
aI9404
aI4624
aI23147
aI5
aI4655
aI40
aI89
aI2326
aI116
aI773
aI4544
aI63765
asg6
S'Process evaluation documents  assesses  and explains how a program is being implemented .'
p11
ss.