(dp1
S'input'
p2
(dp3
S'encoded'
p4
(lp5
I64
aI2179
aI43
aI63
aI3
aI4991
aI7
aI180
aI417
aI316
aI5396
aI19
aI3
aI169
aI10
asS'ori'
p6
S'This house believes that the Church of England should be separated from the British state'
p7
ssS'output'
p8
(dp9
g4
(lp10
I31406
aI1384
aI22
aI546
aI24
aI1809
aI7
aI70
aI16874
aI5
aI2477
aI2483
aI30793
aI887
aI80
aI63765
asg6
S'Coprinces enjoy political power in terms of law ratification and constitutional court designation  among others .'
p11
ss.