(dp1
S'input'
p2
(dp3
S'encoded'
p4
(lp5
I64
aI2179
aI43
aI17
aI4941
aI857
aI3211
asS'ori'
p6
S'This house believes social deprivation causes crime'
p7
ssS'output'
p8
(dp9
g4
(lp10
I3
aI1362
aI291
aI4226
aI5
aI3211
aI55
aI12
aI51
aI803
aI7
aI2035
aI34
aI22856
aI691
aI3
aI8272
aI7
aI21985
aI27413
aI24
aI3
aI481
aI398
aI63765
asg6
S'The relationship between race and crime has been an area of study for criminologists since the emergence of anthropological criminology in the late 19th century  .'
p11
ss.