(dp1
S'input'
p2
(dp3
S'encoded'
p4
(lp5
I64
aI2179
aI394
aI5284
aI150
aI3987
asS'ori'
p6
S'This house would reintroduce national service'
p7
ssS'output'
p8
(dp9
g4
(lp10
I3
aI2475
aI378
aI6350
aI3663
aI63
aI394
aI16521
aI3
aI1718
aI5644
aI7
aI5610
aI63765
asg6
S'The constitution  however  retains provisions that would legalize the potential reintroduction of conscription .'
p11
ss.