(dp1
S'input'
p2
(dp3
S'encoded'
p4
(lp5
I64
aI2179
aI394
aI2773
aI12505
asS'ori'
p6
S'This house would embrace multiculturalism'
p7
ssS'output'
p8
(dp9
g4
(lp10
I169
aI9170
aI9322
aI440
aI12
aI3531
aI24
aI2871
aI34
aI7277
aI45
aI89
aI658
aI24
aI3
aI626
aI2549
aI75
aI19287
aI3
aI5761
aI2178
aI289
aI214
aI7
aI12997
aI653
aI89
aI2035
aI9869
aI75
aI3
aI3900
aI5354
aI14
aI965
aI5
aI17119
aI10093
aI17119
aI182
aI136
aI1856
aI45
aI133
aI155
aI182
aI1377
aI45
aI120
aI19
aI248
aI13438
aI5
aI271
aI2270
aI182
aI136
aI7
aI89
aI3532
aI45
aI12997
aI138
aI120
aI7
aI63765
asg6
S'British cabinet ministers had been criticized in October 2006 for helping to "unleash a public anti-Muslim backlash" in the United Kingdom by blaming the Muslim community over issues of integration despite a study commissioned by the Home Office on white and Asian-Muslim youths demonstrating "White youths are more likely to believe they are superior to those from other races  and their attitudes are more of a barrier to integration than those of Muslims"  .'
p11
ss.