(dp1
S'input'
p2
(dp3
S'encoded'
p4
(lp5
I64
aI2179
aI43
aI63
aI3
aI4538
aI7
aI4434
aI7793
aI283
aI45
aI3586
aI417
aI316
aI577
asS'ori'
p6
S'This house believes that the sale of violent video games to minors should be banned'
p7
ssS'output'
p8
(dp9
g4
(lp10
I3
aI3262
aI116
aI51
aI49
aI6791
aI759
aI7
aI2935
aI10900
aI75
aI3
aI1445
aI2142
aI92
aI163
aI588
aI165
aI7
aI3
aI4256
aI897
aI63765
asg6
S'The agenda-setting process is an almost unavoidable part of news gathering by the large organizations which make up much of the mass media .'
p11
ss.