(dp1
S'input'
p2
(dp3
S'encoded'
p4
(lp5
I64
aI2179
aI394
aI5370
aI3
aI5286
asS'ori'
p6
S'This house would abolish the monarchy'
p7
ssS'output'
p8
(dp9
g4
(lp10
I1012
aI24
aI754
aI17071
aI306
aI24
aI180
aI63765
asg6
S"Elizabeth's death in 1603 ended Tudor rule in England ."
p11
ss.