(dp1
S'input'
p2
(dp3
S'encoded'
p4
(lp5
I64
aI2179
aI394
aI2017
aI223
aI9058
aI23653
asS'ori'
p6
S'This house would ban all unsustainable logging'
p7
ssS'output'
p8
(dp9
g4
(lp10
I8091
aI1074
aI23611
aI23627
aI23628
aI5
aI248
aI226
aI6797
aI1074
aI159
aI5743
aI41
aI23629
aI5
aI23630
aI63765
asg6
S'Reptiles include snakes  turtles  chameleons and other families; while birds include such families as vangidae and Cuculidae .'
p11
ss.