(dp1
S'input'
p2
(dp3
S'encoded'
p4
(lp5
I64
aI2179
aI43
aI63
aI3
aI21
aI45
aI12715
aI417
aI99
aI316
aI2897
asS'ori'
p6
S'This house believes that the right to asylum should not be absolute'
p7
ssS'output'
p8
(dp9
g4
(lp10
I8699
aI25
aI10597
aI45
aI316
aI18787
aI14
aI3
aI214
aI2686
aI42
aI8479
aI1032
aI63
aI42
aI3627
aI11
aI3
aI41899
aI2096
aI63765
asg6
S'Knowing his audience to be knowledgeable on the issues involved he answered simply that he didnt have the faintest idea .'
p11
ss.