(dp1
S'input'
p2
(dp3
S'encoded'
p4
(lp5
I64
aI2179
aI394
aI4325
aI2042
aI270
aI89
aI11605
aI3324
asS'ori'
p6
S'This house would fund education using a voucher scheme'
p7
ssS'output'
p8
(dp9
g4
(lp10
I93
aI94
aI2892
aI8818
aI26686
aI11670
aI3089
aI60
aI33942
aI45
aI316
aI3011
aI5
aI8561
aI25
aI2381
aI2230
aI3
aI11152
aI7
aI89
aI4330
aI7632
aI11151
aI311
aI92
aI413
aI3
aI15681
aI551
aI47
aI302
aI24
aI3741
aI26887
aI3609
aI45
aI15891
aI99
aI5925
aI545
aI3
aI2502
aI2280
aI7
aI3
aI378
aI3007
aI1020
aI55
aI5193
aI15891
aI34
aI4949
aI159
aI41
aI3
aI46162
aI7
aI89
aI19912
aI15874
aI5
aI10400
aI34
aI3
aI49004
aI5938
aI5072
aI7896
aI7
aI92
aI116
aI23912
aI24
aI3
aI2475
aI41
aI51
aI2888
aI260
aI63765
asg6
S'One group supporting fiscal conservatism finds Paul\'s actions with earmarks to be contradictory and cites his 2003 speech regarding the award of a Congressional Gold Medal  at which time the Congressman declared  "I will continue in my uncompromising opposition to appropriations not authorized within the enumerated powers of the Constitution;" however  Paul himself has inserted appropriations for projects such as the renovation of a movie theater and subsidies for the shrimp industry  whereas reportedly  "neither of which is envisioned in the Constitution as an essential government function"  .'
p11
ss.