(dp1
S'input'
p2
(dp3
S'encoded'
p4
(lp5
I64
aI2179
aI394
aI5370
aI3
aI5286
asS'ori'
p6
S'This house would abolish the monarchy'
p7
ssS'output'
p8
(dp9
g4
(lp10
I14
aI3
aI32105
aI7
aI11031
aI495
aI45143
aI6504
aI3695
aI22150
aI3
aI28
aI375
aI5265
aI24
aI63765
asg6
S"On the pretext of restoring John Balliol's rightful heir  Edward Balliol  the English again invaded in 1332 ."
p11
ss.