(dp1
S'input'
p2
(dp3
S'encoded'
p4
(lp5
I64
aI2179
aI43
aI63
aI3
aI21
aI45
aI12715
aI417
aI99
aI316
aI2897
asS'ori'
p6
S'This house believes that the right to asylum should not be absolute'
p7
ssS'output'
p8
(dp9
g4
(lp10
I89
aI3569
aI395
aI64
aI1447
aI6832
aI440
aI136
aI138
aI2291
aI5
aI89
aI781
aI278
aI5307
aI4012
aI3
aI102
aI24
aI63765
asg6
S'A year later this last figure had more than doubled and a record 125 400 "New" Commonwealth immigrants entered the UK in 1961 .'
p11
ss.