(dp1
S'input'
p2
(dp3
S'encoded'
p4
(lp5
I64
aI2179
aI394
aI2773
aI12505
asS'ori'
p6
S'This house would embrace multiculturalism'
p7
ssS'output'
p8
(dp9
g4
(lp10
I7
aI2041
aI14
aI21330
aI11
aI8117
aI5034
aI3022
aI24
aI3
aI12526
aI7
aI384
aI2167
aI7
aI21330
aI63765
asg6
S'Meta-analyses of research on acculturation have shown pronounced disagreement in the categorization of different strategies of acculturation .'
p11
ss.