(dp1
S'input'
p2
(dp3
S'encoded'
p4
(lp5
I64
aI2179
aI43
aI63
aI2659
aI417
aI1690
aI3
aI12048
aI7
aI19084
asS'ori'
p6
S'This house believes that Israel should lift the blockade of Gaza'
p7
ssS'output'
p8
(dp9
g4
(lp10
I27108
aI5577
aI3443
aI3270
aI63
aI443
aI2702
aI3443
aI139
aI6365
aI725
aI1106
aI7
aI13913
aI4902
aI7
aI16618
aI159
aI41
aI3830
aI27109
aI63
aI775
aI4261
aI16618
aI19
aI1444
aI73
aI19147
aI4492
aI4364
aI6761
aI5
aI1495
aI2415
aI63765
asg6
S"HRW rejects Israel's rationale  saying that no security rationale can explain many instances of differential treatment of Palestinians  such as permit denials that effectively prohibit Palestinians from building or repairing homes  schools  roads  and water tanks ."
p11
ss.