(dp1
S'input'
p2
(dp3
S'encoded'
p4
(lp5
I64
aI2179
aI43
aI8629
aI116
aI3
aI117
aI998
asS'ori'
p6
S'This house believes atheism is the only way'
p7
ssS'output'
p8
(dp9
g4
(lp10
I1381
aI6029
aI7
aI3
aI5537
aI1340
aI45
aI63
aI47
aI4341
aI60
aI1306
aI463
aI316
aI742
aI45
aI124
aI5480
aI60
aI18605
aI257
aI18605
aI116
aI1038
aI41
aI6029
aI73
aI1462
aI7
aI223
aI63
aI116
aI63765
asg6
S'Although knowledge of the options presented to that will  combined with perfect-infinite intelligence  could be said to provide God with omniscience if omniscience is defined as knowledge or understanding of all that is .'
p11
ss.