(dp1
S'input'
p2
(dp3
S'encoded'
p4
(lp5
I64
aI2179
aI43
aI63
aI7382
aI116
aI400
aI4713
asS'ori'
p6
S'This house believes that bribery is sometimes acceptable'
p7
ssS'output'
p8
(dp9
g4
(lp10
I3
aI16834
aI116
aI3
aI217
aI2068
aI7
aI89
aI572
aI290
aI7
aI6782
aI24
aI92
aI7092
aI5
aI8850
aI11
aI689
aI3
aI918
aI7
aI7170
aI5
aI16
aI4212
aI158
aI137
aI8675
aI63
aI6332
aI3
aI2755
aI7
aI2328
aI6806
aI2891
aI5
aI306
aI7
aI70
aI174
aI3
aI1068
aI45
aI949
aI1112
aI249
aI493
aI134
aI311
aI15
aI3
aI2287
aI5
aI282
aI2363
aI63765
asg6
S'The UNCAC is the most recent of a long series of developments in which experts and politicians have recognized the far-reaching impact of corruption and economic crimes  including money laundering that undermine the value of democracy  sustainable development  and rule of law also the need to develop effective measures against it at both the domestic and international levels .'
p11
ss.