(dp1
S'input'
p2
(dp3
S'encoded'
p4
(lp5
I64
aI2179
aI43
aI8629
aI116
aI3
aI117
aI998
asS'ori'
p6
S'This house believes atheism is the only way'
p7
ssS'output'
p8
(dp9
g4
(lp10
I24
aI25
aI42567
aI42568
aI10845
aI10116
aI3
aI22236
aI11691
aI42569
aI729
aI3
aI26570
aI5
aI18607
aI7
aI5480
aI14
aI404
aI7
aI3
aI25905
aI1004
aI24
aI64
aI13816
aI3269
aI63765
asg6
S'In his Dictionnaire Historique et Critique  the sceptic Pierre Bayle denied the goodness and omnipotence of God on account of the sufferings experienced in this earthly life .'
p11
ss.