(dp1
S'input'
p2
(dp3
S'encoded'
p4
(lp5
I64
aI2179
aI394
aI4325
aI2042
aI270
aI89
aI11605
aI3324
asS'ori'
p6
S'This house would fund education using a voucher scheme'
p7
ssS'output'
p8
(dp9
g4
(lp10
I24
aI89
aI492
aI4506
aI45
aI3
aI150
aI2042
aI2016
aI2714
aI2031
aI6612
aI5878
aI34
aI5251
aI45
aI316
aI717
aI14
aI2140
aI45
aI316
aI643
aI5251
aI63765
asg6
S'In a July 2007 address to the National Education Association  Obama supported merit pay for teachers  to be based on standards to be developed "with teachers .'
p11
ss.