(dp1
S'input'
p2
(dp3
S'encoded'
p4
(lp5
I64
aI2179
aI43
aI17
aI4941
aI857
aI3211
asS'ori'
p6
S'This house believes social deprivation causes crime'
p7
ssS'output'
p8
(dp9
g4
(lp10
I64
aI5376
aI2219
aI2083
aI5462
aI45
aI843
aI1260
aI17078
aI73
aI1049
aI5132
aI11864
aI4678
aI5
aI2640
aI63765
asg6
S'This requirement forces local authorities to either free juveniles or maintain expensive duplicate facilities and personnel  .'
p11
ss.