(dp1
S'input'
p2
(dp3
S'encoded'
p4
(lp5
I64
aI2179
aI43
aI63
aI3
aI21
aI45
aI12715
aI417
aI99
aI316
aI2897
asS'ori'
p6
S'This house believes that the right to asylum should not be absolute'
p7
ssS'output'
p8
(dp9
g4
(lp10
I3
aI7625
aI382
aI99
aI1881
aI34
aI17727
aI820
aI2743
aI5
aI394
aI693
aI536
aI34
aI11841
aI282
aI6785
aI23961
aI100
aI45
aI3
aI2087
aI63765
asg6
S'The boats were not intended for navigating open waters  and would typically head for busy international shipping lanes some 240&nbsp;km to the east .'
p11
ss.