(dp1
S'input'
p2
(dp3
S'encoded'
p4
(lp5
I64
aI2179
aI43
aI63
aI3
aI28431
aI7
aI2157
aI4624
aI75
aI39939
aI27257
aI122
aI4850
asS'ori'
p6
S'This house believes that the leaking of military documents by Anat Kamm was justified'
p7
ssS'output'
p8
(dp9
g4
(lp10
I30464
aI9943
aI10899
aI89
aI94
aI7
aI2702
aI19371
aI30465
aI2503
aI30466
aI2947
aI5
aI30467
aI2947
aI63765
asg6
S'Hunton & Williams assembled a group of security specialists  HBGary Federal  Palantir Technologies  and Berico Technologies .'
p11
ss.