(dp1
S'input'
p2
(dp3
S'encoded'
p4
(lp5
I64
aI2179
aI43
aI8629
aI116
aI3
aI117
aI998
asS'ori'
p6
S'This house believes atheism is the only way'
p7
ssS'output'
p8
(dp9
g4
(lp10
I3
aI128
aI5
aI5853
aI182
aI1059
aI12955
aI75
aI3871
aI45
aI89
aI10934
aI5480
asg6
S"the universe's order and complexity are best explained by reference to a creator God"
p11
ss.