(dp1
S'input'
p2
(dp3
S'encoded'
p4
(lp5
I64
aI2179
aI43
aI24
aI3
aI475
aI7
aI12436
aI3364
asS'ori'
p6
S'This house believes in the use of affirmative action'
p7
ssS'output'
p8
(dp9
g4
(lp10
I60
aI3
aI9797
aI7
aI17675
aI4719
aI397
aI3
aI6480
aI3
aI3445
aI7
aI89
aI12913
aI753
aI7231
aI24
aI3
aI3912
aI81
aI3026
aI134
aI41
aI51
aI4834
aI45
aI3
aI3492
aI66
aI3081
aI7
aI323
aI63765
asg6
S'With the translation of Confucian texts during the Enlightenment  the concept of a meritocracy reached intellectuals in the West  who saw it as an alternative to the traditional ancient regime of Europe  .'
p11
ss.