(dp1
S'input'
p2
(dp3
S'encoded'
p4
(lp5
I64
aI2179
aI394
aI190
aI3
aI21
aI45
aI3895
aI834
asS'ori'
p6
S'This house would limit the right to bear arms'
p7
ssS'output'
p8
(dp9
g4
(lp10
I17358
aI7541
aI3
aI3717
aI1858
aI223
aI4436
aI24
aI292
aI385
aI7
aI1191
aI2642
aI89
aI2639
aI2598
aI574
aI289
aI863
aI2439
aI5
aI353
aI63
aI3
aI2038
aI7
aI89
aI17194
aI122
aI24
aI68
aI1538
aI166
aI24
aI4492
aI53
aI89
aI4311
aI122
aI713
aI958
aI138
aI979
aI63765
aI19
aI3
aI8185
aI7
aI3
aI4436
aI42
aI3041
aI63
aI3
aI2038
aI7
aI89
aI3211
aI7
aI3961
aI73
aI248
aI2287
aI6037
aI865
aI24
aI89
aI15868
aI806
aI122
aI165
aI166
aI298
aI89
aI2611
aI122
aI16514
aI119
aI223
aI3
aI2322
aI2038
aI773
aI24
aI4492
aI53
aI89
aI4311
aI122
aI1537
aI4578
aI5
aI2449
aI45
aI89
aI979
aI2994
aI7
aI17359
aI24
aI2287
aI2617
aI99
aI2557
aI89
aI3899
asg6
S'Kellermann investigated the circumstances surrounding all in-home homicides in three cities of about half a million population each over five years  and found that the risk of a homicide was in fact slightly higher in homes where a handgun was present  rather than lower . From the details of the homicides he concluded that the risk of a crime of passion or other domestic dispute ending in a fatal injury was much higher when a gun was readily available (essentially all the increased risk being in homes where a handgun was kept loaded and unlocked)  compared to a lower rate of fatality in domestic violence not involving a firearm'
p11
ss.