(dp1
S'input'
p2
(dp3
S'encoded'
p4
(lp5
I64
aI2179
aI43
aI17
aI4941
aI857
aI3211
asS'ori'
p6
S'This house believes social deprivation causes crime'
p7
ssS'output'
p8
(dp9
g4
(lp10
I378
aI189
aI63
aI9619
aI5035
aI24
aI130
aI63
aI163
aI136
aI4914
aI63
aI1476
aI4959
aI291
aI3136
aI41
aI261
aI41
aI189
aI63
aI1476
aI3757
aI45
aI7128
aI5188
aI2185
aI5
aI248
aI372
aI11
aI12
aI3394
aI63765
asg6
S'However  policies that facilitate reductions in poverty  that make decision-making more accountable  that reduce inequalities between groups  as well as policies that reduce access to biological  chemical  nuclear and other weapons have been recommended .'
p11
ss.