(dp1
S'input'
p2
(dp3
S'encoded'
p4
(lp5
I64
aI2179
aI43
aI3
aI626
aI187
aI116
aI1989
aI34
aI3102
aI2223
asS'ori'
p6
S"This house believes the United States is responsible for Mexico's drugs war"
p7
ssS'output'
p8
(dp9
g4
(lp10
I75
aI425
aI132
aI380
aI2565
aI440
aI1258
aI45
aI3
aI187
aI7
aI8829
aI41
aI261
aI41
aI3
aI29585
aI7
aI8857
aI41337
aI5
aI28432
aI63765
asg6
S'By January 2007  these various operations had extended to the states of Guerrero as well as the so-called "Golden Triangle States" of Chihuahua  Durango  and Sinaloa .'
p11
ss.