(dp1
S'input'
p2
(dp3
S'encoded'
p4
(lp5
I64
aI2179
aI394
aI2773
aI12505
asS'ori'
p6
S'This house would embrace multiculturalism'
p7
ssS'output'
p8
(dp9
g4
(lp10
I1151
aI51
aI5025
aI1560
aI2425
aI89
aI759
aI7
aI1593
aI8070
aI64
aI4900
aI63765
asg6
S'Victor  an African American led a part of discussion addressing this difference .'
p11
ss.