(dp1
S'input'
p2
(dp3
S'encoded'
p4
(lp5
I64
aI2179
aI394
aI2773
aI12505
asS'ori'
p6
S'This house would embrace multiculturalism'
p7
ssS'output'
p8
(dp9
g4
(lp10
I3
aI3059
aI126
aI116
aI3
aI229
aI126
aI53
aI5046
aI289
aI3446
aI11262
aI75
aI147
aI843
aI4919
aI73
aI42864
aI18582
aI3
aI4360
aI7
aI94
aI6090
aI41
aI89
aI258
aI7
aI2702
aI63765
asg6
S'The third level is the individual level  where self-interested concerns over personal fitness by individuals either consciously or subconciously motivate the creation of group formation as a means of security  .'
p11
ss.