(dp1
S'input'
p2
(dp3
S'encoded'
p4
(lp5
I64
aI2179
aI43
aI223
aI2138
aI11
aI89
aI21
aI45
aI2185
aI372
asS'ori'
p6
S'This house believes all nations have a right to nuclear weapons'
p7
ssS'output'
p8
(dp9
g4
(lp10
I134
aI3185
aI2635
aI14
aI3
aI248
aI267
aI3528
aI1022
aI2568
aI5
aI5377
aI372
aI2457
aI63765
asg6
S'It focuses resources on the other two priorities -- technical cooperation and preventing nuclear- weapons proliferation  .'
p11
ss.