(dp1
S'input'
p2
(dp3
S'encoded'
p4
(lp5
I64
aI2179
aI394
aI9385
aI2497
aI447
aI14
aI3
aI3578
aI5721
aI7
aI260
asS'ori'
p6
S'This house would enforce term limits on the legislative branch of government'
p7
ssS'output'
p8
(dp9
g4
(lp10
I24
aI3
aI7717
aI2482
aI2483
aI3396
aI462
aI14
aI12910
aI18
aI570
aI2497
aI447
aI92
aI440
aI12
aI3581
aI75
aI4342
aI7
aI7717
aI10472
aI3728
aI75
aI89
aI136
aI138
aI7561
aI63765
asg6
S'In 2002  the Oregon Supreme Court struck down on procedural grounds similar term limits which had been enacted by passage of Oregon Ballot Measure 3 (1992) by a more than 2-to-1 margin  .'
p11
ss.