(dp1
S'input'
p2
(dp3
S'encoded'
p4
(lp5
I64
aI2179
aI43
aI63
aI187
aI417
aI99
aI16642
aI3
aI6449
aI7
aI3935
asS'ori'
p6
S'This house believes that states should not subsidize the growing of tobacco'
p7
ssS'output'
p8
(dp9
g4
(lp10
I25228
aI55
aI12
aI8117
aI45
aI316
aI89
aI25374
aI5
aI19613
aI24
aI2445
aI5067
aI63765
asg6
S'Acrolein has been shown to be a mutagen and carcinogen in human cells .'
p11
ss.