(dp1
S'input'
p2
(dp3
S'encoded'
p4
(lp5
I64
aI2179
aI394
aI4261
aI8667
aI3
aI9361
aI5
aI17069
asS'ori'
p6
S'This house would prohibit burning the stars and stripes'
p7
ssS'output'
p8
(dp9
g4
(lp10
I3
aI1334
aI3461
aI45
aI64
aI306
aI394
aI316
aI545
aI3
aI4659
aI7
aI3
aI4288
aI3262
aI7579
aI3
aI2482
aI2483
aI55
aI743
aI63
aI24096
aI73
aI793
aI34
aI22
aI5354
aI41
aI89
aI10484
aI182
aI99
aI22
aI2381
aI5
aI508
aI139
aI316
aI10103
aI45
aI4229
aI159
aI2051
aI11
aI12
aI2484
aI24
aI3
aI38440
aI33
aI63765
asg6
S'The primary exception to this rule would be within the context of the electoral process  whereby the Supreme Court has ruled that suffrage or standing for political office as a candidate are not political speech and thus can be subjected to significant regulations; such restrictions have been upheld in the Buckley case .'
p11
ss.