(dp1
S'input'
p2
(dp3
S'encoded'
p4
(lp5
I64
aI2179
aI235
aI3
aI2136
aI7
aI3
aI2306
aI7
aI2390
asS'ori'
p6
S'This house supports the one-child policy of the republic of China'
p7
ssS'output'
p8
(dp9
g4
(lp10
I41
aI89
aI759
aI7
aI3
aI93
aI2696
aI267
aI2938
aI2136
aI2032
aI75
aI29024
aI38201
aI5
aI1348
aI75
aI3
aI169
aI5
aI10066
aI220
aI3
aI4604
aI6375
aI2317
aI7
aI5521
aI5522
aI5
aI40023
aI3784
aI2341
aI2581
aI708
aI5
aI2610
aI189
aI60
aI3
aI573
aI7
aI3
aI17863
aI63765
asg6
S'As a part of the one country  two systems policy proposed by Deng Xiaoping and accepted by the British and Portuguese governments  the special administrative regions of Hong Kong and Macao retained separate border control and immigration policies with the rest of the PRC .'
p11
ss.