(dp1
S'input'
p2
(dp3
S'encoded'
p4
(lp5
I64
aI2179
aI43
aI63
aI2659
aI417
aI1690
aI3
aI12048
aI7
aI19084
asS'ori'
p6
S'This house believes that Israel should lift the blockade of Gaza'
p7
ssS'output'
p8
(dp9
g4
(lp10
I24
aI6095
aI5806
aI7
aI14153
aI4161
aI14
aI3
aI6056
aI2734
aI24
aI6430
aI30017
aI9671
aI60
aI631
aI3
aI11523
aI7
aI20973
aI2880
aI863
aI10104
aI5
aI725
aI772
aI63765
asg6
S'In Greece  thousands of protesters marched on the Israeli Embassy in Athens  sparking clashes with police  the deployment of tear gas  five arrests and many injuries  .'
p11
ss.