(dp1
S'input'
p2
(dp3
S'encoded'
p4
(lp5
I64
aI2179
aI43
aI8629
aI116
aI3
aI117
aI998
asS'ori'
p6
S'This house believes atheism is the only way'
p7
ssS'output'
p8
(dp9
g4
(lp10
I4407
aI1769
aI3
aI103
aI63
aI14574
aI4532
aI978
aI89
aI24031
aI958
aI138
aI89
aI213
aI45
aI3
aI3661
aI7
aI3148
aI92
aI116
aI117
aI2590
aI14
aI3
aI24556
aI63
aI3148
aI1967
aI63765
asg6
S"Strictly speaking  the claim that evils don't exist represents a dissolution rather than a solution to the problem of evil  which is only generated on the supposition that evil exists ."
p11
ss.