(dp1
S'input'
p2
(dp3
S'encoded'
p4
(lp5
I64
aI2179
aI43
aI63
aI11083
aI10046
aI417
aI316
aI89
aI3135
aI4603
asS'ori'
p6
S'This house believes that Holocaust denial should be a criminal offence'
p7
ssS'output'
p8
(dp9
g4
(lp10
I41
aI418
aI75
aI4720
aI54791
aI10766
aI2217
aI13944
aI30875
aI1969
aI89
aI25647
aI14
aI2779
aI10531
aI63
aI936
aI7371
aI417
aI316
aI1969
aI45
aI9491
aI604
aI36450
aI417
aI316
aI1340
aI60
aI1171
aI2962
aI14
aI3
aI79
aI7
aI3
aI36046
aI24
aI3
aI2087
aI19
aI63765
asg6
S'As noted by Peter Longerich  Gestapo Chief Heinrich Muller sent a telegram on August 2  1941  ordering that "especially interesting illustrative" material should be sent to Berlin because "the Fuhrer should be presented with continuous reports on the work of the Einsatzgruppen in the east from here"  .'
p11
ss.