(dp1
S'input'
p2
(dp3
S'encoded'
p4
(lp5
I64
aI2179
aI394
aI3830
aI3
aI475
aI7
aI9441
aI13132
aI3102
aI24
aI276
aI381
asS'ori'
p6
S'This house would permit the use of performance enhancing drugs in professional sports'
p7
ssS'output'
p8
(dp9
g4
(lp10
I64
aI139
aI2723
aI15
aI24
aI3
aI38075
aI10
aI5
aI174
aI397
aI3
aI4628
aI10
aI63765
asg6
S'This can occur both in the intoxicated state and also during the withdrawal state .'
p11
ss.