(dp1
S'input'
p2
(dp3
S'encoded'
p4
(lp5
I64
aI2179
aI43
aI63
aI134
aI116
aI400
aI21
aI34
aI3
aI260
aI45
aI3439
aI57
aI7
aI2381
asS'ori'
p6
S'This house believes that it is sometimes right for the government to restrict freedom of speech'
p7
ssS'output'
p8
(dp9
g4
(lp10
I16643
aI4542
aI3
aI3800
aI7
aI3
aI1012
aI12472
aI24
aI5617
aI226
aI16643
aI3265
aI3
aI4042
aI45
aI223
aI3717
aI63765
asg6
S'Protocol 6 prohibits the imposition of the death penalty in peacetime  while Protocol 13 extends the prohibition to all circumstances .'
p11
ss.