(dp1
S'input'
p2
(dp3
S'encoded'
p4
(lp5
I64
aI2179
aI43
aI63
aI6670
aI546
aI417
aI316
aI89
aI1334
aI3108
aI7
aI4849
aI1886
aI2855
asS'ori'
p6
S'This house believes that wind power should be a primary focus of future energy supply'
p7
ssS'output'
p8
(dp9
g4
(lp10
I3
aI1445
aI7456
aI1631
aI6865
aI7
aI3
aI5109
aI139
aI738
aI15249
aI45
aI3
aI2964
aI63
aI139
aI316
aI4977
aI41
aI51
aI6837
aI73
aI6812
aI1177
aI63765
asg6
S'The large  rapidly moving blades of the turbines can return signals to the radar that can be mistaken as an aircraft or weather pattern  .'
p11
ss.