(dp1
S'input'
p2
(dp3
S'encoded'
p4
(lp5
I64
aI2179
aI394
aI5284
aI150
aI3987
asS'ori'
p6
S'This house would reintroduce national service'
p7
ssS'output'
p8
(dp9
g4
(lp10
I17417
aI45
aI3
aI5496
aI5
aI3
aI27100
aI27938
aI604
aI18556
aI4358
aI382
aI4570
aI19
aI3
aI5262
aI63765
asg6
S'Vocations to the ministry and the rabbinate soared  because divinity students were exempt from the draft .'
p11
ss.