(dp1
S'input'
p2
(dp3
S'encoded'
p4
(lp5
I64
aI2179
aI394
aI2998
aI3
aI4360
aI7
aI3249
aI6804
aI24
aI3
aI102
asS'ori'
p6
S'This house would encourage the creation of private universities in the UK'
p7
ssS'output'
p8
(dp9
g4
(lp10
I3
aI7786
aI3249
aI6804
aI7
aI6064
aI1074
aI21417
aI4750
aI874
aI2318
aI4750
aI2087
aI3912
aI4750
aI4750
aI903
aI4750
aI1560
aI282
aI2646
aI4750
aI7
aI6064
aI875
aI6064
aI4750
aI21418
aI4750
aI10
aI4750
aI7
aI6064
aI4192
aI4750
aI6064
aI21419
aI21420
aI4750
aI4232
aI4750
aI6064
aI4750
aI7
aI3409
aI7985
aI21421
aI2207
aI4750
aI21422
aI4750
aI7
aI3707
aI5
aI2186
aI874
aI2318
aI4750
aI282
aI2763
aI4750
aI10211
aI5367
aI4750
aI2769
aI4750
aI21423
aI21424
aI4750
aI7
aI16251
aI2186
aI11307
aI4750
aI21425
aI282
aI4750
aI626
aI282
aI4750
aI3
aI4750
aI7
aI2770
aI2403
aI285
aI4750
aI7
aI6064
aI21426
aI4750
aI2646
aI4750
aI34
aI3495
aI21427
aI21428
aI4750
aI7
aI3707
aI2186
aI63765
asg6
S'The biggest private universities of Bangladesh include BRAC University (BRACU)  North South University (NSU)  East West University  (EWU)Bangladesh University (BU)  Independent University  Bangladesh(IUB)  American International University-Bangladesh(AIUB)  Asian University of Bangladesh (AUB)  America Bangladesh University  Stamford University Bangladesh(SUB)  State University of Bangladesh (SUB)  Northern University Bangladesh (NUB)  Darul Ihsan University (DIU)  Southern University Bangladesh  University of Liberal Arts Bangladesh(ULAB)  BGC Trust University Bangladesh(BGCTUB)  Ahsanullah University of Science and Technology (AUST)  North South University (NSU)  International Islamic University Chittagong (IIUC)  Presidency University (PU)  Southeast University (SEU)  Shanto Mariam University of Creative Technology (SMUCT) Queens University (QU)  Daffodil International University (DIU)  United International University (UIU)  The University of Asia Pacific (UAP)  World University of Bangladesh (WUB)  IBAIS university  Asian University for Women (AUW)  Atish Dipankar University of Science & Technology (ADUST) .'
p11
ss.