(dp1
S'input'
p2
(dp3
S'encoded'
p4
(lp5
I64
aI2179
aI394
aI117
aI7428
aI21151
aI34
aI11389
aI2042
aI24
aI4364
asS'ori'
p6
S'This house would only teach abstinence for sex education in schools'
p7
ssS'output'
p8
(dp9
g4
(lp10
I8578
aI81
aI6196
aI271
aI25980
aI751
aI3
aI3485
aI7
aI182
aI174
aI136
aI1856
aI45
aI9853
aI138
aI120
aI81
aI523
aI134
aI395
asg6
S'Girls who lost their virginity before the age of 16 are also more likely to divorce than those who lose it later '
p11
ss.