(dp1
S'input'
p2
(dp3
S'encoded'
p4
(lp5
I64
aI2179
aI394
aI2017
aI262
asS'ori'
p6
S'This house would ban boxing'
p7
ssS'output'
p8
(dp9
g4
(lp10
I514
aI1038
aI41
aI89
aI536
aI806
aI60
aI89
aI1788
aI852
aI7
aI2009
aI6424
aI2008
aI139
aI521
aI89
aI157
aI7
aI959
aI4764
aI5
aI3859
aI6033
aI63765
asg6
S'Frequently defined as a head injury with a temporary loss of brain function  concussion can cause a variety of physical  cognitive  and emotional symptoms .'
p11
ss.