(dp1
S'input'
p2
(dp3
S'encoded'
p4
(lp5
I64
aI2179
aI394
aI3830
aI3
aI475
aI7
aI9441
aI13132
aI3102
aI24
aI276
aI381
asS'ori'
p6
S'This house would permit the use of performance enhancing drugs in professional sports'
p7
ssS'output'
p8
(dp9
g4
(lp10
I2233
aI5264
aI64
aI122
aI520
aI14
aI131
aI5944
aI3819
aI1198
aI139
aI1453
aI41
aI51
aI2027
aI63765
asg6
S"I knew this was going on  but there's absolutely nothing you can do as an athlete ."
p11
ss.