(dp1
S'input'
p2
(dp3
S'encoded'
p4
(lp5
I64
aI2179
aI43
aI63
aI187
aI417
aI99
aI16642
aI3
aI6449
aI7
aI3935
asS'ori'
p6
S'This house believes that states should not subsidize the growing of tobacco'
p7
ssS'output'
p8
(dp9
g4
(lp10
I3
aI164
aI14833
aI2994
aI24
aI3
aI626
aI187
aI55
aI3722
aI19
aI2151
aI24
aI45
aI2151
aI24
aI63765
asg6
S'The overall smoking rate in the United States has dropped from approximately 46% in 1950 to approximately 21% in 2004  .'
p11
ss.