(dp1
S'input'
p2
(dp3
S'encoded'
p4
(lp5
I64
aI2179
aI43
aI63
aI3
aI21
aI45
aI12715
aI417
aI99
aI316
aI2897
asS'ori'
p6
S'This house believes that the right to asylum should not be absolute'
p7
ssS'output'
p8
(dp9
g4
(lp10
I24
aI25
aI2992
aI40796
aI10671
aI292
aI281
aI29554
aI63
aI427
aI238
aI291
aI5
aI397
aI92
aI3
aI345
aI4983
aI6196
aI271
aI1413
aI5
aI16599
aI24
aI271
aI5166
aI24
aI3
aI40797
aI2654
aI24
aI16647
aI2670
aI5
aI373
aI7477
aI24
aI248
aI969
aI1052
aI2046
aI5
aI2669
aI5
aI990
aI24
aI12701
aI5269
aI24
aI1565
aI5
aI368
aI2203
aI2809
aI2547
aI1005
aI2048
aI2265
aI45
aI3785
aI100
aI7
aI132
aI63765
asg6
S'In his studies Zaken outlines three major eruptions that took place between 1843 and 1933 during which the Assyrian Christians lost their land and hegemony in their habitat in the Hakkari (or Julamerk) region in southeastern Turkey and became refugees in other lands  notably Iran and Iraq  and ultimately in exiled communities in European and western countries (the USA  Canada  Australia  New-Zealand  Sweden  France  to mention some of these countries) .'
p11
ss.