(dp1
S'input'
p2
(dp3
S'encoded'
p4
(lp5
I64
aI2179
aI394
aI5370
aI7146
aI4585
aI2446
asS'ori'
p6
S'This house would abolish intellectual property rights'
p7
ssS'output'
p8
(dp9
g4
(lp10
I147
aI88
aI5641
aI34
aI89
aI29230
aI4404
aI2089
aI3
aI63765
asg6
S'Individuals may register for a CC license via the  .'
p11
ss.