(dp1
S'input'
p2
(dp3
S'encoded'
p4
(lp5
I64
aI2179
aI394
aI60
aI23587
asS'ori'
p6
S'This house would re-engage with Myanmar'
p7
ssS'output'
p8
(dp9
g4
(lp10
I3
aI626
aI187
aI2176
aI7
aI3
aI2907
aI2791
aI9991
aI493
aI5520
aI5726
aI7
aI23587
aI63765
asg6
S'The United States Department of the Treasury announced sanctions against 14 senior officials of Myanmar  .'
p11
ss.