(dp1
S'input'
p2
(dp3
S'encoded'
p4
(lp5
I64
aI2179
aI43
aI63
aI3357
aI5003
aI652
aI3
aI188
aI3262
asS'ori'
p6
S'This house believes that opinion polls harm the democratic process'
p7
ssS'output'
p8
(dp9
g4
(lp10
I273
aI116
aI89
aI3612
aI3716
aI92
aI937
aI311
aI3
aI1200
aI7
aI3
aI10539
aI24
aI9850
aI7
aI7188
aI7
aI11561
aI63765
asg6
S'There is a vocal minority  which remains at the top of the spiral in defiance of threats of isolation .'
p11
ss.