(dp1
S'input'
p2
(dp3
S'encoded'
p4
(lp5
I64
aI2179
aI43
aI63
aI2157
aI2565
aI493
aI19084
aI382
aI4850
asS'ori'
p6
S"This house believes that Israel's 2008-2009 military operations against Gaza were justified"
p7
ssS'output'
p8
(dp9
g4
(lp10
I7431
aI11530
aI655
aI24
aI385
aI589
aI3
aI285
aI24
aI2927
aI9348
aI3
aI696
aI7
aI1447
aI3569
aI233
aI45
aI211
aI31511
aI63765
asg6
S'"Israel Apartheid Week" drew participants in 54 cities around the world in March 2009  twice the number of last year  according to its organisers .'
p11
ss.