(dp1
S'input'
p2
(dp3
S'encoded'
p4
(lp5
I64
aI2179
aI43
aI63
aI187
aI417
aI99
aI16642
aI3
aI6449
aI7
aI3935
asS'ori'
p6
S'This house believes that states should not subsidize the growing of tobacco'
p7
ssS'output'
p8
(dp9
g4
(lp10
I114
aI7
aI9257
aI2586
aI24
aI3
aI481
aI398
aI134
aI122
aI99
aI487
aI366
aI285
aI2223
aI2236
aI63
aI3
aI49308
aI461
aI7
aI864
aI723
aI5
aI373
aI51
aI4514
aI7
aI3309
aI5
aI1353
aI24305
aI63765
asg6
S'Though mass-production of cigarettes began in the late 19th century  it was not until after World War II that the kiseru went of out style and became an object of tradition and relative obscurity  .'
p11
ss.