(dp1
S'input'
p2
(dp3
S'encoded'
p4
(lp5
I64
aI2179
aI394
aI2017
aI3807
aI314
aI3433
asS'ori'
p6
S'This house would ban partial birth abortions'
p7
ssS'output'
p8
(dp9
g4
(lp10
I3
aI8151
aI2134
aI3561
aI2809
aI717
aI24
aI7713
aI5
aI2062
aI75
aI8661
aI16557
aI122
aI1989
aI34
aI8992
aI4237
aI5
aI7624
aI3
aI10472
aI24
aI7713
aI63765
asg6
S'The umbrella organization Personhood USA  based in Colorado and founded by Keith Mason  was responsible for getting Amendments 48 and 62 onto the ballot in Colorado  .'
p11
ss.