(dp1
S'input'
p2
(dp3
S'encoded'
p4
(lp5
I64
aI2179
aI394
aI4261
aI8667
aI3
aI9361
aI5
aI17069
asS'ori'
p6
S'This house would prohibit burning the stars and stripes'
p7
ssS'output'
p8
(dp9
g4
(lp10
I2164
aI13654
aI10507
aI63765
aI1309
aI122
aI28014
aI24
aI45028
aI63765
asg6
S'President Lyndon B . Johnson was hung in effigy  .'
p11
ss.