(dp1
S'input'
p2
(dp3
S'encoded'
p4
(lp5
I64
aI2179
aI43
aI63
aI3
aI4538
aI7
aI4434
aI7793
aI283
aI45
aI3586
aI417
aI316
aI577
asS'ori'
p6
S'This house believes that the sale of violent video games to minors should be banned'
p7
ssS'output'
p8
(dp9
g4
(lp10
I7793
aI319
aI12338
aI3114
aI60
aI3
aI5345
aI155
aI708
aI24
aI3
aI7793
aI283
aI5
aI273
aI11
aI12
aI11825
aI63
aI3
aI17048
aI119
aI24
aI4434
aI7793
aI283
aI28162
aI3
aI1387
aI291
aI3
aI3168
aI5
aI1485
aI7
aI9184
aI2617
aI24
aI89
aI2690
aI63
aI2605
aI3515
aI3
aI4658
aI7
aI12047
aI2617
aI63765
asg6
S'Video game players identify with the character they control in the video games and there have been suggestions that the interactivity available in violent video games narrows the gap between the theory and practice of youth violence in a manner that goes beyond the effects of televised violence  .'
p11
ss.