(dp1
S'input'
p2
(dp3
S'encoded'
p4
(lp5
I64
aI2179
aI394
aI1499
aI3
aI8115
aI34564
aI17106
asS'ori'
p6
S'This house would build the Keystone XL pipeline'
p7
ssS'output'
p8
(dp9
g4
(lp10
I33910
aI5
aI248
aI3727
aI2367
aI2368
aI89
aI667
aI42300
aI1039
aI92
aI52557
aI24
aI2779
aI60
aI289
aI10104
aI311
aI3
aI965
aI2179
aI63765
asg6
S'McKibben and other activists moved toward a new oppositional approach which coalesced in August with over 1000&nbsp;nonviolent arrests at the White House .'
p11
ss.