(dp1
S'input'
p2
(dp3
S'encoded'
p4
(lp5
I64
aI2179
aI394
aI60
aI23587
asS'ori'
p6
S'This house would re-engage with Myanmar'
p7
ssS'output'
p8
(dp9
g4
(lp10
I17699
aI350
aI2981
aI63
aI3
aI4939
aI41114
aI440
aI3940
aI24
aI3
aI2654
aI2056
aI1047
aI41
aI3118
aI41
aI320
aI41
aI2439
aI4500
aI5
aI3
aI4939
aI4940
aI1191
aI15560
aI24
aI89
aI20448
aI3485
aI3905
aI263
aI3
aI60674
aI298
aI4975
aI5
aI3921
aI382
aI237
aI18849
aI5
aI36870
aI20448
aI1761
aI406
aI24
aI3118
aI63765
asg6
S'Archaeological evidence shows that the homo erectus had lived in the region now known as Burma as early as 750 000 years ago  and the homo sapiens about 11 000 BCE  in a Stone Age culture called the Anyathian  when plants and animals were first domesticated and polished stone tools appeared in Burma  .'
p11
ss.