(dp1
S'input'
p2
(dp3
S'encoded'
p4
(lp5
I64
aI2179
aI394
aI2773
aI12505
asS'ori'
p6
S'This house would embrace multiculturalism'
p7
ssS'output'
p8
(dp9
g4
(lp10
I12505
aI55
aI1438
aI19
aI29755
aI5387
aI8175
aI45
aI29755
aI5387
aI2755
aI2938
aI92
aI139
aI316
aI3978
aI45
aI24490
asg6
S'multiculturalism has shifted from tolerating multiple cultures to tolerating multiple value systems  which can be hostile to liberalism'
p11
ss.