(dp1
S'input'
p2
(dp3
S'encoded'
p4
(lp5
I64
aI2179
aI394
aI5370
aI223
aI4013
aI10440
aI2446
aI4881
aI75
aI14482
aI11004
asS'ori'
p6
S'This house would abolish all collective bargaining rights claimed by trades unions'
p7
ssS'output'
p8
(dp9
g4
(lp10
I64
aI1160
aI7
aI2554
aI139
aI1051
aI19
aI7
aI89
aI2131
aI45
aI22
aI73
aI3135
aI7795
aI7
aI2131
aI3727
aI5
aI2789
aI60
aI725
aI3052
aI7
aI2617
aI5
aI457
aI206
aI12
aI426
aI15
aI4284
aI5
aI28069
aI63765
asg6
S'This lack of status can range from non-recognition of a union to political or criminal prosecution of union activists and members  with many cases of violence and deaths having been recorded both historically and contemporarily  .'
p11
ss.