(dp1
S'input'
p2
(dp3
S'encoded'
p4
(lp5
I64
aI2179
aI43
aI63
aI3
aI21
aI45
aI12715
aI417
aI99
aI316
aI2897
asS'ori'
p6
S'This house believes that the right to asylum should not be absolute'
p7
ssS'output'
p8
(dp9
g4
(lp10
I675
aI223
aI1228
aI37620
aI2610
aI3243
aI81
aI11
aI3599
aI3
aI3955
aI7
aI92
aI273
aI182
aI725
aI139
aI1792
aI6398
aI5
aI4083
aI60
aI92
aI5
aI4895
aI155
aI139
aI4739
aI131
aI134
aI1227
aI45
aI316
aI7132
aI63
aI3
aI79
aI116
aI99
aI1483
aI41
aI6730
aI41
aI333
aI32636
aI63765
asg6
S'Like all good caricatures immigration officers who have read the books  of which there are many  can see situations and characters with which and whom they can relate but it needs to be emphasised that the work is not quite as bad as depicted - honestly .'
p11
ss.