(dp1
S'input'
p2
(dp3
S'encoded'
p4
(lp5
I64
aI2179
aI394
aI4325
aI2042
aI270
aI89
aI11605
aI3324
asS'ori'
p6
S'This house would fund education using a voucher scheme'
p7
ssS'output'
p8
(dp9
g4
(lp10
I42
aI3293
aI6001
aI41
aI136
aI1112
aI5
aI136
aI685
aI4748
aI7
aI17
aI9
aI138
aI3
aI260
aI63765
asg6
S'He views churches as more effective and more established providers of social welfare than the government .'
p11
ss.