(dp1
S'input'
p2
(dp3
S'encoded'
p4
(lp5
I64
aI2179
aI394
aI117
aI7428
aI21151
aI34
aI11389
aI2042
aI24
aI4364
asS'ori'
p6
S'This house would only teach abstinence for sex education in schools'
p7
ssS'output'
p8
(dp9
g4
(lp10
I45
aI316
aI5647
aI34
aI3592
aI256
aI83
aI4824
aI4352
aI575
aI459
aI3
aI17
aI2702
aI34
aI792
aI7
aI64
aI4185
aI3
aI2497
aI258
aI51
aI5207
aI73
aI43218
aI2326
aI92
aI63765
asg6
S'To be eligible for funding programs must satisfy requirements given under the Social Security Act:(2) For purposes of this section  the term "abstinence education" means an educational or motivational program which  .'
p11
ss.