(dp1
S'input'
p2
(dp3
S'encoded'
p4
(lp5
I64
aI2179
aI394
aI60
aI23587
asS'ori'
p6
S'This house would re-engage with Myanmar'
p7
ssS'output'
p8
(dp9
g4
(lp10
I59120
aI10
aI63765
asg6
S'|- 3 Kayin State 3 7 10 46 376 2092  .'
p11
ss.