(dp1
S'input'
p2
(dp3
S'encoded'
p4
(lp5
I64
aI2179
aI394
aI2976
aI12243
aI24
aI954
aI126
aI1560
aI10723
asS'ori'
p6
S'This house would implement playoffs in collegiate level American football'
p7
ssS'output'
p8
(dp9
g4
(lp10
I97
aI213
aI45
aI64
aI3661
aI63
aI116
aI773
aI4258
aI513
aI298
aI3
aI912
aI34949
aI2603
aI1667
aI116
aI45
aI1192
aI11140
aI7
aI3
aI34956
aI2554
aI5
aI501
aI3
aI20731
aI13733
aI45
aI4145
aI3
aI655
aI155
aI2383
aI2396
aI63
aI3
aI2240
aI55
aI89
aI11584
aI177
aI34949
aI7514
aI87
aI63
aI443
aI34949
aI20731
aI47
aI316
aI5175
aI45
aI84
aI89
aI34956
aI2333
aI410
aI63765
asg6
S'Another solution to this problem that is being heavily considered when the current BCS agreement ends is to get rid of the AQ status and allow the bowl committees to select the participants they want provided that the school has a sufficiently high BCS ranking so that no BCS bowl will be forced to take a low-ranking AQ conference champion .'
p11
ss.