(dp1
S'input'
p2
(dp3
S'encoded'
p4
(lp5
I64
aI2179
aI394
aI2017
aI628
asS'ori'
p6
S'This house would ban gambling'
p7
ssS'output'
p8
(dp9
g4
(lp10
I366
aI3
aI4031
aI7
aI3
aI398
aI4374
aI223
aI3
aI368
aI220
aI625
aI628
aI5
aI754
aI134
aI41
aI89
aI998
aI7
aI3269
aI63765
asg6
S"After the turn of the century  nearly all the western states' governments outlawed gambling and ended it as a way of life ."
p11
ss.