(dp1
S'input'
p2
(dp3
S'encoded'
p4
(lp5
I64
aI2179
aI43
aI3
aI2206
aI116
aI4850
aI24
aI270
aI972
aI45
aI881
aI187
aI19
aI10443
aI2185
aI372
asS'ori'
p6
S'This house believes the US is justified in using force to prevent states from acquiring nuclear weapons'
p7
ssS'output'
p8
(dp9
g4
(lp10
I16595
aI3531
aI3
aI2172
aI5367
aI41
aI206
aI89
aI2135
aI2136
aI92
aI3494
aI5
aI5
aI10103
aI3
aI2145
aI63765
aI45
aI2439
aI7
aI11478
aI63765
asg6
S'Brzezinski criticized the Clinton presidency as having a foreign policy which lacked "discipline and passion" and subjected the U .S . to "eight years of drift .'
p11
ss.