(dp1
S'input'
p2
(dp3
S'encoded'
p4
(lp5
I64
aI2179
aI43
aI63
aI134
aI116
aI400
aI21
aI34
aI3
aI260
aI45
aI3439
aI57
aI7
aI2381
asS'ori'
p6
S'This house believes that it is sometimes right for the government to restrict freedom of speech'
p7
ssS'output'
p8
(dp9
g4
(lp10
I5226
aI8732
aI643
aI1642
aI2265
aI55
aI45
aI11
aI211
aI11674
aI17504
aI5
aI5248
aI13088
aI9829
aI736
aI4169
aI45
aI316
aI118
aI416
aI75
aI6228
aI24
aI2265
aI1021
aI45
aI3
aI3545
aI7
aI3
aI62788
aI70
aI6907
aI45
aI223
aI21700
aI63
aI11558
aI63
aI4228
aI2975
aI34
aI3
aI6642
aI73
aI3663
aI564
aI6029
aI116
aI2867
aI34
aI3
aI9441
aI7
aI79
aI83
aI316
aI441
aI24
aI4169
aI63765
asg6
S'" Computer software developed outside France has to have its user interface and instruction manuals translated into French to be legally used by companies in France  due to the provision of the Toubon law applying to all workplaces that "any document that contains obligations for the employee or provisions whose knowledge is necessary for the performance of one\'s work must be written in French .'
p11
ss.