(dp1
S'input'
p2
(dp3
S'encoded'
p4
(lp5
I64
aI2179
aI394
aI2998
aI3
aI4360
aI7
aI3249
aI6804
aI24
aI3
aI102
asS'ori'
p6
S'This house would encourage the creation of private universities in the UK'
p7
ssS'output'
p8
(dp9
g4
(lp10
I809
aI1405
aI2161
aI1121
aI14127
aI3092
aI5
aI8828
aI11216
aI1309
aI263
aI134
aI3
aI14128
aI2312
aI24
aI166
aI2042
aI24
aI3
aI102
aI691
aI3
aI3565
aI24
aI7
aI3
aI4750
aI7
aI10421
aI3
aI237
aI3249
aI42
aI3470
aI63
aI134
aI2036
aI3
aI998
aI9046
aI34
aI7239
aI14129
aI75
aI260
aI3013
aI60
aI12912
aI3808
aI5
aI34
aI3
aI10488
aI7
aI3
aI4364
aI63765
asg6
S'Britain\'s former prime minister  Tony Blair  endorsed it; and London\'s mayor  Boris Johnson  called it the boldest experiment in higher education in the UK since the foundation in 1983 of the University of Buckingham  the UK\'s first private university; he wrote that it showed the way ahead for academics demoralized by government interference with admissions procedures and "scapegoated for the weaknesses of the schools .'
p11
ss.