(dp1
S'input'
p2
(dp3
S'encoded'
p4
(lp5
I64
aI2179
aI394
aI163
aI959
aI2042
aI3557
asS'ori'
p6
S'This house would make physical education compulsory'
p7
ssS'output'
p8
(dp9
g4
(lp10
I298
aI89
aI2007
aI6238
aI2363
aI7
aI15
aI8978
aI14711
aI5
aI33961
aI182
aI2322
aI63765
asg6
S'When a person exercises  levels of both circulating serotonin and endorphins are increased  .'
p11
ss.