(dp1
S'input'
p2
(dp3
S'encoded'
p4
(lp5
I64
aI2179
aI394
aI5370
aI3
aI5286
asS'ori'
p6
S'This house would abolish the monarchy'
p7
ssS'output'
p8
(dp9
g4
(lp10
I19
aI487
aI6458
aI6243
aI1630
aI3
aI4772
aI2233
aI45
aI271
aI29645
aI34
aI38242
aI73
aI45185
aI73
aI6553
aI24
aI1021
aI45
aI271
aI2554
aI41
aI6465
aI73
aI6553
aI7
aI2450
aI63765
asg6
S'From 1877 until 1948 reigning monarchs added the letter I to their signatures  for imperator or imperatrix (emperor or empress in Latin)  due to their status as Emperor or Empress of India .'
p11
ss.