(dp1
S'input'
p2
(dp3
S'encoded'
p4
(lp5
I64
aI2179
aI13605
aI2258
aI45
aI2194
asS'ori'
p6
S'This house prefers trade to aid'
p7
ssS'output'
p8
(dp9
g4
(lp10
I3
aI143
aI63
aI89
aI2696
aI463
aI1192
aI45
aI5833
aI3
aI1227
aI7
aI3
aI285
aI192
aI24
aI16674
aI5941
aI5
aI3082
aI99
aI949
aI23877
aI122
aI237
aI5182
aI75
aI13124
aI2924
aI24
aI5
aI2933
aI3177
aI96
aI24
aI3
aI398
aI63765
asg6
S"The argument that a country could get 'locked in' to serving the needs of the world market in raw materials  and therefore not develop industrially was first advanced by Friedrich List in 1841  and received empirical support in the 20th century ."
p11
ss.