(dp1
S'input'
p2
(dp3
S'encoded'
p4
(lp5
I64
aI2179
aI43
aI63
aI134
aI116
aI400
aI21
aI34
aI3
aI260
aI45
aI3439
aI57
aI7
aI2381
asS'ori'
p6
S'This house believes that it is sometimes right for the government to restrict freedom of speech'
p7
ssS'output'
p8
(dp9
g4
(lp10
I2056
aI63
aI223
aI2132
aI7
aI323
aI2544
aI187
aI11
aI2215
aI16643
aI16643
aI55
aI6196
aI134
aI54921
aI5
aI233
aI45
aI211
aI284
aI1809
aI14903
aI45
aI11
aI351
aI782
aI298
aI16643
aI4012
aI736
aI972
aI14
aI2116
aI63765
asg6
S"Now that all Council of Europe member states have ratified Protocol 14  Protocol 14bis has lost it raison d'etre and according to its own terms ceased to have any effect when Protocol 14 entered into force on 1 June 2010 ."
p11
ss.