(dp1
S'input'
p2
(dp3
S'encoded'
p4
(lp5
I64
aI2179
aI394
aI2017
aI628
asS'ori'
p6
S'This house would ban gambling'
p7
ssS'output'
p8
(dp9
g4
(lp10
I54
aI246
aI4309
aI45
aI628
aI6994
aI5
aI1968
aI628
asg6
S'regulation generally leads to gambling tourism and illegal gambling'
p11
ss.