(dp1
S'input'
p2
(dp3
S'encoded'
p4
(lp5
I64
aI2179
aI394
aI16642
aI1376
aI5269
asS'ori'
p6
S'This house would subsidize poor communities'
p7
ssS'output'
p8
(dp9
g4
(lp10
I24
aI4374
aI2639
aI1376
aI3862
aI24
aI3
aI2206
aI415
aI19
aI3941
aI63765
asg6
S'In 1997  nearly 8 .5 million (57%) poor children in the US came from single-parent households  .'
p11
ss.