(dp1
S'input'
p2
(dp3
S'encoded'
p4
(lp5
I64
aI2179
aI43
aI223
aI2138
aI11
aI89
aI21
aI45
aI2185
aI372
asS'ori'
p6
S'This house believes all nations have a right to nuclear weapons'
p7
ssS'output'
p8
(dp9
g4
(lp10
I1277
aI2902
aI45
aI3
aI5686
aI7
aI22
aI3707
aI116
aI24
aI3
aI4360
aI7
aI45920
aI8875
aI15105
aI41
aI42
aI62
aI89
aI3168
aI7
aI282
aI2202
aI92
aI5059
aI63
aI3089
aI139
aI153
aI316
aI12955
aI75
aI3
aI7630
aI6308
aI14
aI86
aI75
aI282
aI1458
aI92
aI447
aI5
aI45923
aI271
aI7167
aI63765
asg6
S"Waltz's key contribution to the realm of political science is in the creation of neorealism (or structural realism  as he calls it)  a theory of International Relations which posits that states' actions can often be explained by the pressures exerted on them by international competition  which limits and constrains their choices ."
p11
ss.