(dp1
S'input'
p2
(dp3
S'encoded'
p4
(lp5
I64
aI2179
aI394
aI2017
aI223
aI9058
aI23653
asS'ori'
p6
S'This house would ban all unsustainable logging'
p7
ssS'output'
p8
(dp9
g4
(lp10
I7797
aI6793
aI116
aI89
aI6118
aI34
aI3
aI1350
aI7
aI136
aI138
aI2900
aI7
aI655
aI9560
aI742
aI63
aI7797
aI16849
aI182
aI843
aI419
aI1185
aI73
aI2888
aI34
aI3
aI1350
aI7
aI5
aI136
aI138
aI2900
aI742
aI63
aI134
aI116
aI1185
aI45
aI6970
aI63765
asg6
S'Biodiversity conservation is a prerequisite for the success of REDD+: More than 90 percent of FD4 participants polled said that biodiversity safeguards are either very important or essential for the success of REDD+  and more than 95 percent said that it is important to monitor co-benefits .'
p11
ss.