(dp1
S'input'
p2
(dp3
S'encoded'
p4
(lp5
I64
aI2179
aI43
aI63
aI3
aI21
aI45
aI12715
aI417
aI99
aI316
aI2897
asS'ori'
p6
S'This house believes that the right to asylum should not be absolute'
p7
ssS'output'
p8
(dp9
g4
(lp10
I24
aI1592
aI3
aI9915
aI2232
aI7
aI4374
aI4224
aI1191
aI267
aI2900
aI7
aI3
aI2598
aI7
aI6097
aI7480
aI41
aI7477
aI45
aI5631
aI5
aI3912
aI327
aI63765
asg6
S'In 195657 following the Hungarian Revolution of 1956 nearly 200 000 persons  about two percent of the population of Hungary  fled as refugees to Austria and West Germany  .'
p11
ss.