(dp1
S'input'
p2
(dp3
S'encoded'
p4
(lp5
I64
aI2179
aI394
aI2017
aI3807
aI314
aI3433
asS'ori'
p6
S'This house would ban partial birth abortions'
p7
ssS'output'
p8
(dp9
g4
(lp10
I5060
aI3257
aI116
aI3
aI4951
aI5
aI4932
aI3188
aI7
aI3
aI16502
aI24
aI2521
aI7
aI211
aI21
aI45
aI3269
asg6
S'induced abortion is the deliberate and unjust killing of the embryo in violation of its right to life'
p11
ss.