(dp1
S'input'
p2
(dp3
S'encoded'
p4
(lp5
I64
aI2179
aI43
aI63
aI3
aI28431
aI7
aI2157
aI4624
aI75
aI39939
aI27257
aI122
aI4850
asS'ori'
p6
S'This house believes that the leaking of military documents by Anat Kamm was justified'
p7
ssS'output'
p8
(dp9
g4
(lp10
I3
aI6056
aI2157
aI11659
aI116
aI89
aI4072
aI24
aI3
aI6054
aI16163
aI7
aI2157
aI1306
aI92
aI19935
aI289
aI3
aI692
aI7
aI5224
aI2230
aI3
aI2157
aI2923
aI5
aI246
aI3
aI2702
aI7
aI2659
aI63765
asg6
S'The Israeli Military Censor () is a unit in the IDF Directorate of Military Intelligence which watches over the publication of information regarding the military network  and generally  the security of Israel .'
p11
ss.