(dp1
S'input'
p2
(dp3
S'encoded'
p4
(lp5
I64
aI2179
aI43
aI223
aI2138
aI11
aI89
aI21
aI45
aI2185
aI372
asS'ori'
p6
S'This house believes all nations have a right to nuclear weapons'
p7
ssS'output'
p8
(dp9
g4
(lp10
I2318
aI2404
aI643
aI89
aI2185
aI1942
aI5201
aI397
aI3
aI5
aI320
aI63765
asg6
S'South Africa developed a nuclear weapon capability during the 1970s and early 1980s .'
p11
ss.