(dp1
S'input'
p2
(dp3
S'encoded'
p4
(lp5
I64
aI2179
aI43
aI63
aI3357
aI5003
aI652
aI3
aI188
aI3262
asS'ori'
p6
S'This house believes that opinion polls harm the democratic process'
p7
ssS'output'
p8
(dp9
g4
(lp10
I24
aI3
aI320
aI658
aI4645
aI7092
aI1545
aI271
aI79
aI41
aI89
aI267
aI998
aI1193
aI63765
asg6
S"In the early 1920's Public Relation experts described their work as a two way street ."
p11
ss.