(dp1
S'input'
p2
(dp3
S'encoded'
p4
(lp5
I64
aI2179
aI43
aI8629
aI116
aI3
aI117
aI998
asS'ori'
p6
S'This house believes atheism is the only way'
p7
ssS'output'
p8
(dp9
g4
(lp10
I93
aI1343
aI7
aI64
aI234
aI116
aI928
aI24
aI6035
aI45
aI89
aI5615
aI56807
aI24
aI92
aI428
aI10642
aI99
aI113
aI51
aI8636
aI87
aI165
aI41
aI2233
aI5607
aI51
aI2233
aI99
aI117
aI1049
aI63
aI223
aI8313
aI182
aI4430
aI7
aI3
aI1643
aI52133
aI131
aI2233
aI1781
aI63
aI3
aI673
aI7
aI6001
aI5
aI3
aI782
aI7
aI2767
aI1361
aI116
aI7745
aI11968
aI63765
asg6
S'One example of this view is demonstrated in Letters to a Young Contrarian (2001)  in which Christopher Hitchens writes: "I\'m not even an atheist so much as I am an antitheist; I not only maintain that all religions are versions of the same untruth  but I hold that the influence of churches  and the effect of religious belief  is positively harmful .'
p11
ss.