(dp1
S'input'
p2
(dp3
S'encoded'
p4
(lp5
I64
aI2179
aI43
aI63
aI3
aI4990
aI4991
aI116
aI4850
aI24
aI12166
aI3
aI475
aI7
aI3532
aI3290
aI7
aI4714
asS'ori'
p6
S'This house believes that the Catholic Church is justified in forbidding the use of barrier methods of contraception'
p7
ssS'output'
p8
(dp9
g4
(lp10
I3
aI15527
aI21152
aI643
aI311
aI21495
aI51996
aI24
aI12088
aI2547
aI116
aI89
aI23183
aI63
aI38601
aI111
aI2322
aI6929
aI366
aI23088
aI736
aI3
aI45869
aI73
aI23059
aI63765
asg6
S'The Invisible Condom  developed at Universite Laval in Quebec  Canada  is a gel that hardens upon increased temperature after insertion into the vagina or rectum .'
p11
ss.