(dp1
S'input'
p2
(dp3
S'encoded'
p4
(lp5
I64
aI2179
aI43
aI63
aI134
aI116
aI400
aI21
aI34
aI3
aI260
aI45
aI3439
aI57
aI7
aI2381
asS'ori'
p6
S'This house believes that it is sometimes right for the government to restrict freedom of speech'
p7
ssS'output'
p8
(dp9
g4
(lp10
I57446
aI9814
aI9813
aI1966
aI63
aI3
aI2503
aI2533
aI440
aI2834
aI211
aI42
aI637
aI263
aI34
aI4432
aI3
aI3567
aI63765
asg6
S'Marylands Luther Martin argued that the federal convention had exceeded its authority; he still called for amending the Articles  .'
p11
ss.