(dp1
S'input'
p2
(dp3
S'encoded'
p4
(lp5
I64
aI2179
aI394
aI2017
aI223
aI9058
aI23653
asS'ori'
p6
S'This house would ban all unsustainable logging'
p7
ssS'output'
p8
(dp9
g4
(lp10
I7809
aI2994
aI5
aI697
aI803
aI36819
aI11
aI12
aI1360
aI416
aI34
aI7249
aI7809
aI24
aI725
aI2317
aI158
aI3
aI10247
aI12751
aI7809
aI7249
aI75
aI36928
aI63765
asg6
S'Deforestation rate and total area deforested  have been widely used for monitoring deforestation in many regions  including the Brazilian Amazon deforestation monitoring by INPE  .'
p11
ss.