(dp1
S'input'
p2
(dp3
S'encoded'
p4
(lp5
I64
aI2179
aI43
aI63
aI2659
aI417
aI1690
aI3
aI12048
aI7
aI19084
asS'ori'
p6
S'This house believes that Israel should lift the blockade of Gaza'
p7
ssS'output'
p8
(dp9
g4
(lp10
I2659
aI2538
aI3
aI3014
aI7
aI3
aI2051
aI24
aI4422
aI7
aI7500
aI736
aI19084
aI182
aI45
aI1347
aI16619
aI92
aI98
aI99
aI7227
aI2659
aI5
aI15301
aI1687
aI14
aI211
aI2144
aI63765
asg6
S'Israel says the purpose of the restrictions in import of goods into Gaza are to pressure Hamas  which does not recognise Israel and backs attacks on its citizens  .'
p11
ss.