(dp1
S'input'
p2
(dp3
S'encoded'
p4
(lp5
I64
aI2179
aI394
aI2998
aI3
aI4360
aI7
aI3249
aI6804
aI24
aI3
aI102
asS'ori'
p6
S'This house would encourage the creation of private universities in the UK'
p7
ssS'output'
p8
(dp9
g4
(lp10
I120
aI81
aI182
aI19527
aI45
aI3
aI2441
aI1563
aI14357
aI4358
aI88
aI96
aI7631
aI45
aI3018
aI3
aI1718
aI7
aI120
aI81
aI182
aI13031
aI7
aI4490
aI5
aI3834
aI24
aI2145
aI63765
aI2022
aI63765
asg6
S'Those who are sympathetic to the challenges facing undocumented students may support opportunities to promote the potential of those who are deserving of incorporation and membership in U .S . society .'
p11
ss.