(dp1
S'input'
p2
(dp3
S'encoded'
p4
(lp5
I64
aI2179
aI394
aI4325
aI2042
aI270
aI89
aI11605
aI3324
asS'ori'
p6
S'This house would fund education using a voucher scheme'
p7
ssS'output'
p8
(dp9
g4
(lp10
I42
aI174
aI3470
aI24
aI25
aI26
aI57
aI459
aI19383
aI480
aI24
aI4091
aI7
aI3
aI4368
aI7444
aI34
aI2354
aI2041
aI256
aI316
aI3481
aI34
aI75
aI78
aI81
aI11
aI9381
aI89
aI8331
aI63765
aI63765
asg6
S"He also wrote  in his book Freedom Under Siege  published in 1987  Victims of the disease AIDS argue. for crash research programs (to be paid for by people who don't have AIDS)  demanding a cure . ."
p11
ss.