(dp1
S'input'
p2
(dp3
S'encoded'
p4
(lp5
I64
aI2179
aI394
aI2017
aI262
asS'ori'
p6
S'This house would ban boxing'
p7
ssS'output'
p8
(dp9
g4
(lp10
I1286
aI1971
aI45
aI1192
aI1020
aI45
aI25
aI761
aI366
aI3
aI787
aI131
aI122
aI1972
aI1973
aI5
aI134
aI122
aI117
aI89
aI829
aI7
aI1974
aI751
aI1329
aI916
aI89
aI1975
aI7
aI718
aI92
aI1969
aI1286
aI1976
aI45
aI3
aI757
aI1710
aI1329
aI89
aI780
aI730
aI24
aI3
aI446
aI5
aI1977
aI1286
aI25
aI237
aI1978
aI1979
aI63765
asg6
S'Hatton managed to get himself to his feet after the knockdown but was clearly dazed and it was only a matter of moments before Mayweather landed a flurry of punches which sent Hatton crashing to the canvas  giving Mayweather a TKO victory in the 10th round and handing Hatton his first ever defeat .'
p11
ss.