(dp1
S'input'
p2
(dp3
S'encoded'
p4
(lp5
I64
aI2179
aI43
aI63
aI1036
aI4828
aI33250
aI116
aI25073
aI45
aI3315
aI4562
asS'ori'
p6
S'This house believes that male infant circumcision is tantamount to child abuse'
p7
ssS'output'
p8
(dp9
g4
(lp10
I7
aI3
aI5329
aI7
aI3
aI369
aI370
aI382
aI838
aI4307
aI5
asg6
S'(About 10% of the inhabitants of the Roman Empire were full Jews and God-Fearers .)'
p11
ss.