(dp1
S'input'
p2
(dp3
S'encoded'
p4
(lp5
I64
aI2179
aI394
aI2773
aI12505
asS'ori'
p6
S'This house would embrace multiculturalism'
p7
ssS'output'
p8
(dp9
g4
(lp10
I3
aI2823
aI3716
aI978
aI51
aI20113
aI3716
aI63765
asg6
S'The model minority represents an unrealistic minority .'
p11
ss.