(dp1
S'input'
p2
(dp3
S'encoded'
p4
(lp5
I64
aI2179
aI43
aI63
aI3
aI4538
aI7
aI4434
aI7793
aI283
aI45
aI3586
aI417
aI316
aI577
asS'ori'
p6
S'This house believes that the sale of violent video games to minors should be banned'
p7
ssS'output'
p8
(dp9
g4
(lp10
I3
aI1189
aI470
aI4931
aI6417
aI7
aI380
aI7793
aI319
aI7151
aI9103
aI2938
aI589
aI3
aI285
aI63765
asg6
S'The image below presents usage of various video game content rating systems around the world .'
p11
ss.