(dp1
S'input'
p2
(dp3
S'encoded'
p4
(lp5
I64
aI2179
aI394
aI2017
aI223
aI9058
aI23653
asS'ori'
p6
S'This house would ban all unsustainable logging'
p7
ssS'output'
p8
(dp9
g4
(lp10
I120
aI2031
aI1074
aI10070
aI6619
aI60
aI2556
aI5
aI16673
aI8175
aI63765
asg6
S'Those supported include indigenous peoples with unique and precious cultures .'
p11
ss.