(dp1
S'input'
p2
(dp3
S'encoded'
p4
(lp5
I64
aI2179
aI394
aI163
aI959
aI2042
aI3557
asS'ori'
p6
S'This house would make physical education compulsory'
p7
ssS'output'
p8
(dp9
g4
(lp10
I113
aI366
aI25243
aI24972
aI4790
aI443
aI3226
aI24
aI4699
aI116
aI344
aI24
aI3
aI25313
aI5
aI35984
aI63765
asg6
S'Even after cardiac bypass surgery  no increase in mortality is seen in the overweight and obese  .'
p11
ss.