(dp1
S'input'
p2
(dp3
S'encoded'
p4
(lp5
I64
aI2179
aI43
aI63
aI187
aI417
aI99
aI16642
aI3
aI6449
aI7
aI3935
asS'ori'
p6
S'This house believes that states should not subsidize the growing of tobacco'
p7
ssS'output'
p8
(dp9
g4
(lp10
I24
aI89
aI4587
aI2035
aI7
aI78
aI2439
aI7
aI3485
aI397
aI7
aI25270
aI78
aI7
aI14832
aI440
aI7119
aI25266
aI41
aI2449
aI60
aI7
aI63765
asg6
S'In a prospective study of community-dwelling people 6090 years of age  during 1993  of unimmunized people 23% of smokers had clinical influenza as compared with 6% of non-smokers  .'
p11
ss.