(dp1
S'input'
p2
(dp3
S'encoded'
p4
(lp5
I64
aI2179
aI43
aI63
aI134
aI116
aI400
aI21
aI34
aI3
aI260
aI45
aI3439
aI57
aI7
aI2381
asS'ori'
p6
S'This house believes that it is sometimes right for the government to restrict freedom of speech'
p7
ssS'output'
p8
(dp9
g4
(lp10
I64
aI7983
aI116
aI162
aI1598
aI75
aI2474
aI13216
aI380
aI1603
aI7
aI57
aI7
aI3863
aI2041
aI41
aI3863
aI7252
aI2961
aI5
aI888
aI3
aI9098
aI45
aI92
aI132
aI2511
aI182
aI24692
aI24
aI89
aI976
aI145
aI139
aI867
aI41
aI938
aI462
aI41
aI211
aI2475
aI63765
asg6
S"This philosophy is usually accompanied by legislation ensuring various degrees of freedom of scientific research (known as scientific freedom)  publishing  press and printing the depth to which these laws are entrenched in a country's legal system can go as far down as its constitution ."
p11
ss.