(dp1
S'input'
p2
(dp3
S'encoded'
p4
(lp5
I64
aI2179
aI43
aI24
aI3
aI475
aI7
aI12436
aI3364
asS'ori'
p6
S'This house believes in the use of affirmative action'
p7
ssS'output'
p8
(dp9
g4
(lp10
I3477
aI7
aI3702
aI159
aI41
aI284
aI73
aI11
aI419
aI1102
aI3386
aI45
aI776
aI252
aI7593
aI311
aI3
aI2597
aI17
aI9612
aI24
aI92
aI10535
aI2922
aI63765
asg6
S'Lines of reasoning such as "I don\'t own slaves" or "I have very close black friends" to defend oneself) without looking at the larger social mechanisms in which racism operates .'
p11
ss.