(dp1
S'input'
p2
(dp3
S'encoded'
p4
(lp5
I64
aI2179
aI43
aI63
aI3
aI4990
aI4991
aI116
aI4850
aI24
aI12166
aI3
aI475
aI7
aI3532
aI3290
aI7
aI4714
asS'ori'
p6
S'This house believes that the Catholic Church is justified in forbidding the use of barrier methods of contraception'
p7
ssS'output'
p8
(dp9
g4
(lp10
I24
aI448
aI51
aI43793
aI116
aI51
aI7446
aI63
aI55
aI89
aI6351
aI1880
aI7
aI6241
aI75
aI258
aI248
aI138
aI8803
aI1610
aI131
aI55
aI89
aI4886
aI258
aI7
aI6241
aI75
aI8803
aI1610
aI644
aI49727
aI4911
aI2571
aI7
aI49728
aI49729
aI99
aI788
aI736
aI63765
asg6
S'In general  an STI is an infection that has a negligible probability of transmission by means other than sexual contact  but has a realistic means of transmission by sexual contact (more sophisticated meansblood transfusion  sharing of hypodermic needlesare not taken into account) .'
p11
ss.