(dp1
S'input'
p2
(dp3
S'encoded'
p4
(lp5
I64
aI2179
aI43
aI63
aI3
aI28431
aI7
aI2157
aI4624
aI75
aI39939
aI27257
aI122
aI4850
asS'ori'
p6
S'This house believes that the leaking of military documents by Anat Kamm was justified'
p7
ssS'output'
p8
(dp9
g4
(lp10
I24
aI2959
aI2201
aI480
aI30309
aI14980
aI19
aI3
aI492
aI5765
aI20352
aI24
aI92
aI10471
aI5599
aI382
aI887
aI120
aI3178
aI75
aI51
aI14261
aI20353
aI41
aI3
aI6606
aI4257
aI7793
aI63765
asg6
S'In April 2010  WikiLeaks published gunsight footage from the 12 July 2007 Baghdad airstrike in which Iraqi journalists were among those killed by an Apache helicopter  as the Collateral Murder video .'
p11
ss.