(dp1
S'input'
p2
(dp3
S'encoded'
p4
(lp5
I64
aI2179
aI394
aI475
aI2135
aI2194
aI6198
aI45
aI2041
aI5
aI13926
aI8732
aI63
aI1735
aI12708
aI5
aI5599
aI24
aI2203
aI45
aI1397
aI7149
aI5
aI12311
aI271
aI5119
aI4948
asS'ori'
p6
S'This house would use foreign aid funds to research and distribute software that allows bloggers and journalists in non-democratic countries to evade censorship and conceal their online activities'
p7
ssS'output'
p8
(dp9
g4
(lp10
I34
aI1343
aI5
aI10662
aI5
aI248
aI34326
aI24
aI3235
aI60
aI2330
aI5
aI4169
aI70
aI63765
asg6
S'For example  and  remove Neo-Nazi and other listings in compliance with German and French law  .'
p11
ss.