(dp1
S'input'
p2
(dp3
S'encoded'
p4
(lp5
I64
aI2179
aI43
aI63
aI3376
aI4938
aI417
aI316
aI3537
asS'ori'
p6
S'This house believes that endangered species should be protected'
p7
ssS'output'
p8
(dp9
g4
(lp10
I64
aI55
aI12
aI324
aI9168
aI34
aI1343
aI24
aI3
aI1691
aI2838
aI24
aI3
aI696
aI7
aI7866
aI4938
aI3048
aI63765
asg6
S'This has been particularly evident  for example  in the rapid decline in the number of amphibian species worldwide .'
p11
ss.