(dp1
S'input'
p2
(dp3
S'encoded'
p4
(lp5
I64
aI2179
aI13605
aI2258
aI45
aI2194
asS'ori'
p6
S'This house prefers trade to aid'
p7
ssS'output'
p8
(dp9
g4
(lp10
I17002
aI1735
aI2138
aI45
aI8819
aI271
aI7455
aI2635
aI45
aI3
aI2410
aI7
aI3
aI1341
aI7500
aI5
aI3205
aI34
aI92
aI63
aI2548
aI55
aI89
aI12390
aI502
aI63765
asg6
S'Specialization allows nations to devote their scarce resources to the production of the particular goods and services for which that nation has a comparative advantage .'
p11
ss.