(dp1
S'input'
p2
(dp3
S'encoded'
p4
(lp5
I64
aI2179
aI394
aI190
aI3
aI21
aI45
aI3895
aI834
asS'ori'
p6
S'This house would limit the right to bear arms'
p7
ssS'output'
p8
(dp9
g4
(lp10
I459
aI2087
aI17202
aI70
aI117
aI3
aI2157
aI5
aI631
aI2219
aI88
aI118
aI1897
aI1378
aI5
aI475
aI3892
aI63765
asg6
S'Under East Timorese law  only the military and police forces may legally possess  carry and use firearms .'
p11
ss.