(dp1
S'input'
p2
(dp3
S'encoded'
p4
(lp5
I64
aI2179
aI394
aI2773
aI12505
asS'ori'
p6
S'This house would embrace multiculturalism'
p7
ssS'output'
p8
(dp9
g4
(lp10
I1094
aI662
aI63765
aI26038
aI5
aI18242
aI645
aI63765
aI26039
aI4720
aI14996
aI1117
aI20017
aI26040
aI26041
aI14280
aI26042
aI11894
aI26043
aI26044
aI26045
aI26046
aI26047
aI19311
aI89
aI63765
aI26048
aI7160
aI411
aI89
aI63765
asg6
S'Joe L . Kincheloe and Shirley R . Steinberg  Peter McLaren  Henry Giroux  Antonia Darder  Christine Sleeter  Ernest Morrell  Sonia Nieto  Rochelle Brock  Cherry A . McGee Banks  James A .'
p11
ss.