(dp1
S'input'
p2
(dp3
S'encoded'
p4
(lp5
I64
aI2179
aI394
aI2017
aI223
aI9058
aI23653
asS'ori'
p6
S'This house would ban all unsustainable logging'
p7
ssS'output'
p8
(dp9
g4
(lp10
I285
aI28612
aI47808
aI285
aI28612
aI1851
aI717
aI24
aI15084
aI10348
aI116
aI3
aI2764
aI2645
aI2041
aI232
aI14
aI3
aI4066
aI2864
aI6762
aI6372
aI24
aI7408
aI15586
aI5
aI3945
aI19102
aI63765
asg6
S'World Agroforestry CentreThe World Agroforestry Centre  based in Nairobi  Kenya  is the worlds leading research institution on the diverse roles trees play in agricultural landscapes and rural livelihoods .'
p11
ss.