(dp1
S'input'
p2
(dp3
S'encoded'
p4
(lp5
I64
aI2179
aI43
aI63
aI2157
aI2565
aI493
aI19084
aI382
aI4850
asS'ori'
p6
S"This house believes that Israel's 2008-2009 military operations against Gaza were justified"
p7
ssS'output'
p8
(dp9
g4
(lp10
I3388
aI2145
aI63765
aI202
aI20392
aI2631
aI31281
aI1442
aI25
aI3357
aI461
aI24
aI528
aI60
aI5846
aI7
aI12112
aI63765
asg6
S'Retired U .S . Army colonel Douglas Macgregor gave his opinion as: "They went in heavy  with lots of firepower .'
p11
ss.