(dp1
S'input'
p2
(dp3
S'encoded'
p4
(lp5
I64
aI2179
aI394
aI60
aI23587
asS'ori'
p6
S'This house would re-engage with Myanmar'
p7
ssS'output'
p8
(dp9
g4
(lp10
I3
aI626
aI2138
aI2445
aI2446
aI2132
aI5898
aI5
aI1729
aI3
aI1780
aI24
aI23587
aI397
aI89
aI4604
aI9621
aI5
aI871
aI89
aI9596
aI46369
aI3
aI4434
aI9751
aI7
aI2468
aI13539
aI5
aI2780
aI3
aI4515
aI7
aI223
aI120
aI9249
aI397
aI3
aI13539
aI63765
asg6
S'The United Nations Human Rights Council met and discussed the situation in Myanmar during a special session  and passed a resolution deploring the violent repression of peaceful demonstrations  and urging the release of all those arrested during the demonstrations  .'
p11
ss.