(dp1
S'input'
p2
(dp3
S'encoded'
p4
(lp5
I64
aI2179
aI43
aI17
aI4941
aI857
aI3211
asS'ori'
p6
S'This house believes social deprivation causes crime'
p7
ssS'output'
p8
(dp9
g4
(lp10
I34
aI1343
aI51
aI229
aI24
aI3
aI62238
aI17921
aI116
aI637
aI5600
aI75
aI3
aI442
aI5
aI1708
aI759
aI24
aI2022
aI63765
asg6
S'For example  an individual in the ritualistic adaptation is still playing by the rules and taking part in society .'
p11
ss.