(dp1
S'input'
p2
(dp3
S'encoded'
p4
(lp5
I64
aI2179
aI43
aI63
aI2203
aI60
aI51
aI997
aI2837
aI21716
aI1636
aI5349
aI417
aI2998
aI8532
aI45
aI3051
aI8578
asS'ori'
p6
S'This house believes that countries with an imbalanced male/female ratio skewed towards males should encourage parents to produce girls'
p7
ssS'output'
p8
(dp9
g4
(lp10
I93
aI1380
aI7
aI2198
aI55
aI2118
aI19
aI120
aI81
aI9056
aI3
aI2441
aI7440
aI19
aI177
aI2598
aI2234
aI131
aI133
aI63
aI149
aI12355
aI5537
aI158
aI120
aI63
aI3402
aI9139
aI5
aI17785
aI7
aI13843
aI463
aI11
aI1803
aI3
aI1643
aI727
aI289
aI51
aI1258
aI639
aI7
aI413
aI63765
asg6
S"One type of criticism has come from those who acknowledge the challenges stemming from China's high population growth but believe that less intrusive options  including those that emphasized delay and spacing of births  could have achieved the same results over an extended period of time ."
p11
ss.