(dp1
S'input'
p2
(dp3
S'encoded'
p4
(lp5
I64
aI2179
aI43
aI63
aI3
aI21
aI45
aI12715
aI417
aI99
aI316
aI2897
asS'ori'
p6
S'This house believes that the right to asylum should not be absolute'
p7
ssS'output'
p8
(dp9
g4
(lp10
I134
aI88
aI316
aI63
aI64
aI139
aI316
aI12955
aI75
aI89
aI3249
aI3615
aI45
aI4345
aI2183
aI45
aI965
aI41836
aI2144
aI226
aI41837
aI45
aI3
aI658
aI41838
aI1191
aI2322
aI5
aI2646
aI2589
aI5
aI350
aI34
aI64
aI116
aI575
aI24
aI3130
aI14036
aI63765
asg6
S'It may be that this can be explained by a private reluctance to extend controls to white Commonwelath citizens while pandering to the public disquiet about increased afro-Caribbean and Asian migration and evidence for this is given in previous sections .'
p11
ss.