(dp1
S'input'
p2
(dp3
S'encoded'
p4
(lp5
I64
aI2179
aI43
aI63
aI2157
aI2565
aI493
aI19084
aI382
aI4850
asS'ori'
p6
S"This house believes that Israel's 2008-2009 military operations against Gaza were justified"
p7
ssS'output'
p8
(dp9
g4
(lp10
I3399
aI24
aI3
aI2351
aI1727
aI9719
aI37426
aI1143
aI53791
aI81
aI122
aI3
aI237
aI2164
aI7
aI3
aI282
aI3135
aI9938
aI34
aI3
aI809
aI16670
aI1966
aI63
aI2985
aI7
aI3
aI905
aI382
aI1697
aI622
aI14
aI2827
aI27216
aI5
aI53792
aI1687
aI63765
asg6
S'Writing in the Financial Times Italian Jurist Antonio Cassese who was the first President of the International Criminal Tribunal For the Former Yugoslavia argued that critics of the report were relying primarily on ad hominem and strawman attacks .'
p11
ss.