(dp1
S'input'
p2
(dp3
S'encoded'
p4
(lp5
I64
aI2179
aI394
aI117
aI7428
aI21151
aI34
aI11389
aI2042
aI24
aI4364
asS'ori'
p6
S'This house would only teach abstinence for sex education in schools'
p7
ssS'output'
p8
(dp9
g4
(lp10
I952
aI55
aI8117
aI63
aI20123
aI182
aI3666
aI1191
aI100
aI73
aI223
aI3
aI2738
aI7
aI271
aI10953
aI41
aI261
aI41
aI3
aI580
aI7
aI10953
aI24
aI448
aI5
aI63
aI725
aI47
aI4575
aI45
aI952
aI271
aI10953
aI63765
asg6
S'Experience has shown that adolescents are curious about some or all the aspects of their sexuality as well as the nature of sexuality in general  and that many will wish to experience their sexuality .'
p11
ss.