(dp1
S'input'
p2
(dp3
S'encoded'
p4
(lp5
I64
aI2179
aI43
aI63
aI2659
aI417
aI1690
aI3
aI12048
aI7
aI19084
asS'ori'
p6
S'This house believes that Israel should lift the blockade of Gaza'
p7
ssS'output'
p8
(dp9
g4
(lp10
I298
aI51910
aI2164
aI10608
aI10905
aI667
aI9741
aI24
aI42
aI122
aI3619
aI89
aI8921
aI7
aI2639
aI75
aI7700
aI2503
aI260
aI63765
asg6
S'When PAP President Abbas visited New Delhi in 2008 he was offered a credit of US$ 20 million (Rs .900 million) by Indian Federal Government .'
p11
ss.