(dp1
S'input'
p2
(dp3
S'encoded'
p4
(lp5
I64
aI2179
aI43
aI63
aI3
aI28431
aI7
aI2157
aI4624
aI75
aI39939
aI27257
aI122
aI4850
asS'ori'
p6
S'This house believes that the leaking of military documents by Anat Kamm was justified'
p7
ssS'output'
p8
(dp9
g4
(lp10
I3
aI626
aI187
aI116
aI9294
aI14
aI3
aI12149
aI845
aI5
aI2056
aI3
aI626
aI187
aI417
aI9518
aI63765
asg6
S'The United States is overdue on the ISI issue  and now the United States  should answer .'
p11
ss.