(dp1
S'input'
p2
(dp3
S'encoded'
p4
(lp5
I64
aI2179
aI43
aI17
aI4941
aI857
aI3211
asS'ori'
p6
S'This house believes social deprivation causes crime'
p7
ssS'output'
p8
(dp9
g4
(lp10
I24
aI8243
aI263
aI34
aI806
aI2466
aI2997
aI45
aI316
aI717
aI14
aI3
aI1462
aI7
aI857
aI24
aI89
aI570
aI998
aI45
aI2466
aI2997
aI34
aI39436
aI5
aI248
aI7438
aI63765
asg6
S'In 1949  Gordon called for injury prevention efforts to be based on the understanding of causes  in a similar way to prevention efforts for communicable and other diseases  .'
p11
ss.