(dp1
S'input'
p2
(dp3
S'encoded'
p4
(lp5
I64
aI2179
aI43
aI63
aI3376
aI4938
aI417
aI316
aI3537
asS'ori'
p6
S'This house believes that endangered species should be protected'
p7
ssS'output'
p8
(dp9
g4
(lp10
I2643
aI3
aI8049
aI55
aI135
aI45
aI454
aI289
aI2639
aI6956
aI7
aI1413
aI5172
aI6862
aI41
aI261
aI41
aI7787
aI24
aI289
aI7141
aI1795
aI256
aI967
aI3
aI4999
aI63765
asg6
S'Today the Conservancy has expanded to protect over 119 million acres of land  5 000 river miles as well as participating in over 1000 marine protection programs across the globe  .'
p11
ss.