(dp1
S'input'
p2
(dp3
S'encoded'
p4
(lp5
I64
aI2179
aI394
aI190
aI3
aI21
aI45
aI3895
aI834
asS'ori'
p6
S'This house would limit the right to bear arms'
p7
ssS'output'
p8
(dp9
g4
(lp10
I667
aI24
aI3
aI2206
aI182
aI637
aI976
aI34
aI2290
aI75
aI3
aI2157
aI5
aI75
aI3664
aI779
aI158
aI2224
aI70
aI4384
aI182
aI119
aI45
aI3249
aI2144
aI60
aI2503
aI4294
aI504
aI75
aI10
aI5
aI11
aI753
aI177
aI192
aI4423
aI4424
aI2856
aI75
aI4425
aI604
aI7
aI271
aI1353
aI4426
aI63765
asg6
S'New machine-guns in the US are still legal for purchase by the military and by governmental agencies  including civilian law enforcement; pre-1986 registered machine-guns are available to private citizens with federal registration (where permitted by state law)  and have reached high market prices  eagerly sought by collectors because of their relative scarcity .'
p11
ss.