(dp1
S'input'
p2
(dp3
S'encoded'
p4
(lp5
I64
aI2179
aI394
aI2741
aI3
aI1560
aI6025
aI2784
asS'ori'
p6
S'This house would pass the American Jobs Act'
p7
ssS'output'
p8
(dp9
g4
(lp10
I45
aI4823
aI45
aI3
aI8959
aI3
aI1334
aI4676
aI34
aI34001
aI122
aI45
aI3810
aI5
aI836
aI6025
aI49
aI840
aI63765
asg6
S'To respond to the late-2000s recession  the primary objective for ARRA was to save and create jobs almost immediately .'
p11
ss.