(dp1
S'input'
p2
(dp3
S'encoded'
p4
(lp5
I64
aI2179
aI394
aI1499
aI177
aI1819
aI34
aI160
asS'ori'
p6
S'This house would build high rises for housing'
p7
ssS'output'
p8
(dp9
g4
(lp10
I6269
aI1445
aI6646
aI7
aI1413
aI182
aI2993
aI45
aI89
aI1107
aI475
aI5
aI182
aI8486
aI19
aI93
aI97
aI75
aI820
aI1617
aI2667
aI73
aI248
aI12905
aI63765
asg6
S'Consequently  large tracts of land are devoted to a single use and are segregated from one another by open space  infrastructure  or other barriers .'
p11
ss.