(dp1
S'input'
p2
(dp3
S'encoded'
p4
(lp5
I64
aI2179
aI43
aI63
aI6670
aI546
aI417
aI316
aI89
aI1334
aI3108
aI7
aI4849
aI1886
aI2855
asS'ori'
p6
S'This house believes that wind power should be a primary focus of future energy supply'
p7
ssS'output'
p8
(dp9
g4
(lp10
I64
aI116
aI378
aI3006
aI19
aI5545
aI6693
aI2363
aI92
aI753
aI588
aI45
aI47204
aI63765
asg6
S'This is  however  improved from old noise levels  which reached up to 120 dB  .'
p11
ss.