(dp1
S'input'
p2
(dp3
S'encoded'
p4
(lp5
I64
aI2179
aI394
aI5284
aI150
aI3987
asS'ori'
p6
S'This house would reintroduce national service'
p7
ssS'output'
p8
(dp9
g4
(lp10
I366
aI2392
aI2393
aI3
aI27892
aI122
aI1706
aI10139
aI6926
aI3
aI2497
aI7
aI3987
aI45
aI3
aI5102
aI7
aI3
aI2223
aI5
aI1530
aI3131
aI5
aI3584
aI3
aI4294
aI7
aI223
aI1980
aI45
aI2439
aI7
aI3485
aI63765
asg6
S'After Pearl Harbor the STSA was further amended (December 19  1941)  extending the term of service to the duration of the war and six months and requiring the registration of all men 18 to 64 years of age .'
p11
ss.