(dp1
S'input'
p2
(dp3
S'encoded'
p4
(lp5
I64
aI2179
aI394
aI16642
aI1376
aI5269
asS'ori'
p6
S'This house would subsidize poor communities'
p7
ssS'output'
p8
(dp9
g4
(lp10
I64
aI4309
aI45
aI16
aI4925
aI113
aI24
aI5989
aI60
aI1839
aI5969
aI24
aI1441
aI5
aI3717
aI63765
asg6
S'This leads to economic inequality even in societies with perfect equality in abilities and circumstances .'
p11
ss.