(dp1
S'input'
p2
(dp3
S'encoded'
p4
(lp5
I64
aI2179
aI394
aI2773
aI12505
asS'ori'
p6
S'This house would embrace multiculturalism'
p7
ssS'output'
p8
(dp9
g4
(lp10
I759
aI2236
aI7
aI3
aI905
aI5272
aI3
aI234
aI63
aI5317
aI967
aI8175
aI11
aI4155
aI3515
aI3
aI22
aI126
aI736
aI3
aI7106
aI5
aI10579
aI7
aI3162
aI63765
asg6
S"Part II of the report reflected the HLG's view that tensions across cultures have spread beyond the political level into the hearts and minds of populations ."
p11
ss.