(dp1
S'input'
p2
(dp3
S'encoded'
p4
(lp5
I64
aI2179
aI394
aI5370
aI3
aI5286
asS'ori'
p6
S'This house would abolish the monarchy'
p7
ssS'output'
p8
(dp9
g4
(lp10
I24
aI3052
aI53
aI3
aI5301
aI948
aI3250
aI41
aI89
aI6405
aI6832
aI63765
asg6
S'In cases where the monarch serves mostly as a ceremonial figure (e .g .'
p11
ss.