(dp1
S'input'
p2
(dp3
S'encoded'
p4
(lp5
I64
aI2179
aI43
aI63
aI1036
aI4828
aI33250
aI116
aI25073
aI45
aI3315
aI4562
asS'ori'
p6
S'This house believes that male infant circumcision is tantamount to child abuse'
p7
ssS'output'
p8
(dp9
g4
(lp10
I33273
aI187
aI63
aI3
aI33218
aI236
aI3
aI33220
aI378
aI1237
aI2992
aI154
aI63
aI25229
aI7
aI3
aI33220
aI116
aI136
aI279
aI298
aI3
aI33218
aI116
aI713
aI63765
asg6
S'Gairdner (1949) states that the foreskin protects the glans however  several studies find that inflammation of the glans is more common when the foreskin is present  .'
p11
ss.