(dp1
S'input'
p2
(dp3
S'encoded'
p4
(lp5
I64
aI2179
aI43
aI223
aI2138
aI11
aI89
aI21
aI45
aI2185
aI372
asS'ori'
p6
S'This house believes all nations have a right to nuclear weapons'
p7
ssS'output'
p8
(dp9
g4
(lp10
I5963
aI2586
aI8862
aI2952
aI60
aI3
aI626
aI187
aI5
aI3
aI626
aI2549
aI24
aI2927
aI289
aI5500
aI5506
aI211
aI13589
aI256
aI63765
asg6
S'Libya began secret negotiations with the United States and the United Kingdom in March 2003 over potentially eliminating its WMD programs .'
p11
ss.