(dp1
S'input'
p2
(dp3
S'encoded'
p4
(lp5
I64
aI2179
aI43
aI63
aI3357
aI5003
aI652
aI3
aI188
aI3262
asS'ori'
p6
S'This house believes that opinion polls harm the democratic process'
p7
ssS'output'
p8
(dp9
g4
(lp10
I289
aI413
aI89
aI696
aI7
aI6348
aI5
aI9612
aI11
aI12
aI3619
aI45
aI6365
aI10517
aI3721
aI727
aI63765
asg6
S'Over time  a number of theories and mechanisms have been offered to explain erroneous polling results .'
p11
ss.