(dp1
S'input'
p2
(dp3
S'encoded'
p4
(lp5
I64
aI2179
aI394
aI15841
aI2736
asS'ori'
p6
S'This house would disband ASEAN'
p7
ssS'output'
p8
(dp9
g4
(lp10
I2756
aI5964
aI6124
aI5
aI2787
aI11
aI685
aI720
aI5945
aI63765
asg6
S'Indonesia  Malaysia  Singapore and Thailand have established defense industries .'
p11
ss.