(dp1
S'input'
p2
(dp3
S'encoded'
p4
(lp5
I64
aI2179
aI43
aI63
aI2157
aI2565
aI493
aI19084
aI382
aI4850
asS'ori'
p6
S"This house believes that Israel's 2008-2009 military operations against Gaza were justified"
p7
ssS'output'
p8
(dp9
g4
(lp10
I2596
aI6056
aI2446
aI3136
aI25084
aI45
aI3
aI9561
aI7
aI3
aI9359
aI3435
aI89
aI2564
aI3419
aI6466
aI34
aI51
aI31307
aI15972
aI760
aI45
aI316
aI685
aI45
aI9503
aI736
aI223
aI6056
aI202
aI24
aI19084
aI63765
asg6
S'Nine Israeli rights groups reacting to the closure of the investigation issued a joint statement calling for an "independent nonpartisan investigative body to be established to look into all Israeli army activity" in Gaza  .'
p11
ss.