(dp1
S'input'
p2
(dp3
S'encoded'
p4
(lp5
I64
aI2179
aI43
aI63
aI11083
aI10046
aI417
aI316
aI89
aI3135
aI4603
asS'ori'
p6
S'This house believes that Holocaust denial should be a criminal offence'
p7
ssS'output'
p8
(dp9
g4
(lp10
I378
aI18382
aI634
aI45
aI15974
aI63
aI13936
aI5264
aI3819
aI7
aI3
aI1012
aI2424
aI5
aI63
aI6832
aI7
aI1530
aI2639
aI3178
aI4307
aI116
aI1640
aI89
aI6249
aI63765
asg6
S'However  Irving continued to insist that Hitler knew nothing of the death camps  and that "The figure of six million killed Jews is just a symbolic number" .'
p11
ss.