(dp1
S'input'
p2
(dp3
S'encoded'
p4
(lp5
I64
aI2179
aI394
aI2017
aI3807
aI314
aI3433
asS'ori'
p6
S'This house would ban partial birth abortions'
p7
ssS'output'
p8
(dp9
g4
(lp10
I1381
aI246
aI976
aI3
aI4588
aI7
aI3257
aI314
aI708
aI5
aI3315
aI4589
aI89
aI399
aI7
aI122
aI400
aI1729
aI63765
asg6
S'Although generally legal  the morality of abortion  birth control and child abandonment (as a form of infanticide) was sometimes discussed .'
p11
ss.