(dp1
S'input'
p2
(dp3
S'encoded'
p4
(lp5
I64
aI2179
aI43
aI17
aI4941
aI857
aI3211
asS'ori'
p6
S'This house believes social deprivation causes crime'
p7
ssS'output'
p8
(dp9
g4
(lp10
I589
aI1530
aI45
aI6516
aI2900
aI7
aI1036
aI17092
aI5
aI267
aI45
aI2596
aI2900
aI7
aI4015
aI17092
aI11
aI89
aI709
aI7928
aI63765
asg6
S'Around six to sixteen percent of male teens and two to nine percent of female teens have a conduct disorder .'
p11
ss.