(dp1
S'input'
p2
(dp3
S'encoded'
p4
(lp5
I64
aI2179
aI394
aI4325
aI2042
aI270
aI89
aI11605
aI3324
asS'ori'
p6
S'This house would fund education using a voucher scheme'
p7
ssS'output'
p8
(dp9
g4
(lp10
I459
aI11605
aI256
aI3249
aI4364
aI88
aI316
aI1031
aI45
aI4796
aI4358
aI81
aI182
aI5132
aI45
aI7830
aI1021
aI45
aI4604
aI1227
aI73
aI4358
aI81
aI155
aI142
aI394
aI13532
aI3
aI5205
aI3216
aI5
aI833
aI7
aI11605
aI256
aI186
aI63
aI64
aI394
aI4680
aI159
aI4358
aI459
aI89
aI145
aI7
aI1136
aI2733
aI12537
aI63765
asg6
S'Under voucher programs  private schools may be able to reject students who are expensive to educate due to special needs or students who they feel would disrupt the learning environment  and opponents of voucher programs argue that this would leave such students under a system of de facto segregation .'
p11
ss.