(dp1
S'input'
p2
(dp3
S'encoded'
p4
(lp5
I64
aI2179
aI43
aI63
aI134
aI116
aI400
aI21
aI34
aI3
aI260
aI45
aI3439
aI57
aI7
aI2381
asS'ori'
p6
S'This house believes that it is sometimes right for the government to restrict freedom of speech'
p7
ssS'output'
p8
(dp9
g4
(lp10
I3
aI5573
aI7222
aI63
aI3
aI6447
aI7
aI3
aI713
aI3994
aI1636
aI4849
aI3994
aI55
aI12
aI401
aI45
aI24
aI380
aI282
aI9160
aI158
aI3
aI2533
aI34
aI3
aI1795
aI7
aI3
aI285
aI2637
aI5
aI35
aI3910
aI3
aI626
aI2138
aI3278
aI2533
aI14
aI2456
aI1546
aI5
aI3
aI2533
aI14
aI7128
aI2768
aI1136
aI10244
aI3
aI10243
aI2804
aI14
aI3216
aI5
aI2891
aI2333
aI14
aI3216
aI5
aI2891
aI3
aI2532
aI2804
aI5
aI6856
aI7
aI3364
aI2333
aI14
aI2445
aI2446
aI5
aI89
aI696
aI7
aI2800
aI448
aI6293
aI11577
aI4955
aI45
aI3
aI1795
aI7
aI3
aI2148
aI2456
aI34
aI713
aI5
aI4849
aI3994
aI1515
aI691
aI63765
asg6
S'The preamble recalls that the responsibilities of the present generations towards future generations has been referred to in various international instruments  including the Convention for the Protection of the World Cultural and Natural Heritage (UNESCO 1972)  the United Nations Framework Convention on Climate Change and the Convention on Biological Diversity (Rio de Janeiro  1992)  the Rio Declaration on Environment and Development (UN Conference on Environment and Development  1992)  the Vienna Declaration and Programme of Action (World Conference on Human Rights  1993) and a number of UN General Assembly resolutions relating to the protection of the global climate for present and future generations adopted since 1990  .'
p11
ss.