(dp1
S'input'
p2
(dp3
S'encoded'
p4
(lp5
I64
aI2179
aI43
aI63
aI3376
aI4938
aI417
aI316
aI3537
asS'ori'
p6
S'This house believes that endangered species should be protected'
p7
ssS'output'
p8
(dp9
g4
(lp10
I78
aI81
aI3281
aI1102
aI45
aI580
aI139
aI316
aI5966
aI14
aI3
aI3970
aI7
aI223
aI3
aI4938
aI24
aI271
aI3216
aI4527
aI86
aI2146
aI7098
aI45
aI7798
aI4779
aI63765
asg6
S'People who live close to nature can be dependent on the survival of all the species in their environment  leaving them highly exposed to extinction risks .'
p11
ss.