(dp1
S'input'
p2
(dp3
S'encoded'
p4
(lp5
I64
aI2179
aI394
aI117
aI7428
aI21151
aI34
aI11389
aI2042
aI24
aI4364
asS'ori'
p6
S'This house would only teach abstinence for sex education in schools'
p7
ssS'output'
p8
(dp9
g4
(lp10
I226
aI217
aI34616
aI20270
aI521
aI443
aI4368
aI34616
aI98
aI521
aI33298
aI37775
aI5
aI25225
aI5057
aI63765
asg6
S'While most HPV infections cause no disease  HPV does cause genital warts and cervical cancer .'
p11
ss.