(dp1
S'input'
p2
(dp3
S'encoded'
p4
(lp5
I64
aI2179
aI43
aI63
aI134
aI116
aI400
aI21
aI34
aI3
aI260
aI45
aI3439
aI57
aI7
aI2381
asS'ori'
p6
S'This house believes that it is sometimes right for the government to restrict freedom of speech'
p7
ssS'output'
p8
(dp9
g4
(lp10
I134
aI32
aI5069
aI34
aI3052
aI7
aI5404
aI7
aI10933
aI5
aI5332
aI7
aI658
aI2196
aI5
aI2767
aI2860
aI63765
asg6
S'It makes exceptions for cases of statements of truth  and subjects of public debate and religious doctrine .'
p11
ss.