(dp1
S'input'
p2
(dp3
S'encoded'
p4
(lp5
I64
aI2179
aI394
aI2998
aI3
aI4360
aI7
aI3249
aI6804
aI24
aI3
aI102
asS'ori'
p6
S'This house would encourage the creation of private universities in the UK'
p7
ssS'output'
p8
(dp9
g4
(lp10
I3249
aI6804
aI24
aI327
aI1068
aI8890
aI7999
aI75
aI3
aI10
aI63765
asg6
S'Private universities in Germany need institutional accreditation by the state .'
p11
ss.