(dp1
S'input'
p2
(dp3
S'encoded'
p4
(lp5
I64
aI2179
aI394
aI2017
aI223
aI9058
aI23653
asS'ori'
p6
S'This house would ban all unsustainable logging'
p7
ssS'output'
p8
(dp9
g4
(lp10
I64
aI177
aI126
aI7
aI33747
aI153
aI727
aI24
aI1376
aI23638
aI1021
aI45
aI46950
aI7
aI19455
aI8101
aI63765
asg6
S'This high level of precipitation often results in poor soils due to leaching of soluble nutrients .'
p11
ss.