(dp1
S'input'
p2
(dp3
S'encoded'
p4
(lp5
I64
aI2179
aI394
aI16756
aI20435
asS'ori'
p6
S'This house would criminalize blasphemy'
p7
ssS'output'
p8
(dp9
g4
(lp10
I14
aI2394
aI809
aI6880
aI2226
aI1969
aI51
aI820
aI4772
aI45
aI3
aI1405
aI2161
aI15785
aI25
aI752
aI99
aI45
aI820
aI89
aI2819
aI60
aI3
aI282
aI5260
aI63765
asg6
S'On December 20  2005  twenty-two former Danish ambassadors sent an open letter to the prime minister criticizing his decision not to open a dialogue with the international representatives  .'
p11
ss.