(dp1
S'input'
p2
(dp3
S'encoded'
p4
(lp5
I64
aI2179
aI43
aI63
aI187
aI417
aI99
aI16642
aI3
aI6449
aI7
aI3935
asS'ori'
p6
S'This house believes that states should not subsidize the growing of tobacco'
p7
ssS'output'
p8
(dp9
g4
(lp10
I2386
aI2203
aI159
aI41
aI5010
aI5
aI16665
aI440
aI3
aI2810
aI10508
aI7
aI3495
aI81
aI382
aI374
aI1949
aI14832
aI81
aI440
aI14836
aI397
aI271
aI912
aI3271
aI5
aI81
aI2428
aI116
aI122
aI4713
aI34
aI3495
aI45
aI10873
aI63765
asg6
S'Specific countries such as Argentina and Uruguay had the highest percentages of women who were once regular smokers  who had smoked during their current pregnancy and who thought is was acceptable for women to smoke  .'
p11
ss.