(dp1
S'input'
p2
(dp3
S'encoded'
p4
(lp5
I64
aI2179
aI13605
aI2258
aI45
aI2194
asS'ori'
p6
S'This house prefers trade to aid'
p7
ssS'output'
p8
(dp9
g4
(lp10
I3520
aI15505
aI17911
aI2555
aI116
aI51
aI1560
aI8928
aI18097
aI24
aI16
aI2234
aI5
aI2135
aI2194
aI63765
asg6
S'William Russell Easterly (born September 7  1957) is an American economist  specializing in economic growth and foreign aid .'
p11
ss.