(dp1
S'input'
p2
(dp3
S'encoded'
p4
(lp5
I64
aI2179
aI43
aI63
aI3
aI4990
aI4991
aI116
aI4850
aI24
aI12166
aI3
aI475
aI7
aI3532
aI3290
aI7
aI4714
asS'ori'
p6
S'This house believes that the Catholic Church is justified in forbidding the use of barrier methods of contraception'
p7
ssS'output'
p8
(dp9
g4
(lp10
I604
aI159
aI8143
aI182
aI416
aI252
aI13788
aI804
aI155
aI182
aI99
aI4725
aI513
aI4714
aI63765
asg6
S'Because such treatments are used without contraceptive intent  they are not morally considered contraception  .'
p11
ss.