(dp1
S'input'
p2
(dp3
S'encoded'
p4
(lp5
I64
aI2179
aI43
aI63
aI3
aI4538
aI7
aI4434
aI7793
aI283
aI45
aI3586
aI417
aI316
aI577
asS'ori'
p6
S'This house believes that the sale of violent video games to minors should be banned'
p7
ssS'output'
p8
(dp9
g4
(lp10
I641
aI5779
aI809
aI3343
aI452
aI18386
aI116
aI89
aI1201
aI2848
aI5711
aI170
aI5
aI25
aI976
aI3089
aI493
aI4434
aI7793
aI283
aI11
aI12
aI6213
aI6212
aI45
aI25
aI2767
aI3293
aI63765
asg6
S'Notable anti-violent-video-game crusader  former attorney Jack Thompson is a self proclaimed Christian conservative  and his legal actions against violent video games have been intimately linked to his religious views .'
p11
ss.