(dp1
S'input'
p2
(dp3
S'encoded'
p4
(lp5
I64
aI2179
aI43
aI8629
aI116
aI3
aI117
aI998
asS'ori'
p6
S'This house believes atheism is the only way'
p7
ssS'output'
p8
(dp9
g4
(lp10
I131
aI159
aI89
aI285
aI394
aI316
aI93
aI24
aI92
aI1986
aI3089
aI382
aI6278
aI5
aI24
aI92
aI3082
aI57
aI7
aI3
aI47
aI394
aI316
aI12798
aI257
aI3
aI6174
aI382
aI2566
aI864
aI45
aI211
aI8050
aI877
aI3148
aI8470
aI394
aI316
aI6278
aI34
aI3
aI14003
aI829
aI92
aI357
aI475
aI24
aI3659
aI394
aI4898
aI211
aI8791
aI298
aI357
aI3009
aI45
aI16923
aI86
asg6
S'But such a world would be one in which wrong actions were impossible  and in which  therefore  freedom of the will would be void; nay  if the principle were carried out to its logical conclusion  evil thoughts would be impossible  for the cerebral matter which we use in thinking would refuse its task when we attempted to frame them  ."'
p11
ss.