(dp1
S'input'
p2
(dp3
S'encoded'
p4
(lp5
I64
aI2179
aI43
aI63
aI1036
aI4828
aI33250
aI116
aI25073
aI45
aI3315
aI4562
asS'ori'
p6
S'This house believes that male infant circumcision is tantamount to child abuse'
p7
ssS'output'
p8
(dp9
g4
(lp10
I3
aI33250
aI2994
aI55
aI3350
aI1732
aI24
aI1005
aI691
aI3
aI2645
aI45
aI51
aI367
aI24
aI7443
aI60
aI89
aI4370
aI179
aI7
aI120
aI5844
aI2439
aI33242
aI34
aI2439
aI5
aI34
aI120
aI5844
aI2439
aI63765
asg6
S'The circumcision rate has declined sharply in Australia since the 1970s  leading to an age-graded fall in prevalence  with a 20001 survey finding 32% of those aged 1619 years circumcised  50% for 2029 years and 64% for those aged 3039 years  .'
p11
ss.