(dp1
S'input'
p2
(dp3
S'encoded'
p4
(lp5
I64
aI2179
aI394
aI5370
aI3
aI5286
asS'ori'
p6
S'This house would abolish the monarchy'
p7
ssS'output'
p8
(dp9
g4
(lp10
I6654
aI116
aI3
aI685
aI2382
aI24
aI2371
aI226
aI6069
aI6410
aI5
aI2787
aI182
aI223
aI6655
aI2203
aI63765
asg6
S'Shintoism is the established religion in Japan  while Bhutan  Cambodia and Thailand are all Buddhist countries .'
p11
ss.