(dp1
S'input'
p2
(dp3
S'encoded'
p4
(lp5
I64
aI2179
aI394
aI2017
aI223
aI9058
aI23653
asS'ori'
p6
S'This house would ban all unsustainable logging'
p7
ssS'output'
p8
(dp9
g4
(lp10
I23650
aI81
aI3281
aI24
aI2769
aI2770
aI182
aI1365
aI80
aI401
aI45
aI41
aI23652
aI63765
asg6
S'Pygmies who live in Southeast Asia are  amongst others  referred to as Negrito .'
p11
ss.