(dp1
S'input'
p2
(dp3
S'encoded'
p4
(lp5
I64
aI2179
aI394
aI1499
aI177
aI1819
aI34
aI160
asS'ori'
p6
S'This house would build high rises for housing'
p7
ssS'output'
p8
(dp9
g4
(lp10
I14
aI725
aI6338
aI1478
aI2132
aI2472
aI60
aI271
aI4024
aI1377
aI1499
aI5229
aI11
aI35862
aI86
aI63765
asg6
S'On many estates  older council houses  with their largely superior build quality  have outlived them .'
p11
ss.