(dp1
S'input'
p2
(dp3
S'encoded'
p4
(lp5
I64
aI2179
aI394
aI4325
aI2042
aI270
aI89
aI11605
aI3324
asS'ori'
p6
S'This house would fund education using a voucher scheme'
p7
ssS'output'
p8
(dp9
g4
(lp10
I2154
aI2937
aI394
aI3426
aI45
aI3212
aI17
aI2702
aI5653
aI45
aI1478
aI6941
aI226
aI1443
aI2625
aI459
aI45
aI13521
aI864
aI7
aI7787
aI24
aI3
aI2326
aI63765
asg6
S"Paul's 2013 budget proposal would guarantee to uphold Social Security commitments to older workers while allowing Americans under 25 to opt out of participating in the program  ."
p11
ss.