(dp1
S'input'
p2
(dp3
S'encoded'
p4
(lp5
I64
aI2179
aI43
aI8629
aI116
aI3
aI117
aI998
asS'ori'
p6
S'This house believes atheism is the only way'
p7
ssS'output'
p8
(dp9
g4
(lp10
I2763
aI9703
aI18423
aI496
aI187
aI63
aI3
aI2240
aI3402
aI18608
aI63765
asg6
S"Islamic scholar Sherman Jackson states that the Mu'tazila school emphasized God's omnibenevolence ."
p11
ss.