(dp1
S'input'
p2
(dp3
S'encoded'
p4
(lp5
I64
aI2179
aI394
aI5370
aI3
aI5286
asS'ori'
p6
S'This house would abolish the monarchy'
p7
ssS'output'
p8
(dp9
g4
(lp10
I14
aI2779
aI3
aI3
aI5400
aI5113
aI5401
aI480
aI89
aI3713
aI104
aI75
aI5402
aI5005
aI5387
aI3369
aI14
aI3
aI4849
aI7
aI3
aI7
aI3
aI3724
aI382
aI71
aI45
aI2477
aI1546
aI544
aI7
aI4386
aI5403
aI691
aI2031
aI1546
aI505
aI7
aI4386
aI5403
aI691
aI63765
asg6
S'On 29 August 2010 the The Sydney Morning Herald published a poll produced by Neilson  asking multiple questions on the future of the monarchy:48% of the 1400 respondents were opposed to constitutional change (a rise of 8 per cent since 2008)44% supported change (a drop of 8 per cent since 2008) .'
p11
ss.