(dp1
S'input'
p2
(dp3
S'encoded'
p4
(lp5
I64
aI2179
aI43
aI17
aI4941
aI857
aI3211
asS'ori'
p6
S'This house believes social deprivation causes crime'
p7
ssS'output'
p8
(dp9
g4
(lp10
I24
aI2068
aI2439
aI17194
aI2722
aI11
aI12
aI2810
aI24
aI2760
aI2203
aI24
aI2404
aI5
aI3010
aI875
aI5
aI3
aI8738
aI5
aI5006
aI24
aI2087
aI2770
aI3
aI368
aI2403
aI5
aI100
aI2203
aI24
aI4192
aI2404
aI63765
asg6
S'In recent years  homicide rates have been highest in developing countries in Sub-Saharan Africa and Latin America and the Caribbean and lowest in East Asia  the western Pacific  and some countries in northern Africa  .'
p11
ss.