(dp1
S'input'
p2
(dp3
S'encoded'
p4
(lp5
I64
aI2179
aI394
aI2017
aI223
aI9058
aI23653
asS'ori'
p6
S'This house would ban all unsustainable logging'
p7
ssS'output'
p8
(dp9
g4
(lp10
I6740
aI1413
aI34
aI7311
aI73
aI7987
aI116
aI513
aI51
aI1112
aI475
aI7
aI1413
asg6
S'clearing land for crops or fields is considered an effective use of land'
p11
ss.