(dp1
S'input'
p2
(dp3
S'encoded'
p4
(lp5
I64
aI2179
aI394
aI190
aI3
aI21
aI45
aI3895
aI834
asS'ori'
p6
S'This house would limit the right to bear arms'
p7
ssS'output'
p8
(dp9
g4
(lp10
I82
aI2138
aI63
aI3559
aI282
aI834
aI708
aI2361
aI113
aI257
aI176
aI45
aI316
aI6407
aI545
aI3
aI2283
aI7
aI271
aI150
aI6349
aI88
aI154
aI777
aI60
aI89
aI1051
aI7
aI10426
aI73
aI9991
aI2230
aI3892
aI606
aI14
aI86
aI75
aI248
aI2138
aI63765
asg6
S'Likewise  nations that violate international arms control agreements  even if claiming to be acting within the scope of their national sovereignty  may find themselves with a range of penalties or sanctions regarding firearms placed on them by other nations .'
p11
ss.