(dp1
S'input'
p2
(dp3
S'encoded'
p4
(lp5
I64
aI2179
aI394
aI2017
aI3807
aI314
aI3433
asS'ori'
p6
S'This house would ban partial birth abortions'
p7
ssS'output'
p8
(dp9
g4
(lp10
I3
aI3366
aI2134
aI3041
aI19
aI64
aI3713
aI63
aI2900
aI2056
aI3726
aI3
aI2145
aI63765
aI2482
aI2483
aI752
asg6
S'The Harris organization concluded from this poll that "56 percent now favours the U .S . Supreme Court decision ."'
p11
ss.