(dp1
S'input'
p2
(dp3
S'encoded'
p4
(lp5
I64
aI2179
aI394
aI2741
aI3
aI1560
aI6025
aI2784
asS'ori'
p6
S'This house would pass the American Jobs Act'
p7
ssS'output'
p8
(dp9
g4
(lp10
I135
aI4758
aI8921
aI45
aI124
aI89
aI135
aI4262
aI8921
aI34
aI4758
aI10245
aI5
aI3365
aI9062
aI34
aI5
aI63765
asg6
S'$14 billion: Expanded college credit to provide a $2 500 expanded tax credit for college tuition and related expenses for 2009 and 2010 .'
p11
ss.