(dp1
S'input'
p2
(dp3
S'encoded'
p4
(lp5
I64
aI2179
aI43
aI63
aI2659
aI417
aI1690
aI3
aI12048
aI7
aI19084
asS'ori'
p6
S'This house believes that Israel should lift the blockade of Gaza'
p7
ssS'output'
p8
(dp9
g4
(lp10
I100
aI3727
aI5841
aI45
aI12705
aI591
aI2634
aI19
aI7950
aI3
aI11166
aI63765
asg6
S'Some activists tried to physically block troops from reaching the wounded .'
p11
ss.