(dp1
S'input'
p2
(dp3
S'encoded'
p4
(lp5
I64
aI2179
aI394
aI2017
aI3807
aI314
aI3433
asS'ori'
p6
S'This house would ban partial birth abortions'
p7
ssS'output'
p8
(dp9
g4
(lp10
I3
aI21
aI45
aI3269
aI3618
aI2538
aI98
aI99
aI4963
aI3
aI21
aI45
aI475
aI97
aI760
aI5
aI87
aI24
aI16826
aI3
aI16821
aI1198
aI1453
aI99
aI3559
aI25
aI21
aI45
aI3269
aI131
aI3418
aI16543
aI1063
aI7
aI475
aI7
aI828
aI92
aI42
aI55
aI443
aI21
aI63765
asg6
S"The right to life  Thomson says  does not entail the right to use another person's body  and so in disconnecting the violinist you do not violate his right to life but merely deprive him of something&mdash;the use of your body&mdash;to which he has no right ."
p11
ss.