(dp1
S'input'
p2
(dp3
S'encoded'
p4
(lp5
I64
aI2179
aI43
aI223
aI2138
aI11
aI89
aI21
aI45
aI2185
aI372
asS'ori'
p6
S'This house believes all nations have a right to nuclear weapons'
p7
ssS'output'
p8
(dp9
g4
(lp10
I3
aI5433
aI34
aI89
aI3854
aI12098
aI122
aI1729
aI311
aI3
aI413
aI63765
asg6
S'The option for a fifth submarine was discussed at the time .'
p11
ss.