(dp1
S'input'
p2
(dp3
S'encoded'
p4
(lp5
I64
aI2179
aI394
aI16642
aI1376
aI5269
asS'ori'
p6
S'This house would subsidize poor communities'
p7
ssS'output'
p8
(dp9
g4
(lp10
I604
aI89
aI3315
aI116
aI5966
aI14
aI25
aI73
aI732
aI257
aI89
aI4689
aI116
aI24
aI130
aI768
aI155
aI47
aI316
aI174
aI63765
asg6
S"Because a child is dependent on his or her guardian(s)  if a child's guardian is in poverty  then they will be also ."
p11
ss.