(dp1
S'input'
p2
(dp3
S'encoded'
p4
(lp5
I64
aI2179
aI43
aI223
aI2138
aI11
aI89
aI21
aI45
aI2185
aI372
asS'ori'
p6
S'This house believes all nations have a right to nuclear weapons'
p7
ssS'output'
p8
(dp9
g4
(lp10
I38475
aI382
aI237
aI123
aI75
aI3
aI626
aI187
aI24
aI128
aI45
aI38476
aI943
aI2950
aI2938
aI589
aI11154
aI63765
asg6
S'MIRVs were first created by the United States in order to counterbalance Soviet anti-ballistic missile systems around Moscow .'
p11
ss.