(dp1
S'input'
p2
(dp3
S'encoded'
p4
(lp5
I64
aI2179
aI43
aI63
aI3
aI21
aI45
aI12715
aI417
aI99
aI316
aI2897
asS'ori'
p6
S'This house believes that the right to asylum should not be absolute'
p7
ssS'output'
p8
(dp9
g4
(lp10
I273
aI382
aI2278
aI2565
aI45
aI991
aI19877
aI311
aI8777
aI3079
aI53
aI8824
aI1306
aI3017
aI89
aI7196
aI131
aI3
aI2471
aI7
aI64
aI79
aI122
aI3714
aI311
aI6811
aI7259
aI311
aI3
aI28410
aI7
aI22772
aI40730
aI81
aI401
aI5139
aI34
aI1706
aI4305
aI63765
asg6
S'There were occasional operations to stop marriages at Registry Offices where firm intelligence suggested a fraud but the majority of this work was conducted at residential addresses at the behest of IND caseworkers who referred applications for further checks .'
p11
ss.