(dp1
S'input'
p2
(dp3
S'encoded'
p4
(lp5
I64
aI2179
aI43
aI223
aI2138
aI11
aI89
aI21
aI45
aI2185
aI372
asS'ori'
p6
S'This house believes all nations have a right to nuclear weapons'
p7
ssS'output'
p8
(dp9
g4
(lp10
I47437
aI7093
aI2992
aI7
aI211
aI284
aI131
aI134
aI174
aI4985
aI2992
aI3589
aI34
aI3
aI285
aI3217
aI7210
aI34
aI3
aI282
aI1886
aI2904
aI5
aI75
aI4750
aI4741
aI63765
asg6
S'NEI sponsors studies of its own  but it also references studies performed for the World Health Organisation  for the International Energy Agency  and by university researchers  .'
p11
ss.