(dp1
S'input'
p2
(dp3
S'encoded'
p4
(lp5
I64
aI2179
aI394
aI2998
aI3
aI4360
aI7
aI3249
aI6804
aI24
aI3
aI102
asS'ori'
p6
S'This house would encourage the creation of private universities in the UK'
p7
ssS'output'
p8
(dp9
g4
(lp10
I24
aI5631
aI5207
aI2825
aI83
aI316
aI17201
aI75
aI3
aI2696
aI45
aI118
aI3351
aI5018
aI1603
aI63765
asg6
S'In Austria  educational institutions must be authorised by the country to legally grant academic degrees .'
p11
ss.