(dp1
S'input'
p2
(dp3
S'encoded'
p4
(lp5
I64
aI2179
aI394
aI10662
aI626
aI187
aI2157
aI2697
aI19
aI2371
asS'ori'
p6
S'This house would remove United States military bases from Japan'
p7
ssS'output'
p8
(dp9
g4
(lp10
I3
aI2692
aI720
aI2154
aI10313
aI2155
aI34
aI203
aI5136
aI2155
aI34
aI55357
aI2155
aI34
aI12623
aI2639
aI34
aI477
aI23296
aI34
aI89
aI697
aI7
aI2155
aI63765
asg6
S'The 2008 Japanese defense budget allocated 146 .3 billion for labor costs  36 .2 billion for FIP  25 .3 billion for utilities  500 million for training relocation  for a total of 208 .3 billion .'
p11
ss.