(dp1
S'input'
p2
(dp3
S'encoded'
p4
(lp5
I64
aI2179
aI394
aI3830
aI3
aI475
aI7
aI9441
aI13132
aI3102
aI24
aI276
aI381
asS'ori'
p6
S'This house would permit the use of performance enhancing drugs in professional sports'
p7
ssS'output'
p8
(dp9
g4
(lp10
I3
aI1334
aI11271
aI19474
aI88
aI316
aI6928
aI34
aI588
aI45
aI873
aI366
aI3
aI1447
aI475
aI853
aI14
aI3
aI2386
aI7865
aI11945
aI5
aI6031
aI7
aI4445
aI63765
asg6
S'The primary urinary metabolites may be detectable for up to 30 days after the last use  depending on the specific agent  dose and route of administration .'
p11
ss.