(dp1
S'input'
p2
(dp3
S'encoded'
p4
(lp5
I64
aI2179
aI394
aI2017
aI223
aI9058
aI23653
asS'ori'
p6
S'This house would ban all unsustainable logging'
p7
ssS'output'
p8
(dp9
g4
(lp10
I99
aI7559
aI282
aI2194
aI779
aI417
aI174
aI6372
aI89
aI2759
aI2210
aI24
aI6806
aI8254
aI6801
aI63765
asg6
S'Not surprisingly international aid agencies should also play a prominent role in sustainable forest management .'
p11
ss.