(dp1
S'input'
p2
(dp3
S'encoded'
p4
(lp5
I64
aI2179
aI43
aI24
aI3
aI475
aI7
aI12436
aI3364
asS'ori'
p6
S'This house believes in the use of affirmative action'
p7
ssS'output'
p8
(dp9
g4
(lp10
I134
aI1501
aI249
aI159
aI41
aI7517
aI5981
aI950
aI2891
aI3930
aI6801
aI5051
aI2891
aI5
aI12174
aI16142
aI63765
asg6
S'It includes measures such as Employment Equity  skills development  ownership  management  socioeconomic development and preferential procurement .'
p11
ss.