(dp1
S'input'
p2
(dp3
S'encoded'
p4
(lp5
I64
aI2179
aI394
aI16756
aI20435
asS'ori'
p6
S'This house would criminalize blasphemy'
p7
ssS'output'
p8
(dp9
g4
(lp10
I2661
aI263
aI34
aI89
aI1593
aI7
aI3
aI4035
aI311
aI3
aI1608
aI7210
aI7
aI3
aI2763
aI2333
aI2712
aI63765
asg6
S'Pakistan called for a discussion of the film at the next Organisation of the Islamic Conference (OIC) summit  .'
p11
ss.