(dp1
S'input'
p2
(dp3
S'encoded'
p4
(lp5
I64
aI2179
aI43
aI63
aI7382
aI116
aI400
aI4713
asS'ori'
p6
S'This house believes that bribery is sometimes acceptable'
p7
ssS'output'
p8
(dp9
g4
(lp10
I29452
aI5
aI2663
aI7
aI7382
aI182
aI82
aI1872
aI1381
aI29452
aI11
aI93
aI279
aI15598
aI5
aI63
aI116
aI3
aI2351
aI710
aI45
aI18324
aI63765
asg6
S'Bribers and recipients of bribery are likewise numerous although bribers have one common denominator and that is the financial ability to bribe .'
p11
ss.