(dp1
S'input'
p2
(dp3
S'encoded'
p4
(lp5
I64
aI2179
aI43
aI63
aI6670
aI546
aI417
aI316
aI89
aI1334
aI3108
aI7
aI4849
aI1886
aI2855
asS'ori'
p6
S'This house believes that wind power should be a primary focus of future energy supply'
p7
ssS'output'
p8
(dp9
g4
(lp10
I3
aI1347
aI7
aI229
aI2203
aI5
aI3
aI2096
aI63
aI1852
aI6796
aI463
aI316
aI753
aI4534
aI9467
aI138
aI75
aI351
aI2487
aI891
aI736
aI2952
aI291
aI2503
aI5
aI10
aI220
aI45
aI89
aI667
aI4534
aI14137
aI2881
aI2784
aI24
aI10051
aI63765
asg6
S'The pressure of individual countries and the idea that desired objectives could be reached nationwide cheaper than by any nation-state alone resulted into negotiations between federal and state governments to a new nationwide Green Electricity Act 2002 (Okostromgesetz 2002) in spring 2002 .'
p11
ss.