(dp1
S'input'
p2
(dp3
S'encoded'
p4
(lp5
I64
aI2179
aI394
aI2741
aI3
aI1560
aI6025
aI2784
asS'ori'
p6
S'This house would pass the American Jobs Act'
p7
ssS'output'
p8
(dp9
g4
(lp10
I70
aI3353
aI2211
aI2155
aI24
aI2397
aI45
aI10
aI5
aI2083
aI70
aI3353
aI45
aI6641
aI3243
aI5
aI2290
aI1498
aI63765
asg6
S'Law enforcement Senate  $3 .5 billion in grants to state and local law enforcement to hire officers and purchase equipment .'
p11
ss.