(dp1
S'input'
p2
(dp3
S'encoded'
p4
(lp5
I64
aI2179
aI43
aI63
aI2157
aI2565
aI493
aI19084
aI382
aI4850
asS'ori'
p6
S"This house believes that Israel's 2008-2009 military operations against Gaza were justified"
p7
ssS'output'
p8
(dp9
g4
(lp10
I6426
aI2789
aI7
aI4679
aI4001
aI89
aI5478
aI10848
aI7
aI3
aI6056
aI43040
aI5726
aI24
aI17790
aI63
aI2390
aI47
aI4406
aI7322
aI3
aI19389
aI905
aI311
aI3
aI2800
aI2702
aI2132
aI5
aI1443
aI3
aI11558
aI45
aI2830
aI41
aI89
aI2259
aI34
aI70
aI9511
aI493
aI2659
aI311
aI3
aI282
aI3135
aI2483
aI24
aI3
aI19407
aI63765
asg6
S'" Chinese members of parliament told a visiting delegation of the Israeli Parlament officials in Beijing that China will oppose discussing the Goldstone Commission\'s report at the UN Security Council and allowing the document to serve as a basis for law suits against Israel at the International Criminal Court in the Hague .'
p11
ss.