(dp1
S'input'
p2
(dp3
S'encoded'
p4
(lp5
I64
aI2179
aI43
aI63
aI1036
aI4828
aI33250
aI116
aI25073
aI45
aI3315
aI4562
asS'ori'
p6
S'This house believes that male infant circumcision is tantamount to child abuse'
p7
ssS'output'
p8
(dp9
g4
(lp10
I1381
aI134
aI116
aI330
aI45
aI1358
aI1420
aI33250
aI2722
aI93
aI6829
aI7
aI4828
aI33250
aI2722
aI24
aI3
aI626
aI187
aI835
aI63
aI7
aI21705
aI1560
aI5716
aI382
aI773
aI33242
aI24
aI63765
asg6
S'Although it is difficult to determine historical circumcision rates  one estimate of infant circumcision rates in the United States holds that 32% of newborn American boys were being circumcised in 1933  .'
p11
ss.