(dp1
S'input'
p2
(dp3
S'encoded'
p4
(lp5
I64
aI2179
aI43
aI63
aI3376
aI4938
aI417
aI316
aI3537
asS'ori'
p6
S'This house believes that endangered species should be protected'
p7
ssS'output'
p8
(dp9
g4
(lp10
I136
aI4791
aI4066
aI5269
aI2931
aI45
aI316
aI136
aI15438
aI1809
aI7
aI5095
aI138
aI182
aI149
aI4066
aI5269
aI5
aI155
aI2931
aI45
aI316
aI136
aI1163
aI24
aI3
aI619
aI7
aI12653
aI63765
asg6
S'More biologically diverse communities appear to be more productive (in terms of biomass production) than are less diverse communities  and they appear to be more stable in the face of perturbations .'
p11
ss.