(dp1
S'input'
p2
(dp3
S'encoded'
p4
(lp5
I64
aI2179
aI13605
aI2258
aI45
aI2194
asS'ori'
p6
S'This house prefers trade to aid'
p7
ssS'output'
p8
(dp9
g4
(lp10
I34
aI1343
aI1005
aI51
aI516
aI116
aI2162
aI24
aI1005
aI34
aI3
aI5084
aI7
aI3235
aI1609
aI3
aI11130
aI7
aI217
aI1488
aI2930
aI45
aI3
aI2206
aI16415
aI63765
asg6
S'For example  Australia - an additional $9AUD is charged in Australia for the cost of compliance making the posting of most small items to the US uneconomical  .'
p11
ss.