(dp1
S'input'
p2
(dp3
S'encoded'
p4
(lp5
I64
aI2179
aI394
aI475
aI2135
aI2194
aI6198
aI45
aI2041
aI5
aI13926
aI8732
aI63
aI1735
aI12708
aI5
aI5599
aI24
aI2203
aI45
aI1397
aI7149
aI5
aI12311
aI271
aI5119
aI4948
asS'ori'
p6
S'This house would use foreign aid funds to research and distribute software that allows bloggers and journalists in non-democratic countries to evade censorship and conceal their online activities'
p7
ssS'output'
p8
(dp9
g4
(lp10
I357
aI2056
aI11
aI100
aI350
aI63
aI63
aI4936
aI116
aI3166
aI63
aI1517
aI182
aI99
aI270
aI3
aI6030
aI18301
aI5
aI63
aI24314
aI2203
aI182
aI1252
aI6030
aI18301
aI63765
asg6
S'We now have some evidence that that assumption is false (both that users are not using the simple proxies and that filtering countries are blocking simple proxies quickly) .'
p11
ss.