(dp1
S'input'
p2
(dp3
S'encoded'
p4
(lp5
I64
aI2179
aI394
aI2741
aI3
aI1560
aI6025
aI2784
asS'ori'
p6
S'This house would pass the American Jobs Act'
p7
ssS'output'
p8
(dp9
g4
(lp10
I34
aI15926
aI9343
aI150
aI5389
aI73
aI150
aI8093
aI19
aI7517
aI3079
aI182
aI416
aI24
aI5147
aI60
aI23323
aI3073
aI63765
asg6
S'For monthly calculations  national surveys or national registers from employment offices are used in conjunction with quarterly EU-LFS data .'
p11
ss.