(dp1
S'input'
p2
(dp3
S'encoded'
p4
(lp5
I64
aI2179
aI43
aI63
aI134
aI116
aI400
aI21
aI34
aI3
aI260
aI45
aI3439
aI57
aI7
aI2381
asS'ori'
p6
S'This house believes that it is sometimes right for the government to restrict freedom of speech'
p7
ssS'output'
p8
(dp9
g4
(lp10
I34
aI282
aI7509
aI675
aI120
aI3818
aI75
aI368
aI2131
aI5
aI32928
aI64
aI4256
aI7250
aI634
aI366
aI3
aI2285
aI382
aI289
aI63765
asg6
S'For international communications  like those done by Western Union and ITT  this mass surveillance continued after the wars were over .'
p11
ss.