(dp1
S'input'
p2
(dp3
S'encoded'
p4
(lp5
I64
aI2179
aI394
aI2017
aI628
asS'ori'
p6
S'This house would ban gambling'
p7
ssS'output'
p8
(dp9
g4
(lp10
I958
aI3
aI7778
aI7779
aI116
aI2195
aI45
aI7776
aI112
aI4262
aI4902
aI63765
asg6
S'Rather  the lump sum is subject to ordinary income tax treatment .'
p11
ss.