(dp1
S'input'
p2
(dp3
S'encoded'
p4
(lp5
I64
aI2179
aI394
aI3830
aI3
aI475
aI7
aI9441
aI13132
aI3102
aI24
aI276
aI381
asS'ori'
p6
S'This house would permit the use of performance enhancing drugs in professional sports'
p7
ssS'output'
p8
(dp9
g4
(lp10
I3
aI13456
aI905
aI20774
aI63
aI63679
aI2385
aI12015
aI3102
aI158
aI12269
aI12309
aI5
aI2445
aI2234
aI12270
aI34
aI100
aI73
aI223
aI7
aI3
aI12338
aI42
aI900
aI5717
aI63765
asg6
S'The Mitchell Report alleges that McNamee helped acquire performance-enhancing drugs including steroids  amphetamines  and human growth hormone for some or all of the players he personally trained .'
p11
ss.