(dp1
S'input'
p2
(dp3
S'encoded'
p4
(lp5
I64
aI2179
aI43
aI63
aI2157
aI2565
aI493
aI19084
aI382
aI4850
asS'ori'
p6
S"This house believes that Israel's 2008-2009 military operations against Gaza were justified"
p7
ssS'output'
p8
(dp9
g4
(lp10
I3
aI7
aI3
aI6048
aI2344
aI29722
aI29723
aI3531
aI3419
aI5
aI1706
aI3531
aI3
aI2702
aI2132
aI34
aI99
aI7840
aI1050
aI45
aI3
aI2979
aI63765
asg6
S"The Secretary-general of the Arab League  Amr Moussa  criticized Livni's statement and further criticized the Security Council for not responding faster to the crisis  ."
p11
ss.