(dp1
S'input'
p2
(dp3
S'encoded'
p4
(lp5
I64
aI2179
aI394
aI5370
aI3
aI5286
asS'ori'
p6
S'This house would abolish the monarchy'
p7
ssS'output'
p8
(dp9
g4
(lp10
I24932
aI41008
aI5672
aI7
aI2087
aI6112
aI41009
aI63765
asg6
S'|- Hang Limbu King of East Nepal Limbuwan .'
p11
ss.