(dp1
S'input'
p2
(dp3
S'encoded'
p4
(lp5
I64
aI2179
aI43
aI63
aI2659
aI417
aI1690
aI3
aI12048
aI7
aI19084
asS'ori'
p6
S'This house believes that Israel should lift the blockade of Gaza'
p7
ssS'output'
p8
(dp9
g4
(lp10
I89
aI11276
aI7
aI6056
aI19186
aI2348
aI19187
aI24848
aI7624
aI3
aI2414
aI19
aI8715
aI60
aI24849
aI1374
aI10381
aI11199
aI4251
aI7814
aI4318
aI5
aI11006
aI3892
aI63765
asg6
S'A team of 15 Israeli Shayetet 13 naval commandos abseiled onto the ships from helicopters with paintball guns  plastic bullet riot dispersal handguns  and hidden firearms .'
p11
ss.