(dp1
S'input'
p2
(dp3
S'encoded'
p4
(lp5
I64
aI2179
aI394
aI475
aI2135
aI2194
aI6198
aI45
aI2041
aI5
aI13926
aI8732
aI63
aI1735
aI12708
aI5
aI5599
aI24
aI2203
aI45
aI1397
aI7149
aI5
aI12311
aI271
aI5119
aI4948
asS'ori'
p6
S'This house would use foreign aid funds to research and distribute software that allows bloggers and journalists in non-democratic countries to evade censorship and conceal their online activities'
p7
ssS'output'
p8
(dp9
g4
(lp10
I24
aI725
aI778
aI7253
aI7372
aI7151
aI116
aI89
aI2034
aI3211
aI324
aI7151
aI63
aI116
aI513
aI3315
aI7230
aI89
aI2731
aI45
aI150
aI2702
aI73
aI51
aI18436
aI7
aI2617
aI63765
asg6
S'In many jurisdictions accessing blocked content is a serious crime  particularly content that is considered child pornography  a threat to national security  or an incitement of violence .'
p11
ss.