(dp1
S'input'
p2
(dp3
S'encoded'
p4
(lp5
I64
aI2179
aI394
aI5284
aI150
aI3987
asS'ori'
p6
S'This house would reintroduce national service'
p7
ssS'output'
p8
(dp9
g4
(lp10
I1793
aI8907
aI24
aI5685
aI2158
aI19
aI259
aI3
aI5262
asg6
S'considerable savings in defence spending from abolishing the draft'
p11
ss.