(dp1
S'input'
p2
(dp3
S'encoded'
p4
(lp5
I64
aI2179
aI394
aI2773
aI12505
asS'ori'
p6
S'This house would embrace multiculturalism'
p7
ssS'output'
p8
(dp9
g4
(lp10
I64
aI28362
aI2496
aI98
aI99
aI1619
aI5
aI14022
aI89
aI157
aI7
aI3398
aI34
aI2812
aI73
aI150
aI94
aI6090
aI63765
asg6
S'This functionalist interpretation does not require genetic-relatedness  and identifies a variety of reasons for ethnic or national group formation  .'
p11
ss.