(dp1
S'input'
p2
(dp3
S'encoded'
p4
(lp5
I64
aI2179
aI43
aI63
aI3
aI21
aI45
aI12715
aI417
aI99
aI316
aI2897
asS'ori'
p6
S'This house believes that the right to asylum should not be absolute'
p7
ssS'output'
p8
(dp9
g4
(lp10
I3048
aI5805
aI7
aI5806
aI7
aI7477
aI5
aI809
aI7477
aI32255
aI24
aI368
aI2203
aI6847
aI11
aI7071
aI7928
aI63765
asg6
S'Worldwide  tens of thousands of refugees and former refugees resettled in Western countries probably have post-traumatic stress disorder  .'
p11
ss.