(dp1
S'input'
p2
(dp3
S'encoded'
p4
(lp5
I64
aI2179
aI43
aI8629
aI116
aI3
aI117
aI998
asS'ori'
p6
S'This house believes atheism is the only way'
p7
ssS'output'
p8
(dp9
g4
(lp10
I675
aI3
aI6535
aI7
aI1228
aI32123
aI174
aI5810
aI3
aI6535
aI7
aI10933
aI5
aI7
aI18899
aI382
aI2160
aI45
aI3
aI1597
aI7
aI5480
aI24
aI63
aI155
aI382
aI2747
aI7
aI2747
aI63765
asg6
S'Like the ideal of Good  Cousin also believed the ideal of Truth and of Beauty were analogous to the position of God  in that they were principles of principles .'
p11
ss.