(dp1
S'input'
p2
(dp3
S'encoded'
p4
(lp5
I64
aI2179
aI235
aI3
aI2136
aI7
aI3
aI2306
aI7
aI2390
asS'ori'
p6
S'This house supports the one-child policy of the republic of China'
p7
ssS'output'
p8
(dp9
g4
(lp10
I3
aI7074
aI122
aI5486
aI7475
aI270
aI6198
aI19
aI38629
aI2639
aI3
aI28786
aI3565
aI5
aI395
aI3
aI626
aI2138
aI2598
aI4325
aI63765
asg6
S'The plan was principally financed using funds from USAID (36 million dollars)  the Nippon Foundation  and later  the United Nations Population Fund (UNFPA)  .'
p11
ss.