(dp1
S'input'
p2
(dp3
S'encoded'
p4
(lp5
I64
aI2179
aI43
aI8629
aI116
aI3
aI117
aI998
asS'ori'
p6
S'This house believes atheism is the only way'
p7
ssS'output'
p8
(dp9
g4
(lp10
I24
aI3
aI1643
aI845
aI12540
aI27285
aI25296
aI14
aI5
aI60962
aI2035
aI63765
asg6
S"In the same issue  Gary Jensen builds on and refines Paul's study  ."
p11
ss.