(dp1
S'input'
p2
(dp3
S'encoded'
p4
(lp5
I64
aI2179
aI43
aI223
aI2138
aI11
aI89
aI21
aI45
aI2185
aI372
asS'ori'
p6
S'This house believes all nations have a right to nuclear weapons'
p7
ssS'output'
p8
(dp9
g4
(lp10
I3
aI296
aI394
aI316
aI89
aI4256
aI63
aI298
aI11782
aI60
aI11716
aI394
aI5877
aI11682
aI311
aI89
aI1691
aI2994
aI5
aI836
aI3
aI1852
aI9325
aI63765
asg6
S'The result would be a super-critical mass that  when bombarded with neutrons  would undergo fission at a rapid rate and create the desired explosion .'
p11
ss.