(dp1
S'input'
p2
(dp3
S'encoded'
p4
(lp5
I64
aI2179
aI235
aI3
aI2136
aI7
aI3
aI2306
aI7
aI2390
asS'ori'
p6
S'This house supports the one-child policy of the republic of China'
p7
ssS'output'
p8
(dp9
g4
(lp10
I508
aI226
aI100
aI7
aI132
aI2446
aI11
aI1719
aI12
aI689
aI24
aI1273
aI70
aI63
aI116
aI24
aI118
aI2473
aI282
aI2445
aI2446
aI9160
aI80
aI11
aI12
aI2174
aI117
aI24
aI16203
aI2473
aI5572
aI5
aI3082
aI11
aI311
aI1059
aI3
aI2554
aI7
aI1473
aI70
aI24
aI282
aI70
aI226
aI89
aI1706
aI94
aI116
aI3503
aI45
aI316
aI1348
aI75
aI3
aI282
aI2178
aI5
aI3082
aI937
aI311
aI3
aI126
aI7
aI6442
aI63765
asg6
S'Thus  while some of these rights have already been recognized in hard law  that is  in legally binding international human rights instruments  others have been mentioned only in non binding recommendations and  therefore  have at best the status of soft law in international law  while a further group is yet to be accepted by the international community and therefore remains at the level of advocacy  .'
p11
ss.