(dp1
S'input'
p2
(dp3
S'encoded'
p4
(lp5
I64
aI2179
aI43
aI63
aI3
aI4538
aI7
aI4434
aI7793
aI283
aI45
aI3586
aI417
aI316
aI577
asS'ori'
p6
S'This house believes that the sale of violent video games to minors should be banned'
p7
ssS'output'
p8
(dp9
g4
(lp10
I319
aI12338
aI394
aI162
aI2772
aI7147
aI27547
aI45
aI6372
aI29317
aI604
aI78
aI463
aI475
aI1796
aI11663
aI60
aI1050
aI7147
aI4747
aI2449
aI45
aI3
aI11663
aI155
aI4443
aI63765
asg6
S'Game players would usually visit internet cafes to play StarCraft because people could use better computers with faster internet connections compared to the computers they owned .'
p11
ss.