(dp1
S'input'
p2
(dp3
S'encoded'
p4
(lp5
I64
aI2179
aI394
aI2017
aI223
aI9058
aI23653
asS'ori'
p6
S'This house would ban all unsustainable logging'
p7
ssS'output'
p8
(dp9
g4
(lp10
I1890
aI3
aI1854
aI7
aI137
aI52
aI14
aI3010
aI123
aI3
aI3497
aI34
aI3
aI28396
aI7
aI1334
aI2885
aI92
aI451
aI3
aI1068
aI34
aI1445
aI1183
aI7
aI8088
aI7408
aI1413
aI45
aI3051
aI120
aI2885
aI63765
asg6
S'Eventually  the forcing of "Europe\'s money economy on Latin America" created the demand for the exportation of primary products  which introduced the need for large amounts of cleared agricultural land to produce those products  .'
p11
ss.