(dp1
S'input'
p2
(dp3
S'encoded'
p4
(lp5
I64
aI2179
aI394
aI2017
aI223
aI9058
aI23653
asS'ori'
p6
S'This house would ban all unsustainable logging'
p7
ssS'output'
p8
(dp9
g4
(lp10
I588
aI45
aI7
aI3912
aI5681
aI18865
aI11
aI365
aI691
aI63765
asg6
S"Up to 90% of West Africa's coastal rainforests have disappeared since 1900  ."
p11
ss.