(dp1
S'input'
p2
(dp3
S'encoded'
p4
(lp5
I64
aI2179
aI43
aI223
aI2138
aI11
aI89
aI21
aI45
aI2185
aI372
asS'ori'
p6
S'This house believes all nations have a right to nuclear weapons'
p7
ssS'output'
p8
(dp9
g4
(lp10
I3
aI27120
aI948
aI41
aI51
aI15647
aI3795
aI34
aI3863
aI5
aI1022
aI2568
aI24
aI3
aI2468
aI475
aI7
aI2185
aI2186
aI5
aI2185
aI546
aI3048
aI63765
asg6
S'The IAEA serves as an intergovernmental forum for scientific and technical cooperation in the peaceful use of nuclear technology and nuclear power worldwide .'
p11
ss.