(dp1
S'input'
p2
(dp3
S'encoded'
p4
(lp5
I64
aI2179
aI43
aI63
aI3
aI21
aI45
aI12715
aI417
aI99
aI316
aI2897
asS'ori'
p6
S'This house believes that the right to asylum should not be absolute'
p7
ssS'output'
p8
(dp9
g4
(lp10
I3
aI667
aI2186
aI394
aI316
aI416
aI45
aI1071
aI620
aI9983
aI18239
aI87
aI63
aI2635
aI382
aI1796
aI9274
aI311
aI120
aI136
aI1856
aI45
aI713
aI89
aI3661
aI63765
asg6
S'The new technology would be used  to speed through frequent travellers so that resources were better targeted at those more likely to present a problem .'
p11
ss.