(dp1
S'input'
p2
(dp3
S'encoded'
p4
(lp5
I64
aI2179
aI394
aI163
aI959
aI2042
aI3557
asS'ori'
p6
S'This house would make physical education compulsory'
p7
ssS'output'
p8
(dp9
g4
(lp10
I7
aI8532
aI2428
aI63
aI271
aI2240
aI122
aI99
aI5204
aI86
aI868
aI1191
aI8544
aI16329
aI5
aI289
aI2428
aI63
aI8544
aI16329
aI122
aI3
aI2715
aI2038
aI45
aI271
aI572
aI2497
aI3217
aI63765
asg6
S"35% of parents thought that their child's school was not teaching them enough about childhood obesity  and over 5% thought that childhood obesity was the greatest risk to their child's long term health  ."
p11
ss.