(dp1
S'input'
p2
(dp3
S'encoded'
p4
(lp5
I64
aI2179
aI394
aI1499
aI3
aI8115
aI34564
aI17106
asS'ori'
p6
S'This house would build the Keystone XL pipeline'
p7
ssS'output'
p8
(dp9
g4
(lp10
I14
aI1906
aI42305
aI2173
aI155
aI11
aI13850
aI60
aI3
aI2145
aI63765
aI2176
aI7
aI10
aI5
aI47
aI11
aI22251
aI45
aI8377
aI1608
aI12970
aI63765
asg6
S'On November 10  2011  TransCanada stated they have spoken with the U .S . Department of State and will have conversations to discuss next steps .'
p11
ss.