(dp1
S'input'
p2
(dp3
S'encoded'
p4
(lp5
I64
aI2179
aI43
aI63
aI2659
aI417
aI1690
aI3
aI12048
aI7
aI19084
asS'ori'
p6
S'This house believes that Israel should lift the blockade of Gaza'
p7
ssS'output'
p8
(dp9
g4
(lp10
I3
aI960
aI45
aI3
aI2224
aI2598
aI116
aI99
aI7045
aI24
aI4645
aI45
aI3
aI212
aI5
aI839
aI2157
aI502
aI5838
aI19
aI3
aI12048
asg6
S'the damage to the civilian population is not excessive in relation to the real and direct military advantage anticipated from the blockade'
p11
ss.