(dp1
S'input'
p2
(dp3
S'encoded'
p4
(lp5
I64
aI2179
aI43
aI63
aI3
aI28431
aI7
aI2157
aI4624
aI75
aI39939
aI27257
aI122
aI4850
asS'ori'
p6
S'This house believes that the leaking of military documents by Anat Kamm was justified'
p7
ssS'output'
p8
(dp9
g4
(lp10
I3
aI2533
aI233
aI45
aI20385
aI17784
aI3
aI2206
aI19
aI1646
aI289
aI8804
aI45
aI3
aI10471
aI260
aI257
aI1864
aI87
aI7367
aI155
aI876
aI316
aI10103
aI45
aI8798
aI63765
asg6
S'" The Convention  according to Nowak  forbids the US from turning over detainees to the Iraqi government  if doing so meant they might be subjected to torture  .'
p11
ss.