(dp1
S'input'
p2
(dp3
S'encoded'
p4
(lp5
I64
aI2179
aI43
aI63
aI188
aI220
aI417
aI1619
aI4275
aI45
aI713
aI14799
aI7533
aI311
aI3
aI3721
aI5145
asS'ori'
p6
S'This house believes that democratic governments should require voters to present photo identification at the polling station'
p7
ssS'output'
p8
(dp9
g4
(lp10
I2503
aI3368
aI2483
aI6021
aI3
aI15890
aI7
aI4275
aI6161
aI23919
aI19
aI3
aI7532
aI16244
aI75
aI3
aI63765
asg6
S'"A Federal Appeals court ordered the reinstatement of 5 500 voters wrongly purged from the voter rolls by the State:  .'
p11
ss.