(dp1
S'input'
p2
(dp3
S'encoded'
p4
(lp5
I64
aI2179
aI43
aI24
aI3
aI475
aI7
aI12436
aI3364
asS'ori'
p6
S'This house believes in the use of affirmative action'
p7
ssS'output'
p8
(dp9
g4
(lp10
I12959
aI12960
aI1966
aI63
aI4226
aI5
aI11389
aI829
aI298
aI8992
aI89
aI1028
aI131
aI63
aI3
aI2498
aI7
aI5969
aI7
aI511
aI417
aI99
aI4345
aI165
aI1706
aI138
aI5377
aI3392
aI4933
aI63765
asg6
S'" Matt Cavanagh argued that race and sex shouldn\'t matter when getting a job  but that the sense of equality of opportunity should not extend much further than preventing straightforward discrimination  .'
p11
ss.