(dp1
S'input'
p2
(dp3
S'encoded'
p4
(lp5
I64
aI2179
aI394
aI117
aI7428
aI21151
aI34
aI11389
aI2042
aI24
aI4364
asS'ori'
p6
S'This house would only teach abstinence for sex education in schools'
p7
ssS'output'
p8
(dp9
g4
(lp10
I7444
aI3591
aI193
aI5224
aI5
aI115
aI182
aI45
aI316
aI353
aI24
aI217
aI385
aI5
aI725
aI1488
aI9759
aI63765
asg6
S'AIDS clinics providing information and assistance are to be found in most cities and many small villages  .'
p11
ss.