(dp1
S'input'
p2
(dp3
S'encoded'
p4
(lp5
I64
aI2179
aI43
aI63
aI3
aI4991
aI7
aI180
aI417
aI316
aI5396
aI19
aI3
aI169
aI10
asS'ori'
p6
S'This house believes that the Church of England should be separated from the British state'
p7
ssS'output'
p8
(dp9
g4
(lp10
I24
aI3
aI626
aI187
aI3
aI237
aI3264
aI45
aI3
aI2475
aI4228
aI89
aI570
aI3445
aI1381
aI3
aI2497
aI116
aI99
aI416
aI843
aI24
aI3
aI2475
aI73
aI3221
aI5
aI116
aI24
aI68
aI416
aI41
aI89
aI2497
aI45
aI1035
aI1565
aI26350
aI60
aI1560
aI26350
aI63765
asg6
S'In the United States  the First Amendment to the Constitution contains a similar concept  although the term "laicity" is not used either in the Constitution or elsewhere  and is in fact used as a term to contrast European secularism with American secularism .'
p11
ss.