(dp1
S'input'
p2
(dp3
S'encoded'
p4
(lp5
I64
aI2179
aI43
aI8629
aI116
aI3
aI117
aI998
asS'ori'
p6
S'This house believes atheism is the only way'
p7
ssS'output'
p8
(dp9
g4
(lp10
I3
aI26513
aI4889
aI63
aI257
aI5480
aI382
aI45
aI501
aI7687
aI1028
aI10753
aI45
aI316
aI3158
aI1028
aI394
aI768
aI737
aI45
aI316
aI25938
aI63765
asg6
S'The Accuser proposes that if God were to allow everything Job loved to be destroyed  Job would then cease to be righteous .'
p11
ss.