(dp1
S'input'
p2
(dp3
S'encoded'
p4
(lp5
I64
aI2179
aI43
aI63
aI3
aI4990
aI4991
aI116
aI4850
aI24
aI12166
aI3
aI475
aI7
aI3532
aI3290
aI7
aI4714
asS'ori'
p6
S'This house believes that the Catholic Church is justified in forbidding the use of barrier methods of contraception'
p7
ssS'output'
p8
(dp9
g4
(lp10
I132
aI21241
aI987
aI415
aI45
aI1074
aI1277
aI4990
aI167
aI159
aI41
aI771
aI7
aI3
aI4991
aI25768
aI7
aI25847
aI564
aI673
aI14
aI3237
aI159
aI41
aI5711
aI10952
aI2836
aI45
aI3109
aI63765
asg6
S'These monastic orders came to include key Catholic figures such as Doctor of the Church Teresa of Avila  whose influence on practices such as Christian meditation continues to date  .'
p11
ss.