(dp1
S'input'
p2
(dp3
S'encoded'
p4
(lp5
I64
aI2179
aI394
aI163
aI959
aI2042
aI3557
asS'ori'
p6
S'This house would make physical education compulsory'
p7
ssS'output'
p8
(dp9
g4
(lp10
I843
aI5140
aI88
aI316
aI416
aI75
aI15
aI4926
aI63765
asg6
S'Either facility may be used by both sexes .'
p11
ss.