(dp1
S'input'
p2
(dp3
S'encoded'
p4
(lp5
I64
aI2179
aI394
aI2773
aI12505
asS'ori'
p6
S'This house would embrace multiculturalism'
p7
ssS'output'
p8
(dp9
g4
(lp10
I3
aI792
aI7
aI64
aI2784
aI63765
aI45
aI2728
aI63
aI3
aI2768
aI7
aI169
aI51741
aI41
aI5392
aI4226
aI2637
aI3910
aI2382
aI12909
aI5300
aI5
aI238
aI7
aI5304
aI116
aI89
aI2378
aI4174
aI7
aI3
aI2022
aI7
aI169
aI3373
aI63
aI33786
aI3
aI4830
aI7
aI223
aI169
aI2998
aI3236
aI34
aI3
aI15307
aI3910
aI7
aI169
aI3018
aI10250
aI2251
aI1633
aI2637
aI1462
aI5
aI3236
aI5
aI3
aI2891
aI7
aI89
aI2178
aI63
aI116
aI626
aI5
aI311
aI2250
aI60
aI2187
aI3
aI4360
aI7
aI89
aI2022
aI24
aI169
aI3373
aI24
aI92
aI273
aI182
aI443
aI18457
aI45
aI3
aI838
aI5
aI1260
aI7600
aI7
aI223
aI169
aI51741
aI24
aI3
aI16
aI17
aI2637
aI5
aI22
aI3269
aI7
aI169
aI3373
aI63765
asg6
S'The purposes of this act (s . 2) are: to recognize that the diversity of British Columbians as regards race  cultural heritage  religion  ethnicity  ancestry and place of origin is a fundamental characteristic of the society of British Columbia that enriches the lives of all British Columbians;to encourage respect for the multicultural heritage of British Columbia;to promote racial harmony  cross cultural understanding and respect and the development of a community that is united and at peace with itself;to foster the creation of a society in British Columbia in which there are no impediments to the full and free participation of all British Columbians in the economic  social  cultural and political life of British Columbia .'
p11
ss.