(dp1
S'input'
p2
(dp3
S'encoded'
p4
(lp5
I64
aI2179
aI394
aI4261
aI8667
aI3
aI9361
aI5
aI17069
asS'ori'
p6
S'This house would prohibit burning the stars and stripes'
p7
ssS'output'
p8
(dp9
g4
(lp10
I52281
aI3470
aI89
aI4772
aI52144
aI20414
aI34
aI25
aI96
aI5
aI41
aI51
aI1532
aI8746
aI20761
aI1063
aI14
aI77
aI8185
aI63765
asg6
S'Jezer wrote a letter thanking Goodman for his support and  as an eye witness  corrected him on certain details .'
p11
ss.