(dp1
S'input'
p2
(dp3
S'encoded'
p4
(lp5
I64
aI2179
aI43
aI63
aI3
aI4538
aI7
aI4434
aI7793
aI283
aI45
aI3586
aI417
aI316
aI577
asS'ori'
p6
S'This house believes that the sale of violent video games to minors should be banned'
p7
ssS'output'
p8
(dp9
g4
(lp10
I100
aI7
aI132
aI283
aI653
aI4946
aI20573
aI4434
aI7151
aI11
aI12
aI53497
aI6307
aI7793
aI75
aI20090
aI5
aI7607
aI5269
aI63765
asg6
S'Some of these games  despite containing objectively violent content  have been affirmatively labeled "non-violent video games" by marketers and faith-based non-violent gaming communities .'
p11
ss.