(dp1
S'input'
p2
(dp3
S'encoded'
p4
(lp5
I64
aI2179
aI394
aI5370
aI7146
aI4585
aI2446
asS'ori'
p6
S'This house would abolish intellectual property rights'
p7
ssS'output'
p8
(dp9
g4
(lp10
I658
aI376
aI3136
aI281
aI2143
aI5
aI3
aI675
aI182
aI3971
aI3
aI658
aI2042
aI145
aI45
aI7428
aI3
aI8508
aI19
aI271
aI7067
aI63765
asg6
S'Public interest groups  major corporations and the like  are entering the public education system to teach the curriculum from their perspectives .'
p11
ss.