(dp1
S'input'
p2
(dp3
S'encoded'
p4
(lp5
I64
aI2179
aI43
aI8629
aI116
aI3
aI117
aI998
asS'ori'
p6
S'This house believes atheism is the only way'
p7
ssS'output'
p8
(dp9
g4
(lp10
I93
aI2035
aI353
aI63
aI582
aI7712
aI1710
aI24
aI75
aI2767
aI147
aI122
aI289
aI292
aI1727
aI63
aI7
aI5344
aI147
aI63765
asg6
S'One study found that average charitable giving in 2000 by religious individuals ($2 210) was over three times that of secular individuals ($642) .'
p11
ss.