(dp1
S'input'
p2
(dp3
S'encoded'
p4
(lp5
I64
aI2179
aI394
aI5842
aI3569
aI446
aI13498
asS'ori'
p6
S'This house would introduce year round schooling'
p7
ssS'output'
p8
(dp9
g4
(lp10
I24
aI327
aI3424
aI12931
aI6120
aI1530
aI3286
aI63765
asg6
S'In Germany  summer vacation lasts six weeks .'
p11
ss.