(dp1
S'input'
p2
(dp3
S'encoded'
p4
(lp5
I64
aI2179
aI43
aI63
aI3
aI4538
aI7
aI4434
aI7793
aI283
aI45
aI3586
aI417
aI316
aI577
asS'ori'
p6
S'This house believes that the sale of violent video games to minors should be banned'
p7
ssS'output'
p8
(dp9
g4
(lp10
I20484
aI63765
aI23928
aI63765
aI1210
aI38600
aI89
aI809
aI3912
aI957
aI12911
aI2999
aI55
aI441
aI1237
aI3955
aI63
aI14164
aI45
aI3
aI2195
aI7
aI2617
aI24
aI3
aI897
aI158
aI14
aI3188
aI5
aI991
aI5204
aI3218
aI5268
aI45
aI2011
aI63765
asg6
S'Lt . Col . David Grossman  a former West Point psychology professor  has written several books that pertain to the subject of violence in the media  including On Killing and Stop Teaching Our Kids to Kill .'
p11
ss.