(dp1
S'input'
p2
(dp3
S'encoded'
p4
(lp5
I64
aI2179
aI43
aI63
aI11083
aI10046
aI417
aI316
aI89
aI3135
aI4603
asS'ori'
p6
S'This house believes that Holocaust denial should be a criminal offence'
p7
ssS'output'
p8
(dp9
g4
(lp10
I22756
aI463
aI117
aI103
aI63
aI3
aI18955
aI440
aI353
aI443
aI350
aI7
aI89
aI2136
aI45
aI3538
aI4307
aI75
aI1430
aI1277
aI14036
aI7
aI3
aI905
aI53
aI3
aI18955
aI3467
aI187
aI63
aI3
aI5971
aI31216
aI7
aI4307
aI122
aI5834
aI2136
aI63765
asg6
S'pamphlet could only claim that the ICRC had found no evidence of a policy to exterminate Jews by ignoring key sections of the 1948 report  where the ICRC explicitly states that the systematic extermination of Jews was Nazi policy  .'
p11
ss.