(dp1
S'input'
p2
(dp3
S'encoded'
p4
(lp5
I64
aI2179
aI43
aI63
aI3376
aI4938
aI417
aI316
aI3537
asS'ori'
p6
S'This house believes that endangered species should be protected'
p7
ssS'output'
p8
(dp9
g4
(lp10
I6685
aI1606
aI116
aI4166
aI3
aI1643
aI6017
aI7
aI45501
aI5
aI134
aI3172
aI34
aI3
aI8026
aI2755
aI4835
aI24
aI4013
aI6685
aI6580
aI675
aI6795
aI73
aI3
aI2148
aI3216
aI41
aI89
aI3730
aI4661
aI63765
asg6
S'Ecological Extension is roughly the same classification of Smiths eco-holism  and it argues for the intrinsic value inherent in collective ecological entities like ecosystems or the global environment as a whole entity .'
p11
ss.