(dp1
S'input'
p2
(dp3
S'encoded'
p4
(lp5
I64
aI2179
aI43
aI63
aI2659
aI417
aI1690
aI3
aI12048
aI7
aI19084
asS'ori'
p6
S'This house believes that Israel should lift the blockade of Gaza'
p7
ssS'output'
p8
(dp9
g4
(lp10
I6056
aI6048
aI2544
aI7
aI19231
aI19232
aI19233
aI9436
aI63
aI3
aI8949
aI7
aI3
aI12048
aI394
aI4203
aI63
aI116
aI99
aI89
aI2702
aI12048
aI131
aI89
aI22
aI93
aI3285
aI63
aI3
aI19096
aI24
aI8600
aI3
aI624
aI63765
asg6
S'Israeli Arab member of Knesset Hanin Zoabi commented that the easing of the blockade would prove that "it is not a security blockade  but a political one " adding that the flotilla "succeeded in undermining the blockade\'s legitimacy .'
p11
ss.