(dp1
S'input'
p2
(dp3
S'encoded'
p4
(lp5
I64
aI2179
aI43
aI63
aI2157
aI2565
aI493
aI19084
aI382
aI4850
asS'ori'
p6
S"This house believes that Israel's 2008-2009 military operations against Gaza were justified"
p7
ssS'output'
p8
(dp9
g4
(lp10
I3
aI903
aI3470
aI63
aI2659
aI417
aI820
aI89
aI5399
aI9359
aI366
aI3
aI2823
aI7
aI3
aI42426
aI2130
aI45
aI9503
aI736
aI211
aI3089
aI24
aI19084
aI63765
asg6
S'The Independent wrote that Israel should open a parliamentary investigation after the model of the Kahan Commission to look into its actions in Gaza .'
p11
ss.