(dp1
S'input'
p2
(dp3
S'encoded'
p4
(lp5
I64
aI2179
aI43
aI63
aI11083
aI10046
aI417
aI316
aI89
aI3135
aI4603
asS'ori'
p6
S'This house believes that Holocaust denial should be a criminal offence'
p7
ssS'output'
p8
(dp9
g4
(lp10
I24
aI89
aI4772
aI11885
aI13936
aI8514
aI63
aI759
aI7
aI3
aI2165
aI2750
aI7
aI89
aI2369
aI150
aI260
aI83
aI316
aI3
aI6828
aI7
aI3
aI63765
asg6
S'In a letter dated 1919 Hitler mentions that part of the ultimate aim of a strong national government must "unshakably be the removal of the Jews"  .'
p11
ss.