(dp1
S'input'
p2
(dp3
S'encoded'
p4
(lp5
I64
aI2179
aI235
aI3
aI2136
aI7
aI3
aI2306
aI7
aI2390
asS'ori'
p6
S'This house supports the one-child policy of the republic of China'
p7
ssS'output'
p8
(dp9
g4
(lp10
I1381
aI2134
aI55
aI12
aI13933
aI24
aI89
aI26
aI11612
aI89
aI6934
aI45
aI3
aI11991
aI447
aI7
aI2445
aI1361
aI3
aI4689
aI8652
aI12235
aI48681
aI4246
aI63
aI24
aI89
aI7467
aI3869
aI22437
aI1721
aI27930
aI5
aI63765
asg6
S'Although Knight\'s organization has been featured in a book titled Kooks: A Guide to the Outer Limits of Human Belief  The Guardian journalist Oliver Burkeman notes that in a phone conversation Knight seems "rather sane and self-deprecating"  .'
p11
ss.