(dp1
S'input'
p2
(dp3
S'encoded'
p4
(lp5
I64
aI2179
aI394
aI1499
aI3
aI8115
aI34564
aI17106
asS'ori'
p6
S'This house would build the Keystone XL pipeline'
p7
ssS'output'
p8
(dp9
g4
(lp10
I260
aI3645
aI24
aI2547
aI5
aI3
aI626
aI187
aI1619
aI63
aI11300
aI5092
aI45623
aI83
aI316
aI3537
aI19
aI42127
aI63765
asg6
S'Government regulations in Canada and the United States require that buried fuel pipelines must be protected from corrosion .'
p11
ss.