(dp1
S'input'
p2
(dp3
S'encoded'
p4
(lp5
I64
aI2179
aI43
aI63
aI3
aI4990
aI4991
aI116
aI4850
aI24
aI12166
aI3
aI475
aI7
aI3532
aI3290
aI7
aI4714
asS'ori'
p6
S'This house believes that the Catholic Church is justified in forbidding the use of barrier methods of contraception'
p7
ssS'output'
p8
(dp9
g4
(lp10
I3
aI68
aI63
aI3
aI4138
aI8393
aI40
aI45
aI79
aI5
aI45
aI2784
aI113
aI60
aI2338
aI9160
aI15572
aI8316
aI5
aI2510
aI223
aI2233
aI26732
aI19400
aI45
aI828
aI11345
aI63765
asg6
S'The fact that the Lord knows how to work and to act even with insufficient instruments comforts me  and above all I entrust myself to your prayers .'
p11
ss.