(dp1
S'input'
p2
(dp3
S'encoded'
p4
(lp5
I64
aI2179
aI235
aI3
aI2136
aI7
aI3
aI2306
aI7
aI2390
asS'ori'
p6
S'This house supports the one-child policy of the republic of China'
p7
ssS'output'
p8
(dp9
g4
(lp10
I89
aI905
aI75
aI3
aI2954
aI903
aI27719
aI38611
aI38612
aI2840
aI4752
aI7
aI3052
aI7
aI13000
aI13759
aI291
aI5
aI5
aI263
aI34
aI3135
aI8745
aI5
aI748
aI7795
aI493
aI1237
aI3217
aI85
aI6941
aI5
aI5725
aI63765
asg6
S"A 2005 report by the Czech government's independent ombudsman  Otakar Motejl  identified dozens of cases of coercive sterilization between 1979 and 2001  and called for criminal investigations and possible prosecution against several health care workers and administrators  ."
p11
ss.