(dp1
S'input'
p2
(dp3
S'encoded'
p4
(lp5
I64
aI2179
aI43
aI17
aI4941
aI857
aI3211
asS'ori'
p6
S'This house believes social deprivation causes crime'
p7
ssS'output'
p8
(dp9
g4
(lp10
I4013
aI2617
aI63
aI116
aI860
aI45
aI3220
aI89
aI1341
aI17
aI2175
aI1501
aI34
aI1343
aI4212
aI7
aI12511
aI860
aI75
aI3550
aI3136
aI7214
aI1647
aI5
aI7652
aI2617
aI63765
asg6
S'Collective violence that is committed to advance a particular social agenda includes  for example  crimes of hate committed by organized groups  terrorist acts and mob violence .'
p11
ss.