(dp1
S'input'
p2
(dp3
S'encoded'
p4
(lp5
I64
aI2179
aI43
aI63
aI1036
aI4828
aI33250
aI116
aI25073
aI45
aI3315
aI4562
asS'ori'
p6
S'This house believes that male infant circumcision is tantamount to child abuse'
p7
ssS'output'
p8
(dp9
g4
(lp10
I174
aI13
aI12217
aI479
aI2618
aI63
aI25
aI727
aI382
aI89
aI33
aI7
aI8932
aI92
aI116
aI89
aI1380
aI7
aI22590
aI63
aI139
aI2723
aI24
aI19616
aI17994
aI298
aI3073
aI19
aI384
aI24693
aI60
aI1360
aI6403
aI1571
aI2363
aI182
aI4341
aI204
aI24
aI89
aI4341
aI3728
aI7
aI2016
aI63
aI116
aI99
aI3843
aI60
aI3
aI727
aI34
aI574
aI7
aI3
aI229
aI24693
asg6
S'(1999) also criticised Van Howe\'s paper  stating that his results were a case of "Simpson\'s paradox  which is a type of confounding that can occur in epidemiological analyses when data from different strata with widely divergent exposure levels are combined  resulting in a combined measure of association that is not consistent with the results for each of the individual strata ."'
p11
ss.