(dp1
S'input'
p2
(dp3
S'encoded'
p4
(lp5
I64
aI2179
aI394
aI16756
aI20435
asS'ori'
p6
S'This house would criminalize blasphemy'
p7
ssS'output'
p8
(dp9
g4
(lp10
I20435
aI122
aI174
aI416
aI41
aI89
aI976
aI2889
aI45
aI9647
aI9776
aI20440
aI5
aI80
aI63765
asg6
S'Blasphemy was also used as a legal instrument to persecute atheists  Unitarians  and others .'
p11
ss.