(dp1
S'input'
p2
(dp3
S'encoded'
p4
(lp5
I64
aI2179
aI394
aI2773
aI12505
asS'ori'
p6
S'This house would embrace multiculturalism'
p7
ssS'output'
p8
(dp9
g4
(lp10
I134
aI116
aI742
aI63
aI39451
aI116
aI100
aI90
aI7
aI89
aI12505
aI131
aI60
aI3384
aI63
aI182
aI99
aI119
aI45
aI2214
aI64
aI4462
aI63765
asg6
S'It is said that interculturalism is some kind of a multiculturalism but with arguments that are not available to enter this definition .'
p11
ss.