(dp1
S'input'
p2
(dp3
S'encoded'
p4
(lp5
I64
aI2179
aI394
aI3830
aI3
aI475
aI7
aI9441
aI13132
aI3102
aI24
aI276
aI381
asS'ori'
p6
S'This house would permit the use of performance enhancing drugs in professional sports'
p7
ssS'output'
p8
(dp9
g4
(lp10
I89
aI3518
aI24
aI19494
aI3102
aI695
aI63
aI11397
aI6033
aI158
aI1243
aI5
aI2617
aI43956
aI5
aI149
aI514
aI43967
aI5
aI4435
aI11
aI12
aI566
aI60
aI12350
aI4562
asg6
S'A 2005 review in CNS Drugs determined that "significant psychiatric symptoms including aggression and violence  mania  and less frequently psychosis and suicide have been associated with steroid abuse'
p11
ss.