(dp1
S'input'
p2
(dp3
S'encoded'
p4
(lp5
I64
aI2179
aI43
aI63
aI187
aI417
aI99
aI16642
aI3
aI6449
aI7
aI3935
asS'ori'
p6
S'This house believes that states should not subsidize the growing of tobacco'
p7
ssS'output'
p8
(dp9
g4
(lp10
I89
aI7412
aI8214
aI3309
aI7
aI35476
aI19269
aI7
aI15896
aI53273
aI5
aI1890
aI16279
aI643
aI5
aI29240
aI51
aI22907
aI157
aI7
aI2243
aI5
aI21401
aI7
aI223
aI38739
aI5
aI5197
aI63765
asg6
S'A rich artistic tradition of decorated pipes of wood  ceramics and  eventually  metal developed and spawned an endless variety of themes and motifs of all shapes and sizes .'
p11
ss.