(dp1
S'input'
p2
(dp3
S'encoded'
p4
(lp5
I64
aI2179
aI43
aI63
aI3
aI4538
aI7
aI4434
aI7793
aI283
aI45
aI3586
aI417
aI316
aI577
asS'ori'
p6
S'This house believes that the sale of violent video games to minors should be banned'
p7
ssS'output'
p8
(dp9
g4
(lp10
I248
aI641
aI24893
aI14189
aI3
aI3148
aI13180
aI89
aI57033
aI57034
aI22460
aI89
aI319
aI3092
aI75
aI57035
aI63765
asg6
S'Other Notable Examples:Crash Dummy Vs The Evil D-TroitTreasure Quest - a puzzle/action gameKnytt StoriesSteer Madness - a vegetarian-themed game endorsed by PETA  .'
p11
ss.