(dp1
S'input'
p2
(dp3
S'encoded'
p4
(lp5
I64
aI2179
aI394
aI4261
aI8667
aI3
aI9361
aI5
aI17069
asS'ori'
p6
S'This house would prohibit burning the stars and stripes'
p7
ssS'output'
p8
(dp9
g4
(lp10
I273
aI182
aI5069
aI45
aI132
aI448
aI4625
aI158
aI3
aI4505
aI3274
aI34
aI25590
aI3315
aI7230
aI2511
aI2381
aI63
aI20099
aI10129
aI18437
aI3364
aI5
aI54
aI7
aI2188
aI2381
aI159
aI41
aI5583
aI63765
asg6
S'There are exceptions to these general protections  including the Miller test for obscenity  child pornography laws  speech that incites imminent lawless action  and regulation of commercial speech such as advertising .'
p11
ss.