(dp1
S'input'
p2
(dp3
S'encoded'
p4
(lp5
I64
aI2179
aI394
aI2773
aI12505
asS'ori'
p6
S'This house would embrace multiculturalism'
p7
ssS'output'
p8
(dp9
g4
(lp10
I2871
aI8270
aI2533
aI14
aI3
aI1795
aI5
aI7179
aI7
aI3
aI2768
aI7
aI2637
aI10049
aI122
aI1515
aI63765
asg6
S'October 20  2005: UNESCO Convention on the Protection and Promotion of the Diversity of Cultural Expressions was adopted .'
p11
ss.