(dp1
S'input'
p2
(dp3
S'encoded'
p4
(lp5
I64
aI2179
aI394
aI60
aI23587
asS'ori'
p6
S'This house would re-engage with Myanmar'
p7
ssS'output'
p8
(dp9
g4
(lp10
I3
aI626
aI2138
aI1760
aI41
aI1453
aI3
aI2016
aI7
aI2769
aI2646
aI2138
aI327
aI2390
aI2450
aI5
aI2371
aI63765
asg6
S'The United Nations uses "Myanmar"  as do the Association of Southeast Asian Nations  Germany  China  India and Japan  .'
p11
ss.