(dp1
S'input'
p2
(dp3
S'encoded'
p4
(lp5
I64
aI2179
aI43
aI17
aI4941
aI857
aI3211
asS'ori'
p6
S'This house believes social deprivation causes crime'
p7
ssS'output'
p8
(dp9
g4
(lp10
I155
aI182
aI13575
aI5
aI1546
aI45
aI4726
aI3
aI7161
aI7
aI271
aI5373
aI7025
aI5
aI3717
aI63765
asg6
S'They are adaptable and change to meet the demands of their changing environments and circumstances .'
p11
ss.