(dp1
S'input'
p2
(dp3
S'encoded'
p4
(lp5
I64
aI2179
aI43
aI63
aI3
aI4991
aI7
aI180
aI417
aI316
aI5396
aI19
aI3
aI169
aI10
asS'ori'
p6
S'This house believes that the Church of England should be separated from the British state'
p7
ssS'output'
p8
(dp9
g4
(lp10
I2767
aI2339
aI122
aI1852
aI5195
aI34
aI2351
aI3
aI685
aI4991
aI122
aI1989
aI34
aI130
aI335
aI4300
aI3436
aI6001
aI311
aI89
aI4229
aI1707
aI63765
asg6
S'Religious conformity was desired partly for financial reasons: the established Church was responsible for poverty relief  putting dissenting churches at a significant disadvantage .'
p11
ss.