(dp1
S'input'
p2
(dp3
S'encoded'
p4
(lp5
I64
aI2179
aI43
aI24
aI3
aI475
aI7
aI12436
aI3364
asS'ori'
p6
S'This house believes in the use of affirmative action'
p7
ssS'output'
p8
(dp9
g4
(lp10
I1021
aI45
aI89
aI1361
aI24
aI3
aI4204
aI45
aI12517
aI805
aI4871
aI2622
aI75
aI223
aI3921
aI73
aI5338
aI3232
aI63
aI3
aI2444
aI7
aI1928
aI229
aI211
aI3529
aI5125
aI3480
aI60
aI3
aI2444
aI7
aI7076
aI5
aI63
aI99
aI1864
aI87
aI116
aI63765
asg6
S'Due to a belief in the capacity to perceive pain and/or suffering shared by all animals  \'abolitionist\' or \'vegan\' egalitarianism maintains that the interests of every individual (regardless its species)  warrant equal consideration with the interests of humans  and that not doing so is "speciesist"  .'
p11
ss.