(dp1
S'input'
p2
(dp3
S'encoded'
p4
(lp5
I64
aI2179
aI394
aI163
aI959
aI2042
aI3557
asS'ori'
p6
S'This house would make physical education compulsory'
p7
ssS'output'
p8
(dp9
g4
(lp10
I574
aI3569
aI311
aI870
aI2639
aI78
aI6448
aI41
aI89
aI296
aI7
aI959
aI11501
aI92
aI32
aI11501
aI93
aI7
aI3
aI2645
aI7437
aI857
aI7
aI1012
aI3048
asg6
S'Each year at least 1 .9 million people die as a result of physical inactivity  which makes inactivity one of the leading preventable causes of death worldwide '
p11
ss.