(dp1
S'input'
p2
(dp3
S'encoded'
p4
(lp5
I64
aI2179
aI394
aI16642
aI1376
aI5269
asS'ori'
p6
S'This house would subsidize poor communities'
p7
ssS'output'
p8
(dp9
g4
(lp10
I9579
aI59547
aI9518
aI1928
aI783
aI7
aI3
aI2762
aI1351
aI5
aI113
aI2056
aI60
aI59476
aI24
aI211
aI15948
aI6320
aI3
aI2130
aI55
aI12
aI8681
aI7
aI3
aI330
aI22
aI5
aI17
aI1780
aI14
aI3
aI1528
aI63765
asg6
S'25-9-2008: Commissioner Benita Ferrero-Waldner  answer H-0628/08"At every step of the project cycle  and even now with PRODESIS in its closing stages  the Commission has been aware of the difficult political and social situation on the ground .'
p11
ss.