(dp1
S'input'
p2
(dp3
S'encoded'
p4
(lp5
I64
aI2179
aI394
aI16756
aI20435
asS'ori'
p6
S'This house would criminalize blasphemy'
p7
ssS'output'
p8
(dp9
g4
(lp10
I57
aI7
aI4640
aI417
aI3830
aI78
aI45
aI6564
aI1431
aI3348
aI155
aI11
aI113
aI257
aI155
aI182
aI20031
asg6
S'Freedom of expression should permit people to express whatever opinions they have  even if they are offensive'
p11
ss.