(dp1
S'input'
p2
(dp3
S'encoded'
p4
(lp5
I64
aI2179
aI394
aI5370
aI7146
aI4585
aI2446
asS'ori'
p6
S'This house would abolish intellectual property rights'
p7
ssS'output'
p8
(dp9
g4
(lp10
I19
aI64
aI55
aI322
aI3
aI8
aI4642
aI7
aI4585
aI41
aI89
aI21
aI6075
aI75
aI69
aI70
aI24
aI3
aI12356
aI63
aI64
aI47
aI3051
aI136
aI3064
aI5
aI1796
aI2140
aI7
aI3976
aI63765
asg6
S'From this has evolved the modern conception of property as a right enforced by positive law  in the expectation that this will produce more wealth and better standards of living .'
p11
ss.