(dp1
S'input'
p2
(dp3
S'encoded'
p4
(lp5
I64
aI2179
aI43
aI63
aI1036
aI4828
aI33250
aI116
aI25073
aI45
aI3315
aI4562
asS'ori'
p6
S'This house believes that male infant circumcision is tantamount to child abuse'
p7
ssS'output'
p8
(dp9
g4
(lp10
I7376
aI3
aI2016
aI187
aI63
aI273
aI116
aI4229
aI3022
aI1191
aI755
aI33250
aI116
aI164
aI89
aI7997
aI842
aI73
aI11968
aI3378
aI63765
asg6
S'Moreover  the Association states that there is significant disagreement about whether circumcision is overall a beneficial  neutral or harmful procedure .'
p11
ss.