(dp1
S'input'
p2
(dp3
S'encoded'
p4
(lp5
I64
aI2179
aI235
aI3
aI2136
aI7
aI3
aI2306
aI7
aI2390
asS'ori'
p6
S'This house supports the one-child policy of the republic of China'
p7
ssS'output'
p8
(dp9
g4
(lp10
I35655
aI63765
asg6
S'|- Qinghai 1 676 534 0 .29 2 145 604 0 .31 3 895 706 0 .39 4 456 946 0 .39 5 180 000 0 .41 5 626 722 0 .42 .'
p11
ss.