(dp1
S'input'
p2
(dp3
S'encoded'
p4
(lp5
I64
aI2179
aI43
aI63
aI134
aI116
aI400
aI21
aI34
aI3
aI260
aI45
aI3439
aI57
aI7
aI2381
asS'ori'
p6
S'This house believes that it is sometimes right for the government to restrict freedom of speech'
p7
ssS'output'
p8
(dp9
g4
(lp10
I27949
aI4513
aI45
aI3
aI626
aI187
aI2482
aI2483
aI3683
aI63
aI3
aI2483
aI752
aI10048
aI25
aI237
aI3264
aI2446
aI63765
asg6
S'Schenck appealed to the United States Supreme Court  arguing that the court decision violated his First Amendment rights .'
p11
ss.