(dp1
S'input'
p2
(dp3
S'encoded'
p4
(lp5
I64
aI2179
aI394
aI2773
aI12505
asS'ori'
p6
S'This house would embrace multiculturalism'
p7
ssS'output'
p8
(dp9
g4
(lp10
I2023
aI3914
aI3888
aI45
aI3
aI1629
aI7
aI4935
aI5
aI6993
aI63
aI725
aI15283
aI5004
aI41
aI15359
aI271
aI2556
aI238
aI5
aI2210
aI24
aI3
aI285
aI63765
asg6
S'Canadian identity refers to the set of characteristics and symbols that many Canadians regard as expressing their unique place and role in the world .'
p11
ss.