(dp1
S'input'
p2
(dp3
S'encoded'
p4
(lp5
I64
aI2179
aI43
aI63
aI1036
aI4828
aI33250
aI116
aI25073
aI45
aI3315
aI4562
asS'ori'
p6
S'This house believes that male infant circumcision is tantamount to child abuse'
p7
ssS'output'
p8
(dp9
g4
(lp10
I3
aI36969
aI10
aI63
aI24
aI448
aI8532
aI417
aI1358
aI40
aI1059
aI45
aI3018
aI271
aI2444
aI5
aI134
aI116
aI34
aI2022
aI45
aI790
aI61
aI447
aI417
aI316
aI2052
aI14
aI3585
aI7167
asg6
S'The BMA state that in general  "the parents should determine how best to promote their children\'s interests  and it is for society to decide what limits should be imposed on parental choices ."'
p11
ss.