(dp1
S'input'
p2
(dp3
S'encoded'
p4
(lp5
I64
aI2179
aI394
aI60
aI23587
asS'ori'
p6
S'This house would re-engage with Myanmar'
p7
ssS'output'
p8
(dp9
g4
(lp10
I134
aI122
aI1950
aI2546
aI370
aI24
aI12800
aI2231
aI131
aI174
aI93
aI60
aI89
aI572
aI2581
aI60
aI169
aI2450
aI63765
asg6
S'It was second largest empire in Burmese history but also one with a long ill-defined border with British India  .'
p11
ss.