(dp1
S'input'
p2
(dp3
S'encoded'
p4
(lp5
I64
aI2179
aI394
aI2017
aI262
asS'ori'
p6
S'This house would ban boxing'
p7
ssS'output'
p8
(dp9
g4
(lp10
I12349
aI440
aI443
aI1487
aI73
aI352
aI63765
asg6
S'Athletes had no bags or gloves .'
p11
ss.