(dp1
S'input'
p2
(dp3
S'encoded'
p4
(lp5
I64
aI2179
aI43
aI3
aI626
aI187
aI116
aI1989
aI34
aI3102
aI2223
asS'ori'
p6
S"This house believes the United States is responsible for Mexico's drugs war"
p7
ssS'output'
p8
(dp9
g4
(lp10
I260
aI55
aI12
aI2376
aI372
aI45
aI2299
aI24
aI89
aI8848
aI5
aI5971
aI2690
aI8699
aI63
aI271
aI8849
aI382
aI1157
aI3135
aI2142
asg6
S'American) government has been sending weapons to Mexico in a premeditated and systematic manner  knowing that their destinations were Mexican criminal organizations'
p11
ss.