(dp1
S'input'
p2
(dp3
S'encoded'
p4
(lp5
I64
aI2179
aI43
aI17
aI4941
aI857
aI3211
asS'ori'
p6
S'This house believes social deprivation causes crime'
p7
ssS'output'
p8
(dp9
g4
(lp10
I34
aI1980
aI24
aI271
aI320
aI57578
aI182
aI1191
aI1727
aI136
aI1856
aI45
aI11
aI89
aI7568
aI781
aI138
aI5948
aI63765
asg6
S'For men in their early thirties  African-Americans are about 7 times more likely to have a prison record than whites .'
p11
ss.