(dp1
S'input'
p2
(dp3
S'encoded'
p4
(lp5
I64
aI2179
aI43
aI223
aI2138
aI11
aI89
aI21
aI45
aI2185
aI372
asS'ori'
p6
S'This house believes all nations have a right to nuclear weapons'
p7
ssS'output'
p8
(dp9
g4
(lp10
I3
aI4445
aI7
aI2145
aI63765
aI2164
aI1206
aI2839
aI63765
aI2813
aI9328
aI19
aI3
aI2950
aI2268
aI24
aI2116
aI176
aI63
aI3
aI913
aI150
aI2950
aI720
aI145
aI92
aI155
aI247
aI45
aI1499
aI116
aI3075
aI117
aI45
aI881
aI2185
aI18317
aI75
aI89
aI10
aI60
aI913
aI2185
aI5201
aI5
aI116
aI99
aI3772
aI45
aI5579
aI3
aI2185
aI1873
aI291
aI2451
aI5
aI3
aI626
aI187
aI63765
asg6
S'The administration of U .S . President George W . Bush withdrew from the Anti-Ballistic Missile Treaty in June 2002  claiming that the limited national missile defense system which they propose to build is designed only to prevent nuclear blackmail by a state with limited nuclear capability and is not planned to alter the nuclear posture between Russia and the United States .'
p11
ss.