(dp1
S'input'
p2
(dp3
S'encoded'
p4
(lp5
I64
aI2179
aI43
aI63
aI1036
aI4828
aI33250
aI116
aI25073
aI45
aI3315
aI4562
asS'ori'
p6
S'This house believes that male infant circumcision is tantamount to child abuse'
p7
ssS'output'
p8
(dp9
g4
(lp10
I134
aI116
aI174
aI748
aI45
aI475
aI448
aI39813
aI24
aI3
aI33
aI7
aI3822
aI4790
aI114
aI99
aI3
aI3440
aI1485
aI63765
asg6
S'It is also possible to use general anesthetics in the case of adult surgery  though not the standard practice .'
p11
ss.