(dp1
S'input'
p2
(dp3
S'encoded'
p4
(lp5
I64
aI2179
aI394
aI3830
aI3
aI475
aI7
aI9441
aI13132
aI3102
aI24
aI276
aI381
asS'ori'
p6
S'This house would permit the use of performance enhancing drugs in professional sports'
p7
ssS'output'
p8
(dp9
g4
(lp10
I4498
aI50196
aI475
aI4962
aI45
aI316
aI566
aI60
aI89
aI1051
aI7
aI5500
aI1900
aI11397
aI4658
aI158
aI231
aI20258
aI7030
aI14678
aI5
aI13928
aI45
aI248
aI274
aI7
aI13160
aI4562
aI131
aI3
aI7443
aI5
aI14752
aI7
aI132
aI380
aI4658
aI937
aI4729
aI4635
aI63765
asg6
S'Recreational AAS use appears to be associated with a range of potentially prolonged psychiatric effects  including dependence syndromes  mood disorders  and progression to other forms of substance abuse  but the prevalence and severity of these various effects remains poorly understood  .'
p11
ss.