(dp1
S'input'
p2
(dp3
S'encoded'
p4
(lp5
I64
aI2179
aI43
aI63
aI2659
aI417
aI1690
aI3
aI12048
aI7
aI19084
asS'ori'
p6
S'This house believes that Israel should lift the blockade of Gaza'
p7
ssS'output'
p8
(dp9
g4
(lp10
I2659
aI24905
aI63
aI134
aI122
aI6278
aI45
aI8174
aI81
aI221
aI3
aI7217
aI73
aI19
aI92
aI15185
aI604
aI155
aI382
aI221
aI14
aI51
aI820
aI1262
aI63765
asg6
S'Israel conceded that it was impossible to trace who made the comments  or from which ship  because they were made on an open channel  .'
p11
ss.