(dp1
S'input'
p2
(dp3
S'encoded'
p4
(lp5
I64
aI2179
aI394
aI5370
aI7146
aI4585
aI2446
asS'ori'
p6
S'This house would abolish intellectual property rights'
p7
ssS'output'
p8
(dp9
g4
(lp10
I24
aI93
aI1849
aI45
aI132
aI219
aI93
aI3518
aI3041
aI63
aI149
aI138
aI2900
aI7
aI8104
aI14
aI3
aI285
aI3217
aI2924
aI7
aI2888
aI3102
aI182
aI459
aI11704
aI63765
asg6
S"In one response to these criticisms  one review concluded that less than 5 percent of medicines on the World Health Organization's list of essential drugs are under patent  ."
p11
ss.