(dp1
S'input'
p2
(dp3
S'encoded'
p4
(lp5
I64
aI2179
aI43
aI63
aI3
aI28431
aI7
aI2157
aI4624
aI75
aI39939
aI27257
aI122
aI4850
asS'ori'
p6
S'This house believes that the leaking of military documents by Anat Kamm was justified'
p7
ssS'output'
p8
(dp9
g4
(lp10
I134
aI116
aI51
aI1748
aI903
aI1597
aI24
aI3
aI6054
aI92
aI116
aI880
aI21091
aI45
aI3
aI720
aI2161
aI3646
aI3
aI2217
aI7
aI705
aI26617
aI5606
aI73
aI351
aI93
aI866
aI14
aI3
aI8126
aI7
aI2636
aI73
aI19
aI3
aI22
aI26618
aI5
aI116
aI117
aI2195
aI45
aI5399
aI5
aI3347
aI2311
aI63765
asg6
S'It is an entirely independent position in the IDF  which is neither subordinate to the Defense Minister  nor the Chief of Staff  Aman Director  or any one else on the chain of command or from the political echelon  and is only subject to parliamentary and judicial oversight .'
p11
ss.