(dp1
S'input'
p2
(dp3
S'encoded'
p4
(lp5
I64
aI2179
aI43
aI8629
aI116
aI3
aI117
aI998
asS'ori'
p6
S'This house believes atheism is the only way'
p7
ssS'output'
p8
(dp9
g4
(lp10
I10642
aI4453
aI63
aI273
aI116
aI443
aI350
aI34
aI351
aI7
aI3
aI4453
aI1191
aI1075
aI5
aI63
aI3
aI5304
aI122
aI99
aI18504
aI63765
asg6
S'Hitchens claims that there is no evidence for any of the "miraculous" claims about Muhammad  and that the Koran\'s origin was not supernatural .'
p11
ss.