(dp1
S'input'
p2
(dp3
S'encoded'
p4
(lp5
I64
aI2179
aI43
aI63
aI6670
aI546
aI417
aI316
aI89
aI1334
aI3108
aI7
aI4849
aI1886
aI2855
asS'ori'
p6
S'This house believes that wind power should be a primary focus of future energy supply'
p7
ssS'output'
p8
(dp9
g4
(lp10
I97
aI5433
aI116
aI45
aI18080
aI1360
aI24276
aI6401
aI2506
aI60
aI51
aI24280
aI63765
asg6
S'Another option is to interconnect widely dispersed geographic areas with an HVDC "Super grid" .'
p11
ss.