(dp1
S'input'
p2
(dp3
S'encoded'
p4
(lp5
I64
aI2179
aI394
aI163
aI959
aI2042
aI3557
asS'ori'
p6
S'This house would make physical education compulsory'
p7
ssS'output'
p8
(dp9
g4
(lp10
I64
aI2326
aI2396
aI165
aI1587
aI703
aI45
aI3
aI4747
aI7
aI3
aI2676
aI3216
aI5
aI3217
aI946
aI16329
aI5
aI959
aI11501
aI63765
asg6
S'This program provided much needed attention to the connections of the built environment and health  especially obesity and physical inactivity  .'
p11
ss.