(dp1
S'input'
p2
(dp3
S'encoded'
p4
(lp5
I64
aI2179
aI394
aI2017
aI223
aI9058
aI23653
asS'ori'
p6
S'This house would ban all unsustainable logging'
p7
ssS'output'
p8
(dp9
g4
(lp10
I459
aI528
aI1795
aI3
aI8119
aI17888
aI5
aI35610
aI3
aI19125
aI2506
aI92
aI1551
aI8769
aI63765
asg6
S'Under heavy protection  the otters multiplied and repopulated the depleted areas  which slowly recovered .'
p11
ss.