(dp1
S'input'
p2
(dp3
S'encoded'
p4
(lp5
I64
aI2179
aI13605
aI2258
aI45
aI2194
asS'ori'
p6
S'This house prefers trade to aid'
p7
ssS'output'
p8
(dp9
g4
(lp10
I2438
aI45
aI3
aI150
aI52
aI139
aI6332
aI2760
aI2203
aI63765
asg6
S'Changes to the national economy can undermine developing countries .'
p11
ss.