(dp1
S'input'
p2
(dp3
S'encoded'
p4
(lp5
I64
aI2179
aI394
aI163
aI959
aI2042
aI3557
asS'ori'
p6
S'This house would make physical education compulsory'
p7
ssS'output'
p8
(dp9
g4
(lp10
I5954
aI5
aI35986
aI959
aI364
aI55
aI1472
aI19
aI45
asg6
S'occupational and commuting physical activity has decreased from 1972 to 2002 '
p11
ss.