(dp1
S'input'
p2
(dp3
S'encoded'
p4
(lp5
I64
aI2179
aI43
aI63
aI3
aI21
aI45
aI12715
aI417
aI99
aI316
aI2897
asS'ori'
p6
S'This house believes that the right to asylum should not be absolute'
p7
ssS'output'
p8
(dp9
g4
(lp10
I257
aI3
aI4745
aI6016
aI45
aI26512
aI271
aI19381
aI5
aI37693
aI155
aI394
aI1453
aI87
aI24
aI89
aI658
aI2115
aI162
aI311
aI3
aI908
aI7
aI3
aI4991
aI18
aI63765
asg6
S'If the suspect chose to confess their guilt and abjure  they would do so in a public ceremony  usually at the gate of the church grounds .'
p11
ss.