(dp1
S'input'
p2
(dp3
S'encoded'
p4
(lp5
I64
aI2179
aI394
aI60
aI23587
asS'ori'
p6
S'This house would re-engage with Myanmar'
p7
ssS'output'
p8
(dp9
g4
(lp10
I5672
aI60696
aI5841
aI45
aI19867
aI3
aI2549
aI5
aI24
aI3377
aI3629
aI2297
aI75
aI57163
aI3
aI40786
aI187
aI63765
asg6
S'King Mindon tried to modernize the kingdom  and in 1875 narrowly avoided annexation by ceding the Karenni States .'
p11
ss.