(dp1
S'input'
p2
(dp3
S'encoded'
p4
(lp5
I64
aI2179
aI394
aI1499
aI177
aI1819
aI34
aI160
asS'ori'
p6
S'This house would build high rises for housing'
p7
ssS'output'
p8
(dp9
g4
(lp10
I132
aI7090
aI2425
aI86
aI45
aI247
aI3
aI8932
aI7
aI19356
aI92
aI63765
asg6
S'These findings led them to propose the paradox of intensification  which states:  .'
p11
ss.