(dp1
S'input'
p2
(dp3
S'encoded'
p4
(lp5
I64
aI2179
aI43
aI63
aI134
aI116
aI400
aI21
aI34
aI3
aI260
aI45
aI3439
aI57
aI7
aI2381
asS'ori'
p6
S'This house believes that it is sometimes right for the government to restrict freedom of speech'
p7
ssS'output'
p8
(dp9
g4
(lp10
I2381
aI63
aI230
aI89
aI2456
aI7
aI12511
aI73
aI12379
aI92
aI88
aI24
aI4031
aI2187
aI3
aI2130
aI7
aI12511
aI4212
aI63765
asg6
S'Speech that creates a climate of hate or prejudice  which may in turn foster the commission of hate crimes .'
p11
ss.