(dp1
S'input'
p2
(dp3
S'encoded'
p4
(lp5
I64
aI2179
aI43
aI63
aI2203
aI60
aI51
aI997
aI2837
aI21716
aI1636
aI5349
aI417
aI2998
aI8532
aI45
aI3051
aI8578
asS'ori'
p6
S'This house believes that countries with an imbalanced male/female ratio skewed towards males should encourage parents to produce girls'
p7
ssS'output'
p8
(dp9
g4
(lp10
I89
aI6271
aI116
aI153
aI3476
aI41
aI51
aI691
aI42
aI139
aI8680
aI5
aI96
aI3
aI89
aI8582
aI116
aI89
aI691
aI3313
aI47
aI316
aI6603
aI1295
aI45
aI97
aI3874
aI5
aI87
aI47
aI99
aI7747
aI14443
aI45
aI732
aI8532
aI63765
asg6
S'A son is often preferred as an "asset" since he can earn and support the family; a daughter is a "liability" since she will be married off to another family  and so will not contribute financially to her parents .'
p11
ss.