(dp1
S'input'
p2
(dp3
S'encoded'
p4
(lp5
I64
aI2179
aI394
aI4261
aI8667
aI3
aI9361
aI5
aI17069
asS'ori'
p6
S'This house would prohibit burning the stars and stripes'
p7
ssS'output'
p8
(dp9
g4
(lp10
I626
aI187
aI646
aI63765
aI42462
aI2145
aI63765
aI4342
aI7
aI3
aI5449
aI1795
aI2784
aI891
aI24
aI89
aI696
aI7
aI5449
aI8667
aI4122
aI12769
aI3
aI667
aI70
aI63765
aI3
aI2482
aI2483
aI3853
aI1237
aI5449
aI8667
aI10160
aI1607
aI459
aI3
aI5449
aI1795
aI2784
aI7
aI63765
aI3
aI2483
aI557
aI63
aI20935
aI2419
aI45
aI3442
aI89
aI136
aI7151
aI842
aI70
aI3
aI2503
aI70
aI634
aI45
aI316
aI5486
aI1653
aI311
aI3583
aI6249
aI2381
asg6
S"1990 United States v . Eichman (496 U .S . 310)  Passage of the Flag Protection Act resulted in a number of flag burning incidents protesting the new law . The Supreme Court overturned several flag burning convictions brought under the Flag Protection Act of 1989 . The Court held that notwithstanding Congress' effort to adopt a more content neutral law  the federal law continued to be principally aimed at limiting symbolic speech"
p11
ss.