(dp1
S'input'
p2
(dp3
S'encoded'
p4
(lp5
I64
aI2179
aI43
aI223
aI2138
aI11
aI89
aI21
aI45
aI2185
aI372
asS'ori'
p6
S'This house believes all nations have a right to nuclear weapons'
p7
ssS'output'
p8
(dp9
g4
(lp10
I395
aI2451
aI2791
aI63
aI134
aI394
aI1499
aI89
aI2185
aI5190
aI24
aI23587
aI63765
asg6
S'Later  Russia announced that it would build a nuclear reactor in Myanmar .'
p11
ss.