(dp1
S'input'
p2
(dp3
S'encoded'
p4
(lp5
I64
aI2179
aI43
aI63
aI3
aI21
aI45
aI12715
aI417
aI99
aI316
aI2897
asS'ori'
p6
S'This house believes that the right to asylum should not be absolute'
p7
ssS'output'
p8
(dp9
g4
(lp10
I3
aI10619
aI290
aI5995
aI92
aI11294
aI19
aI45
aI2100
aI3293
aI7
aI2610
aI79
aI311
aI41672
aI5995
aI5
aI18952
aI14
aI3
aI79
aI7
aI292
aI2610
aI3243
aI63765
asg6
S'The BBC series Airport  which ran from 1996 to 2008  included views of immigration work at Heathrow Airport and focussed on the work of three Immigration Officers .'
p11
ss.