(dp1
S'input'
p2
(dp3
S'encoded'
p4
(lp5
I64
aI2179
aI394
aI4325
aI2042
aI270
aI89
aI11605
aI3324
asS'ori'
p6
S'This house would fund education using a voucher scheme'
p7
ssS'output'
p8
(dp9
g4
(lp10
I24
aI492
aI2714
aI2173
aI5607
aI89
aI2369
aI2735
aI7
aI12436
aI3364
aI298
aI3762
aI16063
aI87
aI63
aI134
aI116
aI99
aI1640
aI89
aI5891
aI131
aI134
aI116
aI9047
aI5
aI1708
aI736
aI404
aI100
aI7
aI3
aI13743
aI5
aI4607
aI63
aI5269
aI7
aI12410
aI88
aI11
aI1004
aI302
aI45
aI952
aI5
aI134
aI174
aI8332
aI45
aI3
aI2755
aI7
aI2768
aI24
aI223
aI35987
aI7
aI1560
aI3269
aI63765
asg6
S'" In July  Obama stated  "I am a strong supporter of affirmative action when properly structured so that it is not just a quota  but it is acknowledging and taking into account some of the hardships and difficulties that communities of color may have experienced  continue to experience  and it also speaks to the value of diversity in all walks of American life .'
p11
ss.