(dp1
S'input'
p2
(dp3
S'encoded'
p4
(lp5
I64
aI2179
aI394
aI5370
aI3
aI5286
asS'ori'
p6
S'This house would abolish the monarchy'
p7
ssS'output'
p8
(dp9
g4
(lp10
I233
aI45
aI1279
aI10427
aI417
aI1301
aI3781
aI4409
aI1589
aI24
aI1809
aI3505
aI75
aI12927
aI73
aI101
aI3646
aI41
aI100
aI4868
aI7
aI271
aI1589
aI63765
asg6
S'According to Harry Browne  "We should never define Libertarian positions in terms coined by liberals or conservatives  nor as some variant of their positions .'
p11
ss.