(dp1
S'input'
p2
(dp3
S'encoded'
p4
(lp5
I64
aI2179
aI43
aI63
aI134
aI116
aI400
aI21
aI34
aI3
aI260
aI45
aI3439
aI57
aI7
aI2381
asS'ori'
p6
S'This house believes that it is sometimes right for the government to restrict freedom of speech'
p7
ssS'output'
p8
(dp9
g4
(lp10
I24
aI89
aI13115
aI122
aI3335
aI60
aI3
aI7050
aI2445
aI2446
aI2130
aI3365
aI45
aI51
aI3500
aI4849
aI6175
aI45
aI5714
aI441
aI75
aI1715
aI46110
aI480
aI24
aI10649
aI63765
asg6
S'In 2007  a complaint was filed with the Ontario Human Rights Commission related to an article "The Future Belongs to Islam "[41] written by Mark Steyn  published in Maclean\'s magazine .'
p11
ss.