(dp1
S'input'
p2
(dp3
S'encoded'
p4
(lp5
I64
aI2179
aI394
aI10662
aI626
aI187
aI2157
aI2697
aI19
aI2371
asS'ori'
p6
S'This house would remove United States military bases from Japan'
p7
ssS'output'
p8
(dp9
g4
(lp10
I3
aI2268
aI7
aI2250
aI3241
aI63
aI2371
aI41
aI89
aI4634
aI2548
aI55
aI3
aI21
aI45
aI2214
aI736
aI4013
aI2702
aI2829
aI5
aI1706
aI3
aI2550
aI7
aI3
aI626
aI2138
aI3241
aI63
aI223
aI2138
aI1897
aI51
aI4835
aI21
aI7
aI229
aI5
aI4013
aI63765
asg6
S'The Treaty of Peace recognizes that Japan as a sovereign nation has the right to enter into collective security arrangements  and further  the Charter of the United Nations recognizes that all nations possess an inherent right of individual and collective self-defense .'
p11
ss.