(dp1
S'input'
p2
(dp3
S'encoded'
p4
(lp5
I64
aI2179
aI43
aI63
aI187
aI417
aI99
aI16642
aI3
aI6449
aI7
aI3935
asS'ori'
p6
S'This house believes that states should not subsidize the growing of tobacco'
p7
ssS'output'
p8
(dp9
g4
(lp10
I2992
aI55
aI8117
aI63
aI6673
aI2363
aI24
aI3842
aI1197
aI182
aI166
aI138
aI2363
aI353
aI14
aI11841
aI47210
aI24
aI816
aI4502
aI35945
aI5
aI397
aI4477
aI32541
aI63765
asg6
S'Studies has shown that pollution levels in door places are higher than levels found on busy roadways  in closed motor garages  and during fire storms .'
p11
ss.