(dp1
S'input'
p2
(dp3
S'encoded'
p4
(lp5
I64
aI2179
aI43
aI8629
aI116
aI3
aI117
aI998
asS'ori'
p6
S'This house believes atheism is the only way'
p7
ssS'output'
p8
(dp9
g4
(lp10
I3
aI7090
aI96
aI3
aI2096
aI63
aI3
aI2009
aI55
aI322
aI45
aI316
aI9124
aI45
aI351
aI399
aI7
aI1361
aI63
aI933
aI3
aI10665
aI7
aI3970
aI5
aI4446
aI3
aI2009
aI116
aI11655
aI9124
aI45
aI3985
aI24
aI49
aI7094
aI257
aI273
aI182
aI18
aI34
aI1864
aI87
aI63765
asg6
S'The findings support the idea that the brain has evolved to be sensitive to any form of belief that improves the chances of survival and suggests the brain is inherently sensitive to believing in almost anything if there are grounds for doing so .'
p11
ss.