(dp1
S'input'
p2
(dp3
S'encoded'
p4
(lp5
I64
aI2179
aI13605
aI2258
aI45
aI2194
asS'ori'
p6
S'This house prefers trade to aid'
p7
ssS'output'
p8
(dp9
g4
(lp10
I2891
aI2194
aI116
aI575
aI75
aI220
aI620
aI229
aI282
aI2194
aI779
aI5
aI620
aI2587
aI2825
aI159
aI41
aI3
aI285
aI2895
aI5
aI75
aI147
aI620
aI2891
aI14985
aI159
aI41
aI18956
aI9627
aI85
aI282
aI73
aI16323
aI63765
asg6
S"Development aid is given by governments through individual countries' international aid agencies and through multilateral institutions such as the World Bank  and by individuals through development charities such as ActionAid  Caritas  Care International or Oxfam ."
p11
ss.