(dp1
S'input'
p2
(dp3
S'encoded'
p4
(lp5
I64
aI2179
aI394
aI117
aI7428
aI21151
aI34
aI11389
aI2042
aI24
aI4364
asS'ori'
p6
S'This house would only teach abstinence for sex education in schools'
p7
ssS'output'
p8
(dp9
g4
(lp10
I3
aI68
aI63
aI3106
aI4539
aI3525
aI7568
aI11268
aI24
aI217
aI643
aI55927
aI1724
aI55928
aI174
aI6833
aI864
aI41
aI89
aI3661
aI75
aI55924
aI41
aI3
aI6203
aI7
aI89
aI8865
aI34
aI2507
aI70
aI43210
aI1517
aI935
aI116
aI136
aI11968
aI138
aI351
aI652
aI19
aI3
aI2613
aI2126
aI63765
asg6
S'The fact that cannabis possession carries prison sentences in most developed countriesalthough rarely imposedis also pointed out as a problem by EMCDDA  as the consequences of a conviction for otherwise law abiding users arguably is more harmful than any harm from the drug itself .'
p11
ss.