(dp1
S'input'
p2
(dp3
S'encoded'
p4
(lp5
I64
aI2179
aI43
aI63
aI2157
aI2565
aI493
aI19084
aI382
aI4850
asS'ori'
p6
S"This house believes that Israel's 2008-2009 military operations against Gaza were justified"
p7
ssS'output'
p8
(dp9
g4
(lp10
I1981
aI3
aI11994
aI17377
aI75
aI3
aI19357
aI19158
aI7
aI16619
aI248
aI9303
aI4881
aI3896
aI34
aI11994
aI17377
aI736
aI2659
aI5
aI1687
aI14
aI6056
aI2377
aI158
aI19158
aI60
aI3
aI16629
aI1076
aI31219
aI19158
aI3
aI20362
aI19158
aI5
aI3
aI939
aI5904
aI14625
aI63765
asg6
S"Besides the rockets fired by the Qassam Brigades of Hamas  other factions claimed responsibility for rockets fired into Israel and attacks on Israeli soldiers  including Al-Aqsa Martyrs' Brigades (affiliated with Fatah)  the Abu Ali Mustapha Brigades  the Quds Brigades and the Popular Resistance Councils  ."
p11
ss.