(dp1
S'input'
p2
(dp3
S'encoded'
p4
(lp5
I64
aI2179
aI43
aI223
aI2138
aI11
aI89
aI21
aI45
aI2185
aI372
asS'ori'
p6
S'This house believes all nations have a right to nuclear weapons'
p7
ssS'output'
p8
(dp9
g4
(lp10
I508
aI113
aI89
aI1488
aI2185
aI10643
aI443
aI2597
aI138
aI3492
aI2672
aI139
aI37030
aI51
aI1263
aI4996
aI75
aI11801
aI4477
aI5
aI11516
aI63765
asg6
S'Thus  even a small nuclear device no larger than traditional bombs can devastate an entire city by blast  fire and radiation .'
p11
ss.