(dp1
S'input'
p2
(dp3
S'encoded'
p4
(lp5
I64
aI2179
aI43
aI63
aI2659
aI417
aI1690
aI3
aI12048
aI7
aI19084
asS'ori'
p6
S'This house believes that Israel should lift the blockade of Gaza'
p7
ssS'output'
p8
(dp9
g4
(lp10
I24
aI2927
aI3
aI19088
aI3578
aI2132
aI685
aI89
aI150
aI6218
aI260
aI60
aI5260
aI5334
aI24
aI1561
aI5
aI292
aI493
aI63765
asg6
S'In March 2007  the Palestinian Legislative Council established a national unity government  with 83 representatives voting in favor and three against .'
p11
ss.