(dp1
S'input'
p2
(dp3
S'encoded'
p4
(lp5
I64
aI2179
aI394
aI117
aI7428
aI21151
aI34
aI11389
aI2042
aI24
aI4364
asS'ori'
p6
S'This house would only teach abstinence for sex education in schools'
p7
ssS'output'
p8
(dp9
g4
(lp10
I1381
aI11390
aI16513
aI11
aI12441
aI164
aI155
aI11
aI99
aI12441
aI1934
aI24
aI1928
aI2654
aI5
aI24
aI100
aI2506
aI155
aI11
aI2322
aI63765
asg6
S'Although teenage pregnancies have fallen overall  they have not fallen consistently in every region  and in some areas they have increased .'
p11
ss.