(dp1
S'input'
p2
(dp3
S'encoded'
p4
(lp5
I64
aI2179
aI43
aI63
aI187
aI417
aI99
aI16642
aI3
aI6449
aI7
aI3935
asS'ori'
p6
S'This house believes that states should not subsidize the growing of tobacco'
p7
ssS'output'
p8
(dp9
g4
(lp10
I691
aI117
aI28782
aI382
aI547
aI45
aI1378
aI372
aI51
aI5892
aI49308
aI59722
aI19
aI3
aI471
aI394
aI2830
aI89
aI570
aI3014
aI63765
asg6
S'Since only samurai were allowed to carry weapons  an elaborate kiseru slung from the waist would serve a similar purpose .'
p11
ss.