(dp1
S'input'
p2
(dp3
S'encoded'
p4
(lp5
I64
aI2179
aI43
aI63
aI11083
aI10046
aI417
aI316
aI89
aI3135
aI4603
asS'ori'
p6
S'This house believes that Holocaust denial should be a criminal offence'
p7
ssS'output'
p8
(dp9
g4
(lp10
I63
aI2879
aI34
aI3
aI2035
aI7
aI3
aI2880
aI556
aI311
aI374
aI6418
aI5
aI9063
aI41
aI3
aI12716
aI1216
aI18801
aI5
aI12289
aI47982
aI11
aI418
aI63
aI3
aI14612
aI19
aI92
aI3
aI904
aI116
aI788
aI187
aI63
aI3
aI27279
aI3158
aI3
aI2471
aI7
aI3
aI48030
aI4955
aI45
aI3
aI3099
aI7
aI3
aI2880
aI556
aI24
aI3
aI1012
aI2424
aI92
aI116
aI6668
aI11466
aI785
aI63
aI2879
aI34
aI3
aI3099
aI7
aI3
aI2880
aI556
aI182
aI5
aI63765
asg6
S'that Sources for the study of the gas chambers at once rare and unreliable as the authors Michael Shermer and Alex Grobman have noted that the paragraph from which the sentence is taken states that the SS destroyed the majority of the documention relating to the operation of the gas chambers in the death camps  which is why Mayer feels that sources for the operation of the gas chambers are "rare" and "unreliable"  .'
p11
ss.