(dp1
S'input'
p2
(dp3
S'encoded'
p4
(lp5
I64
aI2179
aI394
aI163
aI959
aI2042
aI3557
asS'ori'
p6
S'This house would make physical education compulsory'
p7
ssS'output'
p8
(dp9
g4
(lp10
I394
aI4663
aI1461
aI63
aI188
aI3527
aI1019
aI316
aI1578
aI24
aI3
aI3492
aI2498
aI63765
asg6
S'would fundamentally agree that democratic values cannot be taught in the traditional sense .'
p11
ss.