(dp1
S'input'
p2
(dp3
S'encoded'
p4
(lp5
I64
aI2179
aI43
aI24
aI3
aI475
aI7
aI12436
aI3364
asS'ori'
p6
S'This house believes in the use of affirmative action'
p7
ssS'output'
p8
(dp9
g4
(lp10
I57684
aI7
aI4226
aI2814
aI45
aI316
aI3365
aI45
aI958
aI31401
aI4935
aI63
aI382
aI1398
aI4669
aI5
aI5467
aI159
aI41
aI57685
aI63765
asg6
S'Pureness of race tended to be related to rather superficial characteristics that were easily addressed and advertised  such as blondness .'
p11
ss.