(dp1
S'input'
p2
(dp3
S'encoded'
p4
(lp5
I64
aI2179
aI43
aI63
aI7382
aI116
aI400
aI4713
asS'ori'
p6
S'This house believes that bribery is sometimes acceptable'
p7
ssS'output'
p8
(dp9
g4
(lp10
I3
aI5972
aI88
aI521
aI7931
aI45
aI3
aI8824
aI63
aI3849
aI3
aI532
aI7
aI137
aI45
aI5878
aI1295
aI3
aI878
aI63765
asg6
S'The disruption may cause losses to the firm that exceed the amount of money to pay off the official .'
p11
ss.