(dp1
S'input'
p2
(dp3
S'encoded'
p4
(lp5
I64
aI2179
aI394
aI15841
aI2736
asS'ori'
p6
S'This house would disband ASEAN'
p7
ssS'output'
p8
(dp9
g4
(lp10
I397
aI3
aI1643
aI3569
aI3
aI31793
aI2804
aI14
aI2087
aI2646
aI1886
aI2702
aI122
aI2340
aI24
aI31793
aI14
aI425
aI75
aI2736
aI5
aI3
aI248
aI2789
aI7
aI3
aI19765
aI2306
aI7
aI2390
aI2450
aI2371
aI667
aI6113
aI2318
aI92
aI13419
aI1886
aI2702
aI75
aI179
aI1886
aI3149
aI45
aI1671
aI6715
aI63765
asg6
S"During the same year  the Cebu Declaration on East Asian Energy Security was signed in Cebu on 15 January 2007  by ASEAN and the other members of the EAS (Australia  People's Republic of China  India  Japan  New Zealand  South Korea)  which promotes energy security by finding energy alternatives to conventional fuels ."
p11
ss.