(dp1
S'input'
p2
(dp3
S'encoded'
p4
(lp5
I64
aI2179
aI394
aI5370
aI223
aI4013
aI10440
aI2446
aI4881
aI75
aI14482
aI11004
asS'ori'
p6
S'This house would abolish all collective bargaining rights claimed by trades unions'
p7
ssS'output'
p8
(dp9
g4
(lp10
I378
aI3
aI2330
aI28079
aI73
aI95
aI2474
aI55
aI41
aI211
aI1410
aI4676
aI45
aI836
aI89
aI1255
aI7
aI546
aI291
aI3936
aI3550
aI24
aI11004
aI5
aI9452
aI3550
aI24
aI9452
aI956
aI63765
asg6
S'However  the German flavour or works legislation has as its main objective to create a balance of power between employees organized in unions and employers organized in employers associations .'
p11
ss.