(dp1
S'input'
p2
(dp3
S'encoded'
p4
(lp5
I64
aI2179
aI394
aI5284
aI150
aI3987
asS'ori'
p6
S'This house would reintroduce national service'
p7
ssS'output'
p8
(dp9
g4
(lp10
I3
aI217
aI279
aI399
aI7
aI3557
aI2224
aI3987
aI24
aI3
aI2145
aI63765
aI116
aI3
aI165
aI1234
aI2514
aI7
aI7042
aI3938
aI34
aI27973
aI34
aI3586
aI3557
aI2042
aI116
aI89
aI399
aI7
aI5610
aI63
aI99
aI117
aI4664
aI117
aI3586
aI19
aI3
aI3485
aI7
aI863
aI2439
aI5
aI588
aI131
aI6120
aI588
aI45
aI567
aI2439
aI60
aI767
aI2439
aI773
aI3
aI582
aI5376
aI63765
asg6
S'The most common form of compulsory civilian service in the U .S . is the much shorter obligation of jury duty for adultshowever for minors  compulsory education is a form of conscription that not only affects only minors from the age of five years and up  but lasts up to twelve years  with ten years being the average requirement .'
p11
ss.