(dp1
S'input'
p2
(dp3
S'encoded'
p4
(lp5
I64
aI2179
aI43
aI223
aI2138
aI11
aI89
aI21
aI45
aI2185
aI372
asS'ori'
p6
S'This house believes all nations have a right to nuclear weapons'
p7
ssS'output'
p8
(dp9
g4
(lp10
I211
aI2185
aI1942
aI5
aI2950
aI96
aI34
aI2661
aI116
aI89
aI281
aI20260
aI7
aI11842
aI63765
asg6
S'Its nuclear weapon and missile support for Pakistan is a major bone of contention .'
p11
ss.