(dp1
S'input'
p2
(dp3
S'encoded'
p4
(lp5
I64
aI2179
aI43
aI63
aI134
aI116
aI400
aI21
aI34
aI3
aI260
aI45
aI3439
aI57
aI7
aI2381
asS'ori'
p6
S'This house believes that it is sometimes right for the government to restrict freedom of speech'
p7
ssS'output'
p8
(dp9
g4
(lp10
I64
aI60224
aI122
aI7732
aI75
aI3
aI2445
aI2446
aI2130
aI7
aI5964
aI92
aI116
aI89
aI759
aI7
aI89
aI260
aI63
aI233
aI45
aI3
aI2206
aI10
aI2176
aI4488
aI2379
aI7
aI3
aI2961
aI2381
aI5
aI2382
aI158
aI5786
aI4651
aI736
aI5714
aI19
aI8462
aI45
aI97
aI2382
aI1443
aI2767
aI3744
aI45
aI9385
aI10076
aI3052
aI459
aI60225
aI70
aI63765
asg6
S'This confab was hosted by the Human Rights Commission of Malaysia  which is a part of a government that  according to the US State Department  restricts freedoms of the press  speech and religion  including "barring Muslims born into Islam from converting to another religion " allowing religious courts to enforce apostasy cases under Shariah law .'
p11
ss.