(dp1
S'input'
p2
(dp3
S'encoded'
p4
(lp5
I64
aI2179
aI394
aI2017
aI262
asS'ori'
p6
S'This house would ban boxing'
p7
ssS'output'
p8
(dp9
g4
(lp10
I97
aI1268
aI1343
aI116
aI1266
aI1267
aI81
aI24
aI25
aI320
aI945
aI416
aI3
aI60
aI325
aI1350
aI63765
asg6
S'Another famous example is Mike Tyson  who in his early career used the Peek-a-Boo with great success .'
p11
ss.