(dp1
S'input'
p2
(dp3
S'encoded'
p4
(lp5
I64
aI2179
aI394
aI117
aI7428
aI21151
aI34
aI11389
aI2042
aI24
aI4364
asS'ori'
p6
S'This house would only teach abstinence for sex education in schools'
p7
ssS'output'
p8
(dp9
g4
(lp10
I24
aI1849
aI45
aI89
aI2005
aI75
aI4990
aI4364
aI45
aI4447
aI45
aI3
aI6856
aI378
aI89
aI2341
aI11389
aI2042
aI6856
aI55
aI12
aI643
aI34
aI475
aI24
aI120
aI4364
aI63765
asg6
S'In response to a refusal by Catholic schools to commit to the programme  however  a separate sex education programme has been developed for use in those schools .'
p11
ss.