(dp1
S'input'
p2
(dp3
S'encoded'
p4
(lp5
I64
aI2179
aI43
aI223
aI2138
aI11
aI89
aI21
aI45
aI2185
aI372
asS'ori'
p6
S'This house believes all nations have a right to nuclear weapons'
p7
ssS'output'
p8
(dp9
g4
(lp10
I134
aI116
aI11267
aI63
aI351
aI2185
aI5854
aI47
aI316
aI1955
aI75
aI3
aI36685
aI2236
aI63765
asg6
S'It is suspected that any nuclear missions will be executed by the Prithvi II .'
p11
ss.