(dp1
S'input'
p2
(dp3
S'encoded'
p4
(lp5
I64
aI2179
aI394
aI2976
aI12243
aI24
aI954
aI126
aI1560
aI10723
asS'ori'
p6
S'This house would implement playoffs in collegiate level American football'
p7
ssS'output'
p8
(dp9
g4
(lp10
I378
aI3
aI5240
aI767
aI4235
aI10
aI34982
aI10786
aI24
aI3
aI34949
aI440
aI10984
aI45
aI6372
aI24
aI3
aI34959
aI20731
aI34
aI3
aI150
aI1011
aI493
aI5240
aI2087
aI410
aI7656
aI63765
asg6
S'However  the Big Ten co-champion Ohio State Buckeyes  finishing #2 in the BCS  had qualified to play in the 2003 Fiesta Bowl for the national championship against Big East champion Miami  .'
p11
ss.