(dp1
S'input'
p2
(dp3
S'encoded'
p4
(lp5
I64
aI2179
aI43
aI63
aI2659
aI417
aI1690
aI3
aI12048
aI7
aI19084
asS'ori'
p6
S'This house believes that Israel should lift the blockade of Gaza'
p7
ssS'output'
p8
(dp9
g4
(lp10
I3
aI19087
aI2581
aI1634
aI116
aI3
aI117
aI4378
aI1634
aI957
aI291
aI2657
aI5
aI19084
aI5
aI116
aI19162
aI75
aI19088
aI254
aI2702
aI2219
aI5
aI3
aI1565
aI2131
aI2581
aI115
aI4160
aI19087
aI63765
asg6
S'The Rafah Border Crossing is the only lawful crossing point between Egypt and Gaza  and is manned by Palestinian Authority security forces and the European Union Border Assistance Mission Rafah  .'
p11
ss.