(dp1
S'input'
p2
(dp3
S'encoded'
p4
(lp5
I64
aI2179
aI394
aI5370
aI3
aI5286
asS'ori'
p6
S'This house would abolish the monarchy'
p7
ssS'output'
p8
(dp9
g4
(lp10
I3
aI5305
aI230
aI223
aI45109
aI16352
aI2789
aI7
aI3
aI987
aI7
aI22438
aI2397
aI45110
aI5
aI3239
aI248
aI5493
aI63765
asg6
S'The Crown creates all peerages  appoints members of the orders of chivalry  grants knighthoods and awards other honours  .'
p11
ss.