(dp1
S'input'
p2
(dp3
S'encoded'
p4
(lp5
I64
aI2179
aI235
aI3
aI2136
aI7
aI3
aI2306
aI7
aI2390
asS'ori'
p6
S'This house supports the one-child policy of the republic of China'
p7
ssS'output'
p8
(dp9
g4
(lp10
I3
aI2136
aI55
aI12
aI13509
aI24
aI3926
aI2506
aI45
aI501
aI78
aI81
aI11
aI1107
aI3862
aI45
aI11
aI267
aI3862
aI63765
asg6
S'The policy has been relaxed in urban areas to allow people who have single children to have two children  .'
p11
ss.