(dp1
S'input'
p2
(dp3
S'encoded'
p4
(lp5
I64
aI2179
aI394
aI60
aI23587
asS'ori'
p6
S'This house would re-engage with Myanmar'
p7
ssS'output'
p8
(dp9
g4
(lp10
I217
aI12800
aI11760
aI5
aI3
aI2328
aI910
aI3727
aI822
aI3118
aI1049
aI63
aI16
aI9991
aI5
aI22
aI1347
aI14
aI3
aI12800
aI2157
aI3081
aI2455
aI3
aI117
aI16306
aI2136
aI45
aI671
aI89
aI6874
aI7
aI2328
aI5
aI2445
aI2446
aI24
aI3118
aI63765
asg6
S'Most Burmese exiles and the democracy movement activists inside Burma maintain that economic sanctions and political pressure on the Burmese military regime remain the only feasible policy to achieve a restoration of democracy and human rights in Burma .'
p11
ss.