(dp1
S'input'
p2
(dp3
S'encoded'
p4
(lp5
I64
aI2179
aI43
aI63
aI1036
aI4828
aI33250
aI116
aI25073
aI45
aI3315
aI4562
asS'ori'
p6
S'This house believes that male infant circumcision is tantamount to child abuse'
p7
ssS'output'
p8
(dp9
g4
(lp10
I3
aI2173
aI3014
aI7
aI3
aI70
aI122
aI45
aI3226
aI3
aI934
aI7
aI3
aI3378
aI63765
asg6
S'The stated purpose of the law was to increase the safety of the procedure  .'
p11
ss.