(dp1
S'input'
p2
(dp3
S'encoded'
p4
(lp5
I64
aI2179
aI43
aI63
aI6670
aI546
aI417
aI316
aI89
aI1334
aI3108
aI7
aI4849
aI1886
aI2855
asS'ori'
p6
S'This house believes that wind power should be a primary focus of future energy supply'
p7
ssS'output'
p8
(dp9
g4
(lp10
I1413
aI475
aI139
aI316
aI1016
aI75
aI23559
aI14
aI6766
aI5
aI248
aI2676
aI588
aI2506
aI114
aI64
aI6714
aI4510
aI63765
asg6
S'Land use can be reduced by installing on buildings and other built up areas  though this reduces efficiency .'
p11
ss.