(dp1
S'input'
p2
(dp3
S'encoded'
p4
(lp5
I64
aI2179
aI43
aI24
aI3
aI475
aI7
aI12436
aI3364
asS'ori'
p6
S'This house believes in the use of affirmative action'
p7
ssS'output'
p8
(dp9
g4
(lp10
I174
aI3
aI4979
aI112
aI34
aI20634
aI6426
aI5
aI7723
aI24
aI382
aI5
aI3839
aI63765
asg6
S'(See also Bumiputra) The mean income for Malays  Chinese and Indians in 1957/58 were 134  288 and 228 respectively .'
p11
ss.