(dp1
S'input'
p2
(dp3
S'encoded'
p4
(lp5
I64
aI2179
aI394
aI3830
aI3
aI475
aI7
aI9441
aI13132
aI3102
aI24
aI276
aI381
asS'ori'
p6
S'This house would permit the use of performance enhancing drugs in professional sports'
p7
ssS'output'
p8
(dp9
g4
(lp10
I7605
aI5
aI1449
aI475
aI88
aI296
aI24
aI2811
aI45
aI3
aI782
aI7
aI3
aI2613
aI5
aI4628
aI6033
aI298
aI475
aI116
aI1016
aI73
aI999
aI63765
asg6
S'Compulsive and repetitive use may result in tolerance to the effect of the drug and withdrawal symptoms when use is reduced or stopped .'
p11
ss.