(dp1
S'input'
p2
(dp3
S'encoded'
p4
(lp5
I64
aI2179
aI43
aI63
aI2157
aI2565
aI493
aI19084
aI382
aI4850
asS'ori'
p6
S"This house believes that Israel's 2008-2009 military operations against Gaza were justified"
p7
ssS'output'
p8
(dp9
g4
(lp10
I3
aI1177
aI7
aI6056
aI1687
aI5
aI3
aI177
aI696
aI7
aI2224
aI6043
aI6543
aI7
aI4969
aI709
aI3769
aI34
aI2224
aI4830
aI5
aI4585
aI5
aI89
aI3843
aI807
aI45
aI1670
aI291
aI2157
aI3811
aI5
aI3180
aI5
aI2224
aI14507
aI16631
aI2162
aI63765
asg6
S'The pattern of Israeli attacks and the high number of civilian casualties "showed elements of reckless conduct  disregard for civilian lives and property and a consistent failure to distinguish between military targets and civilians and civilian objects " Amnesty charged  .'
p11
ss.