(dp1
S'input'
p2
(dp3
S'encoded'
p4
(lp5
I64
aI2179
aI394
aI2017
aI262
asS'ori'
p6
S'This house would ban boxing'
p7
ssS'output'
p8
(dp9
g4
(lp10
I41268
aI960
aI55
aI12
aI353
aI24
aI3
aI20088
aI7
aI2008
aI16746
aI81
aI2013
aI19
aI248
aI857
aI131
aI3407
aI1991
aI3142
aI45
aI3
aI2009
aI1021
aI45
aI248
aI772
aI88
aI11
aI4329
aI45
aI3
aI960
aI63765
asg6
S'Axonal damage has been found in the brains of concussion sufferers who died from other causes  but inadequate blood flow to the brain due to other injuries may have contributed to the damage  .'
p11
ss.