(dp1
S'input'
p2
(dp3
S'encoded'
p4
(lp5
I64
aI2179
aI394
aI2741
aI3
aI1560
aI6025
aI2784
asS'ori'
p6
S'This house would pass the American Jobs Act'
p7
ssS'output'
p8
(dp9
g4
(lp10
I4698
aI24
aI2153
aI24
aI5
aI3515
aI182
aI9445
aI34
aI75
aI8986
aI864
aI53
aI260
aI7337
aI11766
aI8998
aI63
aI394
aI2507
aI867
aI2368
aI2573
aI63765
asg6
S'Decreases in GDP in 2014 and beyond are accounted for by crowding out  where government debt absorbs finances that would otherwise go toward investment  .'
p11
ss.