(dp1
S'input'
p2
(dp3
S'encoded'
p4
(lp5
I64
aI2179
aI394
aI60
aI23587
asS'ori'
p6
S'This house would re-engage with Myanmar'
p7
ssS'output'
p8
(dp9
g4
(lp10
I3
aI192
aI2994
aI122
aI589
aI267
aI2665
aI1727
aI470
aI3
aI2994
aI24
aI63765
asg6
S'The market rate was around two hundred times below the government-set rate in 2006  .'
p11
ss.