(dp1
S'input'
p2
(dp3
S'encoded'
p4
(lp5
I64
aI2179
aI394
aI4325
aI2042
aI270
aI89
aI11605
aI3324
asS'ori'
p6
S'This house would fund education using a voucher scheme'
p7
ssS'output'
p8
(dp9
g4
(lp10
I24
aI2048
aI3
aI260
aI459
aI8261
aI29870
aI451
aI89
aI11605
aI145
aI311
aI1334
aI5
aI6954
aI2240
aI126
aI3918
aI1260
aI4662
aI887
aI658
aI5
aI2550
aI4364
aI24
aI3
aI2178
aI63765
asg6
S'In Sweden  the 1991-1994 centre-right government under Carl Bildt introduced a voucher system at primary and secondary school level  enabling free choice among public and charter schools (friskolor) in the community .'
p11
ss.