(dp1
S'input'
p2
(dp3
S'encoded'
p4
(lp5
I64
aI2179
aI43
aI63
aI134
aI116
aI400
aI21
aI34
aI3
aI260
aI45
aI3439
aI57
aI7
aI2381
asS'ori'
p6
S'This house believes that it is sometimes right for the government to restrict freedom of speech'
p7
ssS'output'
p8
(dp9
g4
(lp10
I155
aI394
aI11698
aI380
aI5069
aI45
aI2280
aI92
aI182
aI99
aI5
aI14
aI64
aI419
aI404
aI394
aI141
aI89
aI57444
aI32105
aI45
aI103
aI136
aI138
aI382
aI4626
aI63765
asg6
S'They would contain various exceptions to powers which are not granted; and on this very account  would afford a colorable pretext to claim more than were granted .'
p11
ss.