(dp1
S'input'
p2
(dp3
S'encoded'
p4
(lp5
I64
aI2179
aI43
aI17
aI4941
aI857
aI3211
asS'ori'
p6
S'This house believes social deprivation causes crime'
p7
ssS'output'
p8
(dp9
g4
(lp10
I131
aI116
aI449
aI10882
aI7
aI17
aI6006
aI92
aI116
aI51
aI3173
aI575
aI34
aI3
aI22
aI11647
aI910
aI63765
asg6
S'But is extremely afraid of social conflicts  which is an explanation given for the political correctness movement .'
p11
ss.