(dp1
S'input'
p2
(dp3
S'encoded'
p4
(lp5
I64
aI2179
aI394
aI5284
aI150
aI3987
asS'ori'
p6
S'This house would reintroduce national service'
p7
ssS'output'
p8
(dp9
g4
(lp10
I725
aI5615
aI1980
aI2367
aI45
aI9491
aI840
aI111
aI271
aI177
aI2240
aI6119
aI24
aI128
aI45
aI1292
aI3
aI5262
aI1748
aI5
aI508
aI500
aI99
aI2830
aI24
aI843
aI3
aI2157
aI73
aI24
aI51
aI4834
aI3987
aI63765
asg6
S'Many young men moved to Berlin immediately upon their high school graduation in order to avoid the draft entirely  and thus did not serve in either the military or in an alternative service .'
p11
ss.