(dp1
S'input'
p2
(dp3
S'encoded'
p4
(lp5
I64
aI2179
aI394
aI5370
aI3
aI5286
asS'ori'
p6
S'This house would abolish the monarchy'
p7
ssS'output'
p8
(dp9
g4
(lp10
I24
aI6431
aI5614
aI6420
aI122
aI622
aI89
aI6422
aI6424
aI5
aI3
aI5672
aI122
aI2990
aI19
aI887
aI5647
aI2789
aI7
aI4137
aI5743
aI75
aI3
aI1963
aI63765
asg6
S'In Germanic antiquity  kingship was primarily a sacral function  and the king was elected from among eligible members of royal families by the thing .'
p11
ss.