(dp1
S'input'
p2
(dp3
S'encoded'
p4
(lp5
I64
aI2179
aI394
aI2741
aI3
aI1560
aI6025
aI2784
asS'ori'
p6
S'This house would pass the American Jobs Act'
p7
ssS'output'
p8
(dp9
g4
(lp10
I3
aI918
aI7
aI64
aI116
aI63
aI24
aI2600
aI159
aI41
aI3
aI626
aI187
aI5
aI323
aI397
aI3
aI320
aI398
aI164
aI196
aI122
aI2151
aI604
aI87
aI725
aI147
aI382
aI903
aI3503
aI196
aI1642
aI7
aI6678
aI122
aI41
aI177
aI41
aI63765
asg6
S'The impact of this is that in non-industrialized economies  such as the United States and Europe during the early 19th century  overall unemployment was approximately 3% because so many individuals were self-employed  independent farmers; yet  unemployment outside of agriculture was as high as 80%  .'
p11
ss.