(dp1
S'input'
p2
(dp3
S'encoded'
p4
(lp5
I64
aI2179
aI43
aI63
aI2659
aI417
aI1690
aI3
aI12048
aI7
aI19084
asS'ori'
p6
S'This house believes that Israel should lift the blockade of Gaza'
p7
ssS'output'
p8
(dp9
g4
(lp10
I3
aI6056
aI177
aI2483
aI2493
aI89
aI17286
aI3820
aI45
aI2520
aI25096
aI752
aI45
aI12169
aI3
aI631
aI9359
aI736
aI3
aI1274
aI63765
asg6
S"The Israeli high court rejected a petition seeking to overrule Attorney-General Yehuda Weinstein's decision to halt the police investigation into the attack  ."
p11
ss.