(dp1
S'input'
p2
(dp3
S'encoded'
p4
(lp5
I64
aI2179
aI394
aI2017
aI223
aI9058
aI23653
asS'ori'
p6
S'This house would ban all unsustainable logging'
p7
ssS'output'
p8
(dp9
g4
(lp10
I8254
aI1379
aI116
aI93
aI7
aI3
aI2645
aI2148
aI4410
aI34
aI78
aI60
aI51
aI376
aI24
aI7910
aI5
aI2456
aI1546
aI45
aI2572
aI271
aI3293
aI5
aI79
aI1544
aI45
aI975
aI7910
aI182
aI47249
aI5427
aI736
aI351
aI4849
aI2456
aI1546
aI6686
aI5
aI19782
aI2167
aI63765
asg6
S"Forest Day is one of the world's leading global platforms for people with an interest in forests and climate change to share their views and work together to ensure forests are suitably incorporated into any future climate change mitigation and adaption strategies ."
p11
ss.