(dp1
S'input'
p2
(dp3
S'encoded'
p4
(lp5
I64
aI2179
aI394
aI2773
aI12505
asS'ori'
p6
S'This house would embrace multiculturalism'
p7
ssS'output'
p8
(dp9
g4
(lp10
I6269
aI257
aI5251
aI3654
aI45
aI7478
aI16846
aI14
aI193
aI15307
aI1202
aI134
aI88
aI18287
aI282
aI4358
aI5
aI134
aI1019
aI3426
aI89
aI569
aI2042
aI3216
aI63765
asg6
S'Consequently  if teachers try to deliberately concentrate on providing multicultural examples  it may confuse international students and it cannot guarantee a fair education environment .'
p11
ss.