(dp1
S'input'
p2
(dp3
S'encoded'
p4
(lp5
I64
aI2179
aI43
aI63
aI134
aI116
aI400
aI21
aI34
aI3
aI260
aI45
aI3439
aI57
aI7
aI2381
asS'ori'
p6
S'This house believes that it is sometimes right for the government to restrict freedom of speech'
p7
ssS'output'
p8
(dp9
g4
(lp10
I3980
aI116
aI3234
aI45
aI223
aI3
aI2446
aI5
aI2379
aI1629
aI4884
aI24
aI64
aI2804
aI252
aI4798
aI7
aI351
aI90
aI159
aI41
aI4226
aI5231
aI11389
aI3657
aI2382
aI22
aI73
aI248
aI3357
aI150
aI73
aI17
aI5304
aI4585
aI314
aI73
aI248
aI2554
aI63765
asg6
S'Everyone is entitled to all the rights and freedoms set forth in this Declaration  without distinction of any kind  such as race  colour  sex  language  religion  political or other opinion  national or social origin  property  birth or other status .'
p11
ss.