(dp1
S'input'
p2
(dp3
S'encoded'
p4
(lp5
I64
aI2179
aI394
aI60
aI23587
asS'ori'
p6
S'This house would re-engage with Myanmar'
p7
ssS'output'
p8
(dp9
g4
(lp10
I3
aI2696
aI116
aI3207
aI41
aI89
aI2272
aI2306
aI60
aI89
aI29043
aI5508
aI60
aI89
aI968
aI7
aI3482
aI2227
aI75
aI3
aI2157
aI5
aI80
aI2990
aI24
aI448
aI5276
aI63765
asg6
S'The country is governed as a presidential republic with a bicameral legislature  with a portion of legislatures appointed by the military and others elected in general elections .'
p11
ss.