(dp1
S'input'
p2
(dp3
S'encoded'
p4
(lp5
I64
aI2179
aI43
aI63
aI3
aI21
aI45
aI12715
aI417
aI99
aI316
aI2897
asS'ori'
p6
S'This house believes that the right to asylum should not be absolute'
p7
ssS'output'
p8
(dp9
g4
(lp10
I24
aI3
aI2668
aI7
aI3
aI25694
aI8579
aI289
aI267
aI2639
aI78
aI7480
aI736
aI9142
aI2203
aI24
aI1341
aI27726
aI63765
asg6
S'In the aftermath of the 1994 Rwandan Genocide  over two million people fled into neighboring countries  in particular Zaire .'
p11
ss.