(dp1
S'input'
p2
(dp3
S'encoded'
p4
(lp5
I64
aI2179
aI43
aI8629
aI116
aI3
aI117
aI998
asS'ori'
p6
S'This house believes atheism is the only way'
p7
ssS'output'
p8
(dp9
g4
(lp10
I81
aI461
aI14
aI45
aI1199
aI89
aI369
aI4990
aI4213
aI26398
aI63
aI24
aI7322
aI380
aI42406
aI7
aI580
aI116
aI443
aI1025
aI45
aI84
aI253
aI45
aI3
aI8402
aI3
aI1447
aI9709
aI7
aI3
aI1622
aI73
aI21232
aI73
aI45
aI3218
aI7564
aI5480
aI41
aI257
aI42
aI394
aI3051
aI132
aI4658
aI2818
aI136
aI87
aI138
aI120
aI4658
aI564
aI857
aI357
aI133
aI182
aI261
aI1047
aI45
aI2206
asg6
S'132082)  who went on to become a Roman Catholic bishop  admonished that  in discussing various marvels of nature  "there is no reason to take recourse to the heavens  the last refuge of the weak  or demons  or to our glorious God as if He would produce these effects directly  more so than those effects whose causes we believe are well known to us ."'
p11
ss.