(dp1
S'input'
p2
(dp3
S'encoded'
p4
(lp5
I64
aI2179
aI394
aI2773
aI12505
asS'ori'
p6
S'This house would embrace multiculturalism'
p7
ssS'output'
p8
(dp9
g4
(lp10
I12505
aI45
aI316
aI5501
aI45
aI3
aI3912
asg6
S'multiculturalism to be dangerous to the West'
p11
ss.