(dp1
S'input'
p2
(dp3
S'encoded'
p4
(lp5
I64
aI2179
aI43
aI24
aI3
aI475
aI7
aI12436
aI3364
asS'ori'
p6
S'This house believes in the use of affirmative action'
p7
ssS'output'
p8
(dp9
g4
(lp10
I1517
aI7
aI64
aI3278
aI957
aI45
aI3
aI5455
aI7
aI67
aI45
aI4203
aI10535
aI116
aI443
aI593
aI89
aI3661
aI252
aI9047
aI3
aI3889
aI5556
aI7
aI10535
aI24
aI136
aI2527
aI274
aI2643
aI63765
asg6
S'Users of this framework point to the abolition of slavery to prove racism is no longer a problem without acknowledging the ongoing presence of racism in more covert forms today .'
p11
ss.