(dp1
S'input'
p2
(dp3
S'encoded'
p4
(lp5
I64
aI2179
aI43
aI63
aI6670
aI546
aI417
aI316
aI89
aI1334
aI3108
aI7
aI4849
aI1886
aI2855
asS'ori'
p6
S'This house believes that wind power should be a primary focus of future energy supply'
p7
ssS'output'
p8
(dp9
g4
(lp10
I64
aI24
aI4031
aI47
aI1619
aI3
aI2709
aI5
aI2282
aI7
aI3
aI5120
aI546
aI5121
aI63765
asg6
S'This  in turn  will require the modernization and expansion of the electrical power grid .'
p11
ss.