(dp1
S'input'
p2
(dp3
S'encoded'
p4
(lp5
I64
aI2179
aI43
aI63
aI3376
aI4938
aI417
aI316
aI3537
asS'ori'
p6
S'This house believes that endangered species should be protected'
p7
ssS'output'
p8
(dp9
g4
(lp10
I7797
aI27669
aI1197
aI89
aI2896
aI2755
aI14
aI7797
aI63765
asg6
S'Biodiversity banking places a monetary value on biodiversity .'
p11
ss.