(dp1
S'input'
p2
(dp3
S'encoded'
p4
(lp5
I64
aI2179
aI43
aI63
aI3
aI4990
aI4991
aI116
aI4850
aI24
aI12166
aI3
aI475
aI7
aI3532
aI3290
aI7
aI4714
asS'ori'
p6
S'This house believes that the Catholic Church is justified in forbidding the use of barrier methods of contraception'
p7
ssS'output'
p8
(dp9
g4
(lp10
I3
aI18838
aI382
aI89
aI290
aI7
aI2157
aI6006
aI7
aI89
aI2767
aI5345
aI13567
aI75
aI165
aI7
aI5711
aI323
aI493
aI8489
aI5
aI2372
aI7188
aI63765
asg6
S'The Crusades were a series of military conflicts of a religious character waged by much of Christian Europe against external and internal threats .'
p11
ss.