(dp1
S'input'
p2
(dp3
S'encoded'
p4
(lp5
I64
aI2179
aI394
aI5284
aI150
aI3987
asS'ori'
p6
S'This house would reintroduce national service'
p7
ssS'output'
p8
(dp9
g4
(lp10
I134
aI116
aI748
aI63
aI64
aI21
aI122
aI99
aI45
aI1781
aI1413
aI4386
aI5648
aI131
aI2386
aI1413
aI5649
aI75
aI3
aI10
aI63765
asg6
S'It is possible that this right was not to hold land per se but specific land supplied by the state  .'
p11
ss.