(dp1
S'input'
p2
(dp3
S'encoded'
p4
(lp5
I64
aI2179
aI394
aI3830
aI3
aI475
aI7
aI9441
aI13132
aI3102
aI24
aI276
aI381
asS'ori'
p6
S'This house would permit the use of performance enhancing drugs in professional sports'
p7
ssS'output'
p8
(dp9
g4
(lp10
I149
aI19215
aI14
aI3218
aI684
aI138
aI14
aI89
aI8192
aI11398
aI742
aI63765
asg6
S'"There\'s less flesh on our bodies than on a skeleton " Francis said  .'
p11
ss.