(dp1
S'input'
p2
(dp3
S'encoded'
p4
(lp5
I64
aI2179
aI43
aI63
aI2659
aI417
aI1690
aI3
aI12048
aI7
aI19084
asS'ori'
p6
S'This house believes that Israel should lift the blockade of Gaza'
p7
ssS'output'
p8
(dp9
g4
(lp10
I89
aI285
aI3217
aI7210
aI7142
aI3714
aI24
aI4881
aI63
aI3
aI126
aI7
aI19277
aI24
aI3711
aI122
aI41
aI177
aI41
aI226
aI89
aI5
aI3964
aI2702
aI4370
aI905
aI2173
aI63
aI7
aI19130
aI182
aI3964
aI19297
aI5
aI18842
aI14
aI2893
aI2194
aI63765
asg6
S'A World Health Organisation assessment conducted in 2009 claimed that the level of anemia in babies (912 months) was as high as 65%  while a Socio-economic and Food Security Survey Report stated that 61% of Gazans are food insecure and reliant on humanitarian aid .'
p11
ss.