(dp1
S'input'
p2
(dp3
S'encoded'
p4
(lp5
I64
aI2179
aI43
aI223
aI2138
aI11
aI89
aI21
aI45
aI2185
aI372
asS'ori'
p6
S'This house believes all nations have a right to nuclear weapons'
p7
ssS'output'
p8
(dp9
g4
(lp10
I132
aI2100
aI3
aI41960
aI2266
aI7058
aI311
aI41962
aI5145
aI2185
aI546
aI1344
aI5
aI3
aI41959
aI2266
aI7058
aI311
aI34356
aI22964
aI2185
aI546
aI1344
aI53
aI5806
aI7
aI14153
aI382
aI9249
aI63765
asg6
S'These included the well-known Clamshell Alliance protests at Seabrook Station Nuclear Power Plant and the Abalone Alliance protests at Diablo Canyon Nuclear Power Plant  where thousands of protesters were arrested .'
p11
ss.