(dp1
S'input'
p2
(dp3
S'encoded'
p4
(lp5
I64
aI2179
aI394
aI2773
aI12505
asS'ori'
p6
S'This house would embrace multiculturalism'
p7
ssS'output'
p8
(dp9
g4
(lp10
I1237
aI15871
aI3136
aI4141
aI24
aI971
aI20976
aI45
aI836
aI5269
aI7
aI89
aI971
aI5933
aI45
aI17732
aI51
aI673
aI14
aI2023
aI3914
aI159
aI41
aI8927
aI15283
aI63765
asg6
S'Several immigrant groups settled in sufficient densities to create communities of a sufficient size to exert an influence on Canadian identity  such as Ukrainian Canadians .'
p11
ss.