(dp1
S'input'
p2
(dp3
S'encoded'
p4
(lp5
I64
aI2179
aI235
aI3
aI2136
aI7
aI3
aI2306
aI7
aI2390
asS'ori'
p6
S'This house supports the one-child policy of the republic of China'
p7
ssS'output'
p8
(dp9
g4
(lp10
I16
aI2234
aI55
aI13514
aI2638
aI3
aI2097
aI4386
aI7282
aI112
aI7
aI3926
aI2506
aI41
aI3495
aI11
aI1199
aI2601
aI7691
aI24
aI3
aI6194
aI514
aI204
aI24
aI5743
aI60
aI267
aI2879
aI7
aI112
aI63765
asg6
S"China's economic growth has tremendously elevated the annual per capita income of urban areas as women have become increasingly represented in the workforce  frequently resulting in families with two sources of income  ."
p11
ss.