(dp1
S'input'
p2
(dp3
S'encoded'
p4
(lp5
I64
aI2179
aI43
aI63
aI3
aI4990
aI4991
aI116
aI4850
aI24
aI12166
aI3
aI475
aI7
aI3532
aI3290
aI7
aI4714
asS'ori'
p6
S'This house believes that the Catholic Church is justified in forbidding the use of barrier methods of contraception'
p7
ssS'output'
p8
(dp9
g4
(lp10
I3
aI2145
aI63765
aI2904
aI34
aI282
aI2891
aI3432
aI21152
aI475
aI24
aI2760
aI2203
aI45
aI3709
aI9138
aI3
aI2598
aI75
aI4136
aI7
aI3189
aI7
aI7332
aI382
aI773
aI416
aI574
aI3569
aI24
aI2450
aI2487
aI63765
asg6
S'The U .S . Agency for International Development pushed condom use in developing countries to help solve the "world population crises": by 1970 hundreds of millions of condoms were being used each year in India alone  .'
p11
ss.