(dp1
S'input'
p2
(dp3
S'encoded'
p4
(lp5
I64
aI2179
aI394
aI190
aI3
aI21
aI45
aI3895
aI834
asS'ori'
p6
S'This house would limit the right to bear arms'
p7
ssS'output'
p8
(dp9
g4
(lp10
I691
aI211
aI2065
aI88
aI3
aI7656
aI2326
aI2425
aI45
aI10104
aI4128
aI7
aI1374
aI4443
aI4272
aI5
aI2639
aI24
aI3102
aI41
aI261
aI41
aI9450
aI1237
aI4257
aI5
aI22848
aI3052
aI63765
asg6
S'Since its inception May 2007  the Miami program led to 264 arrests  confiscation of 432 guns owned illegally and $2 .2 million in drugs  as well as solved several murder and burglary cases  .'
p11
ss.