(dp1
S'input'
p2
(dp3
S'encoded'
p4
(lp5
I64
aI2179
aI394
aI163
aI959
aI2042
aI3557
asS'ori'
p6
S'This house would make physical education compulsory'
p7
ssS'output'
p8
(dp9
g4
(lp10
I64
aI116
aI7536
aI75
aI3
aI68
aI63
aI3
aI582
aI6951
aI7
aI1253
aI875
aI41385
aI7563
aI2322
aI75
aI19
aI45
aI226
aI271
aI582
aI444
aI1472
aI75
aI63765
asg6
S'This is illustrated by the fact that the average height of Miss America pageant winners increased by 2% from 1922 to 1999  while their average weight decreased by 12%  .'
p11
ss.