(dp1
S'input'
p2
(dp3
S'encoded'
p4
(lp5
I64
aI2179
aI394
aI5370
aI7146
aI4585
aI2446
asS'ori'
p6
S'This house would abolish intellectual property rights'
p7
ssS'output'
p8
(dp9
g4
(lp10
I24
aI35
aI2635
aI42
aI7515
aI267
aI1486
aI7
aI4585
aI1136
aI10297
aI4585
aI5
aI1136
aI2733
aI4585
aI5
aI3172
aI63
aI3
aI809
aI116
aI16187
aI63765
asg6
S'In natural resources  he sees two types of property  de jure property (legal title) and de facto property (physical possession)  and argues that the former is illegitimate .'
p11
ss.