(dp1
S'input'
p2
(dp3
S'encoded'
p4
(lp5
I64
aI2179
aI394
aI190
aI3
aI21
aI45
aI3895
aI834
asS'ori'
p6
S'This house would limit the right to bear arms'
p7
ssS'output'
p8
(dp9
g4
(lp10
I2762
aI3456
aI15794
aI116
aI89
aI150
aI1862
aI34
aI200
aI2611
aI2617
aI63
aI25296
aI14
aI3
aI2167
aI4544
aI24
aI3099
aI19154
aI5
aI2762
aI9724
aI63765
asg6
S'Project Safe Neighborhoods (PSN) is a national strategy for reducing gun violence that builds on the strategies implemented in Operation Ceasefire and Project Exile  .'
p11
ss.