(dp1
S'input'
p2
(dp3
S'encoded'
p4
(lp5
I64
aI2179
aI235
aI3858
aI3
aI2240
aI4527
aI3485
aI45
asS'ori'
p6
S'This house supports raising the school leaving age to 18'
p7
ssS'output'
p8
(dp9
g4
(lp10
I6806
aI4204
aI2891
aI1298
aI2604
aI3005
aI311
aI3
aI8890
aI14478
aI5
aI229
aI2363
aI63
aI463
aI316
aI717
aI14
aI100
aI4636
aI5277
aI5
aI3930
aI417
aI316
aI3
aI22822
aI7
aI351
aI83
aI316
aI4659
aI4825
aI5
aI4659
aI417
aI2773
aI51
aI7464
aI1629
aI7
aI17482
aI3005
aI114
aI2877
aI88
aI1068
aI45
aI11788
aI24
aI417
aI4447
aI45
aI89
aI2573
aI24
aI4204
aI2891
aI226
aI108
aI1636
aI100
aI2987
aI417
aI316
aI9033
aI14
aI51
aI918
aI7142
aI7
aI150
aI4836
aI311
aI380
aI2363
aI63765
asg6
S'Sustainable capacity development requires complex interventions at the institutional  organizational and individual levels that could be based on some foundational principles:national leadership and ownership should be the touchstone of any intervention;strategies must be context relevant and context specific;they should embrace an integrated set of complementary interventions  though implementation may need to proceed in steps;partners should commit to a long-term investment in capacity development  while working towards some short-term achievements;outside intervention should be conditional on an impact assessment of national capacities at various levels .'
p11
ss.