(dp1
S'input'
p2
(dp3
S'encoded'
p4
(lp5
I64
aI2179
aI43
aI63
aI3376
aI4938
aI417
aI316
aI3537
asS'ori'
p6
S'This house believes that endangered species should be protected'
p7
ssS'output'
p8
(dp9
g4
(lp10
I7227
aI5
aI1499
aI14
aI3
aI1496
aI4935
aI7
aI385
aI158
aI271
aI2445
aI5
aI2637
aI3527
aI2231
aI5
aI35
aI2938
aI63765
asg6
S'Recognise and build on the distinctive characteristics of cities  including their human and cultural values  history and natural systems .'
p11
ss.