(dp1
S'input'
p2
(dp3
S'encoded'
p4
(lp5
I64
aI2179
aI394
aI117
aI7428
aI21151
aI34
aI11389
aI2042
aI24
aI4364
asS'ori'
p6
S'This house would only teach abstinence for sex education in schools'
p7
ssS'output'
p8
(dp9
g4
(lp10
I3
aI475
aI7
aI100
aI3101
aI3102
aI139
aI1944
aI49728
aI13628
aI63765
asg6
S'The use of some illicit drugs can involve hypodermic needles .'
p11
ss.