(dp1
S'input'
p2
(dp3
S'encoded'
p4
(lp5
I64
aI2179
aI394
aI163
aI959
aI2042
aI3557
asS'ori'
p6
S'This house would make physical education compulsory'
p7
ssS'output'
p8
(dp9
g4
(lp10
I64
aI458
aI113
aI114
aI28283
aI11786
aI16356
aI1472
aI19
aI45
aI63765
asg6
S'This occurred even though dietary fat intake decreased from 34% to 27%  .'
p11
ss.