(dp1
S'input'
p2
(dp3
S'encoded'
p4
(lp5
I64
aI2179
aI43
aI63
aI3376
aI4938
aI417
aI316
aI3537
asS'ori'
p6
S'This house believes that endangered species should be protected'
p7
ssS'output'
p8
(dp9
g4
(lp10
I64
aI3566
aI122
aI3619
aI45
aI96
aI5344
aI22033
aI7
aI4991
aI20607
aI5
aI12200
aI63765
asg6
S'This justification was offered to support secular takings of church endowments and properties  .'
p11
ss.