(dp1
S'input'
p2
(dp3
S'encoded'
p4
(lp5
I64
aI2179
aI43
aI24
aI3
aI475
aI7
aI12436
aI3364
asS'ori'
p6
S'This house believes in the use of affirmative action'
p7
ssS'output'
p8
(dp9
g4
(lp10
I41526
aI3
aI2533
aI174
aI1298
aI211
aI4615
aI45
aI14854
aI12511
aI2381
aI5
aI16756
aI3834
aI24
aI12395
aI2142
aI63765
asg6
S'Controversially  the Convention also requires its parties to outlaw hate speech and criminalize membership in racist organizations  .'
p11
ss.