(dp1
S'input'
p2
(dp3
S'encoded'
p4
(lp5
I64
aI2179
aI394
aI5284
aI150
aI3987
asS'ori'
p6
S'This house would reintroduce national service'
p7
ssS'output'
p8
(dp9
g4
(lp10
I3
aI325
aI5262
aI4251
aI24
aI667
aI2086
aI4996
aI24
aI492
aI2686
aI1156
aI5307
aI81
aI440
aI12
aI2340
aI588
aI41
aI2144
aI45
aI5905
aI3
aI4448
aI2490
aI99
aI509
aI134
aI221
aI86
aI4890
aI34
aI3
aI5262
aI63765
asg6
S'The great draft riot in New York City in July 1863 involved Irish immigrants who had been signed up as citizens to swell the machine vote  not realizing it made them liable for the draft .'
p11
ss.