(dp1
S'input'
p2
(dp3
S'encoded'
p4
(lp5
I64
aI2179
aI43
aI63
aI3
aI21
aI45
aI12715
aI417
aI99
aI316
aI2897
asS'ori'
p6
S'This house believes that the right to asylum should not be absolute'
p7
ssS'output'
p8
(dp9
g4
(lp10
I2032
aI16
aI4471
aI7
aI1968
aI2610
aI1074
aI3397
aI5980
aI5
aI1603
aI7
aI5853
aI63765
asg6
S'Proposed economic models of illegal immigration include varying considerations and degrees of complexity .'
p11
ss.