(dp1
S'input'
p2
(dp3
S'encoded'
p4
(lp5
I64
aI2179
aI43
aI24
aI3
aI475
aI7
aI12436
aI3364
asS'ori'
p6
S'This house believes in the use of affirmative action'
p7
ssS'output'
p8
(dp9
g4
(lp10
I2477
aI6760
aI3
aI5745
aI5
aI11048
aI7
aI3
aI2164
aI7
aI2450
aI3
aI7
aI2450
aI712
aI7
aI3
aI2482
aI2483
aI3
aI177
aI3744
aI8384
aI3
aI2789
aI7
aI2131
aI658
aI3987
aI2130
aI2789
aI7
aI3
aI10
aI658
aI3987
aI2130
aI2217
aI4168
aI9579
aI37022
aI7
aI2450
aI73
aI351
aI2007
aI795
aI1589
aI7
aI89
aI2477
aI580
aI63765
asg6
S'|-- Constitutional Posts The sons and daughters of the President of India  the Vice-President of India  Judges of the Supreme Court  the High Courts Chairman  the members of Union Public Service Commission  members of the State Public Service Commission  Chief Election Commissioner Comptroller  Auditor-General of India or any person holding positions of a constitutional nature  .'
p11
ss.