(dp1
S'input'
p2
(dp3
S'encoded'
p4
(lp5
I64
aI2179
aI394
aI4325
aI2042
aI270
aI89
aI11605
aI3324
asS'ori'
p6
S'This house would fund education using a voucher scheme'
p7
ssS'output'
p8
(dp9
g4
(lp10
I42
aI2807
aI2710
aI14
aI479
aI8906
aI137
aI131
aI174
aI2538
aI63
aI273
aI100
aI17908
aI7
aI3
aI7632
aI3440
aI7
aI3
aI604
aI134
aI122
aI89
aI5547
aI7494
aI5
aI1404
aI4616
asg6
S'He opposes dependency on paper fiat money  but also says that there "were some shortcomings of the gold standard of the 19th century. because it was a fixed price and caused confusion ."'
p11
ss.