(dp1
S'input'
p2
(dp3
S'encoded'
p4
(lp5
I64
aI2179
aI43
aI63
aI2659
aI417
aI1690
aI3
aI12048
aI7
aI19084
asS'ori'
p6
S'This house believes that Israel should lift the blockade of Gaza'
p7
ssS'output'
p8
(dp9
g4
(lp10
I3
aI31530
aI5
aI2161
aI34
aI2135
aI2181
aI31531
aI30137
aI2820
aI2659
aI45
aI342
aI533
aI5
aI7132
aI45
aI3
aI6056
aI19386
aI63
aI3
aI19096
aI98
aI1958
aI1608
aI3427
aI768
aI2659
aI83
aI5982
aI223
aI748
aI533
aI5
aI1292
aI351
aI475
aI7
aI2157
aI972
aI257
aI3438
aI45
aI3212
aI271
aI2348
aI12048
aI63765
asg6
S': The Tanaiste and Minister for Foreign Affairs  Eamon Gilmore  urged Israel to show restraint and emphasised to the Israeli ambassador that "if the flotilla does sail next week  then Israel must exercise all possible restraint and avoid any use of military force if attempting to uphold their naval blockade .'
p11
ss.