(dp1
S'input'
p2
(dp3
S'encoded'
p4
(lp5
I64
aI2179
aI43
aI63
aI187
aI417
aI99
aI16642
aI3
aI6449
aI7
aI3935
asS'ori'
p6
S'This house believes that states should not subsidize the growing of tobacco'
p7
ssS'output'
p8
(dp9
g4
(lp10
I89
aI1341
aI2035
aI63
aI2942
aI14
aI3314
aI3495
aI24
aI89
aI1896
aI3010
aI1560
aI5
aI5025
aI2203
aI2450
aI5
aI2661
aI134
aI122
aI8117
aI63
aI24
aI3010
aI875
aI440
aI3
aI2810
aI126
aI7
aI3935
aI475
aI63765
asg6
S'A particular study that focused on pregnant women in a few Latin American and African countries  India and Pakistan  it was shown that [w]omen in Latin America had the highest level of tobacco use .'
p11
ss.