(dp1
S'input'
p2
(dp3
S'encoded'
p4
(lp5
I64
aI2179
aI43
aI63
aI134
aI116
aI400
aI21
aI34
aI3
aI260
aI45
aI3439
aI57
aI7
aI2381
asS'ori'
p6
S'This house believes that it is sometimes right for the government to restrict freedom of speech'
p7
ssS'output'
p8
(dp9
g4
(lp10
I41
aI89
aI296
aI155
aI1416
aI3
aI11621
aI3274
aI117
aI6114
aI795
aI2248
aI3419
aI24
aI52700
aI646
aI63765
aI52701
aI182
aI89
aI2767
aI78
aI564
aI2825
aI17132
aI89
aI2482
aI63765
asg6
S'As a result  they apply the Lemon Test only selectively  holding Justice Douglas\' statement in Zorach v . Clauson  "[w]e are a religious people whose institutions presuppose a Supreme Being"  .'
p11
ss.