(dp1
S'input'
p2
(dp3
S'encoded'
p4
(lp5
I64
aI2179
aI394
aI475
aI2135
aI2194
aI6198
aI45
aI2041
aI5
aI13926
aI8732
aI63
aI1735
aI12708
aI5
aI5599
aI24
aI2203
aI45
aI1397
aI7149
aI5
aI12311
aI271
aI5119
aI4948
asS'ori'
p6
S'This house would use foreign aid funds to research and distribute software that allows bloggers and journalists in non-democratic countries to evade censorship and conceal their online activities'
p7
ssS'output'
p8
(dp9
g4
(lp10
I24
aI68
aI725
aI2203
aI638
aI3
aI285
aI158
aI100
aI3049
aI60
aI572
aI3787
aI7
aI2369
aI96
aI34
aI57
aI7
aI4640
aI5
aI57
aI7
aI3
aI2961
aI182
aI8790
aI24
aI100
aI532
aI7
aI5119
aI7149
aI153
aI60
aI1182
aI658
aI96
aI63765
asg6
S'In fact  many countries throughout the world  including some democracies with long traditions of strong support for freedom of expression and freedom of the press  are engaged in some amount of online censorship  often with substantial public support  .'
p11
ss.