(dp1
S'input'
p2
(dp3
S'encoded'
p4
(lp5
I64
aI2179
aI394
aI4325
aI2042
aI270
aI89
aI11605
aI3324
asS'ori'
p6
S'This house would fund education using a voucher scheme'
p7
ssS'output'
p8
(dp9
g4
(lp10
I2503
aI3592
aI7
aI2015
aI2041
aI4641
aI3
aI30753
aI7
aI747
aI1191
aI61
aI1486
aI7
aI2041
aI34
aI61
aI7438
aI47
aI316
aI3251
aI63765
asg6
S'Federal funding of medical research guarantees the politicization of decisions about what types of research for what diseases will be funded .'
p11
ss.