(dp1
S'input'
p2
(dp3
S'encoded'
p4
(lp5
I64
aI2179
aI394
aI60
aI23587
asS'ori'
p6
S'This house would re-engage with Myanmar'
p7
ssS'output'
p8
(dp9
g4
(lp10
I3
aI5711
aI5
aI5761
aI3162
aI1453
aI378
aI619
aI2767
aI9665
aI5
aI134
aI116
aI1273
aI257
aI99
aI6278
aI34
aI45
aI5873
aI3
aI202
aI73
aI1192
aI260
aI6025
aI3
aI1410
aI6031
aI45
aI1350
aI24
aI3
aI2696
aI63765
asg6
S'The Christian and Muslim populations do  however  face religious persecution and it is hard  if not impossible  for non-Buddhists to join the army or get government jobs  the main route to success in the country  .'
p11
ss.