(dp1
S'input'
p2
(dp3
S'encoded'
p4
(lp5
I64
aI2179
aI43
aI63
aI1036
aI4828
aI33250
aI116
aI25073
aI45
aI3315
aI4562
asS'ori'
p6
S'This house believes that male infant circumcision is tantamount to child abuse'
p7
ssS'output'
p8
(dp9
g4
(lp10
I3
aI12716
aI5047
aI63
aI16445
aI33250
aI122
aI566
aI60
aI1016
aI2038
aI7
aI16456
aI33262
aI5057
aI17855
aI131
aI99
aI25328
aI24
aI60350
aI63765
asg6
S'The authors reported that neonatal circumcision was associated with reduced risk of invasive penile cancer (OR 0 .41; 95% CI 0 .131 .1) but not carcinoma in situ .'
p11
ss.