(dp1
S'input'
p2
(dp3
S'encoded'
p4
(lp5
I64
aI2179
aI43
aI63
aI1036
aI4828
aI33250
aI116
aI25073
aI45
aI3315
aI4562
asS'ori'
p6
S'This house believes that male infant circumcision is tantamount to child abuse'
p7
ssS'output'
p8
(dp9
g4
(lp10
I11551
aI7
aI3
aI33218
aI45
aI3
aI9535
aI5
aI60368
aI33220
aI33221
aI857
aI33288
aI63765
asg6
S'Adherence of the foreskin to the inflamed and edematous glans penis causes phimosis .'
p11
ss.