(dp1
S'input'
p2
(dp3
S'encoded'
p4
(lp5
I64
aI2179
aI394
aI5370
aI3
aI5286
asS'ori'
p6
S'This house would abolish the monarchy'
p7
ssS'output'
p8
(dp9
g4
(lp10
I114
aI3
aI2165
aI2470
aI254
aI289
aI3
aI260
aI7
aI3
aI626
aI2549
aI116
aI637
aI75
aI5
aI620
aI3
aI4137
aI22787
aI132
aI2280
aI88
aI117
aI316
aI416
aI233
aI45
aI2511
aI3581
aI24
aI4679
aI5
aI24
aI1485
aI545
aI3
aI8987
aI7
aI2533
aI5
aI3846
aI63765
asg6
S"Though the ultimate executive authority over the government of the United Kingdom is still by and through the monarch's royal prerogative  these powers may only be used according to laws enacted in Parliament  and  in practice  within the constraints of convention and precedent ."
p11
ss.