(dp1
S'input'
p2
(dp3
S'encoded'
p4
(lp5
I64
aI2179
aI394
aI190
aI3
aI21
aI45
aI3895
aI834
asS'ori'
p6
S'This house would limit the right to bear arms'
p7
ssS'output'
p8
(dp9
g4
(lp10
I226
aI134
aI500
aI99
aI4675
aI2388
aI2051
aI14
aI3
aI3930
aI7
aI1374
aI34
aI3923
aI134
aI122
aI441
aI45
aI10008
aI3
aI3923
aI2446
aI7
aI3
aI916
aI5692
aI5
aI116
aI2195
aI45
aI3
aI5399
aI21
aI45
aI13613
aI73
aI3467
aI2518
aI2388
aI20540
aI63765
asg6
S'While it did not override earlier restrictions on the ownership of guns for hunting  it was written to preserve the hunting rights of the landed aristocracy and is subject to the parliamentary right to implicitly or explicitly repeal earlier enactments  .'
p11
ss.