(dp1
S'input'
p2
(dp3
S'encoded'
p4
(lp5
I64
aI2179
aI43
aI63
aI3
aI28431
aI7
aI2157
aI4624
aI75
aI39939
aI27257
aI122
aI4850
asS'ori'
p6
S'This house believes that the leaking of military documents by Anat Kamm was justified'
p7
ssS'output'
p8
(dp9
g4
(lp10
I89
aI3388
aI5520
aI1560
aI4769
aI742
aI2962
aI382
aI513
aI45
aI316
aI89
aI7877
aI7
aI30970
aI5
aI5
aI382
aI30971
aI864
aI41
aI155
aI871
aI588
aI3
aI8126
aI7
aI2636
aI63765
asg6
S'A retired senior American officer said ground-level reports were considered to be a mixture of "rumours  bullshit and second-hand information" and were weeded out as they passed up the chain of command .'
p11
ss.