(dp1
S'input'
p2
(dp3
S'encoded'
p4
(lp5
I64
aI2179
aI43
aI63
aI134
aI116
aI400
aI21
aI34
aI3
aI260
aI45
aI3439
aI57
aI7
aI2381
asS'ori'
p6
S'This house believes that it is sometimes right for the government to restrict freedom of speech'
p7
ssS'output'
p8
(dp9
g4
(lp10
I36502
aI5598
aI3
aI13347
aI7
aI3
aI2130
aI45
aI84
aI588
aI3
aI845
aI5
aI3761
aI134
aI45
aI9925
aI1063
aI11268
aI8316
aI45
aI3
aI2618
aI63
aI42
aI394
aI768
aI84
aI9029
aI736
aI3
aI212
aI3744
aI53
aI784
aI2665
aI2439
aI7
aI279
aI394
aI2118
aI45
aI25
aI2194
aI63765
asg6
S'Levant questioned the competence of the Commission to take up the issue  and challenged it to convict him  "and sentences me to the apology"  stating that he would then take "this junk into the real courts  where eight hundred years of common law" would come to his aid  .'
p11
ss.