(dp1
S'input'
p2
(dp3
S'encoded'
p4
(lp5
I64
aI2179
aI43
aI63
aI3
aI4538
aI7
aI4434
aI7793
aI283
aI45
aI3586
aI417
aI316
aI577
asS'ori'
p6
S'This house believes that the sale of violent video games to minors should be banned'
p7
ssS'output'
p8
(dp9
g4
(lp10
I24
aI3
aI7854
aI3569
aI34
aI92
aI7088
aI3073
aI382
aI119
aI89
aI4534
aI4370
aI3714
aI27605
aI75
aI3
aI4367
aI34
aI4368
aI708
aI5
aI2466
aI5
aI2557
aI4233
aI10504
aI7
aI2145
aI63765
aI177
aI2240
aI4358
aI353
aI63
aI7
aI4358
aI2566
aI89
aI1942
aI63765
asg6
S'In 2007  the latest year for which comprehensive data were available  a nationwide survey  conducted biennially by the Centers for Disease Control and Prevention (CDC) and involving representative samples of U .S . high school students  found that 5 .9% of students carried a weapon (e .g .'
p11
ss.