(dp1
S'input'
p2
(dp3
S'encoded'
p4
(lp5
I64
aI2179
aI43
aI63
aI3
aI4990
aI4991
aI116
aI4850
aI24
aI12166
aI3
aI475
aI7
aI3532
aI3290
aI7
aI4714
asS'ori'
p6
S'This house believes that the Catholic Church is justified in forbidding the use of barrier methods of contraception'
p7
ssS'output'
p8
(dp9
g4
(lp10
I41
aI7
aI3
aI21152
aI122
aI99
aI520
aI45
aI192
aI604
aI3
aI32518
aI413
aI463
aI99
aI316
aI1016
aI470
aI267
aI45
aI292
aI571
aI63765
asg6
S'As of 2009  the spray-on condom was not going to market because the drying time could not be reduced below two to three minutes  .'
p11
ss.