(dp1
S'input'
p2
(dp3
S'encoded'
p4
(lp5
I64
aI2179
aI43
aI63
aI820
aI12564
aI182
aI3
aI217
aI1112
aI1869
aI7
aI10656
aI4672
aI34
aI5276
asS'ori'
p6
S'This house believes that open primaries are the most effective method of selecting candidates for elections'
p7
ssS'output'
p8
(dp9
g4
(lp10
I24
aI4192
aI4581
aI134
aI116
aI1360
aI5810
aI63
aI11479
aI4275
aI24
aI12576
aI12577
aI11
aI3382
aI34
aI3
aI17
aI188
aI5
aI5428
aI171
aI45
aI881
aI12578
aI12579
aI19
aI12580
aI159
aI5529
aI63765
asg6
S'In Northern Ireland  it is widely believed that (predominantly Protestant) Unionist voters in Nationalist strongholds have voted for the Social Democratic and Labour Party (SDLP) to prevent Sinn Fein from capturing such seats .'
p11
ss.