(dp1
S'input'
p2
(dp3
S'encoded'
p4
(lp5
I64
aI2179
aI43
aI63
aI2157
aI2565
aI493
aI19084
aI382
aI4850
asS'ori'
p6
S"This house believes that Israel's 2008-2009 military operations against Gaza were justified"
p7
ssS'output'
p8
(dp9
g4
(lp10
I22312
aI8672
aI34
aI3
aI96
aI7
aI2659
aI10725
aI75
aI3
aI8446
aI2178
aI7
aI22312
aI63765
asg6
S'|- Antwerp 800 Protest for the support of Israel organised by the Jewish community of Antwerp .'
p11
ss.