(dp1
S'input'
p2
(dp3
S'encoded'
p4
(lp5
I64
aI2179
aI394
aI16756
aI20435
asS'ori'
p6
S'This house would criminalize blasphemy'
p7
ssS'output'
p8
(dp9
g4
(lp10
I63040
aI2648
aI63765
aI63041
aI9703
aI5
aI5761
aI1560
aI3024
aI1966
aI63
aI3
aI14852
aI382
aI51
aI5982
aI24
aI12511
aI958
aI138
aI1260
aI2381
aI63765
asg6
S'Louay M . Safi  scholar and Muslim American leaders argued that the cartoons were an exercise in hate  rather than free  speech  .'
p11
ss.