(dp1
S'input'
p2
(dp3
S'encoded'
p4
(lp5
I64
aI2179
aI394
aI2017
aI262
asS'ori'
p6
S'This house would ban boxing'
p7
ssS'output'
p8
(dp9
g4
(lp10
I844
aI7
aI132
aI442
aI88
aI316
aI743
aI75
aI3
aI288
aI81
aI88
aI845
aI846
aI847
aI524
aI73
aI848
aI51
aI849
aI484
aI850
aI51
aI851
aI852
aI853
aI14
aI3
aI854
aI5
aI855
aI7
aI3
aI810
aI63765
asg6
S'Violations of these rules may be ruled "fouls" by the referee  who may issue warnings  deduct points  or disqualify an offending boxer  causing an automatic loss  depending on the seriousness and intentionality of the foul .'
p11
ss.