(dp1
S'input'
p2
(dp3
S'encoded'
p4
(lp5
I64
aI2179
aI235
aI839
aI4168
aI7
aI4996
aI34759
asS'ori'
p6
S'This house supports direct election of city mayors'
p7
ssS'output'
p8
(dp9
g4
(lp10
I11617
aI1057
aI45
aI3018
aI2938
aI100
aI2742
aI63765
asg6
S'Single-member districts tend to promote two-party systems (with some regional parties) .'
p11
ss.