(dp1
S'input'
p2
(dp3
S'encoded'
p4
(lp5
I64
aI2179
aI43
aI63
aI3
aI21
aI45
aI12715
aI417
aI99
aI316
aI2897
asS'ori'
p6
S'This house believes that the right to asylum should not be absolute'
p7
ssS'output'
p8
(dp9
g4
(lp10
I890
aI3
aI17491
aI1735
aI86
aI117
aI45
aI1223
aI24
aI3
aI2696
aI131
aI24
aI1485
aI3
aI10
aI174
aI1735
aI3
aI7477
aI45
aI79
aI5
aI30076
aI3530
aI7586
aI14
aI3
aI6056
aI9452
aI81
aI1026
aI86
aI63765
asg6
S'Officially  the visa allows them only to stay in the country  but in practice the state also allows the refugees to work and avoids imposing fines on the Israeli employers who employ them .'
p11
ss.