(dp1
S'input'
p2
(dp3
S'encoded'
p4
(lp5
I64
aI2179
aI43
aI63
aI3
aI21
aI45
aI12715
aI417
aI99
aI316
aI2897
asS'ori'
p6
S'This house believes that the right to asylum should not be absolute'
p7
ssS'output'
p8
(dp9
g4
(lp10
I7
aI10104
aI221
aI2853
aI147
aI60
aI443
aI6485
aI2554
aI81
aI382
aI508
aI843
aI12677
aI42150
aI73
aI252
aI351
aI1994
aI6485
aI24
aI4281
aI63765
asg6
S'21% of arrests made concerned individuals with no residence status  who were thus either sans papiers or "crime tourists" without any permanent residence in Switzerland  .'
p11
ss.