(dp1
S'input'
p2
(dp3
S'encoded'
p4
(lp5
I64
aI2179
aI43
aI24
aI3
aI475
aI7
aI12436
aI3364
asS'ori'
p6
S'This house believes in the use of affirmative action'
p7
ssS'output'
p8
(dp9
g4
(lp10
I24
aI2048
aI3
aI2482
aI2483
aI55
aI743
aI63
aI2812
aI5896
aI24
aI6804
aI182
aI4933
aI5
aI2504
aI4563
aI63765
asg6
S'In Sweden  the Supreme Court has ruled that "affirmative action" ethnic quotas in universities are discrimination and hence unlawful .'
p11
ss.