(dp1
S'input'
p2
(dp3
S'encoded'
p4
(lp5
I64
aI2179
aI13605
aI2258
aI45
aI2194
asS'ori'
p6
S'This house prefers trade to aid'
p7
ssS'output'
p8
(dp9
g4
(lp10
I97
aI2198
aI55
aI12
aI63
aI368
aI2203
aI153
aI2762
aI271
aI284
aI1227
aI5
aI3577
aI7624
aI248
aI5989
aI5
aI8175
aI63765
asg6
S'Another criticism has been that Western countries often project their own needs and solutions onto other societies and cultures .'
p11
ss.