(dp1
S'input'
p2
(dp3
S'encoded'
p4
(lp5
I64
aI2179
aI43
aI63
aI3357
aI5003
aI652
aI3
aI188
aI3262
asS'ori'
p6
S'This house believes that opinion polls harm the democratic process'
p7
ssS'output'
p8
(dp9
g4
(lp10
I12540
aI12541
aI55
aI113
aI1966
aI63
aI3
aI10645
aI782
aI463
aI316
aI87
aI2369
aI41
aI45
aI163
aI3
aI3497
aI14467
aI5202
aI9097
aI63765
asg6
S'Gary Becker has even argued that the bandwagon effect could be so strong as to make the demand curve slope upward .'
p11
ss.