(dp1
S'input'
p2
(dp3
S'encoded'
p4
(lp5
I64
aI2179
aI43
aI63
aI134
aI116
aI400
aI21
aI34
aI3
aI260
aI45
aI3439
aI57
aI7
aI2381
asS'ori'
p6
S'This house believes that it is sometimes right for the government to restrict freedom of speech'
p7
ssS'output'
p8
(dp9
g4
(lp10
I3
aI12073
aI7
aI3
aI5606
aI7
aI2332
aI303
aI706
aI75
aI63333
aI63334
aI13670
aI3
aI2546
aI10649
aI14291
aI2126
aI4443
aI75
aI63331
aI604
aI42
aI440
aI480
aI22604
aI7
aI25795
aI9290
aI60
aI97
aI460
aI24
aI667
aI63765
asg6
S"the firing of the director of Paris Match  controlled by Hachette Filipacchi Medias  the world's largest magazine publisher  itself owned by Lagardere  because he had published photos of Cecilia Sarkozy with another man in New York) ."
p11
ss.