(dp1
S'input'
p2
(dp3
S'encoded'
p4
(lp5
I64
aI2179
aI43
aI63
aI3376
aI4938
aI417
aI316
aI3537
asS'ori'
p6
S'This house believes that endangered species should be protected'
p7
ssS'output'
p8
(dp9
g4
(lp10
I3
aI1798
aI7
aI7798
aI116
aI246
aI513
aI45
aI316
aI3
aI1012
aI7
aI3
aI1447
aI229
aI7
aI3
aI4938
aI1381
aI3
aI4204
aI45
aI29527
aI5
aI512
aI88
aI11
aI12
aI6196
aI751
aI64
aI957
aI63765
asg6
S'The moment of extinction is generally considered to be the death of the last individual of the species  although the capacity to breed and recover may have been lost before this point .'
p11
ss.