(dp1
S'input'
p2
(dp3
S'encoded'
p4
(lp5
I64
aI2179
aI394
aI5284
aI150
aI3987
asS'ori'
p6
S'This house would reintroduce national service'
p7
ssS'output'
p8
(dp9
g4
(lp10
I226
aI134
aI122
aI625
aI75
aI3
aI4674
aI7
aI5645
aI3
aI5650
aI7
aI5651
aI4962
aI45
aI11
aI12
aI5652
aI15
aI751
aI5
aI366
aI3
aI4360
aI7
aI3
aI4674
aI63765
asg6
S'While it was outlawed by the Code of Hammurabi  the hiring of substitutes appears to have been practiced both before and after the creation of the code  .'
p11
ss.