(dp1
S'input'
p2
(dp3
S'encoded'
p4
(lp5
I64
aI2179
aI43
aI63
aI134
aI116
aI400
aI21
aI34
aI3
aI260
aI45
aI3439
aI57
aI7
aI2381
asS'ori'
p6
S'This house believes that it is sometimes right for the government to restrict freedom of speech'
p7
ssS'output'
p8
(dp9
g4
(lp10
I3
aI60222
aI440
aI3335
aI292
aI2341
aI3757
aI45
aI5224
aI7112
aI24
aI2779
aI45
aI3322
aI8185
aI14
aI9062
aI63765
asg6
S"The CTF had filed three separate Access to Information Requests in August 2009 to obtain details on Lynch's expenses ."
p11
ss.