(dp1
S'input'
p2
(dp3
S'encoded'
p4
(lp5
I64
aI2179
aI43
aI63
aI2659
aI417
aI1690
aI3
aI12048
aI7
aI19084
asS'ori'
p6
S'This house believes that Israel should lift the blockade of Gaza'
p7
ssS'output'
p8
(dp9
g4
(lp10
I15190
aI19254
aI5
aI30241
aI2906
aI1487
aI73
aI5
aI1313
aI30242
aI5
aI223
aI18851
aI7
aI7413
aI4147
aI6705
aI30243
aI6705
aI6543
aI5
aI2885
aI6704
aI6543
aI2955
aI2885
aI6500
aI34
aI6680
aI5
aI15354
aI311
aI351
aI13270
aI6274
aI6704
aI3229
aI7
aI351
aI30244
aI274
aI34
aI2955
aI6543
aI73
aI30245
aI274
aI34
aI18235
aI6705
aI10381
aI73
aI17651
aI30246
aI136
aI138
aI15708
aI13425
aI5153
aI11561
aI5941
aI5
aI2885
aI11139
aI351
aI30247
aI73
aI211
aI73
aI30248
aI5941
aI5
aI2885
aI34
aI19146
aI5143
aI30249
aI5
aI211
aI4656
aI24
aI8880
aI73
aI24336
aI6704
aI6543
aI73
aI10679
aI2885
aI34
aI2955
aI9806
aI6705
aI6543
aI5
aI2885
aI34
aI24236
aI289
aI2648
aI24
aI13270
aI30243
aI2693
aI5
aI30250
aI4503
aI2252
aI3249
aI6820
aI5
aI158
aI4503
aI5
aI248
aI2890
aI7
aI4502
aI4503
aI4890
aI45
aI316
aI416
aI24
aI2928
aI4948
aI16584
aI30246
aI5
aI5929
aI136
aI138
aI17231
aI13425
aI45
aI316
aI416
aI24
aI30251
aI1653
aI311
aI20093
aI6056
aI1375
aI5427
aI24
aI13361
aI2885
aI2386
aI3808
aI14
aI89
aI33
aI75
aI33
aI2259
aI47
aI316
aI685
aI87
aI41
aI45
aI3830
aI3
aI1649
aI7
aI159
aI16584
aI34
aI248
aI792
aI24
aI19084
aI63765
asg6
S'Portland cement and lime (in bulk  bags or barrels)Natural and Quarry aggregates and all varieties of gravel Ready concrete Precast concrete elements and products Steel elements and/or construction products Iron for foundations and columns  at any diameter (including wielded steel nets)Steel cables of any width Forms for construction elements (plastics or galvanized iron)Industrialized forms for casting concrete Plastic or composite beams more than 4 mm thick Thermal isolation materials and products Blocs (at any width) - Concrete; Silicate; Ytong or its equivalent; or gypsum Materials and products for sealing structures Asphalt and its components (Bitumen  emulsion) in aggregate or packaged Steel elements or framing products for construction Cast concrete elements and products for drainage over 1 m in diameter Precast units and sea-borne containers Vehicles  excluding private cars and including 4X4 vehicles and other categories of motor vehicles liable to be used in terror activities Lumber beams and boards more than 2 cm thick  (liable to be used in "offensive" tunneling aimed at penetrating Israeli territory)  unless incorporated in finished products Specific procedures  on a case by case basis  will be established so as to permit the transfer of such lumber for other purposes in Gaza .'
p11
ss.