(dp1
S'input'
p2
(dp3
S'encoded'
p4
(lp5
I64
aI2179
aI394
aI2017
aI223
aI9058
aI23653
asS'ori'
p6
S'This house would ban all unsustainable logging'
p7
ssS'output'
p8
(dp9
g4
(lp10
I7910
aI9619
aI36818
aI7
aI6930
aI6695
aI6696
asg6
S'forests facilitate biosequestration of atmospheric carbon dioxide'
p11
ss.