(dp1
S'input'
p2
(dp3
S'encoded'
p4
(lp5
I64
aI2179
aI43
aI223
aI2138
aI11
aI89
aI21
aI45
aI2185
aI372
asS'ori'
p6
S'This house believes all nations have a right to nuclear weapons'
p7
ssS'output'
p8
(dp9
g4
(lp10
I15
aI2547
aI8103
aI3
aI6775
aI2041
aI5
aI3
aI626
aI187
aI8103
aI8688
aI7
aI528
aI5649
aI2450
aI60
aI3
aI2186
aI2867
aI45
aI836
aI89
aI2185
aI372
aI2326
aI2941
aI36650
aI5190
aI626
aI63765
asg6
S'Both Canada (by supplying the 40 MW research reactor) and the United States (by supplying 21 tons of heavy water) supplied India with the technology necessary to create a nuclear weapons program  dubbed CIRUS (Canada-India Reactor  United States) .'
p11
ss.