(dp1
S'input'
p2
(dp3
S'encoded'
p4
(lp5
I64
aI2179
aI43
aI223
aI2138
aI11
aI89
aI21
aI45
aI2185
aI372
asS'ori'
p6
S'This house believes all nations have a right to nuclear weapons'
p7
ssS'output'
p8
(dp9
g4
(lp10
I14
aI2394
aI42687
aI35169
aI18006
aI5
aI2999
aI14280
aI31090
aI89
aI3630
aI7
aI42688
aI14127
aI311
aI21772
aI556
aI3841
aI462
aI89
aI976
aI3357
aI311
aI3
aI8734
aI7
aI42689
aI92
aI4555
aI4669
aI63765
asg6
S'On 19 December 2005 Rabinder Singh QC and Professor Christine Chinkin  a colleague of Cherie Blair at Matrix Chambers  handed down a legal opinion at the request of Peacerights which specifically addressed  .'
p11
ss.