(dp1
S'input'
p2
(dp3
S'encoded'
p4
(lp5
I64
aI2179
aI394
aI117
aI7428
aI21151
aI34
aI11389
aI2042
aI24
aI4364
asS'ori'
p6
S'This house would only teach abstinence for sex education in schools'
p7
ssS'output'
p8
(dp9
g4
(lp10
I64
aI237
aI2206
aI706
aI7142
aI7
aI3
aI1392
aI7
aI160
aI237
aI4555
aI8069
aI23135
aI9419
aI14759
aI2036
aI63
aI3
aI6856
aI10930
aI136
aI138
aI2639
aI289
aI3
aI237
aI3569
aI7
aI3099
aI63765
asg6
S'This first US controlled assessment of the effectiveness of Housing First specifically targeting chronically homeless alcoholics showed that the programme saved tax-payers more than $4 million over the first year of operation .'
p11
ss.