(dp1
S'input'
p2
(dp3
S'encoded'
p4
(lp5
I64
aI2179
aI394
aI2741
aI3
aI1560
aI6025
aI2784
asS'ori'
p6
S'This house would pass the American Jobs Act'
p7
ssS'output'
p8
(dp9
g4
(lp10
I132
aI78
aI7838
aI51
aI8025
aI34
aI3269
aI63765
asg6
S'These people advocate an "anti-work" ethic for life  .'
p11
ss.