(dp1
S'input'
p2
(dp3
S'encoded'
p4
(lp5
I64
aI2179
aI43
aI63
aI2157
aI2565
aI493
aI19084
aI382
aI4850
asS'ori'
p6
S"This house believes that Israel's 2008-2009 military operations against Gaza were justified"
p7
ssS'output'
p8
(dp9
g4
(lp10
I14
aI2394
aI89
aI19088
aI23814
aI108
aI24
aI3
aI6056
aI5346
aI7
aI31370
aI3396
aI25
aI16086
aI14
aI3
aI536
aI60
aI89
aI31371
aI24851
aI5
aI993
aI869
aI3180
aI5
aI1846
aI588
aI1237
aI80
aI63765
asg6
S"On December 28  2008  a Palestinian laborer working in the Israeli settlement of Modi'in Illit struck his supervisor on the head with a sledehammer  stabbed and injured four civilians  and beat up several others ."
p11
ss.