(dp1
S'input'
p2
(dp3
S'encoded'
p4
(lp5
I64
aI2179
aI43
aI63
aI3
aI28431
aI7
aI2157
aI4624
aI75
aI39939
aI27257
aI122
aI4850
asS'ori'
p6
S'This house believes that the leaking of military documents by Anat Kamm was justified'
p7
ssS'output'
p8
(dp9
g4
(lp10
I20391
aI122
aI89
aI1913
aI5280
aI311
aI89
aI5565
aI2333
aI14
aI492
aI24
aI8611
aI5
aI2523
aI63
aI3
aI3328
aI440
aI11751
aI5914
aI5592
aI375
aI63765
asg6
S'Assange was a surprise speaker at a TED conference on 19 July 2010 in Oxford  and confirmed that the site had begun accepting submissions again  .'
p11
ss.