(dp1
S'input'
p2
(dp3
S'encoded'
p4
(lp5
I64
aI2179
aI43
aI63
aI2203
aI60
aI51
aI997
aI2837
aI21716
aI1636
aI5349
aI417
aI2998
aI8532
aI45
aI3051
aI8578
asS'ori'
p6
S'This house believes that countries with an imbalanced male/female ratio skewed towards males should encourage parents to produce girls'
p7
ssS'output'
p8
(dp9
g4
(lp10
I174
aI166
aI4697
aI7
aI17847
aI10507
aI8481
aI24
aI3162
aI116
aI5810
aI45
aI8953
aI3
aI1036
aI45
aI4015
aI11389
aI2837
aI226
aI100
aI8339
aI6669
aI3217
aI6938
aI182
aI2428
aI45
aI11
aI3
aI1557
aI782
aI63765
asg6
S'Also  higher incidence of Hepatitis B virus in populations is believed to decrease the male to female sex ratio  while some unexplained environmental health hazards are thought to have the opposite effect  .'
p11
ss.