(dp1
S'input'
p2
(dp3
S'encoded'
p4
(lp5
I64
aI2179
aI394
aI5370
aI7146
aI4585
aI2446
asS'ori'
p6
S'This house would abolish intellectual property rights'
p7
ssS'output'
p8
(dp9
g4
(lp10
I19
aI64
aI4921
aI3
aI4676
aI7
aI12717
aI70
aI116
aI622
aI45
aI1255
aI3
aI658
aI127
aI63
aI139
aI4466
aI19
aI3
aI657
aI6932
aI475
aI5
aI19785
aI7
aI89
aI12717
aI79
aI60
aI3
aI1068
aI45
aI124
aI1795
aI191
aI5
aI6752
aI45
aI3
aI10934
aI73
aI9473
aI7
aI3
aI12717
aI75
aI6481
aI89
aI913
aI11844
aI45
aI1893
aI3
aI12717
aI45
aI63
aI760
aI73
aI229
aI63765
asg6
S'From this perspective  the objective of copyright law is primarily to balance the public benefits that can arise from the widespread circulation  use and reuse of a copyright work with the need to provide protection  incentive and reward to the creator or owner of the copyright by granting a limited monopoly to exploit the copyright to that body or individual  .'
p11
ss.