(dp1
S'input'
p2
(dp3
S'encoded'
p4
(lp5
I64
aI2179
aI13605
aI2258
aI45
aI2194
asS'ori'
p6
S'This house prefers trade to aid'
p7
ssS'output'
p8
(dp9
g4
(lp10
I2083
aI3210
aI182
aI89
aI1277
aI191
aI3665
aI63765
asg6
S'Local markets are a key incentive structure .'
p11
ss.