(dp1
S'input'
p2
(dp3
S'encoded'
p4
(lp5
I64
aI2179
aI43
aI17
aI4941
aI857
aI3211
asS'ori'
p6
S'This house believes social deprivation causes crime'
p7
ssS'output'
p8
(dp9
g4
(lp10
I34
aI1343
aI60578
aI3211
aI2923
aI24
aI3
aI5
aI9260
aI7
aI3136
aI7
aI23374
aI8850
aI5
aI7
aI70
aI3353
aI3243
aI63765
asg6
S'For example  Seattles crime network in the 1970s and 80s consisted of groups of businessmen  politicians and of law enforcement officers .'
p11
ss.