(dp1
S'input'
p2
(dp3
S'encoded'
p4
(lp5
I64
aI2179
aI43
aI63
aI2659
aI417
aI1690
aI3
aI12048
aI7
aI19084
asS'ori'
p6
S'This house believes that Israel should lift the blockade of Gaza'
p7
ssS'output'
p8
(dp9
g4
(lp10
I1592
aI3
aI338
aI2232
aI7
aI3
aI667
aI338
aI5277
aI2098
aI3
aI19087
aI1634
aI45
aI3
aI19084
aI966
aI14
aI88
aI34
aI3495
aI3862
aI5
aI1980
aI289
aI63765
asg6
S'Following the Egyptian revolution of 2011  the new Egyptian leadership opened the Rafah crossing to the Gaza Strip on 28 May 2011  for women  children and men over 40  .'
p11
ss.