(dp1
S'input'
p2
(dp3
S'encoded'
p4
(lp5
I64
aI2179
aI43
aI63
aI134
aI116
aI400
aI21
aI34
aI3
aI260
aI45
aI3439
aI57
aI7
aI2381
asS'ori'
p6
S'This house believes that it is sometimes right for the government to restrict freedom of speech'
p7
ssS'output'
p8
(dp9
g4
(lp10
I24
aI32893
aI10951
aI89
aI2924
aI7
aI5332
aI32895
aI19
aI25
aI952
aI60
aI3
aI380
aI2206
aI7149
aI5929
aI92
aI42
aI3367
aI4057
aI9015
aI394
aI316
aI9986
aI45
aI1292
aI63765
asg6
S'In 1927 Hays compiled a list of subjects  culled from his experience with the various US censorship boards  which he felt Hollywood studios would be wise to avoid .'
p11
ss.