(dp1
S'input'
p2
(dp3
S'encoded'
p4
(lp5
I64
aI2179
aI43
aI63
aI2659
aI417
aI1690
aI3
aI12048
aI7
aI19084
asS'ori'
p6
S'This house believes that Israel should lift the blockade of Gaza'
p7
ssS'output'
p8
(dp9
g4
(lp10
I42
aI206
aI2791
aI211
aI12048
aI2659
aI440
aI443
aI2514
aI45
aI84
aI3
aI2414
aI8416
aI311
aI271
aI414
aI41
aI45
aI3
aI580
aI7
aI3
aI11949
aI63765
asg6
S'He wrote: Having announced its blockade  Israel had no obligation to take the ships crew at their word as to the nature of the cargo .'
p11
ss.