(dp1
S'input'
p2
(dp3
S'encoded'
p4
(lp5
I64
aI2179
aI394
aI4325
aI2042
aI270
aI89
aI11605
aI3324
asS'ori'
p6
S'This house would fund education using a voucher scheme'
p7
ssS'output'
p8
(dp9
g4
(lp10
I397
aI3
aI2606
aI3007
aI353
aI1020
aI75
aI3
aI8385
aI773
aI87
aI9409
aI7
aI2223
aI92
aI1721
aI45
aI8397
aI7687
aI63
aI122
aI1578
aI41
aI89
aI63765
asg6
S'During the 2003 invasion  Paul found himself "annoyed by the evangelicals being so supportive of pre-emptive war  which seems to contradict everything that [he] was taught as a Christian"  .'
p11
ss.