(dp1
S'input'
p2
(dp3
S'encoded'
p4
(lp5
I64
aI2179
aI394
aI2017
aI262
asS'ori'
p6
S'This house would ban boxing'
p7
ssS'output'
p8
(dp9
g4
(lp10
I397
aI1584
aI1580
aI3
aI1582
aI24
aI3
aI1585
aI7
aI3
aI910
aI1586
aI237
aI226
aI3
aI1557
aI1582
aI146
aI3
aI972
aI1587
aI45
aI831
aI3
aI760
aI63765
asg6
S'During lateral motion the leg in the direction of the movement moves first while the opposite leg provides the force needed to move the body .'
p11
ss.