(dp1
S'input'
p2
(dp3
S'encoded'
p4
(lp5
I64
aI2179
aI13605
aI2258
aI45
aI2194
asS'ori'
p6
S'This house prefers trade to aid'
p7
ssS'output'
p8
(dp9
g4
(lp10
I42
aI116
aI3
aI3698
aI7
aI3
aI13092
aI13180
aI34
aI29322
aI5
aI58813
aI24
aI3
aI19059
aI3
aI965
aI6171
aI6668
aI3
aI58814
aI2997
aI45
aI2194
aI3
aI573
aI11
aI3818
aI87
aI165
aI7091
aI5
aI87
aI207
aI1228
aI248
aI3955
aI5
aI3567
aI24
aI46741
aI7800
aI13848
aI63765
asg6
S"He is the author of The Elusive Quest for Growth: Economists' Adventures and Misadventures in the Tropics (MIT  2001)  The White Mans Burden: Why the Wests Efforts to Aid the Rest Have Done So Much Ill and So Little Good (Penguin  2006)  3 other co-edited books  and 46 articles in refereed economics journals ."
p11
ss.