(dp1
S'input'
p2
(dp3
S'encoded'
p4
(lp5
I64
aI2179
aI43
aI63
aI2157
aI2565
aI493
aI19084
aI382
aI4850
asS'ori'
p6
S"This house believes that Israel's 2008-2009 military operations against Gaza were justified"
p7
ssS'output'
p8
(dp9
g4
(lp10
I3
aI2490
aI34
aI3
aI24858
aI9596
aI15823
aI3
aI905
aI122
aI3363
aI14
aI2871
aI487
aI3
aI7807
aI24
aI2927
aI366
aI19088
aI10848
aI3722
aI211
aI96
aI34
aI89
aI9596
aI3544
aI459
aI528
aI2145
aI63765
aI1347
aI63765
asg6
S"The vote for the UNHRC resolution endorsing the report was delayed on 2 October 2009 until the council's meeting in March 2010  after Palestinian delegation dropped its support for a resolution  apparently under heavy U .S . pressure  ."
p11
ss.