(dp1
S'input'
p2
(dp3
S'encoded'
p4
(lp5
I64
aI2179
aI43
aI17
aI4941
aI857
aI3211
asS'ori'
p6
S'This house believes social deprivation causes crime'
p7
ssS'output'
p8
(dp9
g4
(lp10
I10586
aI7196
aI7196
aI24371
aI31919
aI7517
aI31919
aI5
aI248
aI60561
aI31919
aI182
aI3
aI217
aI279
aI5
aI217
aI1360
aI416
aI274
aI7
aI3914
aI7300
aI114
aI60
aI3
aI4038
aI7
aI17
aI15073
aI14014
aI12749
aI2156
aI5
aI248
aI18286
aI73
aI20937
aI364
aI55
aI1199
aI13314
aI63765
asg6
S'Email fraud  advance-fee fraud  romance scams  employment scams  and other phishing scams are the most common and most widely used forms of identity theft  though with the advent of social networking fake websites  accounts and other fraudulent or deceitful activity has become commonplace .'
p11
ss.