(dp1
S'input'
p2
(dp3
S'encoded'
p4
(lp5
I64
aI2179
aI394
aI2017
aI3807
aI314
aI3433
asS'ori'
p6
S'This house would ban partial birth abortions'
p7
ssS'output'
p8
(dp9
g4
(lp10
I8499
aI9183
aI1928
aI33
aI45
aI45
aI316
aI513
aI14
aI211
aI284
aI3349
aI5
aI3
aI752
aI45
aI316
aI788
aI366
aI6076
aI60
aI89
aI8492
aI16692
aI45
aI1985
aI702
aI14
aI159
aI4114
asg6
S'Judaism expects every case [related to abortion] to be considered on its own merits and the decision to be taken after consultation with a rabbi competent to give advice on such matters ."'
p11
ss.