(dp1
S'input'
p2
(dp3
S'encoded'
p4
(lp5
I64
aI2179
aI43
aI24
aI3
aI475
aI7
aI12436
aI3364
asS'ori'
p6
S'This house believes in the use of affirmative action'
p7
ssS'output'
p8
(dp9
g4
(lp10
I4741
aI27133
aI89
aI63765
aI496
aI1330
aI11745
aI63765
aI6303
aI9873
aI8844
aI63765
aI1309
aI5
aI3007
aI2365
aI63765
aI44537
aI353
aI63
aI366
aI9079
aI34
aI3874
aI112
aI4699
aI2038
aI2322
aI60
aI1879
aI3716
aI6811
aI12537
aI887
aI5946
aI5844
aI45
aI2439
aI5
aI5844
aI45
aI2439
aI63765
asg6
S'Researchers Sharon A . Jackson  Roger T . Anderson  Norman J . Johnson and Paul D . Sorlie found that  after adjustment for family income  mortality risk increased with increasing minority residential segregation among Blacks aged 25 to 44 years and non-Blacks aged 45 to 64 years .'
p11
ss.