(dp1
S'input'
p2
(dp3
S'encoded'
p4
(lp5
I64
aI2179
aI394
aI2998
aI3
aI4360
aI7
aI3249
aI6804
aI24
aI3
aI102
asS'ori'
p6
S'This house would encourage the creation of private universities in the UK'
p7
ssS'output'
p8
(dp9
g4
(lp10
I93
aI3059
aI7
aI3
aI6225
aI116
aI4443
aI75
aI5520
aI7239
aI158
aI14027
aI5
aI3
aI573
aI75
aI3249
aI7192
aI158
aI89
aI5100
aI19
aI4281
aI5
aI292
aI169
aI14052
aI14053
aI2681
aI14054
aI5
aI1091
aI2839
aI63765
aI11192
aI63765
asg6
S'One third of the enterprise is owned by 14 senior academics  including Grayling  and the rest by private investors  including a couple from Switzerland and three British businessmenJeremy Gibbs  Matthew Batstone and Roy W . Brown  .'
p11
ss.