(dp1
S'input'
p2
(dp3
S'encoded'
p4
(lp5
I64
aI2179
aI43
aI63
aI1036
aI4828
aI33250
aI116
aI25073
aI45
aI3315
aI4562
asS'ori'
p6
S'This house believes that male infant circumcision is tantamount to child abuse'
p7
ssS'output'
p8
(dp9
g4
(lp10
I20270
aI7
aI3
aI11271
aI11272
aI60381
aI25216
aI5
aI139
aI246
aI316
aI794
aI775
aI60
aI39872
aI114
aI24
aI6418
aI3052
aI155
aI139
aI48
aI45
aI136
aI2034
aI3020
aI63765
asg6
S'Infections of the urinary tract (kidneys  ureters  bladder and urethra) can generally be treated effectively with antibiotics  though in rare cases they can lead to more serious conditions .'
p11
ss.