(dp1
S'input'
p2
(dp3
S'encoded'
p4
(lp5
I64
aI2179
aI43
aI17
aI4941
aI857
aI3211
asS'ori'
p6
S'This house believes social deprivation causes crime'
p7
ssS'output'
p8
(dp9
g4
(lp10
I10725
aI3211
aI3136
aI182
aI1038
aI75
aI3
aI448
aI27490
aI7
aI271
aI2372
aI5143
aI63765
asg6
S'Bureaucratic/corporate organised crime groups are defined by the general rigidity of their internal structures .'
p11
ss.