(dp1
S'input'
p2
(dp3
S'encoded'
p4
(lp5
I64
aI2179
aI394
aI2017
aI223
aI9058
aI23653
asS'ori'
p6
S'This house would ban all unsustainable logging'
p7
ssS'output'
p8
(dp9
g4
(lp10
I7809
aI23660
aI75
aI24
aI2449
aI45
aI567
aI3131
aI233
aI45
aI878
aI260
aI3073
aI63765
asg6
S"Deforestation jumped by 69% in 2008 compared to 2007's twelve months  according to official government data  ."
p11
ss.