(dp1
S'input'
p2
(dp3
S'encoded'
p4
(lp5
I64
aI2179
aI43
aI223
aI2138
aI11
aI89
aI21
aI45
aI2185
aI372
asS'ori'
p6
S'This house believes all nations have a right to nuclear weapons'
p7
ssS'output'
p8
(dp9
g4
(lp10
I24
aI492
aI3
aI27120
aI2791
aI63
aI2046
aI55
aI244
aI45
aI501
aI16374
aI45
aI2772
aI211
aI33557
aI2185
aI1344
aI5
aI75
aI2779
aI89
aI7074
aI34
aI7249
aI3
aI30391
aI11695
aI16855
aI1344
aI47
aI11
aI12
aI33558
aI63765
asg6
S'In July 2007 the IAEA announced that Iran has agreed to allow inspectors to visit its Arak nuclear plant  and by August 2007 a plan for monitoring the Natanz uranium enrichment plant will have been finalised  .'
p11
ss.