(dp1
S'input'
p2
(dp3
S'encoded'
p4
(lp5
I64
aI2179
aI43
aI63
aI2659
aI417
aI1690
aI3
aI12048
aI7
aI19084
asS'ori'
p6
S'This house believes that Israel should lift the blockade of Gaza'
p7
ssS'output'
p8
(dp9
g4
(lp10
I3
aI2572
aI7
aI3
aI2194
aI3610
aI19
aI3
aI1565
aI2131
aI5
aI3
aI626
aI187
aI63765
asg6
S"The lion's share of the aid comes from the European Union and the United States ."
p11
ss.