(dp1
S'input'
p2
(dp3
S'encoded'
p4
(lp5
I64
aI2179
aI43
aI223
aI2138
aI11
aI89
aI21
aI45
aI2185
aI372
asS'ori'
p6
S'This house believes all nations have a right to nuclear weapons'
p7
ssS'output'
p8
(dp9
g4
(lp10
I495
aI44040
aI55
aI742
aI957
aI116
aI63
aI21
aI967
aI3
aI285
aI134
aI116
aI99
aI1640
aI3
aI2185
aI2186
aI92
aI116
aI87
aI20031
aI45
aI78
aI131
aI3
aI10054
aI47296
aI5
aI24037
aI47297
aI7
aI351
aI3609
aI63
aI1371
aI23107
aI2185
aI4949
aI63765
asg6
S'John Vidal has said "The point is that right across the world it is not just the nuclear technology which is so offensive to people  but the arrogance  callousness and ruthless steamrollering of any opposition that invariably accompanies nuclear projects .'
p11
ss.