(dp1
S'input'
p2
(dp3
S'encoded'
p4
(lp5
I64
aI2179
aI394
aI117
aI7428
aI21151
aI34
aI11389
aI2042
aI24
aI4364
asS'ori'
p6
S'This house would only teach abstinence for sex education in schools'
p7
ssS'output'
p8
(dp9
g4
(lp10
I21151
aI316
aI5527
aI475
aI89
aI21152
aI174
aI1047
aI41
aI3
aI13694
aI1862
aI73
aI11389
aI2042
aI174
aI1047
aI41
aI11389
aI2042
aI116
aI89
aI11389
aI2042
aI2136
aI717
aI14
aI652
aI1811
aI92
aI42672
aI3
aI1039
aI7
aI11389
aI2042
aI75
aI158
aI2042
aI1191
aI3456
aI11389
aI5
aI314
aI708
aI3290
aI63765
asg6
S'Abstinence  be faithful  use a condom  also known as the ABC strategy or abstinence-plus sex education  also known as abstinence-based sex education  is a sex education policy based on harm reduction which modifies the approach of abstinence-only sex education by including education about safe sex and birth control methods .'
p11
ss.