(dp1
S'input'
p2
(dp3
S'encoded'
p4
(lp5
I64
aI2179
aI43
aI223
aI2138
aI11
aI89
aI21
aI45
aI2185
aI372
asS'ori'
p6
S'This house believes all nations have a right to nuclear weapons'
p7
ssS'output'
p8
(dp9
g4
(lp10
I24
aI425
aI11895
aI2648
aI63765
aI14078
aI2173
aI63
aI845
aI3525
aI136
aI596
aI45
aI3
aI3217
aI5
aI2702
aI7
aI7275
aI138
aI3
aI2419
aI45
aI1476
aI5
aI3472
aI93
aI1379
aI11140
aI3
aI285
aI7
aI2185
aI63765
asg6
S'In January 2010  Lawrence M . Krauss stated that "no issue carries more importance to the long-term health and security of humanity than the effort to reduce  and perhaps one day  rid the world of nuclear weapons"  .'
p11
ss.