(dp1
S'input'
p2
(dp3
S'encoded'
p4
(lp5
I64
aI2179
aI43
aI63
aI3
aI4538
aI7
aI4434
aI7793
aI283
aI45
aI3586
aI417
aI316
aI577
asS'ori'
p6
S'This house believes that the sale of violent video games to minors should be banned'
p7
ssS'output'
p8
(dp9
g4
(lp10
I1260
aI18241
aI5
aI283
aI182
aI162
aI2757
aI14
aI119
aI11663
aI1109
aI10557
aI73
aI52304
aI63765
asg6
S'Free  casual  and browser-based games are usually played on available computers  mobile phones  or PDAs .'
p11
ss.