(dp1
S'input'
p2
(dp3
S'encoded'
p4
(lp5
I64
aI2179
aI43
aI63
aI3
aI21
aI45
aI12715
aI417
aI99
aI316
aI2897
asS'ori'
p6
S'This house believes that the right to asylum should not be absolute'
p7
ssS'output'
p8
(dp9
g4
(lp10
I3
aI7630
aI14
aI3
aI41667
aI2183
aI1340
aI75
aI3
aI2234
aI24
aI2711
aI5
aI2722
aI7
aI2005
aI34
aI100
aI17853
aI7367
aI63
aI75
aI3
aI33
aI34
aI667
aI17491
aI4352
aI373
aI419
aI2369
aI5
aI14
aI2555
aI134
aI122
aI2791
aI63
aI273
aI394
aI316
aI667
aI17491
aI2051
aI34
aI78
aI7
aI2450
aI2661
aI6064
aI3124
aI5
aI2661
aI63765
asg6
S'The pressures on the inbound controls presented by the growth in numbers and rates of refusal for some nationalities meant that  by 1986  the case for new visa requirements became very strong and  on 1 September 1986  it was announced that there would be new visa restrictions for people of India  Pakistan  Bangladesh  Nigeria and Pakistan .'
p11
ss.