(dp1
S'input'
p2
(dp3
S'encoded'
p4
(lp5
I64
aI2179
aI43
aI63
aI3
aI4538
aI7
aI4434
aI7793
aI283
aI45
aI3586
aI417
aI316
aI577
asS'ori'
p6
S'This house believes that the sale of violent video games to minors should be banned'
p7
ssS'output'
p8
(dp9
g4
(lp10
I366
aI7268
aI5
aI13046
aI42352
aI905
aI134
aI122
aI8087
aI63
aI273
aI122
aI443
aI2010
aI3063
aI291
aI3
aI4035
aI5
aI3
aI3211
aI63765
asg6
S'After examining and assessing Newsons report  it was apparent that there was no clear link between the film and the crime .'
p11
ss.