(dp1
S'input'
p2
(dp3
S'encoded'
p4
(lp5
I64
aI2179
aI43
aI63
aI3
aI21
aI45
aI12715
aI417
aI99
aI316
aI2897
asS'ori'
p6
S'This house believes that the right to asylum should not be absolute'
p7
ssS'output'
p8
(dp9
g4
(lp10
I1381
aI159
aI19193
aI12616
aI139
aI296
aI24
aI11098
aI24
aI89
aI1488
aI94
aI7
aI12043
aI7477
aI3009
aI131
aI45
aI1069
aI2296
aI24
aI89
aI10667
aI10760
aI221
aI40722
aI75
aI2579
aI40723
aI36691
aI45
aI211
aI1249
aI63765
asg6
S'Although such makeshift craft can result in tragedy  in 2003 a small group of 5 Cuban refugees attempted (unsuccessfully  but un-harmed) to reach Florida in a 1950s pickup truck made buoyant by oil barrels strapped to its sides .'
p11
ss.