(dp1
S'input'
p2
(dp3
S'encoded'
p4
(lp5
I64
aI2179
aI43
aI63
aI3
aI4991
aI7
aI180
aI417
aI316
aI5396
aI19
aI3
aI169
aI10
asS'ori'
p6
S'This house believes that the Church of England should be separated from the British state'
p7
ssS'output'
p8
(dp9
g4
(lp10
I3
aI2017
aI24
aI6804
aI122
aI8623
aI2049
aI24
aI131
aI5002
aI75
aI2483
aI128
aI395
aI63
aI3569
aI63765
asg6
S'The ban in universities was briefly lifted in 2008  but reinstated by court order later that year .'
p11
ss.