(dp1
S'input'
p2
(dp3
S'encoded'
p4
(lp5
I64
aI2179
aI394
aI117
aI7428
aI21151
aI34
aI11389
aI2042
aI24
aI4364
asS'ori'
p6
S'This house would only teach abstinence for sex education in schools'
p7
ssS'output'
p8
(dp9
g4
(lp10
I5716
aI182
aI8117
aI89
aI10486
aI7
aI13942
aI32911
aI60
aI7991
aI5
aI88
aI9012
aI3369
aI63765
asg6
S'Boys are shown a picture of genitalia anatomy with description and may ask questions .'
p11
ss.