(dp1
S'input'
p2
(dp3
S'encoded'
p4
(lp5
I64
aI2179
aI43
aI63
aI3376
aI4938
aI417
aI316
aI3537
asS'ori'
p6
S'This house believes that endangered species should be protected'
p7
ssS'output'
p8
(dp9
g4
(lp10
I24
aI64
aI3262
aI3
aI5179
aI63
aI2623
aI416
aI3
aI3328
aI182
aI7479
aI73
aI3158
aI200
aI7797
aI63765
asg6
S'In this process  the organisms that previously used the site are displaced or destroyed  reducing biodiversity  .'
p11
ss.