(dp1
S'input'
p2
(dp3
S'encoded'
p4
(lp5
I64
aI2179
aI394
aI163
aI959
aI2042
aI3557
asS'ori'
p6
S'This house would make physical education compulsory'
p7
ssS'output'
p8
(dp9
g4
(lp10
I46266
aI2062
aI46265
aI60
aI3
aI1361
aI63
aI6424
aI7
aI89
aI3315
aI116
aI45
aI3281
aI25
aI284
aI3269
aI99
aI3
aI3269
aI63
aI25
aI15973
aI8532
aI1190
aI42
aI417
aI3281
aI99
aI89
aI3269
aI233
aI45
aI3
aI3014
aI7
aI51
aI27489
aI81
aI10684
aI42
aI8393
aI1059
aI63765
asg6
S'Neill founded Summerhill with the belief that "the function of a child is to live his own life  not the life that his anxious parents think he should live  not a life according to the purpose of an educator who thinks he knows best .'
p11
ss.