(dp1
S'input'
p2
(dp3
S'encoded'
p4
(lp5
I64
aI2179
aI43
aI63
aI3
aI28431
aI7
aI2157
aI4624
aI75
aI39939
aI27257
aI122
aI4850
asS'ori'
p6
S'This house believes that the leaking of military documents by Anat Kamm was justified'
p7
ssS'output'
p8
(dp9
g4
(lp10
I24
aI492
aI3
aI3565
aI2173
aI63
aI2201
aI122
aI701
aI443
aI137
aI34
aI2640
aI5136
aI117
aI34
aI8422
aI10897
aI5
aI30335
aI63765
asg6
S'In July 2010  the Foundation stated that WikiLeaks was receiving no money for personnel costs  only for hardware  travelling and bandwidth  .'
p11
ss.