(dp1
S'input'
p2
(dp3
S'encoded'
p4
(lp5
I64
aI2179
aI43
aI63
aI6670
aI546
aI417
aI316
aI89
aI1334
aI3108
aI7
aI4849
aI1886
aI2855
asS'ori'
p6
S'This house believes that wind power should be a primary focus of future energy supply'
p7
ssS'output'
p8
(dp9
g4
(lp10
I3
aI10326
aI7
aI7050
aI24
aI2547
aI116
aI1166
aI1237
aI2032
aI6776
aI24
aI3
aI325
aI7452
aI158
aI3
aI5001
aI7060
aI546
aI6670
aI2151
aI19
aI6710
aI5
aI289
aI6775
aI24
aI5933
aI63765
asg6
S'The province of Ontario in Canada is pursuing several proposed locations in the Great Lakes  including the suspended Trillium Power Wind 1 approximately 20&nbsp;km from shore and over 400 MW in size  .'
p11
ss.