(dp1
S'input'
p2
(dp3
S'encoded'
p4
(lp5
I64
aI2179
aI43
aI63
aI187
aI417
aI99
aI16642
aI3
aI6449
aI7
aI3935
asS'ori'
p6
S'This house believes that states should not subsidize the growing of tobacco'
p7
ssS'output'
p8
(dp9
g4
(lp10
I64
aI4515
aI7
aI14739
aI92
aI116
aI566
aI60
aI15620
aI116
aI9009
aI5
aI88
aI174
aI3226
aI108
aI4958
aI63765
asg6
S'This release of dopamine  which is associated with pleasure  is reinforcing and may also increase working memory  .'
p11
ss.