(dp1
S'input'
p2
(dp3
S'encoded'
p4
(lp5
I64
aI2179
aI43
aI63
aI3376
aI4938
aI417
aI316
aI3537
asS'ori'
p6
S'This house believes that endangered species should be protected'
p7
ssS'output'
p8
(dp9
g4
(lp10
I75
aI3
aI2653
aI7
aI3
aI398
aI2203
aI159
aI41
aI3
aI626
aI187
aI2547
aI5
aI326
aI4635
aI64
aI15282
aI5
aI13295
aI2511
aI5
aI2474
aI24
aI128
aI45
aI975
aI63
aI3
aI217
aI18201
aI5
aI16504
aI7025
aI394
aI316
aI3537
aI34
aI3994
aI45
aI2118
aI63765
asg6
S'By the middle of the 20th century countries such as the United States  Canada  and Britain understood this appreciation and instigated laws and legislation in order to ensure that the most fragile and beautiful environments would be protected for generations to come .'
p11
ss.