(dp1
S'input'
p2
(dp3
S'encoded'
p4
(lp5
I64
aI2179
aI394
aI5370
aI223
aI4013
aI10440
aI2446
aI4881
aI75
aI14482
aI11004
asS'ori'
p6
S'This house would abolish all collective bargaining rights claimed by trades unions'
p7
ssS'output'
p8
(dp9
g4
(lp10
I24
aI1035
aI24
aI327
aI3
aI4645
aI291
aI229
aI3936
aI5
aI9452
aI116
aI513
aI45
aI316
aI13587
aI63765
asg6
S'In contrast  in Germany  the relation between individual employees and employers is considered to be asymmetrical .'
p11
ss.