(dp1
S'input'
p2
(dp3
S'encoded'
p4
(lp5
I64
aI2179
aI394
aI2998
aI3
aI4360
aI7
aI3249
aI6804
aI24
aI3
aI102
asS'ori'
p6
S'This house would encourage the creation of private universities in the UK'
p7
ssS'output'
p8
(dp9
g4
(lp10
I3
aI12944
aI2784
aI122
aI451
aI24
aI5
aI11648
aI45
aI1985
aI136
aI3757
aI45
aI166
aI2042
aI34
aI3327
aI5307
aI75
aI13538
aI3
aI70
aI70
aI63765
asg6
S'The Dream Act was introduced in 2001 and aims to give more access to higher education for unauthorized immigrants by repealing the law 1996 law .'
p11
ss.