(dp1
S'input'
p2
(dp3
S'encoded'
p4
(lp5
I64
aI2179
aI394
aI5370
aI3
aI5286
asS'ori'
p6
S'This house would abolish the monarchy'
p7
ssS'output'
p8
(dp9
g4
(lp10
I378
aI3
aI4137
aI22787
aI6175
aI45
aI3
aI5305
aI5
aI99
aI45
aI351
aI7
aI3
aI9322
aI5
aI3
aI4137
aI5
aI27784
aI167
aI88
aI9143
aI475
aI132
aI2280
aI24
aI3242
aI2477
aI2979
aI6398
aI58
aI1443
aI3
aI5301
aI45
aI163
aI8784
aI63
aI3
aI260
aI2732
aI2126
aI24
aI3235
aI60
aI3
aI2475
aI63765
asg6
S'However  the Royal Prerogative belongs to the Crown and not to any of the ministers  and the royal and viceroyal figures may unilaterally use these powers in exceptional constitutional crisis situations  thereby allowing the monarch to make sure that the government conducts itself in compliance with the constitution .'
p11
ss.