(dp1
S'input'
p2
(dp3
S'encoded'
p4
(lp5
I64
aI2179
aI43
aI63
aI820
aI12564
aI182
aI3
aI217
aI1112
aI1869
aI7
aI10656
aI4672
aI34
aI5276
asS'ori'
p6
S'This house believes that open primaries are the most effective method of selecting candidates for elections'
p7
ssS'output'
p8
(dp9
g4
(lp10
I3
aI1107
aI12662
aI2490
aI55
aI51
aI191
aI34
aI1260
aI1744
aI89
aI399
aI7
aI8172
aI1862
aI400
aI416
aI24
aI6737
aI11649
aI2938
aI63765
asg6
S'The Single Transferable Vote has an incentive for free riding  a form of compromising strategy sometimes used in proportional representation systems .'
p11
ss.