(dp1
S'input'
p2
(dp3
S'encoded'
p4
(lp5
I64
aI2179
aI394
aI1499
aI3
aI8115
aI34564
aI17106
asS'ori'
p6
S'This house would build the Keystone XL pipeline'
p7
ssS'output'
p8
(dp9
g4
(lp10
I374
aI3
aI2410
aI2994
aI5273
aI1295
aI3
aI261
aI116
aI4883
aI620
aI97
aI1351
aI7
aI17814
aI39706
aI5
aI2410
aI63765
asg6
S'Once the production rate falls off  the well is put through another cycle of injection  soak and production .'
p11
ss.