(dp1
S'input'
p2
(dp3
S'encoded'
p4
(lp5
I64
aI2179
aI394
aI1499
aI3
aI8115
aI34564
aI17106
asS'ori'
p6
S'This house would build the Keystone XL pipeline'
p7
ssS'output'
p8
(dp9
g4
(lp10
I3
aI1560
aI2849
aI927
aI55
aI480
aI1237
aI3567
aI3365
aI45
aI3
aI9441
aI7
aI56732
aI24
aI57174
aI45623
aI3
aI51652
aI889
aI63765
asg6
S'The American Petroleum Institute has published several articles related to the performance of CPM in liquids pipelines  the API Publications are:  .'
p11
ss.