(dp1
S'input'
p2
(dp3
S'encoded'
p4
(lp5
I64
aI2179
aI43
aI63
aI3
aI21
aI45
aI12715
aI417
aI99
aI316
aI2897
asS'ori'
p6
S'This house believes that the right to asylum should not be absolute'
p7
ssS'output'
p8
(dp9
g4
(lp10
I653
aI3
aI35820
aI3
aI9067
aI34
aI5
aI342
aI2406
aI41
aI773
aI3
aI1200
aI12420
aI3763
aI9107
aI34
aI15
aI2439
aI5
aI134
aI116
aI1856
aI63
aI89
aI1445
aI5973
aI7
aI132
aI382
aI1718
aI7477
aI773
aI3316
aI45
aI51
aI11893
aI11972
aI63765
asg6
S'Despite the foregoing the statistics for 1938 and 1939 show Germans as being the top nationality refused entry for both years and it is likely that a large proportion of these were potential refugees being returned to an uncertain fate .'
p11
ss.