(dp1
S'input'
p2
(dp3
S'encoded'
p4
(lp5
I64
aI2179
aI43
aI63
aI323
aI417
aI10009
aI211
aI9035
aI249
aI45
aI3426
aI211
aI2144
aI595
aI17
aI96
asS'ori'
p6
S'This house believes that Europe should weaken its austerity measures to guarantee its citizens greater social support'
p7
ssS'output'
p8
(dp9
g4
(lp10
I311
aI3
aI1643
aI413
aI134
aI122
aI2845
aI63
aI4166
aI2155
aI122
aI3481
aI75
aI6228
aI24
aI5915
aI45
aI658
aI2825
aI34
aI2284
aI9051
aI442
aI73
aI45
aI1192
aI248
aI127
aI63765
asg6
S'At the same time it was estimated that roughly 1 billion was paid by companies in bribes to public institutions for avoiding bureaucratic rules or to get other benefits .'
p11
ss.