(dp1
S'input'
p2
(dp3
S'encoded'
p4
(lp5
I64
aI2179
aI13605
aI2258
aI45
aI2194
asS'ori'
p6
S'This house prefers trade to aid'
p7
ssS'output'
p8
(dp9
g4
(lp10
I3
aI3795
aI1607
aI1544
aI22
aI3024
aI260
aI5260
aI13202
aI3202
aI2022
aI8281
aI5
aI3249
aI7935
aI5260
aI19
aI15
aI2760
aI5
aI2899
aI2203
aI63765
asg6
S'The Forum brought together political leaders  government representatives  parliamentarians  civil society organisations and private sector representatives from both developing and donor countries .'
p11
ss.