(dp1
S'input'
p2
(dp3
S'encoded'
p4
(lp5
I64
aI2179
aI43
aI63
aI3357
aI5003
aI652
aI3
aI188
aI3262
asS'ori'
p6
S'This house believes that opinion polls harm the democratic process'
p7
ssS'output'
p8
(dp9
g4
(lp10
I257
aI3
aI78
aI81
aI4898
aI45
aI9518
aI73
aI182
aI1301
aI753
aI11
aI3
aI1643
aI4935
aI41
aI3
aI78
aI81
aI1453
aI9518
aI768
aI3
aI5563
aI727
aI417
aI316
aI10527
aI63765
asg6
S'If the people who refuse to answer  or are never reached  have the same characteristics as the people who do answer  then the final results should be unbiased .'
p11
ss.