(dp1
S'input'
p2
(dp3
S'encoded'
p4
(lp5
I64
aI2179
aI394
aI1499
aI3
aI8115
aI34564
aI17106
asS'ori'
p6
S'This house would build the Keystone XL pipeline'
p7
ssS'output'
p8
(dp9
g4
(lp10
I134
aI55
aI174
aI12
aI3017
aI63
aI248
aI6687
aI55
aI12
aI7919
aI3493
aI75
aI3
aI2579
aI34
aI6396
aI49827
aI382
aI353
aI24
aI89
aI2035
aI45
aI11
aI41
aI177
aI41
aI1727
aI3
aI4713
aI2363
aI7
aI55434
aI24
aI271
aI2938
aI114
aI395
aI2992
aI9369
aI64
aI45
aI45
aI1727
aI3
aI4713
aI126
aI850
aI89
aI786
aI34
aI2445
aI63765
asg6
S'It has also been suggested that other wildlife has been negatively affected by the oil sands; for instance  moose were found in a 2006 study to have as high as 453 times the acceptable levels of arsenic in their systems  though later studies lowered this to 17 to 33 times the acceptable level (still causing a danger for human consumption)  .'
p11
ss.