(dp1
S'input'
p2
(dp3
S'encoded'
p4
(lp5
I64
aI2179
aI43
aI63
aI7382
aI116
aI400
aI4713
asS'ori'
p6
S'This house believes that bribery is sometimes acceptable'
p7
ssS'output'
p8
(dp9
g4
(lp10
I3875
aI29472
aI809
aI667
aI2086
aI2482
aI2483
aI2248
aI4546
aI7
aI5914
aI5915
aI45
aI10532
aI6609
aI7
aI9853
aI7324
aI63765
asg6
S'Gerald Garson  former New York Supreme Court Justice  convicted of accepting bribes to manipulate outcomes of divorce proceedings .'
p11
ss.