(dp1
S'input'
p2
(dp3
S'encoded'
p4
(lp5
I64
aI2179
aI394
aI1499
aI177
aI1819
aI34
aI160
asS'ori'
p6
S'This house would build high rises for housing'
p7
ssS'output'
p8
(dp9
g4
(lp10
I24
aI3
aI398
aI33497
aI39223
aI1545
aI100
aI7
aI132
aI11279
aI6766
aI1674
aI588
aI45
aI2324
aI4027
aI60
aI11775
aI11253
aI14
aI3
aI1200
aI35855
aI4163
aI60
aI1495
aI28505
aI34
aI39224
aI86
aI63765
asg6
S'In the 11th century  Nasir Khusraw described some of these apartment buildings rising up to fourteen stories  with roof gardens on the top storey complete with ox-drawn water wheels for irrigating them  .'
p11
ss.