(dp1
S'input'
p2
(dp3
S'encoded'
p4
(lp5
I64
aI2179
aI43
aI63
aI187
aI417
aI99
aI16642
aI3
aI6449
aI7
aI3935
asS'ori'
p6
S'This house believes that states should not subsidize the growing of tobacco'
p7
ssS'output'
p8
(dp9
g4
(lp10
I2452
aI2487
aI1760
aI3
aI15896
aI7
aI2639
aI6762
aI4386
aI3569
aI34
aI11362
aI14821
aI5
aI1766
aI9257
aI63765
asg6
S'Brazil alone uses the wood of 60 million trees per year for curing  packaging and rolling cigarettes  .'
p11
ss.