(dp1
S'input'
p2
(dp3
S'encoded'
p4
(lp5
I64
aI2179
aI394
aI4325
aI2042
aI270
aI89
aI11605
aI3324
asS'ori'
p6
S'This house would fund education using a voucher scheme'
p7
ssS'output'
p8
(dp9
g4
(lp10
I3
aI12566
aI658
aI103
aI14
aI88
aI63
aI134
aI440
aI3819
aI667
aI45
aI905
aI122
aI99
aI34522
aI63765
asg6
S"The Gray Commission's public claim on May 28 that it had nothing new to report was not truthful ."
p11
ss.