(dp1
S'input'
p2
(dp3
S'encoded'
p4
(lp5
I64
aI2179
aI13605
aI2258
aI45
aI2194
asS'ori'
p6
S'This house prefers trade to aid'
p7
ssS'output'
p8
(dp9
g4
(lp10
I261
aI155
aI3943
aI53
aI1198
aI139
aI7771
aI3
aI63765
aI63765
aI7
aI2346
aI63
aI7177
aI45
aI203
aI41
aI45
aI7687
aI866
aI63765
asg6
S"Well  they say  'Buy where you can buy the cheapest' . . Of course  that applies to labor as to everything else ."
p11
ss.