(dp1
S'input'
p2
(dp3
S'encoded'
p4
(lp5
I64
aI2179
aI394
aI2976
aI12243
aI24
aI954
aI126
aI1560
aI10723
asS'ori'
p6
S'This house would implement playoffs in collegiate level American football'
p7
ssS'output'
p8
(dp9
g4
(lp10
I34958
aI661
aI34957
aI10
aI5
aI4400
aI6335
aI3
aI1096
aI20731
aI45
aI1414
aI41
aI3
aI117
aI486
aI11276
aI63765
asg6
S"TCU defeated Boise State 1716  and Utah won the Sugar Bowl to finish as the nation's only undefeated team ."
p11
ss.