(dp1
S'input'
p2
(dp3
S'encoded'
p4
(lp5
I64
aI2179
aI394
aI2017
aI262
asS'ori'
p6
S'This house would ban boxing'
p7
ssS'output'
p8
(dp9
g4
(lp10
I1945
aI1516
aI89
aI1945
aI1516
aI116
aI1779
aI45
aI881
aI1946
aI518
aI19
aI1947
aI24
aI63765
asg6
S'Check hook : A check hook is employed to prevent aggressive boxers from lunging in .'
p11
ss.