(dp1
S'input'
p2
(dp3
S'encoded'
p4
(lp5
I64
aI2179
aI394
aI4325
aI2042
aI270
aI89
aI11605
aI3324
asS'ori'
p6
S'This house would fund education using a voucher scheme'
p7
ssS'output'
p8
(dp9
g4
(lp10
I24
aI15794
aI18676
aI75
aI3184
aI108
aI5
aI979
aI5052
aI5743
aI12200
aI182
aI149
aI5132
aI5
aI87
aI4585
aI6329
aI182
aI165
aI979
aI138
aI120
aI24
aI10459
aI15794
aI63765
asg6
S'In neighborhoods inhabited by predominantly working and lower class families  properties are less expensive  and so property taxes are much lower than those in affluent neighborhoods .'
p11
ss.