(dp1
S'input'
p2
(dp3
S'encoded'
p4
(lp5
I64
aI2179
aI235
aI3
aI2136
aI7
aI3
aI2306
aI7
aI2390
asS'ori'
p6
S'This house supports the one-child policy of the republic of China'
p7
ssS'output'
p8
(dp9
g4
(lp10
I3
aI7457
aI6856
aI7
aI3364
aI122
aI1515
aI75
aI2800
aI2544
aI187
aI63765
asg6
S'The Cairo Programme of Action was adopted by 184 UN member states .'
p11
ss.