(dp1
S'input'
p2
(dp3
S'encoded'
p4
(lp5
I64
aI2179
aI394
aI2017
aI262
asS'ori'
p6
S'This house would ban boxing'
p7
ssS'output'
p8
(dp9
g4
(lp10
I1174
aI1453
aI960
aI75
aI520
aI589
aI3
aI531
aI5
aI75
aI466
aI1640
aI1265
aI3
aI1541
aI63765
asg6
S'Hooks do damage by going around the hands and by hitting just behind the elbows .'
p11
ss.