(dp1
S'input'
p2
(dp3
S'encoded'
p4
(lp5
I64
aI2179
aI394
aI9385
aI2497
aI447
aI14
aI3
aI3578
aI5721
aI7
aI260
asS'ori'
p6
S'This house would enforce term limits on the legislative branch of government'
p7
ssS'output'
p8
(dp9
g4
(lp10
I24
aI6442
aI3136
aI159
aI41
aI15203
aI6918
aI4089
aI34
aI10933
aI5
aI49156
aI2757
aI89
aI2210
aI24
aI3
aI2272
aI4168
aI269
aI7
aI63765
asg6
S'In 2004  advocacy groups such as right-wing Swift Boat Veterans For Truth and left-wing MoveOn .org played a role in the presidential election contest of 2004 .'
p11
ss.