(dp1
S'input'
p2
(dp3
S'encoded'
p4
(lp5
I64
aI2179
aI394
aI2017
aI262
asS'ori'
p6
S'This house would ban boxing'
p7
ssS'output'
p8
(dp9
g4
(lp10
I3718
aI1356
aI159
aI41
aI89
aI3130
aI536
aI806
aI73
aI89
aI8116
aI2015
aI3016
aI11
aI12
aI353
aI45
aI6995
aI6033
aI63765
asg6
S'Similarly  factors such as a previous head injury or a coexisting medical condition have been found to predict longer-lasting post-concussion symptoms  .'
p11
ss.