(dp1
S'input'
p2
(dp3
S'encoded'
p4
(lp5
I64
aI2179
aI394
aI15841
aI2736
asS'ori'
p6
S'This house would disband ASEAN'
p7
ssS'output'
p8
(dp9
g4
(lp10
I3
aI2736
aI7088
aI2573
aI803
aI47
aI2998
aI3
aI1260
aI3142
aI7
aI2573
aI545
aI2736
aI63765
asg6
S'The ASEAN Comprehensive Investment Area (ACIA) will encourage the free flow of investment within ASEAN .'
p11
ss.