(dp1
S'input'
p2
(dp3
S'encoded'
p4
(lp5
I64
aI2179
aI43
aI8629
aI116
aI3
aI117
aI998
asS'ori'
p6
S'This house believes atheism is the only way'
p7
ssS'output'
p8
(dp9
g4
(lp10
I2405
aI8301
aI8318
aI8434
aI92
aI42
aI5392
aI41
aI89
aI8435
aI7
aI7687
aI63
aI116
aI1986
aI60
aI2382
aI63765
asg6
S'Finally  Dawkins visits Jerusalem  which he regards as a microcosm of everything that is wrong with religion .'
p11
ss.