(dp1
S'input'
p2
(dp3
S'encoded'
p4
(lp5
I64
aI2179
aI43
aI63
aI134
aI116
aI400
aI21
aI34
aI3
aI260
aI45
aI3439
aI57
aI7
aI2381
asS'ori'
p6
S'This house believes that it is sometimes right for the government to restrict freedom of speech'
p7
ssS'output'
p8
(dp9
g4
(lp10
I2547
aI500
aI3226
aI3
aI710
aI45
aI15484
aI5
aI10662
aI12511
aI9564
aI19
aI3
aI7147
aI5
aI667
aI10426
aI34
aI960
aI45
aI2767
aI4585
aI24
aI3968
aI45
aI2459
aI5
aI12511
aI2381
aI63765
asg6
S'Canada did increase the ability to seize and remove hate propaganda from the Internet and new penalties for damage to religious property in connection to terrorism and hate speech  .'
p11
ss.