(dp1
S'input'
p2
(dp3
S'encoded'
p4
(lp5
I64
aI2179
aI394
aI10662
aI626
aI187
aI2157
aI2697
aI19
aI2371
asS'ori'
p6
S'This house would remove United States military bases from Japan'
p7
ssS'output'
p8
(dp9
g4
(lp10
I89
aI2152
aI7
aI3
aI2224
aI2598
aI2013
aI397
aI3
aI4148
aI7
aI11542
aI63765
asg6
S'A quarter of the civilian population died during the Battle of Okinawa  .'
p11
ss.