(dp1
S'input'
p2
(dp3
S'encoded'
p4
(lp5
I64
aI2179
aI394
aI5370
aI223
aI4013
aI10440
aI2446
aI4881
aI75
aI14482
aI11004
asS'ori'
p6
S'This house would abolish all collective bargaining rights claimed by trades unions'
p7
ssS'output'
p8
(dp9
g4
(lp10
I6941
aI11
aI89
aI21
aI45
aI1767
aI298
aI155
aI142
aI271
aI8179
aI182
aI773
aI7449
aI5
aI3
aI1059
aI998
aI34
aI3
aI12342
aI45
aI8473
aI3
aI3936
aI4106
aI116
aI45
aI2118
aI45
aI89
aI2943
aI2603
aI63765
asg6
S'Workers have a right to strike when they feel their boundaries are being crossed and the best way for the employer to fix the employees unhappiness is to come to a mutual agreement .'
p11
ss.