(dp1
S'input'
p2
(dp3
S'encoded'
p4
(lp5
I64
aI2179
aI394
aI5370
aI223
aI4013
aI10440
aI2446
aI4881
aI75
aI14482
aI11004
asS'ori'
p6
S'This house would abolish all collective bargaining rights claimed by trades unions'
p7
ssS'output'
p8
(dp9
g4
(lp10
I51
aI16677
aI7
aI3
aI13084
aI7
aI3
aI368
aI2133
aI7
aI23807
aI3
aI23835
aI174
aI1515
aI3
aI7991
aI7
aI3
aI23843
aI41
aI3
aI6080
aI7
aI203
aI63765
asg6
S'An outgrowth of the struggles of the Western Federation of Miners (WFM)  the IWW also adopted the WFM\'s description of the AFL as the "American Separation of Labor .'
p11
ss.