(dp1
S'input'
p2
(dp3
S'encoded'
p4
(lp5
I64
aI2179
aI13605
aI2258
aI45
aI2194
asS'ori'
p6
S'This house prefers trade to aid'
p7
ssS'output'
p8
(dp9
g4
(lp10
I923
aI8
aI4463
aI9
aI187
aI63
aI975
aI16
aI511
aI2776
aI5
aI2702
aI24
aI89
aI5156
aI3991
aI2690
aI182
aI637
aI3
aI2508
aI11673
aI7
aI3
aI643
aI2138
aI63765
asg6
S'Currently modern  expansive welfare states that ensure economic opportunity  independence and security in a near universal manner are still the exclusive domain of the developed nations  .'
p11
ss.