(dp1
S'input'
p2
(dp3
S'encoded'
p4
(lp5
I64
aI2179
aI43
aI63
aI2659
aI417
aI1690
aI3
aI12048
aI7
aI19084
asS'ori'
p6
S'This house believes that Israel should lift the blockade of Gaza'
p7
ssS'output'
p8
(dp9
g4
(lp10
I3
aI27281
aI905
aI23335
aI63
aI3
aI169
aI260
aI16756
aI77
aI5208
aI7
aI324
aI475
aI7
aI3
aI5834
aI4869
aI45
aI4302
aI2659
aI41
aI261
aI41
aI248
aI274
aI7
aI2198
aI7
aI2659
aI63765
asg6
S'The EISCA Report recommends that the British government criminalize certain kinds of anti-Semitism  particularly use of the Nazi analogy to criticize Israel  as well as other forms of criticism of Israel  .'
p11
ss.