(dp1
S'input'
p2
(dp3
S'encoded'
p4
(lp5
I64
aI2179
aI43
aI63
aI3376
aI4938
aI417
aI316
aI3537
asS'ori'
p6
S'This house believes that endangered species should be protected'
p7
ssS'output'
p8
(dp9
g4
(lp10
I28626
aI5
aI1344
aI6846
aI3290
aI182
aI99
aI667
aI131
aI14810
aI24
aI4839
aI7129
aI55
aI2425
aI45
aI9402
aI2511
aI899
aI5200
aI7
aI4792
aI615
aI5179
aI1079
aI7156
aI5
aI3262
aI7156
aI63765
asg6
S'Domestication and plant breeding methods are not new  but advances in genetic engineering has led to tighter laws covering distribution of genetically modified organisms  gene patents and process patents  .'
p11
ss.