(dp1
S'input'
p2
(dp3
S'encoded'
p4
(lp5
I64
aI2179
aI394
aI2998
aI3
aI4360
aI7
aI3249
aI6804
aI24
aI3
aI102
asS'ori'
p6
S'This house would encourage the creation of private universities in the UK'
p7
ssS'output'
p8
(dp9
g4
(lp10
I42
aI3172
aI63
aI273
aI116
aI99
aI868
aI1337
aI4750
aI3545
aI24
aI3
aI102
aI2645
aI5806
aI7
aI169
aI4358
aI45
aI2035
aI24
aI3
aI626
aI187
aI107
aI63765
asg6
S'He argues that there is not enough elite university provision in the UK  leading thousands of British students to study in the United States instead  .'
p11
ss.