(dp1
S'input'
p2
(dp3
S'encoded'
p4
(lp5
I64
aI2179
aI394
aI190
aI3
aI21
aI45
aI3895
aI834
asS'ori'
p6
S'This house would limit the right to bear arms'
p7
ssS'output'
p8
(dp9
g4
(lp10
I495
aI4380
aI63765
aI3755
aI689
aI3
aI804
aI7
aI3
aI2543
aI5950
aI7
aI3664
aI5
aI7
aI3
aI24
aI25
aI3419
aI3084
aI828
aI9196
aI1374
aI2959
aI4194
aI6466
aI703
aI45
aI261
aI4200
aI3988
aI3
aI7
aI3
aI2548
aI5
aI3
aI21
aI7
aI574
aI4278
aI1576
aI5
aI3895
aI834
aI3218
aI2543
aI5950
aI689
aI3
aI3701
aI2224
aI580
aI7
aI3218
aI52
aI63765
asg6
S'Then-senator John F . Kennedy recognized the intent of the founding fathers "fears of governmental tyranny" and "security of the nation" in his statement Know Your Lawmakers  Guns  April 1960  p .&nbsp;4 (1960)  "By calling attention to \'a well regulated militia \' the \'security\' of the nation  and the right of each citizen \'to keep and bear arms \' our founding fathers recognized the essentially civilian nature of our economy .'
p11
ss.