(dp1
S'input'
p2
(dp3
S'encoded'
p4
(lp5
I64
aI2179
aI394
aI1499
aI177
aI1819
aI34
aI160
asS'ori'
p6
S'This house would build high rises for housing'
p7
ssS'output'
p8
(dp9
g4
(lp10
I64
aI2229
aI55
aI21037
aI6044
aI24
aI2068
aI2439
aI41
aI136
aI78
aI11
aI7193
aI51
aI376
aI24
aI3926
aI3976
aI63765
asg6
S'This trend has slowed somewhat in recent years  as more people have regained an interest in urban living .'
p11
ss.