(dp1
S'input'
p2
(dp3
S'encoded'
p4
(lp5
I64
aI2179
aI43
aI63
aI3
aI4538
aI7
aI4434
aI7793
aI283
aI45
aI3586
aI417
aI316
aI577
asS'ori'
p6
S'This house believes that the sale of violent video games to minors should be banned'
p7
ssS'output'
p8
(dp9
g4
(lp10
I3
aI237
aI5216
aI19912
aI319
aI122
aI29412
aI6859
aI5162
aI24
aI3
aI29413
aI24
aI1609
aI134
aI3
aI237
aI319
aI45
aI475
aI89
aI29409
aI5
aI19735
aI75
aI13364
aI29414
aI89
aI460
aI81
aI2630
aI34
aI20194
aI14
aI4815
aI675
aI15174
aI4104
aI3
aI29415
aI5
aI11947
aI131
aI395
aI2630
aI34
aI248
aI4035
aI6228
aI675
aI22507
aI867
aI45
aI5
aI3991
aI9015
aI1413
aI751
aI63765
asg6
S"The first interactive movie game was Dragon's Lair  originally released in the arcades in 1983  making it the first game to use a laserdisc and animation by Don Bluth  a man who worked for Disney on features like Robin Hood  The Rescuers  and Pete's Dragon  but later worked for other film companies like Metro-Goldwyn-Mayer (All Dogs Go to Heaven) and Universal Studios (The Land Before Time) ."
p11
ss.