(dp1
S'input'
p2
(dp3
S'encoded'
p4
(lp5
I64
aI2179
aI43
aI24
aI3
aI475
aI7
aI12436
aI3364
asS'ori'
p6
S'This house believes in the use of affirmative action'
p7
ssS'output'
p8
(dp9
g4
(lp10
I3
aI349
aI2467
aI7
aI37184
aI626
aI187
aI2135
aI2136
aI1609
aI122
aI153
aI1598
aI75
aI35540
aI2429
aI16523
aI63765
asg6
S'The earliest decades of expansionist United States foreign policy making was often accompanied by racialist ideological justifications .'
p11
ss.