(dp1
S'input'
p2
(dp3
S'encoded'
p4
(lp5
I64
aI2179
aI43
aI223
aI2138
aI11
aI89
aI21
aI45
aI2185
aI372
asS'ori'
p6
S'This house believes all nations have a right to nuclear weapons'
p7
ssS'output'
p8
(dp9
g4
(lp10
I134
aI116
aI174
aI1360
aI3345
aI63
aI2450
aI55
aI51
aI2705
aI2224
aI5188
aI5
aI19979
aI5938
aI5
aI7504
aI2362
aI1793
aI2412
aI7
aI4783
aI45
aI2203
aI159
aI41
aI3
aI626
aI2549
aI626
aI187
aI5
aI2726
aI63765
asg6
S'It is also widely acknowledged that India has an extensive civilian chemical and pharmaceutical industry and annually exports considerable quantities of chemicals to countries such as the United Kingdom  United States  and Taiwan  .'
p11
ss.