(dp1
S'input'
p2
(dp3
S'encoded'
p4
(lp5
I64
aI2179
aI43
aI63
aI3
aI4990
aI4991
aI116
aI4850
aI24
aI12166
aI3
aI475
aI7
aI3532
aI3290
aI7
aI4714
asS'ori'
p6
S'This house believes that the Catholic Church is justified in forbidding the use of barrier methods of contraception'
p7
ssS'output'
p8
(dp9
g4
(lp10
I3
aI4990
aI4991
aI55
aI5841
aI45
aI673
aI220
aI45
aI10008
aI10613
aI41
aI89
aI1379
aI7
aI8379
aI45
aI3439
aI73
aI41
aI24
aI4581
aI387
aI5
aI3010
aI875
aI7228
aI9853
aI3257
aI5
aI10946
aI63765
asg6
S'The Catholic Church has tried to influence governments to preserve Sunday as a day of worship  to restrict or  as in Ireland  Italy and Latin America  forbid divorce  abortion and euthanasia .'
p11
ss.