(dp1
S'input'
p2
(dp3
S'encoded'
p4
(lp5
I64
aI2179
aI43
aI63
aI187
aI417
aI99
aI16642
aI3
aI6449
aI7
aI3935
asS'ori'
p6
S'This house believes that states should not subsidize the growing of tobacco'
p7
ssS'output'
p8
(dp9
g4
(lp10
I378
aI16055
aI60
aI58070
aI5
aI9402
aI976
aI3353
aI34
aI3
aI1968
aI8942
aI2613
aI4421
aI297
aI45
aI5116
aI3
aI4108
aI45
aI89
aI16214
aI399
aI7
aI3103
aI63
aI463
aI316
aI7783
aI24
aI1932
aI2412
aI45
aI136
aI78
aI63765
asg6
S'However  compounded with overproduction and tighter legal enforcement for the illegal product  drug dealers decided to convert the powder to "crack" - a solid  smoke-able form of cocaine  that could be sold in smaller quantities  to more people  .'
p11
ss.