(dp1
S'input'
p2
(dp3
S'encoded'
p4
(lp5
I64
aI2179
aI43
aI63
aI187
aI417
aI99
aI16642
aI3
aI6449
aI7
aI3935
asS'ori'
p6
S'This house believes that states should not subsidize the growing of tobacco'
p7
ssS'output'
p8
(dp9
g4
(lp10
I134
aI174
aI23763
aI1295
aI100
aI7966
aI1989
aI19
aI1795
aI19
aI5057
aI2234
aI24
aI3
aI760
aI63765
asg6
S'It also switches off some genes responsible from protection from cancer growth in the body  .'
p11
ss.