(dp1
S'input'
p2
(dp3
S'encoded'
p4
(lp5
I64
aI2179
aI43
aI223
aI2138
aI11
aI89
aI21
aI45
aI2185
aI372
asS'ori'
p6
S'This house believes all nations have a right to nuclear weapons'
p7
ssS'output'
p8
(dp9
g4
(lp10
I24
aI1849
aI89
aI290
aI7
aI3247
aI887
aI3
aI35122
aI3
aI626
aI187
aI5
aI2390
aI89
aI290
aI7
aI8519
aI4615
aI773
aI3
aI35122
aI3
aI35065
aI2390
aI2371
aI3
aI626
aI187
aI5
aI382
aI557
aI24
aI3
aI237
aI734
aI24
aI2959
aI2286
aI874
aI372
aI2326
aI63765
asg6
S"In response  a series of discussions among the DPRK  the United States  and China  a series of six-party talks (the parties being the DPRK  the ROK  China  Japan  the United States and Russia) were held in Beijing; the first beginning in April 2004 concerning North Korea's weapons program ."
p11
ss.