(dp1
S'input'
p2
(dp3
S'encoded'
p4
(lp5
I64
aI2179
aI43
aI63
aI2157
aI2565
aI493
aI19084
aI382
aI4850
asS'ori'
p6
S"This house believes that Israel's 2008-2009 military operations against Gaza were justified"
p7
ssS'output'
p8
(dp9
g4
(lp10
I134
aI418
aI63
aI3
aI2702
aI31332
aI7644
aI24
aI2928
aI364
aI5
aI63
aI3
aI16619
aI5277
aI1340
aI132
aI2142
aI41
aI311
aI3
aI19018
aI7
aI3
aI14619
aI34
aI20827
aI223
aI7
aI8452
aI63765
asg6
S'It noted that the security apparatuses participated in terror activity and that the Hamas leadership presented these organizations as at the forefront of the jihad for liberating all of Palestine  .'
p11
ss.