(dp1
S'input'
p2
(dp3
S'encoded'
p4
(lp5
I64
aI2179
aI43
aI63
aI6670
aI546
aI417
aI316
aI89
aI1334
aI3108
aI7
aI4849
aI1886
aI2855
asS'ori'
p6
S'This house believes that wind power should be a primary focus of future energy supply'
p7
ssS'output'
p8
(dp9
g4
(lp10
I18114
aI116
aI1038
aI41
aI16214
aI11913
aI73
aI11770
aI5092
aI4867
aI19
aI1240
aI1902
aI56762
aI73
aI3976
aI7128
aI7371
aI5
aI116
aI384
aI19
aI6674
aI6715
aI92
aI182
aI4857
aI19
aI572
aI5327
aI7128
aI7371
aI63765
asg6
S'Biofuel is defined as solid  liquid or gaseous fuel obtained from relatively recently lifeless or living biological material and is different from fossil fuels  which are derived from long dead biological material .'
p11
ss.