(dp1
S'input'
p2
(dp3
S'encoded'
p4
(lp5
I64
aI2179
aI394
aI2017
aI262
asS'ori'
p6
S'This house would ban boxing'
p7
ssS'output'
p8
(dp9
g4
(lp10
I3
aI2009
aI139
aI41291
aI5
aI3
aI2009
aI19139
aI139
aI4976
aI545
aI863
aI571
aI63765
asg6
S'The brain can herniate  and the brain stem can fail within five minutes  .'
p11
ss.