(dp1
S'input'
p2
(dp3
S'encoded'
p4
(lp5
I64
aI2179
aI394
aI190
aI3
aI21
aI45
aI3895
aI834
asS'ori'
p6
S'This house would limit the right to bear arms'
p7
ssS'output'
p8
(dp9
g4
(lp10
I378
aI3
aI2033
aI7
aI132
aI2511
aI122
aI99
aI842
aI63765
asg6
S'However  the intention of these laws was not neutral .'
p11
ss.