(dp1
S'input'
p2
(dp3
S'encoded'
p4
(lp5
I64
aI2179
aI394
aI5370
aI7146
aI4585
aI2446
asS'ori'
p6
S'This house would abolish intellectual property rights'
p7
ssS'output'
p8
(dp9
g4
(lp10
I99
aI1928
aI2007
aI73
aI4661
aI60
aI51
aI376
aI24
aI89
aI575
aI8656
aI7
aI4585
aI88
aI316
aI1031
aI45
aI5982
aI223
aI748
aI4585
aI2446
aI63765
asg6
S'Not every person or entity with an interest in a given piece of property may be able to exercise all possible property rights .'
p11
ss.