(dp1
S'input'
p2
(dp3
S'encoded'
p4
(lp5
I64
aI2179
aI394
aI2976
aI12243
aI24
aI954
aI126
aI1560
aI10723
asS'ori'
p6
S'This house would implement playoffs in collegiate level American football'
p7
ssS'output'
p8
(dp9
g4
(lp10
I34958
aI394
aI1979
aI7719
aI24
aI3
aI2422
aI20731
aI374
aI375
aI6466
aI736
aI2802
aI3
aI103
aI7
aI34949
aI2333
aI2925
aI5
aI1864
aI87
aI60
aI51
aI1748
aI667
aI126
aI7
aI5229
aI7
aI6372
aI63765
asg6
S'TCU would defeat Wisconsin 2119 in the 2011 Rose Bowl  once again calling into question the claim of BCS Conference superiority  and doing so with an entirely new level of quality of play .'
p11
ss.