(dp1
S'input'
p2
(dp3
S'encoded'
p4
(lp5
I64
aI2179
aI43
aI8629
aI116
aI3
aI117
aI998
asS'ori'
p6
S'This house believes atheism is the only way'
p7
ssS'output'
p8
(dp9
g4
(lp10
I378
aI691
aI51
aI7142
aI7
aI3
aI444
aI7
aI350
aI1684
aI14
aI3
aI1460
aI1880
aI63
aI116
aI699
aI45
aI574
aI14671
aI3384
aI63
aI89
aI14524
aI11670
aI3704
aI88
aI9568
aI11785
aI45
aI51
aI8636
aI5
aI63765
asg6
S'However  since an assessment of the weight of evidence depends on the prior probability that is assigned to each worldview  arguments that a theist finds convincing may seem thin to an atheist and vice-versa  .'
p11
ss.