(dp1
S'input'
p2
(dp3
S'encoded'
p4
(lp5
I64
aI2179
aI43
aI63
aI2157
aI2565
aI493
aI19084
aI382
aI4850
asS'ori'
p6
S"This house believes that Israel's 2008-2009 military operations against Gaza were justified"
p7
ssS'output'
p8
(dp9
g4
(lp10
I3
aI626
aI2138
aI2702
aI2132
aI3435
aI89
aI3419
aI14
aI2394
aI6466
aI51
aI6460
aI12169
aI45
aI223
aI3
aI6048
aI2344
aI5
aI3
aI1565
aI2131
aI221
aI570
aI62
aI41
aI500
aI5010
aI2452
aI2390
aI2371
aI5964
aI2299
aI3126
aI3
aI2308
aI2451
aI2318
aI2047
aI5
aI2790
aI63765
asg6
S'The United Nations Security Council issued a statement on December 28  2008 calling  "for an immediate halt to all violence"  the Arab League  and the European Union made similar calls  as did Argentina  Brazil  China  Japan  Malaysia  Mexico  Peru  the Philippines  Russia  South Korea and Vietnam  .'
p11
ss.