(dp1
S'input'
p2
(dp3
S'encoded'
p4
(lp5
I64
aI2179
aI13605
aI2258
aI45
aI2194
asS'ori'
p6
S'This house prefers trade to aid'
p7
ssS'output'
p8
(dp9
g4
(lp10
I657
aI3891
aI7
aI7406
aI203
aI55
aI153
aI7407
aI189
aI63
aI2998
aI5170
aI7408
aI5
aI2409
aI3237
aI4527
aI2404
aI1706
aI5026
aI63765
asg6
S'Widespread availability of cheap labor has often perpetuated policies that encourage inefficient agricultural and industrial practices  leaving Africa further impoverished .'
p11
ss.