(dp1
S'input'
p2
(dp3
S'encoded'
p4
(lp5
I64
aI2179
aI43
aI223
aI2138
aI11
aI89
aI21
aI45
aI2185
aI372
asS'ori'
p6
S'This house believes all nations have a right to nuclear weapons'
p7
ssS'output'
p8
(dp9
g4
(lp10
I113
aI3
aI15578
aI11995
aI4134
aI928
aI89
aI1718
aI4874
aI24
aI92
aI2304
aI2708
aI5
aI2157
aI20169
aI311
aI3
aI312
aI7
aI3
aI2237
aI2223
aI500
aI99
aI6726
aI3
aI786
aI7
aI862
aI2185
aI2223
aI620
aI2636
aI5
aI708
aI10518
aI63765
asg6
S'Even the 1995 Norwegian rocket incident demonstrated a potential scenario in which Russian democratization and military downsizing at the end of the Cold War did not eliminate the danger of accidental nuclear war through command and control errors .'
p11
ss.