(dp1
S'input'
p2
(dp3
S'encoded'
p4
(lp5
I64
aI2179
aI43
aI63
aI3
aI21
aI45
aI12715
aI417
aI99
aI316
aI2897
asS'ori'
p6
S'This house believes that the right to asylum should not be absolute'
p7
ssS'output'
p8
(dp9
g4
(lp10
I3
aI2800
aI29030
aI2747
aI182
aI8182
aI75
aI3
aI2096
aI63
aI99
aI117
aI78
aI11
aI3
aI21
aI45
aI738
aI3900
aI131
aI174
aI45
aI3
aI1643
aI4585
aI63765
asg6
S'The UN Pinheiro Principles are guided by the idea that not only people have the right to return home  but also to the same property  .'
p11
ss.