(dp1
S'input'
p2
(dp3
S'encoded'
p4
(lp5
I64
aI2179
aI43
aI63
aI3357
aI5003
aI652
aI3
aI188
aI3262
asS'ori'
p6
S'This house believes that opinion polls harm the democratic process'
p7
ssS'output'
p8
(dp9
g4
(lp10
I155
aI4883
aI3
aI3914
aI289
aI3
aI3914
aI5
aI13163
aI34
aI3446
aI1350
aI63765
asg6
S'They put the "I" identity over the "we" identity  and strive for personal success .'
p11
ss.