(dp1
S'input'
p2
(dp3
S'encoded'
p4
(lp5
I64
aI2179
aI43
aI63
aI2659
aI417
aI1690
aI3
aI12048
aI7
aI19084
asS'ori'
p6
S'This house believes that Israel should lift the blockade of Gaza'
p7
ssS'output'
p8
(dp9
g4
(lp10
I1210
aI10668
aI3
aI102
aI1405
aI2161
aI397
aI1405
aI3369
aI2173
aI63
aI7
aI2659
aI5
aI2233
aI464
aI19400
aI89
aI2619
aI7
aI2659
aI417
aI316
aI3270
aI45
aI3
aI17225
aI63
aI3
aI12048
aI2909
aI9638
aI19401
aI14
aI3
aI52
aI5
aI14
aI19084
asg6
S'David Cameron  the UK Prime Minister  during Prime Minister\'s Questions  stated that "Friends of Israel  and I count myself a friend of Israel  should be saying to the Israelis that the blockade actually strengthens Hamas\'s grip on the economy and on Gaza'
p11
ss.