(dp1
S'input'
p2
(dp3
S'encoded'
p4
(lp5
I64
aI2179
aI43
aI63
aI3
aI4990
aI4991
aI116
aI4850
aI24
aI12166
aI3
aI475
aI7
aI3532
aI3290
aI7
aI4714
asS'ori'
p6
S'This house believes that the Catholic Church is justified in forbidding the use of barrier methods of contraception'
p7
ssS'output'
p8
(dp9
g4
(lp10
I93
aI94
aI7
aI169
aI13788
aI3552
aI8060
aI21152
aI3600
aI24
aI1376
aI15794
aI60
aI16518
aI14
aI40
aI45
aI163
aI3
aI5254
aI311
aI24
aI3
aI570
aI6646
aI382
aI8060
aI24
aI15
aI385
aI5
aI3945
aI2506
aI620
aI3
aI626
aI187
aI63765
asg6
S'One group of British contraceptive advocates distributed condom literature in poor neighborhoods  with instructions on how to make the devices at home; in the 1840s  similar tracts were distributed in both cities and rural areas through the United States  .'
p11
ss.