(dp1
S'input'
p2
(dp3
S'encoded'
p4
(lp5
I64
aI2179
aI394
aI2017
aI3807
aI314
aI3433
asS'ori'
p6
S'This house would ban partial birth abortions'
p7
ssS'output'
p8
(dp9
g4
(lp10
I226
aI3
aI3486
aI116
aI4794
aI5
aI4791
aI2445
aI134
aI116
aI99
aI89
aI2007
aI60
aI89
aI21
aI45
aI3269
asg6
S'while the fetus is innocent and biologically human  it is not a person with a right to life'
p11
ss.