(dp1
S'input'
p2
(dp3
S'encoded'
p4
(lp5
I64
aI2179
aI43
aI63
aI3
aI4990
aI4991
aI116
aI4850
aI24
aI12166
aI3
aI475
aI7
aI3532
aI3290
aI7
aI4714
asS'ori'
p6
S'This house believes that the Catholic Church is justified in forbidding the use of barrier methods of contraception'
p7
ssS'output'
p8
(dp9
g4
(lp10
I134
aI122
aI99
aI487
aI3
aI13774
aI2333
aI63
aI3
aI8612
aI10695
aI547
aI34
aI4714
aI24
aI913
aI3717
aI63765
asg6
S'It was not until the 1930 Lambeth Conference that the Anglican Communion allowed for contraception in limited circumstances .'
p11
ss.