(dp1
S'input'
p2
(dp3
S'encoded'
p4
(lp5
I64
aI2179
aI394
aI2017
aI3807
aI314
aI3433
asS'ori'
p6
S'This house would ban partial birth abortions'
p7
ssS'output'
p8
(dp9
g4
(lp10
I3257
aI122
aI4427
aI75
aI3
aI943
aI2131
aI638
aI211
aI306
aI7
aI2953
aI131
aI64
aI2136
aI122
aI5839
aI366
aI3
aI367
aI7
aI3
aI5970
aI63765
asg6
S'Abortion was legalized by the Soviet Union throughout its rule of Poland  but this policy was abandoned after the fall of the USSR .'
p11
ss.