(dp1
S'input'
p2
(dp3
S'encoded'
p4
(lp5
I64
aI2179
aI235
aI3
aI2136
aI7
aI3
aI2306
aI7
aI2390
asS'ori'
p6
S'This house supports the one-child policy of the republic of China'
p7
ssS'output'
p8
(dp9
g4
(lp10
I1811
aI7
aI3
aI2598
aI116
aI89
aI1277
aI45
aI16
aI2234
asg6
S'reduction of the population is a key to economic growth'
p11
ss.