(dp1
S'input'
p2
(dp3
S'encoded'
p4
(lp5
I64
aI2179
aI394
aI2017
aI223
aI9058
aI23653
asS'ori'
p6
S'This house would ban all unsustainable logging'
p7
ssS'output'
p8
(dp9
g4
(lp10
I47784
aI116
aI3
aI238
aI45
aI1192
aI3
aI7092
aI234
aI14
aI18848
aI311
aI25726
aI63765
aI63765
aI63765
asg6
S'FD is the place to get the experts view on forestry at COP . . .'
p11
ss.