(dp1
S'input'
p2
(dp3
S'encoded'
p4
(lp5
I64
aI2179
aI43
aI63
aI2659
aI417
aI1690
aI3
aI12048
aI7
aI19084
asS'ori'
p6
S'This house believes that Israel should lift the blockade of Gaza'
p7
ssS'output'
p8
(dp9
g4
(lp10
I233
aI45
aI25061
aI7
aI6054
aI2640
aI1237
aI11166
aI3727
aI3763
aI4902
aI2618
aI63
aI155
aI394
aI1385
aI45
aI6448
aI41
aI25062
aI63765
asg6
S'According to testimonies of IDF personnel  several wounded activists refused treatment  stating that they would prefer to die as shaheeds .'
p11
ss.