(dp1
S'input'
p2
(dp3
S'encoded'
p4
(lp5
I64
aI2179
aI43
aI63
aI1036
aI4828
aI33250
aI116
aI25073
aI45
aI3315
aI4562
asS'ori'
p6
S'This house believes that male infant circumcision is tantamount to child abuse'
p7
ssS'output'
p8
(dp9
g4
(lp10
I257
aI3
aI3315
aI500
aI99
aI6224
aI24
aI3
aI44641
aI73
aI3
aI10722
aI122
aI183
aI5545
aI768
aI3
aI3315
aI88
aI4574
aI7
aI271
aI284
aI5294
aI45
aI1199
aI8446
aI311
aI3485
aI41
aI89
aI4405
aI32385
aI5
aI4163
aI3
aI6937
aI768
aI63765
asg6
S'If the child did not immerse in the mikveh  or the boy was too old  then the child may choose of their own accord to become Jewish at age 13 as a Bar Mitzvah  and complete the conversion then  .'
p11
ss.