(dp1
S'input'
p2
(dp3
S'encoded'
p4
(lp5
I64
aI2179
aI43
aI63
aI2157
aI2565
aI493
aI19084
aI382
aI4850
asS'ori'
p6
S"This house believes that Israel's 2008-2009 military operations against Gaza were justified"
p7
ssS'output'
p8
(dp9
g4
(lp10
I233
aI45
aI3
aI25061
aI14
aI92
aI3
aI905
aI116
aI717
aI3
aI6054
aI122
aI24
aI708
aI7
aI3
aI2506
aI24
aI92
aI3
aI4122
aI458
aI443
aI332
aI122
aI1708
aI238
aI311
aI3
aI298
aI155
aI458
aI5
aI443
aI2218
aI78
aI4172
aI887
aI3
aI3180
aI63765
asg6
S'According to the testimonies on which the report is based  the IDF was in control of the areas in which the incidents occurred  no fighting was taking place at the when they occurred and no armed people traveled among the civilians  .'
p11
ss.