(dp1
S'input'
p2
(dp3
S'encoded'
p4
(lp5
I64
aI2179
aI394
aI190
aI3
aI21
aI45
aI3895
aI834
asS'ori'
p6
S'This house would limit the right to bear arms'
p7
ssS'output'
p8
(dp9
g4
(lp10
I14
aI1906
aI3
aI3355
aI3855
aI22802
aI3
aI88
aI752
aI5
aI244
aI45
aI62406
aI3
aI33
aI5820
aI54884
aI63765
asg6
S"On November 28  2011  the Ninth Circuit vacated the panel's May 2 decision and agreed to rehear the case en banc  ."
p11
ss.