(dp1
S'input'
p2
(dp3
S'encoded'
p4
(lp5
I64
aI2179
aI13605
aI2258
aI45
aI2194
asS'ori'
p6
S'This house prefers trade to aid'
p7
ssS'output'
p8
(dp9
g4
(lp10
I42
aI26546
aI267
aI1486
aI7
aI2135
aI2194
aI12022
aI81
aI133
aI24
aI3530
aI5240
aI2969
aI14
aI1376
aI2203
aI5
aI19020
aI81
aI9503
aI34
aI3577
aI45
aI2386
aI1227
aI63765
asg6
S'He distinguishes two types of foreign aid donors: Planners  who believe in imposing top-down big plans on poor countries  and Searchers  who look for bottom-up solutions to specific needs .'
p11
ss.