(dp1
S'input'
p2
(dp3
S'encoded'
p4
(lp5
I64
aI2179
aI394
aI117
aI7428
aI21151
aI34
aI11389
aI2042
aI24
aI4364
asS'ori'
p6
S'This house would only teach abstinence for sex education in schools'
p7
ssS'output'
p8
(dp9
g4
(lp10
I11389
aI2042
aI116
aI5248
aI14
aI214
aI4955
aI45
aI2445
aI10953
aI158
aI2445
aI8803
aI32911
aI8803
aI10947
aI8803
aI2189
aI3760
aI3217
aI3859
aI2202
aI3760
aI2446
aI5
aI6447
aI21151
aI314
aI708
aI5
aI248
aI2738
aI7
aI2445
aI8803
aI8935
aI63765
asg6
S'Sex education is instruction on issues relating to human sexuality  including human sexual anatomy  sexual reproduction  sexual intercourse  reproductive health  emotional relations  reproductive rights and responsibilities  abstinence  birth control  and other aspects of human sexual behavior .'
p11
ss.