(dp1
S'input'
p2
(dp3
S'encoded'
p4
(lp5
I64
aI2179
aI43
aI63
aI1036
aI4828
aI33250
aI116
aI25073
aI45
aI3315
aI4562
asS'ori'
p6
S'This house believes that male infant circumcision is tantamount to child abuse'
p7
ssS'output'
p8
(dp9
g4
(lp10
I233
aI45
aI3
aI169
aI2015
aI2016
aI4902
aI12350
aI13210
aI7414
aI98
aI99
aI1068
aI45
aI316
aI513
aI487
aI3485
aI63765
asg6
S'According to the British Medical Association  treatment (topical steroid cream and/or manual stretching) does not need to be considered until age 19 .'
p11
ss.