(dp1
S'input'
p2
(dp3
S'encoded'
p4
(lp5
I64
aI2179
aI43
aI63
aI2157
aI2565
aI493
aI19084
aI382
aI4850
asS'ori'
p6
S"This house believes that Israel's 2008-2009 military operations against Gaza were justified"
p7
ssS'output'
p8
(dp9
g4
(lp10
I233
aI45
aI368
aI897
aI2962
aI16619
aI122
aI419
aI1920
aI19389
aI6833
aI864
aI63
aI24
aI100
aI2506
aI7
aI5224
aI3
aI2180
aI500
aI99
aI6750
aI838
aI2568
aI19
aI3
aI16618
aI63765
asg6
S'According to Western media reports  Hamas was very cooperative; nevertheless  Goldstone pointed out that in some areas of information the committee did not receive full cooperation from the Palestinians  .'
p11
ss.