(dp1
S'input'
p2
(dp3
S'encoded'
p4
(lp5
I64
aI2179
aI394
aI2017
aI3807
aI314
aI3433
asS'ori'
p6
S'This house would ban partial birth abortions'
p7
ssS'output'
p8
(dp9
g4
(lp10
I24
aI2019
aI63765
aI4801
aI16578
aI89
aI809
aI5606
aI7
aI3772
aI3773
aI63765
asg6
S'In 1960  Dr . Mary Calderone  a former director of Planned Parenthood  said:  .'
p11
ss.