(dp1
S'input'
p2
(dp3
S'encoded'
p4
(lp5
I64
aI2179
aI43
aI63
aI11083
aI10046
aI417
aI316
aI89
aI3135
aI4603
asS'ori'
p6
S'This house believes that Holocaust denial should be a criminal offence'
p7
ssS'output'
p8
(dp9
g4
(lp10
I3
aI2483
aI551
aI3
aI3419
aI63
aI4307
aI382
aI36159
aI45
aI1012
aI311
aI3
aI11080
aI5232
aI10779
aI24
aI2953
aI397
aI3
aI3424
aI7
aI122
aI89
aI68
aI63765
asg6
S'The court declared the statement that "that Jews were gassed to death at the Auschwitz Concentration Camp in Poland during the summer of 1944" was a fact  .'
p11
ss.