(dp1
S'input'
p2
(dp3
S'encoded'
p4
(lp5
I64
aI2179
aI43
aI63
aI3
aI4990
aI4991
aI116
aI4850
aI24
aI12166
aI3
aI475
aI7
aI3532
aI3290
aI7
aI4714
asS'ori'
p6
S'This house believes that the Catholic Church is justified in forbidding the use of barrier methods of contraception'
p7
ssS'output'
p8
(dp9
g4
(lp10
I24
aI3
aI9908
aI6001
aI7
aI3
aI9794
aI871
aI89
aI9596
aI11612
aI2618
aI63
aI314
aI708
aI24
aI223
aI274
aI116
aI8565
asg6
S'in 1990 the Lutheran Churches of the Reformation passed a resolution titled "Procreation" stating that birth control  in all forms  is sin'
p11
ss.