(dp1
S'input'
p2
(dp3
S'encoded'
p4
(lp5
I64
aI2179
aI394
aI60
aI23587
asS'ori'
p6
S'This house would re-engage with Myanmar'
p7
ssS'output'
p8
(dp9
g4
(lp10
I3
aI2984
aI122
aI45
aI7107
aI10954
aI7
aI1447
aI14654
aI89
aI2206
aI5430
aI742
aI63765
asg6
S"The envoy was to 'clearly convey Washington's condemnation of last week's bloody repression' a US spokesperson said ."
p11
ss.