(dp1
S'input'
p2
(dp3
S'encoded'
p4
(lp5
I64
aI2179
aI43
aI17
aI4941
aI857
aI3211
asS'ori'
p6
S'This house believes social deprivation causes crime'
p7
ssS'output'
p8
(dp9
g4
(lp10
I2992
aI342
aI89
aI2369
aI4703
aI1362
aI291
aI17194
aI2722
aI5
aI15
aI16
aI2891
aI5
aI16
aI5969
aI63765
aI11606
aI2203
aI946
aI120
aI60
aI1445
aI6815
aI291
aI3
aI7412
aI5
aI3
aI1376
aI1057
aI45
aI11
aI166
aI2722
aI7
aI17194
aI138
aI7420
aI2203
asg6
S'Studies show a strong  inverse relationship between homicide rates and both economic development and economic equality . Poorer countries  especially those with large gaps between the rich and the poor  tend to have higher rates of homicide than wealthier countries'
p11
ss.