(dp1
S'input'
p2
(dp3
S'encoded'
p4
(lp5
I64
aI2179
aI394
aI4261
aI8667
aI3
aI9361
aI5
aI17069
asS'ori'
p6
S'This house would prohibit burning the stars and stripes'
p7
ssS'output'
p8
(dp9
g4
(lp10
I7733
aI4846
aI1063
aI41
aI34
aI52277
aI7
aI25395
aI14013
aI63765
asg6
S"Hoffman's card classified him as 4Funfit for servicebecause of bronchial asthma ."
p11
ss.