(dp1
S'input'
p2
(dp3
S'encoded'
p4
(lp5
I64
aI2179
aI394
aI117
aI7428
aI21151
aI34
aI11389
aI2042
aI24
aI4364
asS'ori'
p6
S'This house would only teach abstinence for sex education in schools'
p7
ssS'output'
p8
(dp9
g4
(lp10
I3
aI4701
aI927
aI2962
aI63
aI289
aI7
aI3534
aI5844
aI440
aI8803
aI9247
aI292
aI45
aI863
aI2439
aI1478
aI5
aI49
aI93
aI24
aI863
aI440
aI9247
aI1530
aI73
aI136
aI2439
aI1478
aI63765
asg6
S'The Guttmacher Institute reports that over 40% of mothers aged 1517 had sexual partners three to five years older and almost one in five had partners six or more years older  .'
p11
ss.