(dp1
S'input'
p2
(dp3
S'encoded'
p4
(lp5
I64
aI2179
aI13605
aI2258
aI45
aI2194
asS'ori'
p6
S'This house prefers trade to aid'
p7
ssS'output'
p8
(dp9
g4
(lp10
I233
aI45
aI19002
aI273
aI182
aI869
aI1047
aI19006
aI63
aI7747
aI64
aI3661
aI63765
aI3
aI237
aI159
aI17284
aI116
aI1047
aI41
aI3
aI2513
aI17284
aI63765
aI2194
aI417
aI99
aI316
aI416
aI45
aI8885
aI2157
aI13161
aI63765
aI134
aI116
aI330
aI45
aI4537
aI2194
aI24
aI159
aI89
aI998
aI63
aI134
aI95
aI113
aI24
aI3
aI7025
aI7
aI1376
aI6390
aI5
aI1376
aI2136
aI63
aI182
aI217
aI311
aI2038
aI7
aI2513
aI63765
aI3
aI1950
aI17284
aI116
aI263
aI3
aI35
aI7801
aI17284
aI63765
aI2203
aI63
aI182
aI7801
aI7412
aI1719
aI11
aI89
aI1445
aI2588
aI7
aI2352
aI19007
aI736
aI271
aI2600
aI63765
aI378
aI134
aI116
aI99
aI773
aI416
aI45
aI211
aI1718
aI63765
aI3
aI3059
aI17284
aI985
aI298
aI89
aI2696
aI116
aI1748
aI19008
aI1609
aI134
aI330
aI34
aI3
aI2696
aI45
aI268
aI24
aI2148
aI2258
aI63765
aI3
aI4649
aI17284
aI116
aI63
aI7
aI6730
aI6390
asg6
S'According to Collier  there are four known traps that contribute this problem . The first such trap is known as the conflict trap . Aid should not be used to finance military endeavors . It is difficult to design aid in such a way that it works even in the environments of poor governance and poor policy that are most at risk of conflict . The second trap is called the natural resource trap . Countries that are resource rich already have a large volume of capital flowing into their economies . However  it is not being used to its potential . The third trap occurs when a country is entirely landlocked  making it difficult for the country to engage in global trade  .   The fourth trap is that of bad governance'
p11
ss.