(dp1
S'input'
p2
(dp3
S'encoded'
p4
(lp5
I64
aI2179
aI43
aI63
aI3
aI4538
aI7
aI4434
aI7793
aI283
aI45
aI3586
aI417
aI316
aI577
asS'ori'
p6
S'This house believes that the sale of violent video games to minors should be banned'
p7
ssS'output'
p8
(dp9
g4
(lp10
I400
aI14870
aI5225
aI182
aI11664
aI75
aI19874
aI73
aI1252
aI89
aI968
aI7
aI3
aI1189
aI8817
aI3
aI4434
aI9076
aI864
aI7
aI51
aI1189
aI17509
aI73
aI75
aI5359
aI77
aI9076
aI7
aI4035
aI14980
aI19
aI8632
aI63765
asg6
S'Sometimes graphic images are censored  by blurring or blocking a portion of the image  cutting the violent portions out of an image sequence or by removing certain portions of film footage from viewing .'
p11
ss.