(dp1
S'input'
p2
(dp3
S'encoded'
p4
(lp5
I64
aI2179
aI43
aI63
aI3
aI4990
aI4991
aI116
aI4850
aI24
aI12166
aI3
aI475
aI7
aI3532
aI3290
aI7
aI4714
asS'ori'
p6
S'This house believes that the Catholic Church is justified in forbidding the use of barrier methods of contraception'
p7
ssS'output'
p8
(dp9
g4
(lp10
I3
aI5669
aI2891
aI7
aI22438
aI60
aI3
aI3445
aI7
aI3
aI12473
aI7
aI89
aI11015
aI5
aI3
aI8286
aI25817
aI11148
aI45
aI134
aI122
aI99
aI117
aI4857
aI19
aI25818
aI3659
aI131
aI174
aI4329
aI45
aI134
aI63765
asg6
S'The medieval development of chivalry  with the concept of the honor of a lady and the ensuing knightly devotion to it  was not only derived from Mariological thinking  but also contributed to it  .'
p11
ss.