(dp1
S'input'
p2
(dp3
S'encoded'
p4
(lp5
I64
aI2179
aI43
aI63
aI17574
aI417
aI316
aI3481
aI34
aI271
aI79
asS'ori'
p6
S'This house believes that housewives should be paid for their work'
p7
ssS'output'
p8
(dp9
g4
(lp10
I85
aI79
aI116
aI1604
aI89
aI939
aI4740
aI34
aI5018
aI2035
aI5
aI1593
aI63765
asg6
S'Care work is becoming a popular topic for academic study and discussion .'
p11
ss.