(dp1
S'input'
p2
(dp3
S'encoded'
p4
(lp5
I64
aI2179
aI394
aI117
aI7428
aI21151
aI34
aI11389
aI2042
aI24
aI4364
asS'ori'
p6
S'This house would only teach abstinence for sex education in schools'
p7
ssS'output'
p8
(dp9
g4
(lp10
I89
aI2035
aI3714
aI24
aI353
aI63
aI20123
aI81
aI382
aI136
aI7098
aI45
aI10953
aI24
aI3
aI897
aI382
aI174
aI136
aI1856
aI45
aI268
aI24
aI8803
aI364
aI777
aI63765
asg6
S'A study conducted in 2006 found that adolescents who were more exposed to sexuality in the media were also more likely to engage in sexual activity themselves  .'
p11
ss.