(dp1
S'input'
p2
(dp3
S'encoded'
p4
(lp5
I64
aI2179
aI43
aI63
aI3
aI4990
aI4991
aI116
aI4850
aI24
aI12166
aI3
aI475
aI7
aI3532
aI3290
aI7
aI4714
asS'ori'
p6
S'This house believes that the Catholic Church is justified in forbidding the use of barrier methods of contraception'
p7
ssS'output'
p8
(dp9
g4
(lp10
I2274
aI2543
aI89
aI2240
aI3313
aI768
aI5697
aI248
aI4306
aI81
aI3711
aI5839
aI14
aI26032
aI155
aI2856
aI864
aI3
aI155
aI427
aI24
aI26033
aI3
aI178
aI5
aI3
aI4730
aI63765
asg6
S'Initially founding a school  she then gathered other sisters who "rescued new-born babies abandoned on rubbish heaps; they sought out the sick; they took in lepers  the unemployed  and the mentally ill" .'
p11
ss.