(dp1
S'input'
p2
(dp3
S'encoded'
p4
(lp5
I64
aI2179
aI394
aI2017
aI262
asS'ori'
p6
S'This house would ban boxing'
p7
ssS'output'
p8
(dp9
g4
(lp10
I3
aI2497
aI55
aI12
aI416
aI34
aI388
aI5
aI116
aI637
aI1480
aI416
aI24
aI381
aI1507
aI226
aI116
aI89
aI1022
aI2497
aI416
aI136
aI1480
aI13842
aI24
aI448
aI2015
aI12423
aI63765
asg6
S'The term "concussion" has been used for centuries and is still commonly used in sports medicine  while "MTBI" is a technical term used more commonly nowadays in general medical contexts .'
p11
ss.