(dp1
S'input'
p2
(dp3
S'encoded'
p4
(lp5
I64
aI2179
aI394
aI5370
aI3
aI5286
asS'ori'
p6
S'This house would abolish the monarchy'
p7
ssS'output'
p8
(dp9
g4
(lp10
I366
aI3
aI24031
aI7
aI3
aI4679
aI7
aI1082
aI743
aI252
aI89
aI4679
aI487
aI25
aI1012
aI24
aI63765
asg6
S'After the dissolution of the Parliament of 1681  Charles ruled without a Parliament until his death in 1685 .'
p11
ss.