(dp1
S'input'
p2
(dp3
S'encoded'
p4
(lp5
I64
aI2179
aI43
aI8629
aI116
aI3
aI117
aI998
asS'ori'
p6
S'This house believes atheism is the only way'
p7
ssS'output'
p8
(dp9
g4
(lp10
I226
aI3
aI3073
aI122
aI1706
aI350
aI7
aI782
aI14
aI6217
aI3217
aI122
aI3041
aI19
aI2742
aI3802
aI24
aI3
aI626
aI187
aI63765
asg6
S"While the data was multi-national  further evidence of religion's effect on societal health was concluded from regional differences in the United States ."
p11
ss.