(dp1
S'input'
p2
(dp3
S'encoded'
p4
(lp5
I64
aI2179
aI394
aI190
aI3
aI21
aI45
aI3895
aI834
asS'ori'
p6
S'This house would limit the right to bear arms'
p7
ssS'output'
p8
(dp9
g4
(lp10
I273
aI116
aI51
aI820
aI2196
aI2230
aI3
aI1362
aI291
aI2611
aI708
aI5
aI2617
aI5
aI248
aI4212
aI63765
asg6
S'There is an open debate regarding the relationship between gun control and violence and other crimes .'
p11
ss.