(dp1
S'input'
p2
(dp3
S'encoded'
p4
(lp5
I64
aI2179
aI394
aI190
aI3
aI21
aI45
aI3895
aI834
asS'ori'
p6
S'This house would limit the right to bear arms'
p7
ssS'output'
p8
(dp9
g4
(lp10
I3
aI4283
aI116
aI3531
aI75
aI2611
aI708
aI3136
aI159
aI41
aI3
aI4317
aI45
aI991
aI2611
aI2617
aI4334
aI4276
aI2639
aI17090
aI2927
aI5
aI2625
aI34
aI2611
aI934
aI63765
asg6
S'The NRA is criticized by gun control groups such as the Coalition to Stop Gun Violence  Brady Campaign  Million Mom March  and Americans for Gun Safety .'
p11
ss.