(dp1
S'input'
p2
(dp3
S'encoded'
p4
(lp5
I64
aI2179
aI43
aI3
aI626
aI187
aI116
aI1989
aI34
aI3102
aI2223
asS'ori'
p6
S"This house believes the United States is responsible for Mexico's drugs war"
p7
ssS'output'
p8
(dp9
g4
(lp10
I80
aI4302
aI3
aI634
aI96
aI7
aI8674
aI3
aI2855
aI7
aI3102
aI958
aI138
aI8813
aI14
aI2466
aI4902
aI5
aI2042
aI256
aI45
aI8814
aI3497
aI63765
asg6
S'Others criticize the continued support of combating the supply of drugs rather than focusing on prevention  treatment and education programs to curb demand .'
p11
ss.