(dp1
S'input'
p2
(dp3
S'encoded'
p4
(lp5
I64
aI2179
aI394
aI16756
aI20435
asS'ori'
p6
S'This house would criminalize blasphemy'
p7
ssS'output'
p8
(dp9
g4
(lp10
I77
aI5344
aI5786
aI11
aI2244
aI30411
aI311
aI3
aI3623
aI132
aI14852
aI11
aI11591
aI63765
asg6
S'Certain secular Muslims have expressed bewilderment at the reaction these cartoons have provoked .'
p11
ss.