(dp1
S'input'
p2
(dp3
S'encoded'
p4
(lp5
I64
aI2179
aI394
aI2017
aI628
asS'ori'
p6
S'This house would ban gambling'
p7
ssS'output'
p8
(dp9
g4
(lp10
I4538
aI7
aI132
aI2938
aI73
aI8732
aI116
aI976
aI378
aI691
aI155
aI3785
aI63
aI3
aI8942
aI1019
aI3426
aI89
aI750
aI8196
aI2487
aI89
aI34154
aI63765
asg6
S'Sale of these systems or software is legal  however  since they mention that the product cannot guarantee a win  let alone a jackpot .'
p11
ss.