(dp1
S'input'
p2
(dp3
S'encoded'
p4
(lp5
I64
aI2179
aI394
aI2017
aI3807
aI314
aI3433
asS'ori'
p6
S'This house would ban partial birth abortions'
p7
ssS'output'
p8
(dp9
g4
(lp10
I3
aI3254
aI752
aI122
aI71
aI75
aI2277
aI3875
aI3876
aI2869
aI2870
aI5
aI1206
aI2839
aI63765
aI2813
aI63765
asg6
S'The Roe decision was opposed by Presidents Gerald Ford  Ronald Reagan  and George W . Bush  .'
p11
ss.