(dp1
S'input'
p2
(dp3
S'encoded'
p4
(lp5
I64
aI2179
aI43
aI223
aI2138
aI11
aI89
aI21
aI45
aI2185
aI372
asS'ori'
p6
S'This house believes all nations have a right to nuclear weapons'
p7
ssS'output'
p8
(dp9
g4
(lp10
I89
aI697
aI7
aI4615
aI11
aI2343
aI3
aI2268
aI158
aI3
aI863
aI3
aI626
aI187
aI2451
aI3
aI626
aI2549
aI2265
aI5
aI2390
aI3
aI863
aI1994
aI2789
aI7
aI3
aI626
aI2138
aI2702
aI63765
asg6
S'A total of 190 parties have joined the Treaty  including the five nuclear-weapon States: the United States  Russia  the United Kingdom  France  and China (also the five permanent members of the United Nations Security Council) .'
p11
ss.