(dp1
S'input'
p2
(dp3
S'encoded'
p4
(lp5
I64
aI2179
aI394
aI4325
aI2042
aI270
aI89
aI11605
aI3324
asS'ori'
p6
S'This house would fund education using a voucher scheme'
p7
ssS'output'
p8
(dp9
g4
(lp10
I1790
aI5
aI4284
aI1198
aI3084
aI459
aI3
aI5705
aI370
aI3
aI16618
aI11
aI89
aI10
aI131
aI880
aI500
aI2659
aI11
aI89
aI10
aI768
aI183
aI63765
asg6
S"Technically and historically  yes-- you know  under the Ottoman Empire  the Palestinians didn't have a state  but neither did Israel have a state then too ."
p11
ss.