(dp1
S'input'
p2
(dp3
S'encoded'
p4
(lp5
I64
aI2179
aI394
aI117
aI7428
aI21151
aI34
aI11389
aI2042
aI24
aI4364
asS'ori'
p6
S'This house would only teach abstinence for sex education in schools'
p7
ssS'output'
p8
(dp9
g4
(lp10
I24
aI3
aI368
aI957
aI7
aI234
aI11389
aI2042
aI24
aI2953
aI55
aI1301
aI2909
aI643
aI63765
asg6
S'In the Western point of view  sex education in Poland has never actually developed .'
p11
ss.