(dp1
S'input'
p2
(dp3
S'encoded'
p4
(lp5
I64
aI2179
aI394
aI16756
aI20435
asS'ori'
p6
S'This house would criminalize blasphemy'
p7
ssS'output'
p8
(dp9
g4
(lp10
I42
aI122
aI12704
aI34
aI3555
aI3
aI8567
aI7
aI3
aI5545
aI8571
aI5
aI3
aI624
aI7
aI8338
aI63765
asg6
S"He was prosecuted for denying the veracity of the Old Testament and the legitimacy of Christ's miracles ."
p11
ss.