(dp1
S'input'
p2
(dp3
S'encoded'
p4
(lp5
I64
aI2179
aI43
aI63
aI3
aI4538
aI7
aI4434
aI7793
aI283
aI45
aI3586
aI417
aI316
aI577
asS'ori'
p6
S'This house believes that the sale of violent video games to minors should be banned'
p7
ssS'output'
p8
(dp9
g4
(lp10
I378
aI42357
aI7587
aI3
aI6457
aI7
aI4047
aI7587
aI122
aI3
aI8893
aI7
aI3
aI8532
aI3954
aI7801
aI1863
aI5
aI122
aI3
aI1410
aI6832
aI24
aI797
aI34
aI1712
aI4612
aI14
aI3954
aI1381
aI3313
aI98
aI99
aI791
aI736
aI3
aI170
aI7932
aI63765
asg6
S'However  Tipper Gore  the wife of Al Gore  was the founder of the Parents Music Resource Center  and was the main figure in pushing for warning labels on music although she does not fit into the conservative demographic .'
p11
ss.