(dp1
S'input'
p2
(dp3
S'encoded'
p4
(lp5
I64
aI2179
aI43
aI63
aI6670
aI546
aI417
aI316
aI89
aI1334
aI3108
aI7
aI4849
aI1886
aI2855
asS'ori'
p6
S'This house believes that wind power should be a primary focus of future energy supply'
p7
ssS'output'
p8
(dp9
g4
(lp10
I8037
aI63
aI132
aI62526
aI1453
aI99
aI1074
aI351
aI5084
aI34
aI3
aI17153
aI2880
aI6694
aI41
aI459
aI6695
aI4262
aI73
aI6694
aI2576
aI566
aI60
aI3
aI384
aI2947
aI63765
asg6
S'Note that these LECs do not include any cost for the greenhouse gas emissions (such as under carbon tax or emissions trading scenarios) associated with the different technologies .'
p11
ss.