(dp1
S'input'
p2
(dp3
S'encoded'
p4
(lp5
I64
aI2179
aI394
aI5370
aI223
aI4013
aI10440
aI2446
aI4881
aI75
aI14482
aI11004
asS'ori'
p6
S'This house would abolish all collective bargaining rights claimed by trades unions'
p7
ssS'output'
p8
(dp9
g4
(lp10
I3
aI2483
aI353
aI63
aI3
aI2131
aI440
aI134
aI3619
aI115
aI45
aI3
aI16526
aI394
aI316
aI24
aI2521
aI7
aI211
aI3938
aI45
aI454
aI3
aI6392
aI7
aI3
aI5546
aI2544
aI5
aI64
aI3670
aI937
aI3
aI3846
aI34
aI3052
aI24
aI92
aI2131
aI2789
aI81
aI163
aI7008
aI45
aI3
aI12342
aI7
aI12395
aI73
aI5341
aI17321
aI493
aI7
aI3
aI1643
aI2131
aI1019
aI3322
aI2131
aI702
aI73
aI64
aI7177
aI4525
aI7
aI3
aI6612
aI7
aI3
aI13115
aI63765
asg6
S'The court found that the union  had it offered assistance to the plaintiff  would be in violation of its duty to protect the tenure of the accused member  and this judgment remains the precedent for cases in which union members who make complaints to the employer of racist or sexist harassment against member(s) of the same union cannot obtain union advice or assistance; this applies irrespective of the merit of the complaint  .'
p11
ss.