(dp1
S'input'
p2
(dp3
S'encoded'
p4
(lp5
I64
aI2179
aI394
aI2017
aI223
aI9058
aI23653
asS'ori'
p6
S'This house would ban all unsustainable logging'
p7
ssS'output'
p8
(dp9
g4
(lp10
I7809
aI223
aI289
aI3
aI4999
aI116
aI3097
aI3
aI7909
aI7
aI3
aI3216
aI131
aI55
aI440
aI946
aI14729
aI4658
aI24
aI3124
aI1021
aI45
aI271
aI177
aI2722
aI63765
asg6
S'Deforestation all over the globe is threatening the sustainability of the environment but has had especially detrimental effects in Nigeria due to their high rates .'
p11
ss.