(dp1
S'input'
p2
(dp3
S'encoded'
p4
(lp5
I64
aI2179
aI394
aI1499
aI3
aI8115
aI34564
aI17106
asS'ori'
p6
S'This house would build the Keystone XL pipeline'
p7
ssS'output'
p8
(dp9
g4
(lp10
I89
aI281
aI20346
aI463
aI26577
aI7439
aI1495
aI5
aI37030
aI3
aI2145
aI63765
aI52
aI63765
asg6
S'A major leak could ruin drinking water and devastate the mid-western U .S . economy  .'
p11
ss.