(dp1
S'input'
p2
(dp3
S'encoded'
p4
(lp5
I64
aI2179
aI43
aI24
aI3
aI475
aI7
aI12436
aI3364
asS'ori'
p6
S'This house believes in the use of affirmative action'
p7
ssS'output'
p8
(dp9
g4
(lp10
I397
aI3
aI544
aI7
aI25930
aI24
aI327
aI100
aI6834
aI24
aI368
aI2138
aI2630
aI45
aI57721
aI3
aI10250
aI6348
aI63765
asg6
S"During the rise of Nazism in Germany  some scientists in Western nations worked to debunk the regime's racial theories ."
p11
ss.