(dp1
S'input'
p2
(dp3
S'encoded'
p4
(lp5
I64
aI2179
aI43
aI63
aI3
aI21
aI45
aI12715
aI417
aI99
aI316
aI2897
asS'ori'
p6
S'This house believes that the right to asylum should not be absolute'
p7
ssS'output'
p8
(dp9
g4
(lp10
I2932
aI55
aI93
aI7
aI3
aI2546
aI3162
aI7
aI8568
aI7479
aI4224
aI60
aI6826
aI1003
aI19
aI45
aI2639
aI78
aI1021
aI45
aI3
aI3889
aI8793
aI2218
aI2513
aI63765
asg6
S"Colombia has one of the world's largest populations of internally displaced persons (IDPs)  with estimates ranging from 2 .6 to 4 .3 million people  due to the ongoing Colombian armed conflict ."
p11
ss.