(dp1
S'input'
p2
(dp3
S'encoded'
p4
(lp5
I64
aI2179
aI43
aI63
aI3
aI4538
aI7
aI4434
aI7793
aI283
aI45
aI3586
aI417
aI316
aI577
asS'ori'
p6
S'This house believes that the sale of violent video games to minors should be banned'
p7
ssS'output'
p8
(dp9
g4
(lp10
I8557
aI8558
aI23259
aI5
aI12442
aI4083
aI11
aI12
aI333
aI24
aI100
aI7793
aI283
aI691
aI3
aI63765
asg6
S'Lesbian  gay  bisexual  and transgender (LGBT) characters have been depicted in some video games since the 1980s .'
p11
ss.