(dp1
S'input'
p2
(dp3
S'encoded'
p4
(lp5
I64
aI2179
aI394
aI2976
aI12243
aI24
aI954
aI126
aI1560
aI10723
asS'ori'
p6
S'This house would implement playoffs in collegiate level American football'
p7
ssS'output'
p8
(dp9
g4
(lp10
I3285
aI45
aI3
aI4573
aI93
aI852
aI415
aI45
aI3503
aI97
aI93
aI852
aI11276
aI3
aI410
aI3572
aI34978
aI4527
aI292
aI4144
aI60
aI89
aI3266
aI103
aI45
aI6372
aI7716
aI24
aI3
aI150
aI1011
aI319
aI63765
asg6
S"Adding to the controversy  Miami's one loss came to yet another one loss team  the PAC-10 champion Washington Huskies  leaving three teams with a legitimate claim to play Oklahoma in the National Championship game ."
p11
ss.