(dp1
S'input'
p2
(dp3
S'encoded'
p4
(lp5
I64
aI2179
aI43
aI63
aI6670
aI546
aI417
aI316
aI89
aI1334
aI3108
aI7
aI4849
aI1886
aI2855
asS'ori'
p6
S'This house believes that wind power should be a primary focus of future energy supply'
p7
ssS'output'
p8
(dp9
g4
(lp10
I5084
aI4386
aI4072
aI7
aI1886
aI104
aI122
aI2845
aI24
aI45
aI316
aI12403
aI45
aI3
aI5084
aI7
aI667
aI5122
aI4204
aI24
aI3
aI2206
aI34
aI5091
aI5
aI35
aI6670
aI5084
aI122
aI2845
aI311
aI4386
aI6716
aI5091
aI311
aI5
aI35
aI2880
aI311
asg6
S'Cost per unit of energy produced was estimated in 2006 to be comparable to the cost of new generating capacity in the US for coal and natural gas: wind cost was estimated at $55 .80 per MWh  coal at $53 .10/MWh and natural gas at $52 .50 '
p11
ss.