(dp1
S'input'
p2
(dp3
S'encoded'
p4
(lp5
I64
aI2179
aI394
aI2773
aI12505
asS'ori'
p6
S'This house would embrace multiculturalism'
p7
ssS'output'
p8
(dp9
g4
(lp10
I34
aI1343
aI24
aI2657
aI89
aI667
aI145
aI7
aI3914
aI1290
aI1298
aI223
aI2144
aI45
aI10
aI271
aI2382
aI5
aI3
aI117
aI7167
aI182
aI5714
aI8378
aI73
aI8499
aI338
aI7533
aI7733
aI63765
asg6
S'For example in Egypt  a new system of identity cards requires all citizens to state their religion - and the only choices are Islam  Christianity or Judaism (See Egyptian identification card controversy) .'
p11
ss.