(dp1
S'input'
p2
(dp3
S'encoded'
p4
(lp5
I64
aI2179
aI394
aI117
aI7428
aI21151
aI34
aI11389
aI2042
aI24
aI4364
asS'ori'
p6
S'This house would only teach abstinence for sex education in schools'
p7
ssS'output'
p8
(dp9
g4
(lp10
I14
aI3
aI248
aI1070
aI273
aI11
aI12
aI1872
aI2992
aI7856
aI63
aI7045
aI9751
aI7
aI3
aI8803
aI19986
aI4309
aI45
aI51
aI3226
aI24
aI3
aI164
aI126
aI7
aI1243
aI24
aI89
aI575
aI2022
aI63765
asg6
S'On the other hand  there have been numerous studies indicating that excessive repression of the sexual instinct leads to an increase in the overall level of aggression in a given society .'
p11
ss.