(dp1
S'input'
p2
(dp3
S'encoded'
p4
(lp5
I64
aI2179
aI43
aI63
aI7382
aI116
aI400
aI4713
asS'ori'
p6
S'This house believes that bribery is sometimes acceptable'
p7
ssS'output'
p8
(dp9
g4
(lp10
I3
aI1950
aI16840
aI122
aI557
aI24
aI16841
aI2756
aI14
aI425
aI45
aI2805
aI63765
asg6
S'The second CoSP was held in Bali  Indonesia  on 28 January to 1 February 2008 .'
p11
ss.