(dp1
S'input'
p2
(dp3
S'encoded'
p4
(lp5
I64
aI2179
aI394
aI5284
aI150
aI3987
asS'ori'
p6
S'This house would reintroduce national service'
p7
ssS'output'
p8
(dp9
g4
(lp10
I3
aI5084
aI7
aI5610
aI139
aI316
aI3365
aI45
aI3
aI6187
aI7
aI3
aI630
aI6188
aI63765
asg6
S'The cost of conscription can be related to the parable of the broken window .'
p11
ss.