(dp1
S'input'
p2
(dp3
S'encoded'
p4
(lp5
I64
aI2179
aI394
aI2017
aI223
aI9058
aI23653
asS'ori'
p6
S'This house would ban all unsustainable logging'
p7
ssS'output'
p8
(dp9
g4
(lp10
I273
aI182
aI174
aI5619
aI2441
aI45
aI46
aI3
aI11656
aI5143
aI7
aI1257
aI1376
aI6390
aI63765
asg6
S'There are also huge challenges to reform the embedded structures of past poor governance .'
p11
ss.