(dp1
S'input'
p2
(dp3
S'encoded'
p4
(lp5
I64
aI2179
aI235
aI3
aI2136
aI7
aI3
aI2306
aI7
aI2390
asS'ori'
p6
S'This house supports the one-child policy of the republic of China'
p7
ssS'output'
p8
(dp9
g4
(lp10
I3557
aI73
aI5175
aI17811
aI5
aI3433
aI88
aI174
aI2723
aI24
aI3
aI4659
aI7
aI2598
aI708
aI189
aI63765
asg6
S'Compulsory or forced sterilizations and abortions may also occur in the context of population control policies .'
p11
ss.