(dp1
S'input'
p2
(dp3
S'encoded'
p4
(lp5
I64
aI2179
aI394
aI2017
aI223
aI9058
aI23653
asS'ori'
p6
S'This house would ban all unsustainable logging'
p7
ssS'output'
p8
(dp9
g4
(lp10
I89
aI281
aI2326
aI24
aI89
aI238
aI675
aI64
aI394
aI13188
aI3
aI2083
aI2456
aI5
aI1476
aI3
aI7161
aI7
aI8667
aI1445
aI1183
aI7
aI6674
aI6715
aI34
aI6923
aI24
aI3
aI3424
aI63765
asg6
S'A major tree-planting program in a place like this would enhance the local climate and reduce the demands of burning large amounts of fossil fuels for cooling in the summer  .'
p11
ss.