(dp1
S'input'
p2
(dp3
S'encoded'
p4
(lp5
I64
aI2179
aI394
aI2998
aI3
aI4360
aI7
aI3249
aI6804
aI24
aI3
aI102
asS'ori'
p6
S'This house would encourage the creation of private universities in the UK'
p7
ssS'output'
p8
(dp9
g4
(lp10
I64
aI122
aI89
aI21073
aI7
aI3
aI2388
aI5475
aI5770
aI189
aI92
aI440
aI777
aI3853
aI2388
aI189
aI24
aI1561
aI7
aI136
aI10375
aI10
aI708
aI63765
asg6
S'This was a reversal of the earlier Song dynasty policies  which had themselves overturned earlier policies in favor of more rigorous state control  .'
p11
ss.