(dp1
S'input'
p2
(dp3
S'encoded'
p4
(lp5
I64
aI2179
aI43
aI223
aI2138
aI11
aI89
aI21
aI45
aI2185
aI372
asS'ori'
p6
S'This house believes all nations have a right to nuclear weapons'
p7
ssS'output'
p8
(dp9
g4
(lp10
I3
aI2176
aI7
aI1022
aI2568
aI146
aI839
aI115
aI45
aI27120
aI2544
aI187
aI620
aI150
aI2742
aI5
aI4949
aI620
aI477
aI7086
aI5854
aI3863
aI8399
aI5
aI3545
aI7
aI1498
aI63765
asg6
S'The Department of Technical Cooperation provides direct assistance to IAEA Member States  through national  regional  and inter-regional projects through training  expert missions  scientific exchanges  and provision of equipment  .'
p11
ss.