(dp1
S'input'
p2
(dp3
S'encoded'
p4
(lp5
I64
aI2179
aI43
aI63
aI3
aI21
aI45
aI12715
aI417
aI99
aI316
aI2897
asS'ori'
p6
S'This house believes that the right to asylum should not be absolute'
p7
ssS'output'
p8
(dp9
g4
(lp10
I3
aI6426
aI6591
aI2784
aI7
aI122
aI3
aI237
aI7
aI725
aI27872
aI1647
aI7
aI2221
aI45
aI190
aI3
aI3142
aI7
aI5307
aI736
aI3
aI2145
aI63765
asg6
S'The Chinese Exclusion Act of 1882 was the first of many nativist acts of Congress to limit the flow of immigrants into the U .S .'
p11
ss.