(dp1
S'input'
p2
(dp3
S'encoded'
p4
(lp5
I64
aI2179
aI394
aI4261
aI8667
aI3
aI9361
aI5
aI17069
asS'ori'
p6
S'This house would prohibit burning the stars and stripes'
p7
ssS'output'
p8
(dp9
g4
(lp10
I10366
aI3649
aI3
aI7042
aI378
aI45
aI3769
aI3
aI70
aI5
aI45
aI56935
aI32882
aI63765
asg6
S'Hamilton persuaded the jury  however  to disregard the law and to acquit Zenger .'
p11
ss.