(dp1
S'input'
p2
(dp3
S'encoded'
p4
(lp5
I64
aI2179
aI394
aI4261
aI8667
aI3
aI9361
aI5
aI17069
asS'ori'
p6
S'This house would prohibit burning the stars and stripes'
p7
ssS'output'
p8
(dp9
g4
(lp10
I3
aI3264
aI45
aI3
aI2475
aI394
aI163
aI8667
aI3
aI5449
aI89
aI13293
aI3211
aI63765
asg6
S'The Amendment to the Constitution would make burning the flag a punishable crime .'
p11
ss.