(dp1
S'input'
p2
(dp3
S'encoded'
p4
(lp5
I64
aI2179
aI43
aI63
aI3357
aI5003
aI652
aI3
aI188
aI3262
asS'ori'
p6
S'This house believes that opinion polls harm the democratic process'
p7
ssS'output'
p8
(dp9
g4
(lp10
I100
aI78
aI88
aI99
aI316
aI10570
aI75
aI10563
aI19
aI10571
aI45
aI10572
aI5
aI88
aI316
aI10570
aI117
aI75
aI10573
aI63765
asg6
S'Some people may not be contactable by landline from Monday to Friday and may be contactable only by cellphone .'
p11
ss.