(dp1
S'input'
p2
(dp3
S'encoded'
p4
(lp5
I64
aI2179
aI394
aI163
aI959
aI2042
aI3557
asS'ori'
p6
S'This house would make physical education compulsory'
p7
ssS'output'
p8
(dp9
g4
(lp10
I8544
aI16329
aI139
aI316
aI1607
aI14
aI75
aI89
aI1051
aI7
aI1356
aI92
aI153
aI2784
aI24
aI1103
aI63765
asg6
S'Childhood obesity can be brought on by a range of factors which often act in combination  .'
p11
ss.