(dp1
S'input'
p2
(dp3
S'encoded'
p4
(lp5
I64
aI2179
aI394
aI117
aI7428
aI21151
aI34
aI11389
aI2042
aI24
aI4364
asS'ori'
p6
S'This house would only teach abstinence for sex education in schools'
p7
ssS'output'
p8
(dp9
g4
(lp10
I273
aI116
aI207
aI350
aI45
aI96
aI3
aI279
aI1361
aI63
aI11390
aI3534
aI1199
aI3314
aI45
aI1192
aI127
aI9
aI5
aI2132
aI160
aI63765
asg6
S'There is little evidence to support the common belief that teenage mothers become pregnant to get benefits  welfare  and council housing .'
p11
ss.