(dp1
S'input'
p2
(dp3
S'encoded'
p4
(lp5
I64
aI2179
aI43
aI63
aI3
aI21
aI45
aI12715
aI417
aI99
aI316
aI2897
asS'ori'
p6
S'This house believes that the right to asylum should not be absolute'
p7
ssS'output'
p8
(dp9
g4
(lp10
I3
aI16761
aI128
aI122
aI51
aI3264
aI45
aI3
aI16761
aI3890
aI2784
aI63765
asg6
S'The Aliens Order 1920 was an amendment to the 1919 Aliens Restriction Act .'
p11
ss.