(dp1
S'input'
p2
(dp3
S'encoded'
p4
(lp5
I64
aI2179
aI43
aI63
aI2659
aI417
aI1690
aI3
aI12048
aI7
aI19084
asS'ori'
p6
S'This house believes that Israel should lift the blockade of Gaza'
p7
ssS'output'
p8
(dp9
g4
(lp10
I3
aI3727
aI2586
aI45
aI25087
aI5
aI18984
aI226
aI24
aI3
aI631
aI22271
aI1708
aI86
aI45
aI3
aI5995
aI20537
aI3243
aI5
aI2659
aI63765
asg6
S'The activists began to yell and curse while in the police bus taking them to the airport  cursing officers and Israel .'
p11
ss.