(dp1
S'input'
p2
(dp3
S'encoded'
p4
(lp5
I64
aI2179
aI43
aI63
aI17574
aI417
aI316
aI3481
aI34
aI271
aI79
asS'ori'
p6
S'This house believes that housewives should be paid for their work'
p7
ssS'output'
p8
(dp9
g4
(lp10
I759
aI7
aI3
aI1025
aI63
aI9347
aI85
aI79
aI116
aI4024
aI3192
aI116
aI604
aI7
aI64
aI1361
aI63
aI3
aI4450
aI98
aI99
aI399
aI3064
aI63765
asg6
S'Part of the reason that unpaid care work is largely ignored is because of this belief that the household does not form wealth .'
p11
ss.