(dp1
S'input'
p2
(dp3
S'encoded'
p4
(lp5
I64
aI2179
aI43
aI63
aI2203
aI60
aI51
aI997
aI2837
aI21716
aI1636
aI5349
aI417
aI2998
aI8532
aI45
aI3051
aI8578
asS'ori'
p6
S'This house believes that countries with an imbalanced male/female ratio skewed towards males should encourage parents to produce girls'
p7
ssS'output'
p8
(dp9
g4
(lp10
I1036
aI3862
aI88
aI316
aI136
aI37146
aI24
aI3
aI4849
aI5
aI508
aI124
aI136
aI2351
aI63765
asg6
S'male children may be more employable in the future and thus provide more financial support) .'
p11
ss.