(dp1
S'input'
p2
(dp3
S'encoded'
p4
(lp5
I64
aI2179
aI43
aI223
aI2138
aI11
aI89
aI21
aI45
aI2185
aI372
asS'ori'
p6
S'This house believes all nations have a right to nuclear weapons'
p7
ssS'output'
p8
(dp9
g4
(lp10
I6700
aI11877
aI373
aI149
aI7
aI51
aI845
aI5
aI3
aI2185
aI2349
aI910
aI461
aI736
aI2838
aI34
aI100
aI2439
aI63765
asg6
S'Radioactive fallout became less of an issue and the nuclear disarmament movement went into decline for some years  .'
p11
ss.