(dp1
S'input'
p2
(dp3
S'encoded'
p4
(lp5
I64
aI2179
aI43
aI63
aI3
aI28431
aI7
aI2157
aI4624
aI75
aI39939
aI27257
aI122
aI4850
asS'ori'
p6
S'This house believes that the leaking of military documents by Anat Kamm was justified'
p7
ssS'output'
p8
(dp9
g4
(lp10
I3
aI3572
aI901
aI5047
aI63
aI3
aI2176
aI122
aI7960
aI4694
aI459
aI3
aI11869
aI2784
aI89
aI831
aI92
aI809
aI13415
aI23651
aI41
aI604
aI7
aI237
aI3264
aI4625
aI34
aI3
aI2961
aI63765
asg6
S'" The Washington Post reported that the department was considering charges under the Espionage Act  a move which former prosecutors characterised as "difficult" because of First Amendment protections for the press  .'
p11
ss.