(dp1
S'input'
p2
(dp3
S'encoded'
p4
(lp5
I64
aI2179
aI43
aI63
aI3
aI4538
aI7
aI4434
aI7793
aI283
aI45
aI3586
aI417
aI316
aI577
asS'ori'
p6
S'This house believes that the sale of violent video games to minors should be banned'
p7
ssS'output'
p8
(dp9
g4
(lp10
I4358
aI182
aI353
aI45
aI316
aI75
aI226
aI5600
aI7793
aI283
aI226
aI14606
aI16251
aI3659
aI63765
asg6
S'Students are found to be "learning by doing" while playing video games while fostering creative thinking  .'
p11
ss.