(dp1
S'input'
p2
(dp3
S'encoded'
p4
(lp5
I64
aI2179
aI43
aI63
aI2157
aI2565
aI493
aI19084
aI382
aI4850
asS'ori'
p6
S"This house believes that Israel's 2008-2009 military operations against Gaza were justified"
p7
ssS'output'
p8
(dp9
g4
(lp10
I14
aI3
aI5111
aI7
aI425
aI2659
aI2586
aI3
aI1528
aI3099
aI60
aI89
aI7038
aI13656
aI24945
aI223
aI2319
aI3
aI19084
aI17840
aI5
aI1528
aI2219
aI382
aI1969
aI736
aI19084
aI34
aI3
aI237
aI413
aI691
aI3
aI5099
aI7
aI3
aI2513
aI63765
asg6
S'On the evening of January 3  Israel began the ground operation with a massive artillery barrage all along the Gaza boundary  and ground forces were sent into Gaza for the first time since the start of the conflict  .'
p11
ss.