(dp1
S'input'
p2
(dp3
S'encoded'
p4
(lp5
I64
aI2179
aI43
aI17
aI4941
aI857
aI3211
asS'ori'
p6
S'This house believes social deprivation causes crime'
p7
ssS'output'
p8
(dp9
g4
(lp10
I620
aI2585
aI64
aI2142
aI11648
aI45
aI3204
aI17076
aI2248
aI189
aI5
aI3237
aI5
aI836
aI12014
aI5269
aI5
aI15794
aI63765
asg6
S'Through collaboration  this organizations aims to improve juvenile justice policies and practices and create safer communities and neighborhoods  .'
p11
ss.