(dp1
S'input'
p2
(dp3
S'encoded'
p4
(lp5
I64
aI2179
aI43
aI63
aI2157
aI2565
aI493
aI19084
aI382
aI4850
asS'ori'
p6
S"This house believes that Israel's 2008-2009 military operations against Gaza were justified"
p7
ssS'output'
p8
(dp9
g4
(lp10
I905
aI187
aI63
aI233
aI45
aI119
aI5224
aI2659
aI55
aI3714
aI100
aI2636
aI8745
aI736
aI13410
aI75
aI3
aI4160
aI5
aI248
aI8281
aI63765
asg6
S'"The committee\'s report states that  according to available information  Israel has conducted some 400 command investigations into allegations by the fact-finding mission and other organisations .'
p11
ss.