(dp1
S'input'
p2
(dp3
S'encoded'
p4
(lp5
I64
aI2179
aI394
aI15841
aI2736
asS'ori'
p6
S'This house would disband ASEAN'
p7
ssS'output'
p8
(dp9
g4
(lp10
I64
aI2736
aI998
aI55
aI1902
aI2843
aI2126
aI1240
aI482
aI24
aI3
aI7465
aI7
aI17029
aI75
aI2468
aI2690
aI5686
aI60
aI6426
aI5
aI2736
aI5726
aI9570
aI45
aI5262
aI7051
aI6021
aI45
aI20218
aI8447
aI24
aI3
aI2318
aI2390
aI7145
aI51
aI1185
aI9209
aI865
aI49
aI89
aI7575
aI7
aI30282
aI63765
asg6
S'This ASEAN Way has recently proven itself relatively successful in the settlements of disputes by peaceful manner realm  with Chinese and ASEAN officials agreeing to draft guidelines ordered to avert tension in the South China Sea  an important milestone ending almost a decade of deadlock  .'
p11
ss.