(dp1
S'input'
p2
(dp3
S'encoded'
p4
(lp5
I64
aI2179
aI394
aI16642
aI1376
aI5269
asS'ori'
p6
S'This house would subsidize poor communities'
p7
ssS'output'
p8
(dp9
g4
(lp10
I1458
aI1365
aI6941
aI1406
aI45
aI6729
aI462
aI195
aI1021
aI45
aI3
aI24658
aI580
aI7
aI3
aI3213
aI24
aI4645
aI45
aI25
aI73
aI732
aI1341
aI1028
aI63765
asg6
S'Competition amongst workers tends to drive down wages due to the expendable nature of the worker in relation to his or her particular job .'
p11
ss.