(dp1
S'input'
p2
(dp3
S'encoded'
p4
(lp5
I64
aI2179
aI394
aI1499
aI3
aI8115
aI34564
aI17106
asS'ori'
p6
S'This house would build the Keystone XL pipeline'
p7
ssS'output'
p8
(dp9
g4
(lp10
I378
aI19268
aI2410
aI5136
aI182
aI1674
aI7456
aI60
aI2410
aI5084
aI4696
aI7
aI19
aI45
aI1021
aI45
aI7520
aI7
aI203
aI5
aI5941
aI63765
asg6
S'However  bitumen production costs are rising rapidly  with production cost increases of 55% from 2005 to 2007  due to shortages of labor and materials  .'
p11
ss.