(dp1
S'input'
p2
(dp3
S'encoded'
p4
(lp5
I64
aI2179
aI43
aI63
aI2157
aI2565
aI493
aI19084
aI382
aI4850
asS'ori'
p6
S"This house believes that Israel's 2008-2009 military operations against Gaza were justified"
p7
ssS'output'
p8
(dp9
g4
(lp10
I24
aI2657
aI3
aI7058
aI1404
aI3
aI260
aI45
aI3852
aI3
aI19087
aI2581
aI1634
aI45
aI501
aI3
aI11676
aI7
aI3964
aI5
aI1507
aI45
aI3
aI19084
aI966
aI63765
asg6
S'In Egypt  the protests caused the government to reopen the Rafah border crossing to allow the delivery of food and medicine to the Gaza Strip  .'
p11
ss.