(dp1
S'input'
p2
(dp3
S'encoded'
p4
(lp5
I64
aI2179
aI43
aI63
aI134
aI116
aI400
aI21
aI34
aI3
aI260
aI45
aI3439
aI57
aI7
aI2381
asS'ori'
p6
S'This house believes that it is sometimes right for the government to restrict freedom of speech'
p7
ssS'output'
p8
(dp9
g4
(lp10
I19
aI45
aI4136
aI7
aI16727
aI382
aI12704
aI459
aI3
aI5549
aI2784
aI63765
asg6
S'From 1941 to 1957  hundreds of socialists were prosecuted under the Smith Act .'
p11
ss.