(dp1
S'input'
p2
(dp3
S'encoded'
p4
(lp5
I64
aI2179
aI394
aI4325
aI2042
aI270
aI89
aI11605
aI3324
asS'ori'
p6
S'This house would fund education using a voucher scheme'
p7
ssS'output'
p8
(dp9
g4
(lp10
I3007
aI2493
aI3
aI2937
aI34
aI3
aI4445
aI45
aI992
aI358
aI2587
aI73
aI113
aI15618
aI2987
aI45
aI991
aI8579
aI24
aI27730
aI417
aI3
aI2800
aI2702
aI2132
aI4976
aI45
aI63765
asg6
S'467  Paul rejected the proposal for "[urging] the Administration to seriously consider multilateral or even unilateral intervention to stop genocide in Darfur should the UN Security Council fail to act" .'
p11
ss.