(dp1
S'input'
p2
(dp3
S'encoded'
p4
(lp5
I64
aI2179
aI43
aI63
aI3
aI4538
aI7
aI4434
aI7793
aI283
aI45
aI3586
aI417
aI316
aI577
asS'ori'
p6
S'This house believes that the sale of violent video games to minors should be banned'
p7
ssS'output'
p8
(dp9
g4
(lp10
I3
aI2483
aI557
aI63
aI4462
aI34
aI7793
aI116
aI30078
aI5
aI4420
aI13598
aI604
aI41
aI51
aI4834
aI4462
aI7
aI7793
aI319
aI134
aI139
aI316
aI56
aI19
aI3
aI2784
aI252
aI8977
aI3
aI5391
aI73
aI6424
aI7
aI3
aI248
aI3663
aI63765
asg6
S'The court held that definition for "violent video game" is grammatically and functionally separable because  as an alternative definition of "violent video game " it can be removed from the Act without affecting the wording or function of the Act\'s other provisions  .'
p11
ss.