(dp1
S'input'
p2
(dp3
S'encoded'
p4
(lp5
I64
aI2179
aI394
aI9385
aI2497
aI447
aI14
aI3
aI3578
aI5721
aI7
aI260
asS'ori'
p6
S'This house would enforce term limits on the legislative branch of government'
p7
ssS'output'
p8
(dp9
g4
(lp10
I41
aI155
aI14164
aI45
aI2221
aI132
aI2511
aI182
aI443
aI593
aI3453
aI378
aI41
aI24
aI3
aI2145
aI63765
aI2482
aI2483
aI3853
aI4330
aI2497
aI447
aI2528
aI63
aI10
aI220
aI1019
aI190
aI3
aI1809
aI7
aI2789
aI7
aI3
aI150
aI260
aI63765
asg6
S'As they pertain to Congress  these laws are no longer enforceable  however  as in 1995  the U .S . Supreme Court overturned congressional term limits  ruling that state governments cannot limit the terms of members of the national government  .'
p11
ss.