(dp1
S'input'
p2
(dp3
S'encoded'
p4
(lp5
I64
aI2179
aI43
aI63
aI11083
aI10046
aI417
aI316
aI89
aI3135
aI4603
asS'ori'
p6
S'This house believes that Holocaust denial should be a criminal offence'
p7
ssS'output'
p8
(dp9
g4
(lp10
I378
aI8836
aI500
aI99
aI961
aI7
aI3418
aI89
aI2340
aI42
aI174
aI3470
aI267
aI14349
aI7
aI5494
aI5
aI1442
aI2705
aI8836
aI1642
aI7
aI3
aI8389
aI7324
aI63765
asg6
S"However  Hoss's testimony did not consist of merely a signed confession; he also wrote two volumes of memoirs and gave extensive testimony outside of the Nuremberg proceedings  ."
p11
ss.