(dp1
S'input'
p2
(dp3
S'encoded'
p4
(lp5
I64
aI2179
aI394
aI117
aI7428
aI21151
aI34
aI11389
aI2042
aI24
aI4364
asS'ori'
p6
S'This house would only teach abstinence for sex education in schools'
p7
ssS'output'
p8
(dp9
g4
(lp10
I751
aI3485
aI89
aI2471
aI7
aI4766
aI887
aI5350
aI182
aI5047
aI45
aI316
aI3
aI4701
aI927
aI353
aI63
aI7
aI8578
aI81
aI440
aI11389
aI751
aI3485
aI382
aI8820
aI75
aI5349
aI81
aI14
aI582
aI382
aI1530
aI2439
aI271
aI5520
aI63765
asg6
S'Before age 15  a majority of first-intercourse experiences among females are reported to be non-voluntary; the Guttmacher Institute found that 60% of girls who had sex before age 15 were coerced by males who on average were six years their senior .'
p11
ss.