(dp1
S'input'
p2
(dp3
S'encoded'
p4
(lp5
I64
aI2179
aI43
aI63
aI3
aI21
aI45
aI12715
aI417
aI99
aI316
aI2897
asS'ori'
p6
S'This house believes that the right to asylum should not be absolute'
p7
ssS'output'
p8
(dp9
g4
(lp10
I291
aI5
aI273
aI116
aI89
aI1674
aI2229
aI24
aI13996
aI7
aI1968
aI23530
aI131
aI3
aI2711
aI5162
aI14
aI1788
aI10252
aI90
aI7
aI7566
aI7286
aI1678
aI63765
asg6
S'Between 1994 and 1996 there is a rising trend in detection of illegal entrants but the numbers released on Temporary Admission  (a kind of bail)  climbs steadily upwards .'
p11
ss.