(dp1
S'input'
p2
(dp3
S'encoded'
p4
(lp5
I64
aI2179
aI43
aI63
aI1036
aI4828
aI33250
aI116
aI25073
aI45
aI3315
aI4562
asS'ori'
p6
S'This house believes that male infant circumcision is tantamount to child abuse'
p7
ssS'output'
p8
(dp9
g4
(lp10
I24
aI23625
aI3
aI33218
aI116
aI713
aI24
aI3
aI13942
aI7
aI15
aI4926
aI5
aI1856
aI55
aI12
aI713
aI34
aI3189
aI7
aI2439
aI7
aI7829
aI63765
asg6
S'In primates  the foreskin is present in the genitalia of both sexes and likely has been present for millions of years of evolution  .'
p11
ss.