(dp1
S'input'
p2
(dp3
S'encoded'
p4
(lp5
I64
aI2179
aI394
aI2017
aI223
aI9058
aI23653
asS'ori'
p6
S'This house would ban all unsustainable logging'
p7
ssS'output'
p8
(dp9
g4
(lp10
I41
aI3
aI2598
aI2836
aI45
aI8123
aI3
aI1227
aI7
aI3
aI78
aI3226
aI63765
asg6
S'As the population continues to grow  the needs of the people increase .'
p11
ss.