(dp1
S'input'
p2
(dp3
S'encoded'
p4
(lp5
I64
aI2179
aI43
aI63
aI6670
aI546
aI417
aI316
aI89
aI1334
aI3108
aI7
aI4849
aI1886
aI2855
asS'ori'
p6
S'This house believes that wind power should be a primary focus of future energy supply'
p7
ssS'output'
p8
(dp9
g4
(lp10
I3
aI3226
aI24
aI4204
aI5085
aI7
aI5153
aI2938
aI98
aI99
aI3420
aI51
aI3226
aI24
aI4510
aI131
aI958
aI89
aI2327
aI864
aI7
aI3
aI413
aI289
aI92
aI3
aI145
aI14463
aI546
aI63765
asg6
S'The increase in capacity factor of thermal systems does not represent an increase in efficiency  but rather a spreading out of the time over which the system generates power  .'
p11
ss.