(dp1
S'input'
p2
(dp3
S'encoded'
p4
(lp5
I64
aI2179
aI43
aI8629
aI116
aI3
aI117
aI998
asS'ori'
p6
S'This house believes atheism is the only way'
p7
ssS'output'
p8
(dp9
g4
(lp10
I24
aI25
aI26
aI4772
aI45
aI89
aI5711
aI2548
aI1115
aI3366
aI68
aI116
aI89
aI2497
aI63
aI417
aI99
aI113
aI4532
aI63765
asg6
S'In his book Letter to a Christian Nation  Sam Harris wrote:In fact  "atheism" is a term that should not even exist .'
p11
ss.