(dp1
S'input'
p2
(dp3
S'encoded'
p4
(lp5
I64
aI2179
aI43
aI17
aI4941
aI857
aI3211
asS'ori'
p6
S'This house believes social deprivation causes crime'
p7
ssS'output'
p8
(dp9
g4
(lp10
I12511
aI4212
aI88
aI6455
aI45
aI4226
aI5300
aI2382
aI8803
aI12507
aI5
aI959
aI12493
aI63765
asg6
S'Hate crimes may refer to race ancestry religion  sexual orientation and physical disabilities .'
p11
ss.