(dp1
S'input'
p2
(dp3
S'encoded'
p4
(lp5
I64
aI2179
aI43
aI24
aI3
aI475
aI7
aI12436
aI3364
asS'ori'
p6
S'This house believes in the use of affirmative action'
p7
ssS'output'
p8
(dp9
g4
(lp10
I226
aI24
aI4758
aI3
aI1980
aI440
aI10744
aI1191
aI16203
aI2617
aI5
aI500
aI99
aI44459
aI113
aI298
aI965
aI78
aI44460
aI86
aI311
aI3
aI1180
aI63765
asg6
S'While in college  the men had learned about non violence  and did not budge  even when white people tormented them at the counter .'
p11
ss.