(dp1
S'input'
p2
(dp3
S'encoded'
p4
(lp5
I64
aI2179
aI43
aI63
aI3
aI4538
aI7
aI4434
aI7793
aI283
aI45
aI3586
aI417
aI316
aI577
asS'ori'
p6
S'This house believes that the sale of violent video games to minors should be banned'
p7
ssS'output'
p8
(dp9
g4
(lp10
I134
aI55
aI12
aI1966
aI273
aI116
aI246
aI89
aI1160
aI7
aI5229
aI2992
aI92
aI139
aI316
aI2357
aI111
aI5
aI63
aI3
aI7793
aI319
aI5938
aI55
aI1199
aI51
aI1408
aI1409
aI34
aI3
aI897
aI45
aI8472
aI34
aI725
aI8
aI1379
aI251
aI63765
asg6
S'It has been argued there is generally a lack of quality studies which can be relied upon and that the video game industry has become an easy target for the media to blame for many modern day problems  .'
p11
ss.