(dp1
S'input'
p2
(dp3
S'encoded'
p4
(lp5
I64
aI2179
aI43
aI63
aI3
aI21
aI45
aI12715
aI417
aI99
aI316
aI2897
asS'ori'
p6
S'This house believes that the right to asylum should not be absolute'
p7
ssS'output'
p8
(dp9
g4
(lp10
I1381
aI3
aI3445
aI122
aI99
aI13837
aI311
aI3
aI413
aI134
aI122
aI3
aI5099
aI7
aI89
aI593
aI2497
aI2136
aI7
aI3
aI63
aI116
aI45
aI831
aI3
aI2581
aI708
aI2192
aI87
aI41
aI45
aI1292
aI3
aI5118
aI3539
aI7
aI17082
aI3368
aI5
aI8674
aI1968
aI9107
aI63765
asg6
S'Although the concept was not voiced at the time it was the start of a longer term policy of "exporting the border"  that is  to move the border control abroad so as to avoid the costly processes of in-country detention  in-country appeals and combating illegal entry .'
p11
ss.