(dp1
S'input'
p2
(dp3
S'encoded'
p4
(lp5
I64
aI2179
aI43
aI17
aI4941
aI857
aI3211
asS'ori'
p6
S'This house believes social deprivation causes crime'
p7
ssS'output'
p8
(dp9
g4
(lp10
I24
aI128
aI45
aI975
aI4510
aI60537
aI73
aI1795
aI7
aI271
aI2444
aI63765
asg6
S'in order to ensure efficiency  capitalisation or protection of their interests  .'
p11
ss.