(dp1
S'input'
p2
(dp3
S'encoded'
p4
(lp5
I64
aI2179
aI394
aI60
aI23587
asS'ori'
p6
S'This house would re-engage with Myanmar'
p7
ssS'output'
p8
(dp9
g4
(lp10
I24
aI41
aI759
aI7
aI3
aI2201
aI3228
aI3229
aI3118
aI122
aI11267
aI7
aI270
aI874
aI2706
aI2955
aI4144
aI45
aI1499
aI89
aI19256
aI2950
aI5140
aI63765
asg6
S'In 2010 as part of the Wikileaks leaked cables  Burma was suspected of using North Korean construction teams to build a fortified Surface-to-Air Missile facility  .'
p11
ss.