(dp1
S'input'
p2
(dp3
S'encoded'
p4
(lp5
I64
aI2179
aI394
aI117
aI7428
aI21151
aI34
aI11389
aI2042
aI24
aI4364
asS'ori'
p6
S'This house would only teach abstinence for sex education in schools'
p7
ssS'output'
p8
(dp9
g4
(lp10
I41
aI60
aI248
aI7996
aI7167
aI64
aI8526
aI2368
aI11389
aI5
aI2567
aI139
aI1569
aI1817
aI63765
asg6
S'As with other lifestyle choices  this attitude toward sex and relationships can vary greatly .'
p11
ss.