(dp1
S'input'
p2
(dp3
S'encoded'
p4
(lp5
I64
aI2179
aI43
aI17
aI4941
aI857
aI3211
asS'ori'
p6
S'This house believes social deprivation causes crime'
p7
ssS'output'
p8
(dp9
g4
(lp10
I41
aI5047
aI24
aI75
aI3
aI5354
aI7
aI17076
aI2248
aI5
aI13537
aI2466
aI2900
aI7
aI223
aI17078
aI182
aI965
aI3386
aI1560
aI7700
aI2646
aI5
aI15800
aI63765
asg6
S'As reported in 2009 by the Office of Juvenile Justice and Delinquency Prevention  57% percent of all juveniles are White  15% Black  1% American Indian  5% Asian  and 22% Hispanic .'
p11
ss.