(dp1
S'input'
p2
(dp3
S'encoded'
p4
(lp5
I64
aI2179
aI394
aI16756
aI20435
asS'ori'
p6
S'This house would criminalize blasphemy'
p7
ssS'output'
p8
(dp9
g4
(lp10
I134
aI2173
aI63
aI7
aI2381
aI5
aI17997
aI7208
aI1453
aI99
aI532
aI45
aI3
aI21
aI45
aI10126
aI5
aI63
aI417
aI316
aI8584
aI63765
asg6
S'It stated that "freedom of speech and disseminating ideas do not amount to the right to insult " and that no-one\'s "sacred values" should be humiliated .'
p11
ss.