(dp1
S'input'
p2
(dp3
S'encoded'
p4
(lp5
I64
aI2179
aI394
aI4325
aI2042
aI270
aI89
aI11605
aI3324
asS'ori'
p6
S'This house would fund education using a voucher scheme'
p7
ssS'output'
p8
(dp9
g4
(lp10
I132
aI267
aI1486
aI7
aI4262
aI10781
aI139
aI1398
aI316
aI4341
aI45
aI1616
aI223
aI61309
aI982
aI112
aI61310
aI89
aI7088
aI4262
aI8921
aI2326
aI63765
asg6
S'These two types of tax credits can easily be combined to cover all familiesfrom low income upin a comprehensive tax credit program .'
p11
ss.