(dp1
S'input'
p2
(dp3
S'encoded'
p4
(lp5
I64
aI2179
aI43
aI63
aI134
aI116
aI400
aI21
aI34
aI3
aI260
aI45
aI3439
aI57
aI7
aI2381
asS'ori'
p6
S'This house believes that it is sometimes right for the government to restrict freedom of speech'
p7
ssS'output'
p8
(dp9
g4
(lp10
I1769
aI45
aI4358
aI3
aI3130
aI88
aI25697
aI440
aI12
aI2200
aI81
aI41
aI3
aI13309
aI7
aI12736
aI25700
aI25701
aI42
aI394
aI675
aI45
aI405
aI89
aI25702
aI60
aI63765
asg6
S'Speaking to students the previous May  Malkovich had been asked who  as the star of Les Liaisons Dangereuses  he would like to fight a duel with .'
p11
ss.