(dp1
S'input'
p2
(dp3
S'encoded'
p4
(lp5
I64
aI2179
aI394
aI117
aI7428
aI21151
aI34
aI11389
aI2042
aI24
aI4364
asS'ori'
p6
S'This house would only teach abstinence for sex education in schools'
p7
ssS'output'
p8
(dp9
g4
(lp10
I1968
aI3257
aI174
aI835
aI725
aI4779
aI34
aI11390
aI8578
aI24
aI2506
aI159
aI41
aI2404
aI63765
asg6
S'Illegal abortion also holds many risks for teenage girls in areas such as sub-Saharan Africa  .'
p11
ss.