(dp1
S'input'
p2
(dp3
S'encoded'
p4
(lp5
I64
aI2179
aI43
aI63
aI134
aI116
aI400
aI21
aI34
aI3
aI260
aI45
aI3439
aI57
aI7
aI2381
asS'ori'
p6
S'This house believes that it is sometimes right for the government to restrict freedom of speech'
p7
ssS'output'
p8
(dp9
g4
(lp10
I5072
aI89
aI279
aI1462
aI7
aI132
aI2446
aI5
aI2379
aI116
aI7
aI3
aI2715
aI596
aI34
aI3
aI838
aI23826
aI7
aI64
aI5513
aI63765
asg6
S'Whereas a common understanding of these rights and freedoms is of the greatest importance for the full realization of this pledge   .'
p11
ss.