(dp1
S'input'
p2
(dp3
S'encoded'
p4
(lp5
I64
aI2179
aI394
aI16756
aI20435
asS'ori'
p6
S'This house would criminalize blasphemy'
p7
ssS'output'
p8
(dp9
g4
(lp10
I2200
aI1191
aI64
aI24
aI3
aI24612
aI48423
aI500
aI99
aI9036
aI351
aI1620
aI131
aI6856
aI34
aI260
aI500
aI4753
aI3
aI7454
aI7
aI18019
aI14
aI89
aI696
aI7
asg6
S'Asked about this in the Dail  Ahern did not offer any commitment  but said:the programme for Government did indicate the possibility of referendums on a number of issues.'
p11
ss.