(dp1
S'input'
p2
(dp3
S'encoded'
p4
(lp5
I64
aI2179
aI43
aI8629
aI116
aI3
aI117
aI998
asS'ori'
p6
S'This house believes atheism is the only way'
p7
ssS'output'
p8
(dp9
g4
(lp10
I14580
aI116
aI99
aI8629
aI34
aI134
aI4993
aI63
aI273
aI116
aI89
aI131
aI134
aI116
aI34
aI134
aI13639
aI63
aI5480
aI116
aI89
aI773
aI1261
aI19
aI4360
aI5
aI5499
aI7
aI159
aI1044
aI41
aI16952
aI5
aI10700
aI5
aI10729
aI63765
asg6
S'Pantheism is not atheism  for it admits that there is a God; but it is anti-theism  for it denies that God is a being distinct from creation and possessed of such attributes as wisdom  and holiness  and love .'
p11
ss.