(dp1
S'input'
p2
(dp3
S'encoded'
p4
(lp5
I64
aI2179
aI394
aI4261
aI8667
aI3
aI9361
aI5
aI17069
asS'ori'
p6
S'This house would prohibit burning the stars and stripes'
p7
ssS'output'
p8
(dp9
g4
(lp10
I8667
aI3
aI5449
aI122
aI89
aI399
aI7
aI6249
aI2381
aI2195
aI45
aI1795
aI459
aI3
aI237
aI3264
asg6
S'burning the flag was a form of symbolic speech subject to protection under the First Amendment'
p11
ss.