(dp1
S'input'
p2
(dp3
S'encoded'
p4
(lp5
I64
aI2179
aI394
aI163
aI959
aI2042
aI3557
asS'ori'
p6
S'This house would make physical education compulsory'
p7
ssS'output'
p8
(dp9
g4
(lp10
I1902
aI217
aI10727
aI4364
aI11
aI2386
aI3217
aI4416
aI34
aI4358
aI41
aI261
aI41
aI959
aI2042
aI5052
aI63765
asg6
S'Recently most elementary schools have specific health classes for students as well as physical education class .'
p11
ss.