(dp1
S'input'
p2
(dp3
S'encoded'
p4
(lp5
I64
aI2179
aI43
aI8629
aI116
aI3
aI117
aI998
asS'ori'
p6
S'This house believes atheism is the only way'
p7
ssS'output'
p8
(dp9
g4
(lp10
I3
aI66
aI18553
aI5546
aI4983
aI7
aI773
aI9776
aI34
aI99
aI18554
aI3
aI8199
aI6530
aI63765
asg6
S'The ancient Romans accused Christians of being atheists for not worshiping the pagan deities .'
p11
ss.