(dp1
S'input'
p2
(dp3
S'encoded'
p4
(lp5
I64
aI2179
aI394
aI5370
aI223
aI4013
aI10440
aI2446
aI4881
aI75
aI14482
aI11004
asS'ori'
p6
S'This house would abolish all collective bargaining rights claimed by trades unions'
p7
ssS'output'
p8
(dp9
g4
(lp10
I24
aI326
aI174
aI3130
aI45
aI64
aI2884
aI10133
aI89
aI290
aI7
aI2511
aI451
aI397
aI3
aI75
aI4916
aI260
aI2499
aI816
aI5
aI2131
aI9421
aI63765
asg6
S"In Britain  also previous to this EU jurisprudence  a series of laws introduced during the 1980s by Margaret Thatcher's government restricted closed and union shops ."
p11
ss.