(dp1
S'input'
p2
(dp3
S'encoded'
p4
(lp5
I64
aI2179
aI43
aI24
aI3
aI475
aI7
aI12436
aI3364
asS'ori'
p6
S'This house believes in the use of affirmative action'
p7
ssS'output'
p8
(dp9
g4
(lp10
I3
aI2533
aI55
aI2037
aI5315
aI251
aI60
aI3182
aI691
aI211
aI2065
aI60
aI4615
aI514
aI11388
aI45
aI905
aI1518
aI73
aI113
aI311
aI223
aI63765
asg6
S'The Convention has faced persistent problems with reporting since its inception  with parties frequently failing to report fully  or even at all  .'
p11
ss.