(dp1
S'input'
p2
(dp3
S'encoded'
p4
(lp5
I64
aI2179
aI394
aI2998
aI3
aI4360
aI7
aI3249
aI6804
aI24
aI3
aI102
asS'ori'
p6
S'This house would encourage the creation of private universities in the UK'
p7
ssS'output'
p8
(dp9
g4
(lp10
I4729
aI1971
aI10
aI6228
aI182
aI17013
aI19
aI3
aI1643
aI7982
aI41
aI3249
aI6228
aI92
aI463
aI867
aI8912
aI11
aI271
aI6801
aI56
aI73
aI316
aI788
aI289
aI75
aI964
aI63765
asg6
S'Poorly managed state companies are insulated from the same discipline as private companies  which could go bankrupt  have their management removed  or be taken over by competitors .'
p11
ss.