(dp1
S'input'
p2
(dp3
S'encoded'
p4
(lp5
I64
aI2179
aI43
aI63
aI6670
aI546
aI417
aI316
aI89
aI1334
aI3108
aI7
aI4849
aI1886
aI2855
asS'ori'
p6
S'This house believes that wind power should be a primary focus of future energy supply'
p7
ssS'output'
p8
(dp9
g4
(lp10
I1488
aI32564
aI182
aI419
aI1480
aI416
aI545
aI1445
aI546
aI15230
aI638
aI874
aI875
aI5
aI323
aI63765
asg6
S'Small high-speed diesels are very commonly used within large power grids throughout North America and Europe .'
p11
ss.