(dp1
S'input'
p2
(dp3
S'encoded'
p4
(lp5
I64
aI2179
aI394
aI16642
aI1376
aI5269
asS'ori'
p6
S'This house would subsidize poor communities'
p7
ssS'output'
p8
(dp9
g4
(lp10
I3
aI9
aI10
aI55
aI104
aI89
aI105
aI7
aI106
aI81
aI107
aI7
aI108
aI109
aI110
aI111
aI3
aI10
aI34
aI112
asg6
S'the welfare state has produced a generation of dependents who  instead of working  rely solely upon the state for income'
p11
ss.