(dp1
S'input'
p2
(dp3
S'encoded'
p4
(lp5
I64
aI2179
aI43
aI223
aI2138
aI11
aI89
aI21
aI45
aI2185
aI372
asS'ori'
p6
S'This house believes all nations have a right to nuclear weapons'
p7
ssS'output'
p8
(dp9
g4
(lp10
I6700
aI11877
aI19
aI2185
aI372
aI8351
aI122
aI237
aI1657
aI45
aI658
aI703
aI24
aI298
aI3
aI11983
aI11966
aI11514
aI2418
aI3274
aI311
aI3
aI2403
aI21515
aI18
aI11943
aI3
aI8416
aI5
aI1294
aI7
aI3
aI2692
aI4494
aI6918
aI11946
aI11947
aI63765
asg6
S'Radioactive fallout from nuclear weapons testing was first drawn to public attention in 1954 when the Castle Bravo hydrogen bomb test at the Pacific Proving Grounds contaminated the crew and catch of the Japanese fishing boat Lucky Dragon  .'
p11
ss.