(dp1
S'input'
p2
(dp3
S'encoded'
p4
(lp5
I64
aI2179
aI43
aI17
aI4941
aI857
aI3211
asS'ori'
p6
S'This house believes social deprivation causes crime'
p7
ssS'output'
p8
(dp9
g4
(lp10
I5851
aI17338
aI43607
aI48755
aI5810
aI24
aI89
aI14958
aI3063
aI291
aI3211
aI5
aI16
aI5
aI17
aI3020
aI63765
aI42
aI3444
aI63
aI3211
aI116
aI17
aI24
aI5304
aI5
aI89
aI1876
aI1849
aI45
aI17283
aI2637
aI3020
aI63765
aI24
aI136
aI11780
aI5989
aI42
aI12447
aI63
aI3970
aI1298
aI136
aI48756
aI8621
aI545
aI3
aI2178
aI63765
aI131
aI374
aI7408
aI2186
aI3006
aI5
aI89
aI5936
aI7
aI3964
aI122
aI2590
aI2938
aI7
aI2721
aI5
aI40295
aI2586
aI3619
aI3
aI511
aI34
aI17546
aI63765
aI41
aI38
aI5461
aI273
aI382
aI17
aI2219
aI7
aI1458
aI5
aI3064
aI204
aI24
aI51
aI12426
aI5200
aI7
aI2635
aI24732
aI5
aI4178
aI63765
aI374
aI1201
aI376
aI5
aI136
aI32742
aI19562
aI3319
aI777
aI3211
aI28374
asg6
S'Dutch criminologist  Willem Bonger  believed in a causal link between crime and economic and social conditions . He asserted that crime is social in origin and a normal response to prevailing cultural conditions . In more primitive societies  he contended that survival requires more selfless altruism within the community . But once agricultural technology improved and a surplus of food was generated  systems of exchange and barter began offered the opportunity for selfishness . As capitalism emerged  there were social forces of competition and wealth  resulting in an unequal distribution of resources  avarice and individualism . Once self interest and more egoistic impulses assert themselves  crime emerges'
p11
ss.