(dp1
S'input'
p2
(dp3
S'encoded'
p4
(lp5
I64
aI2179
aI394
aI16756
aI20435
asS'ori'
p6
S'This house would criminalize blasphemy'
p7
ssS'output'
p8
(dp9
g4
(lp10
I604
aI7
aI3
aI237
aI1795
aI7
aI1260
aI2381
aI5
aI2767
aI5982
aI19
aI2503
aI3013
aI5
aI3
aI3263
aI1606
aI7
aI120
aI4625
aI493
aI10
aI54
aI3
aI626
aI187
aI5
aI211
aI10359
aI10
aI220
aI88
aI99
aI25083
aI20436
aI2381
aI73
aI2767
aI31778
aI5
aI88
aI99
aI501
aI3202
aI3089
aI14
aI120
aI18
aI63765
asg6
S"Because of the First Amendment's protection of free speech and religious exercise from federal interference  and the Fourteenth Amendment's extension of those protections against state regulation  the United States and its constituent state governments may not prosecute blasphemous speech or religious insults and may not allow civil actions on those grounds ."
p11
ss.