(dp1
S'input'
p2
(dp3
S'encoded'
p4
(lp5
I64
aI2179
aI394
aI163
aI959
aI2042
aI3557
asS'ori'
p6
S'This house would make physical education compulsory'
p7
ssS'output'
p8
(dp9
g4
(lp10
I271
aI4160
aI3419
aI116
aI116
aI3
aI150
aI8641
aI7
aI959
aI364
aI5
aI266
aI7600
aI24
aI2547
aI63765
asg6
S'Their mission statement is "ParticipACTION is the national voice of physical activity and sport participation in Canada .'
p11
ss.