(dp1
S'input'
p2
(dp3
S'encoded'
p4
(lp5
I64
aI2179
aI43
aI63
aI3
aI4538
aI7
aI4434
aI7793
aI283
aI45
aI3586
aI417
aI316
aI577
asS'ori'
p6
S'This house believes that the sale of violent video games to minors should be banned'
p7
ssS'output'
p8
(dp9
g4
(lp10
I35035
aI4655
aI1706
aI63
aI14507
aI1038
aI41
aI73
aI88
aI99
aI316
aI774
aI41
aI159
aI24
aI3
aI10579
aI7
aI3
aI20035
aI5
aI1057
aI45
aI316
aI4415
aI24
aI3284
aI3717
aI63765
asg6
S'Gauntlet explains further that objects defined as "violent" or "anti-social" may not be judged as such in the minds of the viewer and tend to be viewed in artificial circumstances .'
p11
ss.