(dp1
S'input'
p2
(dp3
S'encoded'
p4
(lp5
I64
aI2179
aI43
aI17
aI4941
aI857
aI3211
asS'ori'
p6
S'This house believes social deprivation causes crime'
p7
ssS'output'
p8
(dp9
g4
(lp10
I29619
aI5
aI2962
aI63
aI24
aI3
aI398
aI326
aI3211
aI2722
aI8231
aI7884
aI41
aI500
aI2613
aI5
aI3934
aI4562
aI5
aI3768
aI373
aI149
aI279
aI63765
asg6
S'Davies (1994 and 2004) reports that  in the late-nineteenth century Britain  crime rates fell dramatically  as did drug and alcohol abuse  and illegitimacy became less common .'
p11
ss.