(dp1
S'input'
p2
(dp3
S'encoded'
p4
(lp5
I64
aI2179
aI43
aI63
aI3
aI4990
aI4991
aI116
aI4850
aI24
aI12166
aI3
aI475
aI7
aI3532
aI3290
aI7
aI4714
asS'ori'
p6
S'This house believes that the Catholic Church is justified in forbidding the use of barrier methods of contraception'
p7
ssS'output'
p8
(dp9
g4
(lp10
I226
aI3495
aI182
aI162
aI149
aI7374
aI34
aI3
aI237
aI1896
aI873
aI7
aI13453
aI134
aI116
aI89
aI9539
aI63
aI89
aI3833
aI5944
aI1019
aI1192
aI3314
aI257
aI3313
aI55
aI11389
aI397
aI732
aI639
aI63765
asg6
S'While women are usually less fertile for the first few days of menstruation  it is a myth that a woman absolutely cannot get pregnant if she has sex during her period .'
p11
ss.