(dp1
S'input'
p2
(dp3
S'encoded'
p4
(lp5
I64
aI2179
aI43
aI63
aI6670
aI546
aI417
aI316
aI89
aI1334
aI3108
aI7
aI4849
aI1886
aI2855
asS'ori'
p6
S'This house believes that wind power should be a primary focus of future energy supply'
p7
ssS'output'
p8
(dp9
g4
(lp10
I6834
aI11
aI5182
aI89
aI7074
aI45
aI546
aI7
aI3
aI1886
aI60
aI6670
aI5094
aI5
aI16423
aI546
aI75
aI3
aI3569
aI23012
aI6844
aI1886
aI10400
aI5
aI89
aI7494
aI14
aI6695
aI3944
aI211
aI5084
aI34
aI19921
aI5
aI3365
aI9062
aI63765
asg6
S"Scientists have advanced a plan to power 100% of the world's energy with wind  hydroelectric  and solar power by the year 2030  recommending renewable energy subsidies and a price on carbon reflecting its cost for flood and related expenses ."
p11
ss.