(dp1
S'input'
p2
(dp3
S'encoded'
p4
(lp5
I64
aI2179
aI394
aI163
aI959
aI2042
aI3557
asS'ori'
p6
S'This house would make physical education compulsory'
p7
ssS'output'
p8
(dp9
g4
(lp10
I100
aI17554
aI45
aI3
aI81
aI12197
aI11
aI12
aI221
aI75
aI1341
aI684
aI63765
asg6
S'Some modifications to the WHO definitions have been made by particular bodies .'
p11
ss.