(dp1
S'input'
p2
(dp3
S'encoded'
p4
(lp5
I64
aI2179
aI394
aI2773
aI12505
asS'ori'
p6
S'This house would embrace multiculturalism'
p7
ssS'output'
p8
(dp9
g4
(lp10
I64
aI4555
aI2556
aI5635
aI55
aI12
aI263
aI75
aI893
aI89
aI63765
asg6
S'This specifically unique arrangement has been called by historians a "multicultural cliche"  .'
p11
ss.