(dp1
S'input'
p2
(dp3
S'encoded'
p4
(lp5
I64
aI2179
aI43
aI63
aI3
aI4990
aI4991
aI116
aI4850
aI24
aI12166
aI3
aI475
aI7
aI3532
aI3290
aI7
aI4714
asS'ori'
p6
S'This house believes that the Catholic Church is justified in forbidding the use of barrier methods of contraception'
p7
ssS'output'
p8
(dp9
g4
(lp10
I174
aI2449
aI60
aI10504
aI4867
aI19
aI21148
aI25988
aI10504
aI19
aI9057
aI7332
aI11
aI166
aI697
aI16554
aI14475
aI16554
aI51959
aI5
aI4442
aI7
aI16554
aI60
aI1876
aI51960
aI63765
asg6
S'Also  compared with samples obtained from masturbation  semen samples from collection condoms have higher total sperm counts  sperm motility  and percentage of sperm with normal morphology .'
p11
ss.