(dp1
S'input'
p2
(dp3
S'encoded'
p4
(lp5
I64
aI2179
aI43
aI223
aI2138
aI11
aI89
aI21
aI45
aI2185
aI372
asS'ori'
p6
S'This house believes all nations have a right to nuclear weapons'
p7
ssS'output'
p8
(dp9
g4
(lp10
I114
aI11539
aI2428
aI207
aI7
aI3
aI2747
aI5
aI122
aI11562
aI24
aI25
aI3353
aI7
aI3
aI6174
aI7
aI11563
aI24
aI234
aI7
aI939
aI3357
aI5
aI3
aI3908
aI7
aI3
aI2136
aI75
aI3
aI2261
aI17
aI188
aI171
aI42
aI5
aI3
aI11564
aI174
aI485
aI11565
aI9409
aI63765
asg6
S'Though Sato thought little of the principles and was pliant in his enforcement of the principle of nonintroduction  in view of popular opinion and the embracing of the policy by the rival Social Democratic Party  he and the LDP also remained vocally supportive .'
p11
ss.