(dp1
S'input'
p2
(dp3
S'encoded'
p4
(lp5
I64
aI2179
aI43
aI63
aI134
aI116
aI400
aI21
aI34
aI3
aI260
aI45
aI3439
aI57
aI7
aI2381
asS'ori'
p6
S'This house believes that it is sometimes right for the government to restrict freedom of speech'
p7
ssS'output'
p8
(dp9
g4
(lp10
I4624
aI60
aI2208
aI2230
aI150
aI720
aI73
aI150
aI2135
aI2136
aI155
aI88
aI153
aI316
aI21063
aI366
aI26090
aI7
aI77
aI63765
asg6
S'Documents with secrets regarding national defense or national foreign policy (though they may often be communicated after erasure of certain passages) .'
p11
ss.