(dp1
S'input'
p2
(dp3
S'encoded'
p4
(lp5
I64
aI2179
aI394
aI2017
aI628
asS'ori'
p6
S'This house would ban gambling'
p7
ssS'output'
p8
(dp9
g4
(lp10
I725
aI7
aI3
aI6228
aI5157
aI864
aI7
aI7172
aI182
aI3867
aI5655
aI14
aI380
aI7664
aI8399
aI4555
aI3
aI407
aI7664
aI2721
aI63765
asg6
S'Many of the companies operating out of Antigua are publicly traded on various stock exchanges  specifically the London Stock Exchange .'
p11
ss.