(dp1
S'input'
p2
(dp3
S'encoded'
p4
(lp5
I64
aI2179
aI43
aI63
aI6670
aI546
aI417
aI316
aI89
aI1334
aI3108
aI7
aI4849
aI1886
aI2855
asS'ori'
p6
S'This house believes that wind power should be a primary focus of future energy supply'
p7
ssS'output'
p8
(dp9
g4
(lp10
I89
aI905
aI19
aI3
aI1560
aI6670
aI1886
aI2016
aI2173
aI5136
aI11
aI3722
aI289
aI3
aI1257
aI267
aI2439
aI24
aI3
aI1051
aI7
aI45
aI19026
aI4386
aI1902
aI63765
aI63765
aI1191
aI19026
aI9467
aI138
aI2881
aI5
aI136
aI4949
aI382
aI7475
aI620
aI7337
aI2829
aI138
aI4262
aI5981
aI5143
aI1447
aI3569
aI63765
aI63765
aI438
aI136
aI8277
aI317
aI19
aI5661
aI7160
aI63765
aI63765
aI1498
aI9126
aI139
aI174
aI1709
aI2885
aI24
aI3
aI1643
aI3569
aI63
aI155
aI182
aI6021
aI107
aI7
aI3597
aI588
aI45
aI292
aI2439
aI41
aI122
aI3
aI33
aI24
aI3130
aI7404
aI63765
aI63765
aI6775
aI7
aI667
aI6488
aI4204
aI116
aI459
aI2955
aI24
aI3
aI626
aI187
aI136
aI138
aI4915
aI3
aI696
aI311
aI64
aI957
aI24
aI63765
asg6
S'A 2011 report from the American Wind Energy Association stated  "Wind\'s costs have dropped over the past two years  in the range of 5 to 6 cents per kilowatt-hour recently . . about 2 cents cheaper than coal-fired electricity  and more projects were financed through debt arrangements than tax equity structures last year . . winning more mainstream acceptance from Wall Street\'s banks . . Equipment makers can also deliver products in the same year that they are ordered instead of waiting up to three years as was the case in previous cycles . . 5 600 MW of new installed capacity is under construction in the United States  more than double the number at this point in 2010 .'
p11
ss.