(dp1
S'input'
p2
(dp3
S'encoded'
p4
(lp5
I64
aI2179
aI394
aI5842
aI3569
aI446
aI13498
asS'ori'
p6
S'This house would introduce year round schooling'
p7
ssS'output'
p8
(dp9
g4
(lp10
I3
aI2035
aI174
aI3729
aI132
aI59154
aI8252
aI620
aI177
aI2240
aI5
aI4758
aI63765
asg6
S'The study also tracked these studentss progress through high school and college .'
p11
ss.