(dp1
S'input'
p2
(dp3
S'encoded'
p4
(lp5
I64
aI2179
aI394
aI475
aI2135
aI2194
aI6198
aI45
aI2041
aI5
aI13926
aI8732
aI63
aI1735
aI12708
aI5
aI5599
aI24
aI2203
aI45
aI1397
aI7149
aI5
aI12311
aI271
aI5119
aI4948
asS'ori'
p6
S'This house would use foreign aid funds to research and distribute software that allows bloggers and journalists in non-democratic countries to evade censorship and conceal their online activities'
p7
ssS'output'
p8
(dp9
g4
(lp10
I24
aI3
aI626
aI820
aI2446
aI94
aI480
aI89
aI7148
aI2446
aI6747
aI3325
aI3
aI1051
aI7
aI2142
aI5
aI78
aI2758
aI24
aI3
aI521
aI7
aI3462
aI7148
aI2446
aI63765
asg6
S"In 2005  the United Kingdom's Open Rights Group published a digital rights landscape  documenting the range of organizations and people active in the cause of preserving digital rights ."
p11
ss.