(dp1
S'input'
p2
(dp3
S'encoded'
p4
(lp5
I64
aI2179
aI394
aI2017
aI223
aI9058
aI23653
asS'ori'
p6
S'This house would ban all unsustainable logging'
p7
ssS'output'
p8
(dp9
g4
(lp10
I2756
aI440
aI6196
aI289
aI7
aI3594
aI7910
aI5
aI7
aI223
aI7910
aI3191
aI24
aI63765
asg6
S'Indonesia had lost over 72 % of intact forests and 40 % of all forests completely in 2005 .'
p11
ss.