(dp1
S'input'
p2
(dp3
S'encoded'
p4
(lp5
I64
aI2179
aI43
aI63
aI134
aI116
aI400
aI21
aI34
aI3
aI260
aI45
aI3439
aI57
aI7
aI2381
asS'ori'
p6
S'This house believes that it is sometimes right for the government to restrict freedom of speech'
p7
ssS'output'
p8
(dp9
g4
(lp10
I226
aI11677
aI32975
aI3232
aI63
aI3
aI4624
aI382
aI4867
aI25095
aI5
aI417
aI99
aI316
aI759
aI7
aI3
aI658
aI11673
aI2985
aI3143
aI3
aI3228
aI20389
aI3685
aI41
aI3846
aI34
aI3
aI21
aI7
aI147
aI45
aI905
aI14
aI3
aI3524
aI5
aI16765
aI7
aI159
aI4624
aI5
aI24
aI64
aI1341
aI33
aI1049
aI63
aI2483
aI19146
aI7
aI4624
aI417
aI1301
aI316
aI547
aI45
aI454
aI147
aI73
aI2143
aI19
aI3135
aI15943
aI63765
asg6
S'While Eli Lilly maintains that the documents were obtained unlawfully and should not be part of the public domain  critics cite the leaked Pentagon Papers as precedent for the right of individuals to report on the existence and contents of such documents  and in this particular case  maintain that court sealing of documents should never be allowed to protect individuals or corporations from criminal liability  .'
p11
ss.