(dp1
S'input'
p2
(dp3
S'encoded'
p4
(lp5
I64
aI2179
aI394
aI2773
aI12505
asS'ori'
p6
S'This house would embrace multiculturalism'
p7
ssS'output'
p8
(dp9
g4
(lp10
I134
aI122
aI3
aI3744
aI63
aI297
aI24
aI3
aI312
aI257
aI89
aI2007
aI122
aI791
aI34
aI17486
aI63765
asg6
S'It was the courts that decided in the end if a person was fit for naturalization .'
p11
ss.