(dp1
S'input'
p2
(dp3
S'encoded'
p4
(lp5
I64
aI2179
aI394
aI10662
aI626
aI187
aI2157
aI2697
aI19
aI2371
asS'ori'
p6
S'This house would remove United States military bases from Japan'
p7
ssS'output'
p8
(dp9
g4
(lp10
I3
aI2283
aI7
aI3
aI667
aI2268
aI500
aI99
aI4345
aI45
aI3
aI33033
aI6635
aI131
aI51
aI35210
aI293
aI221
aI2010
aI63
aI24
aI33
aI7
aI51
aI2218
aI1274
aI14
aI3
aI6635
aI15
aI220
aI394
aI11526
aI5
aI84
aI4620
aI3364
aI63765
asg6
S'The scope of the new treaty did not extend to the Ryukyu Islands  but an appended minute made clear that in case of an armed attack on the islands  both governments would consult and take appropriate action .'
p11
ss.