(dp1
S'input'
p2
(dp3
S'encoded'
p4
(lp5
I64
aI2179
aI43
aI63
aI3
aI4538
aI7
aI4434
aI7793
aI283
aI45
aI3586
aI417
aI316
aI577
asS'ori'
p6
S'This house believes that the sale of violent video games to minors should be banned'
p7
ssS'output'
p8
(dp9
g4
(lp10
I653
aI3
aI4352
aI7
aI3
aI1410
aI5345
aI378
aI89
aI7740
aI463
aI6448
aI5
aI316
aI57013
aI24
aI89
aI696
aI7
aI384
aI274
aI675
aI89
aI2445
aI89
aI22544
aI89
aI33002
aI73
aI89
aI30393
aI63765
asg6
S'Despite the violence-free requirements of the main character  however  a player could die and be reincarnated in a number of different forms like a human  a pig  a dog  or a worm  .'
p11
ss.