(dp1
S'input'
p2
(dp3
S'encoded'
p4
(lp5
I64
aI2179
aI43
aI63
aI7382
aI116
aI400
aI4713
asS'ori'
p6
S'This house believes that bribery is sometimes acceptable'
p7
ssS'output'
p8
(dp9
g4
(lp10
I24
aI759
aI24
aI1849
aI45
aI132
aI219
aI89
aI1950
aI7622
aI7
aI7170
aI14782
aI55
aI12
aI123
aI75
aI2148
aI4657
aI3
aI5
aI725
aI4270
aI1047
aI2083
aI3136
aI1696
aI60
aI3
aI2148
aI4657
aI2910
aI237
aI480
aI24
aI63765
asg6
S'In part in response to these criticisms  a second wave of corruption metrics has been created by Global Integrity  the   and many lesser known local groups  starting with the Global Integrity Index  first published in 2004 .'
p11
ss.