(dp1
S'input'
p2
(dp3
S'encoded'
p4
(lp5
I64
aI2179
aI394
aI117
aI7428
aI21151
aI34
aI11389
aI2042
aI24
aI4364
asS'ori'
p6
S'This house would only teach abstinence for sex education in schools'
p7
ssS'output'
p8
(dp9
g4
(lp10
I155
aI103
aI63
aI100
aI11389
aI2042
aI26087
aI1746
aI462
aI8004
aI7
aI56111
aI5
aI2998
aI317
aI7
aI3237
aI63
aI120
aI2257
aI64
aI3924
aI15292
aI4992
aI159
aI41
aI8563
aI5
aI26496
aI11389
aI63765
asg6
S'They claim that some sex education curricula break down pre-existing notions of modesty and encourage acceptance of practices that those advocating this viewpoint deem immoral  such as homosexuality and premarital sex .'
p11
ss.