(dp1
S'input'
p2
(dp3
S'encoded'
p4
(lp5
I64
aI2179
aI394
aI2017
aI3807
aI314
aI3433
asS'ori'
p6
S'This house would ban partial birth abortions'
p7
ssS'output'
p8
(dp9
g4
(lp10
I131
aI3
aI3459
aI394
aI1301
aI11
aI45
aI1985
aI3
aI4906
aI89
aI1991
aI4911
aI443
aI829
aI61
aI3
aI3717
aI382
aI63765
asg6
S'But the mother would never have to give the baby a blood transfusion  no matter what the circumstances were .'
p11
ss.