(dp1
S'input'
p2
(dp3
S'encoded'
p4
(lp5
I64
aI2179
aI43
aI63
aI3
aI28431
aI7
aI2157
aI4624
aI75
aI39939
aI27257
aI122
aI4850
asS'ori'
p6
S'This house believes that the leaking of military documents by Anat Kamm was justified'
p7
ssS'output'
p8
(dp9
g4
(lp10
I3
aI2363
aI182
aI16203
aI15829
aI56178
aI56179
aI2499
aI56178
aI56180
aI56180
aI56181
aI63765
asg6
S'The levels are Non Protege (unprotected)Diffusion restreinte administrateur ("administrative restricted information")Diffusion restreinte ("restricted information")Confidentiel personnels Sous-Officiers ("Confidential non-commissioned officers")Confidentiel personnels Officiers ("Confidential officers")  .'
p11
ss.