(dp1
S'input'
p2
(dp3
S'encoded'
p4
(lp5
I64
aI2179
aI43
aI24
aI3
aI475
aI7
aI12436
aI3364
asS'ori'
p6
S'This house believes in the use of affirmative action'
p7
ssS'output'
p8
(dp9
g4
(lp10
I637
aI917
aI7
aI3
aI12948
aI3
aI164
aI2096
aI116
aI45
aI1985
aI3862
aI19
aI149
aI12981
aI4067
aI136
aI7
aI89
aI1432
aI73
aI45
aI671
aI311
aI3
aI734
aI61
aI100
aI12007
aI4918
aI5969
aI7
aI3016
aI63765
asg6
S'Still  regardless of the nuances  the overall idea is to give children from less fortunate backgrounds more of a chance  or to achieve at the beginning what some theorists call equality of condition  .'
p11
ss.