(dp1
S'input'
p2
(dp3
S'encoded'
p4
(lp5
I64
aI2179
aI394
aI60
aI23587
asS'ori'
p6
S'This house would re-engage with Myanmar'
p7
ssS'output'
p8
(dp9
g4
(lp10
I366
aI3
aI367
aI7
aI60681
aI93
aI5904
aI94
aI60669
aI5770
aI661
aI6653
aI60682
aI5
aI75
aI440
aI30588
aI223
aI7
aI3118
aI5
aI8274
aI864
aI3
aI4169
aI5
aI3
aI169
aI81
aI440
aI2396
aI834
aI45
aI60682
aI63765
asg6
S"After the fall of Ava  one resistance group  Alaungpaya's Konbaung Dynasty defeated Restored Hanthawaddy  and by 1759  had reunited all of Burma (and Manipur)  and driven out the French and the British who had provided arms to Hanthawaddy ."
p11
ss.