(dp1
S'input'
p2
(dp3
S'encoded'
p4
(lp5
I64
aI2179
aI394
aI10662
aI626
aI187
aI2157
aI2697
aI19
aI2371
asS'ori'
p6
S'This house would remove United States military bases from Japan'
p7
ssS'output'
p8
(dp9
g4
(lp10
I3
aI413
aI298
aI2445
aI4818
aI237
aI406
aI24
aI11542
aI937
aI6877
aI63765
asg6
S'The time when human beings first appeared in Okinawa remains unknown .'
p11
ss.