(dp1
S'input'
p2
(dp3
S'encoded'
p4
(lp5
I64
aI2179
aI43
aI3
aI626
aI187
aI116
aI1989
aI34
aI3102
aI2223
asS'ori'
p6
S"This house believes the United States is responsible for Mexico's drugs war"
p7
ssS'output'
p8
(dp9
g4
(lp10
I1137
aI45309
aI116
aI89
aI94
aI7
aI1157
aI2613
aI8677
aI5
aI7330
aI28440
aI5
aI8857
aI10
aI631
aI3243
aI81
aI79
aI41
aI3
aI2218
aI11406
aI7
aI3
aI28440
aI2616
aI63765
asg6
S'La Linea is a group of Mexican drug traffickers and corrupt Juarez and Chihuahua state police officers who work as the armed wing of the Juarez Cartel  .'
p11
ss.