(dp1
S'input'
p2
(dp3
S'encoded'
p4
(lp5
I64
aI2179
aI43
aI63
aI3376
aI4938
aI417
aI316
aI3537
asS'ori'
p6
S'This house believes that endangered species should be protected'
p7
ssS'output'
p8
(dp9
g4
(lp10
I3
aI41090
aI16643
aI14
aI41091
aI7
aI3
aI2533
aI174
aI1047
aI41
aI3
aI41091
aI16643
aI122
aI1515
aI24
aI425
aI63765
asg6
S'The Cartagena Protocol on Biosafety of the Convention  also known as the Biosafety Protocol  was adopted in January 2000 .'
p11
ss.