(dp1
S'input'
p2
(dp3
S'encoded'
p4
(lp5
I64
aI2179
aI43
aI223
aI2138
aI11
aI89
aI21
aI45
aI2185
aI372
asS'ori'
p6
S'This house believes all nations have a right to nuclear weapons'
p7
ssS'output'
p8
(dp9
g4
(lp10
I24
aI2871
aI5795
aI7655
aI2161
aI7
aI720
aI11578
aI11579
aI2032
aI45
aI3
aI6327
aI2173
aI24
aI89
aI3130
aI63
aI24
aI5958
aI7
aI3
aI874
aI2706
aI2731
aI2034
aI2196
aI14
aI11540
aI417
aI507
aI63765
asg6
S"In October 1999  Deputy Vice Minister of Defense Shingo Nishimura proposed to the Diet (as stated in a previous interview) that  in light of the North Korean threat  serious debate on Japan's nuclearization should begin ."
p11
ss.