(dp1
S'input'
p2
(dp3
S'encoded'
p4
(lp5
I64
aI2179
aI43
aI63
aI2659
aI417
aI1690
aI3
aI12048
aI7
aI19084
asS'ori'
p6
S'This house believes that Israel should lift the blockade of Gaza'
p7
ssS'output'
p8
(dp9
g4
(lp10
I2135
aI2161
aI19394
aI19395
aI4001
aI3
aI2800
aI2702
aI2132
aI63
aI2659
aI55
aI223
aI41
aI89
aI296
aI7
aI3
aI19097
aI63765
asg6
S'Foreign Minister  Ahmet Davutoglu told the UN Security Council that Israel has "lost all legitimacy" as a result of the raid  .'
p11
ss.