(dp1
S'input'
p2
(dp3
S'encoded'
p4
(lp5
I64
aI2179
aI394
aI5370
aI3
aI5286
asS'ori'
p6
S'This house would abolish the monarchy'
p7
ssS'output'
p8
(dp9
g4
(lp10
I653
aI5556
aI510
aI2322
aI63765
asg6
S"Despite Busby's presence  trouble increased ."
p11
ss.