(dp1
S'input'
p2
(dp3
S'encoded'
p4
(lp5
I64
aI2179
aI43
aI223
aI2138
aI11
aI89
aI21
aI45
aI2185
aI372
asS'ori'
p6
S'This house believes all nations have a right to nuclear weapons'
p7
ssS'output'
p8
(dp9
g4
(lp10
I366
aI285
aI2223
aI2236
aI2185
aI372
aI382
aI174
aI643
aI75
aI3
aI943
aI2131
aI3
aI626
aI2549
aI5
aI2265
aI5
aI3
aI2306
aI7
aI2390
aI92
aI4329
aI45
aI3
aI10
aI7
aI2513
aI5
aI218
aI8447
aI63
aI373
aI1047
aI41
aI3
aI2237
aI2223
aI63765
asg6
S"After World War II  nuclear weapons were also developed by the Soviet Union (1940's)  the United Kingdom and France (1950's)  and the People's Republic of China (1960's)  which contributed to the state of conflict and extreme tension that became known as the Cold War ."
p11
ss.