(dp1
S'input'
p2
(dp3
S'encoded'
p4
(lp5
I64
aI2179
aI43
aI63
aI6670
aI546
aI417
aI316
aI89
aI1334
aI3108
aI7
aI4849
aI1886
aI2855
asS'ori'
p6
S'This house believes that wind power should be a primary focus of future energy supply'
p7
ssS'output'
p8
(dp9
g4
(lp10
I6735
aI116
aI3740
aI6737
aI45
aI5105
aI5933
aI5
aI2597
aI5109
aI182
aI311
aI3
aI177
aI312
aI7
aI64
aI1051
aI311
aI73
aI2510
aI63765
asg6
S'EROI is strongly proportional to turbine size  and larger late-generation turbines are at the high end of this range  at or above 35  .'
p11
ss.