(dp1
S'input'
p2
(dp3
S'encoded'
p4
(lp5
I64
aI2179
aI394
aI163
aI959
aI2042
aI3557
asS'ori'
p6
S'This house would make physical education compulsory'
p7
ssS'output'
p8
(dp9
g4
(lp10
I4696
aI24
aI760
aI11786
aI5579
aI3
aI1849
aI45
aI23026
aI5500
aI2645
aI45
aI23026
aI5904
aI63765
asg6
S"Increases in body fat alter the body's response to insulin  potentially leading to insulin resistance ."
p11
ss.