(dp1
S'input'
p2
(dp3
S'encoded'
p4
(lp5
I64
aI2179
aI43
aI63
aI3376
aI4938
aI417
aI316
aI3537
asS'ori'
p6
S'This house believes that endangered species should be protected'
p7
ssS'output'
p8
(dp9
g4
(lp10
I3
aI17926
aI399
aI7797
aI88
aI11
aI12
aI3505
aI75
aI2839
aI63765
asg6
S"The term's contracted form biodiversity may have been coined by W .G ."
p11
ss.