(dp1
S'input'
p2
(dp3
S'encoded'
p4
(lp5
I64
aI2179
aI43
aI63
aI6670
aI546
aI417
aI316
aI89
aI1334
aI3108
aI7
aI4849
aI1886
aI2855
asS'ori'
p6
S'This house believes that wind power should be a primary focus of future energy supply'
p7
ssS'output'
p8
(dp9
g4
(lp10
I298
aI14538
aI50856
aI3
aI17159
aI104
aI116
aI4158
aI24
aI19269
aI5
aI395
aI6955
aI45
aI3051
aI2881
aI63765
asg6
S'When garbage decomposes  the methane produced is captured in pipes and later burned to produce electricity .'
p11
ss.