(dp1
S'input'
p2
(dp3
S'encoded'
p4
(lp5
I64
aI2179
aI43
aI63
aI2659
aI417
aI1690
aI3
aI12048
aI7
aI19084
asS'ori'
p6
S'This house believes that Israel should lift the blockade of Gaza'
p7
ssS'output'
p8
(dp9
g4
(lp10
I425
aI656
aI3
aI734
aI7
aI3
aI1994
aI9561
aI2136
aI7579
aI574
aI5290
aI7
aI19084
aI81
aI1852
aI45
aI4564
aI545
aI2659
aI73
aI3
aI3912
aI2895
aI122
aI534
aI45
aI11
aI89
aI3446
aI9189
aI3830
aI63765
asg6
S'January 1991 marked the beginning of the permanent closure policy  whereby each resident of Gaza who desired to travel within Israel or the West Bank was required to have a personal exit permit  .'
p11
ss.