(dp1
S'input'
p2
(dp3
S'encoded'
p4
(lp5
I64
aI2179
aI394
aI2976
aI12243
aI24
aI954
aI126
aI1560
aI10723
asS'ori'
p6
S'This house would implement playoffs in collegiate level American football'
p7
ssS'output'
p8
(dp9
g4
(lp10
I3
aI22550
aI1239
aI2233
aI10723
aI20731
aI22824
aI116
aI3
aI117
aI266
aI252
aI51
aI3550
aI13151
aI45
aI1358
aI211
aI410
aI63765
asg6
S'The NCAA Division I Football Bowl Subdivision (FBS) is the only NCAA-sponsored sport without an organized tournament to determine its champion  .'
p11
ss.