(dp1
S'input'
p2
(dp3
S'encoded'
p4
(lp5
I64
aI2179
aI43
aI63
aI2157
aI2565
aI493
aI19084
aI382
aI4850
asS'ori'
p6
S"This house believes that Israel's 2008-2009 military operations against Gaza were justified"
p7
ssS'output'
p8
(dp9
g4
(lp10
I6056
aI2157
aI27159
aI27912
aI63765
aI31365
aI27160
aI263
aI3364
aI89
aI11591
aI75
aI3
aI11995
aI1274
aI14
aI25094
aI2388
aI24
aI3
aI3427
aI63765
asg6
S'Israeli military spokeswoman Maj . Avital Leibovich called Saturday\'s action a "pinpoint operation" provoked by the rocket attack on Ashkelon earlier in the week .'
p11
ss.