(dp1
S'input'
p2
(dp3
S'encoded'
p4
(lp5
I64
aI2179
aI43
aI63
aI2659
aI417
aI1690
aI3
aI12048
aI7
aI19084
asS'ori'
p6
S'This house believes that Israel should lift the blockade of Gaza'
p7
ssS'output'
p8
(dp9
g4
(lp10
I24
aI667
aI2086
aI4996
aI14153
aI4161
aI19
aI1727
aI6802
aI2368
aI3
aI6056
aI4160
aI45
aI3
aI626
aI2138
aI24
aI1849
aI45
aI3
aI6056
aI1274
aI63765
asg6
S'In New York City  protesters marched from Times Square toward the Israeli Mission to the United Nations in response to the Israeli attack  .'
p11
ss.