(dp1
S'input'
p2
(dp3
S'encoded'
p4
(lp5
I64
aI2179
aI394
aI3830
aI3
aI475
aI7
aI9441
aI13132
aI3102
aI24
aI276
aI381
asS'ori'
p6
S'This house would permit the use of performance enhancing drugs in professional sports'
p7
ssS'output'
p8
(dp9
g4
(lp10
I1991
aI4903
aI92
aI3226
aI3
aI12314
aI3982
aI4204
aI24
aI4031
aI1879
aI1278
aI252
aI3
aI5556
aI7
aI3102
aI63
aI463
aI3880
aI89
aI69
aI3274
aI296
aI63765
asg6
S"Blood transfusions  which increase the blood's oxygen carrying capacity  in turn increasing endurance without the presence of drugs that could trigger a positive test result ."
p11
ss.