(dp1
S'input'
p2
(dp3
S'encoded'
p4
(lp5
I64
aI2179
aI235
aI3
aI2136
aI7
aI3
aI2306
aI7
aI2390
asS'ori'
p6
S'This house supports the one-child policy of the republic of China'
p7
ssS'output'
p8
(dp9
g4
(lp10
I24
aI134
aI122
aI2791
aI63
aI3
aI260
aI122
aI7960
aI21142
aI134
aI63765
asg6
S'In 2008  it was announced that the government was considering reviving it  .'
p11
ss.