(dp1
S'input'
p2
(dp3
S'encoded'
p4
(lp5
I64
aI2179
aI43
aI8629
aI116
aI3
aI117
aI998
asS'ori'
p6
S'This house believes atheism is the only way'
p7
ssS'output'
p8
(dp9
g4
(lp10
I395
aI8301
aI8609
aI60
aI25
aI2619
aI3866
aI8610
aI3
aI809
aI4213
aI7
aI8611
aI5
aI89
aI3409
aI8612
aI63765
asg6
S'Later  Dawkins converses with his friend Richard Harries  the former Bishop of Oxford and a liberal Anglican .'
p11
ss.