(dp1
S'input'
p2
(dp3
S'encoded'
p4
(lp5
I64
aI2179
aI43
aI24
aI3
aI475
aI7
aI12436
aI3364
asS'ori'
p6
S'This house believes in the use of affirmative action'
p7
ssS'output'
p8
(dp9
g4
(lp10
I15
aI3343
aI448
aI2204
aI3755
aI5
aI7655
aI2164
aI1309
aI440
aI3432
aI34
aI3
aI578
aI7
aI3
aI3202
aI2446
aI2474
aI63765
asg6
S'Both Attorney General Robert Kennedy and Vice President Johnson had pushed for the introduction of the civil rights legislation .'
p11
ss.