(dp1
S'input'
p2
(dp3
S'encoded'
p4
(lp5
I64
aI2179
aI43
aI63
aI2659
aI417
aI1690
aI3
aI12048
aI7
aI19084
asS'ori'
p6
S'This house believes that Israel should lift the blockade of Gaza'
p7
ssS'output'
p8
(dp9
g4
(lp10
I42
aI174
aI2820
aI19386
aI31532
aI45
aI617
aI64
aI8649
aI45
aI6056
aI5462
aI45
aI1292
aI351
aI3502
aI7
aI3
aI2617
aI92
aI656
aI1447
aI19096
aI63765
asg6
S"He also urged ambassador Modai to forward this message to Israeli authorities to avoid any repetition of the violence which marked last year's flotilla ."
p11
ss.