(dp1
S'input'
p2
(dp3
S'encoded'
p4
(lp5
I64
aI2179
aI394
aI2017
aI628
asS'ori'
p6
S'This house would ban gambling'
p7
ssS'output'
p8
(dp9
g4
(lp10
I226
aI273
aI182
aI7604
aI24
aI725
aI1197
aI89
aI1896
aI1197
aI11
aI1199
aI4555
aI34
aI628
aI63765
asg6
S'While there are casinos in many places  a few places have become well-known specifically for gambling .'
p11
ss.