(dp1
S'input'
p2
(dp3
S'encoded'
p4
(lp5
I64
aI2179
aI394
aI16756
aI20435
asS'ori'
p6
S'This house would criminalize blasphemy'
p7
ssS'output'
p8
(dp9
g4
(lp10
I3
aI1447
aI3009
aI7795
aI34
aI20435
aI75
aI3
aI5305
aI458
aI24
aI3
aI10
aI7
aI5518
aI24
aI63765
asg6
S'The last attempted prosecution for blasphemy by the Crown occurred in the state of Victoria in 1919  .'
p11
ss.