(dp1
S'input'
p2
(dp3
S'encoded'
p4
(lp5
I64
aI2179
aI394
aI60
aI23587
asS'ori'
p6
S'This house would re-engage with Myanmar'
p7
ssS'output'
p8
(dp9
g4
(lp10
I378
aI134
aI246
aI65
aI618
aI4747
aI60
aI100
aI7
aI211
aI2595
aI187
aI5
aI134
aI116
aI89
aI2544
aI7
aI3
aI2016
aI7
aI2769
aI2646
aI2138
aI63765
asg6
S'However  it generally shares closer connections with some of its neighbor states  and it is a member of the Association of Southeast Asian Nations .'
p11
ss.