(dp1
S'input'
p2
(dp3
S'encoded'
p4
(lp5
I64
aI2179
aI394
aI2017
aI628
asS'ori'
p6
S'This house would ban gambling'
p7
ssS'output'
p8
(dp9
g4
(lp10
I7
aI3
aI3452
aI689
aI7704
aI311
aI3
aI413
aI7644
aI24
aI5052
aI2236
aI73
aI5052
aI3501
aI7607
aI75
aI63765
asg6
S'Of the 562 federally recognized tribes at the time  201 participated in class II or class III gaming by 2001  .'
p11
ss.