(dp1
S'input'
p2
(dp3
S'encoded'
p4
(lp5
I64
aI2179
aI394
aI4261
aI8667
aI3
aI9361
aI5
aI17069
asS'ori'
p6
S'This house would prohibit burning the stars and stripes'
p7
ssS'output'
p8
(dp9
g4
(lp10
I24
aI2116
aI3
aI260
aI2391
aI75
aI2798
aI10426
aI34
aI52261
aI7
aI3
aI150
aI3987
aI2784
aI158
aI3
aI8667
aI7
aI4294
aI1290
aI63765
asg6
S'In June 1968  the government reacted by strengthening penalties for infractions of the 1964 National Service Act  including the burning of registration cards .'
p11
ss.