(dp1
S'input'
p2
(dp3
S'encoded'
p4
(lp5
I64
aI2179
aI43
aI24
aI3
aI475
aI7
aI12436
aI3364
asS'ori'
p6
S'This house believes in the use of affirmative action'
p7
ssS'output'
p8
(dp9
g4
(lp10
I24
aI3
aI2475
aI568
aI5
aI7
aI28474
aI24
aI658
aI7935
aI5
aI5207
aI7068
aI182
aI89
aI5891
aI13784
aI34
aI3
aI40191
aI5
aI4044
aI4672
aI3839
aI34
aI89
aI639
aI7
aI863
aI2439
aI366
aI92
aI3
aI5891
aI145
aI394
aI316
aI5591
aI63765
asg6
S'In 1982  the Constitution specified 15% and 7 .5% of vacancies in public sector and government-aided educational institutes  are a quota reserved for the SC and ST candidates respectively for a period of five years  after which the quota system would be reviewed  .'
p11
ss.