(dp1
S'input'
p2
(dp3
S'encoded'
p4
(lp5
I64
aI2179
aI43
aI63
aI2157
aI2565
aI493
aI19084
aI382
aI4850
asS'ori'
p6
S"This house believes that Israel's 2008-2009 military operations against Gaza were justified"
p7
ssS'output'
p8
(dp9
g4
(lp10
I311
aI3
aI24858
aI4281
aI9436
aI20597
aI14
aI3
aI12740
aI7
aI3
aI7090
aI24
aI3
aI905
aI63765
asg6
S'At the UNHRC  Switzerland commented favourably on the impartiality of the findings in the 575-page report .'
p11
ss.