(dp1
S'input'
p2
(dp3
S'encoded'
p4
(lp5
I64
aI2179
aI394
aI1499
aI3
aI8115
aI34564
aI17106
asS'ori'
p6
S'This house would build the Keystone XL pipeline'
p7
ssS'output'
p8
(dp9
g4
(lp10
I3
aI803
aI2319
aI3
aI51150
aI5
aI51151
aI7450
aI122
aI50825
aI60
aI4136
aI7
aI37
aI19268
aI55372
aI63765
asg6
S'The area along the Tigris and Euphrates rivers was littered with hundreds of pure bitumen seepages .'
p11
ss.