(dp1
S'input'
p2
(dp3
S'encoded'
p4
(lp5
I64
aI2179
aI43
aI63
aI2659
aI417
aI1690
aI3
aI12048
aI7
aI19084
asS'ori'
p6
S'This house believes that Israel should lift the blockade of Gaza'
p7
ssS'output'
p8
(dp9
g4
(lp10
I3
aI1950
aI5798
aI122
aI541
aI75
aI89
aI11276
aI7
aI1009
aI45
aI5895
aI3727
aI24
aI267
aI3136
aI63765
asg6
S'The second soldier was surrounded by a team of fifteen to twenty activists in two groups .'
p11
ss.