(dp1
S'input'
p2
(dp3
S'encoded'
p4
(lp5
I64
aI2179
aI235
aI3
aI2136
aI7
aI3
aI2306
aI7
aI2390
asS'ori'
p6
S'This house supports the one-child policy of the republic of China'
p7
ssS'output'
p8
(dp9
g4
(lp10
I117
aI3862
aI182
aI174
aI136
aI1856
aI45
aI163
aI1642
aI2716
asg6
S'Only children are also more likely to make outside friends'
p11
ss.