(dp1
S'input'
p2
(dp3
S'encoded'
p4
(lp5
I64
aI2179
aI43
aI63
aI3
aI21
aI45
aI12715
aI417
aI99
aI316
aI2897
asS'ori'
p6
S'This house believes that the right to asylum should not be absolute'
p7
ssS'output'
p8
(dp9
g4
(lp10
I7350
aI134
aI500
aI99
aI11698
aI351
aI546
aI45
aI1378
aI864
aI8745
aI736
aI3
aI41891
aI7
aI51
aI1881
aI8559
aI73
aI45
aI9139
aI73
aI4898
aI45
aI709
aI3
aI8559
aI63765
asg6
S'Unfortunately it did not contain any power to carry out investigations into the genuineness of an intended marriage or to delay or refuse to conduct the marriage .'
p11
ss.