(dp1
S'input'
p2
(dp3
S'encoded'
p4
(lp5
I64
aI2179
aI394
aI2017
aI3807
aI314
aI3433
asS'ori'
p6
S'This house would ban partial birth abortions'
p7
ssS'output'
p8
(dp9
g4
(lp10
I155
aI5022
aI3
aI505
aI24
aI3211
aI45
aI89
aI1811
aI24
aI147
aI742
aI45
aI11
aI89
aI166
aI5023
aI1880
aI7
aI5024
aI3861
aI3862
aI946
aI120
aI4651
aI45
aI3534
aI81
aI182
aI5025
aI1560
aI5026
aI5027
aI5028
aI5
aI1107
aI63765
asg6
S'They attributed the drop in crime to a reduction in individuals said to have a higher statistical probability of committing crimes: unwanted children  especially those born to mothers who are African American  impoverished  adolescent  uneducated  and single .'
p11
ss.