(dp1
S'input'
p2
(dp3
S'encoded'
p4
(lp5
I64
aI2179
aI43
aI63
aI3
aI4538
aI7
aI4434
aI7793
aI283
aI45
aI3586
aI417
aI316
aI577
asS'ori'
p6
S'This house believes that the sale of violent video games to minors should be banned'
p7
ssS'output'
p8
(dp9
g4
(lp10
I3
aI6552
aI73
aI48983
aI24
aI16933
aI116
aI4082
aI41
aI17107
aI301
aI73
aI2617
aI5
aI153
aI371
aI1786
aI15294
aI5
aI15319
aI11436
aI63
aI6945
aI45
aI11698
aI732
aI50012
aI50013
aI760
aI63765
asg6
S'The princess or damsel in distress  is portrayed as helpless  incapable or violence  and often wearing tightly fitting and revealing clothing that fails to contain her impossibly proportioned body  .'
p11
ss.