(dp1
S'input'
p2
(dp3
S'encoded'
p4
(lp5
I64
aI2179
aI394
aI5370
aI3
aI5286
asS'ori'
p6
S'This house would abolish the monarchy'
p7
ssS'output'
p8
(dp9
g4
(lp10
I24
aI3695
aI3501
aI2013
aI4527
aI3
aI5305
aI45
aI25
aI9880
aI3866
aI2236
aI63765
asg6
S'In 1377 Edward III died  leaving the Crown to his 10-year-old grandson Richard II .'
p11
ss.