(dp1
S'input'
p2
(dp3
S'encoded'
p4
(lp5
I64
aI2179
aI394
aI16756
aI20435
asS'ori'
p6
S'This house would criminalize blasphemy'
p7
ssS'output'
p8
(dp9
g4
(lp10
I3
aI7066
aI2173
aI63
aI1353
aI8214
aI73
aI8187
aI6036
aI116
aI4771
aI5
aI63
aI211
aI4515
aI116
aI51
aI845
aI7
aI229
aI2446
aI57
aI7
aI2381
aI3057
aI3659
aI5
aI3
aI2637
aI62947
aI7
aI2439
aI7
aI10065
aI63765
asg6
S"The editorial stated that Fitna's relative artistic or philosophical worth is irrelevant  and that its release is an issue of individual rights  freedom of speech  critical thinking  and the West's cultural inheratance of 3 000 years of civilization ."
p11
ss.