(dp1
S'input'
p2
(dp3
S'encoded'
p4
(lp5
I64
aI2179
aI43
aI8629
aI116
aI3
aI117
aI998
asS'ori'
p6
S'This house believes atheism is the only way'
p7
ssS'output'
p8
(dp9
g4
(lp10
I21790
aI4044
aI63765
aI21791
aI7
aI10364
aI5
aI12128
aI21764
aI18459
aI64
aI143
aI45
aI342
aI63
aI257
aI134
aI116
aI8909
aI748
aI34
aI5480
aI2867
aI45
aI4532
aI768
aI5480
aI1967
aI63765
asg6
S'Avicenna  St . Anselm of Canterbury and Alvin Plantinga formulated this argument to show that if it is logically possible for God (a necessary being) to exist  then God exists  .'
p11
ss.