(dp1
S'input'
p2
(dp3
S'encoded'
p4
(lp5
I64
aI2179
aI394
aI117
aI7428
aI21151
aI34
aI11389
aI2042
aI24
aI4364
asS'ori'
p6
S'This house would only teach abstinence for sex education in schools'
p7
ssS'output'
p8
(dp9
g4
(lp10
I923
aI273
aI182
aI174
aI214
aI41
aI45
aI61
aI21151
aI116
aI134
aI51
aI21151
aI19
aI8803
aI2189
aI73
aI19
aI8803
aI8935
aI63764
asg6
S'Currently  there are also issues as to what abstinence means: is it an abstinence from sexual intercourse  or from sexual behavior ?'
p11
ss.