(dp1
S'input'
p2
(dp3
S'encoded'
p4
(lp5
I64
aI2179
aI394
aI2017
aI262
asS'ori'
p6
S'This house would ban boxing'
p7
ssS'output'
p8
(dp9
g4
(lp10
I93
aI484
aI5844
aI5
aI3
aI248
aI10501
aI293
aI295
aI63765
asg6
S'One boxer aged 13 and the other 14 years: 3 x 1 .5 minute rounds  .'
p11
ss.