(dp1
S'input'
p2
(dp3
S'encoded'
p4
(lp5
I64
aI2179
aI43
aI63
aI1036
aI4828
aI33250
aI116
aI25073
aI45
aI3315
aI4562
asS'ori'
p6
S'This house believes that male infant circumcision is tantamount to child abuse'
p7
ssS'output'
p8
(dp9
g4
(lp10
I14987
aI14988
aI116
aI3
aI5374
aI45
aI949
aI5
aI1049
aI51
aI18779
aI11584
aI8824
aI34
aI24566
aI8803
aI9441
aI63765
asg6
S'Erectile dysfunction is the inability to develop and maintain an erection sufficiently firm for satisfactory sexual performance .'
p11
ss.