(dp1
S'input'
p2
(dp3
S'encoded'
p4
(lp5
I64
aI2179
aI43
aI8629
aI116
aI3
aI117
aI998
asS'ori'
p6
S'This house believes atheism is the only way'
p7
ssS'output'
p8
(dp9
g4
(lp10
I24
aI61
aI3236
aI768
aI1453
aI25
aI14508
aI5
aI8576
aI34926
aI3
aI14508
aI5
aI8576
aI7
aI1980
asg6
S'In what respect  then  do his benevolence and mercy resemble the benevolence and mercy of men ?"'
p11
ss.