(dp1
S'input'
p2
(dp3
S'encoded'
p4
(lp5
I64
aI2179
aI394
aI5284
aI150
aI3987
asS'ori'
p6
S'This house would reintroduce national service'
p7
ssS'output'
p8
(dp9
g4
(lp10
I4453
aI211
aI7058
aI11
aI13345
aI32020
aI1295
aI289
aI89
aI5104
aI4364
aI691
aI211
aI2543
aI24
aI158
aI4347
aI4348
aI10
aI4750
aI4996
aI4758
aI7
aI667
aI2086
aI4750
aI7
aI3882
aI311
aI4248
aI22154
aI10272
aI19817
aI5
aI3
aI237
aI5
aI3472
aI8672
aI41
aI2164
aI2813
aI122
aI773
aI13289
aI2609
aI2178
aI4758
aI41
aI261
aI41
aI28335
aI5666
aI311
aI11469
aI80
aI63765
asg6
S'claims its protests have chased recruiters off over a dozen schools since its founding in 2003  including San Francisco State University  City College of New York  University of Illinois at Chicago  UC Santa Cruz  and (in the first and perhaps most-known protest  as president Bush was being inaugurated) Seattle Central Community College  as well as disrupting recruitment at countless others  .'
p11
ss.