(dp1
S'input'
p2
(dp3
S'encoded'
p4
(lp5
I64
aI2179
aI394
aI117
aI7428
aI21151
aI34
aI11389
aI2042
aI24
aI4364
asS'ori'
p6
S'This house would only teach abstinence for sex education in schools'
p7
ssS'output'
p8
(dp9
g4
(lp10
I248
aI3398
aI2100
aI89
aI1160
aI7
aI3984
aI773
aI10882
aI7
aI8992
aI6942
aI5
aI3
aI1361
aI63
aI11389
aI122
aI99
aI4620
aI34
aI4736
aI7
aI271
aI3485
aI63765
asg6
S'Other reasons included a lack of desire  being afraid of getting caught  and the belief that sex was not appropriate for someone of their age  .'
p11
ss.