(dp1
S'input'
p2
(dp3
S'encoded'
p4
(lp5
I64
aI2179
aI394
aI2017
aI262
asS'ori'
p6
S'This house would ban boxing'
p7
ssS'output'
p8
(dp9
g4
(lp10
I1094
aI1282
aI452
aI679
aI1266
aI1267
aI5
aI1220
aI1281
aI382
aI1757
aI7
aI601
aI5
aI1758
aI63765
asg6
S'Joe Frazier  Jack Dempsey  Mike Tyson and Rocky Marciano were masters of bobbing and weaving .'
p11
ss.