(dp1
S'input'
p2
(dp3
S'encoded'
p4
(lp5
I64
aI2179
aI394
aI1499
aI177
aI1819
aI34
aI160
asS'ori'
p6
S'This house would build high rises for housing'
p7
ssS'output'
p8
(dp9
g4
(lp10
I3
aI15227
aI160
aI2016
aI427
aI3930
aI7
aI3
aI160
aI7664
aI19
aI3
aI4996
aI2132
aI14
aI2927
aI5
aI55
aI11751
aI89
aI2639
aI11932
aI5
aI24489
aI6856
aI45
aI2010
aI5
aI35114
aI725
aI7
aI3
aI35842
aI63765
asg6
S'The Glasgow Housing Association took ownership of the housing stock from the city council on 7 March 2003  and has begun a 96 million clearance and demolition programme to clear and demolish many of the high-rise flats  .'
p11
ss.