(dp1
S'input'
p2
(dp3
S'encoded'
p4
(lp5
I64
aI2179
aI43
aI63
aI3
aI4990
aI4991
aI116
aI4850
aI24
aI12166
aI3
aI475
aI7
aI3532
aI3290
aI7
aI4714
asS'ori'
p6
S'This house believes that the Catholic Church is justified in forbidding the use of barrier methods of contraception'
p7
ssS'output'
p8
(dp9
g4
(lp10
I3472
aI136
aI6894
aI7332
aI382
aI39728
aI34
aI34
aI89
aI1511
aI26543
aI89
aI1107
aI21152
aI876
aI5084
aI1237
aI5878
aI63765
asg6
S"Perhaps more importantly  condoms were unaffordable for many: for a typical prostitute  a single condom might cost several months' pay  ."
p11
ss.