(dp1
S'input'
p2
(dp3
S'encoded'
p4
(lp5
I64
aI2179
aI13605
aI2258
aI45
aI2194
asS'ori'
p6
S'This house prefers trade to aid'
p7
ssS'output'
p8
(dp9
g4
(lp10
I42
aI55
aI221
aI7217
aI92
aI168
aI63
aI2194
aI1636
aI2404
aI98
aI136
aI652
aI138
aI1228
aI45
aI271
aI78
aI717
aI14
aI3
aI2609
aI3384
aI63
aI134
aI116
aI1155
aI416
aI843
aI75
aI8850
aI41
aI89
aI1623
aI45
aI10532
aI78
aI5
aI673
aI5561
aI73
aI41
aI89
aI4550
aI34
aI15082
aI15083
aI2135
aI7408
aI2885
aI7624
aI2083
aI3210
aI311
aI470
aI5084
aI1609
aI134
aI4374
aI6278
aI34
aI5025
aI5677
aI45
aI12304
aI63765
asg6
S'He has made comments which imply that aid towards Africa does more harm than good to their people  based on the central arguments that it is mainly used either by politicians as a tool to manipulate people and influence votes  or as a mechanism for dumping subsidised foreign agricultural products onto local markets at below cost making it nearly impossible for African farmers to compete .'
p11
ss.