(dp1
S'input'
p2
(dp3
S'encoded'
p4
(lp5
I64
aI2179
aI394
aI5284
aI150
aI3987
asS'ori'
p6
S'This house would reintroduce national service'
p7
ssS'output'
p8
(dp9
g4
(lp10
I2233
aI415
aI45
aI3572
aI41
aI51
aI1004
aI5378
aI63765
asg6
S'I came to Washington as an experienced politician .'
p11
ss.