(dp1
S'input'
p2
(dp3
S'encoded'
p4
(lp5
I64
aI2179
aI394
aI475
aI2135
aI2194
aI6198
aI45
aI2041
aI5
aI13926
aI8732
aI63
aI1735
aI12708
aI5
aI5599
aI24
aI2203
aI45
aI1397
aI7149
aI5
aI12311
aI271
aI5119
aI4948
asS'ori'
p6
S'This house would use foreign aid funds to research and distribute software that allows bloggers and journalists in non-democratic countries to evade censorship and conceal their online activities'
p7
ssS'output'
p8
(dp9
g4
(lp10
I62124
aI116
aI89
aI667
aI14478
aI399
aI92
aI24276
aI1488
aI3136
aI7
aI16062
aI63
aI88
aI2455
aI4024
aI14725
aI545
aI3
aI2597
aI17
aI4659
aI5
aI1233
aI24
aI1353
aI7197
aI226
aI637
aI6212
aI18220
aI45
aI89
aI2597
aI2923
aI7
aI8574
aI81
aI2572
aI89
aI1629
aI7
aI3237
aI5
aI4719
aI5
aI153
aI89
aI279
aI11148
aI45
aI89
aI1341
aI5409
aI63765
asg6
S'Cybersectarianism is a new organizational form which involves: "highly dispersed small groups of practitioners that may remain largely anonymous within the larger social context and operate in relative secrecy  while still linked remotely to a larger network of believers who share a set of practices and texts  and often a common devotion to a particular leader .'
p11
ss.