(dp1
S'input'
p2
(dp3
S'encoded'
p4
(lp5
I64
aI2179
aI43
aI63
aI3376
aI4938
aI417
aI316
aI3537
asS'ori'
p6
S'This house believes that endangered species should be protected'
p7
ssS'output'
p8
(dp9
g4
(lp10
I3
aI2802
aI7
aI755
aI136
aI7831
aI24
aI3
aI6674
aI781
aI11
aI12
aI1404
aI75
aI7829
aI73
aI75
aI9489
aI116
aI89
aI2195
aI7
aI1715
aI15320
aI3
aI3698
aI7
aI6807
aI7798
aI3172
aI34
aI89
aI12196
aI2823
aI63
aI5273
aI291
aI3
aI267
aI1589
aI63765
asg6
S'The question of whether more extinctions in the fossil record have been caused by evolution or by catastrophe is a subject of discussion; Mark Newman  the author of Modeling Extinction argues for a mathematical model that falls between the two positions  .'
p11
ss.