(dp1
S'input'
p2
(dp3
S'encoded'
p4
(lp5
I64
aI2179
aI43
aI63
aI3
aI4991
aI7
aI180
aI417
aI316
aI5396
aI19
aI3
aI169
aI10
asS'ori'
p6
S'This house believes that the Church of England should be separated from the British state'
p7
ssS'output'
p8
(dp9
g4
(lp10
I211
aI2888
aI2747
aI182
aI3
aI4350
aI7
aI64
aI3269
aI75
aI7371
aI258
aI63765
asg6
S'Its essential principles are three: (1) The improvement of this life by material means .'
p11
ss.