(dp1
S'input'
p2
(dp3
S'encoded'
p4
(lp5
I64
aI2179
aI43
aI8629
aI116
aI3
aI117
aI998
asS'ori'
p6
S'This house believes atheism is the only way'
p7
ssS'output'
p8
(dp9
g4
(lp10
I3177
aI3384
aI5114
aI14
aI3177
aI3073
aI24
aI128
aI45
aI4203
aI271
aI4376
aI63765
asg6
S'Empirical arguments depend on empirical data in order to prove their conclusions .'
p11
ss.