(dp1
S'input'
p2
(dp3
S'encoded'
p4
(lp5
I64
aI2179
aI43
aI8629
aI116
aI3
aI117
aI998
asS'ori'
p6
S'This house believes atheism is the only way'
p7
ssS'output'
p8
(dp9
g4
(lp10
I134
aI116
aI89
aI12380
aI2497
aI34
aI4722
aI513
aI6730
aI99
aI557
aI45
aI4979
aI4555
aI21171
aI73
aI10146
aI24
aI64
aI4659
aI131
aI45
aI4979
aI42536
aI73
aI6730
aI1727
aI73
aI7750
aI63765
asg6
S'It is a generalized term for something considered bad  not held to mean specifically wickedness or injustice in this context  but to mean calamity  or bad times  or disaster  .'
p11
ss.