(dp1
S'input'
p2
(dp3
S'encoded'
p4
(lp5
I64
aI2179
aI394
aI2017
aI3807
aI314
aI3433
asS'ori'
p6
S'This house would ban partial birth abortions'
p7
ssS'output'
p8
(dp9
g4
(lp10
I3254
aI685
aI63
aI21
aI7
aI3446
aI3261
aI1501
aI3
aI3257
aI752
aI131
aI63
aI64
aI21
aI116
aI99
aI3622
aI5
aI83
aI316
aI513
aI493
aI1185
aI10
aI2444
aI24
aI54
asg6
S'Roe established that "the right of personal privacy includes the abortion decision  but that this right is not unqualified  and must be considered against important state interests in regulation ."'
p11
ss.