(dp1
S'input'
p2
(dp3
S'encoded'
p4
(lp5
I64
aI2179
aI394
aI9385
aI2497
aI447
aI14
aI3
aI3578
aI5721
aI7
aI260
asS'ori'
p6
S'This house would enforce term limits on the legislative branch of government'
p7
ssS'output'
p8
(dp9
g4
(lp10
I3881
aI448
aI292
aI1809
aI34
aI2179
aI2789
aI5
aI267
aI1809
aI34
aI2211
aI2789
aI63765
asg6
S'Arkansas General Assembly: three two-year terms for House members (six years) and two four-year terms for Senate members (eight years) .'
p11
ss.