(dp1
S'input'
p2
(dp3
S'encoded'
p4
(lp5
I64
aI2179
aI43
aI63
aI134
aI116
aI400
aI21
aI34
aI3
aI260
aI45
aI3439
aI57
aI7
aI2381
asS'ori'
p6
S'This house believes that it is sometimes right for the government to restrict freedom of speech'
p7
ssS'output'
p8
(dp9
g4
(lp10
I89
aI667
aI9598
aI2333
aI116
aI3
aI10047
aI57
aI3795
aI89
aI10900
aI1545
aI75
aI3
aI8928
aI41
aI211
aI998
aI45
aI1604
aI89
aI4968
aI7
aI3
aI46468
aI16
aI3795
asg6
S'A new (in 2009) nongovernmental human-rights conference is the Oslo Freedom Forum  a gathering described by The Economist as "on its way to becoming a human-rights equivalent of the Davos economic forum ."'
p11
ss.