(dp1
S'input'
p2
(dp3
S'encoded'
p4
(lp5
I64
aI2179
aI394
aI2017
aI628
asS'ori'
p6
S'This house would ban gambling'
p7
ssS'output'
p8
(dp9
g4
(lp10
I100
aI7604
aI182
aI174
aI1047
aI34
aI7137
aI3281
aI14894
aI2120
aI159
aI41
aI20137
aI8396
aI5
aI4418
aI2120
aI63765
asg6
S'Some casinos are also known for hosting live entertainment events  such as stand-up comedy  concerts  and sporting events .'
p11
ss.