(dp1
S'input'
p2
(dp3
S'encoded'
p4
(lp5
I64
aI2179
aI43
aI63
aI3376
aI4938
aI417
aI316
aI3537
asS'ori'
p6
S'This house believes that endangered species should be protected'
p7
ssS'output'
p8
(dp9
g4
(lp10
I3
aI7975
aI4156
aI2924
aI948
aI41
aI51
aI282
aI6793
aI1623
aI45
aI3114
aI120
aI4938
aI217
aI24
aI1068
aI7
aI6793
aI703
aI5
aI75
aI193
aI89
aI2148
aI2910
aI14
aI3
aI2554
aI7
aI7797
aI63765
asg6
S'The IUCN Red List serves as an international conservation tool to identify those species most in need of conservation attention and by providing a global index on the status of biodiversity  .'
p11
ss.