(dp1
S'input'
p2
(dp3
S'encoded'
p4
(lp5
I64
aI2179
aI394
aI2773
aI12505
asS'ori'
p6
S'This house would embrace multiculturalism'
p7
ssS'output'
p8
(dp9
g4
(lp10
I64
aI768
aI4309
aI45
aI89
aI1168
aI1636
aI89
aI14384
aI3609
aI7
aI3
aI30691
aI14189
aI63765
aI3
aI30692
aI53
aI93
aI116
aI1038
aI24
aI3609
aI45
aI3
aI248
aI5
aI155
aI182
aI12426
aI24
aI2755
aI63765
asg6
S'This "knowledge" then leads to a tendency towards a binary opposition of the orient vs . the occident  where one is defined in opposition to the other  and they are unequal in value  .'
p11
ss.