(dp1
S'input'
p2
(dp3
S'encoded'
p4
(lp5
I64
aI2179
aI43
aI63
aI6670
aI546
aI417
aI316
aI89
aI1334
aI3108
aI7
aI4849
aI1886
aI2855
asS'ori'
p6
S'This house believes that wind power should be a primary focus of future energy supply'
p7
ssS'output'
p8
(dp9
g4
(lp10
I6886
aI88
aI316
aI993
aI75
aI839
aI918
aI60
aI5105
aI6865
aI6819
aI73
aI6241
aI3477
aI63765
asg6
S'Bats may be injured by direct impact with turbine blades  towers  or transmission lines .'
p11
ss.