(dp1
S'input'
p2
(dp3
S'encoded'
p4
(lp5
I64
aI2179
aI43
aI63
aI2659
aI417
aI1690
aI3
aI12048
aI7
aI19084
asS'ori'
p6
S'This house believes that Israel should lift the blockade of Gaza'
p7
ssS'output'
p8
(dp9
g4
(lp10
I117
aI4900
aI122
aI60
aI93
aI15185
aI53
aI12627
aI2763
aI3727
aI2025
aI7
aI2459
aI16566
aI34
aI3218
aI2634
aI14
aI3
aI24309
aI60
aI6402
aI5
aI17248
aI63765
asg6
S'"The only difference was with one ship  where extremist Islamic activists  supporters of terrorism  waited for our troops on the deck with axes and knives .'
p11
ss.