(dp1
S'input'
p2
(dp3
S'encoded'
p4
(lp5
I64
aI2179
aI394
aI1499
aI177
aI1819
aI34
aI160
asS'ori'
p6
S'This house would build high rises for housing'
p7
ssS'output'
p8
(dp9
g4
(lp10
I155
aI174
aI9806
aI39577
aI289
aI658
aI19902
aI200
aI271
aI39578
aI2755
aI5
aI132
aI19902
aI182
aI89
aI419
aI4943
aI7801
aI24
aI385
aI63765
asg6
S'They also cast shadows over public spaces  reducing their amenity value  and these spaces are a very valuable resource in mid-density cities .'
p11
ss.