(dp1
S'input'
p2
(dp3
S'encoded'
p4
(lp5
I64
aI2179
aI235
aI3
aI2136
aI7
aI3
aI2306
aI7
aI2390
asS'ori'
p6
S'This house supports the one-child policy of the republic of China'
p7
ssS'output'
p8
(dp9
g4
(lp10
I233
aI45
aI100
aI25061
aI3
aI943
aI2131
aI9792
aI2052
aI5175
aI13759
aI14
aI4015
aI6941
aI18264
aI19
aI6121
aI45
aI943
aI203
aI2424
aI63765
asg6
S'According to some testimonies  the Soviet Union allegedly imposed forced sterilization on female workers deported from Romania to Soviet labor camps .'
p11
ss.