(dp1
S'input'
p2
(dp3
S'encoded'
p4
(lp5
I64
aI2179
aI394
aI2017
aI223
aI9058
aI23653
asS'ori'
p6
S'This house would ban all unsustainable logging'
p7
ssS'output'
p8
(dp9
g4
(lp10
I233
aI45
aI93
aI2035
aI24
aI36819
aI874
aI5
aI4395
aI2390
aI3
aI582
aI2097
aI33747
aI1472
aI75
aI93
aI3059
aI291
aI3
aI5
aI3
aI63765
asg6
S'According to one study  in deforested north and northwest China  the average annual precipitation decreased by one third between the 1950s and the 1980s .'
p11
ss.