(dp1
S'input'
p2
(dp3
S'encoded'
p4
(lp5
I64
aI2179
aI43
aI24
aI3
aI475
aI7
aI12436
aI3364
asS'ori'
p6
S'This house believes in the use of affirmative action'
p7
ssS'output'
p8
(dp9
g4
(lp10
I15473
aI4612
aI3
aI33346
aI7
aI38748
aI619
aI18826
aI35253
aI7411
aI38748
aI16314
aI5
aI965
aI460
aI83
aI79
aI45
aI1576
aI25
aI3862
aI5
aI5878
aI25
aI6329
asg6
S'Accompanying labels are: "In the sweat of thy face shalt thou eat thy bread " and "The white man must work to keep his children and pay his taxes ."'
p11
ss.