(dp1
S'input'
p2
(dp3
S'encoded'
p4
(lp5
I64
aI2179
aI394
aI5284
aI150
aI3987
asS'ori'
p6
S'This house would reintroduce national service'
p7
ssS'output'
p8
(dp9
g4
(lp10
I5
aI2682
aI63765
aI3
aI10385
aI29076
aI2923
aI63765
asg6
S'and C .C .C .O .  the Campus Antiwar Network (C .A .N .'
p11
ss.