(dp1
S'input'
p2
(dp3
S'encoded'
p4
(lp5
I64
aI2179
aI43
aI63
aI3
aI4990
aI4991
aI116
aI4850
aI24
aI12166
aI3
aI475
aI7
aI3532
aI3290
aI7
aI4714
asS'ori'
p6
S'This house believes that the Catholic Church is justified in forbidding the use of barrier methods of contraception'
p7
ssS'output'
p8
(dp9
g4
(lp10
I39758
aI4697
aI2722
aI2455
aI177
aI24
aI217
aI7
aI3
aI285
aI653
aI14681
aI5
aI13487
aI14810
aI63
aI139
aI7456
aI5074
aI4821
aI60
aI725
aI21155
aI49787
aI5
aI8331
aI217
aI63765
asg6
S'STD incidence rates remain high in most of the world  despite diagnostic and therapeutic advances that can rapidly render patients with many STDs noninfectious and cure most .'
p11
ss.