(dp1
S'input'
p2
(dp3
S'encoded'
p4
(lp5
I64
aI2179
aI394
aI5370
aI7146
aI4585
aI2446
asS'ori'
p6
S'This house would abolish intellectual property rights'
p7
ssS'output'
p8
(dp9
g4
(lp10
I93
aI16206
aI4918
aI1063
aI45
aI1499
aI89
aI24205
aI24206
aI14
aI51
aI820
aI7834
aI5156
aI25
aI7311
aI63765
asg6
S"One bright guylet's call him Galt-Magnondecides to build a log cabin on an open field  near his crops ."
p11
ss.