(dp1
S'input'
p2
(dp3
S'encoded'
p4
(lp5
I64
aI2179
aI43
aI63
aI3376
aI4938
aI417
aI316
aI3537
asS'ori'
p6
S'This house believes that endangered species should be protected'
p7
ssS'output'
p8
(dp9
g4
(lp10
I3791
aI7812
aI1048
aI45
aI949
aI64
aI75
aI8813
aI14
aI3791
aI952
aI3791
aI8531
aI5
aI3791
aI1620
aI63765
asg6
S'Deep ecology seeks to develop this by focusing on deep experience  deep questioning and deep commitment .'
p11
ss.