(dp1
S'input'
p2
(dp3
S'encoded'
p4
(lp5
I64
aI2179
aI43
aI63
aI3
aI28431
aI7
aI2157
aI4624
aI75
aI39939
aI27257
aI122
aI4850
asS'ori'
p6
S'This house believes that the leaking of military documents by Anat Kamm was justified'
p7
ssS'output'
p8
(dp9
g4
(lp10
I30462
aI2173
aI63
aI211
aI752
aI440
aI12
aI221
aI9042
aI60
aI137
aI8675
aI73
aI248
aI8745
aI3714
aI75
aI260
aI5462
aI779
aI73
aI682
aI63765
asg6
S'Moneybookers stated that its decision had been made "to comply with money laundering or other investigations conducted by government authorities  agencies or commissions .'
p11
ss.