(dp1
S'input'
p2
(dp3
S'encoded'
p4
(lp5
I64
aI2179
aI43
aI8629
aI116
aI3
aI117
aI998
asS'ori'
p6
S'This house believes atheism is the only way'
p7
ssS'output'
p8
(dp9
g4
(lp10
I89
aI2369
aI18569
aI394
aI3943
aI1019
aI3084
aI755
aI89
aI6527
aI1967
aI73
aI99
aI5
aI880
aI139
aI1198
asg6
S'A strong agnostic would say  "I cannot know whether a deity exists or not  and neither can you ."'
p11
ss.