(dp1
S'input'
p2
(dp3
S'encoded'
p4
(lp5
I64
aI2179
aI43
aI63
aI3
aI4990
aI4991
aI116
aI4850
aI24
aI12166
aI3
aI475
aI7
aI3532
aI3290
aI7
aI4714
asS'ori'
p6
S'This house believes that the Catholic Church is justified in forbidding the use of barrier methods of contraception'
p7
ssS'output'
p8
(dp9
g4
(lp10
I134
aI373
aI2010
aI63
aI3
aI5726
aI7
aI380
aI4990
aI11391
aI382
aI8681
aI7
aI100
aI7
aI3
aI8536
aI10707
aI5
aI21325
aI86
aI19
aI10802
aI45
aI10802
aI366
aI24
aI100
aI3052
aI252
aI5359
aI86
aI19
aI1610
aI60
aI3862
aI63765
asg6
S'It became clear that the officials of various Catholic dioceses were aware of some of the abusive priests  and shuffled them from parish to parish (sometimes after psychotherapy)  in some cases without removing them from contact with children .'
p11
ss.