(dp1
S'input'
p2
(dp3
S'encoded'
p4
(lp5
I64
aI2179
aI394
aI10662
aI626
aI187
aI2157
aI2697
aI19
aI2371
asS'ori'
p6
S'This house would remove United States military bases from Japan'
p7
ssS'output'
p8
(dp9
g4
(lp10
I7045
aI6693
aI7049
aI24
aI3335
aI75
aI54323
aI6049
aI493
aI33050
aI2674
aI1548
aI5
aI54324
aI33054
aI891
aI24
aI3239
aI7
aI5
aI2666
aI45
aI6049
aI3839
aI63765
asg6
S'Excessive noise lawsuits in 2009 filed by Okinawas residents against Kadena Air Base and MCAS Futenma resulted in awards of $57 million** and $1 .3 million*** dollars to residents  respectively (Sumida  2009) .'
p11
ss.