(dp1
S'input'
p2
(dp3
S'encoded'
p4
(lp5
I64
aI2179
aI394
aI4325
aI2042
aI270
aI89
aI11605
aI3324
asS'ori'
p6
S'This house would fund education using a voucher scheme'
p7
ssS'output'
p8
(dp9
g4
(lp10
I25
aI45
aI8731
aI394
aI6726
aI863
aI1886
aI48996
aI2228
aI7354
aI5
aI2042
aI63765
asg6
S'His 2012 "Plan to Restore America" would eliminate five Cabinet-level departments: Energy  HUD  Commerce  Interior  and Education .'
p11
ss.