(dp1
S'input'
p2
(dp3
S'encoded'
p4
(lp5
I64
aI2179
aI43
aI63
aI2203
aI60
aI51
aI997
aI2837
aI21716
aI1636
aI5349
aI417
aI2998
aI8532
aI45
aI3051
aI8578
asS'ori'
p6
S'This house believes that countries with an imbalanced male/female ratio skewed towards males should encourage parents to produce girls'
p7
ssS'output'
p8
(dp9
g4
(lp10
I923
aI2151
aI4583
aI4584
aI4367
aI24
aI3
aI626
aI187
aI475
aI3
aI37132
aI1869
aI34
aI3284
aI4583
aI4584
aI63765
asg6
S'Currently  approximately 50 gender selection centers in the United States use the Ericsson Method for artificial gender selection  .'
p11
ss.