(dp1
S'input'
p2
(dp3
S'encoded'
p4
(lp5
I64
aI2179
aI43
aI24
aI3
aI475
aI7
aI12436
aI3364
asS'ori'
p6
S'This house believes in the use of affirmative action'
p7
ssS'output'
p8
(dp9
g4
(lp10
I134
aI174
aI2745
aI89
aI4550
aI291
aI4615
aI5
aI1735
aI4615
aI45
aI7227
aI3
aI13347
aI7
aI3
aI2180
aI45
aI3383
aI7008
aI19
aI147
aI1191
aI844
aI7
aI3
aI2446
aI3537
aI75
aI3
aI2533
aI63765
asg6
S'It also establishes a dispute-resolution mechanism between parties (Articles 11  13)  and allows parties to recognise the competence of the Committee to hear complaints from individuals about violations of the rights protected by the Convention (Article 14) .'
p11
ss.