(dp1
S'input'
p2
(dp3
S'encoded'
p4
(lp5
I64
aI2179
aI43
aI63
aI1036
aI4828
aI33250
aI116
aI25073
aI45
aI3315
aI4562
asS'ori'
p6
S'This house believes that male infant circumcision is tantamount to child abuse'
p7
ssS'output'
p8
(dp9
g4
(lp10
I29616
aI187
aI63
aI3
aI6828
aI7
aI7993
aI33298
aI20247
aI19
aI89
aI2583
aI417
aI99
aI316
aI2195
aI45
aI3585
aI6394
aI5
aI63
aI2039
aI81
aI1782
aI3
aI3378
aI182
aI99
aI6407
aI24
aI3879
aI60
aI271
aI4707
aI4913
aI45
aI3
aI13900
aI63765
asg6
S'Somerville states that the removal of healthy genital tissue from a minor should not be subject to parental discretion and that physicians who perform the procedure are not acting in accordance with their ethical duties to the patient  .'
p11
ss.