(dp1
S'input'
p2
(dp3
S'encoded'
p4
(lp5
I64
aI2179
aI394
aI2017
aI223
aI9058
aI23653
asS'ori'
p6
S'This house would ban all unsustainable logging'
p7
ssS'output'
p8
(dp9
g4
(lp10
I23577
aI4975
aI5
aI3921
aI634
aI45
aI2641
aI2760
aI736
aI3
aI217
aI4066
aI5
aI2604
aI6795
aI14
aI6267
aI63765
asg6
S'Rainforest plants and animals continued to evolve  developing into the most diverse and complex ecosystems on earth .'
p11
ss.