(dp1
S'input'
p2
(dp3
S'encoded'
p4
(lp5
I64
aI2179
aI43
aI3
aI626
aI187
aI116
aI1989
aI34
aI3102
aI2223
asS'ori'
p6
S"This house believes the United States is responsible for Mexico's drugs war"
p7
ssS'output'
p8
(dp9
g4
(lp10
I45
aI316
aI5043
aI4885
aI3
aI4585
aI24
aI3
aI7028
aI417
aI4614
aI3
aI2598
aI41
aI89
aI3730
aI63765
asg6
S'To be statistically accurate  the property in the sample should reflect the population as a whole .'
p11
ss.