(dp1
S'input'
p2
(dp3
S'encoded'
p4
(lp5
I64
aI2179
aI43
aI8629
aI116
aI3
aI117
aI998
asS'ori'
p6
S'This house believes atheism is the only way'
p7
ssS'output'
p8
(dp9
g4
(lp10
I3
aI349
aI441
aI399
aI7
aI3
aI6431
aI414
aI5480
aI3610
aI19
aI3
aI398
aI5711
aI38797
aI38798
aI63765
asg6
S'The earliest written form of the Germanic word God comes from the 6th century Christian Codex Argenteus .'
p11
ss.