(dp1
S'input'
p2
(dp3
S'encoded'
p4
(lp5
I64
aI2179
aI43
aI63
aI3
aI4990
aI4991
aI116
aI4850
aI24
aI12166
aI3
aI475
aI7
aI3532
aI3290
aI7
aI4714
asS'ori'
p6
S'This house believes that the Catholic Church is justified in forbidding the use of barrier methods of contraception'
p7
ssS'output'
p8
(dp9
g4
(lp10
I34
aI134
aI116
aI35
aI45
aI460
aI45
aI475
aI25
aI1065
aI24
aI128
aI45
aI4883
aI459
aI2445
aI708
aI61
aI116
aI575
aI75
aI959
aI580
aI63765
asg6
S'For it is natural to man to use his skill in order to put under human control what is given by physical nature .'
p11
ss.