(dp1
S'input'
p2
(dp3
S'encoded'
p4
(lp5
I64
aI2179
aI43
aI63
aI3
aI4990
aI4991
aI116
aI4850
aI24
aI12166
aI3
aI475
aI7
aI3532
aI3290
aI7
aI4714
asS'ori'
p6
S'This house believes that the Catholic Church is justified in forbidding the use of barrier methods of contraception'
p7
ssS'output'
p8
(dp9
g4
(lp10
I9047
aI63
aI134
aI116
aI162
aI6278
aI45
aI11
aI1748
aI11389
aI60
aI97
aI2007
aI4702
aI7
aI3456
aI11389
aI8958
aI63
aI100
aI7
aI3
aI1592
aI3290
aI316
aI416
aI45
aI9014
aI3
aI4779
aI7
aI43793
aI6241
aI5
aI3861
aI3271
aI63765
asg6
S'Acknowledging that it is usually impossible to have entirely risk-free sex with another person  proponents of safe sex recommend that some of the following methods be used to minimize the risks of STI transmission and unwanted pregnancy .'
p11
ss.