(dp1
S'input'
p2
(dp3
S'encoded'
p4
(lp5
I64
aI2179
aI394
aI5370
aI7146
aI4585
aI2446
asS'ori'
p6
S'This house would abolish intellectual property rights'
p7
ssS'output'
p8
(dp9
g4
(lp10
I132
aI3384
aI11
aI8873
aI2485
aI34
aI384
aI1486
aI7
aI63
aI182
aI99
aI7455
aI182
aI34
aI6396
aI99
aI2195
aI45
aI3
aI11098
aI7
aI3
aI4683
aI63765
asg6
S'These arguments have differing validity for different types of "property"&mdash;things that are not scarce are  for instance  not subject to the tragedy of the commons .'
p11
ss.