(dp1
S'input'
p2
(dp3
S'encoded'
p4
(lp5
I64
aI2179
aI394
aI2017
aI3807
aI314
aI3433
asS'ori'
p6
S'This house would ban partial birth abortions'
p7
ssS'output'
p8
(dp9
g4
(lp10
I89
aI16572
aI2962
aI3713
aI869
aI873
aI366
aI3
aI2482
aI3357
aI24
aI3832
aI646
aI63765
aI3814
aI353
aI63
aI7
aI3724
aI3
aI2528
aI547
aI187
aI45
aI238
aI100
aI2051
aI14
aI2386
aI3257
aI3808
asg6
S'A Rasmussen Reports poll four days after the Supreme Court\'s opinion in Gonzales v . Carhart found that 40% of respondents "knew the ruling allowed states to place some restrictions on specific abortion procedures ."'
p11
ss.