(dp1
S'input'
p2
(dp3
S'encoded'
p4
(lp5
I64
aI2179
aI43
aI63
aI2157
aI2565
aI493
aI19084
aI382
aI4850
asS'ori'
p6
S"This house believes that Israel's 2008-2009 military operations against Gaza were justified"
p7
ssS'output'
p8
(dp9
g4
(lp10
I134
aI116
aI2867
aI45
aI8052
aI2428
aI45
aI3
aI5373
aI1780
aI24
aI92
aI273
aI116
aI47257
aI291
aI332
aI4615
aI89
aI1780
aI24
aI92
aI134
aI116
aI330
aI45
aI2976
aI3
aI442
aI7
aI2223
asg6
S'It is necessary to invest thought to the changing situation in which there is asymmetry between fighting parties  a situation in which it is difficult to implement the classic/old rules of war ."'
p11
ss.