(dp1
S'input'
p2
(dp3
S'encoded'
p4
(lp5
I64
aI2179
aI394
aI16756
aI20435
asS'ori'
p6
S'This house would criminalize blasphemy'
p7
ssS'output'
p8
(dp9
g4
(lp10
I24
aI2204
aI15682
aI4213
aI7
aI61514
aI5598
aI3
aI21129
aI1101
aI24
aI89
aI11272
aI14
aI2767
aI42
aI122
aI5523
aI75
aI248
aI4209
aI131
aI2013
aI751
aI351
aI7795
aI34
aI20435
aI122
aI1607
aI63765
asg6
S'In 1756  Robert Clayton  Bishop of Clogher  questioned the Nicene Creed in a tract on religious tolerance; he was condemned by other bishops  but died before any prosecution for blasphemy was brought  .'
p11
ss.