(dp1
S'input'
p2
(dp3
S'encoded'
p4
(lp5
I64
aI2179
aI43
aI63
aI3
aI21
aI45
aI12715
aI417
aI99
aI316
aI2897
asS'ori'
p6
S'This house believes that the right to asylum should not be absolute'
p7
ssS'output'
p8
(dp9
g4
(lp10
I64
aI3262
aI1521
aI19
aI13216
aI63
aI3
aI3243
aI440
aI45
aI775
aI3625
aI3
aI2007
aI223
aI289
aI375
aI7367
aI63
aI3
aI12938
aI122
aI17403
aI11242
aI45
aI271
aI18482
aI2005
aI5
aI382
aI508
aI575
aI1928
aI511
aI45
aI41865
aI257
aI155
aI87
aI7433
aI63765
asg6
S'This process  apart from ensuring that the officers had to effectively interview the person all over again  meant that the applicant was thoroughly alerted to their impending refusal and were thus given every opportunity to abscond if they so wished .'
p11
ss.