(dp1
S'input'
p2
(dp3
S'encoded'
p4
(lp5
I64
aI2179
aI43
aI63
aI3
aI4538
aI7
aI4434
aI7793
aI283
aI45
aI3586
aI417
aI316
aI577
asS'ori'
p6
S'This house believes that the sale of violent video games to minors should be banned'
p7
ssS'output'
p8
(dp9
g4
(lp10
I2045
aI116
aI4666
aI45
aI5873
aI4319
aI41
aI182
aI3
aI2884
aI9901
aI187
aI63765
asg6
S'Iceland is expected to join soon  as are the 10 EU accession states .'
p11
ss.