(dp1
S'input'
p2
(dp3
S'encoded'
p4
(lp5
I64
aI2179
aI394
aI2773
aI12505
asS'ori'
p6
S'This house would embrace multiculturalism'
p7
ssS'output'
p8
(dp9
g4
(lp10
I5
aI7829
aI116
aI49
aI243
aI545
aI89
aI145
aI87
aI63
aI134
aI116
aI2628
aI73
aI7579
aI223
aI1948
aI2818
aI73
aI10678
aI27775
aI73
aI53698
aI53699
aI73
aI16381
aI673
aI574
aI248
aI63765
asg6
S'And evolution is almost always within a system so that it is really co-evolution or pan-evolution whereby all parts directly or indirectly  symmetrically or asymmetrically  symbiotically or competitively influence each other .'
p11
ss.