(dp1
S'input'
p2
(dp3
S'encoded'
p4
(lp5
I64
aI2179
aI43
aI63
aI3
aI4990
aI4991
aI116
aI4850
aI24
aI12166
aI3
aI475
aI7
aI3532
aI3290
aI7
aI4714
asS'ori'
p6
S'This house believes that the Catholic Church is justified in forbidding the use of barrier methods of contraception'
p7
ssS'output'
p8
(dp9
g4
(lp10
I4975
aI60
aI13788
aI12200
aI382
aI416
aI24
aI66
aI6095
aI19
aI3
aI398
aI15560
aI12945
aI5
aI403
aI75
aI1872
aI66
aI1367
aI14
aI46865
aI159
aI41
aI43966
aI63765
asg6
S'Plants with contraceptive properties were used in Ancient Greece from the 7th century BCE onwards and documented by numerous ancient writers on gynaecology  such as Hippocrates .'
p11
ss.