(dp1
S'input'
p2
(dp3
S'encoded'
p4
(lp5
I64
aI2179
aI43
aI223
aI2138
aI11
aI89
aI21
aI45
aI2185
aI372
asS'ori'
p6
S'This house believes all nations have a right to nuclear weapons'
p7
ssS'output'
p8
(dp9
g4
(lp10
I4377
aI24
aI2157
aI1862
aI2943
aI805
aI5
aI4871
aI182
aI887
aI3
aI727
aI7
aI7497
aI378
aI155
aI11
aI174
aI12
aI11618
aI5
aI99
aI3
aI1334
aI3014
aI63765
asg6
S'Traditionally in military strategy  mutual pain and suffering are among the results of warfare  however they have also been incidental and not the primary purpose .'
p11
ss.