(dp1
S'input'
p2
(dp3
S'encoded'
p4
(lp5
I64
aI2179
aI43
aI63
aI1036
aI4828
aI33250
aI116
aI25073
aI45
aI3315
aI4562
asS'ori'
p6
S'This house believes that male infant circumcision is tantamount to child abuse'
p7
ssS'output'
p8
(dp9
g4
(lp10
I75
aI3
aI14810
aI24
aI3
aI1462
aI7
aI4368
aI440
aI11476
aI165
aI7
aI3
aI3851
aI2015
aI2259
aI34
aI4535
aI33250
aI63765
asg6
S'By the 1920s  advances in the understanding of disease had undermined much of the original medical basis for preventive circumcision .'
p11
ss.