(dp1
S'input'
p2
(dp3
S'encoded'
p4
(lp5
I64
aI2179
aI13605
aI2258
aI45
aI2194
asS'ori'
p6
S'This house prefers trade to aid'
p7
ssS'output'
p8
(dp9
g4
(lp10
I5450
aI2280
aI63
aI706
aI2352
aI2752
aI463
aI1049
aI271
aI16
aI2554
aI271
aI809
aI2624
aI75
aI270
aI64
aI2710
aI45
aI271
aI502
aI63765
asg6
S'Imperial powers that controlled capital flows could maintain their economic status vis-a-vis their former colonies by using this dependency to their advantage .'
p11
ss.