(dp1
S'input'
p2
(dp3
S'encoded'
p4
(lp5
I64
aI2179
aI43
aI223
aI2138
aI11
aI89
aI21
aI45
aI2185
aI372
asS'ori'
p6
S'This house believes all nations have a right to nuclear weapons'
p7
ssS'output'
p8
(dp9
g4
(lp10
I2450
aI923
aI55
aI3
aI5
aI4472
aI63765
asg6
S'India currently has the 3M-54E  3M-54E1  91RE1 and 91RE2 variants .'
p11
ss.