(dp1
S'input'
p2
(dp3
S'encoded'
p4
(lp5
I64
aI2179
aI43
aI63
aI3
aI4991
aI7
aI180
aI417
aI316
aI5396
aI19
aI3
aI169
aI10
asS'ori'
p6
S'This house believes that the Church of England should be separated from the British state'
p7
ssS'output'
p8
(dp9
g4
(lp10
I64
aI122
aI14037
aI45
aI41
aI24
aI1485
aI4717
aI3
aI49486
aI4991
aI3
aI2471
aI31396
aI5
aI122
aI5639
aI24
aI63765
asg6
S'This was objected to  as in practice establishing the Congregational Church  the majority denomination  and was abolished in 1833 .'
p11
ss.