(dp1
S'input'
p2
(dp3
S'encoded'
p4
(lp5
I64
aI2179
aI43
aI223
aI2138
aI11
aI89
aI21
aI45
aI2185
aI372
asS'ori'
p6
S'This house believes all nations have a right to nuclear weapons'
p7
ssS'output'
p8
(dp9
g4
(lp10
I34
aI1343
aI397
aI3
aI2450
aI3714
aI89
aI290
aI7
aI1617
aI30292
aI270
aI3
aI35126
aI63765
asg6
S'For example  during the 1980s  India conducted a series of space launches using the solid-fueled SLV-3 booster .'
p11
ss.