(dp1
S'input'
p2
(dp3
S'encoded'
p4
(lp5
I64
aI2179
aI43
aI8629
aI116
aI3
aI117
aI998
asS'ori'
p6
S'This house believes atheism is the only way'
p7
ssS'output'
p8
(dp9
g4
(lp10
I82
aI748
aI63
aI89
aI1896
aI13401
aI459
aI3
aI5211
aI7
aI3
aI8515
aI273
aI116
aI16214
aI11901
aI63765
asg6
S"Likewise  it's possible (but improbable) that a few meters under the surface of the Moon there is solid  dense Moon-cheese ."
p11
ss.