(dp1
S'input'
p2
(dp3
S'encoded'
p4
(lp5
I64
aI2179
aI394
aI2017
aI223
aI9058
aI23653
asS'ori'
p6
S'This house would ban all unsustainable logging'
p7
ssS'output'
p8
(dp9
g4
(lp10
I7809
aI6714
aI3
aI7151
aI7
aI1495
aI24
aI3
aI8100
aI5
aI36826
aI41
aI261
aI41
aI6930
aI21002
aI63765
asg6
S'Deforestation reduces the content of water in the soil and groundwater as well as atmospheric moisture .'
p11
ss.