(dp1
S'input'
p2
(dp3
S'encoded'
p4
(lp5
I64
aI2179
aI394
aI2017
aI223
aI9058
aI23653
asS'ori'
p6
S'This house would ban all unsustainable logging'
p7
ssS'output'
p8
(dp9
g4
(lp10
I64
aI136
aI820
aI5229
aI1256
aI3
aI1408
aI910
aI7
aI2597
aI3921
aI159
aI46961
aI675
aI3
aI46962
aI46963
aI32932
aI63765
asg6
S'This more open quality permits the easy movement of larger animals such as: ungulates like the okapi (Okapia johnstoni)  tapir (Tapirus sp .'
p11
ss.