(dp1
S'input'
p2
(dp3
S'encoded'
p4
(lp5
I64
aI2179
aI13605
aI2258
aI45
aI2194
asS'ori'
p6
S'This house prefers trade to aid'
p7
ssS'output'
p8
(dp9
g4
(lp10
I833
aI7
aI132
aI189
aI186
aI63
aI12390
aI502
aI55
aI6196
aI211
aI624
aI24
aI89
aI940
aI7464
aI285
aI24
aI92
aI2352
aI116
aI1260
aI45
aI831
aI1010
aI63765
asg6
S'Opponents of these policies argue that comparative advantage has lost its legitimacy in a globally integrated world in which capital is free to move internationally .'
p11
ss.