(dp1
S'input'
p2
(dp3
S'encoded'
p4
(lp5
I64
aI2179
aI394
aI2773
aI12505
asS'ori'
p6
S'This house would embrace multiculturalism'
p7
ssS'output'
p8
(dp9
g4
(lp10
I2768
aI252
aI6218
aI4309
aI45
aI26106
aI5
aI3
aI26107
aI7
aI3
aI63765
asg6
S'Diversity without unity leads to Balkanization and the fracturing of the nation-state .'
p11
ss.