(dp1
S'input'
p2
(dp3
S'encoded'
p4
(lp5
I64
aI2179
aI394
aI190
aI3
aI21
aI45
aI3895
aI834
asS'ori'
p6
S'This house would limit the right to bear arms'
p7
ssS'output'
p8
(dp9
g4
(lp10
I2643
aI3923
aI3973
aI41
aI89
aI2609
aI2887
aI7
aI3
aI2611
aI3905
aI63765
asg6
S'Today  hunting survives as a central component of the gun culture .'
p11
ss.