(dp1
S'input'
p2
(dp3
S'encoded'
p4
(lp5
I64
aI2179
aI394
aI2017
aI3807
aI314
aI3433
asS'ori'
p6
S'This house would ban partial birth abortions'
p7
ssS'output'
p8
(dp9
g4
(lp10
I378
aI89
aI10479
aI282
aI3713
aI24
aI353
aI63
aI7
aI223
aI242
aI5810
aI63
aI3257
aI89
aI2445
aI3269
aI5
aI116
aI4970
aI63765
asg6
S'However  a Zogby International poll in 2004 found that 43% of all Democrats believed that abortion "destroys a human life and is manslaughter .'
p11
ss.