(dp1
S'input'
p2
(dp3
S'encoded'
p4
(lp5
I64
aI2179
aI394
aI2017
aI628
asS'ori'
p6
S'This house would ban gambling'
p7
ssS'output'
p8
(dp9
g4
(lp10
I50007
aI92
aI5128
aI50008
aI440
aI211
aI7664
aI505
aI49
aI24
aI5101
aI41
aI89
aI296
aI7
aI3
aI4342
aI63765
asg6
S"PartyGaming  which runs PartyPoker .com  had its publicly-traded stock drop almost 60% in 24 hours as a result of the bill's passage ."
p11
ss.