(dp1
S'input'
p2
(dp3
S'encoded'
p4
(lp5
I64
aI2179
aI235
aI3
aI2136
aI7
aI3
aI2306
aI7
aI2390
asS'ori'
p6
S'This house supports the one-child policy of the republic of China'
p7
ssS'output'
p8
(dp9
g4
(lp10
I2879
aI7
aI112
aI3945
aI3941
aI112
aI19
aI4450
aI3224
aI195
aI1621
aI248
aI3926
aI3941
aI195
aI1621
aI2190
aI112
aI248
aI63765
asg6
S'Sources of income (2003): rural households  income from household businesses 75 .7%  wages 19 .1%  transfers 3 .7%  other 1 .5%; urban households  wages 70 .7%  transfers 23 .3%  business income 4 .5%  other 1 .5% .'
p11
ss.