(dp1
S'input'
p2
(dp3
S'encoded'
p4
(lp5
I64
aI2179
aI43
aI63
aI2659
aI417
aI1690
aI3
aI12048
aI7
aI19084
asS'ori'
p6
S'This house believes that Israel should lift the blockade of Gaza'
p7
ssS'output'
p8
(dp9
g4
(lp10
I155
aI382
aI795
aI588
aI3
aI5449
aI7
aI3
aI16051
aI2126
asg6
S'They were holding up the flag of the devil itself ."'
p11
ss.