(dp1
S'input'
p2
(dp3
S'encoded'
p4
(lp5
I64
aI2179
aI394
aI163
aI959
aI2042
aI3557
asS'ori'
p6
S'This house would make physical education compulsory'
p7
ssS'output'
p8
(dp9
g4
(lp10
I658
aI3217
aI174
aI1040
aI380
aI3089
aI45
aI190
aI3
aI3217
aI15525
aI291
aI384
aI2506
aI7
aI3
aI2696
aI5
aI24
aI100
aI3052
aI3
aI6578
aI73
aI285
aI63765
asg6
S'Public health also takes various actions to limit the health disparities between different areas of the country and  in some cases  the continent or world .'
p11
ss.