(dp1
S'input'
p2
(dp3
S'encoded'
p4
(lp5
I64
aI2179
aI235
aI3
aI2136
aI7
aI3
aI2306
aI7
aI2390
asS'ori'
p6
S'This house supports the one-child policy of the republic of China'
p7
ssS'output'
p8
(dp9
g4
(lp10
I93
aI5433
aI116
aI45
aI3108
aI14
aI2042
aI1191
aI17783
aI3874
aI2569
aI5
aI314
aI708
aI3290
aI5
aI45
aI163
aI5254
aI675
aI7332
aI13454
aI5
aI16497
aI5254
aI1398
aI119
aI63765
asg6
S'One option is to focus on education about overpopulation  family planning  and birth control methods  and to make birth-control devices like male/female condoms  pills and intrauterine devices easily available .'
p11
ss.