(dp1
S'input'
p2
(dp3
S'encoded'
p4
(lp5
I64
aI2179
aI394
aI5370
aI3
aI5286
asS'ori'
p6
S'This house would abolish the monarchy'
p7
ssS'output'
p8
(dp9
g4
(lp10
I24
aI3
aI3140
aI6091
aI5
aI24
aI6065
aI34
aI1343
aI3
aI5301
aI2435
aI16352
aI89
aI4233
aI45
aI45833
aI289
aI3
aI4360
aI7
aI89
aI4317
aI260
aI1592
aI89
aI5399
aI4168
aI226
aI24
aI2044
aI3
aI5672
aI15958
aI4604
aI5460
aI7
aI3
aI9170
aI63765
asg6
S'In the Netherlands  Denmark and in Belgium  for example  the Monarch formally appoints a representative to preside over the creation of a coalition government following a parliamentary election  while in Norway the King chairs special meetings of the cabinet .'
p11
ss.