(dp1
S'input'
p2
(dp3
S'encoded'
p4
(lp5
I64
aI2179
aI43
aI63
aI3
aI4991
aI7
aI180
aI417
aI316
aI5396
aI19
aI3
aI169
aI10
asS'ori'
p6
S'This house believes that the Church of England should be separated from the British state'
p7
ssS'output'
p8
(dp9
g4
(lp10
I273
aI382
aI174
aI833
aI45
aI3
aI96
aI7
aI351
aI685
aI4991
aI113
aI311
aI3
aI10
aI126
aI63765
asg6
S'There were also opponents to the support of any established church even at the state level .'
p11
ss.