(dp1
S'input'
p2
(dp3
S'encoded'
p4
(lp5
I64
aI2179
aI394
aI5370
aI223
aI4013
aI10440
aI2446
aI4881
aI75
aI14482
aI11004
asS'ori'
p6
S'This house would abolish all collective bargaining rights claimed by trades unions'
p7
ssS'output'
p8
(dp9
g4
(lp10
I24
aI3
aI5884
aI1565
aI145
aI7
aI5428
aI192
aI54
aI3
aI260
aI7768
aI51
aI1185
aI2210
aI41
aI273
aI116
aI89
aI2369
aI3578
aI2886
aI7
aI6642
aI2446
aI92
aI146
aI3
aI2259
aI34
aI2361
aI41
aI261
aI41
aI89
aI3278
aI34
aI18280
aI291
aI11004
aI14
aI93
aI823
aI5
aI9452
aI73
aI9452
aI956
aI14
aI3
aI248
aI63765
asg6
S'In the Continental European System of labour market regulation  the government plays an important role as there is a strong legislative core of employee rights  which provides the basis for agreements as well as a framework for discord between unions on one side and employers or employers associations on the other .'
p11
ss.