(dp1
S'input'
p2
(dp3
S'encoded'
p4
(lp5
I64
aI2179
aI394
aI2773
aI12505
asS'ori'
p6
S'This house would embrace multiculturalism'
p7
ssS'output'
p8
(dp9
g4
(lp10
I7037
aI4178
aI116
aI2609
aI45
aI368
aI17
aI2134
aI63765
asg6
S'Abstract individualism is central to Western social organization .'
p11
ss.