(dp1
S'input'
p2
(dp3
S'encoded'
p4
(lp5
I64
aI2179
aI43
aI63
aI3
aI4990
aI4991
aI116
aI4850
aI24
aI12166
aI3
aI475
aI7
aI3532
aI3290
aI7
aI4714
asS'ori'
p6
S'This house believes that the Catholic Church is justified in forbidding the use of barrier methods of contraception'
p7
ssS'output'
p8
(dp9
g4
(lp10
I378
aI3
aI2164
aI7
aI3
aI10242
aI2132
aI34
aI3
aI3874
aI10758
aI21159
aI24
aI51
aI3625
aI5047
aI75
aI4990
aI2935
aI2904
aI14
aI88
aI742
aI63
aI3
aI4991
aI21160
aI3
aI5204
aI14
aI5
aI1630
aI63
aI3
aI6359
aI440
aI6021
aI351
aI2992
aI1191
aI21161
aI3
aI4042
aI14
aI21152
aI475
aI63765
asg6
S'However  the president of the Pontifical Council for the Family  Cardinal Trujillo  in an interview reported by Catholic News Agency on May 4  2006  said that the Church "maintains unmodified the teaching on condoms"  and added that the Pope had "not ordered any studies about modifying the prohibition on condom use .'
p11
ss.