(dp1
S'input'
p2
(dp3
S'encoded'
p4
(lp5
I64
aI2179
aI394
aI2017
aI262
asS'ori'
p6
S'This house would ban boxing'
p7
ssS'output'
p8
(dp9
g4
(lp10
I273
aI116
aI443
aI2010
aI1239
aI291
aI3
aI972
aI534
aI45
aI1105
aI89
aI2007
aI864
aI5
aI3
aI972
aI1856
aI45
aI2011
aI89
aI2007
asg6
S'There is no clear division between the force required to knock a person out and the force likely to kill a person'
p11
ss.