(dp1
S'input'
p2
(dp3
S'encoded'
p4
(lp5
I64
aI2179
aI394
aI4261
aI8667
aI3
aI9361
aI5
aI17069
asS'ori'
p6
S'This house would prohibit burning the stars and stripes'
p7
ssS'output'
p8
(dp9
g4
(lp10
I3
aI2483
aI3382
aI24
aI1561
aI7
aI37967
aI179
aI63
aI3
aI5859
aI440
aI10048
aI63765
asg6
S'The court voted 72 in favor of Tinker  finding that the suspension had violated .'
p11
ss.