(dp1
S'input'
p2
(dp3
S'encoded'
p4
(lp5
I64
aI2179
aI43
aI63
aI3
aI21
aI45
aI12715
aI417
aI99
aI316
aI2897
asS'ori'
p6
S'This house believes that the right to asylum should not be absolute'
p7
ssS'output'
p8
(dp9
g4
(lp10
I24
aI89
aI6773
aI122
aI557
aI24
aI38409
aI493
aI3
aI7
aI3
aI6056
aI260
aI3
aI6049
aI4881
aI63
aI155
aI182
aI2056
aI10882
aI45
aI1372
aI1642
aI311
aI77
aI15794
aI311
aI4150
asg6
S'In mid-2010  a demonstration was held in Eilat against the non-action of the Israeli government  the residents claimed that they are now afraid to walk outside at certain neighborhoods at night '
p11
ss.