(dp1
S'input'
p2
(dp3
S'encoded'
p4
(lp5
I64
aI2179
aI43
aI63
aI3
aI28431
aI7
aI2157
aI4624
aI75
aI39939
aI27257
aI122
aI4850
asS'ori'
p6
S'This house believes that the leaking of military documents by Anat Kamm was justified'
p7
ssS'output'
p8
(dp9
g4
(lp10
I14
aI1906
aI18036
aI20391
aI4001
aI6434
aI658
aI3953
aI30340
aI63
aI42
aI116
aI992
aI7960
aI3820
aI22
aI12715
aI24
aI842
aI4281
aI5
aI1685
aI588
aI89
aI2201
aI3565
aI45
aI831
aI3
aI3099
aI273
aI63765
asg6
S'On 4 November 2010  Julian Assange told Swiss public television TSR that he is seriously considering seeking political asylum in neutral Switzerland and setting up a WikiLeaks foundation to move the operation there  .'
p11
ss.