(dp1
S'input'
p2
(dp3
S'encoded'
p4
(lp5
I64
aI2179
aI43
aI223
aI2138
aI11
aI89
aI21
aI45
aI2185
aI372
asS'ori'
p6
S'This house believes all nations have a right to nuclear weapons'
p7
ssS'output'
p8
(dp9
g4
(lp10
I2318
aI2404
aI174
aI4260
aI1237
aI4163
aI2185
aI372
aI24
aI3
aI131
aI2494
aI373
aI3
aI237
aI2696
aI45
aI9213
aI11955
aI271
aI372
aI8072
aI5
aI2968
aI1706
aI2410
aI63765
asg6
S"South Africa also manufactured several complete nuclear weapons in the 1980's  but subsequently became the first country to voluntarily destroy their domestically-made weapons stocks and abandon further production (1990's)  ."
p11
ss.