(dp1
S'input'
p2
(dp3
S'encoded'
p4
(lp5
I64
aI2179
aI43
aI63
aI3
aI21
aI45
aI12715
aI417
aI99
aI316
aI2897
asS'ori'
p6
S'This house believes that the right to asylum should not be absolute'
p7
ssS'output'
p8
(dp9
g4
(lp10
I394
aI1301
aI316
aI1031
aI45
aI5918
aI3
aI3440
aI7
aI3976
aI7
aI3
aI9413
aI5
aI1476
aI3
aI6815
aI257
aI357
aI1576
aI14
aI21039
aI136
aI5
aI136
aI23453
aI63765
asg6
S'"We would never be able to raise the standard of living of the needy and reduce the gaps  if we keep on absorbing more and more destitute people"  .'
p11
ss.