(dp1
S'input'
p2
(dp3
S'encoded'
p4
(lp5
I64
aI2179
aI43
aI63
aI3376
aI4938
aI417
aI316
aI3537
asS'ori'
p6
S'This house believes that endangered species should be protected'
p7
ssS'output'
p8
(dp9
g4
(lp10
I3515
aI3
aI2755
aI7797
aI55
aI24
aI3267
aI5
aI30298
aI7826
aI3539
aI273
aI182
aI839
aI16
aI6203
aI7
aI892
aI2768
aI24
aI77
aI6795
aI5
aI24
aI3
aI285
aI41
aI89
aI3730
aI63765
asg6
S'Beyond the value biodiversity has in regulating and stabilizing ecosystem processes  there are direct economic consequences of losing diversity in certain ecosystems and in the world as a whole .'
p11
ss.