(dp1
S'input'
p2
(dp3
S'encoded'
p4
(lp5
I64
aI2179
aI43
aI63
aI187
aI417
aI99
aI16642
aI3
aI6449
aI7
aI3935
asS'ori'
p6
S'This house believes that states should not subsidize the growing of tobacco'
p7
ssS'output'
p8
(dp9
g4
(lp10
I2992
aI24
aI2048
aI4753
aI63
aI78
aI1057
aI45
aI13530
aI19
aI14833
aI45
aI19467
aI958
aI138
aI3
aI248
aI998
aI589
asg6
S'Studies in Sweden indicate that people tend to switch from smoking to snus  rather than the other way around .)'
p11
ss.