(dp1
S'input'
p2
(dp3
S'encoded'
p4
(lp5
I64
aI2179
aI43
aI63
aI6670
aI546
aI417
aI316
aI89
aI1334
aI3108
aI7
aI4849
aI1886
aI2855
asS'ori'
p6
S'This house believes that wind power should be a primary focus of future energy supply'
p7
ssS'output'
p8
(dp9
g4
(lp10
I155
aI9036
aI1886
aI31757
aI41
aI89
aI136
aI7994
aI2028
aI5
aI136
aI2562
aI60
aI16
aI2702
aI5
aI1886
aI6312
aI63765
asg6
S'They offer energy resilience as a more sensible goal and more aligned with economic  security and energy realities .'
p11
ss.