(dp1
S'input'
p2
(dp3
S'encoded'
p4
(lp5
I64
aI2179
aI43
aI17
aI4941
aI857
aI3211
asS'ori'
p6
S'This house believes social deprivation causes crime'
p7
ssS'output'
p8
(dp9
g4
(lp10
I41499
aI3367
aI63
aI89
aI1706
aI4798
aI417
aI316
aI221
aI291
aI2637
aI2170
aI8890
aI258
aI5
aI8890
aI13541
aI604
aI147
aI12517
aI13541
aI924
aI4215
aI86
aI5
aI6407
aI111
aI86
aI12481
aI63765
asg6
S'Dubin felt that a further distinction should be made between cultural goals  institutional means and institutional norms because individuals perceive norms subjectively  interpreting them and acting upon them differently .'
p11
ss.