(dp1
S'input'
p2
(dp3
S'encoded'
p4
(lp5
I64
aI2179
aI394
aI2976
aI12243
aI24
aI954
aI126
aI1560
aI10723
asS'ori'
p6
S'This house would implement playoffs in collegiate level American football'
p7
ssS'output'
p8
(dp9
g4
(lp10
I19
aI620
aI13694
aI8302
aI784
aI34949
aI150
aI1011
aI283
aI4184
aI45
aI13200
aI2446
aI517
aI60
aI3
aI34949
aI5
aI3
aI2422
aI20731
aI564
aI2446
aI382
aI3619
aI17008
aI63765
asg6
S'From 1999 through 2006  ABC broadcast eight BCS National Championship Games pursuant to broadcasting rights negotiated with the BCS and the Rose Bowl  whose rights were offered separately .'
p11
ss.