(dp1
S'input'
p2
(dp3
S'encoded'
p4
(lp5
I64
aI2179
aI394
aI190
aI3
aI21
aI45
aI3895
aI834
asS'ori'
p6
S'This house would limit the right to bear arms'
p7
ssS'output'
p8
(dp9
g4
(lp10
I42
aI11670
aI89
aI1488
aI69
aI782
aI7
aI2511
aI14
aI3822
aI17194
aI2722
aI131
aI187
aI3
aI782
aI116
aI99
aI5043
aI4229
aI63765
asg6
S'He finds a small  positive effect of concealed-carry laws on adult homicide rates  but states the effect is not statistically significant  .'
p11
ss.