(dp1
S'input'
p2
(dp3
S'encoded'
p4
(lp5
I64
aI2179
aI394
aI2017
aI262
asS'ori'
p6
S'This house would ban boxing'
p7
ssS'output'
p8
(dp9
g4
(lp10
I134
aI116
aI263
aI11688
aI3047
aI8182
aI41277
aI41280
aI63765
asg6
S'It is called activation database guided EEG biofeedback .'
p11
ss.