(dp1
S'input'
p2
(dp3
S'encoded'
p4
(lp5
I64
aI2179
aI43
aI63
aI2157
aI2565
aI493
aI19084
aI382
aI4850
asS'ori'
p6
S"This house believes that Israel's 2008-2009 military operations against Gaza were justified"
p7
ssS'output'
p8
(dp9
g4
(lp10
I24
aI89
aI3419
aI3435
aI75
aI3
aI5496
aI7
aI2135
aI2181
aI7
aI10121
aI10122
aI3
aI260
aI111
aI223
aI4615
aI2853
aI45
aI312
aI3
aI2617
aI45
aI975
aI89
aI2456
aI21749
aI34
aI3
aI7
aI2952
aI45
aI154
aI89
aI9676
aI213
aI45
aI3
aI2513
aI63765
asg6
S'|- In a statement issued by the Ministry of Foreign Affairs of Sri Lanka  the government "calls upon all parties concerned to end the violence  to ensure a climate conducive for the re-commencement of negotiations to find a lasting solution to the Israel-Palestine conflict .'
p11
ss.