(dp1
S'input'
p2
(dp3
S'encoded'
p4
(lp5
I64
aI2179
aI43
aI63
aI17574
aI417
aI316
aI3481
aI34
aI271
aI79
asS'ori'
p6
S'This house believes that housewives should be paid for their work'
p7
ssS'output'
p8
(dp9
g4
(lp10
I14353
aI132
aI3620
aI5019
aI186
aI63
aI132
aI4453
aI11
aI1185
aI16
aI6609
aI63
aI83
aI316
aI689
aI545
aI3
aI16
aI3278
aI63765
asg6
S'Crucially  these feminist economists argue that these claims have important economic outcomes that must be recognized within the economic framework .'
p11
ss.