(dp1
S'input'
p2
(dp3
S'encoded'
p4
(lp5
I64
aI2179
aI43
aI63
aI11083
aI10046
aI417
aI316
aI89
aI3135
aI4603
asS'ori'
p6
S'This house believes that Holocaust denial should be a criminal offence'
p7
ssS'output'
p8
(dp9
g4
(lp10
I41
aI93
aI7
aI725
aI1202
aI3
aI684
aI7
aI3
aI3250
aI27308
aI4307
aI4895
aI13124
aI47985
aI5
aI3
aI2377
aI459
aI25
aI2636
aI440
aI1108
aI311
aI47986
aI24
aI481
aI382
aI23888
aI588
aI5
aI6955
aI24
aI63765
asg6
S'As one of many examples  the bodies of the 25 000 mostly Latvian Jews whom Friedrich Jeckeln and the soldiers under his command had shot at Rumbula (near Riga) in late 1941 were dug up and burned in 1943  .'
p11
ss.