(dp1
S'input'
p2
(dp3
S'encoded'
p4
(lp5
I64
aI2179
aI43
aI63
aI134
aI116
aI400
aI21
aI34
aI3
aI260
aI45
aI3439
aI57
aI7
aI2381
asS'ori'
p6
S'This house believes that it is sometimes right for the government to restrict freedom of speech'
p7
ssS'output'
p8
(dp9
g4
(lp10
I3
aI10
aI708
aI122
aI4351
aI24
aI75
aI3
aI9902
aI7
aI63339
aI92
aI606
aI3353
aI7
aI3
aI7149
aI2511
aI24
aI3
aI5354
aI107
aI7
aI3
aI4750
aI63765
asg6
S"The state control was strengthened in 1571 by the edict of Gaillon which placed enforcement of the censorship laws in the Chancellor's office instead of the University  ."
p11
ss.