(dp1
S'input'
p2
(dp3
S'encoded'
p4
(lp5
I64
aI2179
aI13605
aI2258
aI45
aI2194
asS'ori'
p6
S'This house prefers trade to aid'
p7
ssS'output'
p8
(dp9
g4
(lp10
I378
aI366
aI3
aI260
aI579
aI2136
aI5
aI10400
aI34
aI7369
aI5
aI18974
aI382
aI451
aI5677
aI104
aI15276
aI18975
aI24
aI5
aI41
aI2410
aI18976
aI45
aI2639
aI24
aI19
aI2639
aI24
aI1609
aI18973
aI89
aI281
aI3964
aI18977
aI63765
asg6
S'However  after the government changed policy and subsidies for fertilizer and seed were introduced  farmers produced record-breaking corn harvests in 2006 and 2007 as production leaped to 3 .4 million in 2007 from 1 .2 million in 2005  making Malawi a major food exporter  .'
p11
ss.