(dp1
S'input'
p2
(dp3
S'encoded'
p4
(lp5
I64
aI2179
aI43
aI63
aI2157
aI2565
aI493
aI19084
aI382
aI4850
asS'ori'
p6
S"This house believes that Israel's 2008-2009 military operations against Gaza were justified"
p7
ssS'output'
p8
(dp9
g4
(lp10
I233
aI45
aI6056
aI5726
aI211
aI4705
aI2394
aI20031
aI427
aI16619
aI75
aI1913
aI58
aI1879
aI11169
aI6043
aI63765
asg6
S'According to Israeli officials  its subsequent December 27 offensive took Hamas by surprise  thereby increasing militant casualties  .'
p11
ss.