(dp1
S'input'
p2
(dp3
S'encoded'
p4
(lp5
I64
aI2179
aI394
aI4325
aI2042
aI270
aI89
aI11605
aI3324
asS'ori'
p6
S'This house would fund education using a voucher scheme'
p7
ssS'output'
p8
(dp9
g4
(lp10
I233
aI45
aI3007
aI2319
aI60
aI2464
aI1560
aI2444
aI24
aI2579
aI5
aI2969
aI45
aI3
aI2653
aI64
aI4874
aI55
aI2843
aI89
aI6197
aI5085
aI34
aI3
aI2223
aI24
aI2669
aI5
aI2436
aI5317
aI60
aI2046
aI63765
asg6
S'According to Paul  along with vested American interests in oil and plans to "remake the Middle East"  this scenario has proven a contributing factor for the war in Iraq and diplomatic tensions with Iran  .'
p11
ss.