(dp1
S'input'
p2
(dp3
S'encoded'
p4
(lp5
I64
aI2179
aI394
aI190
aI3
aI21
aI45
aI3895
aI834
asS'ori'
p6
S'This house would limit the right to bear arms'
p7
ssS'output'
p8
(dp9
g4
(lp10
I9983
aI11588
aI342
aI4894
aI16156
aI22858
aI16707
aI5
aI3447
aI26
aI14291
aI495
aI22847
aI3172
aI63
aI3
aI3851
aI804
aI2836
aI45
aI16001
aI60
aI3
aI2444
aI7
aI3
aI2548
aI63765
asg6
S"Frequent talk show guest  Examiner .com GunRights columnist and liberty book publisher John Longenecker argues that the nation's founders' Original Intent continues to align with the interests of the nation  ."
p11
ss.