(dp1
S'input'
p2
(dp3
S'encoded'
p4
(lp5
I64
aI2179
aI43
aI3
aI626
aI187
aI116
aI1989
aI34
aI3102
aI2223
asS'ori'
p6
S"This house believes the United States is responsible for Mexico's drugs war"
p7
ssS'output'
p8
(dp9
g4
(lp10
I100
aI8778
aI7
aI3
aI2503
aI8745
aI2904
aI182
aI5810
aI45
aI79
aI41
aI47836
aI34
aI380
aI8679
aI5
aI3
aI3343
aI448
aI5047
aI24
aI2394
aI63
aI4374
aI7
aI8778
aI382
aI459
aI9359
aI34
aI11267
aI3135
aI364
aI5
aI382
aI1563
aI4694
aI63765
asg6
S"Some agents of the Federal Investigations Agency (AFI) are believed to work as enforcers for various cartels  and the Attorney General (PGR) reported in December 2005 that nearly 1 500 of AFI's 7 000 agents were under investigation for suspected criminal activity and 457 were facing charges  ."
p11
ss.