(dp1
S'input'
p2
(dp3
S'encoded'
p4
(lp5
I64
aI2179
aI394
aI2017
aI223
aI9058
aI23653
asS'ori'
p6
S'This house would ban all unsustainable logging'
p7
ssS'output'
p8
(dp9
g4
(lp10
I3
aI2096
aI694
aI24
aI193
aI2351
aI36825
aI34
aI3
aI1811
aI7
aI17153
aI2880
aI6694
aI19
aI7809
aI5
aI8254
aI63765
asg6
S'The idea consists in providing financial compensations for the reduction of greenhouse gas (GHG) emissions from deforestation and forest degradation"  .'
p11
ss.