(dp1
S'input'
p2
(dp3
S'encoded'
p4
(lp5
I64
aI2179
aI43
aI223
aI2138
aI11
aI89
aI21
aI45
aI2185
aI372
asS'ori'
p6
S'This house believes all nations have a right to nuclear weapons'
p7
ssS'output'
p8
(dp9
g4
(lp10
I1696
aI60
aI3863
aI11684
aI7
aI3
aI221
aI75
aI3
aI626
aI187
aI2547
aI5
aI3
aI626
aI2549
aI397
aI285
aI2223
aI2236
aI24
aI61
aI122
aI263
aI3
aI11685
aI2762
aI45
aI1180
aI3
aI4617
aI5834
aI2330
aI2417
aI2418
aI2762
aI63765
asg6
S'Starting with scientific breakthroughs of the 1930s made by the United States  Canada and the United Kingdom during World War II in what was called the Manhattan Project to counter the assumed Nazi German atomic bomb project .'
p11
ss.