(dp1
S'input'
p2
(dp3
S'encoded'
p4
(lp5
I64
aI2179
aI43
aI63
aI2659
aI417
aI1690
aI3
aI12048
aI7
aI19084
asS'ori'
p6
S'This house believes that Israel should lift the blockade of Gaza'
p7
ssS'output'
p8
(dp9
g4
(lp10
I3
aI1727
aI3083
aI63
aI45
aI10
aI1972
aI63
aI3
aI6056
aI1274
aI122
aI4966
aI5
aI611
aI51
aI18954
aI282
aI9359
aI63765
asg6
S'The Times concludes that "needs to state clearly that the Israeli attack was unacceptable and back an impartial international investigation .'
p11
ss.