(dp1
S'input'
p2
(dp3
S'encoded'
p4
(lp5
I64
aI2179
aI394
aI5370
aI223
aI4013
aI10440
aI2446
aI4881
aI75
aI14482
aI11004
asS'ori'
p6
S'This house would abolish all collective bargaining rights claimed by trades unions'
p7
ssS'output'
p8
(dp9
g4
(lp10
I223
aI2361
aI3584
aI89
aI3213
aI45
aI5873
aI89
aI2131
aI182
aI2056
aI1968
aI63765
asg6
S'All agreements requiring a worker to join a union are now illegal .'
p11
ss.