(dp1
S'input'
p2
(dp3
S'encoded'
p4
(lp5
I64
aI2179
aI394
aI2741
aI3
aI1560
aI6025
aI2784
asS'ori'
p6
S'This house would pass the American Jobs Act'
p7
ssS'output'
p8
(dp9
g4
(lp10
I34
aI1343
aI151
aI152
aI2511
aI5918
aI3
aI5084
aI7
aI5787
aI60
aI1896
aI950
aI45
aI2510
aI3
aI192
aI8975
aI204
aI24
aI78
aI81
aI4575
aI45
aI79
aI311
aI3
aI520
aI2994
aI131
aI1019
aI41
aI152
aI6075
aI116
aI595
aI138
aI271
aI2755
aI41
aI6941
aI1604
aI178
aI63765
asg6
S'For example  minimum wage laws raise the cost of laborers with few skills to above the market equilibrium  resulting in people who wish to work at the going rate but cannot as wage enforced is greater than their value as workers becoming unemployed  .'
p11
ss.