(dp1
S'input'
p2
(dp3
S'encoded'
p4
(lp5
I64
aI2179
aI43
aI223
aI2138
aI11
aI89
aI21
aI45
aI2185
aI372
asS'ori'
p6
S'This house believes all nations have a right to nuclear weapons'
p7
ssS'output'
p8
(dp9
g4
(lp10
I132
aI189
aI5
aI2167
aI382
aI12017
aI24
aI3
aI12018
aI12019
aI4035
aI2019
aI63765
aI12020
aI24
aI92
aI3
aI11847
aI121
aI45
aI1576
aI588
aI60
aI3
aI237
aI1767
aI5201
aI107
aI7074
aI34
aI12008
aI75
aI1444
aI89
aI12021
aI4448
aI5
aI508
aI366
aI89
aI12008
aI2206
aI448
aI987
aI89
aI2185
aI1274
aI14
aI3
aI5970
aI3
aI312
aI7
aI3
aI285
aI116
aI1607
aI1191
aI63765
asg6
S"These policies and strategies were satirized in the 1964 Stanley Kubrick film Dr . Strangelove  in which the Soviets  unable to keep up with the US's first strike capability  instead plan for MAD by building a Doomsday Machine  and thus  after a (literally) mad US General orders a nuclear attack on the USSR  the end of the world is brought about ."
p11
ss.