(dp1
S'input'
p2
(dp3
S'encoded'
p4
(lp5
I64
aI2179
aI43
aI63
aI17574
aI417
aI316
aI3481
aI34
aI271
aI79
asS'ori'
p6
S'This house believes that housewives should be paid for their work'
p7
ssS'output'
p8
(dp9
g4
(lp10
I34
aI1343
aI2203
aI159
aI41
aI10348
aI1980
aI246
aI706
aI3
aI14492
aI19
aI3252
aI7311
aI226
aI3495
aI382
aI637
aI4666
aI45
aI124
aI3964
aI5
aI11436
aI34
aI3
aI4450
aI271
aI3492
aI2210
aI24
aI3
aI5025
aI3874
aI2319
aI60
aI203
aI45
aI3051
aI3252
aI7311
aI63765
asg6
S'For example  "in countries such as Kenya  men generally controlled the earnings from cash crops while women were still expected to provide food and clothing for the household  their traditional role in the African family  along with labor to produce cash crops .'
p11
ss.