(dp1
S'input'
p2
(dp3
S'encoded'
p4
(lp5
I64
aI2179
aI394
aI5370
aI7146
aI4585
aI2446
asS'ori'
p6
S'This house would abolish intellectual property rights'
p7
ssS'output'
p8
(dp9
g4
(lp10
I3
aI2068
aI1350
aI7
aI1260
aI8732
aI4949
aI159
aI41
aI14272
aI14273
aI5
aI3
aI14261
aI7150
aI14263
aI55
aI928
aI63
aI5229
aI95
aI139
aI316
aI123
aI113
aI24
aI3
aI3579
aI7
aI89
aI11844
aI12489
aI63765
asg6
S'The recent success of free software projects such as GNU/Linux  Mozilla Firefox  and the Apache web server has demonstrated that quality works can be created even in the absence of a copyright-enforced monopoly rent  .'
p11
ss.