(dp1
S'input'
p2
(dp3
S'encoded'
p4
(lp5
I64
aI2179
aI394
aI2017
aI262
asS'ori'
p6
S'This house would ban boxing'
p7
ssS'output'
p8
(dp9
g4
(lp10
I3217
aI85
aI4748
aI8958
aI63
aI120
aI4871
aI19
aI2008
aI738
aI34
aI1706
aI2015
aI85
aI5
aI9404
aI45
aI366
aI3
aI41241
aI2117
aI257
aI3
aI6033
aI37019
aI63765
asg6
S'Health care providers recommend that those suffering from concussion return for further medical care and evaluation 24 to 72&nbsp;hours after the concussive event if the symptoms worsen .'
p11
ss.