(dp1
S'input'
p2
(dp3
S'encoded'
p4
(lp5
I64
aI2179
aI394
aI3830
aI3
aI475
aI7
aI9441
aI13132
aI3102
aI24
aI276
aI381
asS'ori'
p6
S'This house would permit the use of performance enhancing drugs in professional sports'
p7
ssS'output'
p8
(dp9
g4
(lp10
I3
aI475
aI7
aI13922
aI12269
aI116
aI577
aI75
aI223
aI281
aI4418
aI956
aI158
aI3
aI282
aI277
aI2180
aI281
aI2344
aI12246
aI3
aI150
aI10723
aI2344
aI3
aI150
aI21398
aI2016
aI3
aI150
aI5413
aI2344
aI31985
aI25121
aI50209
aI16751
aI50681
aI16752
aI3
aI1565
aI665
aI2016
aI5
aI3
aI10247
aI10723
aI6127
aI63765
asg6
S'The use of anabolic steroids is banned by all major sporting associations  including the International Olympic Committee  Major League Baseball  the National Football League  the National Basketball Association  the National Hockey League  WWE  ICC  ITF  FIFA  FINA  UEFA  the European Athletic Association  and the Brazilian Football Confederation .'
p11
ss.