(dp1
S'input'
p2
(dp3
S'encoded'
p4
(lp5
I64
aI2179
aI394
aI4325
aI2042
aI270
aI89
aI11605
aI3324
asS'ori'
p6
S'This house would fund education using a voucher scheme'
p7
ssS'output'
p8
(dp9
g4
(lp10
I41
aI89
aI296
aI3
aI2145
aI63765
aI5207
aI145
aI994
aI7444
aI24
aI9021
aI3
aI1387
aI291
aI3
aI7412
aI5
aI3
aI1376
aI63765
asg6
S'As a result  the U .S . educational system significantly aids in widening the gap between the rich and the poor .'
p11
ss.