(dp1
S'input'
p2
(dp3
S'encoded'
p4
(lp5
I64
aI2179
aI43
aI63
aI1036
aI4828
aI33250
aI116
aI25073
aI45
aI3315
aI4562
asS'ori'
p6
S'This house believes that male infant circumcision is tantamount to child abuse'
p7
ssS'output'
p8
(dp9
g4
(lp10
I5047
aI14
aI89
aI4587
aI2035
aI7
aI4015
aI9247
aI7
aI1980
aI33242
aI41
aI759
aI7
aI89
aI36988
aI3516
aI63765
asg6
S'reported on a prospective study of 455 female partners of men circumcised as part of a randomised trial .'
p11
ss.