(dp1
S'input'
p2
(dp3
S'encoded'
p4
(lp5
I64
aI2179
aI394
aI15841
aI2736
asS'ori'
p6
S'This house would disband ASEAN'
p7
ssS'output'
p8
(dp9
g4
(lp10
I3
aI2550
aI1680
aI2736
aI736
aI89
aI976
aI4661
aI5
aI11648
aI45
aI836
aI89
aI1107
aI803
aI34
aI3
aI2654
aI8066
aI2639
aI78
aI63765
asg6
S'The charter turns ASEAN into a legal entity and aims to create a single free-trade area for the region encompassing 500 million people .'
p11
ss.