(dp1
S'input'
p2
(dp3
S'encoded'
p4
(lp5
I64
aI2179
aI43
aI223
aI2138
aI11
aI89
aI21
aI45
aI2185
aI372
asS'ori'
p6
S'This house believes all nations have a right to nuclear weapons'
p7
ssS'output'
p8
(dp9
g4
(lp10
I1928
aI2696
aI47
aI11
aI45
aI13126
aI5
aI475
aI3
aI7854
aI5254
aI34
aI211
aI1795
asg6
S'every country will have to devise and use the latest devices for its protection'
p11
ss.