(dp1
S'input'
p2
(dp3
S'encoded'
p4
(lp5
I64
aI2179
aI43
aI8629
aI116
aI3
aI117
aI998
asS'ori'
p6
S'This house believes atheism is the only way'
p7
ssS'output'
p8
(dp9
g4
(lp10
I3
aI54110
aI5133
aI8009
aI3
aI7857
aI13768
aI182
aI443
aI384
aI24
aI90
aI19
aI3
aI1405
aI24575
aI155
aI3418
aI9575
aI89
aI2710
aI7
aI4645
aI45
aI3
aI1405
aI24575
aI63765
asg6
S'The unmoved movers inspiring the planetary spheres are no different in kind from the prime mover  they merely suffer a dependency of relation to the prime mover .'
p11
ss.