(dp1
S'input'
p2
(dp3
S'encoded'
p4
(lp5
I64
aI2179
aI43
aI63
aI2659
aI417
aI1690
aI3
aI12048
aI7
aI19084
asS'ori'
p6
S'This house believes that Israel should lift the blockade of Gaza'
p7
ssS'output'
p8
(dp9
g4
(lp10
I2145
aI63765
aI2159
aI7
aI10
aI2171
aI2172
aI1825
aI5925
aI2617
aI2618
aI63
aI11
aI3
aI21
aI45
aI776
aI257
aI29697
aI45
aI11430
aI3364
aI75
aI3971
aI736
aI6056
aI63
aI116
aI3
aI2336
aI2743
aI7
aI19084
aI41
aI257
aI19084
aI17756
aI45
aI2659
aI63765
asg6
S"U .S . Secretary of State Hillary Clinton virtually authorized violence  stating that 'Israelis have the right to defend themselves' if flotillas 'try to provoke action by entering into Israeli waters'&nbsp; that is  the territorial waters of Gaza  as if Gaza belonged to Israel ."
p11
ss.