(dp1
S'input'
p2
(dp3
S'encoded'
p4
(lp5
I64
aI2179
aI43
aI63
aI3
aI21
aI45
aI12715
aI417
aI99
aI316
aI2897
asS'ori'
p6
S'This house believes that the right to asylum should not be absolute'
p7
ssS'output'
p8
(dp9
g4
(lp10
I248
aI4169
aI4037
aI63
aI4506
aI3
aI4740
aI7
aI4169
aI2610
aI946
aI1968
aI2610
aI182
aI12736
aI5
aI92
aI4506
aI2637
aI5
aI22
aI6398
aI1858
aI2610
aI24
aI12862
aI13005
aI5
aI3
aI2696
aI311
aI1445
aI63765
asg6
S'Other French films that address the topic of French immigration  especially illegal immigration  are "Entre les murs" and "La Haine"  which address cultural and political situations surrounding immigration in Parisian suburbs and the country at large  .'
p11
ss.