(dp1
S'input'
p2
(dp3
S'encoded'
p4
(lp5
I64
aI2179
aI394
aI2017
aI223
aI9058
aI23653
asS'ori'
p6
S'This house would ban all unsustainable logging'
p7
ssS'output'
p8
(dp9
g4
(lp10
I134
aI116
aI557
aI11308
aI3
aI626
aI2138
aI3278
aI2533
aI14
aI2456
aI1546
aI2333
aI7
aI4615
aI63765
asg6
S'It is held alongside the United Nations Framework Convention on Climate Change Conference of Parties (COP) .'
p11
ss.