(dp1
S'input'
p2
(dp3
S'encoded'
p4
(lp5
I64
aI2179
aI43
aI63
aI11083
aI10046
aI417
aI316
aI89
aI3135
aI4603
asS'ori'
p6
S'This house believes that Holocaust denial should be a criminal offence'
p7
ssS'output'
p8
(dp9
g4
(lp10
I565
aI55
aI691
aI12
aI8867
aI75
aI100
aI8
aI11083
aI42590
aI24
aI51
aI1222
aI45
aI17266
aI9068
aI45
aI271
aI521
aI217
aI1052
aI11736
aI47996
aI63765
asg6
S"Barnes' name has since been appropriated by some modern Holocaust deniers in an attempt to lend credibility to their cause  most notably Willis Carto ."
p11
ss.