(dp1
S'input'
p2
(dp3
S'encoded'
p4
(lp5
I64
aI2179
aI43
aI223
aI2138
aI11
aI89
aI21
aI45
aI2185
aI372
asS'ori'
p6
S'This house believes all nations have a right to nuclear weapons'
p7
ssS'output'
p8
(dp9
g4
(lp10
I136
aI16297
aI19
aI89
aI594
aI957
aI7
aI234
aI116
aI89
aI2185
aI1942
aI13254
aI7624
aI89
aI2950
aI92
aI139
aI475
aI89
aI2939
aI1929
aI45
aI1709
aI3
aI13253
aI289
aI3
aI22320
aI63765
asg6
S'More preferable from a strategic point of view is a nuclear weapon mounted onto a missile  which can use a ballistic trajectory to deliver the warhead over the horizon .'
p11
ss.