(dp1
S'input'
p2
(dp3
S'encoded'
p4
(lp5
I64
aI2179
aI394
aI1499
aI177
aI1819
aI34
aI160
asS'ori'
p6
S'This house would build high rises for housing'
p7
ssS'output'
p8
(dp9
g4
(lp10
I3
aI3168
aI2605
aI63
aI41
aI78
aI182
aI2367
aI618
aI1544
aI7744
aI271
aI3089
aI182
aI136
aI1856
aI45
aI17404
aI918
aI80
aI589
aI86
aI63765
asg6
S'The theory goes that as people are moved closer together geographically their actions are more likely to noticeably impact others around them .'
p11
ss.