(dp1
S'input'
p2
(dp3
S'encoded'
p4
(lp5
I64
aI2179
aI43
aI63
aI3357
aI5003
aI652
aI3
aI188
aI3262
asS'ori'
p6
S'This house believes that opinion polls harm the democratic process'
p7
ssS'output'
p8
(dp9
g4
(lp10
I3614
aI2096
aI7
aI26232
aI5
aI26233
aI2144
aI116
aI330
aI45
aI9900
aI60
aI3177
aI2992
aI3325
aI19166
aI1593
aI24
aI12423
aI159
aI41
aI26234
aI5
aI26221
aI63765
asg6
S"Noelle-Neumann's initial idea of cowering and muted citizens is difficult to reconcile with empirical studies documenting uninhibited discussion in computer-mediated contexts such as chatrooms and newsgroups  ."
p11
ss.