(dp1
S'input'
p2
(dp3
S'encoded'
p4
(lp5
I64
aI2179
aI394
aI2017
aI3807
aI314
aI3433
asS'ori'
p6
S'This house would ban partial birth abortions'
p7
ssS'output'
p8
(dp9
g4
(lp10
I3
aI3861
aI3862
aI382
aI136
aI1856
aI45
aI8123
aI588
aI24
aI7065
aI3020
aI159
aI41
aI206
aI17088
aI8532
aI73
aI773
aI800
aI24
aI2187
aI4492
aI5
aI382
aI136
aI1856
aI45
aI1199
aI17079
aI5
aI8790
aI24
aI3211
aI63765
asg6
S'The unwanted children were more likely to grow up in adverse conditions  such as having divorced parents or being raised in foster homes and were more likely to become delinquents and engaged in crime  .'
p11
ss.