(dp1
S'input'
p2
(dp3
S'encoded'
p4
(lp5
I64
aI2179
aI394
aI2017
aI262
asS'ori'
p6
S'This house would ban boxing'
p7
ssS'output'
p8
(dp9
g4
(lp10
I89
aI12154
aI787
aI116
aI89
aI787
aI53
aI3
aI468
aI31143
aI3
aI757
aI131
aI23733
aI1612
aI868
aI63
aI89
aI464
aI116
aI99
aI2951
aI63765
asg6
S'A flash knockdown is a knockdown where the fighter hits the canvas but recovers quickly enough that a count is not started  .'
p11
ss.