(dp1
S'input'
p2
(dp3
S'encoded'
p4
(lp5
I64
aI2179
aI43
aI63
aI3357
aI5003
aI652
aI3
aI188
aI3262
asS'ori'
p6
S'This house believes that opinion polls harm the democratic process'
p7
ssS'output'
p8
(dp9
g4
(lp10
I3170
aI5
aI26210
aI2463
aI572
aI8387
aI60
aI3724
aI45
aI1518
aI7817
aI271
aI25793
aI8170
aI5
aI838
aI3348
aI1191
aI159
aI214
aI63765
asg6
S'Spencer and Croucher suggest long  in-depth interviews with respondents to fully understand their personalities  motives and full opinions about such issues .'
p11
ss.