(dp1
S'input'
p2
(dp3
S'encoded'
p4
(lp5
I64
aI2179
aI394
aI2017
aI223
aI9058
aI23653
asS'ori'
p6
S'This house would ban all unsustainable logging'
p7
ssS'output'
p8
(dp9
g4
(lp10
I47006
aI182
aI1047
aI41
aI261
aI47007
aI46919
aI4156
aI12214
aI23638
aI29007
aI24
aI281
aI8101
aI159
aI41
aI19539
aI5
aI13471
aI63765
asg6
S'Ultisols are known as well weathered  acidic red clay soils  deficient in major nutrients such as calcium and potassium .'
p11
ss.