(dp1
S'input'
p2
(dp3
S'encoded'
p4
(lp5
I64
aI2179
aI43
aI63
aI6670
aI546
aI417
aI316
aI89
aI1334
aI3108
aI7
aI4849
aI1886
aI2855
asS'ori'
p6
S'This house believes that wind power should be a primary focus of future energy supply'
p7
ssS'output'
p8
(dp9
g4
(lp10
I3
aI2145
aI63765
aI7373
aI546
aI5938
aI2056
aI12615
aI14
aI1445
aI2609
aI546
aI6745
aI158
aI5091
aI35
aI2880
aI2185
aI5
aI17155
aI4975
aI63
aI1544
aI1304
aI136
aI138
aI7
aI3
aI2138
aI2881
aI63765
asg6
S'The U .S . electric power industry now relies on large  central power stations  including coal  natural gas  nuclear  and hydropower plants that together generate more than 95% of the nations electricity .'
p11
ss.