(dp1
S'input'
p2
(dp3
S'encoded'
p4
(lp5
I64
aI2179
aI394
aI5370
aI3
aI5286
asS'ori'
p6
S'This house would abolish the monarchy'
p7
ssS'output'
p8
(dp9
g4
(lp10
I5812
aI12955
aI6459
aI3056
aI116
aI45
aI265
aI8287
aI5
aI45
aI43551
aI10579
aI17711
aI4588
aI5
aI45
aI163
aI78
aI41
aI5587
aI41
aI134
aI9511
aI2445
aI580
aI5
aI41
aI3
aI258
aI311
aI3741
aI16868
aI3830
aI63765
asg6
S'Frederick explained  "My principal occupation is to combat ignorance and prejudice. to enlighten minds  cultivate morality  and to make people as happy as it suits human nature  and as the means at my disposal permit .'
p11
ss.