(dp1
S'input'
p2
(dp3
S'encoded'
p4
(lp5
I64
aI2179
aI43
aI17
aI4941
aI857
aI3211
asS'ori'
p6
S'This house believes social deprivation causes crime'
p7
ssS'output'
p8
(dp9
g4
(lp10
I653
aI179
aI64
aI296
aI59017
aI122
aI7212
aI19
aI13763
aI2554
aI311
aI4248
aI63765
asg6
S'Despite finding this result  Cavan was excluded from faculty status at Chicago .'
p11
ss.