(dp1
S'input'
p2
(dp3
S'encoded'
p4
(lp5
I64
aI2179
aI394
aI5370
aI7146
aI4585
aI2446
asS'ori'
p6
S'This house would abolish intellectual property rights'
p7
ssS'output'
p8
(dp9
g4
(lp10
I976
aI2478
aI153
aI1039
aI12717
aI24
aI6898
aI7
aI89
aI14571
aI4707
aI3566
aI34
aI211
aI3524
aI5
aI5345
aI63765
asg6
S'Legal scholars often approach copyright in search of a coherent ethical justification for its existence and character .'
p11
ss.