(dp1
S'input'
p2
(dp3
S'encoded'
p4
(lp5
I64
aI2179
aI43
aI63
aI3
aI4990
aI4991
aI116
aI4850
aI24
aI12166
aI3
aI475
aI7
aI3532
aI3290
aI7
aI4714
asS'ori'
p6
S'This house believes that the Catholic Church is justified in forbidding the use of barrier methods of contraception'
p7
ssS'output'
p8
(dp9
g4
(lp10
I934
aI249
aI182
aI534
aI174
aI298
aI31613
aI11389
aI985
aI291
aI17566
aI9247
aI63765
asg6
S'Safety measures are required also when anal sex occurs between heterosexual partners .'
p11
ss.