(dp1
S'input'
p2
(dp3
S'encoded'
p4
(lp5
I64
aI2179
aI43
aI63
aI7382
aI116
aI400
aI4713
asS'ori'
p6
S'This house believes that bribery is sometimes acceptable'
p7
ssS'output'
p8
(dp9
g4
(lp10
I24
aI3
aI43639
aI3540
aI2050
aI3645
aI14
aI5726
aI3922
aI6760
aI24
aI2190
aI5
aI6225
aI63765
asg6
S'In 2004  the CCP devised strict regulations on officials assuming posts in business and enterprise .'
p11
ss.