(dp1
S'input'
p2
(dp3
S'encoded'
p4
(lp5
I64
aI2179
aI394
aI4325
aI2042
aI270
aI89
aI11605
aI3324
asS'ori'
p6
S'This house would fund education using a voucher scheme'
p7
ssS'output'
p8
(dp9
g4
(lp10
I51292
aI451
aI89
aI2029
aI45
aI4261
aI2240
aI11617
aI19
aI3858
aI3249
aI137
aI45
aI1233
aI7464
aI4364
aI4290
aI11744
aI51293
aI451
aI89
aI2029
aI45
aI501
aI6049
aI45
aI2490
aI14
aI755
aI7464
aI4364
aI417
aI316
aI816
aI5
aI755
aI816
aI4364
aI417
aI316
aI19086
aI41
aI8486
aI5
aI27786
aI10198
aI51294
aI451
aI89
aI2029
aI45
aI1619
aI89
aI5040
aI5325
aI24
aI1906
aI14
aI755
aI2240
aI12537
aI417
aI316
aI10
aI2136
aI63765
asg6
S'Cleaton introduced a bill to prohibit school districts from raising private money to operate integrated schools  Senator Eugene Snydor introduced a bill to allow residents to vote on whether integrated schools should be closed and whether closed schools should be reopened as segregated  and Delegate Griffith Purcell introduced a bill to require a statewide referendum in November 1956 on whether school segregation should be state policy  .'
p11
ss.