(dp1
S'input'
p2
(dp3
S'encoded'
p4
(lp5
I64
aI2179
aI43
aI63
aI6670
aI546
aI417
aI316
aI89
aI1334
aI3108
aI7
aI4849
aI1886
aI2855
asS'ori'
p6
S'This house believes that wind power should be a primary focus of future energy supply'
p7
ssS'output'
p8
(dp9
g4
(lp10
I475
aI17482
aI5
aI1886
aI2879
aI41
aI5094
aI45
aI5751
aI1788
aI6815
aI291
aI3497
aI5
aI6670
aI73
aI16423
aI105
aI63765
asg6
S'(B) use complementary and non-variable energy sources (such as hydroelectric power) to fill temporary gaps between demand and wind or solar generation .'
p11
ss.