(dp1
S'input'
p2
(dp3
S'encoded'
p4
(lp5
I64
aI2179
aI43
aI63
aI3376
aI4938
aI417
aI316
aI3537
asS'ori'
p6
S'This house believes that endangered species should be protected'
p7
ssS'output'
p8
(dp9
g4
(lp10
I89
aI8067
aI7463
aI1039
aI394
aI99
aI8052
aI87
aI4258
aI24
aI1197
aI159
aI41
aI8074
aI3
aI8075
aI3
aI8076
aI73
aI8077
aI63765
asg6
S'A hotspot priority approach would not invest so heavily in places such as steppes  the Serengeti  the Arctic  or taiga .'
p11
ss.