(dp1
S'input'
p2
(dp3
S'encoded'
p4
(lp5
I64
aI2179
aI43
aI63
aI1036
aI4828
aI33250
aI116
aI25073
aI45
aI3315
aI4562
asS'ori'
p6
S'This house believes that male infant circumcision is tantamount to child abuse'
p7
ssS'output'
p8
(dp9
g4
(lp10
I89
aI34886
aI44637
aI116
aI89
aI34
aI3
aI3014
aI7
aI63765
asg6
S'A Milah L\'shem giur is a "Circumcision for the purpose of conversion" .'
p11
ss.