(dp1
S'input'
p2
(dp3
S'encoded'
p4
(lp5
I64
aI2179
aI394
aI60
aI23587
asS'ori'
p6
S'This house would re-engage with Myanmar'
p7
ssS'output'
p8
(dp9
g4
(lp10
I23587
aI2377
aI2098
aI4477
aI14
aI16983
aI5
aI3180
aI1708
aI759
aI24
aI2468
aI13539
aI63765
asg6
S'"In Myanmar  soldiers opened fire on monks and civilians taking part in peaceful demonstrations .'
p11
ss.