(dp1
S'input'
p2
(dp3
S'encoded'
p4
(lp5
I64
aI2179
aI394
aI190
aI3
aI21
aI45
aI3895
aI834
asS'ori'
p6
S'This house would limit the right to bear arms'
p7
ssS'output'
p8
(dp9
g4
(lp10
I2164
aI411
aI89
aI63765
aI20579
aI122
aI3178
aI75
aI1082
aI8844
aI63765
aI60441
aI270
aI89
aI4311
aI63765
asg6
S'President James A . Garfield was killed by Charles J . Guiteau using a  .44-caliber handgun .'
p11
ss.