(dp1
S'input'
p2
(dp3
S'encoded'
p4
(lp5
I64
aI2179
aI43
aI63
aI820
aI12564
aI182
aI3
aI217
aI1112
aI1869
aI7
aI10656
aI4672
aI34
aI5276
asS'ori'
p6
S'This house believes that open primaries are the most effective method of selecting candidates for elections'
p7
ssS'output'
p8
(dp9
g4
(lp10
I233
aI45
aI2759
aI12593
aI658
aI3357
aI4741
aI159
aI11432
aI7
aI5814
aI5334
aI382
aI99
aI426
aI5155
aI866
aI751
aI63765
asg6
S'According to prominent Slovenian public opinion researchers  such proportions of tactical voting were not recorded anywhere else before  .'
p11
ss.