(dp1
S'input'
p2
(dp3
S'encoded'
p4
(lp5
I64
aI2179
aI394
aI163
aI959
aI2042
aI3557
asS'ori'
p6
S'This house would make physical education compulsory'
p7
ssS'output'
p8
(dp9
g4
(lp10
I41
aI165
aI41
aI7
aI3
aI626
aI187
aI3822
aI2598
aI116
aI513
aI843
aI25313
aI73
aI35984
asg6
S'As much as 64% of the United States adult population is considered either overweight or obese'
p11
ss.