(dp1
S'input'
p2
(dp3
S'encoded'
p4
(lp5
I64
aI2179
aI43
aI24
aI3
aI475
aI7
aI12436
aI3364
asS'ori'
p6
S'This house believes in the use of affirmative action'
p7
ssS'output'
p8
(dp9
g4
(lp10
I3
aI2475
aI7
aI2450
aI187
aI24
aI3500
aI2144
aI4197
aI11
aI5125
aI7631
aI7
aI701
aI2042
aI63765
asg6
S'The Constitution of India states in article 15(4): "All citizens shall have equal opportunities of receiving education .'
p11
ss.