(dp1
S'input'
p2
(dp3
S'encoded'
p4
(lp5
I64
aI2179
aI43
aI63
aI6670
aI546
aI417
aI316
aI89
aI1334
aI3108
aI7
aI4849
aI1886
aI2855
asS'ori'
p6
S'This house believes that wind power should be a primary focus of future energy supply'
p7
ssS'output'
p8
(dp9
g4
(lp10
I2934
aI6635
aI12215
aI5157
aI2934
aI6635
aI7373
aI6908
aI63765
asg6
S'|- Fox Islands 4 .5 3 Knox Operating Fox Islands Electric Cooperative 2009  .'
p11
ss.