(dp1
S'input'
p2
(dp3
S'encoded'
p4
(lp5
I64
aI2179
aI43
aI17
aI4941
aI857
aI3211
asS'ori'
p6
S'This house believes social deprivation causes crime'
p7
ssS'output'
p8
(dp9
g4
(lp10
I223
aI8175
aI163
aI475
aI7
aI26241
aI4279
aI131
aI211
aI1999
aI4580
aI967
aI8175
aI63765
asg6
S'All cultures make use of nonverbal communication but its meaning varies across cultures .'
p11
ss.