(dp1
S'input'
p2
(dp3
S'encoded'
p4
(lp5
I64
aI2179
aI43
aI63
aI3
aI21
aI45
aI12715
aI417
aI99
aI316
aI2897
asS'ori'
p6
S'This house believes that the right to asylum should not be absolute'
p7
ssS'output'
p8
(dp9
g4
(lp10
I136
aI138
aI93
aI2639
aI35687
aI382
aI7479
aI397
aI3
aI35688
aI3202
aI2223
aI19
aI45
aI63765
asg6
S'More than one million Salvadorans were displaced during the Salvadoran Civil War from 1975 to 1982 .'
p11
ss.