(dp1
S'input'
p2
(dp3
S'encoded'
p4
(lp5
I64
aI2179
aI394
aI190
aI3
aI21
aI45
aI3895
aI834
asS'ori'
p6
S'This house would limit the right to bear arms'
p7
ssS'output'
p8
(dp9
g4
(lp10
I134
aI500
aI64
aI75
aI1609
aI134
aI246
aI4563
aI34
aI51
aI2218
aI4278
aI45
aI4564
aI14
aI351
aI658
aI4565
aI4566
aI73
aI4567
aI63
aI741
aI545
aI761
aI7
aI3
aI7
aI351
aI2240
aI24
aI3
aI2548
aI63765
asg6
S'It did this by making it generally unlawful for an armed citizen to travel on any public sidewalk  road  or highway  that passes within one-thousand (1000) feet of the property-line of any K-12 school in the nation .'
p11
ss.