(dp1
S'input'
p2
(dp3
S'encoded'
p4
(lp5
I64
aI2179
aI43
aI63
aI3
aI4990
aI4991
aI116
aI4850
aI24
aI12166
aI3
aI475
aI7
aI3532
aI3290
aI7
aI4714
asS'ori'
p6
S'This house believes that the Catholic Church is justified in forbidding the use of barrier methods of contraception'
p7
ssS'output'
p8
(dp9
g4
(lp10
I39753
aI2162
aI34
aI25
aI39754
aI145
aI41
aI165
aI41
aI2639
aI24
aI2666
aI63765
asg6
S"Killian charged $20 000 for his conveyor system - as much as $2 million in today's dollars ."
p11
ss.