(dp1
S'input'
p2
(dp3
S'encoded'
p4
(lp5
I64
aI2179
aI43
aI63
aI3
aI4990
aI4991
aI116
aI4850
aI24
aI12166
aI3
aI475
aI7
aI3532
aI3290
aI7
aI4714
asS'ori'
p6
S'This house believes that the Catholic Church is justified in forbidding the use of barrier methods of contraception'
p7
ssS'output'
p8
(dp9
g4
(lp10
I3
aI285
aI2895
aI3435
aI89
aI905
aI13489
aI63
aI291
aI5
aI3
aI3162
aI7
aI2980
aI5
aI10614
aI47
aI8953
aI75
aI5
aI3839
aI63765
asg6
S'The World Bank issued a report predicting that between 2007 and 2027 the populations of Georgia and Ukraine will decrease by 17% and 24% respectively  .'
p11
ss.