(dp1
S'input'
p2
(dp3
S'encoded'
p4
(lp5
I64
aI2179
aI394
aI16756
aI20435
asS'ori'
p6
S'This house would criminalize blasphemy'
p7
ssS'output'
p8
(dp9
g4
(lp10
I7
aI12378
aI8344
aI7102
aI63765
aI24
aI3236
aI7
aI3
aI5781
aI9735
aI63765
asg6
S'295-C .Use of derogatory remarks  etc .  in respect of the Holy Prophet  .'
p11
ss.