(dp1
S'input'
p2
(dp3
S'encoded'
p4
(lp5
I64
aI2179
aI13605
aI2258
aI45
aI2194
asS'ori'
p6
S'This house prefers trade to aid'
p7
ssS'output'
p8
(dp9
g4
(lp10
I159
aI5118
aI12905
aI1561
aI5240
aI4388
aI311
aI3
aI7383
aI7
aI1488
aI7762
aI53
aI217
aI6025
aI182
aI123
aI63765
asg6
S'Such costly barriers favor big firms at the expense of small enterprises where most jobs are created  .'
p11
ss.