(dp1
S'input'
p2
(dp3
S'encoded'
p4
(lp5
I64
aI2179
aI43
aI17
aI4941
aI857
aI3211
asS'ori'
p6
S'This house believes social deprivation causes crime'
p7
ssS'output'
p8
(dp9
g4
(lp10
I32742
aI1353
aI4941
aI139
aI316
aI344
aI24
aI3
aI1343
aI7
aI89
aI3213
aI81
aI43
aI42
aI417
aI11
aI12
aI6347
aI1050
aI5
aI88
aI48
aI45
aI63
aI2007
aI1708
aI3089
aI3075
aI45
aI3204
aI25
aI1597
aI545
aI3
aI120
aI3089
aI182
aI378
aI1722
aI45
aI1466
aI725
aI78
aI63765
asg6
S'Egoistic relative deprivation can be seen in the example of a worker who believes he should have been promoted faster and may lead to that person taking actions designed to improve his position within the group; those actions are however unlikely to affect many people .'
p11
ss.