(dp1
S'input'
p2
(dp3
S'encoded'
p4
(lp5
I64
aI2179
aI43
aI63
aI187
aI417
aI99
aI16642
aI3
aI6449
aI7
aI3935
asS'ori'
p6
S'This house believes that states should not subsidize the growing of tobacco'
p7
ssS'output'
p8
(dp9
g4
(lp10
I3
aI2533
aI116
aI3075
aI45
aI1579
aI34
aI1112
aI2474
aI5
aI211
aI3353
aI24
aI223
aI2203
aI45
aI1476
aI3
aI11968
aI4658
aI7
aI3935
aI63765
asg6
S'The Convention is designed to push for effective legislation and its enforcement in all countries to reduce the harmful effects of tobacco .'
p11
ss.