(dp1
S'input'
p2
(dp3
S'encoded'
p4
(lp5
I64
aI2179
aI394
aI2017
aI262
asS'ori'
p6
S'This house would ban boxing'
p7
ssS'output'
p8
(dp9
g4
(lp10
I1749
aI5
aI1750
aI601
aI1586
aI3
aI536
aI1751
aI5
aI1752
aI51
aI1250
aI762
aI63765
asg6
S'Bob and weave  Bobbing moves the head laterally and beneath an incoming punch .'
p11
ss.