(dp1
S'input'
p2
(dp3
S'encoded'
p4
(lp5
I64
aI2179
aI235
aI3858
aI3
aI2240
aI4527
aI3485
aI45
asS'ori'
p6
S'This house supports raising the school leaving age to 18'
p7
ssS'output'
p8
(dp9
g4
(lp10
I24
aI3
aI1950
aI33
aI134
aI258
aI5058
aI73
aI1629
aI7
aI14578
aI63
aI11
aI12
aI17233
aI75
aI6999
aI5
aI2312
aI63765
asg6
S'" In the second case  it means "an hypothesis or set of hypotheses that have been verified by observation and experiment .'
p11
ss.