(dp1
S'input'
p2
(dp3
S'encoded'
p4
(lp5
I64
aI2179
aI394
aI5370
aI223
aI4013
aI10440
aI2446
aI4881
aI75
aI14482
aI11004
asS'ori'
p6
S'This house would abolish all collective bargaining rights claimed by trades unions'
p7
ssS'output'
p8
(dp9
g4
(lp10
I12892
aI13845
aI3232
aI63
aI3
aI217
aI1112
aI2131
aI633
aI182
aI843
aI3374
aI73
aI7479
aI75
aI10
aI2136
aI24
aI217
aI2203
aI63765
asg6
S'Kevin Carson maintains that the most effective union tactics are either criminalized or displaced by state policy in most countries .'
p11
ss.