(dp1
S'input'
p2
(dp3
S'encoded'
p4
(lp5
I64
aI2179
aI394
aI475
aI2135
aI2194
aI6198
aI45
aI2041
aI5
aI13926
aI8732
aI63
aI1735
aI12708
aI5
aI5599
aI24
aI2203
aI45
aI1397
aI7149
aI5
aI12311
aI271
aI5119
aI4948
asS'ori'
p6
S'This house would use foreign aid funds to research and distribute software that allows bloggers and journalists in non-democratic countries to evade censorship and conceal their online activities'
p7
ssS'output'
p8
(dp9
g4
(lp10
I257
aI3
aI1409
aI7150
aI3328
aI116
aI7732
aI24
aI89
aI2622
aI7137
aI14263
aI223
aI12749
aI14
aI3
aI1643
aI14263
aI47
aI316
aI7372
aI63765
asg6
S'If the target Web site is hosted in a shared hosting server  all websites on the same server will be blocked .'
p11
ss.