(dp1
S'input'
p2
(dp3
S'encoded'
p4
(lp5
I64
aI2179
aI394
aI190
aI3
aI21
aI45
aI3895
aI834
asS'ori'
p6
S'This house would limit the right to bear arms'
p7
ssS'output'
p8
(dp9
g4
(lp10
I14
aI425
aI3
aI1950
aI3855
aI743
aI63
aI3
aI1950
aI3264
aI98
aI99
aI1416
aI45
aI10
aI5
aI2083
aI220
aI63765
asg6
S'2010) - On January 28  2009  the Second Circuit ruled that the Second Amendment does not apply to state and local governments .'
p11
ss.