(dp1
S'input'
p2
(dp3
S'encoded'
p4
(lp5
I64
aI2179
aI43
aI63
aI6670
aI546
aI417
aI316
aI89
aI1334
aI3108
aI7
aI4849
aI1886
aI2855
asS'ori'
p6
S'This house believes that wind power should be a primary focus of future energy supply'
p7
ssS'output'
p8
(dp9
g4
(lp10
I5094
aI4678
aI60
aI5173
aI4204
aI41
aI3
aI3492
aI7348
aI88
aI316
aI10256
aI41
aI1548
aI5078
aI73
aI5081
aI4975
aI63765
asg6
S'Hydroelectric facilities with storage capacity (such as the traditional dam configuration) may be operated as base load or peaking plants .'
p11
ss.