(dp1
S'input'
p2
(dp3
S'encoded'
p4
(lp5
I64
aI2179
aI394
aI1499
aI177
aI1819
aI34
aI160
asS'ori'
p6
S'This house would build high rises for housing'
p7
ssS'output'
p8
(dp9
g4
(lp10
I725
aI1561
aI3
aI2497
aI667
aI36008
aI92
aI20764
aI89
aI667
aI131
aI3492
aI998
aI7
aI7593
aI311
aI3926
aI2569
aI63765
asg6
S'Many favor the term New Urbanism  which invokes a new  but traditional way of looking at urban planning .'
p11
ss.