(dp1
S'input'
p2
(dp3
S'encoded'
p4
(lp5
I64
aI2179
aI394
aI2773
aI12505
asS'ori'
p6
S'This house would embrace multiculturalism'
p7
ssS'output'
p8
(dp9
g4
(lp10
I675
aI3409
aI12505
aI153
aI948
aI41
aI89
aI399
aI7
aI54
aI5
aI26073
aI63
aI6945
aI45
aI26074
aI26062
aI5
aI3
aI26075
aI9905
aI63765
asg6
S'Like liberal multiculturalism  often serves as a form of regulation and decontextualisation that fails to problematise whiteness and the Eurocentric norm .'
p11
ss.