(dp1
S'input'
p2
(dp3
S'encoded'
p4
(lp5
I64
aI2179
aI394
aI4325
aI2042
aI270
aI89
aI11605
aI3324
asS'ori'
p6
S'This house would fund education using a voucher scheme'
p7
ssS'output'
p8
(dp9
g4
(lp10
I14
aI2959
aI7715
aI871
aI89
aI5040
aI11605
aI2326
aI3
aI2546
aI24
aI3
aI2145
aI63765
asg6
S'On April 27  2011 Indiana passed a statewide voucher program  the largest in the U .S .'
p11
ss.