(dp1
S'input'
p2
(dp3
S'encoded'
p4
(lp5
I64
aI2179
aI394
aI163
aI959
aI2042
aI3557
asS'ori'
p6
S'This house would make physical education compulsory'
p7
ssS'output'
p8
(dp9
g4
(lp10
I24
aI68
aI42
aI2836
aI25
aI143
aI14
aI3
aI2210
aI7
aI1184
aI113
aI3
aI2231
aI7
aI46305
aI1184
aI75
aI10093
aI63
aI134
aI116
aI3
aI8942
aI7
aI8
aI2938
aI63765
asg6
S'In fact  he continues his argument on the role of punishment  even the history of corporeal punishment  by demonstrating that it is the product of modern mass-education systems .'
p11
ss.