(dp1
S'input'
p2
(dp3
S'encoded'
p4
(lp5
I64
aI2179
aI394
aI4325
aI2042
aI270
aI89
aI11605
aI3324
asS'ori'
p6
S'This house would fund education using a voucher scheme'
p7
ssS'output'
p8
(dp9
g4
(lp10
I24
aI248
aI187
aI3
aI8532
aI182
aI99
aI1260
aI45
aI7830
aI311
aI3900
aI1375
aI311
aI870
aI93
aI13513
aI116
aI89
aI4682
aI8428
aI5
aI3233
aI8252
aI2962
aI182
aI5591
aI75
aI3
aI10
aI63765
asg6
S'In other states the parents are not free to educate at home unless at least one parent is a certified teacher and yearly progress reports are reviewed by the state .'
p11
ss.