(dp1
S'input'
p2
(dp3
S'encoded'
p4
(lp5
I64
aI2179
aI43
aI24
aI3
aI475
aI7
aI12436
aI3364
asS'ori'
p6
S'This house believes in the use of affirmative action'
p7
ssS'output'
p8
(dp9
g4
(lp10
I397
aI3
aI320
aI2196
aI14
aI64
aI9596
aI5025
aI2138
aI2425
aI75
aI3
aI2609
aI5025
aI2306
aI25486
aI58839
aI6628
aI27369
aI5738
aI16962
aI25481
aI5
aI1740
aI53883
aI3432
aI34
aI136
aI6705
aI3364
aI14
aI3
aI845
aI24
aI3
aI399
aI7
aI51
aI282
aI2533
aI493
aI10250
aI4933
aI63765
asg6
S'During the early debate on this resolution  African nations led by the Central African Republic  Chad  Dahomey  Guinea  Ivory Coast  Mali  Mauritania  and Upper Volta pushed for more concrete action on the issue  in the form of an international convention against racial discrimination  .'
p11
ss.