(dp1
S'input'
p2
(dp3
S'encoded'
p4
(lp5
I64
aI2179
aI43
aI63
aI3
aI4538
aI7
aI4434
aI7793
aI283
aI45
aI3586
aI417
aI316
aI577
asS'ori'
p6
S'This house believes that the sale of violent video games to minors should be banned'
p7
ssS'output'
p8
(dp9
g4
(lp10
I5350
aI182
aI162
aI5660
aI41
aI14322
aI14507
aI81
aI7581
aI34
aI1036
aI9265
aI5
aI1068
aI45
aI316
aI3537
aI5072
aI1980
aI182
aI4082
aI60
aI136
aI546
aI63765
asg6
S'Females are usually constructed as visual objects who wait for male rescue and need to be protected  whereas men are portrayed with more power .'
p11
ss.