(dp1
S'input'
p2
(dp3
S'encoded'
p4
(lp5
I64
aI2179
aI43
aI63
aI2157
aI2565
aI493
aI19084
aI382
aI4850
asS'ori'
p6
S"This house believes that Israel's 2008-2009 military operations against Gaza were justified"
p7
ssS'output'
p8
(dp9
g4
(lp10
I3
aI6056
aI2157
aI3316
aI4477
aI5
aI7233
aI51
aI2674
aI1767
aI493
aI3
aI11995
aI19708
aI3328
aI24
aI4192
aI19084
aI63765
asg6
S'The Israeli military returned fire and launched an air strike against the rocket launching site in northern Gaza  .'
p11
ss.