(dp1
S'input'
p2
(dp3
S'encoded'
p4
(lp5
I64
aI2179
aI394
aI5284
aI150
aI3987
asS'ori'
p6
S'This house would reintroduce national service'
p7
ssS'output'
p8
(dp9
g4
(lp10
I51
aI2937
aI34
aI89
aI793
aI202
aI7
aI1980
aI2100
aI5610
aI131
aI134
aI1301
aI871
aI5
aI2157
aI3987
aI122
aI3164
aI751
aI63765
asg6
S'An 1840 proposal for a standing army of 200 000 men included conscription  but it never passed and military service was voluntary before 1862  .'
p11
ss.