(dp1
S'input'
p2
(dp3
S'encoded'
p4
(lp5
I64
aI2179
aI394
aI475
aI2135
aI2194
aI6198
aI45
aI2041
aI5
aI13926
aI8732
aI63
aI1735
aI12708
aI5
aI5599
aI24
aI2203
aI45
aI1397
aI7149
aI5
aI12311
aI271
aI5119
aI4948
asS'ori'
p6
S'This house would use foreign aid funds to research and distribute software that allows bloggers and journalists in non-democratic countries to evade censorship and conceal their online activities'
p7
ssS'output'
p8
(dp9
g4
(lp10
I3357
aI122
aI14595
aI746
aI291
aI7147
aI1517
aI81
aI3367
aI63
aI3
aI7147
aI116
aI89
aI3456
aI238
aI45
aI6564
aI3741
aI3348
aI5
aI120
aI81
aI3829
aI63765
asg6
S'Opinion was evenly split between Internet users who felt that the internet is a safe place to express my opinions (48%) and those who disagreed (49%) .'
p11
ss.