(dp1
S'input'
p2
(dp3
S'encoded'
p4
(lp5
I64
aI2179
aI394
aI15841
aI2736
asS'ori'
p6
S'This house would disband ASEAN'
p7
ssS'output'
p8
(dp9
g4
(lp10
I3
aI6903
aI63
aI1647
aI41
aI89
aI3795
aI34
aI3202
aI2022
aI24
aI2769
aI2770
aI116
aI263
aI6903
aI3501
aI63765
asg6
S'The track that acts as a forum for civil society in Southeast Asia is called Track III .'
p11
ss.