(dp1
S'input'
p2
(dp3
S'encoded'
p4
(lp5
I64
aI2179
aI43
aI63
aI3
aI28431
aI7
aI2157
aI4624
aI75
aI39939
aI27257
aI122
aI4850
asS'ori'
p6
S'This house believes that the leaking of military documents by Anat Kamm was justified'
p7
ssS'output'
p8
(dp9
g4
(lp10
I3695
aI20635
aI5424
aI122
aI51
aI5737
aI5
aI7865
aI2162
aI60
aI34
aI9792
aI2761
aI60
aI3
aI11847
aI63765
asg6
S'Edward Lee Howard was an ex-Peace Corps and ex-CIA agent charged with for allegedly dealing with the Soviets .'
p11
ss.