(dp1
S'input'
p2
(dp3
S'encoded'
p4
(lp5
I64
aI2179
aI43
aI63
aI3
aI4990
aI4991
aI116
aI4850
aI24
aI12166
aI3
aI475
aI7
aI3532
aI3290
aI7
aI4714
asS'ori'
p6
S'This house believes that the Catholic Church is justified in forbidding the use of barrier methods of contraception'
p7
ssS'output'
p8
(dp9
g4
(lp10
I46908
aI382
aI24
aI1170
aI7
aI3583
aI2598
aI2234
aI5
aI3082
aI6347
aI314
aI708
aI620
aI8281
aI159
aI41
aI3
aI46909
aI2344
aI226
aI3
aI2096
aI122
aI71
aI75
aI89
aI157
aI7
aI3136
aI34
aI384
aI3398
aI19
aI3
aI16727
aI45
aI3
aI685
aI4991
aI63765
asg6
S'Malthusians were in favour of limiting population growth and therefore promoted birth control through organisations such as the Malthusian League  while the idea was opposed by a variety of groups  for different reasons  from the socialists to the established church .'
p11
ss.