(dp1
S'input'
p2
(dp3
S'encoded'
p4
(lp5
I64
aI2179
aI43
aI223
aI2138
aI11
aI89
aI21
aI45
aI2185
aI372
asS'ori'
p6
S'This house believes all nations have a right to nuclear weapons'
p7
ssS'output'
p8
(dp9
g4
(lp10
I36681
aI2950
aI116
aI513
aI89
aI1413
aI9368
aI7
aI3
aI36680
aI63765
asg6
S'Shaurya Missile is considered a land version of the Sagarika .'
p11
ss.