(dp1
S'input'
p2
(dp3
S'encoded'
p4
(lp5
I64
aI2179
aI394
aI15841
aI2736
asS'ori'
p6
S'This house would disband ASEAN'
p7
ssS'output'
p8
(dp9
g4
(lp10
I3
aI2646
aI2891
aI2895
aI122
aI45
aI31456
aI3
aI8185
aI7
aI3
aI31735
aI24
aI2927
aI73
aI395
aI63765
asg6
S'The Asian Development Bank was to announce the details of the ACU in March 2006 or later  .'
p11
ss.