(dp1
S'input'
p2
(dp3
S'encoded'
p4
(lp5
I64
aI2179
aI394
aI10662
aI626
aI187
aI2157
aI2697
aI19
aI2371
asS'ori'
p6
S'This house would remove United States military bases from Japan'
p7
ssS'output'
p8
(dp9
g4
(lp10
I134
aI116
aI244
aI63
aI2371
aI47
aI19014
aI34
aI3
aI5102
aI7
aI64
aI2603
aI252
aI5084
aI45
aI3
aI626
aI187
aI5
aI163
aI6015
aI53
aI4620
aI45
aI3
aI3942
aI5
aI24263
aI55354
aI223
aI4678
aI5
aI2506
aI5
aI2446
aI7
aI998
aI158
aI4678
aI5
aI2506
aI2679
aI416
aI159
aI41
aI120
aI311
aI37526
aI5
aI8856
aI41
aI2396
aI24
aI3567
aI2236
aI5
aI3501
aI63765
asg6
S'It is agreed that Japan will furnish for the duration of this Agreement without cost to the United States and make compensation where appropriate to the owners and suppliers therof all facilities and areas and rights of way  including facilities and areas jointly used such as those at airfields and ports  as provided in Articles II and III  .'
p11
ss.