(dp1
S'input'
p2
(dp3
S'encoded'
p4
(lp5
I64
aI2179
aI394
aI5370
aI7146
aI4585
aI2446
asS'ori'
p6
S'This house would abolish intellectual property rights'
p7
ssS'output'
p8
(dp9
g4
(lp10
I11519
aI6255
aI100
aI7
aI271
aI1410
aI3384
aI41
aI16330
aI51
aI3284
aI21114
aI7
aI3
aI1107
aI1926
aI9536
aI8202
aI3
aI2210
aI7
aI3
aI7146
aI4683
aI5
aI7372
aI89
aI1666
aI45
aI64
aI4683
aI34
aI248
aI2144
aI2144
aI81
aI382
aI223
aI14
aI64
aI404
aI1718
aI12636
aI183
aI63765
asg6
S'Johns summarizes some of their main arguments as follows:[Patents] projected an artificial idol of the single inventor  radically denigrated the role of the intellectual commons  and blocked a path to this commons for other citizens  citizens who were all  on this account  potential inventors too .'
p11
ss.