(dp1
S'input'
p2
(dp3
S'encoded'
p4
(lp5
I64
aI2179
aI43
aI17
aI4941
aI857
aI3211
asS'ori'
p6
S'This house believes social deprivation causes crime'
p7
ssS'output'
p8
(dp9
g4
(lp10
I3
aI165
aI2597
aI6568
aI5136
aI7
aI2617
aI1021
aI45
aI6196
aI3223
aI5
aI6196
aI2573
aI24
aI2042
aI79
aI1544
aI45
aI1407
aI16
aI2891
aI3226
aI5051
aI4925
aI5
aI34315
aI2445
aI5
aI17
aI2352
aI63765
asg6
S'The much larger indirect costs of violence due to lost productivity and lost investment in education work together to slow economic development  increase socioeconomic inequality  and erode human and social capital .'
p11
ss.