(dp1
S'input'
p2
(dp3
S'encoded'
p4
(lp5
I64
aI2179
aI43
aI17
aI4941
aI857
aI3211
asS'ori'
p6
S'This house believes social deprivation causes crime'
p7
ssS'output'
p8
(dp9
g4
(lp10
I59092
aI73
aI6249
aI174
aI1047
aI41
aI32764
aI116
aI89
aI15495
aI3168
aI63
aI1197
aI605
aI14
aI17
aI2141
aI45
aI124
aI722
aI1999
aI24
aI2445
aI8935
aI3
aI17
aI3262
aI5
aI28381
aI63765
asg6
S'Interpretivism or Symbolic Interaction; also known as Interactionism  is a sociological theory that places emphasis on micro-scale social interaction to provide subjective meaning in human behavior  the social process and pragmatism  .'
p11
ss.