(dp1
S'input'
p2
(dp3
S'encoded'
p4
(lp5
I64
aI2179
aI43
aI63
aI3357
aI5003
aI652
aI3
aI188
aI3262
asS'ori'
p6
S'This house believes that opinion polls harm the democratic process'
p7
ssS'output'
p8
(dp9
g4
(lp10
I78
aI11
aI89
aI2384
aI7
aI773
aI2493
aI75
aI120
aI24
aI271
aI17
aI3216
aI92
aI116
aI263
aI7
aI11561
asg6
S'People have a fear of being rejected by those in their social environment  which is called "fear of isolation ."'
p11
ss.