(dp1
S'input'
p2
(dp3
S'encoded'
p4
(lp5
I64
aI2179
aI394
aI4261
aI8667
aI3
aI9361
aI5
aI17069
asS'ori'
p6
S'This house would prohibit burning the stars and stripes'
p7
ssS'output'
p8
(dp9
g4
(lp10
I2298
aI646
aI63765
aI1309
aI122
aI51
aI1185
aI752
aI75
aI3
aI2482
aI2483
aI7
aI3
aI626
aI187
aI63
aI42463
aI10163
aI14
aI43330
aI3
aI1560
aI5449
aI6075
aI24
aI7
aI3
aI187
aI63765
aI2248
aI3520
aI3483
aI3470
aI34
aI89
aI2471
aI24
aI795
aI63
aI3
aI3341
aI11320
aI20635
aI2784
aI7
aI5449
aI8667
aI122
aI3537
aI2381
aI459
aI3
aI237
aI3264
aI45
aI3
aI626
aI187
aI2475
asg6
S"Texas v . Johnson    was an important decision by the Supreme Court of the United States that invalidated prohibitions on desecrating the American flag enforced in 48 of the 50 states . Justice William Brennan wrote for a five-justice majority in holding that the defendant Gregory Lee Johnson's act of flag burning was protected speech under the First Amendment to the United States Constitution"
p11
ss.