(dp1
S'input'
p2
(dp3
S'encoded'
p4
(lp5
I64
aI2179
aI394
aI10662
aI626
aI187
aI2157
aI2697
aI19
aI2371
asS'ori'
p6
S'This house would remove United States military bases from Japan'
p7
ssS'output'
p8
(dp9
g4
(lp10
I100
aI26432
aI78
aI7304
aI45
aI10662
aI1560
aI2157
aI19
aI11542
aI63765
asg6
S'Some Okinawan people hoped to remove American military from Okinawa .'
p11
ss.