(dp1
S'input'
p2
(dp3
S'encoded'
p4
(lp5
I64
aI2179
aI43
aI63
aI2659
aI417
aI1690
aI3
aI12048
aI7
aI19084
asS'ori'
p6
S'This house believes that Israel should lift the blockade of Gaza'
p7
ssS'output'
p8
(dp9
g4
(lp10
I16631
aI282
aI263
aI14
aI2659
aI45
aI163
aI658
aI3
aI442
aI7
aI5586
aI416
aI75
aI3
aI19187
aI5
aI45
aI12011
aI51
aI14330
aI5
aI903
aI63765
asg6
S'Amnesty International called on Israel to make public the rules of engagement used by the commandos  and to launch an "immediate  credible and independent investigation"  .'
p11
ss.