(dp1
S'input'
p2
(dp3
S'encoded'
p4
(lp5
I64
aI2179
aI43
aI24
aI3
aI475
aI7
aI12436
aI3364
asS'ori'
p6
S'This house believes in the use of affirmative action'
p7
ssS'output'
p8
(dp9
g4
(lp10
I41
aI7
aI5895
aI4615
aI440
aI3019
aI45
aI905
aI34
aI136
aI138
aI767
aI2439
aI5
aI6321
aI4615
aI440
aI3019
aI45
aI905
aI34
aI136
aI138
aI863
aI63765
asg6
S'As of 2008  twenty parties had failed to report for more than ten years  and thirty parties had failed to report for more than five  .'
p11
ss.