(dp1
S'input'
p2
(dp3
S'encoded'
p4
(lp5
I64
aI2179
aI43
aI63
aI6670
aI546
aI417
aI316
aI89
aI1334
aI3108
aI7
aI4849
aI1886
aI2855
asS'ori'
p6
S'This house believes that wind power should be a primary focus of future energy supply'
p7
ssS'output'
p8
(dp9
g4
(lp10
I3
aI35
aI3142
aI7
aI36881
aI462
aI3
aI5172
aI47
aI316
aI5064
aI8977
aI5164
aI6795
aI63765
asg6
S'The natural flow of silt down the river will be interrupted  affecting downstream ecosystems .'
p11
ss.