(dp1
S'input'
p2
(dp3
S'encoded'
p4
(lp5
I64
aI2179
aI394
aI3830
aI3
aI475
aI7
aI9441
aI13132
aI3102
aI24
aI276
aI381
asS'ori'
p6
S'This house would permit the use of performance enhancing drugs in professional sports'
p7
ssS'output'
p8
(dp9
g4
(lp10
I3
aI3912
aI2330
aI12283
aI13071
aI20384
aI50223
aI7896
aI2840
aI86
aI41
aI13922
aI12269
aI63765
asg6
S'The West German doping analyst Manfred Donike reportedly identified them as anabolic steroids .'
p11
ss.