(dp1
S'input'
p2
(dp3
S'encoded'
p4
(lp5
I64
aI2179
aI394
aI5370
aI7146
aI4585
aI2446
asS'ori'
p6
S'This house would abolish intellectual property rights'
p7
ssS'output'
p8
(dp9
g4
(lp10
I14
aI3
aI93
aI1070
aI273
aI182
aI36231
aI13119
aI20611
aI159
aI41
aI2839
aI63765
asg6
S'On the one hand there are ardent Locke admirers  such as W .H .'
p11
ss.