(dp1
S'input'
p2
(dp3
S'encoded'
p4
(lp5
I64
aI2179
aI394
aI190
aI3
aI21
aI45
aI3895
aI834
asS'ori'
p6
S'This house would limit the right to bear arms'
p7
ssS'output'
p8
(dp9
g4
(lp10
I833
aI7
aI64
aI21
aI7
aI2232
aI3168
aI174
aI186
aI63
aI3
aI804
aI7
aI3
aI1950
aI3264
aI122
aI3
aI1068
aI45
aI1292
aI89
aI793
aI202
aI75
aI13216
aI3
aI3280
aI7
aI4117
aI5
aI63
aI3
aI3445
aI7
aI8807
aI3249
aI2144
aI73
aI22840
aI4117
aI41
aI89
aI1945
aI14
aI3664
aI4485
aI122
aI1972
aI99
aI759
aI7
aI3
aI1950
aI3264
aI63765
asg6
S"Opponents of this right of revolution theory also argue that the intent of the Second Amendment was the need to avoid a standing army by ensuring the viability of people's militias  and that the concept of rebellious private citizens or rogue militias as a check on governmental tyranny was clearly not part of the Second Amendment ."
p11
ss.