(dp1
S'input'
p2
(dp3
S'encoded'
p4
(lp5
I64
aI2179
aI394
aI1499
aI177
aI1819
aI34
aI160
asS'ori'
p6
S'This house would build high rises for housing'
p7
ssS'output'
p8
(dp9
g4
(lp10
I159
aI89
aI1444
aI88
aI316
aI263
aI51
aI11279
aI1444
aI11279
aI2179
aI1560
aI591
aI7
aI35842
aI4475
aI591
aI73
aI1909
aI24402
aI591
aI169
aI946
aI257
aI134
aI694
aI7
aI725
aI15692
aI34
aI12489
aI63765
asg6
S'Such a building may be called an apartment building  apartment house (in American English)  block of flats  tower block  high-rise or  occasionally mansion block (in British English)  especially if it consists of many apartments for rent .'
p11
ss.