(dp1
S'input'
p2
(dp3
S'encoded'
p4
(lp5
I64
aI2179
aI13605
aI2258
aI45
aI2194
asS'ori'
p6
S'This house prefers trade to aid'
p7
ssS'output'
p8
(dp9
g4
(lp10
I51
aI27745
aI19
aI2019
aI63765
aI1147
aI1902
aI480
aI26
aI653
aI1228
aI6668
aI2891
aI115
aI45
aI3
aI3059
aI285
aI55
aI3019
aI5938
aI55
aI1199
aI93
aI24
aI92
aI3
aI127
aI7
aI61
aI116
aI698
aI182
aI2601
aI24
aI4703
aI5973
aI45
aI3
aI532
aI698
aI89
aI33
aI7
aI136
aI4712
aI1198
aI149
aI63765
aI41
aI9642
aI182
aI3488
aI14
aI3
aI2259
aI7
aI3368
aI8063
aI727
aI5
aI7164
aI63765
aI63765
aI1168
aI45
aI268
aI24
aI2891
aI1577
aI5533
aI63765
aI604
aI3592
aI34
aI2891
aI116
aI2601
aI21901
aI64
aI1780
aI116
aI419
aI165
aI89
aI319
aI63765
aI61
aI4712
aI6196
aI24
aI3
aI1919
aI116
aI3
aI938
aI136
aI15780
aI3262
aI7
aI2891
asg6
S'An excerpt from Dr . Thomas Dichter\'s recently published book Despite Good Intentions: Why Development Assistance to the Third World Has Failed reads: "This industry has become one in which the benefits of what is spent are increasingly in inverse proportion to the amount spent - a case of more gets you less . As donors are attracted on the basis of appeals emphasizing "product"  results  and accountability . . .the tendency to engage in project-based  direct-action development becomes inevitable . Because funding for development is increasingly finite  this situation is very much a zero-sum game . What gets lost in the shuffle is the far more challenging long-term process of development'
p11
ss.