(dp1
S'input'
p2
(dp3
S'encoded'
p4
(lp5
I64
aI2179
aI43
aI8629
aI116
aI3
aI117
aI998
asS'ori'
p6
S'This house believes atheism is the only way'
p7
ssS'output'
p8
(dp9
g4
(lp10
I10172
aI513
aI64
aI4981
aI7
aI3
aI3524
aI7
aI3
aI5711
aI5480
aI63765
asg6
S'Berkeley considered this proof of the existence of the Christian God .'
p11
ss.