(dp1
S'input'
p2
(dp3
S'encoded'
p4
(lp5
I64
aI2179
aI394
aI2998
aI3
aI4360
aI7
aI3249
aI6804
aI24
aI3
aI102
asS'ori'
p6
S'This house would encourage the creation of private universities in the UK'
p7
ssS'output'
p8
(dp9
g4
(lp10
I3
aI170
aI9955
aI9322
aI7
aI3303
aI440
aI8501
aI15376
aI60
aI3
aI136
aI3409
aI8239
aI7
aI14131
aI5
aI3478
aI271
aI284
aI2240
aI45
aI1454
aI1524
aI9322
aI63765
asg6
S'The conservative Puritan ministers of Connecticut had grown dissatisfied with the more liberal theology of Harvard  and wanted their own school to train orthodox ministers .'
p11
ss.