(dp1
S'input'
p2
(dp3
S'encoded'
p4
(lp5
I64
aI2179
aI43
aI63
aI134
aI116
aI400
aI21
aI34
aI3
aI260
aI45
aI3439
aI57
aI7
aI2381
asS'ori'
p6
S'This house believes that it is sometimes right for the government to restrict freedom of speech'
p7
ssS'output'
p8
(dp9
g4
(lp10
I134
aI440
aI4441
aI3
aI3400
aI7
aI3
aI626
aI187
aI2804
aI7
aI2776
aI89
aI7575
aI751
aI3
aI3400
aI7
aI3
aI2475
aI13807
aI63
aI1980
aI182
aI75
aI580
aI3475
aI1260
aI5
aI903
aI5
aI11
aI77
aI4835
aI2446
aI7
aI1019
aI6373
aI3
aI17641
aI7
aI3269
aI5
aI3447
aI60
aI3
aI258
aI7
aI10443
aI5
aI4572
aI4585
aI5
aI1166
aI5
aI4286
aI13181
aI5
aI934
aI63765
asg6
S'It had shaped the drafting of the United States Declaration of Independence a decade before the drafting of the Constitution  proclaiming that "all men are by nature equally free and independent  and have certain inherent rights of which. [they cannot divest;] namely  the enjoyment of life and liberty  with the means of acquiring and possessing property  and pursuing and obtaining happiness and safety .'
p11
ss.