(dp1
S'input'
p2
(dp3
S'encoded'
p4
(lp5
I64
aI2179
aI43
aI63
aI3
aI21
aI45
aI12715
aI417
aI99
aI316
aI2897
asS'ori'
p6
S'This house believes that the right to asylum should not be absolute'
p7
ssS'output'
p8
(dp9
g4
(lp10
I18341
aI24
aI2445
aI2598
aI139
aI521
aI251
aI159
aI41
aI6673
aI1495
aI2979
aI5
aI130
aI63765
asg6
S'Spikes in human population can cause problems such as pollution  water crisis  and poverty  .'
p11
ss.