(dp1
S'input'
p2
(dp3
S'encoded'
p4
(lp5
I64
aI2179
aI43
aI8629
aI116
aI3
aI117
aI998
asS'ori'
p6
S'This house believes atheism is the only way'
p7
ssS'output'
p8
(dp9
g4
(lp10
I5
aI211
aI8368
aI394
aI1619
aI89
aI8368
aI174
aI2827
aI21900
aI63765
asg6
S'And its designer would require a designer also  ad infinitum .'
p11
ss.