(dp1
S'input'
p2
(dp3
S'encoded'
p4
(lp5
I64
aI2179
aI13605
aI2258
aI45
aI2194
asS'ori'
p6
S'This house prefers trade to aid'
p7
ssS'output'
p8
(dp9
g4
(lp10
I24
aI3
aI8976
aI311
aI21
aI3
aI237
aI2693
aI7
aI19245
aI182
aI104
aI117
aI75
aI2696
aI10507
aI63765
asg6
S'In the graph at right  the first units of meat are produced only by Country B (red) .'
p11
ss.