(dp1
S'input'
p2
(dp3
S'encoded'
p4
(lp5
I64
aI2179
aI394
aI2998
aI3
aI4360
aI7
aI3249
aI6804
aI24
aI3
aI102
asS'ori'
p6
S'This house would encourage the creation of private universities in the UK'
p7
ssS'output'
p8
(dp9
g4
(lp10
I134
aI116
aI3847
aI10245
aI19
aI2871
aI24
aI7800
aI28
aI2231
aI70
aI5
aI7983
aI34
aI8360
aI1603
aI60
aI3
aI4750
aI7
aI407
aI282
aI8278
aI5
aI24
aI421
aI134
aI47
aI1619
aI223
aI4358
aI45
aI79
aI2368
aI89
aI7
aI667
aI75
aI4159
aI10301
aI24
aI3057
aI3659
aI6733
aI4706
aI3707
aI7512
aI5
aI276
aI950
aI63765
asg6
S'It is offering tuition from October 2012 in economics  English  history  law and philosophy for undergraduate degrees with the University of London International Programmes and in addition  it will require all students to work toward a "Diploma of New College" by completing courses in critical thinking  practical ethics  science literacy  and professional skills  .'
p11
ss.