(dp1
S'input'
p2
(dp3
S'encoded'
p4
(lp5
I64
aI2179
aI13605
aI2258
aI45
aI2194
asS'ori'
p6
S'This house prefers trade to aid'
p7
ssS'output'
p8
(dp9
g4
(lp10
I64
aI143
aI440
aI243
aI12
aI5598
aI14
aI3
aI18
aI63
aI1928
aI192
aI24
aI3
aI285
aI394
aI11
aI45
aI991
aI8991
aI311
aI351
aI7494
aI34
aI51
aI8779
aI45
aI154
aI2126
aI61984
aI1375
aI89
aI12048
aI122
aI416
aI63765
asg6
S'This argument had always been questioned on the grounds that every market in the world would have to stop selling at any price for an importer to find itself imperiled  unless a blockade was used .'
p11
ss.