(dp1
S'input'
p2
(dp3
S'encoded'
p4
(lp5
I64
aI2179
aI394
aI190
aI3
aI21
aI45
aI3895
aI834
asS'ori'
p6
S'This house would limit the right to bear arms'
p7
ssS'output'
p8
(dp9
g4
(lp10
I3
aI60448
aI4370
aI5
aI248
aI2432
aI249
aI7
aI2611
aI3930
aI1453
aI99
aI124
aI7184
aI8308
aI45
aI501
aI4376
aI14
aI3
aI1362
aI291
aI164
aI3899
aI3930
aI5
aI2611
aI2617
aI63765
asg6
S'The GSS survey and other proxy measures of gun ownership do not provide adequate macro-level detail to allow conclusions on the relationship between overall firearm ownership and gun violence  .'
p11
ss.