(dp1
S'input'
p2
(dp3
S'encoded'
p4
(lp5
I64
aI2179
aI43
aI63
aI3
aI4538
aI7
aI4434
aI7793
aI283
aI45
aI3586
aI417
aI316
aI577
asS'ori'
p6
S'This house believes that the sale of violent video games to minors should be banned'
p7
ssS'output'
p8
(dp9
g4
(lp10
I3
aI2231
aI132
aI10001
aI5
aI3
aI68
aI63
aI42388
aI116
aI89
aI8533
aI163
aI271
aI3957
aI936
aI298
aI2449
aI45
aI217
aI10001
aI63
aI11
aI12
aI2340
aI736
aI70
aI24
aI2300
aI63765
asg6
S'The history these bills and the fact that Yee is a psychologist make their origins interesting when compared to most bills that have been signed into law in California .'
p11
ss.