(dp1
S'input'
p2
(dp3
S'encoded'
p4
(lp5
I64
aI2179
aI43
aI17
aI4941
aI857
aI3211
asS'ori'
p6
S'This house believes social deprivation causes crime'
p7
ssS'output'
p8
(dp9
g4
(lp10
I42
aI2173
aI63
aI207
aI463
aI316
aI3818
aI45
aI8331
aI4651
aI4285
aI604
aI271
aI4935
aI382
aI4791
aI4687
aI63765
asg6
S'He stated that little could be done to cure born criminals because their characteristics were biologically inherited .'
p11
ss.