(dp1
S'input'
p2
(dp3
S'encoded'
p4
(lp5
I64
aI2179
aI394
aI1499
aI177
aI1819
aI34
aI160
asS'ori'
p6
S'This house would build high rises for housing'
p7
ssS'output'
p8
(dp9
g4
(lp10
I3
aI2229
aI7
aI8001
aI19785
aI1258
aI45
aI6937
aI7
aI5545
aI6001
aI5
aI4364
aI63765
asg6
S'The trend of adaptive reuse extended to conversion of old churches and schools .'
p11
ss.