(dp1
S'input'
p2
(dp3
S'encoded'
p4
(lp5
I64
aI2179
aI13605
aI2258
aI45
aI2194
asS'ori'
p6
S'This house prefers trade to aid'
p7
ssS'output'
p8
(dp9
g4
(lp10
I9642
aI417
aI3082
aI358
aI6798
aI3
aI7163
aI5
aI17936
aI7
aI2194
aI6198
aI174
aI41
aI89
aI998
aI7
aI1879
aI5586
aI5
aI96
aI1636
aI2194
aI822
aI271
aI284
aI2696
aI63765
asg6
S'Donors should therefore consider improving the transparency and traceability of aid funds also as a way of increasing engagement and support towards aid inside their own country .'
p11
ss.