(dp1
S'input'
p2
(dp3
S'encoded'
p4
(lp5
I64
aI2179
aI394
aI2773
aI12505
asS'ori'
p6
S'This house would embrace multiculturalism'
p7
ssS'output'
p8
(dp9
g4
(lp10
I14
aI3
aI248
aI1070
aI3
aI325
aI2023
aI730
aI171
aI47
aI4576
aI3
aI2223
aI7
aI63765
aI3269
aI5718
aI3
aI7093
aI7
aI89
aI18524
aI24
aI6770
aI24
aI1906
aI63765
asg6
S'" On the other hand  the "1812 Great Canadian Victory Party will bring the War of 1812 . .to life " promise the sponsors of a festival in Toronto in November 2009  .'
p11
ss.