(dp1
S'input'
p2
(dp3
S'encoded'
p4
(lp5
I64
aI2179
aI394
aI15841
aI2736
asS'ori'
p6
S'This house would disband ASEAN'
p7
ssS'output'
p8
(dp9
g4
(lp10
I3
aI2736
aI2488
aI2712
aI122
aI237
aI557
aI24
aI16841
aI2756
aI24
aI63765
asg6
S"The ASEAN Leaders' Formal Summit was first held in Bali  Indonesia in 1976 ."
p11
ss.