(dp1
S'input'
p2
(dp3
S'encoded'
p4
(lp5
I64
aI2179
aI394
aI5370
aI223
aI4013
aI10440
aI2446
aI4881
aI75
aI14482
aI11004
asS'ori'
p6
S'This house would abolish all collective bargaining rights claimed by trades unions'
p7
ssS'output'
p8
(dp9
g4
(lp10
I8196
aI574
aI4883
aI25
aI818
aI45
aI3
aI8294
aI5
aI79
aI1544
aI45
aI4576
aI1191
aI1796
aI727
aI63765
asg6
S'Let each put his shoulder to the wheel and work together to bring about better results .'
p11
ss.