(dp1
S'input'
p2
(dp3
S'encoded'
p4
(lp5
I64
aI2179
aI43
aI3
aI2206
aI116
aI4850
aI24
aI270
aI972
aI45
aI881
aI187
aI19
aI10443
aI2185
aI372
asS'ori'
p6
S'This house believes the US is justified in using force to prevent states from acquiring nuclear weapons'
p7
ssS'output'
p8
(dp9
g4
(lp10
I3
aI2206
aI55
aI12
aI3531
aI34
aI16588
aI1411
aI1191
aI8711
aI2410
aI24
aI2203
aI159
aI41
aI3117
aI5
aI3127
aI131
aI1654
aI620
aI14
aI8817
aI77
aI2560
aI2194
aI256
aI63765
asg6
S"The US has been criticized for voicing concern about narcotics production in countries such as Bolivia and Venezuela but doesn't follow through on cutting certain bilateral aid programs  ."
p11
ss.