(dp1
S'input'
p2
(dp3
S'encoded'
p4
(lp5
I64
aI2179
aI394
aI2017
aI262
asS'ori'
p6
S'This house would ban boxing'
p7
ssS'output'
p8
(dp9
g4
(lp10
I378
aI64
aI122
aI513
aI5
aI122
aI514
aI515
aI75
aI516
aI442
aI517
aI75
aI3
aI465
aI7
aI3
aI518
aI63765
asg6
S'However  this was considered "unmanly" and was frequently disallowed by additional rules negotiated by the Seconds of the Boxers  .'
p11
ss.