(dp1
S'input'
p2
(dp3
S'encoded'
p4
(lp5
I64
aI2179
aI43
aI8629
aI116
aI3
aI117
aI998
asS'ori'
p6
S'This house believes atheism is the only way'
p7
ssS'output'
p8
(dp9
g4
(lp10
I155
aI133
aI63
aI3148
aI500
aI99
aI4532
aI487
aI8560
aI24
aI3
aI25759
aI7
aI25760
aI3761
aI21
aI45
aI306
aI63
aI5480
aI2539
aI45
aI1890
aI7968
aI223
aI4658
aI5
aI63
aI2494
aI3148
aI47
aI1301
aI375
aI316
aI9652
aI116
aI366
aI12074
aI5
aI337
aI63765
asg6
S"They believe that evil did not exist until Satan in the Garden of Eden challenged God's right to rule  that God intends to eventually reverse all evil's effects  and that subsequently evil will never again be tolerated (that is  after Armageddon and Christ's Millennium Reign) ."
p11
ss.