(dp1
S'input'
p2
(dp3
S'encoded'
p4
(lp5
I64
aI2179
aI43
aI63
aI2659
aI417
aI1690
aI3
aI12048
aI7
aI19084
asS'ori'
p6
S'This house believes that Israel should lift the blockade of Gaza'
p7
ssS'output'
p8
(dp9
g4
(lp10
I612
aI891
aI24
aI89
aI5156
aI14986
aI7
aI839
aI2202
aI291
aI217
aI2560
aI9642
aI5
aI3
aI46337
aI60
aI117
aI100
aI2587
aI779
aI5
aI89
aI1896
aI9642
aI859
aI839
aI1610
aI5
aI2762
aI4445
aI63765
asg6
S"Hamas' stance resulted in a near cessation of direct relations between most bilateral donors and the PNA  with only some multilateral agencies and a few donors continuing direct contact and project administration  ."
p11
ss.