(dp1
S'input'
p2
(dp3
S'encoded'
p4
(lp5
I64
aI2179
aI394
aI60
aI23587
asS'ori'
p6
S'This house would re-engage with Myanmar'
p7
ssS'output'
p8
(dp9
g4
(lp10
I48420
aI1405
aI2161
aI8243
aI2030
aI2173
aI3
aI634
aI9751
aI7
aI7776
aI2144
aI75
aI3
aI12800
aI3081
aI5
aI357
aI382
aI11094
aI2853
aI75
aI2962
aI7
aI1706
aI1647
aI7
aI2617
aI14650
aI64
aI3427
aI75
aI2702
aI5726
aI493
aI2468
aI12081
aI63765
asg6
S'"Mike Ellam  Prime Minister Gordon Brown\'s spokesman  stated that:"[HM Government] deplore(s) the continued repression of ordinary citizens by the Burmese regime and we were deeply concerned by reports of further acts of violence perpetrated this week by security officials against peaceful demonstrators .'
p11
ss.