(dp1
S'input'
p2
(dp3
S'encoded'
p4
(lp5
I64
aI2179
aI43
aI63
aI3
aI4990
aI4991
aI116
aI4850
aI24
aI12166
aI3
aI475
aI7
aI3532
aI3290
aI7
aI4714
asS'ori'
p6
S'This house believes that the Catholic Church is justified in forbidding the use of barrier methods of contraception'
p7
ssS'output'
p8
(dp9
g4
(lp10
I2449
aI45
aI3
aI398
aI18884
aI7332
aI378
aI8136
aI7332
aI382
aI2274
aI9467
aI5
aI3619
aI1796
aI7077
aI63765
asg6
S'Compared to the 19th century rubber condoms  however  skin condoms were initially cheaper and offered better sensitivity .'
p11
ss.