(dp1
S'input'
p2
(dp3
S'encoded'
p4
(lp5
I64
aI2179
aI43
aI17
aI4941
aI857
aI3211
asS'ori'
p6
S'This house believes social deprivation causes crime'
p7
ssS'output'
p8
(dp9
g4
(lp10
I4881
aI63
aI12527
aI122
aI24
aI68
aI89
aI1876
aI5
aI2867
aI759
aI7
aI17
aI2134
aI63765
asg6
S'Durkheim(18581915) claimed that deviance was in fact a normal and necessary part of social organization .'
p11
ss.