(dp1
S'input'
p2
(dp3
S'encoded'
p4
(lp5
I64
aI2179
aI235
aI3
aI2136
aI7
aI3
aI2306
aI7
aI2390
asS'ori'
p6
S'This house supports the one-child policy of the republic of China'
p7
ssS'output'
p8
(dp9
g4
(lp10
I2148
aI6850
aI88
aI521
aI17160
aI7
aI725
aI7
aI3
aI217
aI15438
aI7408
aI2506
aI63765
asg6
S'Global warming may cause flooding of many of the most productive agricultural areas  .'
p11
ss.