(dp1
S'input'
p2
(dp3
S'encoded'
p4
(lp5
I64
aI2179
aI43
aI223
aI2138
aI11
aI89
aI21
aI45
aI2185
aI372
asS'ori'
p6
S'This house believes all nations have a right to nuclear weapons'
p7
ssS'output'
p8
(dp9
g4
(lp10
I3
aI2950
aI55
aI89
aI1051
aI5
aI122
aI237
aI3274
aI17377
aI14
aI88
aI63765
asg6
S'The Sejil-2 two-stage solid-fuel missile has a 2 000km range and was first test fired on 20 May 2009  .'
p11
ss.