(dp1
S'input'
p2
(dp3
S'encoded'
p4
(lp5
I64
aI2179
aI43
aI63
aI187
aI417
aI99
aI16642
aI3
aI6449
aI7
aI3935
asS'ori'
p6
S'This house believes that states should not subsidize the growing of tobacco'
p7
ssS'output'
p8
(dp9
g4
(lp10
I3935
aI475
aI217
aI1480
aI4309
aI45
aI7438
aI8977
aI3
aI3780
aI5
aI11040
aI5
aI47
aI217
aI1480
aI1466
aI2506
aI159
aI41
aI531
aI73
aI761
aI60
aI237
aI2534
aI7
aI14833
aI3365
aI3217
aI214
aI6909
aI588
aI41
aI25212
aI60
aI14833
aI773
aI89
aI281
aI2038
aI5085
aI34
aI3780
aI1687
aI18862
aI25199
aI14004
aI4368
aI25200
aI5
aI5057
aI324
aI14834
aI5057
aI11832
aI7
aI3
aI25201
aI5
aI1467
aI5
aI25202
aI5057
aI63765
asg6
S'Tobacco use most commonly leads to diseases affecting the heart and lungs and will most commonly affect areas such as hands or feet with first signs of smoking related health issues showing up as numbness  with smoking being a major risk factor for heart attacks  Chronic Obstructive Pulmonary Disease (COPD)  emphysema  and cancer  particularly lung cancer  cancers of the larynx and mouth  and pancreatic cancer .'
p11
ss.