(dp1
S'input'
p2
(dp3
S'encoded'
p4
(lp5
I64
aI2179
aI394
aI5284
aI150
aI3987
asS'ori'
p6
S'This house would reintroduce national service'
p7
ssS'output'
p8
(dp9
g4
(lp10
I75
aI481
aI5259
aI122
aI24
aI89
aI4226
aI45
aI1199
aI3
aI1608
aI2179
aI2471
aI15830
aI3
aI329
aI1597
aI24
aI3
aI2179
aI5
aI34
aI3
aI237
aI413
aI588
aI34
aI4168
aI75
aI3
aI2789
aI958
aI138
aI5353
aI75
aI3
aI5280
aI63765
asg6
S'By late 1985  Rangel was in a six-person race to become the next House Majority Whip  the third-highest ranked position in the House and for the first time up for election by the members rather than appointment by the Speaker  .'
p11
ss.