(dp1
S'input'
p2
(dp3
S'encoded'
p4
(lp5
I64
aI2179
aI43
aI17
aI4941
aI857
aI3211
asS'ori'
p6
S'This house believes social deprivation causes crime'
p7
ssS'output'
p8
(dp9
g4
(lp10
I443
aI2812
aI94
aI116
aI136
aI36354
aI45
aI8696
aI3186
aI138
aI97
aI958
aI134
aI116
aI3
aI2554
aI7
aI773
aI17485
aI16651
aI73
aI2493
aI63
aI32
aI100
aI3136
aI136
aI1559
aI45
aI8696
aI6090
aI5
aI64
aI394
aI174
aI316
aI9445
aI34
aI24
aI3
aI782
aI7
aI17
aI6591
aI946
aI24
aI1809
aI7
aI5666
aI5
aI15657
aI63765
asg6
S'No ethnic group is more disposed to gang involvement than another  rather it is the status of being marginalised  alienated or rejected that makes some groups more vulnerable to gang formation  and this would also be accounted for in the effect of social exclusion  especially in terms of recruitment and retention .'
p11
ss.