(dp1
S'input'
p2
(dp3
S'encoded'
p4
(lp5
I64
aI2179
aI43
aI63
aI3357
aI5003
aI652
aI3
aI188
aI3262
asS'ori'
p6
S'This house believes that opinion polls harm the democratic process'
p7
ssS'output'
p8
(dp9
g4
(lp10
I24
aI51
aI5119
aI1593
aI94
aI93
aI748
aI296
aI116
aI63
aI218
aI3348
aI1199
aI26233
aI5
aI508
aI2931
aI136
aI8905
aI138
aI155
aI2628
aI182
aI63765
asg6
S'In an online discussion group  one possible result is that extreme opinions become muted and thus appear more moderate than they really are .'
p11
ss.