(dp1
S'input'
p2
(dp3
S'encoded'
p4
(lp5
I64
aI2179
aI394
aI5370
aI3
aI5286
asS'ori'
p6
S'This house would abolish the monarchy'
p7
ssS'output'
p8
(dp9
g4
(lp10
I41
aI3
aI582
aI3269
aI8628
aI887
aI3
aI5690
aI2322
aI45
aI19965
aI3583
aI271
aI3446
aI7600
aI24
aI5501
aI4127
aI5
aI246
aI3006
aI37236
aI5
aI3976
aI3020
aI887
aI3
aI51
aI6588
aI6271
aI122
aI136
aI1856
aI45
aI1069
aI2471
aI3485
aI751
aI3
aI1012
aI7
aI25
aI4928
aI5
aI6451
aI373
aI2601
aI5397
aI289
aI6450
aI6611
aI6453
aI5
aI4168
aI63765
asg6
S'As the average life span among the nobility increased (thanks to lords limiting their personal participation in dangerous battles  and generally improved sustenance and living conditions among the wealthy)  an eldest son was more likely to reach majority age before the death of his father  and primogeniture became increasingly favoured over proximity  tanistry  seniority and election .'
p11
ss.