(dp1
S'input'
p2
(dp3
S'encoded'
p4
(lp5
I64
aI2179
aI43
aI63
aI3
aI4538
aI7
aI4434
aI7793
aI283
aI45
aI3586
aI417
aI316
aI577
asS'ori'
p6
S'This house believes that the sale of violent video games to minors should be banned'
p7
ssS'output'
p8
(dp9
g4
(lp10
I24
aI64
aI3304
aI122
aI2494
aI551
aI51
aI2481
aI2521
aI7
aI3
aI237
aI3264
aI21
aI45
aI1260
aI2381
aI24
aI3
aI2503
aI3337
aI2483
aI33
aI7
aI7793
aI8732
aI4421
aI646
aI63765
aI56977
aI63765
asg6
S"In 2004  this statute was subsequently declared an unconstitutional violation of the first amendment right to free speech in the Federal District Court case of Video Software Dealers Ass'n v . Maleng  ."
p11
ss.