(dp1
S'input'
p2
(dp3
S'encoded'
p4
(lp5
I64
aI2179
aI394
aI5370
aI223
aI4013
aI10440
aI2446
aI4881
aI75
aI14482
aI11004
asS'ori'
p6
S'This house would abolish all collective bargaining rights claimed by trades unions'
p7
ssS'output'
p8
(dp9
g4
(lp10
I2409
aI2258
aI11004
aI88
aI9385
aI19153
aI73
aI5904
aI45
aI27993
aI24
aI18378
aI7
aI1341
aI2170
aI63765
asg6
S'Industrial action: Trade unions may enforce strikes or resistance to lockouts in furtherance of particular goals .'
p11
ss.