(dp1
S'input'
p2
(dp3
S'encoded'
p4
(lp5
I64
aI2179
aI43
aI24
aI3
aI475
aI7
aI12436
aI3364
asS'ori'
p6
S'This house believes in the use of affirmative action'
p7
ssS'output'
p8
(dp9
g4
(lp10
I64
aI1546
aI458
aI366
aI2992
aI63
aI2036
aI63
aI3
aI6119
aI2994
aI7
aI5946
aI311
aI7749
aI122
aI2449
aI45
aI34
aI5948
aI63765
asg6
S'This change occurred after studies that showed that the graduation rate of blacks at UCLA was 41%  compared to 73% for whites .'
p11
ss.