(dp1
S'input'
p2
(dp3
S'encoded'
p4
(lp5
I64
aI2179
aI394
aI16756
aI20435
asS'ori'
p6
S'This house would criminalize blasphemy'
p7
ssS'output'
p8
(dp9
g4
(lp10
I3
aI9596
aI2820
aI187
aI545
aI271
aI150
aI976
aI3278
aI24
aI2339
aI60
aI282
aI2445
aI2446
aI9160
aI45
aI84
aI223
aI4620
aI249
aI45
aI265
aI11095
aI4933
aI9745
aI5
aI1647
aI7
aI2617
aI18230
aI5
aI10028
aI906
aI75
aI2767
aI9745
aI158
aI1687
aI14
aI2767
aI1197
aI5
aI45
aI2998
aI1462
aI2811
aI5
aI3236
aI24
aI4114
aI4955
aI45
aI57
aI7
aI2382
aI73
aI1361
asg6
S'The resolution urged "all States  within their national legal framework  in conformity with international human rights instruments to take all appropriate measures to combat hatred  discrimination  intolerance and acts of violence  intimidation and coercion motivated by religious intolerance  including attacks on religious places  and to encourage understanding  tolerance and respect in matters relating to freedom of religion or belief ."'
p11
ss.