(dp1
S'input'
p2
(dp3
S'encoded'
p4
(lp5
I64
aI2179
aI394
aI60
aI23587
asS'ori'
p6
S'This house would re-engage with Myanmar'
p7
ssS'output'
p8
(dp9
g4
(lp10
I2674
aI50577
aI116
aI4443
aI75
aI138
aI2553
aI32396
aI50578
aI63765
asg6
S"Air Bagan is owned by Than Shwe's ally Tay Za  ."
p11
ss.