(dp1
S'input'
p2
(dp3
S'encoded'
p4
(lp5
I64
aI2179
aI43
aI63
aI3
aI4990
aI4991
aI116
aI4850
aI24
aI12166
aI3
aI475
aI7
aI3532
aI3290
aI7
aI4714
asS'ori'
p6
S'This house believes that the Catholic Church is justified in forbidding the use of barrier methods of contraception'
p7
ssS'output'
p8
(dp9
g4
(lp10
I3406
aI47171
aI130
aI1811
aI1862
aI479
aI55
aI1629
aI2386
aI150
aI2170
aI34
aI4696
aI24
aI3874
aI2569
aI5
aI13788
aI475
aI63765
asg6
S'Additionally  Pakistans Poverty Reduction Strategy Paper has set specific national goals for increases in family planning and contraceptive use  .'
p11
ss.