(dp1
S'input'
p2
(dp3
S'encoded'
p4
(lp5
I64
aI2179
aI43
aI63
aI3
aI4991
aI7
aI180
aI417
aI316
aI5396
aI19
aI3
aI169
aI10
asS'ori'
p6
S'This house believes that the Church of England should be separated from the British state'
p7
ssS'output'
p8
(dp9
g4
(lp10
I3
aI725
aI5041
aI14
aI6080
aI139
aI316
aI344
aI24
aI100
aI2203
aI60
aI177
aI1603
aI7
aI2767
aI57
aI5
aI2811
aI4341
aI60
aI3740
aI5344
aI22
aI8175
aI92
aI11
aI637
aI383
aI10
aI6001
aI73
aI2351
aI2591
aI60
aI77
aI2767
aI2142
aI736
aI3
aI398
aI63765
asg6
S'The many variations on separation can be seen in some countries with high degrees of religious freedom and tolerance combined with strongly secular political cultures which have still maintained state churches or financial ties with certain religious organizations into the 21st century .'
p11
ss.