(dp1
S'input'
p2
(dp3
S'encoded'
p4
(lp5
I64
aI2179
aI394
aI5370
aI3
aI5286
asS'ori'
p6
S'This house would abolish the monarchy'
p7
ssS'output'
p8
(dp9
g4
(lp10
I134
aI116
aI89
aI90
aI7
aI72
aI89
aI15351
aI342
aI7
aI15352
aI41
aI6896
aI24
aI211
aI998
aI41
aI351
aI10900
aI7
aI3
aI11048
aI7
aI3
aI370
aI63765
asg6
S'It is a kind of custom  a ritual show of disloyalty as hoary in its way as any gathering of the Daughters of the Empire .'
p11
ss.