(dp1
S'input'
p2
(dp3
S'encoded'
p4
(lp5
I64
aI2179
aI394
aI16642
aI1376
aI5269
asS'ori'
p6
S'This house would subsidize poor communities'
p7
ssS'output'
p8
(dp9
g4
(lp10
I113
aI53
aI934
aI19023
aI11
aI89
aI238
aI545
aI7401
aI155
aI88
aI619
aI2351
aI8987
aI87
aI1661
aI63
aI2136
aI9126
aI47
aI11
aI45
aI163
aI330
aI747
aI1191
aI40
aI45
aI16553
aI137
aI2338
aI45
aI4726
aI1227
aI63765
asg6
S'Even where safety nets have a place within budgets  they may face financial constraints so tight that policy makers will have to make difficult decisions about how to allocate money insufficient to meet needs .'
p11
ss.