(dp1
S'input'
p2
(dp3
S'encoded'
p4
(lp5
I64
aI2179
aI394
aI9385
aI2497
aI447
aI14
aI3
aI3578
aI5721
aI7
aI260
asS'ori'
p6
S'This house would enforce term limits on the legislative branch of government'
p7
ssS'output'
p8
(dp9
g4
(lp10
I661
aI24
aI2221
aI5
aI20136
aI75
aI3
aI2482
aI2483
aI64
aI24580
aI6342
aI122
aI1607
aI45
aI89
aI12169
aI34
aI3
aI3014
aI7
aI8730
aI3
aI2503
aI260
aI63765
asg6
S'Defeated in Congress and overridden by the Supreme Court  this populist uprising was brought to a halt for the purpose of reforming the federal government .'
p11
ss.