(dp1
S'input'
p2
(dp3
S'encoded'
p4
(lp5
I64
aI2179
aI43
aI17
aI4941
aI857
aI3211
asS'ori'
p6
S'This house believes social deprivation causes crime'
p7
ssS'output'
p8
(dp9
g4
(lp10
I100
aI274
aI7
aI11055
aI182
aI472
aI459
aI70
aI5
aI32799
aI88
aI48
aI45
aI5012
aI10426
aI63765
asg6
S'Some forms of taboo are prohibited under law and transgressions may lead to severe penalties .'
p11
ss.