(dp1
S'input'
p2
(dp3
S'encoded'
p4
(lp5
I64
aI2179
aI394
aI3830
aI3
aI475
aI7
aI9441
aI13132
aI3102
aI24
aI276
aI381
asS'ori'
p6
S'This house would permit the use of performance enhancing drugs in professional sports'
p7
ssS'output'
p8
(dp9
g4
(lp10
I3
aI6033
aI11
aI1301
aI5898
aI3
aI4799
aI34
aI13160
aI231
aI34
aI64
aI5052
aI7
aI13160
aI63765
asg6
S'The symptoms have never met the criteria for Substance Dependence for this class of substance .'
p11
ss.