(dp1
S'input'
p2
(dp3
S'encoded'
p4
(lp5
I64
aI2179
aI43
aI63
aI3
aI4990
aI4991
aI116
aI4850
aI24
aI12166
aI3
aI475
aI7
aI3532
aI3290
aI7
aI4714
asS'ori'
p6
S'This house believes that the Catholic Church is justified in forbidding the use of barrier methods of contraception'
p7
ssS'output'
p8
(dp9
g4
(lp10
I257
aI357
aI8196
aI10039
aI2214
aI1518
aI736
aI3218
aI4830
aI257
aI357
aI820
aI11101
aI7486
aI45
aI1063
aI182
aI357
aI99
aI10882
aI63
aI42
aI876
aI84
aI4722
aI1931
aI19
aI2206
aI63764
aI63765
aI374
aI375
aI3
aI6359
asg6
S'If we let Christ enter fully into our lives  if we open ourselves totally to Him  are we not afraid that He might take something away from us ? . .And once again the Pope said: No!'
p11
ss.