(dp1
S'input'
p2
(dp3
S'encoded'
p4
(lp5
I64
aI2179
aI43
aI63
aI2659
aI417
aI1690
aI3
aI12048
aI7
aI19084
asS'ori'
p6
S'This house believes that Israel should lift the blockade of Gaza'
p7
ssS'output'
p8
(dp9
g4
(lp10
I24
aI241
aI3470
aI63
aI64
aI13123
aI7
aI60
aI122
aI773
aI1258
aI45
aI2198
aI7
aI6056
aI189
aI99
aI1640
aI2198
aI7
aI27145
aI63765
asg6
S'" In 2002  Chomsky wrote that this equation of anti-Zionism with anti-Semitism was being extended to criticism of Israeli policies  not just criticism of Zionism .'
p11
ss.