(dp1
S'input'
p2
(dp3
S'encoded'
p4
(lp5
I64
aI2179
aI43
aI3
aI626
aI187
aI116
aI1989
aI34
aI3102
aI2223
asS'ori'
p6
S"This house believes the United States is responsible for Mexico's drugs war"
p7
ssS'output'
p8
(dp9
g4
(lp10
I3
aI58987
aI7865
aI13448
aI24
aI25
aI1012
aI122
aI9249
aI131
aI42
aI10767
aI366
aI773
aI5162
aI14
aI20539
aI63765
asg6
S'The AFI agent implicated in his death was arrested but he escaped after being released on bail  .'
p11
ss.