(dp1
S'input'
p2
(dp3
S'encoded'
p4
(lp5
I64
aI2179
aI43
aI63
aI3376
aI4938
aI417
aI316
aI3537
asS'ori'
p6
S'This house believes that endangered species should be protected'
p7
ssS'output'
p8
(dp9
g4
(lp10
I3
aI38364
aI116
aI51
aI1343
aI7
aI89
aI34738
aI63
aI373
aI7862
aI604
aI211
aI3964
aI2878
aI373
aI7862
aI63765
asg6
S"The Haast's Eagle is an example of a predator that became extinct because its food source became extinct ."
p11
ss.