(dp1
S'input'
p2
(dp3
S'encoded'
p4
(lp5
I64
aI2179
aI43
aI223
aI2138
aI11
aI89
aI21
aI45
aI2185
aI372
asS'ori'
p6
S'This house believes all nations have a right to nuclear weapons'
p7
ssS'output'
p8
(dp9
g4
(lp10
I134
aI98
aI378
aI190
aI3
aI1051
aI7
aI1274
aI3
aI1849
aI413
aI45
aI51
aI18482
aI1274
aI5
aI3
aI696
aI7
aI372
aI92
aI139
aI316
aI36694
aI311
aI351
aI575
aI413
aI63765
asg6
S'It does  however  limit the range of attack  the response time to an impending attack  and the number of weapons which can be fielded at any given time .'
p11
ss.