(dp1
S'input'
p2
(dp3
S'encoded'
p4
(lp5
I64
aI2179
aI43
aI63
aI2157
aI2565
aI493
aI19084
aI382
aI4850
asS'ori'
p6
S"This house believes that Israel's 2008-2009 military operations against Gaza were justified"
p7
ssS'output'
p8
(dp9
g4
(lp10
I267
aI31153
aI23431
aI705
aI31318
aI382
aI4546
aI75
aI3
aI4232
aI2636
aI2157
aI2483
aI7
aI270
aI89
aI19088
aI10722
aI41
aI89
aI2445
aI2956
aI63765
aI3
aI2377
aI440
aI12
aI5546
aI7
aI1854
aI2596
aI31319
aI645
aI63765
aI311
aI31320
aI45
aI820
aI1487
aI11267
aI7
aI4946
aI2672
aI24
aI3
aI19171
aI15703
asg6
S'two Givati Brigade Staff Sergeants were convicted by the Southern Command Military Court of using a Palestinian boy as a human shield . The soldiers had been accused of forcing nine year-old Majed R . at gunpoint to open bags suspected of containing bombs in the Tel al-Hawa neighborhood'
p11
ss.