(dp1
S'input'
p2
(dp3
S'encoded'
p4
(lp5
I64
aI2179
aI43
aI63
aI187
aI417
aI99
aI16642
aI3
aI6449
aI7
aI3935
asS'ori'
p6
S'This house believes that states should not subsidize the growing of tobacco'
p7
ssS'output'
p8
(dp9
g4
(lp10
I2438
aI11
aI12
aI221
aI45
aI6726
aI5583
aI901
aI3217
aI846
aI5
aI2017
aI14833
aI19
aI658
aI6766
aI63765
asg6
S'Changes have been made to eliminate advertising  post health warnings  and ban smoking from public buildings .'
p11
ss.