(dp1
S'input'
p2
(dp3
S'encoded'
p4
(lp5
I64
aI2179
aI394
aI9385
aI2497
aI447
aI14
aI3
aI3578
aI5721
aI7
aI260
asS'ori'
p6
S'This house would enforce term limits on the legislative branch of government'
p7
ssS'output'
p8
(dp9
g4
(lp10
I3
aI2497
aI447
aI1881
aI1754
aI45
aI46
aI3482
aI5722
aI19
aI3
aI4330
aI2455
aI24
aI972
aI378
aI24
aI1009
aI187
aI63765
asg6
S'The term limits intended simultaneously to reform legislatures (as distinguished from the congressional delegations) remain in force  however  in fifteen states   .'
p11
ss.