(dp1
S'input'
p2
(dp3
S'encoded'
p4
(lp5
I64
aI2179
aI43
aI63
aI3
aI4990
aI4991
aI116
aI4850
aI24
aI12166
aI3
aI475
aI7
aI3532
aI3290
aI7
aI4714
asS'ori'
p6
S'This house believes that the Catholic Church is justified in forbidding the use of barrier methods of contraception'
p7
ssS'output'
p8
(dp9
g4
(lp10
I89
aI4370
aI7
aI3
aI2546
aI2145
aI63765
aI11391
aI353
aI10707
aI19
aI89
aI697
aI24
aI120
aI11391
aI11
aI440
aI13410
aI7
aI8803
aI4562
aI221
aI493
aI86
aI24
aI3
aI1447
aI2439
aI63765
asg6
S'A survey of the 10 largest U .S . dioceses found 234 priests from a total 25 616 in those dioceses  have had allegations of sexual abuse made against them in the last 50 years .'
p11
ss.