(dp1
S'input'
p2
(dp3
S'encoded'
p4
(lp5
I64
aI2179
aI43
aI17
aI4941
aI857
aI3211
asS'ori'
p6
S'This house believes social deprivation causes crime'
p7
ssS'output'
p8
(dp9
g4
(lp10
I267
aI2759
aI1486
aI7
aI2513
aI3068
aI182
aI5
aI1039
aI63765
asg6
S'Two prominent types of conflict analysis are gender-conflict and race-conflict approach .'
p11
ss.