(dp1
S'input'
p2
(dp3
S'encoded'
p4
(lp5
I64
aI2179
aI394
aI60
aI23587
asS'ori'
p6
S'This house would re-engage with Myanmar'
p7
ssS'output'
p8
(dp9
g4
(lp10
I3118
aI116
aI93
aI7
aI3
aI217
aI5026
aI2138
aI14
aI3
aI7375
aI63765
asg6
S'Burma is one of the most impoverished nations on the planet .'
p11
ss.