(dp1
S'input'
p2
(dp3
S'encoded'
p4
(lp5
I64
aI2179
aI394
aI1499
aI3
aI8115
aI34564
aI17106
asS'ori'
p6
S'This house would build the Keystone XL pipeline'
p7
ssS'output'
p8
(dp9
g4
(lp10
I233
aI45
aI3
aI667
aI2086
aI1727
aI976
aI7092
aI5598
aI755
aI3
aI2206
aI260
aI122
aI3
aI7
aI3
aI2503
aI150
aI6669
aI2136
aI2784
aI92
aI7367
aI45
aI975
aI51
aI18954
aI6669
aI3068
aI7
aI281
aI4949
aI63765
asg6
S'According to The New York Times  legal experts questioned whether the US government was "flouting the intent" of the Federal National Environmental Policy Act which "[was] meant to ensure an impartial environmental analysis of major projects .'
p11
ss.