(dp1
S'input'
p2
(dp3
S'encoded'
p4
(lp5
I64
aI2179
aI43
aI63
aI3
aI21
aI45
aI12715
aI417
aI99
aI316
aI2897
asS'ori'
p6
S'This house believes that the right to asylum should not be absolute'
p7
ssS'output'
p8
(dp9
g4
(lp10
I1376
aI147
aI19
aI149
aI643
aI2203
aI139
aI11
aI938
aI166
aI2140
aI7
aI3976
aI24
aI643
aI2203
aI138
aI24
aI271
aI10162
aI2203
aI63765
asg6
S'Poor individuals from less developed countries can have far higher standards of living in developed countries than in their originating countries .'
p11
ss.