(dp1
S'input'
p2
(dp3
S'encoded'
p4
(lp5
I64
aI2179
aI43
aI63
aI3
aI21
aI45
aI12715
aI417
aI99
aI316
aI2897
asS'ori'
p6
S'This house believes that the right to asylum should not be absolute'
p7
ssS'output'
p8
(dp9
g4
(lp10
I3
aI170
aI260
aI1920
aI547
aI9121
aI165
aI4573
aI3
aI2610
aI7
aI147
aI7479
aI19
aI6575
aI366
aI3
aI3093
aI2425
aI75
aI35693
aI3044
aI24
aI63765
asg6
S"The Conservative government nevertheless allowed  amid much controversy  the immigration of 27 000 individuals displaced from Uganda after the coup d'etat led by Idi Amin in 1971  ."
p11
ss.