(dp1
S'input'
p2
(dp3
S'encoded'
p4
(lp5
I64
aI2179
aI43
aI63
aI1036
aI4828
aI33250
aI116
aI25073
aI45
aI3315
aI4562
asS'ori'
p6
S'This house believes that male infant circumcision is tantamount to child abuse'
p7
ssS'output'
p8
(dp9
g4
(lp10
I89
aI2068
aI5971
aI3518
aI55
aI3017
aI63
aI273
aI116
aI2369
aI350
aI34
aI89
aI920
aI782
aI7
aI33250
aI493
aI34891
aI73
aI39865
aI7446
asg6
S'A recent systematic review has suggested that there is strong evidence for a protective effect of circumcision against Syphilis or Chancroid infection'
p11
ss.