(dp1
S'input'
p2
(dp3
S'encoded'
p4
(lp5
I64
aI2179
aI43
aI63
aI2157
aI2565
aI493
aI19084
aI382
aI4850
asS'ori'
p6
S"This house believes that Israel's 2008-2009 military operations against Gaza were justified"
p7
ssS'output'
p8
(dp9
g4
(lp10
I16619
aI116
aI3
aI690
aI254
aI24
aI3
aI19084
aI966
aI226
aI19090
aI835
aI3
aI5367
aI7
aI3
aI19088
aI150
aI254
aI63765
asg6
S'Hamas is the de-facto governing authority in the Gaza Strip  while Fatah holds the presidency of the Palestinian National Authority .'
p11
ss.