(dp1
S'input'
p2
(dp3
S'encoded'
p4
(lp5
I64
aI2179
aI394
aI190
aI3
aI21
aI45
aI3895
aI834
asS'ori'
p6
S'This house would limit the right to bear arms'
p7
ssS'output'
p8
(dp9
g4
(lp10
I24
aI697
aI10160
aI382
aI5047
aI45
aI3
aI2298
aI10
aI3135
aI14397
aI34
aI380
aI4734
aI860
aI75
aI147
aI3485
aI5
aI289
aI63765
asg6
S'In 2009  65 561 total convictions were reported to the Texas State Criminal Repository for various offenses committed by individuals age 21 and over .'
p11
ss.