(dp1
S'input'
p2
(dp3
S'encoded'
p4
(lp5
I64
aI2179
aI394
aI60
aI23587
asS'ori'
p6
S'This house would re-engage with Myanmar'
p7
ssS'output'
p8
(dp9
g4
(lp10
I3118
aI4276
aI102
aI1762
aI443
aI260
aI3592
aI63765
asg6
S'Burma Campaign UK receives no government funding .'
p11
ss.