(dp1
S'input'
p2
(dp3
S'encoded'
p4
(lp5
I64
aI2179
aI394
aI5370
aI7146
aI4585
aI2446
asS'ori'
p6
S'This house would abolish intellectual property rights'
p7
ssS'output'
p8
(dp9
g4
(lp10
I34
aI6396
aI89
aI11704
aI14
aI89
aI1869
aI34
aI28724
aI89
aI261
aI447
aI4585
aI2446
aI289
aI271
aI1413
aI41
aI155
aI1019
aI475
aI63
aI1869
aI252
aI3820
aI14195
aI19
aI3
aI11704
aI9473
aI63765
asg6
S"For instance  a patent on a method for drilling a well limits others' property rights over their land  as they cannot use that method without seeking permission from the patent owner ."
p11
ss.