(dp1
S'input'
p2
(dp3
S'encoded'
p4
(lp5
I64
aI2179
aI394
aI163
aI959
aI2042
aI3557
asS'ori'
p6
S'This house would make physical education compulsory'
p7
ssS'output'
p8
(dp9
g4
(lp10
I4194
aI63765
aI2909
aI3226
aI3274
aI902
asg6
S'P .E . actually increase test scores'
p11
ss.