(dp1
S'input'
p2
(dp3
S'encoded'
p4
(lp5
I64
aI2179
aI394
aI190
aI3
aI21
aI45
aI3895
aI834
asS'ori'
p6
S'This house would limit the right to bear arms'
p7
ssS'output'
p8
(dp9
g4
(lp10
I725
aI2611
aI2446
aI3552
aI174
aI3599
aI3
aI1950
aI3264
aI45
aI10
aI63
aI604
aI7
aI3
aI1068
aI7
aI89
aI2488
aI2157
aI3
aI78
aI11
aI89
aI21
aI45
aI5
aI3895
aI41
aI89
aI1795
aI19
aI3
aI260
aI63765
asg6
S'Many gun rights advocates also read the Second Amendment to state that because of the need of a formal military  the people have a right to "keep and bear arms" as a protection from the government .'
p11
ss.