(dp1
S'input'
p2
(dp3
S'encoded'
p4
(lp5
I64
aI2179
aI43
aI63
aI3
aI21
aI45
aI12715
aI417
aI99
aI316
aI2897
asS'ori'
p6
S'This house believes that the right to asylum should not be absolute'
p7
ssS'output'
p8
(dp9
g4
(lp10
I7623
aI7
aI15283
aI45
aI1458
aI19
aI28
aI5307
aI24
aI3
aI320
aI398
aI122
aI2244
aI24
aI2534
aI63
aI3599
aI28
aI1068
asg6
S'Hostility of native-born Canadians to competition from English immigrants in the early 20th century was expressed in signs that read  "No English Need Apply!"'
p11
ss.