(dp1
S'input'
p2
(dp3
S'encoded'
p4
(lp5
I64
aI2179
aI43
aI63
aI1036
aI4828
aI33250
aI116
aI25073
aI45
aI3315
aI4562
asS'ori'
p6
S'This house believes that male infant circumcision is tantamount to child abuse'
p7
ssS'output'
p8
(dp9
g4
(lp10
I120
aI81
aI382
aI99
aI33242
aI382
aI45
aI316
aI19
aI271
aI78
aI63765
asg6
S'Those who were not circumcised were to be "cut off" from their people (Genesis 17:1014) .'
p11
ss.