(dp1
S'input'
p2
(dp3
S'encoded'
p4
(lp5
I64
aI2179
aI394
aI2017
aI262
asS'ori'
p6
S'This house would ban boxing'
p7
ssS'output'
p8
(dp9
g4
(lp10
I257
aI89
aI468
aI122
aI543
aI462
aI42
aI440
aI45
aI544
aI545
aI465
aI459
aI25
aI284
aI546
aI45
aI316
aI547
aI45
aI302
aI63765
asg6
S'If a fighter was knocked down  he had to rise within 30 seconds under his own power to be allowed to continue .'
p11
ss.