(dp1
S'input'
p2
(dp3
S'encoded'
p4
(lp5
I64
aI2179
aI43
aI63
aI187
aI417
aI99
aI16642
aI3
aI6449
aI7
aI3935
asS'ori'
p6
S'This house believes that states should not subsidize the growing of tobacco'
p7
ssS'output'
p8
(dp9
g4
(lp10
I3935
aI6228
aI2586
aI7693
aI9257
aI45
aI3361
aI45
aI3495
aI397
aI3
aI8285
aI11448
aI910
aI7
aI3
aI63765
asg6
S'Tobacco companies began marketing cigarettes to appeal to women during the burgeoning womens movement of the 1920s .'
p11
ss.