(dp1
S'input'
p2
(dp3
S'encoded'
p4
(lp5
I64
aI2179
aI394
aI4325
aI2042
aI270
aI89
aI11605
aI3324
asS'ori'
p6
S'This house would fund education using a voucher scheme'
p7
ssS'output'
p8
(dp9
g4
(lp10
I3
aI7074
aI394
aI174
aI3830
aI89
aI2083
aI2240
aI3337
aI45
aI1102
aI211
aI658
aI4364
aI92
aI33
aI1928
aI3315
aI394
aI1192
aI89
aI10245
aI11605
aI45
aI3573
aI89
aI3249
aI73
aI13521
aI45
aI99
aI84
aI10
aI3592
aI63765
asg6
S'The plan would also permit a local school district to close its public schools (in which case every child would get a tuition voucher to attend a private school) or opt to not take state funding  .'
p11
ss.