(dp1
S'input'
p2
(dp3
S'encoded'
p4
(lp5
I64
aI2179
aI43
aI223
aI2138
aI11
aI89
aI21
aI45
aI2185
aI372
asS'ori'
p6
S'This house believes all nations have a right to nuclear weapons'
p7
ssS'output'
p8
(dp9
g4
(lp10
I257
aI2218
aI2513
aI116
aI3629
aI311
aI3
aI7494
aI7
aI2436
aI4831
aI45
aI3
aI5086
aI7161
aI7
aI3
aI1718
aI1889
aI2548
aI459
aI3
aI2731
aI7
aI2223
aI768
aI134
aI1019
aI316
aI4881
aI63
aI3965
aI55
aI2347
aI63765
asg6
S'If armed conflict is avoided at the price of diplomatic concessions to the maximum demands of the potential attacking nation under the threat of war  then it cannot be claimed that deterrence has succeeded .'
p11
ss.