(dp1
S'input'
p2
(dp3
S'encoded'
p4
(lp5
I64
aI2179
aI43
aI63
aI17574
aI417
aI316
aI3481
aI34
aI271
aI79
asS'ori'
p6
S'This house believes that housewives should be paid for their work'
p7
ssS'output'
p8
(dp9
g4
(lp10
I89
aI1488
aI131
aI6449
aI696
aI7
aI10438
aI256
aI589
aI3
aI285
aI9036
aI10301
aI5
aI17184
aI24
aI3620
aI7800
aI63765
asg6
S'A small  but growing number of graduate programs around the world offer courses and concentrations in feminist economics .'
p11
ss.