(dp1
S'input'
p2
(dp3
S'encoded'
p4
(lp5
I64
aI2179
aI394
aI2017
aI223
aI9058
aI23653
asS'ori'
p6
S'This house would ban all unsustainable logging'
p7
ssS'output'
p8
(dp9
g4
(lp10
I1691
aI19596
aI16442
aI858
aI3
aI13825
aI7
aI23632
aI63765
asg6
S'Rapid bacterial decay prevents the accumulation of humus .'
p11
ss.