(dp1
S'input'
p2
(dp3
S'encoded'
p4
(lp5
I64
aI2179
aI394
aI2017
aI262
asS'ori'
p6
S'This house would ban boxing'
p7
ssS'output'
p8
(dp9
g4
(lp10
I57349
aI57350
aI11
aI12
aI353
aI24
aI3
aI20088
aI7
aI18303
aI41224
aI4821
aI131
aI99
aI24
aI3
aI1643
aI5200
aI41
aI116
aI162
aI353
aI24
aI16746
aI63765
asg6
S"Neurofibrillary tangles have been found in the brains of dementia pugilistica patients  but not in the same distribution as is usually found in Alzheimer's sufferers  ."
p11
ss.