(dp1
S'input'
p2
(dp3
S'encoded'
p4
(lp5
I64
aI2179
aI394
aI5370
aI223
aI4013
aI10440
aI2446
aI4881
aI75
aI14482
aI11004
asS'ori'
p6
S'This house would abolish all collective bargaining rights claimed by trades unions'
p7
ssS'output'
p8
(dp9
g4
(lp10
I24
aI2265
aI327
aI5
aI248
aI1565
aI2203
aI216
aI4615
aI5
aI242
aI2757
aI89
aI2759
aI2210
aI24
aI17113
aI5
aI1444
aI588
aI2258
aI11004
aI946
aI19
aI3
aI12945
aI63765
asg6
S'In France  Germany  and other European countries  socialist parties and democrats played a prominent role in forming and building up trade unions  especially from the 1870s onwards .'
p11
ss.