(dp1
S'input'
p2
(dp3
S'encoded'
p4
(lp5
I64
aI2179
aI43
aI63
aI3
aI4538
aI7
aI4434
aI7793
aI283
aI45
aI3586
aI417
aI316
aI577
asS'ori'
p6
S'This house believes that the sale of violent video games to minors should be banned'
p7
ssS'output'
p8
(dp9
g4
(lp10
I990
aI16655
aI1667
aI60
aI3
aI3419
aI7
aI3
aI2220
aI7045
aI7161
aI24
aI63
aI63765
aI17654
aI11
aI384
aI7607
aI63765
asg6
S"Ultimately  Flew ends with the statement of the broad demographic's excessive demands  in that ' . .different genders have different gaming ."
p11
ss.