(dp1
S'input'
p2
(dp3
S'encoded'
p4
(lp5
I64
aI2179
aI43
aI63
aI2659
aI417
aI1690
aI3
aI12048
aI7
aI19084
asS'ori'
p6
S'This house believes that Israel should lift the blockade of Gaza'
p7
ssS'output'
p8
(dp9
g4
(lp10
I5757
aI5726
aI2031
aI3
aI404
aI2618
aI63
aI1928
aI7628
aI63
aI440
aI20
aI2670
aI440
aI12
aI10770
aI60
aI1504
aI5
aI16279
aI23278
aI751
aI12878
aI63765
asg6
S'" Turkish officials supported the activists\' account  stating that every passenger that had left Turkey had been searched with X-ray machines and metal detectors before boarding .'
p11
ss.