(dp1
S'input'
p2
(dp3
S'encoded'
p4
(lp5
I64
aI2179
aI394
aI2017
aI3807
aI314
aI3433
asS'ori'
p6
S'This house would ban partial birth abortions'
p7
ssS'output'
p8
(dp9
g4
(lp10
I5
aI53
aI2015
aI8836
aI2580
aI7090
aI2221
aI116
aI637
aI3234
aI45
aI686
aI24
aI51
aI803
aI53
aI3
aI2015
aI2178
aI55
aI99
aI753
aI89
aI63765
asg6
S'And  where medical testimony disputed Congress\'s findings  Congress is still entitled to regulate in an area where the medical community has not reached a "consensus .'
p11
ss.