(dp1
S'input'
p2
(dp3
S'encoded'
p4
(lp5
I64
aI2179
aI394
aI3830
aI3
aI475
aI7
aI9441
aI13132
aI3102
aI24
aI276
aI381
asS'ori'
p6
S'This house would permit the use of performance enhancing drugs in professional sports'
p7
ssS'output'
p8
(dp9
g4
(lp10
I233
aI45
aI13456
aI3
aI12338
aI2016
aI775
aI1894
aI12338
aI19
aI15806
aI60
aI3
aI9359
aI63765
asg6
S'According to Mitchell  the Players Association effectively discouraged players from cooperating with the investigation  .'
p11
ss.