(dp1
S'input'
p2
(dp3
S'encoded'
p4
(lp5
I64
aI2179
aI43
aI63
aI2659
aI417
aI1690
aI3
aI12048
aI7
aI19084
asS'ori'
p6
S'This house believes that Israel should lift the blockade of Gaza'
p7
ssS'output'
p8
(dp9
g4
(lp10
I1381
aI3
aI612
aI7
aI3
aI9642
aI397
aI3
aI639
aI116
aI1058
aI75
aI100
aI2460
aI159
aI41
aI15334
aI63735
aI41
aI726
aI5
aI6212
aI60
aI7822
aI159
aI41
aI7170
aI9750
aI5
aI15762
aI29254
aI282
aI2194
aI775
aI7475
aI89
aI290
aI7
aI256
aI24
aI3
aI7178
aI7
aI6678
aI2667
aI160
aI5
aI2042
aI63765
asg6
S'Although the stance of the donors during the pre-Oslo period is regarded by some analysts  such as Rex Brynen  as controversial and linked with phenomena  such as corruption  nationalism and factional rivalries  international aid effectively financed a series of programs in the sectors of agriculture  infrastructure  housing and education  .'
p11
ss.