(dp1
S'input'
p2
(dp3
S'encoded'
p4
(lp5
I64
aI2179
aI13605
aI2258
aI45
aI2194
asS'ori'
p6
S'This house prefers trade to aid'
p7
ssS'output'
p8
(dp9
g4
(lp10
I8057
aI205
aI374
aI155
aI4574
aI45
aI8052
aI24
aI89
aI8057
aI1453
aI99
aI1985
aI117
aI2642
aI73
aI89
aI3059
aI7
aI3
aI532
aI155
aI142
aI3
aI8057
aI1227
aI24
aI128
aI45
aI1199
aI257
aI155
aI500
aI271
aI137
aI394
aI316
aI6193
aI63765
asg6
S'Venture capitalists  once they choose to invest in a venture  do not give only half or a third of the amount they feel the venture needs in order to become profitable; if they did  their money would be wasted .'
p11
ss.