(dp1
S'input'
p2
(dp3
S'encoded'
p4
(lp5
I64
aI2179
aI13605
aI2258
aI45
aI2194
asS'ori'
p6
S'This house prefers trade to aid'
p7
ssS'output'
p8
(dp9
g4
(lp10
I41
aI159
aI3064
aI7399
aI5
aI2352
aI2183
aI182
aI153
aI344
aI41
aI89
aI136
aI4620
aI998
aI34
aI5025
aI2138
aI45
aI7400
aI3592
aI34
aI271
aI260
aI7401
aI5
aI6587
aI864
aI3
aI7402
aI5
aI7403
aI7404
aI63
aI139
aI153
aI4466
aI24
aI89
aI2760
aI52
aI63765
asg6
S'As such  wealth redistribution and capital controls are often seen as a more appropriate way for African nations to stabilize funding for their government budgets and smooth out the boom and bust cycles that can often arise in a developing economy .'
p11
ss.