(dp1
S'input'
p2
(dp3
S'encoded'
p4
(lp5
I64
aI2179
aI43
aI63
aI187
aI417
aI99
aI16642
aI3
aI6449
aI7
aI3935
asS'ori'
p6
S'This house believes that states should not subsidize the growing of tobacco'
p7
ssS'output'
p8
(dp9
g4
(lp10
I3863
aI350
aI634
aI45
aI8366
aI24
aI3
aI92
aI3288
aI22
aI3364
aI493
aI3
aI1485
aI63765
asg6
S'Scientific evidence continued to mount in the 1980s  which prompted political action against the practice .'
p11
ss.