(dp1
S'input'
p2
(dp3
S'encoded'
p4
(lp5
I64
aI2179
aI394
aI1499
aI177
aI1819
aI34
aI160
asS'ori'
p6
S'This house would build high rises for housing'
p7
ssS'output'
p8
(dp9
g4
(lp10
I24
aI3
aI2206
aI89
aI17423
aI693
aI55
aI869
aI1410
aI7608
aI267
aI843
aI823
aI7
aI89
aI2609
aI17125
aI63765
asg6
S'In the US  a cottage typically has four main rooms  two either side of a central corridor .'
p11
ss.