(dp1
S'input'
p2
(dp3
S'encoded'
p4
(lp5
I64
aI2179
aI394
aI2017
aI3807
aI314
aI3433
asS'ori'
p6
S'This house would ban partial birth abortions'
p7
ssS'output'
p8
(dp9
g4
(lp10
I3712
aI526
aI685
aI658
aI96
aI34
aI725
aI214
aI2031
aI75
aI3
aI2178
aI5
aI71
aI75
aI3
aI63765
asg6
S'Gallup furthermore established public support for many issues supported by the Pro-Life community and opposed by the Pro-Choice community:  .'
p11
ss.