(dp1
S'input'
p2
(dp3
S'encoded'
p4
(lp5
I64
aI2179
aI235
aI3
aI2136
aI7
aI3
aI2306
aI7
aI2390
asS'ori'
p6
S'This house supports the one-child policy of the republic of China'
p7
ssS'output'
p8
(dp9
g4
(lp10
I34
aI1343
aI2598
aI2824
aI19
aI2639
aI24
aI45
aI2639
aI24
aI89
aI3226
aI24
aI2439
aI63765
asg6
S"For example  Indonesia's population grew from 97 million in 1961 to 237 .6 million in 2010  a 145% increase in 49 years ."
p11
ss.