(dp1
S'input'
p2
(dp3
S'encoded'
p4
(lp5
I64
aI2179
aI43
aI17
aI4941
aI857
aI3211
asS'ori'
p6
S'This house believes social deprivation causes crime'
p7
ssS'output'
p8
(dp9
g4
(lp10
I1381
aI17028
aI463
aI6365
aI4212
aI159
aI41
aI7196
aI5
aI7300
aI14
aI3
aI2259
aI7
aI5826
aI42
aI116
aI121
aI45
aI6365
aI9184
aI4212
aI63
aI182
aI153
aI8790
aI24
aI34
aI17
aI2554
aI958
aI138
aI7371
aI13675
aI63765
asg6
S'Although Merton could explain crimes such as fraud and theft on the basis of innovation  he is unable to explain youth crimes that are often engaged in for social status rather than material acquisition .'
p11
ss.