(dp1
S'input'
p2
(dp3
S'encoded'
p4
(lp5
I64
aI2179
aI394
aI4325
aI2042
aI270
aI89
aI11605
aI3324
asS'ori'
p6
S'This house would fund education using a voucher scheme'
p7
ssS'output'
p8
(dp9
g4
(lp10
I1376
aI4358
aI182
aI1265
aI24
aI3667
aI4958
aI13531
aI27488
aI5
aI4196
aI3240
aI5
aI11
aI136
aI8935
aI251
aI63765
asg6
S'Poor students are behind in verbal memory  vocabulary  math and reading achievement  and have more behavior problems  .'
p11
ss.