(dp1
S'input'
p2
(dp3
S'encoded'
p4
(lp5
I64
aI2179
aI43
aI63
aI3
aI4990
aI4991
aI116
aI4850
aI24
aI12166
aI3
aI475
aI7
aI3532
aI3290
aI7
aI4714
asS'ori'
p6
S'This house believes that the Catholic Church is justified in forbidding the use of barrier methods of contraception'
p7
ssS'output'
p8
(dp9
g4
(lp10
I5318
aI81
aI96
aI64
aI1597
aI3943
aI63
aI134
aI116
aI717
aI14
aI89
aI1361
aI24
aI3
aI5969
aI7
aI223
aI2445
aI3269
aI5
aI63
aI2445
aI3269
aI764
aI311
aI4642
aI63765
asg6
S'Catholics who support this position say that it is based on a belief in the equality of all human life  and that human life begins at conception .'
p11
ss.