(dp1
S'input'
p2
(dp3
S'encoded'
p4
(lp5
I64
aI2179
aI394
aI2741
aI3
aI1560
aI6025
aI2784
asS'ori'
p6
S'This house would pass the American Jobs Act'
p7
ssS'output'
p8
(dp9
g4
(lp10
I196
aI116
aI1966
aI45
aI316
aI45
aI3
aI78
aI81
aI182
aI99
aI178
aI24
aI3
aI2498
aI63
aI134
aI25783
aI7528
aI92
aI2126
aI55
aI7521
aI4658
aI75
aI193
aI14450
aI89
aI201
aI202
aI7
aI5428
aI63
aI1259
aI195
aI24
aI1945
aI63765
asg6
S'Unemployment is argued to be "beneficial" to the people who are not unemployed in the sense that it averts inflation  which itself has damaging effects  by providing (in Marxian terms) a reserve army of labour  that keeps wages in check .'
p11
ss.