(dp1
S'input'
p2
(dp3
S'encoded'
p4
(lp5
I64
aI2179
aI394
aI16642
aI1376
aI5269
asS'ori'
p6
S'This house would subsidize poor communities'
p7
ssS'output'
p8
(dp9
g4
(lp10
I1050
aI23121
aI155
aI88
aI3709
aI3
aI8272
aI5
aI2234
aI7
aI3249
aI8733
aI155
aI139
aI316
aI51
aI5132
aI998
aI45
aI1649
aI2635
aI45
aI3
aI1376
aI11477
aI9381
aI83
aI316
aI261
aI3075
aI5
aI4544
aI5941
aI83
aI316
aI3473
aI5
aI5906
aI3762
aI5
aI79
aI83
aI316
aI287
aI658
aI95
aI1057
aI45
aI9575
aI19
aI23122
aI7
aI2635
aI63765
asg6
S'faster commute They may help the emergence and growth of small-scale private contractors They can be an expensive way to transfer resources to the poor Administratively demanding  must be well designed and implemented  materials must be selected and procured properly  and work must be supervised Public works tend to suffer from leakages of resources   .'
p11
ss.