(dp1
S'input'
p2
(dp3
S'encoded'
p4
(lp5
I64
aI2179
aI394
aI15841
aI2736
asS'ori'
p6
S'This house would disband ASEAN'
p7
ssS'output'
p8
(dp9
g4
(lp10
I64
aI6903
aI1386
aI45
aI673
aI260
aI189
aI10678
aI75
aI4387
aI5122
aI1347
aI620
aI3
aI897
aI63765
asg6
S'This track tries to influence government policies indirectly by lobbying  generating pressure through the media .'
p11
ss.