(dp1
S'input'
p2
(dp3
S'encoded'
p4
(lp5
I64
aI2179
aI394
aI2773
aI12505
asS'ori'
p6
S'This house would embrace multiculturalism'
p7
ssS'output'
p8
(dp9
g4
(lp10
I12927
aI1453
aI99
aI246
aI6037
aI3
aI3524
aI7
aI3
aI63765
asg6
S'Liberals do not generally dispute the existence of the nation-states .'
p11
ss.