(dp1
S'input'
p2
(dp3
S'encoded'
p4
(lp5
I64
aI2179
aI43
aI63
aI134
aI116
aI400
aI21
aI34
aI3
aI260
aI45
aI3439
aI57
aI7
aI2381
asS'ori'
p6
S'This house believes that it is sometimes right for the government to restrict freedom of speech'
p7
ssS'output'
p8
(dp9
g4
(lp10
I147
aI5
aI2142
aI88
aI268
aI24
aI14
aI271
aI284
aI73
aI1021
aI45
aI18230
aI5
aI2384
aI63765
asg6
S'Individuals and organizations may engage in self-censorship on their own or due to intimidation and fear .'
p11
ss.