(dp1
S'input'
p2
(dp3
S'encoded'
p4
(lp5
I64
aI2179
aI43
aI63
aI3
aI4538
aI7
aI4434
aI7793
aI283
aI45
aI3586
aI417
aI316
aI577
asS'ori'
p6
S'This house believes that the sale of violent video games to minors should be banned'
p7
ssS'output'
p8
(dp9
g4
(lp10
I24
aI64
aI33
aI220
aI182
aI2966
aI45
aI687
aI3
aI15467
aI2511
aI63765
asg6
S'In this case  governments are supposed to establish the pertinent laws .'
p11
ss.