(dp1
S'input'
p2
(dp3
S'encoded'
p4
(lp5
I64
aI2179
aI43
aI63
aI2659
aI417
aI1690
aI3
aI12048
aI7
aI19084
asS'ori'
p6
S'This house believes that Israel should lift the blockade of Gaza'
p7
ssS'output'
p8
(dp9
g4
(lp10
I89
aI5430
aI34
aI2135
aI5496
aI5008
aI63
aI2659
aI394
aI11
aI12
aI5676
aI45
aI501
aI351
aI248
aI1565
aI2161
aI9107
aI257
aI134
aI440
aI547
aI19219
aI45
aI2772
aI3
aI19084
aI966
aI508
aI5492
aI516
aI624
aI45
aI3
aI16619
aI260
aI63765
asg6
S'" A spokesperson for Israel\'s Foreign Ministry responded that Israel would have been obliged to allow any other European minister entry if it had allowed Niebel to visit the Gaza strip  thus conferring additional legitimacy to the Hamas government  .'
p11
ss.