(dp1
S'input'
p2
(dp3
S'encoded'
p4
(lp5
I64
aI2179
aI43
aI63
aI2203
aI60
aI51
aI997
aI2837
aI21716
aI1636
aI5349
aI417
aI2998
aI8532
aI45
aI3051
aI8578
asS'ori'
p6
S'This house believes that countries with an imbalanced male/female ratio skewed towards males should encourage parents to produce girls'
p7
ssS'output'
p8
(dp9
g4
(lp10
I89
aI4185
aI441
aI75
aI2087
aI2390
aI1876
aI4750
aI13745
aI2999
aI17855
aI17856
aI14
aI3
aI11389
aI2837
aI311
aI314
aI417
aI84
aI89
aI4583
aI4933
aI1039
aI1966
aI63
aI4741
aI83
aI5878
aI618
aI703
aI45
aI4583
aI214
aI24
aI13745
aI5
aI89
aI2445
aI2446
aI4921
aI24
aI7932
aI2041
aI116
aI9208
aI63765
asg6
S'A section written by East China Normal University demography professor Ci Qinying  "Research on the Sex Ratio at Birth Should Take a Gender Discrimination Approach " argued that researchers must pay closer attention to gender issues in demography  and a human rights perspective in demographic research is crucial  .'
p11
ss.