(dp1
S'input'
p2
(dp3
S'encoded'
p4
(lp5
I64
aI2179
aI43
aI63
aI3
aI21
aI45
aI12715
aI417
aI99
aI316
aI2897
asS'ori'
p6
S'This house believes that the right to asylum should not be absolute'
p7
ssS'output'
p8
(dp9
g4
(lp10
I134
aI116
aI1185
aI45
aI1670
aI1968
aI5307
aI19
aI248
aI274
aI7
aI5307
aI5
aI6049
aI24
aI2265
aI63765
asg6
S'It is important to distinguish illegal immigrants from other forms of immigrants and residents in France .'
p11
ss.