(dp1
S'input'
p2
(dp3
S'encoded'
p4
(lp5
I64
aI2179
aI13605
aI2258
aI45
aI2194
asS'ori'
p6
S'This house prefers trade to aid'
p7
ssS'output'
p8
(dp9
g4
(lp10
I3
aI3698
aI8519
aI1191
aI732
aI3446
aI4766
aI5
aI749
aI3
aI877
aI63
aI115
aI45
aI2404
aI116
aI10583
aI14330
aI6733
aI5
aI5117
aI5
aI116
aI5309
aI75
aI3
aI5025
aI78
aI63765
asg6
S"The author talks about her personal experiences and draws the conclusion that China's assistance to Africa is sincere  credible  practical and efficient and is welcomed by the African people ."
p11
ss.