(dp1
S'input'
p2
(dp3
S'encoded'
p4
(lp5
I64
aI2179
aI394
aI2741
aI3
aI1560
aI6025
aI2784
asS'ori'
p6
S'This house would pass the American Jobs Act'
p7
ssS'output'
p8
(dp9
g4
(lp10
I34050
aI8828
aI6206
aI34051
aI2164
aI7
aI3
aI2133
aI2173
aI2145
aI63765
aI34052
aI2136
aI116
aI2026
aI2023
aI4388
aI19124
aI2023
aI6025
aI5
aI7521
aI2023
aI2997
aI45
aI8123
aI24
aI3
aI8959
asg6
S'Sherbrooke Mayor Jean Perrault  president of the federation  stated  "This U .S . protectionist policy is hurting Canadian firms  costing Canadian jobs and damaging Canadian efforts to grow in the world-wide recession ."'
p11
ss.