(dp1
S'input'
p2
(dp3
S'encoded'
p4
(lp5
I64
aI2179
aI394
aI190
aI3
aI21
aI45
aI3895
aI834
asS'ori'
p6
S'This house would limit the right to bear arms'
p7
ssS'output'
p8
(dp9
g4
(lp10
I378
aI3
aI4270
aI1047
aI874
aI4057
aI4271
aI2686
aI267
aI1980
aI3982
aI4272
aI2841
aI851
aI4273
aI63765
asg6
S'However  the lesser known 1997 North Hollywood shootout involved two men carrying illegally imported automatic AKMs  .'
p11
ss.