(dp1
S'input'
p2
(dp3
S'encoded'
p4
(lp5
I64
aI2179
aI394
aI5370
aI7146
aI4585
aI2446
asS'ori'
p6
S'This house would abolish intellectual property rights'
p7
ssS'output'
p8
(dp9
g4
(lp10
I7146
aI4585
aI2474
aI116
aI211
aI3108
aI14
aI229
aI5
aI2564
aI508
aI12717
aI1795
aI139
aI117
aI316
aI4867
aI24
aI95
aI7
aI21807
aI63765
asg6
S"Intellectual Property legislation is its focus on individual and joint works; thus  copyright protection can only be obtained in 'original' works of authorship  ."
p11
ss.