(dp1
S'input'
p2
(dp3
S'encoded'
p4
(lp5
I64
aI2179
aI394
aI2773
aI12505
asS'ori'
p6
S'This house would embrace multiculturalism'
p7
ssS'output'
p8
(dp9
g4
(lp10
I13035
aI691
aI53616
aI5
aI1015
aI3781
aI132
aI4099
aI18439
aI41
aI73
aI155
aI463
aI1640
aI41
aI35947
aI5
aI32796
aI2032
aI316
aI29524
aI864
aI7
aI3
aI2445
aI2598
aI620
aI6836
aI7
aI94
aI5023
aI258
aI5
aI5642
aI10947
aI63765
asg6
S'Presumably  since Gudykunst and Kim (2003) define these negative traits as "personality predispositions" (p .&nbsp;368) or "adaptive predisposition" (p .&nbsp;370) they could  just as Galton and Pearson proposed  be bred out of the human population through comparison of group statistical means and selective reproduction .'
p11
ss.