(dp1
S'input'
p2
(dp3
S'encoded'
p4
(lp5
I64
aI2179
aI13605
aI2258
aI45
aI2194
asS'ori'
p6
S'This house prefers trade to aid'
p7
ssS'output'
p8
(dp9
g4
(lp10
I4377
aI3
aI16649
aI5
aI1546
aI1404
aI75
aI1260
aI2258
aI122
aI4617
aI45
aI3250
aI367
aI14
aI3
aI1376
aI5
aI63765
asg6
S'Traditionally  the displacement and change caused by free trade was assumed to mostly fall on the poor and less-educated .'
p11
ss.