(dp1
S'input'
p2
(dp3
S'encoded'
p4
(lp5
I64
aI2179
aI43
aI63
aI3
aI21
aI45
aI12715
aI417
aI99
aI316
aI2897
asS'ori'
p6
S'This house believes that the right to asylum should not be absolute'
p7
ssS'output'
p8
(dp9
g4
(lp10
I366
aI1224
aI4387
aI19
aI3
aI27872
aI910
aI3
aI626
aI187
aI2221
aI871
aI3
aI5148
aI5891
aI2784
aI24
aI63765
asg6
S'After intense lobbying from the nativist movement the United States Congress passed the Emergency Quota Act in 1921 .'
p11
ss.