(dp1
S'input'
p2
(dp3
S'encoded'
p4
(lp5
I64
aI2179
aI43
aI63
aI6670
aI546
aI417
aI316
aI89
aI1334
aI3108
aI7
aI4849
aI1886
aI2855
asS'ori'
p6
S'This house believes that wind power should be a primary focus of future energy supply'
p7
ssS'output'
p8
(dp9
g4
(lp10
I19
aI3
aI47223
aI905
aI5084
aI978
aI3
aI713
aI2755
aI7
aI3
aI697
aI5084
aI7
aI1444
aI5
aI5157
aI89
aI5122
aI1344
aI289
aI51
aI4617
aI2351
aI3269
aI5
aI3938
aI1351
aI5788
aI45
aI5125
aI2097
aI6751
aI5
aI2244
aI24
aI1809
aI7
aI212
aI2666
aI45
aI10662
aI3
aI918
aI7
aI7528
aI63765
asg6
S'From the EIA report (emphasis added): "Levelized cost represents the present value of the total cost of building and operating a generating plant over an assumed financial life and duty cycle  converted to equal annual payments and expressed in terms of real dollars to remove the impact of inflation .'
p11
ss.