(dp1
S'input'
p2
(dp3
S'encoded'
p4
(lp5
I64
aI2179
aI43
aI63
aI3
aI4990
aI4991
aI116
aI4850
aI24
aI12166
aI3
aI475
aI7
aI3532
aI3290
aI7
aI4714
asS'ori'
p6
S'This house believes that the Catholic Church is justified in forbidding the use of barrier methods of contraception'
p7
ssS'output'
p8
(dp9
g4
(lp10
I3
aI475
aI7
aI31629
aI7332
aI75
aI78
aI60
aI51
aI51935
aI45
aI31629
aI139
aI521
aI19645
aI6033
aI159
aI41
aI8136
aI7096
aI63765
asg6
S'The use of latex condoms by people with an allergy to latex can cause allergic symptoms such as skin irritation .'
p11
ss.