(dp1
S'input'
p2
(dp3
S'encoded'
p4
(lp5
I64
aI2179
aI43
aI63
aI134
aI116
aI400
aI21
aI34
aI3
aI260
aI45
aI3439
aI57
aI7
aI2381
asS'ori'
p6
S'This house believes that it is sometimes right for the government to restrict freedom of speech'
p7
ssS'output'
p8
(dp9
g4
(lp10
I223
aI14922
aI63
aI182
aI1881
aI34
aI3862
aI459
aI2439
aI7
aI3485
aI83
aI1654
aI3
aI8302
aI4674
aI34
aI5583
aI45
aI3862
aI5
aI116
aI1971
aI75
aI3
aI16372
aI2180
aI7
aI3
aI5583
aI2140
aI2132
aI63765
asg6
S'All commercials that are intended for children under 12 years of age must follow the Broadcast Code for Advertising to Children and is managed by the Childrens Committee of the Advertising Standards Council  .'
p11
ss.