(dp1
S'input'
p2
(dp3
S'encoded'
p4
(lp5
I64
aI2179
aI394
aI190
aI3
aI21
aI45
aI3895
aI834
asS'ori'
p6
S'This house would limit the right to bear arms'
p7
ssS'output'
p8
(dp9
g4
(lp10
I3
aI2369
aI2471
aI7
aI242
aI142
aI63
aI2611
aI2511
aI24
aI3
aI626
aI187
aI417
aI316
aI3903
aI226
aI117
aI1191
aI24
aI2359
aI142
aI64
aI998
aI63765
asg6
S'The strong majority of Democrats feel that gun laws in the United States should be stricter  while only about 4 in 10 Republicans feel this way .'
p11
ss.