(dp1
S'input'
p2
(dp3
S'encoded'
p4
(lp5
I64
aI2179
aI43
aI63
aI3
aI21
aI45
aI12715
aI417
aI99
aI316
aI2897
asS'ori'
p6
S'This house believes that the right to asylum should not be absolute'
p7
ssS'output'
p8
(dp9
g4
(lp10
I3
aI667
aI2784
aI534
aI15575
aI45
aI11
aI89
aI1028
aI751
aI155
aI4373
aI45
aI1897
aI4604
aI950
aI73
aI81
aI394
aI4726
aI3
aI7
aI3
aI150
aI52
aI63765
asg6
S'The new Act required migrants to have a job before they arrived  to possess special skills or who would meet the "labour needs" of the national economy .'
p11
ss.