(dp1
S'input'
p2
(dp3
S'encoded'
p4
(lp5
I64
aI2179
aI43
aI223
aI2138
aI11
aI89
aI21
aI45
aI2185
aI372
asS'ori'
p6
S'This house believes all nations have a right to nuclear weapons'
p7
ssS'output'
p8
(dp9
g4
(lp10
I33537
aI742
aI42
aI5
aI3
aI2904
aI11
aI980
aI742
aI3
aI26983
aI7
aI7149
aI382
aI24511
aI7486
aI33581
aI63765
asg6
S'ElBaradei said he and the Agency have repeatedly said the rumors of censorship were "totally baseless  totally groundless .'
p11
ss.