(dp1
S'input'
p2
(dp3
S'encoded'
p4
(lp5
I64
aI2179
aI13605
aI2258
aI45
aI2194
asS'ori'
p6
S'This house prefers trade to aid'
p7
ssS'output'
p8
(dp9
g4
(lp10
I3
aI3795
aI122
aI497
aI75
aI5520
aI9322
aI19
aI136
aI138
aI2203
aI41
aI261
aI41
aI5260
aI7
aI2587
aI2194
aI2825
aI159
aI41
aI3
aI1565
aI2130
aI3
aI285
aI2895
aI3
aI626
aI2138
aI3249
aI6680
aI5
aI3202
aI2022
aI8281
aI63765
asg6
S'The Forum was attended by senior ministers from more than 100 countries  as well as representatives of multilateral aid institutions such as the European Commission (EuropeAid)  the World Bank  the United Nations (UN)  private foundations and civil society organisations .'
p11
ss.