(dp1
S'input'
p2
(dp3
S'encoded'
p4
(lp5
I64
aI2179
aI43
aI63
aI187
aI417
aI99
aI16642
aI3
aI6449
aI7
aI3935
asS'ori'
p6
S'This house believes that states should not subsidize the growing of tobacco'
p7
ssS'output'
p8
(dp9
g4
(lp10
I3
aI14821
aI116
aI419
aI3950
aI24
aI142
aI5
aI419
aI15463
aI311
aI3
aI1643
aI413
aI63765
asg6
S'The packaging is very contemporary in feel  and very feminine at the same time .'
p11
ss.