(dp1
S'input'
p2
(dp3
S'encoded'
p4
(lp5
I64
aI2179
aI394
aI190
aI3
aI21
aI45
aI3895
aI834
asS'ori'
p6
S'This house would limit the right to bear arms'
p7
ssS'output'
p8
(dp9
g4
(lp10
I3
aI1608
aI1379
aI2779
aI3
aI2211
aI2933
aI3
aI3264
aI19
aI3
aI2179
aI5
aI4012
aI134
aI736
aI3
aI2211
aI2014
aI63765
asg6
S'The next day  August 25  the Senate received the Amendment from the House and entered it into the Senate Journal .'
p11
ss.