(dp1
S'input'
p2
(dp3
S'encoded'
p4
(lp5
I64
aI2179
aI43
aI63
aI2157
aI2565
aI493
aI19084
aI382
aI4850
asS'ori'
p6
S"This house believes that Israel's 2008-2009 military operations against Gaza were justified"
p7
ssS'output'
p8
(dp9
g4
(lp10
I20392
aI15036
aI2157
aI7086
aI12412
aI24
aI1523
aI7
aI3
aI4160
aI24
aI492
aI4001
aI3
aI2180
aI63
aI273
aI116
aI443
aI650
aI4981
aI63
aI31296
aI295
aI382
aI416
aI131
aI42
aI116
aI7
aI234
aI63
aI100
aI372
aI2938
aI416
aI24
aI3
aI2513
aI440
aI100
aI5612
aI7
aI31296
aI2887
aI3815
aI350
aI7
aI31298
aI6500
aI5
aI6698
aI24
aI10504
aI9403
aI24
aI89
aI14335
aI13366
aI63765
asg6
S'Colonel Lane  military expert testifying in front of the fact-finding mission in July 2009  told the committee that there is no actual proof that DIME rounds were used  but he is of view that some weapons systems used in the conflict had some sort of DIME component  citing evidence of tungsten  iron  and sulfur in samples analyzed in a forensic lab .'
p11
ss.