(dp1
S'input'
p2
(dp3
S'encoded'
p4
(lp5
I64
aI2179
aI43
aI63
aI187
aI417
aI99
aI16642
aI3
aI6449
aI7
aI3935
asS'ori'
p6
S'This house believes that states should not subsidize the growing of tobacco'
p7
ssS'output'
p8
(dp9
g4
(lp10
I24
aI1849
aI380
aI3727
aI24
aI132
aI3210
aI11
aI10955
aI493
aI3935
aI2885
aI63765
asg6
S'In response  various activists in these markets have campaigned against tobacco products .'
p11
ss.