(dp1
S'input'
p2
(dp3
S'encoded'
p4
(lp5
I64
aI2179
aI394
aI5370
aI223
aI4013
aI10440
aI2446
aI4881
aI75
aI14482
aI11004
asS'ori'
p6
S'This house would abolish all collective bargaining rights claimed by trades unions'
p7
ssS'output'
p8
(dp9
g4
(lp10
I2784
aI534
aI3
aI1896
aI81
aI2856
aI9107
aI45
aI3322
aI4266
aI19
aI3
aI6426
aI260
aI63
aI155
aI382
aI10984
aI45
aI18477
aI63765
asg6
S'"The Act required the few non-labourers who sought entry to obtain certification from the Chinese government that they were qualified to immigrate .'
p11
ss.