(dp1
S'input'
p2
(dp3
S'encoded'
p4
(lp5
I64
aI2179
aI43
aI63
aI6670
aI546
aI417
aI316
aI89
aI1334
aI3108
aI7
aI4849
aI1886
aI2855
asS'ori'
p6
S'This house believes that wind power should be a primary focus of future energy supply'
p7
ssS'output'
p8
(dp9
g4
(lp10
I64
aI116
aI1021
aI45
aI3
aI782
aI7
aI6670
aI5109
aI14
aI15
aI1514
aI5
aI1673
aI6930
aI6932
aI63765
asg6
S'This is due to the effect of wind turbines on both horizontal and vertical atmospheric circulation .'
p11
ss.