(dp1
S'input'
p2
(dp3
S'encoded'
p4
(lp5
I64
aI2179
aI394
aI4325
aI2042
aI270
aI89
aI11605
aI3324
asS'ori'
p6
S'This house would fund education using a voucher scheme'
p7
ssS'output'
p8
(dp9
g4
(lp10
I755
aI3
aI16181
aI417
aI316
aI73
aI116
aI1260
aI116
aI725
aI3319
aI63
aI260
aI2987
aI116
aI2867
aI45
aI5271
aI192
aI807
aI63
aI116
aI557
aI45
aI316
aI51
aI5533
aI296
aI7
aI2897
aI11551
aI45
aI1260
aI192
aI2747
aI63765
asg6
S'Whether the marketplace should be or is free is disputed; many assert that government intervention is necessary to remedy market failure that is held to be an inevitable result of absolute adherence to free market principles .'
p11
ss.