(dp1
S'input'
p2
(dp3
S'encoded'
p4
(lp5
I64
aI2179
aI43
aI63
aI3
aI21
aI45
aI12715
aI417
aI99
aI316
aI2897
asS'ori'
p6
S'This house believes that the right to asylum should not be absolute'
p7
ssS'output'
p8
(dp9
g4
(lp10
I1592
aI3
aI3151
aI24894
aI24
aI2790
aI6410
aI5
aI3123
aI24
aI1191
aI292
aI2639
aI78
aI3009
aI45
aI9944
aI24
aI3
aI4705
aI2467
aI63765
asg6
S'Following the communist takeovers in Vietnam  Cambodia  and Laos in 1975  about three million people attempted to escape in the subsequent decades .'
p11
ss.