(dp1
S'input'
p2
(dp3
S'encoded'
p4
(lp5
I64
aI2179
aI43
aI63
aI3376
aI4938
aI417
aI316
aI3537
asS'ori'
p6
S'This house believes that endangered species should be protected'
p7
ssS'output'
p8
(dp9
g4
(lp10
I4066
aI4839
aI7371
aI463
aI737
aI45
aI4532
aI92
aI394
aI918
aI3218
aI710
aI45
aI1706
aI33836
aI3964
aI7311
aI5
aI6757
aI493
aI136
aI12633
aI7438
aI5
aI23570
aI2438
aI63765
asg6
S'Diverse genetic material could cease to exist which would impact our ability to further hybridize food crops and livestock against more resistant diseases and climatic changes  .'
p11
ss.