(dp1
S'input'
p2
(dp3
S'encoded'
p4
(lp5
I64
aI2179
aI43
aI63
aI2659
aI417
aI1690
aI3
aI12048
aI7
aI19084
asS'ori'
p6
S'This house believes that Israel should lift the blockade of Gaza'
p7
ssS'output'
p8
(dp9
g4
(lp10
I6056
aI2219
aI768
aI23359
aI5
aI5768
aI3
aI2414
aI24
aI282
aI2743
aI7
aI3
aI5739
aI63765
asg6
S'Israeli forces then raided and seized the Gaza-bound ships in international waters of the Mediterranean  .'
p11
ss.