(dp1
S'input'
p2
(dp3
S'encoded'
p4
(lp5
I64
aI2179
aI43
aI8629
aI116
aI3
aI117
aI998
asS'ori'
p6
S'This house believes atheism is the only way'
p7
ssS'output'
p8
(dp9
g4
(lp10
I8505
aI5711
aI8380
aI1308
aI60189
aI122
aI4546
aI7
aI7196
aI34
aI13702
aI270
aI1445
aI1183
aI7
aI137
aI19
aI25
aI8383
aI34
aI3446
aI475
aI63765
asg6
S'Evangelical Christian pastor Jim Bakker was convicted of fraud for improperly using large amounts of money from his congregation for personal use .'
p11
ss.