(dp1
S'input'
p2
(dp3
S'encoded'
p4
(lp5
I64
aI2179
aI43
aI63
aI3376
aI4938
aI417
aI316
aI3537
asS'ori'
p6
S'This house believes that endangered species should be protected'
p7
ssS'output'
p8
(dp9
g4
(lp10
I6847
aI3
aI217
aI8666
aI918
aI63
aI5166
aI2945
aI55
aI14
aI78
aI116
aI3
aI852
aI7
aI725
aI4943
aI7826
aI3205
aI63765
asg6
S'Probably the most profound impact that habitat destruction has on people is the loss of many valuable ecosystem services .'
p11
ss.