(dp1
S'input'
p2
(dp3
S'encoded'
p4
(lp5
I64
aI2179
aI43
aI63
aI3376
aI4938
aI417
aI316
aI3537
asS'ori'
p6
S'This house believes that endangered species should be protected'
p7
ssS'output'
p8
(dp9
g4
(lp10
I3
aI2148
aI7798
aI2994
aI88
aI316
aI2151
aI1727
aI166
aI138
aI3
aI35
aI4304
aI7798
aI2994
aI63765
asg6
S'The global extinction rate may be approximately 100 000 times higher than the natural background extinction rate  .'
p11
ss.