(dp1
S'input'
p2
(dp3
S'encoded'
p4
(lp5
I64
aI2179
aI43
aI63
aI7382
aI116
aI400
aI4713
asS'ori'
p6
S'This house believes that bribery is sometimes acceptable'
p7
ssS'output'
p8
(dp9
g4
(lp10
I97
aI1025
aI116
aI45
aI342
aI51
aI8583
aI658
aI63
aI3
aI171
aI116
aI1864
aI4722
aI1191
aI3
aI3661
aI63765
asg6
S'Another reason is to show an angry public that the Party is doing something about the problem  .'
p11
ss.