(dp1
S'input'
p2
(dp3
S'encoded'
p4
(lp5
I64
aI2179
aI43
aI8629
aI116
aI3
aI117
aI998
asS'ori'
p6
S'This house believes atheism is the only way'
p7
ssS'output'
p8
(dp9
g4
(lp10
I8301
aI187
aI63
aI42
aI394
aI1385
aI3787
aI1578
aI252
aI3530
aI8495
aI8496
aI63765
asg6
S'Dawkins states that he would prefer traditions taught without imposing demonstrable falsehoods .'
p11
ss.