(dp1
S'input'
p2
(dp3
S'encoded'
p4
(lp5
I64
aI2179
aI394
aI5370
aI3
aI5286
asS'ori'
p6
S'This house would abolish the monarchy'
p7
ssS'output'
p8
(dp9
g4
(lp10
I2359
aI103
aI63
aI6243
aI182
aI99
aI4914
aI63765
asg6
S'Republicans claim that monarchs are not accountable .'
p11
ss.