(dp1
S'input'
p2
(dp3
S'encoded'
p4
(lp5
I64
aI2179
aI43
aI63
aI3
aI28431
aI7
aI2157
aI4624
aI75
aI39939
aI27257
aI122
aI4850
asS'ori'
p6
S'This house believes that the leaking of military documents by Anat Kamm was justified'
p7
ssS'output'
p8
(dp9
g4
(lp10
I604
aI7
aI3
aI2146
aI7595
aI580
aI7
aI2548
aI187
aI150
aI2702
aI34
aI2203
aI60
aI4229
aI2635
aI5
aI2755
aI116
aI717
aI4024
aI14
aI1022
aI249
aI5
aI5123
aI3539
aI63765
asg6
S'Because of the highly competitive nature of nation states  national security for countries with significant resources and value is based largely on technical measures and operational processes .'
p11
ss.