(dp1
S'input'
p2
(dp3
S'encoded'
p4
(lp5
I64
aI2179
aI43
aI63
aI3376
aI4938
aI417
aI316
aI3537
asS'ori'
p6
S'This house believes that endangered species should be protected'
p7
ssS'output'
p8
(dp9
g4
(lp10
I3
aI912
aI4304
aI7798
aI2994
aI116
aI2845
aI45
aI316
aI93
aI4938
aI1928
aI1896
aI2439
aI63765
asg6
S'The current background extinction rate is estimated to be one species every few years  .'
p11
ss.