(dp1
S'input'
p2
(dp3
S'encoded'
p4
(lp5
I64
aI2179
aI394
aI5284
aI150
aI3987
asS'ori'
p6
S'This house would reintroduce national service'
p7
ssS'output'
p8
(dp9
g4
(lp10
I273
aI182
aI1237
aI3290
aI1480
aI17874
aI24
aI89
aI4276
aI1003
aI19
aI3
aI22
aI2381
aI45
aI839
aI3364
aI63765
asg6
S'There are several methods commonly utilized in a counter-recruitment campaign  ranging from the political speech to direct action .'
p11
ss.