(dp1
S'input'
p2
(dp3
S'encoded'
p4
(lp5
I64
aI2179
aI394
aI117
aI7428
aI21151
aI34
aI11389
aI2042
aI24
aI4364
asS'ori'
p6
S'This house would only teach abstinence for sex education in schools'
p7
ssS'output'
p8
(dp9
g4
(lp10
I256
aI63
aI7071
aI21151
aI41
aI3
aI117
aI4713
aI8935
aI34
aI5865
aI17092
aI3363
aI3
aI23369
aI7
aI11389
asg6
S'programs that stress abstinence as the only acceptable behavior for unmarried teens delayed the initiation of sex'
p11
ss.