(dp1
S'input'
p2
(dp3
S'encoded'
p4
(lp5
I64
aI2179
aI394
aI4325
aI2042
aI270
aI89
aI11605
aI3324
asS'ori'
p6
S'This house would fund education using a voucher scheme'
p7
ssS'output'
p8
(dp9
g4
(lp10
I833
aI174
aI186
aI63
aI2240
aI4662
aI24
aI3
aI399
aI7
aI11604
aI463
aI296
aI24
aI3819
aI136
aI138
aI89
aI34
aI725
aI5
aI6374
aI5743
aI1719
aI2376
aI271
aI5268
aI45
aI3249
aI4364
aI60
aI7294
aI5743
aI843
aI121
aI45
aI1456
aI13052
aI73
aI121
aI45
aI1616
aI5136
aI24
aI421
aI45
aI3
aI11604
aI63765
asg6
S'Opponents also argue that school choice in the form of vouchers could result in nothing more than a cash-handout for many middle-class and wealthy families already sending their kids to private schools  with disadvantaged families either unable to secure enrollment or unable to cover costs in addition to the vouchers  .'
p11
ss.