(dp1
S'input'
p2
(dp3
S'encoded'
p4
(lp5
I64
aI2179
aI235
aI3858
aI3
aI2240
aI4527
aI3485
aI45
asS'ori'
p6
S'This house supports raising the school leaving age to 18'
p7
ssS'output'
p8
(dp9
g4
(lp10
I1343
aI89
aI2637
aI3168
aI7
aI2042
aI2981
aI40
aI3
aI3445
aI7
aI3905
aI139
aI316
aI416
aI45
aI15508
aI5
aI17116
aI3
aI157
aI7
aI7279
aI1191
aI40
aI5
aI61
aI78
aI7434
aI63765
asg6
S'.For example  a cultural theory of education shows how the concept of culture can be used to organize and unify the variety of facts about how and what people learn .'
p11
ss.