(dp1
S'input'
p2
(dp3
S'encoded'
p4
(lp5
I64
aI2179
aI43
aI63
aI134
aI116
aI400
aI21
aI34
aI3
aI260
aI45
aI3439
aI57
aI7
aI2381
asS'ori'
p6
S'This house believes that it is sometimes right for the government to restrict freedom of speech'
p7
ssS'output'
p8
(dp9
g4
(lp10
I24
aI6014
aI1309
aI626
aI187
aI2503
aI7509
aI2130
aI9579
aI4883
aI617
aI24
aI51
aI3500
aI24
aI10596
aI6934
aI3234
aI3
aI3575
aI14743
aI63
aI116
aI89
aI2034
aI24
aI3
aI626
aI187
aI5
aI63
aI42
aI244
aI60
aI3
aI5404
aI75
aI380
aI2923
aI5726
aI63
aI3953
aI122
aI2195
aI45
aI134
aI131
aI2580
aI81
aI116
aI1864
aI217
aI7
aI3
aI63765
asg6
S'In 1969 Nicholas Johnson  United States Federal Communications Commission (FCC) commissioner  put forward in an article in TV Guide entitled The Silent Screen that "Censorship is a serious problem" in the United States  and that he agreed with the statements by various network officials that television was subject to it  but disputed "just who is doing most of the censoring" .'
p11
ss.