(dp1
S'input'
p2
(dp3
S'encoded'
p4
(lp5
I64
aI2179
aI394
aI2741
aI3
aI1560
aI6025
aI2784
asS'ori'
p6
S'This house would pass the American Jobs Act'
p7
ssS'output'
p8
(dp9
g4
(lp10
I516
aI3073
aI182
aI174
aI119
aI19
aI3
aI260
aI159
aI41
aI3
aI196
aI197
aI8386
aI4453
aI905
aI119
aI19
aI3
aI5354
aI7
aI6194
aI2702
aI545
aI3
aI2145
aI63765
aI2176
aI7
aI203
aI7517
aI477
aI4445
aI63765
asg6
S'Additional data are also available from the government  such as the unemployment insurance weekly claims report available from the Office of Workforce Security  within the U .S . Department of Labor Employment & Training Administration  .'
p11
ss.