(dp1
S'input'
p2
(dp3
S'encoded'
p4
(lp5
I64
aI2179
aI43
aI223
aI2138
aI11
aI89
aI21
aI45
aI2185
aI372
asS'ori'
p6
S'This house believes all nations have a right to nuclear weapons'
p7
ssS'output'
p8
(dp9
g4
(lp10
I420
aI63765
aI21670
aI5605
aI117
aI93
aI2497
aI366
aI92
aI3
aI27120
aI122
aI9270
aI75
aI267
aI36580
aI34
aI4374
aI869
aI3
aI4412
aI59646
aI59647
aI557
aI3
aI1028
aI19
aI45
aI1688
aI75
aI809
aI6273
aI2135
aI2161
aI11890
aI40421
aI81
aI5605
aI19
aI45
aI63765
asg6
S'Mr . Cole served only one term  after which the IAEA was headed by two Swedes for nearly four decades: the scientist Sigvard Eklund held the job from 1961 to 1981  followed by former Swedish Foreign Minister Hans Blix  who served from 1981 to 1997 .'
p11
ss.