(dp1
S'input'
p2
(dp3
S'encoded'
p4
(lp5
I64
aI2179
aI43
aI17
aI4941
aI857
aI3211
asS'ori'
p6
S'This house believes social deprivation causes crime'
p7
ssS'output'
p8
(dp9
g4
(lp10
I3
aI4285
aI11
aI45
aI316
aI12090
aI19
aI305
aI3
aI3135
aI70
aI5
aI13336
aI257
aI155
aI1453
aI63765
asg6
S'the criminals have to be prevented from breaking the criminal law and punished if they do .'
p11
ss.