(dp1
S'input'
p2
(dp3
S'encoded'
p4
(lp5
I64
aI2179
aI43
aI63
aI3
aI21
aI45
aI12715
aI417
aI99
aI316
aI2897
asS'ori'
p6
S'This house believes that the right to asylum should not be absolute'
p7
ssS'output'
p8
(dp9
g4
(lp10
I3
aI807
aI7
aI3
aI2784
aI45
aI6476
aI7586
aI14
aI9452
aI34
aI270
aI1968
aI6941
aI122
aI2056
aI4669
aI75
aI3
aI2610
aI12715
aI5
aI12420
aI2784
aI92
aI123
aI89
aI667
aI3202
aI12472
aI34
aI9452
aI81
aI12533
aI1968
aI6941
aI5
aI2341
aI3135
aI4603
aI7
aI20416
aI1246
aI51
aI1968
aI3213
aI63765
asg6
S'The failure of the 1999 Act to impose fines on employers for using illegal workers was now addressed by the Immigration  Asylum and Nationality Act 2006 which created a new Civil penalty for employers who hired illegal workers (Section 15)  and separate criminal offence of knowingly employing an illegal worker  (Section 21) .'
p11
ss.