(dp1
S'input'
p2
(dp3
S'encoded'
p4
(lp5
I64
aI2179
aI43
aI63
aI3
aI4990
aI4991
aI116
aI4850
aI24
aI12166
aI3
aI475
aI7
aI3532
aI3290
aI7
aI4714
asS'ori'
p6
S'This house believes that the Catholic Church is justified in forbidding the use of barrier methods of contraception'
p7
ssS'output'
p8
(dp9
g4
(lp10
I233
aI45
aI3031
aI25168
aI25789
aI4801
aI440
aI1199
aI3
aI18150
aI620
aI4895
aI3
aI8410
aI7
aI5480
aI463
aI316
aI63765
asg6
S'According to historian Geoffrey Blainey  Mary had become the "favoured intermediary through whom the ear of God could be reached" .'
p11
ss.