(dp1
S'input'
p2
(dp3
S'encoded'
p4
(lp5
I64
aI2179
aI394
aI60
aI23587
asS'ori'
p6
S'This house would re-engage with Myanmar'
p7
ssS'output'
p8
(dp9
g4
(lp10
I3
aI7058
aI382
aI99
aI1607
aI75
aI3609
aI3136
aI73
aI2135
aI220
aI63765
asg6
S'The protests were not brought by opposition groups  or foreign governments .'
p11
ss.