(dp1
S'input'
p2
(dp3
S'encoded'
p4
(lp5
I64
aI2179
aI235
aI839
aI4168
aI7
aI4996
aI34759
asS'ori'
p6
S'This house supports direct election of city mayors'
p7
ssS'output'
p8
(dp9
g4
(lp10
I4275
aI24
aI3382
aI45
aI10662
aI3
aI901
aI7
aI2990
aI8828
aI14
aI2871
aI45
aI316
aI59
aI60
aI89
aI136
aI279
aI145
aI7
aI2132
aI5409
aI5
aI9170
aI63765
asg6
S'Voters in Stoke-on-Trent voted to remove the post of elected mayor on 23 October 2008  to be replaced with a more common system of council leader and cabinet  .'
p11
ss.