(dp1
S'input'
p2
(dp3
S'encoded'
p4
(lp5
I64
aI2179
aI43
aI63
aI3
aI21
aI45
aI12715
aI417
aI99
aI316
aI2897
asS'ori'
p6
S'This house believes that the right to asylum should not be absolute'
p7
ssS'output'
p8
(dp9
g4
(lp10
I3
aI4072
aI122
aI45
aI949
aI2888
aI4788
aI24
aI1804
aI20505
aI493
aI120
aI78
aI2614
aI1968
aI23530
aI63765
asg6
S'The unit was to develop essential expertise in bringing prosecutions against those people smuggling illegal entrants .'
p11
ss.