(dp1
S'input'
p2
(dp3
S'encoded'
p4
(lp5
I64
aI2179
aI394
aI5370
aI223
aI4013
aI10440
aI2446
aI4881
aI75
aI14482
aI11004
asS'ori'
p6
S'This house would abolish all collective bargaining rights claimed by trades unions'
p7
ssS'output'
p8
(dp9
g4
(lp10
I18420
aI18386
aI55
aI441
aI5810
aI2232
aI10129
aI2263
aI134
aI20152
aI493
aI134
aI5
aI2302
aI3955
aI14
aI40
aI45
aI1576
aI6941
aI5587
aI63765
asg6
S'Fred Thompson has written  "Capitalists believed revolution imminent  feared it  legislated against it and bought books on how to keep workers happy .'
p11
ss.