(dp1
S'input'
p2
(dp3
S'encoded'
p4
(lp5
I64
aI2179
aI394
aI1499
aI3
aI8115
aI34564
aI17106
asS'ori'
p6
S'This house would build the Keystone XL pipeline'
p7
ssS'output'
p8
(dp9
g4
(lp10
I24
aI64
aI1869
aI3
aI261
aI116
aI4883
aI620
aI7404
aI7
aI5126
aI17814
aI39706
aI5
aI2579
aI2410
aI63765
asg6
S'In this method  the well is put through cycles of steam injection  soak  and oil production .'
p11
ss.