(dp1
S'input'
p2
(dp3
S'encoded'
p4
(lp5
I64
aI2179
aI394
aI3830
aI3
aI475
aI7
aI9441
aI13132
aI3102
aI24
aI276
aI381
asS'ori'
p6
S'This house would permit the use of performance enhancing drugs in professional sports'
p7
ssS'output'
p8
(dp9
g4
(lp10
I3
aI475
aI7
aI43993
aI938
aI19
aI773
aI577
aI122
aI2428
aI2867
aI45
aI3514
aI9381
aI13438
aI2538
aI3
aI381
aI3031
aI18513
aI43994
aI63765
asg6
S'The use of strychnine  far from being banned  was thought necessary to survive demanding races  says the sports historian Alain Lunzenfichter  .'
p11
ss.