(dp1
S'input'
p2
(dp3
S'encoded'
p4
(lp5
I64
aI2179
aI394
aI5842
aI3569
aI446
aI13498
asS'ori'
p6
S'This house would introduce year round schooling'
p7
ssS'output'
p8
(dp9
g4
(lp10
I4702
aI153
aI133
aI63
aI257
aI31900
aI3862
aI88
aI367
aI736
aI3135
aI73
aI224
aI364
aI159
aI41
aI73
aI63765
asg6
S'Proponents often believe that if unsupervised  children may fall into criminal or undesirable activity such as drug-taking or teenage-sex  .'
p11
ss.