(dp1
S'input'
p2
(dp3
S'encoded'
p4
(lp5
I64
aI2179
aI394
aI2998
aI3
aI4360
aI7
aI3249
aI6804
aI24
aI3
aI102
asS'ori'
p6
S'This house would encourage the creation of private universities in the UK'
p7
ssS'output'
p8
(dp9
g4
(lp10
I260
aI54
aI7436
aI41
aI89
aI3016
aI7
aI5914
aI3592
aI19
aI684
aI159
aI41
aI10425
aI5
aI351
aI4750
aI139
aI24
aI6174
aI4574
aI45
aI4680
aI3
aI10425
aI4200
aI145
aI311
aI351
aI413
aI63765
asg6
S'Government regulation arises as a condition of accepting funding from bodies such as HEFCE and any university can in principle choose to leave the HEFCE regulated system at any time  .'
p11
ss.