(dp1
S'input'
p2
(dp3
S'encoded'
p4
(lp5
I64
aI2179
aI43
aI63
aI3
aI21
aI45
aI12715
aI417
aI99
aI316
aI2897
asS'ori'
p6
S'This house believes that the right to asylum should not be absolute'
p7
ssS'output'
p8
(dp9
g4
(lp10
I39841
aI122
aI11266
aI24
aI7
aI19088
aI3862
aI217
aI7
aI4895
aI382
aI7477
aI5349
aI5
aI108
aI63765
aI3
aI655
aI382
aI3862
aI5844
aI45
aI2439
aI19
aI3664
aI3249
aI5
aI626
aI2138
aI335
aI79
aI2904
aI19180
aI4364
aI24
aI2087
aI8434
aI5
aI380
aI40819
aI24
aI3
aI3912
aI2895
asg6
S'PTSD was diagnosed in 34 .1% of Palestinian children  most of whom were refugees  males  and working . The participants were 1 000 children aged 12 to 16 years from governmental  private  and United Nations Relief Work Agency UNRWA schools in East Jerusalem and various governorates in the West Bank '
p11
ss.