(dp1
S'input'
p2
(dp3
S'encoded'
p4
(lp5
I64
aI2179
aI43
aI17
aI4941
aI857
aI3211
asS'ori'
p6
S'This house believes social deprivation causes crime'
p7
ssS'output'
p8
(dp9
g4
(lp10
I17076
aI2248
aI2938
aI51
aI1185
aI2887
aI7
aI3135
aI2248
aI2938
aI182
aI4024
aI717
aI14
aI3
aI1361
aI24
aI4092
aI5
aI2466
aI63765
asg6
S'Juvenile justice systems  an important component of criminal justice systems  are largely based on the belief in rehabilitation and prevention .'
p11
ss.