(dp1
S'input'
p2
(dp3
S'encoded'
p4
(lp5
I64
aI2179
aI13605
aI2258
aI45
aI2194
asS'ori'
p6
S'This house prefers trade to aid'
p7
ssS'output'
p8
(dp9
g4
(lp10
I64
aI116
aI3
aI3440
aI368
aI2823
aI7
aI2891
aI63
aI55
aI12
aI1688
aI75
aI2203
aI159
aI41
aI2390
aI5
aI2450
aI63765
asg6
S'This is the standard western model of development that has been followed by countries such as China and India .'
p11
ss.