(dp1
S'input'
p2
(dp3
S'encoded'
p4
(lp5
I64
aI2179
aI43
aI63
aI2659
aI417
aI1690
aI3
aI12048
aI7
aI19084
asS'ori'
p6
S'This house believes that Israel should lift the blockade of Gaza'
p7
ssS'output'
p8
(dp9
g4
(lp10
I223
aI7
aI3
aI18471
aI382
aI19327
aI5
aI10103
aI45
aI760
aI8616
aI5
aI440
aI271
aI19129
aI8764
aI63765
asg6
S'All of the passengers were handcuffed and subjected to body searches and had their passports confiscated .'
p11
ss.