(dp1
S'input'
p2
(dp3
S'encoded'
p4
(lp5
I64
aI2179
aI43
aI63
aI3
aI4538
aI7
aI4434
aI7793
aI283
aI45
aI3586
aI417
aI316
aI577
asS'ori'
p6
S'This house believes that the sale of violent video games to minors should be banned'
p7
ssS'output'
p8
(dp9
g4
(lp10
I45
aI63
aI312
aI384
aI7793
aI319
aI7151
aI9103
aI2938
aI11
aI12
aI451
aI967
aI3
aI4999
aI63765
asg6
S'To that end  different video game content rating systems have been introduced across the globe .'
p11
ss.