(dp1
S'input'
p2
(dp3
S'encoded'
p4
(lp5
I64
aI2179
aI394
aI4261
aI8667
aI3
aI9361
aI5
aI17069
asS'ori'
p6
S'This house would prohibit burning the stars and stripes'
p7
ssS'output'
p8
(dp9
g4
(lp10
I751
aI3
aI2784
aI7
aI8667
aI89
aI5262
aI7733
aI122
aI1719
aI472
aI75
aI2145
aI63765
aI52262
aI27950
aI122
aI534
aI45
aI1378
aI3
aI7733
aI311
aI223
aI1727
aI5
aI351
aI2945
aI7
aI134
aI122
aI508
aI493
aI3
aI70
aI63765
asg6
S'Before 1965  the act of burning a draft card was already prohibited by U .S . statutethe registrant was required to carry the card at all times  and any destruction of it was thus against the law .'
p11
ss.