(dp1
S'input'
p2
(dp3
S'encoded'
p4
(lp5
I64
aI2179
aI394
aI1499
aI177
aI1819
aI34
aI160
asS'ori'
p6
S'This house would build high rises for housing'
p7
ssS'output'
p8
(dp9
g4
(lp10
I1021
aI45
aI2474
aI926
aI7160
aI47
aI843
aI1416
aI7180
aI45
aI2755
aI17839
aI7
aI289
aI34
aI24693
aI5491
aI7
aI149
aI138
aI6802
aI7052
aI3
aI5240
aI869
aI926
aI7160
aI47
aI99
aI7180
aI311
aI223
aI34
aI24693
aI5491
aI7
aI149
aI138
aI6802
aI7052
aI63765
asg6
S'Due to legislation  Australian banks will either apply loan to value ratios of over 70% for strata titles of less than 50 square metres  the big four Australian banks will not loan at all for strata titles of less than 30 square metres .'
p11
ss.