(dp1
S'input'
p2
(dp3
S'encoded'
p4
(lp5
I64
aI2179
aI394
aI2017
aI3807
aI314
aI3433
asS'ori'
p6
S'This house would ban partial birth abortions'
p7
ssS'output'
p8
(dp9
g4
(lp10
I2230
aI3
aI3254
aI752
aI41
aI89
aI3730
aI136
aI2625
aI96
aI134
aI138
aI96
aI3731
aI134
aI63765
asg6
S'Regarding the Roe decision as a whole  more Americans support it than support overturning it  .'
p11
ss.