(dp1
S'input'
p2
(dp3
S'encoded'
p4
(lp5
I64
aI2179
aI394
aI1499
aI177
aI1819
aI34
aI160
asS'ori'
p6
S'This house would build high rises for housing'
p7
ssS'output'
p8
(dp9
g4
(lp10
I223
aI7
aI3
aI35946
aI1693
aI382
aI174
aI8088
aI41
aI382
aI136
aI138
aI35944
aI63765
asg6
S"All of the estate's 27 maisonette blocks were also cleared  as were more than 100 bungalows ."
p11
ss.