(dp1
S'input'
p2
(dp3
S'encoded'
p4
(lp5
I64
aI2179
aI43
aI63
aI3
aI21
aI45
aI12715
aI417
aI99
aI316
aI2897
asS'ori'
p6
S'This house believes that the right to asylum should not be absolute'
p7
ssS'output'
p8
(dp9
g4
(lp10
I134
aI37470
aI207
aI3868
aI545
aI22772
aI5
aI3
aI2610
aI3987
aI311
aI3
aI413
aI5
aI122
aI6847
aI344
aI41
aI8160
aI20861
aI3659
aI958
aI138
aI41
aI89
aI4886
aI7454
aI63765
asg6
S'It excited little comment within IND and the Immigration Service at the time and was probably seen as blue sky thinking rather than as a realistic possibility .'
p11
ss.