(dp1
S'input'
p2
(dp3
S'encoded'
p4
(lp5
I64
aI2179
aI43
aI63
aI3376
aI4938
aI417
aI316
aI3537
asS'ori'
p6
S'This house believes that endangered species should be protected'
p7
ssS'output'
p8
(dp9
g4
(lp10
I8890
aI5
aI2136
aI1356
aI2100
aI2488
aI189
aI14
aI1413
aI2891
aI16
aI2234
aI158
aI10067
aI5
aI2667
aI4350
aI5
aI10400
aI34
aI4948
aI4585
aI2446
aI5
aI8724
aI5
aI2136
aI2389
aI159
aI41
aI7170
aI27850
aI73
aI7169
aI63765
asg6
S'Institutional and policy factors included formal pro-deforestation policies on land development (40%)  economic growth including colonization and infrastructure improvement (34%)  and subsidies for land-based activities (26%); property rights and land-tenure insecurity (44%); and policy failures such as corruption  lawlessness  or mismanagement (42%) .'
p11
ss.