(dp1
S'input'
p2
(dp3
S'encoded'
p4
(lp5
I64
aI2179
aI394
aI190
aI3
aI21
aI45
aI3895
aI834
asS'ori'
p6
S'This house would limit the right to bear arms'
p7
ssS'output'
p8
(dp9
g4
(lp10
I298
aI3
aI3263
aI3264
aI122
aI555
aI4233
aI495
aI89
aI63765
aI4234
aI7
aI4235
aI416
aI3
aI284
aI1998
aI5
aI4236
aI7
aI45
aI1074
aI3
aI237
aI784
aI4237
aI7
aI3
aI2029
aI7
aI2446
aI459
aI211
aI1795
aI5
aI1296
aI132
aI2446
aI493
aI10
aI2474
aI63765
asg6
S'When the Fourteenth Amendment was drafted  Representative John A . Bingham of Ohio used the Court\'s own phrase "privileges and immunities of citizens" to include the first Eight Amendments of the Bill of Rights under its protection and guard these rights against state legislation  .'
p11
ss.