(dp1
S'input'
p2
(dp3
S'encoded'
p4
(lp5
I64
aI2179
aI394
aI117
aI7428
aI21151
aI34
aI11389
aI2042
aI24
aI4364
asS'ori'
p6
S'This house would only teach abstinence for sex education in schools'
p7
ssS'output'
p8
(dp9
g4
(lp10
I3048
aI2722
aI7
aI11390
aI13843
aI1051
aI1360
aI63765
asg6
S'Worldwide  rates of teenage births range widely .'
p11
ss.