(dp1
S'input'
p2
(dp3
S'encoded'
p4
(lp5
I64
aI2179
aI43
aI8629
aI116
aI3
aI117
aI998
asS'ori'
p6
S'This house believes atheism is the only way'
p7
ssS'output'
p8
(dp9
g4
(lp10
I257
aI5480
aI98
aI3084
aI64
aI271
aI8087
aI1260
aI47
aI876
aI316
aI10936
aI73
aI20792
aI98
aI99
aI168
aI5
aI257
aI5480
aI98
aI99
aI3084
aI134
aI5480
aI88
aI99
aI316
aI18612
aI63765
asg6
S'If God does know this  their apparent free will might be illusory  or foreknowledge does not imply predestination; and if God does not know it  God may not be omniscient  .'
p11
ss.