(dp1
S'input'
p2
(dp3
S'encoded'
p4
(lp5
I64
aI2179
aI43
aI63
aI187
aI417
aI99
aI16642
aI3
aI6449
aI7
aI3935
asS'ori'
p6
S'This house believes that states should not subsidize the growing of tobacco'
p7
ssS'output'
p8
(dp9
g4
(lp10
I3
aI5938
aI55
aI47007
aI100
aI281
aI7519
aI158
aI89
aI1269
aI49334
aI24
aI5
aI51
aI7943
aI7
aI11192
aI11052
aI49335
aI24
aI131
aI116
aI2056
aI24
aI786
aI7
aI7810
aI6024
aI575
aI3
aI2755
aI7
aI3
aI1413
aI45
aI212
aI9313
aI9219
aI63765
asg6
S'The industry has weathered some major catastrophes  including a devastating hailstorm in 1929  and an epidemic of brown spot fungus in 2000  but is now in danger of disappearing altogether  given the value of the land to real estate speculators .'
p11
ss.