(dp1
S'input'
p2
(dp3
S'encoded'
p4
(lp5
I64
aI2179
aI43
aI8629
aI116
aI3
aI117
aI998
asS'ori'
p6
S'This house believes atheism is the only way'
p7
ssS'output'
p8
(dp9
g4
(lp10
I24
aI3
aI398
aI46925
aI46926
aI2244
aI3
aI3445
aI24
aI570
aI4594
aI24
aI6035
aI42
aI3470
aI226
aI24
aI89
aI5834
aI7568
aI397
aI285
aI2223
aI2236
aI92
aI382
aI99
aI221
aI658
aI487
aI2439
aI395
aI63765
asg6
S'In the 20th century Dietrich Bonhoeffer expressed the concept in similar terminology in letters he wrote while in a Nazi prison during World War II  which were not made public until years later  .'
p11
ss.