(dp1
S'input'
p2
(dp3
S'encoded'
p4
(lp5
I64
aI2179
aI394
aI190
aI3
aI21
aI45
aI3895
aI834
asS'ori'
p6
S'This house would limit the right to bear arms'
p7
ssS'output'
p8
(dp9
g4
(lp10
I14
aI3
aI248
aI1070
aI427
aI3
aI823
aI7
aI913
aI260
aI5
aI28092
aI60
aI3
aI28995
aI725
aI7
aI4895
aI382
aI809
aI3034
aI2223
aI2377
aI63765
asg6
S'Anti-federalists on the other hand took the side of limited government and sympathized with the rebels  many of whom were former Revolutionary War soldiers .'
p11
ss.