(dp1
S'input'
p2
(dp3
S'encoded'
p4
(lp5
I64
aI2179
aI43
aI63
aI134
aI116
aI400
aI21
aI34
aI3
aI260
aI45
aI3439
aI57
aI7
aI2381
asS'ori'
p6
S'This house believes that it is sometimes right for the government to restrict freedom of speech'
p7
ssS'output'
p8
(dp9
g4
(lp10
I134
aI235
aI1260
aI4640
aI7252
aI5722
aI1367
aI19
aI589
aI3
aI285
aI18311
aI16114
aI4027
aI14959
aI2196
aI5
aI193
aI51
aI282
aI781
aI7
aI7149
aI63765
asg6
S'It supports free expression  publishing distinguished writers from around the world  exposing suppressed stories  initiating debate  and providing an international record of censorship .'
p11
ss.