(dp1
S'input'
p2
(dp3
S'encoded'
p4
(lp5
I64
aI2179
aI394
aI4325
aI2042
aI270
aI89
aI11605
aI3324
asS'ori'
p6
S'This house would fund education using a voucher scheme'
p7
ssS'output'
p8
(dp9
g4
(lp10
I298
aI2200
aI755
aI147
aI417
aI316
aI547
aI45
aI284
aI4448
aI1374
aI3007
aI5008
aI51
aI851
aI1942
aI73
aI99
aI116
aI2233
aI1190
aI4771
aI63765
asg6
S'When asked whether individuals should be allowed to own machine guns  Paul responded  "Whether it\'s an automatic weapon or not is  I think  irrelevant .'
p11
ss.