(dp1
S'input'
p2
(dp3
S'encoded'
p4
(lp5
I64
aI2179
aI43
aI223
aI2138
aI11
aI89
aI21
aI45
aI2185
aI372
asS'ori'
p6
S'This house believes all nations have a right to nuclear weapons'
p7
ssS'output'
p8
(dp9
g4
(lp10
I34
aI3
aI6834
aI3
aI2802
aI122
aI24
aI759
aI1942
aI4537
aI122
aI637
aI1483
aI11893
aI5
aI24
aI759
aI159
aI89
aI1942
aI155
aI1966
aI463
aI117
aI316
aI416
aI493
aI1445
aI2224
aI3162
aI5
aI463
aI508
aI117
aI316
aI416
aI41
aI89
aI1942
aI7
aI8579
aI63765
asg6
S'For the scientists the question was in part technical&mdash;the weapon design was still quite uncertain and unworkable&mdash;and in part moral: such a weapon  they argued  could only be used against large civilian populations  and could thus only be used as a weapon of genocide .'
p11
ss.