(dp1
S'input'
p2
(dp3
S'encoded'
p4
(lp5
I64
aI2179
aI394
aI2976
aI12243
aI24
aI954
aI126
aI1560
aI10723
asS'ori'
p6
S'This house would implement playoffs in collegiate level American football'
p7
ssS'output'
p8
(dp9
g4
(lp10
I7683
aI92
aI122
aI6867
aI9161
aI89
aI34949
aI12248
aI75
aI6658
aI7
aI211
aI7514
aI461
aI45
aI3
aI2422
aI20731
aI92
aI155
aI6196
aI45
aI13622
aI63765
asg6
S'Michigan  which was automatically guaranteed a BCS at-large berth by virtue of its #3 ranking  went to the Rose Bowl  which they lost to USC 32&ndash;18 .'
p11
ss.