(dp1
S'input'
p2
(dp3
S'encoded'
p4
(lp5
I64
aI2179
aI43
aI63
aI134
aI116
aI400
aI21
aI34
aI3
aI260
aI45
aI3439
aI57
aI7
aI2381
asS'ori'
p6
S'This house believes that it is sometimes right for the government to restrict freedom of speech'
p7
ssS'output'
p8
(dp9
g4
(lp10
I27949
aI646
aI63765
aI626
aI187
aI122
aI89
aI626
aI187
aI2482
aI2483
aI752
aI63
aI2484
aI3
aI11869
aI2784
aI7
aI5
aI3041
aI63
aI89
aI3341
aI500
aI99
aI11
aI89
aI237
aI3264
aI21
aI45
aI6564
aI57
aI7
aI2381
aI493
aI3
aI5262
aI397
aI285
aI2223
aI2233
aI63765
asg6
S'Schenck v . United States    was a United States Supreme Court decision that upheld the Espionage Act of 1917 and concluded that a defendant did not have a First Amendment right to express freedom of speech against the draft during World War I .'
p11
ss.