(dp1
S'input'
p2
(dp3
S'encoded'
p4
(lp5
I64
aI2179
aI394
aI2773
aI12505
asS'ori'
p6
S'This house would embrace multiculturalism'
p7
ssS'output'
p8
(dp9
g4
(lp10
I134
aI116
aI24
aI3
aI1059
aI2444
aI7
aI147
aI5
aI7
aI7275
aI41
aI89
aI3730
aI63
aI223
aI78
aI3128
aI45
aI89
aI2386
aI2823
aI34
aI2022
asg6
S'it is in the best interests of individuals and of humanity as a whole that all people adhere to a specific model for society'
p11
ss.