(dp1
S'input'
p2
(dp3
S'encoded'
p4
(lp5
I64
aI2179
aI43
aI24
aI3
aI475
aI7
aI12436
aI3364
asS'ori'
p6
S'This house believes in the use of affirmative action'
p7
ssS'output'
p8
(dp9
g4
(lp10
I13125
aI3026
aI99
aI117
aI5969
aI7
aI511
aI131
aI223
aI7
aI17
aI2248
aI41
aI89
aI63765
asg6
S'Hayek saw not only equality of opportunity but all of social justice as a "mirage"  .'
p11
ss.