(dp1
S'input'
p2
(dp3
S'encoded'
p4
(lp5
I64
aI2179
aI43
aI63
aI134
aI116
aI400
aI21
aI34
aI3
aI260
aI45
aI3439
aI57
aI7
aI2381
asS'ori'
p6
S'This house believes that it is sometimes right for the government to restrict freedom of speech'
p7
ssS'output'
p8
(dp9
g4
(lp10
I3757
aI45
aI5224
aI373
aI45
aI316
aI1058
aI41
aI125
aI7182
aI21
aI5
aI7186
aI7187
aI2233
aI63765
asg6
S'Access to information became to be regarded as basic consumer right and preventative disclosure  i .e .'
p11
ss.