(dp1
S'input'
p2
(dp3
S'encoded'
p4
(lp5
I64
aI2179
aI394
aI2998
aI3
aI4360
aI7
aI3249
aI6804
aI24
aI3
aI102
asS'ori'
p6
S'This house would encourage the creation of private universities in the UK'
p7
ssS'output'
p8
(dp9
g4
(lp10
I1706
aI45
aI3
aI658
aI6804
aI24
aI4281
aI3
aI2696
aI116
aI261
aI1047
aI34
aI211
aI3249
aI2042
aI145
aI63765
asg6
S'Further to the public Universities in Switzerland  the country is well known for its high-quality private education system .'
p11
ss.