(dp1
S'input'
p2
(dp3
S'encoded'
p4
(lp5
I64
aI2179
aI394
aI2773
aI12505
asS'ori'
p6
S'This house would embrace multiculturalism'
p7
ssS'output'
p8
(dp9
g4
(lp10
I4279
aI116
aI3
aI2378
aI1623
aI75
aI92
aI78
aI6900
aI24
aI2142
aI63765
asg6
S'Communication is the fundamental tool by which people interact in organizations .'
p11
ss.