(dp1
S'input'
p2
(dp3
S'encoded'
p4
(lp5
I64
aI2179
aI394
aI5370
aI3
aI5286
asS'ori'
p6
S'This house would abolish the monarchy'
p7
ssS'output'
p8
(dp9
g4
(lp10
I114
aI2089
aI5818
aI3
aI3304
aI7
aI5292
aI5
aI3
aI5450
aI2511
aI3393
aI2784
aI132
aI2477
aI4624
aI41
aI155
aI1416
aI45
aI667
aI6113
aI2056
aI10177
aI545
aI3
aI838
aI708
aI7
aI3
aI667
aI6113
aI4679
aI667
aI6113
aI174
aI244
aI99
aI45
aI1546
aI211
aI442
aI7
aI1692
aI252
aI3
aI745
aI654
aI7
aI3
aI248
aI5365
aI1375
aI3467
aI4527
aI3
aI2622
aI5286
aI89
aI1780
aI63
aI7177
aI27775
aI24
aI223
aI3
aI248
aI5365
aI158
aI3
aI626
aI2549
aI5
aI55
aI12
aI15862
aI45
aI89
aI2268
aI1365
aI132
aI2203
aI63765
asg6
S'Though  via adopting the Statute of Westminster and the Imperial Laws Application Act 1988  these constitutional documents as they apply to New Zealand now lie within the full control of the New Zealand parliament  New Zealand also agreed not to change its rules of succession without the unanimous consent of the other realms  unless explicitly leaving the shared monarchy relationship; a situation that applies symmetrically in all the other realms  including the United Kingdom  and has been likened to a treaty amongst these countries .'
p11
ss.