(dp1
S'input'
p2
(dp3
S'encoded'
p4
(lp5
I64
aI2179
aI394
aI5370
aI3
aI5286
asS'ori'
p6
S'This house would abolish the monarchy'
p7
ssS'output'
p8
(dp9
g4
(lp10
I14
aI2959
aI3
aI2029
aI122
aI661
aI311
aI211
aI237
aI4196
aI5
aI500
aI99
aI302
aI620
aI45
aI4145
aI2180
aI60
aI3
aI150
aI171
aI2784
aI171
aI869
aI2789
aI7
aI3
aI12417
aI171
aI5
aI10696
aI71
aI5
aI3
aI5428
aI14137
aI5
aI626
aI4849
aI171
aI5334
aI24
aI1170
aI63765
asg6
S'On 21 April 2010 the Bill was defeated at its first reading 68 - 53  and did not continue through to Select Committee with the National Party  Act Party  four members of the Maori Party and Progressives opposed and the Labour  Green and United Future party voting in favour .'
p11
ss.