(dp1
S'input'
p2
(dp3
S'encoded'
p4
(lp5
I64
aI2179
aI394
aI5284
aI150
aI3987
asS'ori'
p6
S'This house would reintroduce national service'
p7
ssS'output'
p8
(dp9
g4
(lp10
I41
aI7
aI88
aI3
aI720
aI2176
aI55
aI742
aI3
aI217
aI1856
aI399
aI7
aI5262
aI116
aI89
aI4604
aI950
aI5262
aI6847
aI7
aI3217
aI85
aI6941
aI63765
asg6
S'As of May 2003  the Defense Department has said the most likely form of draft is a special skills draft  probably of health care workers  .'
p11
ss.