(dp1
S'input'
p2
(dp3
S'encoded'
p4
(lp5
I64
aI2179
aI13605
aI2258
aI45
aI2194
asS'ori'
p6
S'This house prefers trade to aid'
p7
ssS'output'
p8
(dp9
g4
(lp10
I64
aI1035
aI116
aI1047
aI41
aI3
aI8932
aI63765
asg6
S'This contrast is known as the micro-macro paradox .'
p11
ss.