(dp1
S'input'
p2
(dp3
S'encoded'
p4
(lp5
I64
aI2179
aI43
aI63
aI1036
aI4828
aI33250
aI116
aI25073
aI45
aI3315
aI4562
asS'ori'
p6
S'This house believes that male infant circumcision is tantamount to child abuse'
p7
ssS'output'
p8
(dp9
g4
(lp10
I3
aI33218
aI116
aI768
aI2098
aI2089
aI3
aI37819
aI34903
aI45
aI14632
aI3
aI33220
aI1248
aI5
aI975
aI134
aI116
aI1876
aI63765
asg6
S'The foreskin is then opened via the preputial orifice to reveal the glans underneath and ensure it is normal .'
p11
ss.