(dp1
S'input'
p2
(dp3
S'encoded'
p4
(lp5
I64
aI2179
aI43
aI8629
aI116
aI3
aI117
aI998
asS'ori'
p6
S'This house believes atheism is the only way'
p7
ssS'output'
p8
(dp9
g4
(lp10
I5
aI3172
aI63
aI3
aI134
aI978
aI394
aI3
aI14610
aI5661
aI291
aI4991
aI5
aI10
aI63765
asg6
S'and argues that the "anti-tolerance" it represents would "dismantle" the Jeffersonian wall between church and state  .'
p11
ss.