(dp1
S'input'
p2
(dp3
S'encoded'
p4
(lp5
I64
aI2179
aI43
aI63
aI2157
aI2565
aI493
aI19084
aI382
aI4850
asS'ori'
p6
S"This house believes that Israel's 2008-2009 military operations against Gaza were justified"
p7
ssS'output'
p8
(dp9
g4
(lp10
I311
aI89
aI2935
aI2333
aI24
aI46050
aI89
aI94
aI7
aI27395
aI13668
aI7
aI3
aI10560
aI46051
aI869
aI11994
aI63765
asg6
S'At a news conference in Nablus  a group of 20 masked militants of the cell brandished four rockets .'
p11
ss.