(dp1
S'input'
p2
(dp3
S'encoded'
p4
(lp5
I64
aI2179
aI394
aI4325
aI2042
aI270
aI89
aI11605
aI3324
asS'ori'
p6
S'This house would fund education using a voucher scheme'
p7
ssS'output'
p8
(dp9
g4
(lp10
I12208
aI235
aI89
aI3991
aI3217
aI85
aI145
aI5
aI838
aI15837
aI34
aI3980
aI63765
asg6
S'Nader supports a universal single-payer health care system and full Medicare for everyone  .'
p11
ss.