(dp1
S'input'
p2
(dp3
S'encoded'
p4
(lp5
I64
aI2179
aI394
aI60
aI23587
asS'ori'
p6
S'This house would re-engage with Myanmar'
p7
ssS'output'
p8
(dp9
g4
(lp10
I3
aI48240
aI589
aI3
aI50553
aI50554
aI382
aI56
aI6002
aI4001
aI11005
aI131
aI2377
aI382
aI637
aI12056
aI311
aI3
aI869
aI31246
aI63765
asg6
S'The barricades around the Shwedagon Pagoda were removed  witnesses told Reuters  but soldiers were still stationed at the four entrances .'
p11
ss.