(dp1
S'input'
p2
(dp3
S'encoded'
p4
(lp5
I64
aI2179
aI235
aI3
aI2136
aI7
aI3
aI2306
aI7
aI2390
asS'ori'
p6
S'This house supports the one-child policy of the republic of China'
p7
ssS'output'
p8
(dp9
g4
(lp10
I3
aI2772
aI122
aI16330
aI34
aI3
aI10051
aI7
aI24
aI128
aI45
aI7219
aI63
aI93
aI463
aI713
aI89
aI905
aI397
aI3
aI2097
aI7807
aI7
aI3
aI169
aI4137
aI4758
aI7
aI17643
aI24
aI7
aI63
aI3569
aI5
aI3
aI2097
aI7807
aI7
aI3
aI1560
aI11397
aI2016
aI24
aI88
aI7
aI3
aI1643
aI3569
aI63765
asg6
S'The visit was projected for the spring of 2003 in order to assure that one could present a report during the annual meeting of the British Royal College of Psychiatrists in June/July of that year and the Annual Meeting of the American Psychiatric Association in May of the same year  .'
p11
ss.