(dp1
S'input'
p2
(dp3
S'encoded'
p4
(lp5
I64
aI2179
aI43
aI17
aI4941
aI857
aI3211
asS'ori'
p6
S'This house believes social deprivation causes crime'
p7
ssS'output'
p8
(dp9
g4
(lp10
I41
aI3
aI285
aI579
aI87
aI500
aI3
aI3060
aI736
aI17820
aI63765
asg6
S'As the world changed  so did the transition into adulthood .'
p11
ss.