(dp1
S'input'
p2
(dp3
S'encoded'
p4
(lp5
I64
aI2179
aI43
aI63
aI3
aI21
aI45
aI12715
aI417
aI99
aI316
aI2897
asS'ori'
p6
S'This house believes that the right to asylum should not be absolute'
p7
ssS'output'
p8
(dp9
g4
(lp10
I64
aI281
aI41706
aI5
aI6336
aI7
aI2610
aI70
aI5029
aI60
aI51
aI2282
aI7
aI3
aI2610
aI5721
aI6375
aI26623
aI1546
aI7
aI565
aI5
aI89
aI1546
aI7
aI1860
aI63765
asg6
S'This major reappraisal and consolidation of immigration law coincided with an expansion of the Immigration Branch administrative HQ  change of name and a change of location .'
p11
ss.