(dp1
S'input'
p2
(dp3
S'encoded'
p4
(lp5
I64
aI2179
aI394
aI2998
aI3
aI4360
aI7
aI3249
aI6804
aI24
aI3
aI102
asS'ori'
p6
S'This house would encourage the creation of private universities in the UK'
p7
ssS'output'
p8
(dp9
g4
(lp10
I116
aI1920
aI51
aI2695
aI23265
aI34
aI3
aI19093
aI29183
aI81
aI47
aI1057
aI45
aI161
aI19
aI2760
aI89
aI2323
aI7
aI773
aI419
aI15485
aI45
aI4320
aI1200
aI63765
asg6
S'(This is nevertheless an excellent bargain for the takeover artist  who will tend to benefit from developing a reputation of being very generous to parting top executives) .'
p11
ss.