(dp1
S'input'
p2
(dp3
S'encoded'
p4
(lp5
I64
aI2179
aI43
aI8629
aI116
aI3
aI117
aI998
asS'ori'
p6
S'This house believes atheism is the only way'
p7
ssS'output'
p8
(dp9
g4
(lp10
I1920
aI3
aI26
aI2933
aI1801
aI12427
aI19
aI29612
aI5047
aI3
aI26
aI440
aI51
aI582
aI715
aI7
aI864
aI7
aI226
aI407
aI3518
aI7
aI3955
aI3531
aI3866
aI8301
aI34
aI99
aI1864
aI89
aI3576
aI2041
aI736
aI3
aI4740
aI7
aI25
aI79
aI2382
aI5
aI1685
aI588
aI89
aI10446
aI460
aI45
aI163
aI25
aI3384
aI493
aI14523
aI3564
aI63765
asg6
S'Nevertheless  the book received mixed reviews from critics: Metacritic reported the book had an average score of 59 out of 100  while London Review of Books criticized Richard Dawkins for not doing a proper research into the topic of his work  religion  and setting up a straw man to make his arguments against theism valid  .'
p11
ss.