(dp1
S'input'
p2
(dp3
S'encoded'
p4
(lp5
I64
aI2179
aI43
aI63
aI3
aI28431
aI7
aI2157
aI4624
aI75
aI39939
aI27257
aI122
aI4850
asS'ori'
p6
S'This house believes that the leaking of military documents by Anat Kamm was justified'
p7
ssS'output'
p8
(dp9
g4
(lp10
I64
aI5029
aI60
aI320
aI2198
aI63
aI206
aI443
aI7066
aI2136
aI394
aI6729
aI864
aI1228
aI7371
aI60
aI19899
aI5
aI3018
aI73
aI8662
aI692
aI7
aI9192
aI362
aI63765
asg6
S'This coincided with early criticism that having no editorial policy would drive out good material with spam and promote "automated or indiscriminate publication of confidential records .'
p11
ss.