(dp1
S'input'
p2
(dp3
S'encoded'
p4
(lp5
I64
aI2179
aI394
aI2017
aI262
asS'ori'
p6
S'This house would ban boxing'
p7
ssS'output'
p8
(dp9
g4
(lp10
I89
aI288
aI974
aI3
aI405
aI45
aI975
aI63
aI964
aI475
aI117
aI976
aI592
aI63765
asg6
S'A referee monitors the fight to ensure that competitors use only legal blows .'
p11
ss.