(dp1
S'input'
p2
(dp3
S'encoded'
p4
(lp5
I64
aI2179
aI43
aI63
aI2659
aI417
aI1690
aI3
aI12048
aI7
aI19084
asS'ori'
p6
S'This house believes that Israel should lift the blockade of Gaza'
p7
ssS'output'
p8
(dp9
g4
(lp10
I311
aI15739
aI14
aI88
aI6056
aI5451
aI25108
aI19194
aI2414
aI7
aI3
aI2194
aI19184
aI45
aI3
aI6056
aI11571
aI7
aI19185
aI53
aI3
aI2414
aI382
aI25109
aI75
aI6056
aI5462
aI63765
asg6
S'At midday on 31 May 2010 Israeli Navy tugboats towed ships of the aid convoy to the Israeli port of Ashdod  where the ships were impounded by Israeli authorities .'
p11
ss.