(dp1
S'input'
p2
(dp3
S'encoded'
p4
(lp5
I64
aI2179
aI43
aI8629
aI116
aI3
aI117
aI998
asS'ori'
p6
S'This house believes atheism is the only way'
p7
ssS'output'
p8
(dp9
g4
(lp10
I3
aI2955
aI7
aI6427
aI5
aI18671
aI675
aI4224
aI116
aI93
aI7
aI3
aI1059
aI1047
aI18439
aI7
aI2382
aI63765
asg6
S'The construction of gods and spirits like persons is one of the best known traits of religion .'
p11
ss.