(dp1
S'input'
p2
(dp3
S'encoded'
p4
(lp5
I64
aI2179
aI43
aI63
aI187
aI417
aI99
aI16642
aI3
aI6449
aI7
aI3935
asS'ori'
p6
S'This house believes that states should not subsidize the growing of tobacco'
p7
ssS'output'
p8
(dp9
g4
(lp10
I378
aI64
aI350
aI417
aI99
aI14801
aI89
aI9495
aI9503
aI736
aI3
aI14833
aI887
aI3495
aI24
aI643
aI2203
aI63765
asg6
S'However  this evidence should not hinder a deeper look into the smoking among women in developed countries .'
p11
ss.