(dp1
S'input'
p2
(dp3
S'encoded'
p4
(lp5
I64
aI2179
aI43
aI63
aI3
aI4991
aI7
aI180
aI417
aI316
aI5396
aI19
aI3
aI169
aI10
asS'ori'
p6
S'This house believes that the Church of England should be separated from the British state'
p7
ssS'output'
p8
(dp9
g4
(lp10
I15896
aI43
aI63
aI3
aI2145
aI63765
aI2922
aI14
aI5612
aI7
aI16111
aI2382
aI92
aI1501
aI89
aI1361
aI24
aI89
aI10934
aI81
aI1796
aI7
aI2206
asg6
S'Wood believes that the U .S . operates on "a sort of civic religion " which includes a generally-shared belief in a creator who "expects better of us ."'
p11
ss.