(dp1
S'input'
p2
(dp3
S'encoded'
p4
(lp5
I64
aI2179
aI43
aI63
aI2157
aI2565
aI493
aI19084
aI382
aI4850
asS'ori'
p6
S"This house believes that Israel's 2008-2009 military operations against Gaza were justified"
p7
ssS'output'
p8
(dp9
g4
(lp10
I217
aI2190
aI24
aI4232
aI2659
aI999
aI111
aI987
aI7
aI3
aI3900
aI1523
aI2636
aI60
aI14855
aI892
aI51
aI2845
aI2639
aI24
aI3
aI237
aI3427
aI2487
aI63765
asg6
S'Most business in Southern Israel stopped upon orders of the Home Front Command  with retailers losing an estimated $7 million in the first week alone .'
p11
ss.