(dp1
S'input'
p2
(dp3
S'encoded'
p4
(lp5
I64
aI2179
aI235
aI3
aI2136
aI7
aI3
aI2306
aI7
aI2390
asS'ori'
p6
S'This house supports the one-child policy of the republic of China'
p7
ssS'output'
p8
(dp9
g4
(lp10
I6449
aI3162
aI9073
aI1886
aI2879
aI5
aI3964
aI7520
aI47
aI836
aI3
aI75
aI233
aI45
aI3
aI102
aI260
aI2217
aI4412
aI63765
asg6
S'Growing populations  falling energy sources and food shortages will create the "perfect storm" by 2030  according to the UK government chief scientist .'
p11
ss.