(dp1
S'input'
p2
(dp3
S'encoded'
p4
(lp5
I64
aI2179
aI394
aI16756
aI20435
asS'ori'
p6
S'This house would criminalize blasphemy'
p7
ssS'output'
p8
(dp9
g4
(lp10
I134
aI417
aI316
aI13224
aI63
aI5761
aI658
aI3357
aI1713
aI45
aI132
aI223
aI3
aI19923
aI189
aI5
aI1647
aI620
aI2468
aI258
aI63765
asg6
S'It should be ensured that Muslim public opinion react to these all the Anti-Islamist broadcasts  policies and acts through peaceful means .'
p11
ss.