(dp1
S'input'
p2
(dp3
S'encoded'
p4
(lp5
I64
aI2179
aI394
aI4261
aI8667
aI3
aI9361
aI5
aI17069
asS'ori'
p6
S'This house would prohibit burning the stars and stripes'
p7
ssS'output'
p8
(dp9
g4
(lp10
I24
aI2927
aI28062
aI2791
aI5144
aI4696
aI1804
aI3
aI697
aI1620
aI45
aI1980
aI24
aI2790
aI89
aI32028
aI7
aI2419
aI63765
asg6
S'In March 1966  Holt announced troop increases bringing the total commitment to 4 500 men in Vietnam  a tripling of effort  .'
p11
ss.