(dp1
S'input'
p2
(dp3
S'encoded'
p4
(lp5
I64
aI2179
aI235
aI3
aI2136
aI7
aI3
aI2306
aI7
aI2390
asS'ori'
p6
S'This house supports the one-child policy of the republic of China'
p7
ssS'output'
p8
(dp9
g4
(lp10
I3
aI7457
aI6856
aI7
aI2446
aI2773
aI77
aI2445
aI2446
aI63
aI182
aI1719
aI689
aI24
aI150
aI2511
aI282
aI2445
aI2446
aI4624
aI5
aI248
aI4825
aI626
aI2138
aI886
aI4624
aI63765
aI132
aI2446
aI573
aI14
aI3
aI2437
aI7
aI3
aI125
aI21
aI7
aI223
aI11003
aI5
aI147
aI45
aI790
aI3465
aI5
aI13739
aI3
aI696
aI17785
aI5
aI16567
aI7
aI271
aI3862
aI5
aI45
aI11
aI3
aI5224
aI5
aI258
aI45
aI1453
aI87
asg6
S'the 1994 Cairo Programme of Action: "reproductive rights embrace certain human rights that are already recognized in national laws  international human rights documents and other relevant United Nations consensus documents . These rights rest on the recognition of the basic right of all couples and individuals to decide freely and responsibly the number  spacing and timing of their children and to have the information and means to do so'
p11
ss.