(dp1
S'input'
p2
(dp3
S'encoded'
p4
(lp5
I64
aI2179
aI43
aI63
aI17574
aI417
aI316
aI3481
aI34
aI271
aI79
asS'ori'
p6
S'This house believes that housewives should be paid for their work'
p7
ssS'output'
p8
(dp9
g4
(lp10
I273
aI182
aI443
aI2010
aI17605
aI14
aI3
aI12197
aI7
aI574
aI378
aI5073
aI132
aI1486
aI7
aI79
aI139
aI316
aI513
aI41
aI6197
aI45
aI3
aI10947
aI7
aI2022
aI63765
asg6
S'There are no clear consensuses on the definitions of each category; however  broadly  these types of work can be considered as contributing to the reproduction of society .'
p11
ss.