(dp1
S'input'
p2
(dp3
S'encoded'
p4
(lp5
I64
aI2179
aI394
aI15841
aI2736
asS'ori'
p6
S'This house would disband ASEAN'
p7
ssS'output'
p8
(dp9
g4
(lp10
I3
aI2736
aI9595
aI55
aI443
aI976
aI254
aI45
aI14387
aI159
aI17029
aI87
aI17029
aI182
aI3272
aI29192
aI620
aI3246
aI258
aI73
aI620
aI6037
aI9596
aI63765
asg6
S'The ASEAN Secretariat has no legal authority to resolve such disputes  so disputes are resolved bilaterally through informal means or through dispute resolution .'
p11
ss.