(dp1
S'input'
p2
(dp3
S'encoded'
p4
(lp5
I64
aI2179
aI43
aI63
aI134
aI116
aI400
aI21
aI34
aI3
aI260
aI45
aI3439
aI57
aI7
aI2381
asS'ori'
p6
S'This house believes that it is sometimes right for the government to restrict freedom of speech'
p7
ssS'output'
p8
(dp9
g4
(lp10
I3
aI912
aI5711
aI12233
aI2248
aI2161
aI394
aI378
aI1385
aI45
aI14977
aI134
aI5
aI3209
aI134
aI45
aI1074
aI10988
aI7
aI3269
aI508
aI1609
aI134
aI748
aI45
aI1739
aI5
aI881
aI282
aI11517
aI570
aI45
aI3
aI1075
aI14852
aI4573
aI63765
asg6
S'The current Christian Democrat Justice Minister would however prefer to renew it and expand it to include non-religious philosophies of life  thus making it possible to anticipate and prevent international outcry similar to the Jyllands-Posten Muhammad cartoons controversy .'
p11
ss.