(dp1
S'input'
p2
(dp3
S'encoded'
p4
(lp5
I64
aI2179
aI394
aI4261
aI8667
aI3
aI9361
aI5
aI17069
asS'ori'
p6
S'This house would prohibit burning the stars and stripes'
p7
ssS'output'
p8
(dp9
g4
(lp10
I6249
aI2381
aI116
aI689
aI41
aI773
aI3537
aI459
aI3
aI237
aI3264
aI41
aI89
aI399
aI7
aI2381
aI131
aI64
aI116
aI99
aI2476
aI441
aI41
aI159
aI24
aI3
aI11558
aI63765
asg6
S'Symbolic speech is recognized as being protected under the First Amendment as a form of speech  but this is not expressly written as such in the document .'
p11
ss.