(dp1
S'input'
p2
(dp3
S'encoded'
p4
(lp5
I64
aI2179
aI43
aI63
aI6670
aI546
aI417
aI316
aI89
aI1334
aI3108
aI7
aI4849
aI1886
aI2855
asS'ori'
p6
S'This house believes that wind power should be a primary focus of future energy supply'
p7
ssS'output'
p8
(dp9
g4
(lp10
I24
aI155
aI480
aI89
aI7074
aI45
aI546
aI2900
aI7
aI3
aI7375
aI60
aI18071
aI24
aI3863
aI1560
aI63765
asg6
S'In 2009 they published A Plan to Power 100 Percent of the Planet With Renewables in Scientific American .'
p11
ss.