(dp1
S'input'
p2
(dp3
S'encoded'
p4
(lp5
I64
aI2179
aI394
aI117
aI7428
aI21151
aI34
aI11389
aI2042
aI24
aI4364
asS'ori'
p6
S'This house would only teach abstinence for sex education in schools'
p7
ssS'output'
p8
(dp9
g4
(lp10
I3935
aI652
aI1811
aI4439
aI3089
aI788
aI45
aI979
aI3
aI3217
aI4779
aI566
aI60
aI270
aI3935
aI946
aI55943
aI274
aI252
aI25167
aI3191
aI19
aI3935
aI5
aI13169
aI63765
asg6
S'Tobacco harm reduction describes actions taken to lower the health risks associated with using tobacco  especially combustible forms  without abstaining completely from tobacco and nicotine .'
p11
ss.