(dp1
S'input'
p2
(dp3
S'encoded'
p4
(lp5
I64
aI2179
aI43
aI63
aI3
aI4990
aI4991
aI116
aI4850
aI24
aI12166
aI3
aI475
aI7
aI3532
aI3290
aI7
aI4714
asS'ori'
p6
S'This house believes that the Catholic Church is justified in forbidding the use of barrier methods of contraception'
p7
ssS'output'
p8
(dp9
g4
(lp10
I14
aI1906
aI9630
aI742
aI3
aI6037
aI289
aI3
aI874
aI2047
aI2185
aI372
aI2326
aI417
aI316
aI3272
aI620
aI2952
aI24
aI25
aI237
aI658
aI3868
aI14
aI3
aI2702
aI845
aI89
aI2935
aI905
aI742
aI63765
asg6
S'On 13 November 2006  Benedict said the dispute over the North Korea nuclear weapons program should be resolved through negotiations  in his first public comment on the security issue  a news report said .'
p11
ss.