(dp1
S'input'
p2
(dp3
S'encoded'
p4
(lp5
I64
aI2179
aI43
aI63
aI2659
aI417
aI1690
aI3
aI12048
aI7
aI19084
asS'ori'
p6
S'This house believes that Israel should lift the blockade of Gaza'
p7
ssS'output'
p8
(dp9
g4
(lp10
I2274
aI2414
aI60
aI3727
aI382
aI1629
aI45
aI1958
aI34
aI19084
aI131
aI75
aI2116
aI3
aI696
aI7
aI4666
aI655
aI440
aI1472
aI45
aI3179
aI138
aI8945
aI89
aI1896
aI5104
aI5599
aI5
aI75
aI492
aI223
aI131
aI89
aI1896
aI5104
aI3727
aI440
aI3316
aI3900
aI63765
asg6
S'Initially  10 ships  with 1 000 activists were set to sail for Gaza  but by 28 June 2011  the number of expected participants had decreased to fewer than 300  plus a few dozen journalists  and by 7 July all but a few dozen activists had returned home  .'
p11
ss.