(dp1
S'input'
p2
(dp3
S'encoded'
p4
(lp5
I64
aI2179
aI43
aI63
aI6670
aI546
aI417
aI316
aI89
aI1334
aI3108
aI7
aI4849
aI1886
aI2855
asS'ori'
p6
S'This house believes that wind power should be a primary focus of future energy supply'
p7
ssS'output'
p8
(dp9
g4
(lp10
I5
aI1445
aI18120
aI88
aI99
aI316
aI513
aI3646
aI2879
aI7
aI2881
aI604
aI7
aI271
aI2034
aI17
aI5
aI6669
aI6788
aI63765
asg6
S'Hydro-energy and large dams may not be considered "clean" nor "renewable" sources of electricity because of their serious social and environmental impacts  .'
p11
ss.