(dp1
S'input'
p2
(dp3
S'encoded'
p4
(lp5
I64
aI2179
aI43
aI17
aI4941
aI857
aI3211
asS'ori'
p6
S'This house believes social deprivation causes crime'
p7
ssS'output'
p8
(dp9
g4
(lp10
I5072
aI22670
aI28357
aI5468
aI3
aI7
aI805
aI53
aI26255
aI55
aI6282
aI21
aI15105
aI3552
aI3
aI6174
aI63
aI3819
aI17346
aI136
aI138
aI3
aI11629
aI7
aI13996
aI63765
asg6
S'Whereas Jeremy Bentham advocated the "use of pain where shame has proved ineffective"  Right Realism advocates the principle that nothing deters more than the certainty of detection .'
p11
ss.