(dp1
S'input'
p2
(dp3
S'encoded'
p4
(lp5
I64
aI2179
aI43
aI63
aI187
aI417
aI99
aI16642
aI3
aI6449
aI7
aI3935
asS'ori'
p6
S'This house believes that states should not subsidize the growing of tobacco'
p7
ssS'output'
p8
(dp9
g4
(lp10
I3
aI2035
aI3611
aI63
aI14815
aI10873
aI139
aI4031
aI14
aI73
aI1295
aI100
aI7
aI3
aI7966
aI92
aI2507
aI394
aI2455
aI6227
aI73
aI2758
aI3839
aI63765
asg6
S'The study revealed that cigarette smoke can turn on or off some of the genes  which otherwise would remain inactive or active respectively .'
p11
ss.