(dp1
S'input'
p2
(dp3
S'encoded'
p4
(lp5
I64
aI2179
aI43
aI223
aI2138
aI11
aI89
aI21
aI45
aI2185
aI372
asS'ori'
p6
S'This house believes all nations have a right to nuclear weapons'
p7
ssS'output'
p8
(dp9
g4
(lp10
I3
aI943
aI2131
aI606
aI2939
aI2940
aI19
aI3
aI2206
aI89
aI831
aI513
aI75
aI725
aI41
aI89
aI839
aI1849
aI45
aI1560
aI34815
aI2940
aI606
aI24
aI2670
aI63765
asg6
S'The Soviet Union placed medium-range ballistic missiles from the US - a move considered by many as a direct response to American Jupiter missiles placed in Turkey .'
p11
ss.