(dp1
S'input'
p2
(dp3
S'encoded'
p4
(lp5
I64
aI2179
aI43
aI63
aI3376
aI4938
aI417
aI316
aI3537
asS'ori'
p6
S'This house believes that endangered species should be protected'
p7
ssS'output'
p8
(dp9
g4
(lp10
I24
aI3
aI2068
aI1257
aI7076
aI11
aI12
aI1989
aI34
aI850
aI136
aI7831
aI545
aI89
aI575
aI639
aI7
aI413
aI138
aI1978
aI751
aI63765
asg6
S'In the recent past  humans have been responsible for causing more extinctions within a given period of time than ever before .'
p11
ss.