(dp1
S'input'
p2
(dp3
S'encoded'
p4
(lp5
I64
aI2179
aI394
aI163
aI959
aI2042
aI3557
asS'ori'
p6
S'This house would make physical education compulsory'
p7
ssS'output'
p8
(dp9
g4
(lp10
I132
aI5460
aI2830
aI41
aI15
aI89
aI3578
aI5
aI3347
aI760
aI63765
asg6
S'These meetings serve as both a legislative and judicial body .'
p11
ss.