(dp1
S'input'
p2
(dp3
S'encoded'
p4
(lp5
I64
aI2179
aI394
aI190
aI3
aI21
aI45
aI3895
aI834
asS'ori'
p6
S'This house would limit the right to bear arms'
p7
ssS'output'
p8
(dp9
g4
(lp10
I34
aI1343
aI3
aI5879
aI2533
aI4591
aI1009
aI4237
aI93
aI7
aI92
aI2853
aI3
aI21
aI7
aI3
aI78
aI45
aI316
aI2218
aI97
aI60
aI3
aI3988
aI63765
asg6
S'For example  the Pennsylvania convention debated fifteen amendments  one of which concerned the right of the people to be armed  another with the militia .'
p11
ss.