(dp1
S'input'
p2
(dp3
S'encoded'
p4
(lp5
I64
aI2179
aI394
aI3830
aI3
aI475
aI7
aI9441
aI13132
aI3102
aI24
aI276
aI381
asS'ori'
p6
S'This house would permit the use of performance enhancing drugs in professional sports'
p7
ssS'output'
p8
(dp9
g4
(lp10
I2234
aI13922
aI12269
aI139
aI316
aI416
aI75
aI34907
aI63668
aI45
aI1029
aI3862
aI60
aI2234
aI807
aI63765
asg6
S'Growth stimulation: Anabolic steroids can be used by pediatric endocrinologists to treat children with growth failure  .'
p11
ss.