(dp1
S'input'
p2
(dp3
S'encoded'
p4
(lp5
I64
aI2179
aI394
aI16642
aI1376
aI5269
asS'ori'
p6
S'This house would subsidize poor communities'
p7
ssS'output'
p8
(dp9
g4
(lp10
I29512
aI2449
aI2438
aI24
aI112
aI2363
aI5
aI9
aI127
aI967
aI3926
aI17788
aI19
aI3
aI620
aI3
aI63765
asg6
S'Mead compared changes in income levels and welfare benefits across urban dwellers from the 1960s through the 1980s .'
p11
ss.