(dp1
S'input'
p2
(dp3
S'encoded'
p4
(lp5
I64
aI2179
aI43
aI63
aI6670
aI546
aI417
aI316
aI89
aI1334
aI3108
aI7
aI4849
aI1886
aI2855
asS'ori'
p6
S'This house believes that wind power should be a primary focus of future energy supply'
p7
ssS'output'
p8
(dp9
g4
(lp10
I24
aI327
aI4136
aI7
aI5806
aI7
aI78
aI11
aI2664
aI24
aI6670
aI6738
aI967
aI3
aI2696
aI5
aI5806
aI7
aI1488
aI5
aI7152
aI6939
aI7762
aI182
aI6864
aI482
aI3224
aI24
aI89
aI667
aI7935
aI63
aI24
aI1779
aI78
aI5
aI2590
aI2900
aI7
aI2881
asg6
S"In Germany  hundreds of thousands of people have invested in citizens' wind farms across the country and thousands of small and medium sized enterprises are running successful businesses in a new sector that in 2008 employed 90 000 people and generated 8 percent of Germany's electricity "
p11
ss.