(dp1
S'input'
p2
(dp3
S'encoded'
p4
(lp5
I64
aI2179
aI43
aI63
aI1036
aI4828
aI33250
aI116
aI25073
aI45
aI3315
aI4562
asS'ori'
p6
S'This house believes that male infant circumcision is tantamount to child abuse'
p7
ssS'output'
p8
(dp9
g4
(lp10
I233
aI45
aI34909
aI5
aI18474
aI34912
aI1068
aI45
aI776
aI3
aI21
aI45
aI89
aI2468
aI734
aI122
aI1607
aI45
aI5958
aI75
aI2019
aI63765
aI5812
aI34913
aI24
aI25
aI3256
aI79
aI314
aI252
aI63765
asg6
S'According to Milos and Donna Macris  "The need to defend the baby\'s right to a peaceful beginning was brought to light by Dr . Frederick Leboyer in his landmark work  Birth Without Violence"  .'
p11
ss.