(dp1
S'input'
p2
(dp3
S'encoded'
p4
(lp5
I64
aI2179
aI43
aI8629
aI116
aI3
aI117
aI998
asS'ori'
p6
S'This house believes atheism is the only way'
p7
ssS'output'
p8
(dp9
g4
(lp10
I13886
aI89
aI4943
aI6658
aI139
aI117
aI4532
aI257
aI273
aI116
aI4871
aI63765
asg6
S'Compassion  a valuable virtue  can only exist if there is suffering .'
p11
ss.