(dp1
S'input'
p2
(dp3
S'encoded'
p4
(lp5
I64
aI2179
aI394
aI3830
aI3
aI475
aI7
aI9441
aI13132
aI3102
aI24
aI276
aI381
asS'ori'
p6
S'This house would permit the use of performance enhancing drugs in professional sports'
p7
ssS'output'
p8
(dp9
g4
(lp10
I12283
aI6570
aI24
aI248
aI2203
aI2538
aI3
aI7086
aI1136
aI44103
aI15
aI3151
aI5
aI210
aI131
aI3
aI4900
aI60
aI2087
aI327
aI122
aI63
aI134
aI122
aI89
aI10
aI2136
aI63765
asg6
S'Doping existed in other countries  says the expert Jean-Pierre de Mondenard  both communist and capitalist  but the difference with East Germany was that it was a state policy  .'
p11
ss.