(dp1
S'input'
p2
(dp3
S'encoded'
p4
(lp5
I64
aI2179
aI43
aI63
aI2157
aI2565
aI493
aI19084
aI382
aI4850
asS'ori'
p6
S"This house believes that Israel's 2008-2009 military operations against Gaza were justified"
p7
ssS'output'
p8
(dp9
g4
(lp10
I22
aI5260
aI34
aI16619
aI2763
aI14619
aI3
aI31203
aI31204
aI3
aI939
aI1382
aI1523
aI3
aI3034
aI3151
aI171
aI19088
aI5667
aI7210
aI6381
aI5
aI89
aI696
aI7
aI248
aI19088
aI9303
aI24
aI6129
aI4316
aI89
aI1788
aI2266
aI397
aI3
aI20031
aI41
aI261
aI63765
asg6
S"Political representatives for Hamas  Islamic Jihad  the PFLP  Saiqa  the Popular Struggle Front  the Revolutionary Communist Party  Palestinian Liberation Organisation  Fatah's 'Intifada' faction  and a number of other Palestinian factions in Syria formed a temporary alliance during the offensive as well ."
p11
ss.