(dp1
S'input'
p2
(dp3
S'encoded'
p4
(lp5
I64
aI2179
aI394
aI4325
aI2042
aI270
aI89
aI11605
aI3324
asS'ori'
p6
S'This house would fund education using a voucher scheme'
p7
ssS'output'
p8
(dp9
g4
(lp10
I809
aI5428
aI9170
aI2161
aI3673
aI61326
aI5468
aI89
aI570
aI131
aI6045
aI145
aI92
aI394
aI1985
aI2446
aI45
aI5743
aI45
aI2909
aI1546
aI2240
aI34
aI89
aI1796
aI4364
aI87
aI3
aI1796
aI2240
aI1808
aI3592
aI19
aI11388
aI4364
aI63765
asg6
S'Former Labour Cabinet minister  Alan Milburn  advocated a similar but fairer system which would give rights to low-income families to actually change school for a better schools so the better school gains funding from failing schools .'
p11
ss.