(dp1
S'input'
p2
(dp3
S'encoded'
p4
(lp5
I64
aI2179
aI43
aI63
aI6670
aI546
aI417
aI316
aI89
aI1334
aI3108
aI7
aI4849
aI1886
aI2855
asS'ori'
p6
S'This house believes that wind power should be a primary focus of future energy supply'
p7
ssS'output'
p8
(dp9
g4
(lp10
I5105
aI6776
aI5
aI2565
aI182
aI153
aI615
aI41
aI759
aI7
aI3
aI4268
aI3262
aI45
aI1292
aI73
aI6789
aI6788
aI14
aI2874
aI4938
aI5
aI271
aI6790
aI63765
asg6
S'Turbine locations and operations are often modified as part of the approval process to avoid or minimise impacts on threatened species and their habitats .'
p11
ss.