(dp1
S'input'
p2
(dp3
S'encoded'
p4
(lp5
I64
aI2179
aI394
aI5370
aI223
aI4013
aI10440
aI2446
aI4881
aI75
aI14482
aI11004
asS'ori'
p6
S'This house would abolish all collective bargaining rights claimed by trades unions'
p7
ssS'output'
p8
(dp9
g4
(lp10
I138
aI150
aI12616
aI11004
aI382
aI685
aI397
aI3
aI5
aI320
aI63765
asg6
S'"More than 30 national craft unions were established during the 1860s and early \'70s .'
p11
ss.