(dp1
S'input'
p2
(dp3
S'encoded'
p4
(lp5
I64
aI2179
aI394
aI2773
aI12505
asS'ori'
p6
S'This house would embrace multiculturalism'
p7
ssS'output'
p8
(dp9
g4
(lp10
I459
aI42905
aI223
aI7076
aI11
aI378
aI2231
aI2981
aI63
aI2437
aI7
aI132
aI2446
aI116
aI99
aI9161
aI63765
asg6
S'Under cosmopolitanism  all humans have rights; however  history shows that recognition of these rights is not guaranteed .'
p11
ss.