(dp1
S'input'
p2
(dp3
S'encoded'
p4
(lp5
I64
aI2179
aI235
aI3
aI2136
aI7
aI3
aI2306
aI7
aI2390
asS'ori'
p6
S'This house supports the one-child policy of the republic of China'
p7
ssS'output'
p8
(dp9
g4
(lp10
I3
aI3760
aI2446
aI7
aI3495
aI182
aI5182
aI24
aI3
aI4659
aI7
aI3
aI21
aI45
aI57
aI19
aI4933
aI5
aI3
aI17
aI5
aI16
aI2554
aI7
aI3495
aI63765
aI3
aI94
aI2891
aI3149
aI60
aI3495
aI34
aI89
aI667
aI681
aI12955
aI3
aI3063
aI24
aI3
aI1592
aI708
aI289
aI10947
aI116
aI89
aI125
aI1068
aI5
aI89
aI125
aI21
aI34
aI223
aI3495
aI63765
aI6212
aI41
aI134
aI116
aI45
aI3217
aI5
aI17
aI2554
aI41
aI261
aI41
aI3
aI1173
aI17
aI5143
aI7
aI2382
aI10
aI708
aI5
aI6375
aI23695
aI5
aI3249
aI14147
aI134
aI116
aI19
aI3
aI4921
aI7
aI1376
aI3495
aI63
aI64
aI21
aI139
aI1059
aI316
aI4635
aI5
aI4063
asg6
S"The reproductive rights of women are advanced in the context of the right to freedom from discrimination and the social and economic status of women . The group Development Alternatives with Women for a New Era (DAWN) explained the link in the following statement: Control over reproduction is a basic need and a basic right for all women . Linked as it is to women's health and social status  as well as the powerful social structures of religion  state control and administrative inertia  and private profit  it is from the perspective of poor women that this right can best be understood and affirmed"
p11
ss.