(dp1
S'input'
p2
(dp3
S'encoded'
p4
(lp5
I64
aI2179
aI394
aI190
aI3
aI21
aI45
aI3895
aI834
asS'ori'
p6
S'This house would limit the right to bear arms'
p7
ssS'output'
p8
(dp9
g4
(lp10
I7
aI3
aI4013
aI2446
aI2823
aI63
aI835
aI63
aI3
aI21
aI45
aI834
aI116
aI717
aI14
aI3988
aI3834
aI3
aI2145
aI63765
aI2482
aI2483
aI24
aI3898
aI440
aI64
aI45
aI63765
asg6
S'Of the collective rights model that holds that the right to arms is based on militia membership  the U .S . Supreme Court  in Heller  had this to say:  .'
p11
ss.