(dp1
S'input'
p2
(dp3
S'encoded'
p4
(lp5
I64
aI2179
aI43
aI63
aI3376
aI4938
aI417
aI316
aI3537
asS'ori'
p6
S'This house believes that endangered species should be protected'
p7
ssS'output'
p8
(dp9
g4
(lp10
I3
aI10505
aI782
aI139
aI316
aI5396
aI736
aI3
aI595
aI11560
aI7
aI10656
aI89
aI4938
aI63
aI116
aI10797
aI261
aI45
aI1341
aI3328
aI3020
aI73
aI7
aI89
aI595
aI4835
aI3223
aI63765
asg6
S'The sampling effect can be separated into the greater likelihood of selecting a species that is 1) adapted well to particular site conditions  or 2) of a greater inherent productivity .'
p11
ss.