(dp1
S'input'
p2
(dp3
S'encoded'
p4
(lp5
I64
aI2179
aI394
aI2773
aI12505
asS'ori'
p6
S'This house would embrace multiculturalism'
p7
ssS'output'
p8
(dp9
g4
(lp10
I3
aI6174
aI7
aI229
aI2446
aI116
aI3
aI117
aI3292
aI1548
aI7
aI223
aI3136
aI73
aI956
aI63765
asg6
S'The principle of individual rights is the only moral base of all groups or associations .'
p11
ss.