(dp1
S'input'
p2
(dp3
S'encoded'
p4
(lp5
I64
aI2179
aI394
aI2976
aI12243
aI24
aI954
aI126
aI1560
aI10723
asS'ori'
p6
S'This house would implement playoffs in collegiate level American football'
p7
ssS'output'
p8
(dp9
g4
(lp10
I691
aI3
aI6090
aI7
aI3
aI20731
aI1011
aI290
aI273
aI11
aI12
aI1237
aI22198
aI2230
aI3
aI4364
aI3473
aI45
aI6004
aI24
aI3
aI34949
aI150
aI1011
aI319
aI63765
asg6
S'Since the formation of the Bowl Championship Series  there have been several controversies regarding the schools selected to participate in the BCS National Championship Game .'
p11
ss.