(dp1
S'input'
p2
(dp3
S'encoded'
p4
(lp5
I64
aI2179
aI13605
aI2258
aI45
aI2194
asS'ori'
p6
S'This house prefers trade to aid'
p7
ssS'output'
p8
(dp9
g4
(lp10
I24
aI282
aI2202
aI2194
aI1047
aI41
aI282
aI2194
aI8273
aI2194
aI73
aI2135
aI116
aI89
aI3164
aI1649
aI7
aI2635
aI19
aI93
aI2696
aI45
aI97
aI575
aI311
aI870
aI5195
aI60
aI3
aI4676
aI7
aI1008
aI3
aI2936
aI2696
aI63765
asg6
S'In international relations  aid (also known as international aid  overseas aid  or foreign aid) is a voluntary transfer of resources from one country to another  given at least partly with the objective of benefiting the recipient country .'
p11
ss.