(dp1
S'input'
p2
(dp3
S'encoded'
p4
(lp5
I64
aI2179
aI394
aI9385
aI2497
aI447
aI14
aI3
aI3578
aI5721
aI7
aI260
asS'ori'
p6
S'This house would enforce term limits on the legislative branch of government'
p7
ssS'output'
p8
(dp9
g4
(lp10
I14
aI2871
aI3
aI5884
aI2221
aI2227
aI89
aI2180
aI7
aI8747
aI45
aI7114
aI274
aI7
aI260
aI34
aI3
aI18482
aI2131
aI7
aI3
aI187
aI63765
asg6
S'On October 2  1789  the Continental Congress appointed a committee of thirteen to examine forms of government for the impending union of the states .'
p11
ss.