(dp1
S'input'
p2
(dp3
S'encoded'
p4
(lp5
I64
aI2179
aI394
aI190
aI3
aI21
aI45
aI3895
aI834
asS'ori'
p6
S'This house would limit the right to bear arms'
p7
ssS'output'
p8
(dp9
g4
(lp10
I3
aI4165
aI681
aI2427
aI4166
aI19
aI2164
aI4167
aI4168
aI487
aI3
aI67
aI845
aI373
aI941
aI366
aI63765
asg6
S"The Jacksonian Era lasted roughly from President Andrew Jackson's 1828 election until the slavery issue became dominant after 1850 ."
p11
ss.