(dp1
S'input'
p2
(dp3
S'encoded'
p4
(lp5
I64
aI2179
aI43
aI24
aI3
aI475
aI7
aI12436
aI3364
asS'ori'
p6
S'This house believes in the use of affirmative action'
p7
ssS'output'
p8
(dp9
g4
(lp10
I10250
aI4933
aI12407
aI291
aI147
aI14
aI3
aI2259
aI7
aI212
aI5
aI4359
aI10250
aI3802
aI5
aI55
aI12
aI878
aI260
aI2136
aI24
aI1237
aI2203
aI159
aI41
aI12408
aI667
aI6628
aI24
aI3
aI7431
aI681
aI63765
asg6
S'Racial discrimination differentiates between individuals on the basis of real and perceived racial differences  and has been official government policy in several countries  such as Papa New Guinea in the apartheid era .'
p11
ss.