(dp1
S'input'
p2
(dp3
S'encoded'
p4
(lp5
I64
aI2179
aI394
aI60
aI23587
asS'ori'
p6
S'This house would re-engage with Myanmar'
p7
ssS'output'
p8
(dp9
g4
(lp10
I24
aI89
aI965
aI2179
aI3419
aI42
aI11
aI12
aI13225
aI5
aI3178
aI63765
asg6
S'In a White House statement he said: "Monks have been beaten and killed .'
p11
ss.