(dp1
S'input'
p2
(dp3
S'encoded'
p4
(lp5
I64
aI2179
aI394
aI3830
aI3
aI475
aI7
aI9441
aI13132
aI3102
aI24
aI276
aI381
asS'ori'
p6
S'This house would permit the use of performance enhancing drugs in professional sports'
p7
ssS'output'
p8
(dp9
g4
(lp10
I89
aI3518
aI7268
aI3
aI8367
aI2992
aI119
aI311
aI63
aI413
aI174
aI353
aI63
aI132
aI440
aI928
aI89
aI3063
aI291
aI1243
aI5
aI12350
aI475
aI131
aI6833
aI864
aI63
aI60
aI6826
aI7
aI289
aI93
aI2639
aI1257
aI73
aI912
aI12350
aI1517
aI24
aI3
aI626
aI187
aI311
aI63
aI413
aI51
aI449
aI1488
aI4442
aI7
aI120
aI270
aI12269
aI2931
aI45
aI11
aI1004
aI1043
aI6742
aI5012
aI868
aI45
aI296
aI24
aI7119
aI8143
aI73
aI2015
aI33
aI2962
aI63765
asg6
S'A 1996 review examining the blind studies available at that time also found that these had demonstrated a link between aggression and steroid use  but pointed out that with estimates of over one million past or current steroid users in the United States at that time  an extremely small percentage of those using steroids appear to have experienced mental disturbance severe enough to result in clinical treatments or medical case reports  .'
p11
ss.