(dp1
S'input'
p2
(dp3
S'encoded'
p4
(lp5
I64
aI2179
aI394
aI5370
aI7146
aI4585
aI2446
asS'ori'
p6
S'This house would abolish intellectual property rights'
p7
ssS'output'
p8
(dp9
g4
(lp10
I24
aI223
aI2203
aI53
aI3
aI24171
aI2533
aI2140
aI1416
aI12717
aI116
aI851
aI5
aI1068
aI99
aI316
aI4867
aI620
aI878
aI4294
aI60
aI351
aI260
aI5354
aI63765
asg6
S'In all countries where the Berne Convention standards apply  copyright is automatic  and need not be obtained through official registration with any government office .'
p11
ss.