(dp1
S'input'
p2
(dp3
S'encoded'
p4
(lp5
I64
aI2179
aI43
aI17
aI4941
aI857
aI3211
asS'ori'
p6
S'This house believes social deprivation causes crime'
p7
ssS'output'
p8
(dp9
g4
(lp10
I725
aI6367
aI1367
aI11
aI416
aI3
aI3168
aI7
aI3
aI210
aI10
aI24
aI271
aI3384
aI63765
asg6
S'Many Marxist writers have used the theory of the capitalist state in their arguments .'
p11
ss.