(dp1
S'input'
p2
(dp3
S'encoded'
p4
(lp5
I64
aI2179
aI394
aI16756
aI20435
asS'ori'
p6
S'This house would criminalize blasphemy'
p7
ssS'output'
p8
(dp9
g4
(lp10
I64
aI6417
aI55
aI37357
aI100
aI376
aI887
aI22777
aI1902
aI5
aI3
aI414
aI116
aI89
aI279
aI33
aI416
aI34
aI896
aI792
aI63765
asg6
S"This usage has garnered some interest among linguists recently  and the word 'blasphemy' is a common case used for illustrative purposes  ."
p11
ss.