(dp1
S'input'
p2
(dp3
S'encoded'
p4
(lp5
I64
aI2179
aI43
aI63
aI7382
aI116
aI400
aI4713
asS'ori'
p6
S'This house believes that bribery is sometimes acceptable'
p7
ssS'output'
p8
(dp9
g4
(lp10
I4184
aI45
aI3
aI11577
aI5
aI747
aI788
aI75
aI3
aI16840
aI311
aI211
aI1950
aI9621
aI3
aI16840
aI122
aI4666
aI45
aI16846
aI14
aI1277
aI214
aI2230
aI3518
aI7
aI3
aI2877
aI7
aI3
aI2533
aI9003
aI9449
aI5
aI1022
aI115
aI63765
asg6
S'Pursuant to the resolutions and decisions taken by the CoSP at its second session  the CoSP was expected to concentrate on key issues regarding review of the implementation of the Convention  asset recovery and technical assistance .'
p11
ss.