(dp1
S'input'
p2
(dp3
S'encoded'
p4
(lp5
I64
aI2179
aI43
aI63
aI3
aI21
aI45
aI12715
aI417
aI99
aI316
aI2897
asS'ori'
p6
S'This house believes that the right to asylum should not be absolute'
p7
ssS'output'
p8
(dp9
g4
(lp10
I3
aI2087
aI5025
aI2203
aI14
aI10350
aI2776
aI5535
aI89
aI2136
aI7
aI41699
aI63
aI534
aI6049
aI45
aI12940
aI271
aI5528
aI45
aI3
aI667
aI10
aI63765
asg6
S'The East African countries  on attaining independence  pursued a policy of Africanization that required residents to demonstrate their allegiance to the new state .'
p11
ss.