(dp1
S'input'
p2
(dp3
S'encoded'
p4
(lp5
I64
aI2179
aI394
aI2741
aI3
aI1560
aI6025
aI2784
asS'ori'
p6
S'This house would pass the American Jobs Act'
p7
ssS'output'
p8
(dp9
g4
(lp10
I5683
aI196
aI88
aI316
aI344
aI41
aI89
aI90
aI7
aI8875
aI196
aI691
aI134
aI116
aI89
aI1380
aI7
aI196
aI63
aI116
aI6212
aI45
aI77
aI5208
aI7
aI6025
aI79
aI6810
aI6677
aI63765
asg6
S'Seasonal unemployment may be seen as a kind of structural unemployment  since it is a type of unemployment that is linked to certain kinds of jobs (construction work  migratory farm work) .'
p11
ss.