(dp1
S'input'
p2
(dp3
S'encoded'
p4
(lp5
I64
aI2179
aI394
aI2998
aI3
aI4360
aI7
aI3249
aI6804
aI24
aI3
aI102
asS'ori'
p6
S'This house would encourage the creation of private universities in the UK'
p7
ssS'output'
p8
(dp9
g4
(lp10
I134
aI139
aI9036
aI3
aI2190
aI89
aI47261
aI3060
aI639
aI397
aI92
aI134
aI139
aI1054
aI9478
aI45
aI192
aI1458
aI63765
asg6
S'It can offer the business a smoother transition period during which it can gradually adjust to market competition .'
p11
ss.