(dp1
S'input'
p2
(dp3
S'encoded'
p4
(lp5
I64
aI2179
aI13605
aI2258
aI45
aI2194
asS'ori'
p6
S'This house prefers trade to aid'
p7
ssS'output'
p8
(dp9
g4
(lp10
I5450
aI2280
aI394
aI11
aI136
aI4662
aI7595
aI24
aI2203
aI19
aI92
aI155
aI463
aI12015
aI16674
aI5941
aI138
aI120
aI2203
aI394
aI11
aI24
aI8866
aI5563
aI7500
aI324
aI41
aI5450
aI2203
aI440
aI3
aI2906
aI7
aI3
aI2351
aI2635
aI5
aI6016
aI45
aI14476
aI61983
aI63765
asg6
S"Imperial powers would have more choice (more competitive market) in countries from which they could acquire raw materials than those countries would have in buying final goods  particularly as imperial countries had the bulk of the world's financial resources and chose to behave oligopolistically ."
p11
ss.