(dp1
S'input'
p2
(dp3
S'encoded'
p4
(lp5
I64
aI2179
aI43
aI8629
aI116
aI3
aI117
aI998
asS'ori'
p6
S'This house believes atheism is the only way'
p7
ssS'output'
p8
(dp9
g4
(lp10
I42
aI3083
aI75
aI34623
aI63
aI3
aI16407
aI7
aI2247
aI116
aI99
aI1640
aI93
aI134
aI116
aI89
aI16407
aI980
aI221
aI5
aI89
aI16407
aI63
aI1577
aI136
aI330
aI45
aI84
aI3
aI136
aI134
aI116
aI92
aI116
aI6668
aI87
aI725
aI34624
aI2056
aI142
aI3
aI1068
aI45
aI831
aI3515
aI4838
aI2247
aI5
aI3143
aI350
aI34
aI271
aI4859
aI63765
asg6
S'He concludes by averring that the leap of faith is not just one leap; it is a leap repeatedly made  and a leap that becomes more difficult to take the more it is taken: which is why so many religionists now feel the need to move beyond mere faith and cite evidence for their beliefs .'
p11
ss.