(dp1
S'input'
p2
(dp3
S'encoded'
p4
(lp5
I64
aI2179
aI43
aI63
aI188
aI220
aI417
aI1619
aI4275
aI45
aI713
aI14799
aI7533
aI311
aI3
aI3721
aI5145
asS'ori'
p6
S'This house believes that democratic governments should require voters to present photo identification at the polling station'
p7
ssS'output'
p8
(dp9
g4
(lp10
I7533
aI4352
aI378
aI88
aI38588
aI3
aI7631
aI34
aI4616
aI5
aI7532
aI18230
asg6
S'identification requirements  however  may heighten the opportunities for confusion and voter intimidation'
p11
ss.