(dp1
S'input'
p2
(dp3
S'encoded'
p4
(lp5
I64
aI2179
aI43
aI63
aI2157
aI2565
aI493
aI19084
aI382
aI4850
asS'ori'
p6
S"This house believes that Israel's 2008-2009 military operations against Gaza were justified"
p7
ssS'output'
p8
(dp9
g4
(lp10
I3
aI12618
aI5
aI7045
aI475
aI7
aI972
aI14411
aI75
aI3
aI6056
aI260
aI92
aI55
aI891
aI24
aI1872
aI6043
asg6
S'the disproportionate and excessive use of force displayed by the Israeli government  which has resulted in numerous casualties'
p11
ss.