(dp1
S'input'
p2
(dp3
S'encoded'
p4
(lp5
I64
aI2179
aI394
aI190
aI3
aI21
aI45
aI3895
aI834
asS'ori'
p6
S'This house would limit the right to bear arms'
p7
ssS'output'
p8
(dp9
g4
(lp10
I3
aI1188
aI869
aI187
aI395
aI1688
aI3336
aI1381
aI3
aI1447
aI267
aI187
aI874
aI7537
aI5
aI7718
aI2730
aI2215
aI117
aI366
aI2221
aI440
aI871
aI3
aI2029
aI7
aI2446
aI5
aI1969
aI134
aI45
aI3
aI187
aI34
aI16874
aI63765
asg6
S'The remaining four states later followed suit  although the last two states  North Carolina and Rhode Island  ratified only after Congress had passed the Bill of Rights and sent it to the states for ratification  .'
p11
ss.