(dp1
S'input'
p2
(dp3
S'encoded'
p4
(lp5
I64
aI2179
aI43
aI63
aI3
aI21
aI45
aI12715
aI417
aI99
aI316
aI2897
asS'ori'
p6
S'This house believes that the right to asylum should not be absolute'
p7
ssS'output'
p8
(dp9
g4
(lp10
I24
aI89
aI643
aI2696
aI675
aI3
aI2206
aI117
aI7
aI3
aI203
aI972
aI55
aI149
aI138
aI89
aI177
aI2240
aI2042
aI63765
asg6
S'In a developed country like the US  only 12% of the labor force has less than a high school education .'
p11
ss.