(dp1
S'input'
p2
(dp3
S'encoded'
p4
(lp5
I64
aI2179
aI394
aI2017
aI3807
aI314
aI3433
asS'ori'
p6
S'This house would ban partial birth abortions'
p7
ssS'output'
p8
(dp9
g4
(lp10
I32359
aI1052
aI4850
aI3
aI5376
aI45
aI3458
aI89
aI3271
aI63
aI4995
aI3
aI3269
aI99
aI604
aI3
aI3486
aI116
aI149
aI138
aI89
aI32347
aI41
aI3
aI32336
aI557
aI131
aI958
aI620
aI3
aI6174
aI7
aI3
aI32360
aI73
aI32361
aI732
aI45
aI2011
aI732
asg6
S'Maimonides  notably  justified the requirement to abort a pregnancy that threatens the woman\'s life not because the fetus is less than a nefesh (human being)  as the Talmud held  but rather through the principle of the rodef or pursuer  "pursuing her to kill her ."'
p11
ss.