(dp1
S'input'
p2
(dp3
S'encoded'
p4
(lp5
I64
aI2179
aI394
aI2741
aI3
aI1560
aI6025
aI2784
asS'ori'
p6
S'This house would pass the American Jobs Act'
p7
ssS'output'
p8
(dp9
g4
(lp10
I3
aI1410
aI2878
aI416
aI116
aI3
aI1565
aI2131
aI5428
aI972
aI4370
aI63765
asg6
S'The main source used is the European Union Labour Force Survey (EU-LFS) .'
p11
ss.