(dp1
S'input'
p2
(dp3
S'encoded'
p4
(lp5
I64
aI2179
aI43
aI63
aI2659
aI417
aI1690
aI3
aI12048
aI7
aI19084
asS'ori'
p6
S'This house believes that Israel should lift the blockade of Gaza'
p7
ssS'output'
p8
(dp9
g4
(lp10
I19199
aI4047
aI19200
aI122
aI999
aI75
aI3
aI6056
aI5451
aI1191
aI15161
aI1295
aI3
aI5738
aI7
aI19084
aI24
aI282
aI2743
aI366
aI1430
aI846
aI63
aI134
aI122
aI12968
aI3
aI19084
aI12048
aI1637
aI5
aI83
aI1546
aI2346
aI34
aI843
aI19185
aI73
aI2657
aI63765
asg6
S'Dignite Al Karama was stopped by the Israeli Navy about 65 kilometers off the coast of Gaza  in international waters  after ignoring warnings that it was approaching the Gaza blockade line and must change course for either Ashdod or Egypt .'
p11
ss.