(dp1
S'input'
p2
(dp3
S'encoded'
p4
(lp5
I64
aI2179
aI43
aI63
aI3
aI4990
aI4991
aI116
aI4850
aI24
aI12166
aI3
aI475
aI7
aI3532
aI3290
aI7
aI4714
asS'ori'
p6
S'This house believes that the Catholic Church is justified in forbidding the use of barrier methods of contraception'
p7
ssS'output'
p8
(dp9
g4
(lp10
I397
aI3
aI9791
aI3
aI220
aI7
aI2293
aI387
aI5
aI400
aI12704
aI120
aI4983
aI81
aI3867
aI3844
aI19
aI1277
aI10439
aI7
aI3
aI4990
aI2247
aI63765
asg6
S'During the Inquisition  the governments of Spain (and Italy  and sometimes France) prosecuted those Christians who publicly dissented from key doctrines of the Catholic Faith .'
p11
ss.