(dp1
S'input'
p2
(dp3
S'encoded'
p4
(lp5
I64
aI2179
aI43
aI24
aI3
aI475
aI7
aI12436
aI3364
asS'ori'
p6
S'This house believes in the use of affirmative action'
p7
ssS'output'
p8
(dp9
g4
(lp10
I100
aI12007
aI11
aI13008
aI89
aI126
aI5600
aI7834
aI4642
aI7
aI5969
aI7
aI511
aI570
aI24
aI725
aI2766
aI45
aI3
aI3669
aI6174
aI134
aI55
aI12
aI416
aI24
aI384
aI12423
aI45
aI3553
aI2488
aI5969
aI7
aI5
aI134
aI116
aI89
aI2886
aI2096
aI2230
aI3
aI2195
aI7
aI13011
aI2248
aI13012
aI75
aI495
aI12958
aI5
aI2869
aI13013
aI5
aI80
aI63765
asg6
S'Some theorists have posed a level playing field conception of equality of opportunity  similar in many respects to the substantive principle  (although it has been used in different contexts to describe formal equality of opportunity) and it is a core idea regarding the subject of distributive justice espoused by John Roemer and Ronald Dworkin and others .'
p11
ss.