(dp1
S'input'
p2
(dp3
S'encoded'
p4
(lp5
I64
aI2179
aI43
aI63
aI134
aI116
aI400
aI21
aI34
aI3
aI260
aI45
aI3439
aI57
aI7
aI2381
asS'ori'
p6
S'This house believes that it is sometimes right for the government to restrict freedom of speech'
p7
ssS'output'
p8
(dp9
g4
(lp10
I1381
aI64
aI122
aI89
aI3164
aI783
aI60
aI443
aI3186
aI19
aI3
aI5462
aI3
aI2023
aI260
aI500
aI6564
aI211
aI4268
aI63765
asg6
S'Although this was a voluntary step with no involvement from the authorities  the Canadian government did express its approval  .'
p11
ss.