(dp1
S'input'
p2
(dp3
S'encoded'
p4
(lp5
I64
aI2179
aI43
aI63
aI3376
aI4938
aI417
aI316
aI3537
asS'ori'
p6
S'This house believes that endangered species should be protected'
p7
ssS'output'
p8
(dp9
g4
(lp10
I89
aI3278
aI24
aI92
aI282
aI2742
aI5
aI2696
aI256
aI139
aI31763
aI5
aI3253
aI8137
aI5
aI2568
aI63765
asg6
S'A framework in which international  regional and country programs can coalesce and strengthen linkages and cooperation .'
p11
ss.