(dp1
S'input'
p2
(dp3
S'encoded'
p4
(lp5
I64
aI2179
aI394
aI117
aI7428
aI21151
aI34
aI11389
aI2042
aI24
aI4364
asS'ori'
p6
S'This house would only teach abstinence for sex education in schools'
p7
ssS'output'
p8
(dp9
g4
(lp10
I89
aI177
aI532
aI7
aI897
aI3183
aI1967
aI11870
aI1517
aI7
aI3
aI9006
aI7
aI15081
aI20938
aI63765
asg6
S'A high amount of media coverage exists informing users of the dangers of driving drunk .'
p11
ss.