(dp1
S'input'
p2
(dp3
S'encoded'
p4
(lp5
I64
aI2179
aI43
aI63
aI3
aI4990
aI4991
aI116
aI4850
aI24
aI12166
aI3
aI475
aI7
aI3532
aI3290
aI7
aI4714
asS'ori'
p6
S'This house believes that the Catholic Church is justified in forbidding the use of barrier methods of contraception'
p7
ssS'output'
p8
(dp9
g4
(lp10
I211
aI9596
aI14
aI1989
aI3773
aI187
aI63
aI24
aI128
aI45
aI3
aI10790
aI16995
aI7
aI3561
aI223
aI748
aI2997
aI417
aI316
aI221
aI75
aI8532
aI5
aI3
aI2178
aI45
aI975
aI63
aI574
aI3315
aI735
aI3
aI285
aI60
aI89
aI7993
aI760
aI5
aI116
aI4651
aI736
aI51
aI3216
aI21749
aI45
aI23826
aI7
aI25
aI73
aI732
aI1718
asg6
S'Its Resolution on Responsible Parenthood states that in order to "support the sacred dimensions of personhood  all possible efforts should be made by parents and the community to ensure that each child enters the world with a healthy body  and is born into an environment conducive to realization of his or her potential ."'
p11
ss.