(dp1
S'input'
p2
(dp3
S'encoded'
p4
(lp5
I64
aI2179
aI394
aI2017
aI223
aI9058
aI23653
asS'ori'
p6
S'This house would ban all unsustainable logging'
p7
ssS'output'
p8
(dp9
g4
(lp10
I23653
aI24
aI23084
aI12751
aI116
aI5090
aI906
aI63765
asg6
S'Logging in Brazils Amazon is economically motivated .'
p11
ss.