(dp1
S'input'
p2
(dp3
S'encoded'
p4
(lp5
I64
aI2179
aI43
aI63
aI323
aI417
aI10009
aI211
aI9035
aI249
aI45
aI3426
aI211
aI2144
aI595
aI17
aI96
asS'ori'
p6
S'This house believes that Europe should weaken its austerity measures to guarantee its citizens greater social support'
p7
ssS'output'
p8
(dp9
g4
(lp10
I273
aI116
aI51
aI3889
aI70
aI3353
aI9359
aI736
aI5
aI113
aI2758
aI1166
aI7
aI3
aI655
aI7
aI3
aI2617
aI289
aI3
aI380
aI8672
aI873
aI60
aI1341
aI703
aI8813
aI14
aI3
aI1974
aI298
aI89
aI696
aI7
aI14153
aI3141
aI2552
aI89
aI4137
aI8420
aI15081
aI14
aI211
aI998
aI45
aI89
aI407
aI2117
aI1381
aI155
aI500
aI99
aI24605
aI211
aI24606
aI63765
asg6
S'There is an ongoing law enforcement investigation into  and even active pursuing of  the participants of the violence over the various protest days  with particular attention focusing on the moments when a number of protesters successfully attacked a royal car driving on its way to a London event  although they did not injure its occupants .'
p11
ss.