(dp1
S'input'
p2
(dp3
S'encoded'
p4
(lp5
I64
aI2179
aI43
aI63
aI134
aI116
aI400
aI21
aI34
aI3
aI260
aI45
aI3439
aI57
aI7
aI2381
asS'ori'
p6
S'This house believes that it is sometimes right for the government to restrict freedom of speech'
p7
ssS'output'
p8
(dp9
g4
(lp10
I134
aI116
aI10473
aI41
aI2812
aI10250
aI5
aI2382
aI717
aI44517
aI5
aI3135
aI2784
aI5
aI13336
aI60
aI1530
aI3131
aI45
aI767
aI2439
aI7
aI11202
aI63765
asg6
S'It is processed as "Provoking ethnic  racial and religion based animosity and intolerance" criminal act  and punished with six months to ten years of imprisonment  .'
p11
ss.