(dp1
S'input'
p2
(dp3
S'encoded'
p4
(lp5
I64
aI2179
aI394
aI2017
aI3807
aI314
aI3433
asS'ori'
p6
S'This house would ban partial birth abortions'
p7
ssS'output'
p8
(dp9
g4
(lp10
I120
aI81
aI4406
aI3
aI2497
aI358
aI134
aI89
aI22
aI2497
aI416
aI45
aI16923
aI3
aI143
aI24
aI89
aI998
aI92
aI116
aI15904
aI45
aI120
aI81
aI3742
aI595
aI976
aI2051
aI73
aI89
aI697
aI2017
aI14
aI64
aI73
aI223
aI3257
aI3808
aI5
aI11
aI263
aI3
aI3326
aI22
aI10679
aI10933
aI63765
asg6
S'Those who oppose the term consider it a political term used to frame the argument in a way which is favorable to those who seek greater legal restrictions  or a total ban  on this or all abortion procedures  and have called the alleged political framing "partial truth abortion"  .'
p11
ss.