(dp1
S'input'
p2
(dp3
S'encoded'
p4
(lp5
I64
aI2179
aI43
aI63
aI187
aI417
aI99
aI16642
aI3
aI6449
aI7
aI3935
asS'ori'
p6
S'This house believes that states should not subsidize the growing of tobacco'
p7
ssS'output'
p8
(dp9
g4
(lp10
I34
aI6396
aI14815
aI14833
aI2156
aI34
aI1191
aI7
aI223
aI11832
aI158
aI2900
aI7
aI14834
aI5057
aI3052
aI63765
asg6
S'For instance  Cigarette smoking accounts for about one-third of all cancers  including 90 percent of lung cancer cases .'
p11
ss.