(dp1
S'input'
p2
(dp3
S'encoded'
p4
(lp5
I64
aI2179
aI43
aI8629
aI116
aI3
aI117
aI998
asS'ori'
p6
S'This house believes atheism is the only way'
p7
ssS'output'
p8
(dp9
g4
(lp10
I6029
aI7
aI805
aI10646
aI7076
aI45
aI3742
aI45
aI3709
aI80
aI24
aI805
aI63765
asg6
S'Knowledge of pain prompts humans to seek to help others in pain .'
p11
ss.