(dp1
S'input'
p2
(dp3
S'encoded'
p4
(lp5
I64
aI2179
aI43
aI223
aI2138
aI11
aI89
aI21
aI45
aI2185
aI372
asS'ori'
p6
S'This house believes all nations have a right to nuclear weapons'
p7
ssS'output'
p8
(dp9
g4
(lp10
I384
aI274
aI7
aI2185
aI372
aI11676
aI501
aI34
aI384
aI1486
aI7
aI2185
aI2167
aI63765
asg6
S'Different forms of nuclear weapons delivery (see above) allow for different types of nuclear strategies .'
p11
ss.