(dp1
S'input'
p2
(dp3
S'encoded'
p4
(lp5
I64
aI2179
aI235
aI3
aI2136
aI7
aI3
aI2306
aI7
aI2390
asS'ori'
p6
S'This house supports the one-child policy of the republic of China'
p7
ssS'output'
p8
(dp9
g4
(lp10
I6804
aI693
aI11
aI5891
aI13784
aI34
aI2812
aI5275
aI653
aI206
aI979
aI10252
aI3274
aI902
aI63765
asg6
S'Universities typically have quota reserved for ethnic minorities despite having lower admission test scores  .'
p11
ss.