(dp1
S'input'
p2
(dp3
S'encoded'
p4
(lp5
I64
aI2179
aI394
aI2773
aI12505
asS'ori'
p6
S'This house would embrace multiculturalism'
p7
ssS'output'
p8
(dp9
g4
(lp10
I3
aI2023
aI260
aI742
aI63
aI226
aI134
aI2031
aI3
aI3977
aI7
aI3
aI2804
aI134
aI423
aI6543
aI63
aI382
aI5993
aI60
aI2477
aI3278
aI92
aI1501
aI15
aI3
aI2550
aI7
aI2446
aI5
aI2379
aI5
aI4185
aI92
aI23251
aI11504
aI5
aI2268
aI2446
aI63765
asg6
S'The Canadian government said that while it supported the spirit of the declaration  it contained elements that were "fundamentally incompatible with Canada\'s constitutional framework " which includes both the Charter of Rights and Freedoms and Section 35  which enshrines aboriginal and treaty rights .'
p11
ss.