(dp1
S'input'
p2
(dp3
S'encoded'
p4
(lp5
I64
aI2179
aI43
aI223
aI2138
aI11
aI89
aI21
aI45
aI2185
aI372
asS'ori'
p6
S'This house believes all nations have a right to nuclear weapons'
p7
ssS'output'
p8
(dp9
g4
(lp10
I2450
aI5
aI2661
aI182
aI2523
aI2185
aI2280
aI5
aI2659
aI55
aI89
aI2136
aI7
aI4951
aI13398
aI2924
aI7
aI2203
aI60
aI2185
aI63765
asg6
S'India and Pakistan are confirmed nuclear powers  and Israel has a long-standing policy of deliberate ambiguity (see List of countries with nuclear weapons) .'
p11
ss.