(dp1
S'input'
p2
(dp3
S'encoded'
p4
(lp5
I64
aI2179
aI394
aI5370
aI223
aI4013
aI10440
aI2446
aI4881
aI75
aI14482
aI11004
asS'ori'
p6
S'This house would abolish all collective bargaining rights claimed by trades unions'
p7
ssS'output'
p8
(dp9
g4
(lp10
I131
aI3
aI10
aI4969
aI8921
aI189
aI2425
aI45
aI7038
aI11249
aI24
aI368
aI969
aI63765
asg6
S"But the state banks' reckless credit policies led to massive speculation in Western lands ."
p11
ss.