(dp1
S'input'
p2
(dp3
S'encoded'
p4
(lp5
I64
aI2179
aI394
aI1499
aI177
aI1819
aI34
aI160
asS'ori'
p6
S'This house would build high rises for housing'
p7
ssS'output'
p8
(dp9
g4
(lp10
I24
aI3
aI2439
aI691
aI41
aI3
aI2598
aI2322
aI148
aI4475
aI1693
aI11
aI1199
aI136
aI279
aI63765
asg6
S'In the 60 years since  as the population increased considerably  tower blocks have become more common .'
p11
ss.