(dp1
S'input'
p2
(dp3
S'encoded'
p4
(lp5
I64
aI2179
aI43
aI63
aI1036
aI4828
aI33250
aI116
aI25073
aI45
aI3315
aI4562
asS'ori'
p6
S'This house believes that male infant circumcision is tantamount to child abuse'
p7
ssS'output'
p8
(dp9
g4
(lp10
I111
aI3848
aI63
aI3
aI43852
aI382
aI9535
aI34898
aI26205
aI63
aI18862
aI7096
aI7
aI3
aI33218
aI440
aI31352
aI25
aI1677
aI2089
aI34900
aI54307
aI63765
asg6
S"Upon noting that the boy's genitals were inflamed  Sayre hypothesized that chronic irritation of the boy's foreskin had paralyzed his knees via reflex neurosis ."
p11
ss.