(dp1
S'input'
p2
(dp3
S'encoded'
p4
(lp5
I64
aI2179
aI43
aI63
aI3
aI4990
aI4991
aI116
aI4850
aI24
aI12166
aI3
aI475
aI7
aI3532
aI3290
aI7
aI4714
asS'ori'
p6
S'This house believes that the Catholic Church is justified in forbidding the use of barrier methods of contraception'
p7
ssS'output'
p8
(dp9
g4
(lp10
I1592
aI5460
aI60
aI380
aI26947
aI14
aI25
aI237
aI1379
aI14
aI3
aI2730
aI78
aI5697
aI24
aI89
aI26948
aI34
aI6549
aI4256
aI14
aI3
aI26949
aI24
aI26950
aI63765
asg6
S'Following meetings with various dignitaries on his first day on the island  50 000 people gathered in a drizzle for Papal Mass on the granaries in Floriana .'
p11
ss.