(dp1
S'input'
p2
(dp3
S'encoded'
p4
(lp5
I64
aI2179
aI43
aI223
aI2138
aI11
aI89
aI21
aI45
aI2185
aI372
asS'ori'
p6
S'This house believes all nations have a right to nuclear weapons'
p7
ssS'output'
p8
(dp9
g4
(lp10
I211
aI5938
aI116
aI4024
aI252
aI27120
aI16849
aI114
aI89
aI1896
aI4975
aI182
aI459
aI16849
aI63765
asg6
S'Its industry is largely without IAEA safeguards  though a few plants (see above) are under facility-specific safeguards .'
p11
ss.