(dp1
S'input'
p2
(dp3
S'encoded'
p4
(lp5
I64
aI2179
aI43
aI63
aI2659
aI417
aI1690
aI3
aI12048
aI7
aI19084
asS'ori'
p6
S'This house believes that Israel should lift the blockade of Gaza'
p7
ssS'output'
p8
(dp9
g4
(lp10
I24
aI2670
aI136
aI138
aI767
aI5864
aI78
aI5697
aI45
aI8672
aI24
aI29999
aI6802
aI24
aI2609
aI25017
aI14
aI3
aI4150
aI7
aI88
aI63765
asg6
S'In Turkey  more than ten thousand people gathered to protest in Taksim Square in central Istanbul on the night of 31 May 2010  .'
p11
ss.