(dp1
S'input'
p2
(dp3
S'encoded'
p4
(lp5
I64
aI2179
aI13605
aI2258
aI45
aI2194
asS'ori'
p6
S'This house prefers trade to aid'
p7
ssS'output'
p8
(dp9
g4
(lp10
I24
aI68
aI311
aI3
aI282
aI126
aI298
aI3
aI3353
aI7
aI3990
aI442
aI116
aI330
aI3
aI213
aI463
aI316
aI45
aI124
aI5
aI163
aI119
aI3175
aI4825
aI4885
aI5
aI9100
aI5224
aI92
aI139
aI316
aI416
aI45
aI6752
aI73
aI14286
aI229
aI2194
aI779
aI233
aI45
aI271
aI10306
aI63765
asg6
S'In fact  at the international level  when the enforcement of mandatory rules is difficult  the solution could be to provide and make available transparent  relevant  accurate and reliable information  which can be used to reward or sanction individual aid agencies according to their performances .'
p11
ss.