(dp1
S'input'
p2
(dp3
S'encoded'
p4
(lp5
I64
aI2179
aI43
aI24
aI3
aI475
aI7
aI12436
aI3364
asS'ori'
p6
S'This house believes in the use of affirmative action'
p7
ssS'output'
p8
(dp9
g4
(lp10
I64
aI3262
aI427
aI136
aI138
aI5895
aI2439
aI45
aI4163
aI63765
asg6
S'This process took more than twenty years to complete .'
p11
ss.