(dp1
S'input'
p2
(dp3
S'encoded'
p4
(lp5
I64
aI2179
aI43
aI63
aI1036
aI4828
aI33250
aI116
aI25073
aI45
aI3315
aI4562
asS'ori'
p6
S'This house believes that male infant circumcision is tantamount to child abuse'
p7
ssS'output'
p8
(dp9
g4
(lp10
I2035
aI5047
aI63
aI51
aI582
aI7
aI3862
aI4386
aI3569
aI864
aI7
aI1191
aI2013
aI1592
aI33250
aI24
aI3
aI102
aI63765
asg6
S"Gairdner's 1949 study reported that an average of 16 children per year out of about 90 000 died following circumcision in the UK ."
p11
ss.