(dp1
S'input'
p2
(dp3
S'encoded'
p4
(lp5
I64
aI2179
aI43
aI63
aI2659
aI417
aI1690
aI3
aI12048
aI7
aI19084
asS'ori'
p6
S'This house believes that Israel should lift the blockade of Gaza'
p7
ssS'output'
p8
(dp9
g4
(lp10
I12289
aI31520
aI9468
aI7
aI6056
aI2157
aI12698
aI3531
aI132
aI4453
aI5
aI742
aI89
aI14591
aI7
aI13160
aI45
aI3
aI905
aI63
aI12627
aI6543
aI47
aI4883
aI588
aI4434
aI5904
aI45
aI6054
aI2377
aI19363
aI3
aI19096
aI63765
asg6
S'Alex Fishman  dean of Israeli military correspondents  criticized these claims and said "There isn\'t a shred of substance to the report that extremist elements will put up violent resistance to IDF soldiers aboard the flotilla .'
p11
ss.