(dp1
S'input'
p2
(dp3
S'encoded'
p4
(lp5
I64
aI2179
aI43
aI63
aI3
aI4538
aI7
aI4434
aI7793
aI283
aI45
aI3586
aI417
aI316
aI577
asS'ori'
p6
S'This house believes that the sale of violent video games to minors should be banned'
p7
ssS'output'
p8
(dp9
g4
(lp10
I41
aI3136
aI675
aI3
aI3152
aI5711
aI2598
aI11
aI2322
aI24
aI696
aI7
aI14581
aI667
aI7693
aI7631
aI11
aI643
aI56990
aI63765
asg6
S'As groups like the fundamentalist Christian population have increased in number of adherents  new marketing opportunities have developed contemporaneously  .'
p11
ss.