(dp1
S'input'
p2
(dp3
S'encoded'
p4
(lp5
I64
aI2179
aI43
aI8629
aI116
aI3
aI117
aI998
asS'ori'
p6
S'This house believes atheism is the only way'
p7
ssS'output'
p8
(dp9
g4
(lp10
I24
aI3
aI28
aI3657
aI3
aI25336
aI399
aI7
aI5480
aI2836
aI45
aI3420
aI89
aI4798
aI291
aI18543
aI5
aI24
aI38794
aI63765
asg6
S'In the English language  the capitalized form of God continues to represent a distinction between monotheistic "God" and "gods" in polytheism  .'
p11
ss.