(dp1
S'input'
p2
(dp3
S'encoded'
p4
(lp5
I64
aI2179
aI394
aI2017
aI3807
aI314
aI3433
asS'ori'
p6
S'This house would ban partial birth abortions'
p7
ssS'output'
p8
(dp9
g4
(lp10
I653
aI64
aI5507
aI3924
aI3257
aI116
aI99
aI2275
aI887
aI3
aI9717
aI2178
aI24
aI2450
aI5
aI273
aI116
aI6449
aI1411
aI63
aI4015
aI4710
aI182
aI773
aI17852
aI604
aI7
aI3
aI2637
aI12179
aI34
aI5745
aI63765
asg6
S'Despite this theoretical viewpoint  abortion is not uncommon among the Sikh community in India  and there is growing concern that female fetuses are being aborted because of the cultural preference for sons  .'
p11
ss.