(dp1
S'input'
p2
(dp3
S'encoded'
p4
(lp5
I64
aI2179
aI43
aI223
aI2138
aI11
aI89
aI21
aI45
aI2185
aI372
asS'ori'
p6
S'This house believes all nations have a right to nuclear weapons'
p7
ssS'output'
p8
(dp9
g4
(lp10
I24
aI2265
aI273
aI382
aI89
aI290
aI7
aI4256
aI7058
aI24
aI3
aI320
aI3550
aI311
aI4374
aI1928
aI3772
aI2185
aI3328
aI24
aI2265
aI63765
asg6
S'In France  there were a series of mass protests in the early 1970s  organized at nearly every planned nuclear site in France .'
p11
ss.