(dp1
S'input'
p2
(dp3
S'encoded'
p4
(lp5
I64
aI2179
aI43
aI63
aI3376
aI4938
aI417
aI316
aI3537
asS'ori'
p6
S'This house believes that endangered species should be protected'
p7
ssS'output'
p8
(dp9
g4
(lp10
I97
aI1343
aI116
aI3
aI2945
aI7
aI7878
aI31271
aI75
aI490
aI38355
aI63765
asg6
S'Another example is the destruction of ocean floors by bottom trawling  .'
p11
ss.