(dp1
S'input'
p2
(dp3
S'encoded'
p4
(lp5
I64
aI2179
aI394
aI4325
aI2042
aI270
aI89
aI11605
aI3324
asS'ori'
p6
S'This house would fund education using a voucher scheme'
p7
ssS'output'
p8
(dp9
g4
(lp10
I7
aI965
aI3862
aI182
aI800
aI24
aI4492
aI5
aI7
aI2646
aI3862
aI182
aI63765
asg6
S'15% of white children are raised in single-parent homes and 10% of Asian children are .'
p11
ss.