(dp1
S'input'
p2
(dp3
S'encoded'
p4
(lp5
I64
aI2179
aI394
aI5370
aI3
aI5286
asS'ori'
p6
S'This house would abolish the monarchy'
p7
ssS'output'
p8
(dp9
g4
(lp10
I150
aI2190
aI3518
aI3713
aI24
aI353
aI7
aI3724
aI5810
aI667
aI6113
aI394
aI1199
aI89
aI2306
aI3
aI63765
asg6
S'National Business Review poll in 2004 found 57% of respondents believed New Zealand would become a republic "in the future" . '
p11
ss.