(dp1
S'input'
p2
(dp3
S'encoded'
p4
(lp5
I64
aI2179
aI43
aI63
aI2659
aI417
aI1690
aI3
aI12048
aI7
aI19084
asS'ori'
p6
S'This house believes that Israel should lift the blockade of Gaza'
p7
ssS'output'
p8
(dp9
g4
(lp10
I7058
aI427
aI238
aI967
aI4581
aI14
aI88
aI158
aI28543
aI18887
aI20943
aI18141
aI30022
aI5
aI22167
aI226
aI4136
aI7
aI14153
aI24
aI12318
aI30023
aI19
aI3
aI6056
aI2734
aI45
aI3
aI7003
aI2206
aI2734
aI751
aI16871
aI45
aI3
aI6056
aI2734
aI63765
asg6
S'Protests took place across Ireland on 31 May  including Belfast  Cork  Derry  Galway  Sligo and Waterford  while hundreds of protesters in Dublin mached from the Israeli embassy to the nearby US Embassy before returning to the Israeli embassy  .'
p11
ss.