(dp1
S'input'
p2
(dp3
S'encoded'
p4
(lp5
I64
aI2179
aI394
aI2773
aI12505
asS'ori'
p6
S'This house would embrace multiculturalism'
p7
ssS'output'
p8
(dp9
g4
(lp10
I7559
aI575
aI3
aI79
aI7
aI2478
aI289
aI3
aI2467
aI159
aI41
aI5076
aI63765
aI10507
aI63765
aI2839
aI63765
aI53659
aI11641
aI7
aI3386
aI26435
aI5
aI12952
aI8243
aI2204
aI8267
aI12468
aI4135
aI15865
aI27202
aI53660
aI5
aI725
aI80
aI24
aI3
aI5
aI5
aI8844
aI63765
aI2839
aI63765
aI79
aI24
aI3
aI5
aI273
aI182
aI637
aI100
aI6348
aI63
aI45510
aI89
aI5547
aI5
aI941
aI2368
aI92
aI3
aI16090
aI83
aI13198
aI75
aI258
aI7
aI21330
aI5
aI1015
aI63765
asg6
S'Surprisingly  given the work of scholars over the decades such as E . B . W . Dubois (The Souls of Black Folk  1903)  and Milton Gordon  Robert Park  Daniel Patrick Moynihan  Nathan Glazer  and many others in the 1960s and 1970s  and J . W . Berry\'s work in the 1980s and 1990s there are still some theories that posit a fixed and dominant "mainstream culture" toward which the newcomer must conform by means of acculturation (Gudykunst and Kim  2003) .'
p11
ss.