(dp1
S'input'
p2
(dp3
S'encoded'
p4
(lp5
I64
aI2179
aI394
aI2976
aI12243
aI24
aI954
aI126
aI1560
aI10723
asS'ori'
p6
S'This house would implement playoffs in collegiate level American football'
p7
ssS'output'
p8
(dp9
g4
(lp10
I64
aI4573
aI55
aI1199
aI113
aI136
aI1224
aI24
aI5958
aI7
aI3
aI781
aI63
aI4144
aI11
aI493
aI4144
aI19
aI3
aI851
aI29871
aI14324
aI24
aI3
aI34949
aI20731
aI283
aI155
aI11
aI12
aI547
aI45
aI6372
aI24
aI63765
asg6
S'This controversy has become even more intense in light of the 41 record that mid-major teams have against teams from the 6 automatic qualifying conferences in the BCS Bowl games they have been allowed to play in .'
p11
ss.