(dp1
S'input'
p2
(dp3
S'encoded'
p4
(lp5
I64
aI2179
aI43
aI24
aI3
aI475
aI7
aI12436
aI3364
asS'ori'
p6
S'This house believes in the use of affirmative action'
p7
ssS'output'
p8
(dp9
g4
(lp10
I2992
aI11
aI8117
aI63
aI4699
aI2722
aI34
aI1036
aI5
aI4015
aI5025
aI2625
aI182
aI979
aI24
aI2506
aI60
aI979
aI2363
aI7
aI6811
aI12537
aI63765
asg6
S'Studies have shown that mortality rates for male and female African Americans are lower in areas with lower levels of residential segregation .'
p11
ss.