(dp1
S'input'
p2
(dp3
S'encoded'
p4
(lp5
I64
aI2179
aI394
aI2773
aI12505
asS'ori'
p6
S'This house would embrace multiculturalism'
p7
ssS'output'
p8
(dp9
g4
(lp10
I3406
aI5552
aI55
aI1872
aI248
aI2120
aI159
aI41
aI3
aI10415
aI3964
aI18524
aI557
aI311
aI60849
aI60850
aI10415
aI8442
aI14
aI63765
asg6
S"Additionally  Canberra has numerous other inter-cultural events  such as the Thai Food Festival held at Wat Dhammadharo  Canberra's Thai temple  on 2009-04-19 ."
p11
ss.