(dp1
S'input'
p2
(dp3
S'encoded'
p4
(lp5
I64
aI2179
aI394
aI60
aI23587
asS'ori'
p6
S'This house would re-engage with Myanmar'
p7
ssS'output'
p8
(dp9
g4
(lp10
I60682
aI6243
aI451
aI2767
aI3157
aI63
aI395
aI4155
aI45
aI3
aI573
aI7
aI3
aI2696
aI63765
asg6
S'Hanthawaddy monarchs introduced religious reforms that later spread to the rest of the country  .'
p11
ss.