(dp1
S'input'
p2
(dp3
S'encoded'
p4
(lp5
I64
aI2179
aI43
aI63
aI2659
aI417
aI1690
aI3
aI12048
aI7
aI19084
asS'ori'
p6
S'This house believes that Israel should lift the blockade of Gaza'
p7
ssS'output'
p8
(dp9
g4
(lp10
I89
aI5430
aI34
aI3
aI7
aI3
aI626
aI2138
aI551
aI63
aI3
aI394
aI316
aI474
aI63
aI3
aI6056
aI260
aI116
aI6040
aI211
aI2136
aI1636
aI19084
aI63765
asg6
S'A spokesperson for the Secretary-General of the United Nations declared that the Secretary-General would be encouraged that the Israeli government is reviewing its policy towards Gaza .'
p11
ss.