(dp1
S'input'
p2
(dp3
S'encoded'
p4
(lp5
I64
aI2179
aI394
aI163
aI959
aI2042
aI3557
asS'ori'
p6
S'This house would make physical education compulsory'
p7
ssS'output'
p8
(dp9
g4
(lp10
I25
aI95
aI14
aI3
aI1362
aI291
aI2328
aI5
aI2042
aI373
aI4636
aI3600
aI34
aI3
aI2495
aI4681
aI2042
aI910
aI63765
asg6
S'His works on the relationship between democracy and education became foundational literature for the broader progressive education movement .'
p11
ss.