(dp1
S'input'
p2
(dp3
S'encoded'
p4
(lp5
I64
aI2179
aI43
aI63
aI134
aI116
aI400
aI21
aI34
aI3
aI260
aI45
aI3439
aI57
aI7
aI2381
asS'ori'
p6
S'This house believes that it is sometimes right for the government to restrict freedom of speech'
p7
ssS'output'
p8
(dp9
g4
(lp10
I653
aI3
aI2223
aI249
aI2784
aI3
aI2503
aI9170
aI55
aI546
aI45
aI11659
aI3
aI897
aI75
aI885
aI89
aI2223
aI5148
aI73
aI51
aI282
aI5148
aI63765
asg6
S'Despite the War Measures Act  the federal cabinet has power to censor the media by declaring a war emergency or an international emergency .'
p11
ss.