(dp1
S'input'
p2
(dp3
S'encoded'
p4
(lp5
I64
aI2179
aI394
aI190
aI3
aI21
aI45
aI3895
aI834
asS'ori'
p6
S'This house would limit the right to bear arms'
p7
ssS'output'
p8
(dp9
g4
(lp10
I75
aI7486
aI62365
aI5
aI16627
aI3
aI3988
asg6
S'by totally disusing and neglecting the militia ."'
p11
ss.