(dp1
S'input'
p2
(dp3
S'encoded'
p4
(lp5
I64
aI2179
aI43
aI24
aI3
aI475
aI7
aI12436
aI3364
asS'ori'
p6
S'This house believes in the use of affirmative action'
p7
ssS'output'
p8
(dp9
g4
(lp10
I2789
aI7
aI5275
aI1619
aI2386
aI3663
aI5
aI2446
aI45
aI975
aI63
aI155
aI182
aI99
aI17485
aI545
aI2022
asg6
S'members of minorities require specific provisions and rights to ensure that they are not marginalised within society'
p11
ss.