(dp1
S'input'
p2
(dp3
S'encoded'
p4
(lp5
I64
aI2179
aI394
aI3830
aI3
aI475
aI7
aI9441
aI13132
aI3102
aI24
aI276
aI381
asS'ori'
p6
S'This house would permit the use of performance enhancing drugs in professional sports'
p7
ssS'output'
p8
(dp9
g4
(lp10
I3
aI2028
aI7
aI2183
aI116
aI45
aI975
aI63
aI132
aI182
aI16514
aI119
aI34
aI2015
aI475
aI226
aI5377
aI271
aI5200
aI34
aI3101
aI4538
aI5
aI4562
aI63765
asg6
S'The goal of controls is to ensure that these "controlled substances" are readily available for medical use  while preventing their distribution for illicit sale and abuse .'
p11
ss.