(dp1
S'input'
p2
(dp3
S'encoded'
p4
(lp5
I64
aI2179
aI394
aI2741
aI3
aI1560
aI6025
aI2784
asS'ori'
p6
S'This house would pass the American Jobs Act'
p7
ssS'output'
p8
(dp9
g4
(lp10
I89
aI70
aI871
aI89
aI3569
aI395
aI547
aI37191
aI45
aI316
aI26521
aI5
aI9952
aI63765
asg6
S'A law passed a year later allowed vagabonds to be whipped and hanged  .'
p11
ss.