(dp1
S'input'
p2
(dp3
S'encoded'
p4
(lp5
I64
aI2179
aI43
aI17
aI4941
aI857
aI3211
asS'ori'
p6
S'This house believes social deprivation causes crime'
p7
ssS'output'
p8
(dp9
g4
(lp10
I132
aI167
aI1453
aI99
aI1074
aI4435
aI44
aI92
aI182
aI588
aI45
aI1727
aI136
aI9983
aI138
aI3110
aI4435
aI63765
asg6
S'These figures do not include suicide attempts which are up to 20 times more frequent than completed suicide .'
p11
ss.