(dp1
S'input'
p2
(dp3
S'encoded'
p4
(lp5
I64
aI2179
aI394
aI4325
aI2042
aI270
aI89
aI11605
aI3324
asS'ori'
p6
S'This house would fund education using a voucher scheme'
p7
ssS'output'
p8
(dp9
g4
(lp10
I24
aI89
aI2029
aI5380
aI3
aI2372
aI7619
aI4674
aI7
aI45
aI124
aI10781
aI493
aI112
aI4262
aI34
aI10984
aI19139
aI10560
aI2041
aI3
aI5173
aI7
aI10984
aI19139
aI5067
aI5
aI3
aI27731
aI7
aI49037
aI16483
aI63765
asg6
S'3444 in 2005)  a bill "to amend the Internal Revenue Code of 1986 to provide credits against income tax for qualified stem cell research  the storage of qualified stem cells  and the donation of umbilical cord blood" .'
p11
ss.