(dp1
S'input'
p2
(dp3
S'encoded'
p4
(lp5
I64
aI2179
aI43
aI63
aI3
aI4990
aI4991
aI116
aI4850
aI24
aI12166
aI3
aI475
aI7
aI3532
aI3290
aI7
aI4714
asS'ori'
p6
S'This house believes that the Catholic Church is justified in forbidding the use of barrier methods of contraception'
p7
ssS'output'
p8
(dp9
g4
(lp10
I9853
aI24
aI3
aI66
aI285
aI20
aI725
aI3495
aI24
aI23075
aI16
aI5
aI17
aI24630
aI63765
asg6
S'Divorce in the ancient world left many women in dire economic and social straits .'
p11
ss.