(dp1
S'input'
p2
(dp3
S'encoded'
p4
(lp5
I64
aI2179
aI394
aI2017
aI3807
aI314
aI3433
asS'ori'
p6
S'This house would ban partial birth abortions'
p7
ssS'output'
p8
(dp9
g4
(lp10
I97
aI1025
aI45
aI4261
aI3257
aI116
aI353
aI24
aI3
aI30618
aI4210
aI1047
aI41
aI3
aI32368
aI63765
asg6
S'Another reason to prohibit abortion is found in the Talmudic commentaries known as the Tosafot .'
p11
ss.