(dp1
S'input'
p2
(dp3
S'encoded'
p4
(lp5
I64
aI2179
aI43
aI63
aI11083
aI10046
aI417
aI316
aI89
aI3135
aI4603
asS'ori'
p6
S'This house believes that Holocaust denial should be a criminal offence'
p7
ssS'output'
p8
(dp9
g4
(lp10
I3
aI2884
aI16859
aI2136
aI2230
aI11083
aI10046
aI122
aI4068
aI24
aI3
aI626
aI397
aI3
aI3019
aI16859
aI33
aI1607
aI493
aI3
aI11267
aI11083
aI26890
aI5812
aI52617
aI75
aI3
aI2330
aI260
aI63765
asg6
S'The EU extradition policy regarding Holocaust denial was tested in the United Kingdom(UK) during the 2008 failed extradition case brought against the suspected Holocaust denier Frederick Toben by the German government .'
p11
ss.