(dp1
S'input'
p2
(dp3
S'encoded'
p4
(lp5
I64
aI2179
aI394
aI4261
aI8667
aI3
aI9361
aI5
aI17069
asS'ori'
p6
S'This house would prohibit burning the stars and stripes'
p7
ssS'output'
p8
(dp9
g4
(lp10
I2116
aI3
aI2482
aI2483
aI3350
aI45
aI3383
aI89
aI33
aI15780
aI2548
aI459
aI24
aI3
aI5513
aI7
aI5528
aI63765
asg6
S'2004 June 14  The Supreme Court declined to hear a case challenging "One nation under God" in the Pledge of Allegiance .'
p11
ss.