(dp1
S'input'
p2
(dp3
S'encoded'
p4
(lp5
I64
aI2179
aI394
aI2017
aI628
asS'ori'
p6
S'This house would ban gambling'
p7
ssS'output'
p8
(dp9
g4
(lp10
I281
aI14930
aI12743
aI24
aI3
aI102
aI37123
aI37124
aI5672
aI182
aI5359
aI14815
aI1504
aI967
aI3
aI102
aI5
aI3838
aI86
aI60
aI37122
aI5930
aI1504
aI63765
asg6
S'Major pubs chains in the UK (Punch  Marstons  Greene King etc) are removing cigarette machines across the UK and replacing them with TaBBOXX lottery machines .'
p11
ss.