(dp1
S'input'
p2
(dp3
S'encoded'
p4
(lp5
I64
aI2179
aI43
aI17
aI4941
aI857
aI3211
asS'ori'
p6
S'This house believes social deprivation causes crime'
p7
ssS'output'
p8
(dp9
g4
(lp10
I20033
aI73
aI59098
aI4921
aI116
aI89
aI10411
aI6249
aI32764
aI17880
aI643
aI75
aI21068
aI21069
aI6216
aI3269
aI41
aI89
aI9441
aI63765
asg6
S'Dramaturgy or Dramaturgical Perspective is a specialized symbolic interactionism paradigm developed by Erving Goffman  seeing life as a performance .'
p11
ss.