(dp1
S'input'
p2
(dp3
S'encoded'
p4
(lp5
I64
aI2179
aI394
aI2017
aI262
asS'ori'
p6
S'This house would ban boxing'
p7
ssS'output'
p8
(dp9
g4
(lp10
I54853
aI182
aI416
aI45
aI1456
aI3
aI1451
aI24
aI3
aI1070
aI5
aI3
aI352
aI182
aI416
aI45
aI454
aI3
aI531
aI19
aI1457
aI806
aI1443
aI518
aI45
aI1393
aI718
aI60
aI136
aI972
aI138
aI257
aI155
aI500
aI99
aI1244
aI86
aI63765
asg6
S'Handwraps are used to secure the bones in the hand  and the gloves are used to protect the hands from blunt injury  allowing boxers to throw punches with more force than if they did not utilize them .'
p11
ss.