(dp1
S'input'
p2
(dp3
S'encoded'
p4
(lp5
I64
aI2179
aI43
aI63
aI3
aI4990
aI4991
aI116
aI4850
aI24
aI12166
aI3
aI475
aI7
aI3532
aI3290
aI7
aI4714
asS'ori'
p6
S'This house believes that the Catholic Church is justified in forbidding the use of barrier methods of contraception'
p7
ssS'output'
p8
(dp9
g4
(lp10
I97
aI845
aI63
aI116
aI800
aI24
aI3
aI2136
aI24
aI2390
aI116
aI3
aI5224
aI24
aI5392
aI45
aI1355
aI1710
aI314
aI45
aI4864
aI73
aI47169
aI63765
asg6
S'Another issue that is raised in the one-child policy in China is the information in regards to naturally giving birth to twins or triplets .'
p11
ss.