(dp1
S'input'
p2
(dp3
S'encoded'
p4
(lp5
I64
aI2179
aI394
aI15841
aI2736
asS'ori'
p6
S'This house would disband ASEAN'
p7
ssS'output'
p8
(dp9
g4
(lp10
I6269
aI3
aI4649
aI7807
aI122
aI557
aI24
aI6124
aI24
aI53
aI3
aI3024
aI375
aI244
aI45
aI4726
aI136
aI514
aI4929
aI45
aI1781
aI3
aI2712
aI1928
aI292
aI2439
aI63765
asg6
S'Consequently  the fourth meeting was held in Singapore in 1992 where the leaders again agreed to meet more frequently  deciding to hold the summit every three years  .'
p11
ss.