(dp1
S'input'
p2
(dp3
S'encoded'
p4
(lp5
I64
aI2179
aI43
aI63
aI3
aI28431
aI7
aI2157
aI4624
aI75
aI39939
aI27257
aI122
aI4850
asS'ori'
p6
S'This house believes that the leaking of military documents by Anat Kamm was justified'
p7
ssS'output'
p8
(dp9
g4
(lp10
I9437
aI9438
aI5047
aI89
aI136
aI2604
aI8580
aI2557
aI10518
aI14
aI15
aI1249
aI63765
asg6
S'Der Spiegel reported a more complex story involving errors on both sides .'
p11
ss.