(dp1
S'input'
p2
(dp3
S'encoded'
p4
(lp5
I64
aI2179
aI43
aI63
aI187
aI417
aI99
aI16642
aI3
aI6449
aI7
aI3935
asS'ori'
p6
S'This house believes that states should not subsidize the growing of tobacco'
p7
ssS'output'
p8
(dp9
g4
(lp10
I273
aI11
aI12
aI1896
aI1202
aI7
aI3935
aI24
aI3954
aI24
aI320
aI8
aI1727
aI114
aI273
aI182
aI2278
aI2534
aI7
aI673
aI24
aI1497
aI159
aI41
aI24066
aI11381
aI58292
aI8470
aI7
aI89
aI63765
asg6
S"There have been few examples of tobacco in music in early modern times  though there are occasional signs of influence in pieces such as Johann Sebastian Bach's Edifying Thoughts of a Tobacco-Smoker  ."
p11
ss.