(dp1
S'input'
p2
(dp3
S'encoded'
p4
(lp5
I64
aI2179
aI13605
aI2258
aI45
aI2194
asS'ori'
p6
S'This house prefers trade to aid'
p7
ssS'output'
p8
(dp9
g4
(lp10
I34
aI3
aI9719
aI2891
aI2194
aI34
aI6396
aI357
aI154
aI63
aI93
aI7
aI271
aI482
aI4949
aI27742
aI122
aI5660
aI311
aI3
aI5084
aI7
aI7
aI468
aI6958
aI2639
aI5
aI122
aI1031
aI45
aI27743
aI7
aI630
aI27447
aI6267
aI27744
aI1879
aI3
aI3897
aI7
aI3
aI803
aI63765
asg6
S'For the Italian development aid for instance  we find that one of their successful projects (the Keita project) was constructed at the cost of 2/3 of 1 F-22 fighter jet (100 million $)  and was able to reforest of broken  barren earth  hereby increasing the socio-economic wellbeing of the area  .'
p11
ss.