(dp1
S'input'
p2
(dp3
S'encoded'
p4
(lp5
I64
aI2179
aI394
aI190
aI3
aI21
aI45
aI3895
aI834
asS'ori'
p6
S'This house would limit the right to bear arms'
p7
ssS'output'
p8
(dp9
g4
(lp10
I3
aI2196
aI10113
aI14
aI755
aI3
aI62378
aI2489
aI261
aI4200
aI3988
aI773
aI2867
aI45
aI3
aI2702
aI7
aI89
aI1260
aI551
aI3
aI4237
aI117
aI3014
aI73
aI3418
aI2791
aI89
aI3014
aI45
aI5842
aI3
aI32101
aI2489
aI21
aI7
aI3
aI78
aI45
aI1576
aI5
aI3895
aI834
aI4197
aI99
aI316
aI63765
asg6
S'The debate centered on whether the prefatory clause (A well regulated militia being necessary to the security of a free State) declared the amendments only purpose or merely announced a purpose to introduce the operative clause (the right of the People to keep and bear arms shall not be infringed) .'
p11
ss.