(dp1
S'input'
p2
(dp3
S'encoded'
p4
(lp5
I64
aI2179
aI43
aI63
aI3
aI21
aI45
aI12715
aI417
aI99
aI316
aI2897
asS'ori'
p6
S'This house believes that the right to asylum should not be absolute'
p7
ssS'output'
p8
(dp9
g4
(lp10
I64
aI3445
aI7
aI73
aI2476
aI4190
aI3
aI9789
aI7
aI89
aI3215
aI736
aI51
aI803
aI53
aI3313
aI73
aI42
aI876
aI316
aI375
aI10103
aI45
aI9665
aI116
aI261
aI403
aI24
aI3
aI2533
aI131
aI99
aI3467
aI2173
aI24
aI2304
aI70
aI63765
asg6
S'This concept of non-refoulement  or expressly prohibiting the expulsion of a refugee into an area where she or he might be again subjected to persecution  is well documented in the 1951 Convention  but not explicitly stated in Russian law .'
p11
ss.