(dp1
S'input'
p2
(dp3
S'encoded'
p4
(lp5
I64
aI2179
aI394
aI117
aI7428
aI21151
aI34
aI11389
aI2042
aI24
aI4364
asS'ori'
p6
S'This house would only teach abstinence for sex education in schools'
p7
ssS'output'
p8
(dp9
g4
(lp10
I3495
aI7098
aI45
aI4562
aI2287
aI2617
aI5
aI3874
aI6083
aI24
aI8544
aI182
aI136
aI1856
aI45
aI1199
aI3314
aI41
aI13159
aI5
aI3
aI2038
aI7
aI1604
aI3314
aI41
aI89
aI16813
aI4696
aI60
aI3
aI696
aI7
aI7065
aI8544
aI4766
aI63765
asg6
S'Women exposed to abuse  domestic violence  and family strife in childhood are more likely to become pregnant as teenagers  and the risk of becoming pregnant as a teenager increases with the number of adverse childhood experiences .'
p11
ss.