(dp1
S'input'
p2
(dp3
S'encoded'
p4
(lp5
I64
aI2179
aI43
aI63
aI188
aI220
aI417
aI1619
aI4275
aI45
aI713
aI14799
aI7533
aI311
aI3
aI3721
aI5145
asS'ori'
p6
S'This house believes that democratic governments should require voters to present photo identification at the polling station'
p7
ssS'output'
p8
(dp9
g4
(lp10
I34
aI1343
aI24
aI12236
aI5276
aI34
aI3
aI7719
aI10
aI2211
aI24
aI2625
aI34
aI2469
aI170
aI2134
aI63
aI122
aI2892
aI4408
aI1969
aI725
aI188
aI4275
aI89
aI10454
aI63
aI1442
aI51
aI5861
aI9212
aI34
aI17019
aI10868
aI63765
asg6
S'For example  in recall elections for the Wisconsin State Senate in 2011  Americans for Prosperity (a conservative organization that was supporting Republican candidates) sent many Democratic voters a mailing that gave an incorrect deadline for absentee ballots .'
p11
ss.