(dp1
S'input'
p2
(dp3
S'encoded'
p4
(lp5
I64
aI2179
aI394
aI117
aI7428
aI21151
aI34
aI11389
aI2042
aI24
aI4364
asS'ori'
p6
S'This house would only teach abstinence for sex education in schools'
p7
ssS'output'
p8
(dp9
g4
(lp10
I298
aI1708
aI759
aI24
aI32011
aI5268
aI113
aI9503
aI311
aI574
aI248
aI63765
aI16157
aI233
aI45
aI8533
aI39010
asg6
S'When taking part in hookups  "the kids don\'t even look at each other . It\'s mechanical  dehumanizing"  according to psychologist Marsha Levy-Warren '
p11
ss.