(dp1
S'input'
p2
(dp3
S'encoded'
p4
(lp5
I64
aI2179
aI43
aI24
aI3
aI475
aI7
aI12436
aI3364
asS'ori'
p6
S'This house believes in the use of affirmative action'
p7
ssS'output'
p8
(dp9
g4
(lp10
I3500
aI16835
aI4615
aI45
aI3442
aI5
aI1112
aI324
aI24
aI2042
aI45
aI265
aI10250
aI12379
aI5
aI2998
aI1462
aI5
aI2811
aI291
aI384
aI10250
aI2812
aI5
aI150
aI3136
aI63765
asg6
S'Article 7 obliges parties to adopt "immediate and effective measures"  particularly in education  to combat racial prejudice and encourage understanding and tolerance between different racial  ethnic and national groups  .'
p11
ss.