(dp1
S'input'
p2
(dp3
S'encoded'
p4
(lp5
I64
aI2179
aI43
aI8629
aI116
aI3
aI117
aI998
asS'ori'
p6
S'This house believes atheism is the only way'
p7
ssS'output'
p8
(dp9
g4
(lp10
I8653
aI8654
aI3470
aI24
aI3
aI4689
aI63
aI3
aI3014
aI7
aI2068
aI3955
aI75
aI3
aI7
aI3
aI667
aI14607
aI8301
aI12468
aI14588
aI1115
aI3366
aI5
aI428
aI45
aI13524
aI6041
aI14
aI2767
aI14608
aI2383
aI134
aI7947
aI5
aI3172
aI63
aI3
aI3955
aI182
aI22
aI2571
aI89
aI7
aI3
aI2210
aI7
aI2382
aI24
aI1560
aI3905
aI5
aI3296
aI63765
asg6
S'Madeleine Bunting wrote in The Guardian that the purpose of recent books by the so-called "Four Horsemen" of the New AtheismRichard Dawkins  Daniel Dennett  Sam Harris and Christopher Hitchens"is to pour scorn on religious beliefthey want it eradicated " and argues that the books are "deeply political " sharing a "loathing" of the role of religion in American culture and politics .'
p11
ss.