(dp1
S'input'
p2
(dp3
S'encoded'
p4
(lp5
I64
aI2179
aI394
aI190
aI3
aI21
aI45
aI3895
aI834
asS'ori'
p6
S'This house would limit the right to bear arms'
p7
ssS'output'
p8
(dp9
g4
(lp10
I17194
aI2722
aI24
aI3
aI626
aI187
aI182
aI5895
aI45
aI1727
aI166
aI138
aI155
aI182
aI24
aI2203
aI63
aI182
aI5090
aI5
aI5578
aI570
aI45
aI134
aI63765
asg6
S'Gun-related homicide rates in the United States are twenty to thirty-five times higher than they are in countries that are economically and politically similar to it .'
p11
ss.