(dp1
S'input'
p2
(dp3
S'encoded'
p4
(lp5
I64
aI2179
aI394
aI10662
aI626
aI187
aI2157
aI2697
aI19
aI2371
asS'ori'
p6
S'This house would remove United States military bases from Japan'
p7
ssS'output'
p8
(dp9
g4
(lp10
I24
aI64
aI639
aI52794
aI2258
aI291
aI11542
aI5
aI248
aI2203
aI373
aI11841
aI5
aI11542
aI373
aI51
aI1185
aI25741
aI957
aI24
aI2258
aI63765
asg6
S'In this period  porcelain trade between Okinawa and other countries became busy  and Okinawa became an important relay point in eastern-Asian trade .'
p11
ss.