(dp1
S'input'
p2
(dp3
S'encoded'
p4
(lp5
I64
aI2179
aI43
aI63
aI323
aI417
aI10009
aI211
aI9035
aI249
aI45
aI3426
aI211
aI2144
aI595
aI17
aI96
asS'ori'
p6
S'This house believes that Europe should weaken its austerity measures to guarantee its citizens greater social support'
p7
ssS'output'
p8
(dp9
g4
(lp10
I41
aI759
aI7
aI3
aI3157
aI3
aI4991
aI7
aI180
aI174
aI816
aI462
aI211
aI3164
aI335
aI7276
aI5
aI871
aI3
aI3930
aI7
aI5806
aI7
aI4991
aI4364
aI3590
aI5
aI248
aI684
aI45
aI3
aI10
aI63765
asg6
S'As part of the reforms  the Church of England also closed down its voluntary relief networks and passed the ownership of thousands of church schools  hospitals and other bodies to the state  .'
p11
ss.