(dp1
S'input'
p2
(dp3
S'encoded'
p4
(lp5
I64
aI2179
aI394
aI117
aI7428
aI21151
aI34
aI11389
aI2042
aI24
aI4364
asS'ori'
p6
S'This house would only teach abstinence for sex education in schools'
p7
ssS'output'
p8
(dp9
g4
(lp10
I24
aI89
aI2035
aI3714
aI75
aI10478
aI34
aI1262
aI134
aI122
aI3611
aI63
aI49
aI292
aI24
aI767
aI13159
aI3943
aI155
aI1068
aI136
aI11389
aI5
aI2567
aI2042
aI63765
asg6
S'In a 2008 study conducted by YouGov for Channel 4 it was revealed that almost three in ten teenagers say they need more sex and relationships education  .'
p11
ss.