(dp1
S'input'
p2
(dp3
S'encoded'
p4
(lp5
I64
aI2179
aI43
aI63
aI820
aI12564
aI182
aI3
aI217
aI1112
aI1869
aI7
aI10656
aI4672
aI34
aI5276
asS'ori'
p6
S'This house believes that open primaries are the most effective method of selecting candidates for elections'
p7
ssS'output'
p8
(dp9
g4
(lp10
I3
aI816
aI1334
aI145
aI440
aI136
aI7
aI51
aI191
aI34
aI78
aI45
aI5873
aI93
aI7
aI3
aI281
aI4615
aI63765
asg6
S'The closed primary system had more of an incentive for people to join one of the major parties .'
p11
ss.