(dp1
S'input'
p2
(dp3
S'encoded'
p4
(lp5
I64
aI2179
aI43
aI63
aI3
aI4990
aI4991
aI116
aI4850
aI24
aI12166
aI3
aI475
aI7
aI3532
aI3290
aI7
aI4714
asS'ori'
p6
S'This house believes that the Catholic Church is justified in forbidding the use of barrier methods of contraception'
p7
ssS'output'
p8
(dp9
g4
(lp10
I667
aI17656
aI835
aI63
aI3495
aI417
aI316
aI8030
aI41
aI3315
aI25955
aI3900
aI9126
aI131
aI174
aI41
aI147
aI60
aI5125
aI6036
aI45
aI1980
aI63765
asg6
S'New Feminism holds that women should be valued as child bearers  home makers but also as individuals with equal worth to men  .'
p11
ss.