(dp1
S'input'
p2
(dp3
S'encoded'
p4
(lp5
I64
aI2179
aI394
aI1499
aI177
aI1819
aI34
aI160
asS'ori'
p6
S'This house would build high rises for housing'
p7
ssS'output'
p8
(dp9
g4
(lp10
I34
aI1343
aI45
aI2214
aI89
aI1444
aI89
aI2007
aI83
aI4610
aI271
aI18312
aI311
aI3
aI3842
aI63765
asg6
S'For example  to enter a high-security building  a person must validate their smartcard at the door .'
p11
ss.