(dp1
S'input'
p2
(dp3
S'encoded'
p4
(lp5
I64
aI2179
aI394
aI5370
aI7146
aI4585
aI2446
asS'ori'
p6
S'This house would abolish intellectual property rights'
p7
ssS'output'
p8
(dp9
g4
(lp10
I15
aI18401
aI5
aI2055
aI182
aI9174
aI45
aI163
aI3
aI4798
aI291
aI3249
aI3930
aI7
aI2352
aI5866
aI2635
aI7102
aI63765
aI5
aI3249
aI4585
aI7371
aI14507
aI5
aI87
aI63765
asg6
S'Both socialism and communism are careful to make the distinction between private ownership of capital (land  factories  resources  etc . .) and private property (homes  material objects  and so forth) .'
p11
ss.