(dp1
S'input'
p2
(dp3
S'encoded'
p4
(lp5
I64
aI2179
aI13605
aI2258
aI45
aI2194
asS'ori'
p6
S'This house prefers trade to aid'
p7
ssS'output'
p8
(dp9
g4
(lp10
I64
aI4646
aI45
aI316
aI89
aI829
aI7
aI3269
aI5
aI1012
aI34
aI3189
aI7
aI78
aI87
aI8992
aI134
aI1986
aI55
aI5619
aI6203
aI420
aI63765
aI9087
aI742
aI63765
asg6
S'This happens to be a matter of life and death for millions of people  so getting it wrong has huge consequences  Mr . Sachs said .'
p11
ss.