(dp1
S'input'
p2
(dp3
S'encoded'
p4
(lp5
I64
aI2179
aI394
aI2773
aI12505
asS'ori'
p6
S'This house would embrace multiculturalism'
p7
ssS'output'
p8
(dp9
g4
(lp10
I131
aI24
aI4398
aI351
aI5025
aI5300
aI221
aI4736
aI89
aI6604
aI34
aI4223
aI113
aI257
aI1198
aI382
aI1260
aI63765
asg6
S'But in Alabama  any African ancestry made someone a non-white ineligible for citizenship  even if you were free .'
p11
ss.