(dp1
S'input'
p2
(dp3
S'encoded'
p4
(lp5
I64
aI2179
aI235
aI3
aI2136
aI7
aI3
aI2306
aI7
aI2390
asS'ori'
p6
S'This house supports the one-child policy of the republic of China'
p7
ssS'output'
p8
(dp9
g4
(lp10
I292
aI2439
aI395
aI3
aI2800
aI1515
aI3
aI3991
aI2804
aI7
aI2445
aI2446
aI3
aI237
aI282
aI976
aI11558
aI45
aI5314
aI2445
aI3
aI7234
aI98
aI99
aI3785
aI3760
aI2446
aI63765
asg6
S'Three years later  the UN adopted the Universal Declaration of Human Rights (UDHR)  the first international legal document to delineate human rights; the UDHR does not mention reproductive rights .'
p11
ss.