(dp1
S'input'
p2
(dp3
S'encoded'
p4
(lp5
I64
aI2179
aI43
aI63
aI3
aI4538
aI7
aI4434
aI7793
aI283
aI45
aI3586
aI417
aI316
aI577
asS'ori'
p6
S'This house believes that the sale of violent video games to minors should be banned'
p7
ssS'output'
p8
(dp9
g4
(lp10
I89
aI2188
aI34
aI3
aI319
aI13933
aI3
aI13716
aI6372
aI60
aI89
aI2619
aI6372
aI60
aI1806
aI63765
asg6
S'A commercial for the game featured the commentary Play with a friend .or play with yourself .'
p11
ss.