(dp1
S'input'
p2
(dp3
S'encoded'
p4
(lp5
I64
aI2179
aI394
aI2017
aI223
aI9058
aI23653
asS'ori'
p6
S'This house would ban all unsustainable logging'
p7
ssS'output'
p8
(dp9
g4
(lp10
I3
aI1268
aI7377
aI588
aI7
aI3
aI2393
aI34
aI34133
aI92
aI2367
aI11571
aI2228
aI45
aI22312
aI174
aI1688
aI89
aI639
aI7
aI2322
aI5346
aI2234
aI3544
aI7
aI24
aI3
aI1740
aI5172
aI36882
aI63765
asg6
S'The famous silting up of the harbor for Bruges  which moved port commerce to Antwerp  also followed a period of increased settlement growth (and apparently of deforestation) in the upper river basins .'
p11
ss.