(dp1
S'input'
p2
(dp3
S'encoded'
p4
(lp5
I64
aI2179
aI43
aI63
aI187
aI417
aI99
aI16642
aI3
aI6449
aI7
aI3935
asS'ori'
p6
S'This house believes that states should not subsidize the growing of tobacco'
p7
ssS'output'
p8
(dp9
g4
(lp10
I1381
aI132
aI256
aI88
aI99
aI316
aI1629
aI24
aI238
aI24
aI3
aI380
aI2506
aI155
aI182
aI217
aI1587
aI1237
aI2142
aI11
aI221
aI51
aI2419
aI45
aI3960
aI14833
aI887
aI3495
aI45
aI3
aI17147
aI703
aI63765
asg6
S'Although these programs may not be set in place in the various areas they are most needed  several organizations have made an effort to draw smoking among women to the publics attention .'
p11
ss.