(dp1
S'input'
p2
(dp3
S'encoded'
p4
(lp5
I64
aI2179
aI394
aI4325
aI2042
aI270
aI89
aI11605
aI3324
asS'ori'
p6
S'This house would fund education using a voucher scheme'
p7
ssS'output'
p8
(dp9
g4
(lp10
I3007
aI2538
aI42
aI2807
aI260
aI115
aI45
aI3249
aI3224
aI1881
aI45
aI3709
aI5434
aI2041
aI5
aI2573
aI747
aI158
aI45
aI3018
aI4834
aI1886
aI2410
aI5
aI475
aI63765
asg6
S'Paul says he opposes government assistance to private businesses intended to help shape research and investment decisions  including to promote alternative energy production and use .'
p11
ss.