(dp1
S'input'
p2
(dp3
S'encoded'
p4
(lp5
I64
aI2179
aI43
aI63
aI3357
aI5003
aI652
aI3
aI188
aI3262
asS'ori'
p6
S'This house believes that opinion polls harm the democratic process'
p7
ssS'output'
p8
(dp9
g4
(lp10
I2206
aI2503
aI70
aI4542
aI3
aI475
aI7
aI930
aI10568
aI5254
aI45
aI4918
aI10569
aI7182
aI1795
aI2784
aI7
aI63765
asg6
S'US federal law prohibits the use of automated dialling devices to call cellphones (Telephone Consumer Protection Act of 1991) .'
p11
ss.