(dp1
S'input'
p2
(dp3
S'encoded'
p4
(lp5
I64
aI2179
aI43
aI63
aI17574
aI417
aI316
aI3481
aI34
aI271
aI79
asS'ori'
p6
S'This house believes that housewives should be paid for their work'
p7
ssS'output'
p8
(dp9
g4
(lp10
I2609
aI45
aI725
aI3620
aI16
aI13201
aI116
aI3
aI2437
aI7
aI2755
aI17524
aI24
aI16
aI3068
aI63765
asg6
S'Central to many feminist economic critiques is the recognition of value judgments in economic analysis  .'
p11
ss.