(dp1
S'input'
p2
(dp3
S'encoded'
p4
(lp5
I64
aI2179
aI394
aI2773
aI12505
asS'ori'
p6
S'This house would embrace multiculturalism'
p7
ssS'output'
p8
(dp9
g4
(lp10
I397
aI64
aI3262
aI134
aI116
aI748
aI45
aI2728
aI11101
aI24
aI3218
aI13127
aI60
aI80
aI63765
asg6
S'During this process  it is possible to recognize ourselves in our interactions with Others .'
p11
ss.