(dp1
S'input'
p2
(dp3
S'encoded'
p4
(lp5
I64
aI2179
aI43
aI63
aI3376
aI4938
aI417
aI316
aI3537
asS'ori'
p6
S'This house believes that endangered species should be protected'
p7
ssS'output'
p8
(dp9
g4
(lp10
I7591
aI298
aI42
aI2915
aI1020
aI45
aI89
aI15578
aI22086
aI24
aI89
aI482
aI8672
aI493
aI3
aI1444
aI7
aI89
aI7348
aI63765
asg6
S'banner  when he tied himself to a Norwegian fjord in a successful protest against the building of a dam  .'
p11
ss.