(dp1
S'input'
p2
(dp3
S'encoded'
p4
(lp5
I64
aI2179
aI394
aI190
aI3
aI21
aI45
aI3895
aI834
asS'ori'
p6
S'This house would limit the right to bear arms'
p7
ssS'output'
p8
(dp9
g4
(lp10
I24
aI939
aI3600
aI3915
aI3999
aI122
aI217
aI4000
aI4001
aI75
aI411
aI4002
aI4003
aI81
aI116
aI4004
aI75
aI4005
aI4006
aI60
aI1655
aI3
aI4007
aI7
aI51
aI4008
aI620
aI159
aI4009
aI41
aI1447
aI7
aI3
aI5
aI63765
asg6
S'In popular literature  frontier adventure was most famously told by James Fenimore Cooper  who is credited by Petri Liukkonen with creating the archetype of an 18th-century frontiersman through such novels as "The Last of the Mohicans" (1826) and "The Deerslayer" (1840)  .'
p11
ss.