(dp1
S'input'
p2
(dp3
S'encoded'
p4
(lp5
I64
aI2179
aI394
aI2773
aI12505
asS'ori'
p6
S'This house would embrace multiculturalism'
p7
ssS'output'
p8
(dp9
g4
(lp10
I41
aI413
aI461
aI14
aI732
aI2198
aI122
aI2601
aI5869
aI311
aI5714
aI2126
aI5
aI211
aI18603
aI60
aI2328
aI5
aI368
aI3905
aI63765
asg6
S'As time went on  her criticism was increasingly directed at Islam itself  and its incompatibility with democracy and Western culture .'
p11
ss.