(dp1
S'input'
p2
(dp3
S'encoded'
p4
(lp5
I64
aI2179
aI43
aI24
aI3
aI475
aI7
aI12436
aI3364
asS'ori'
p6
S'This house believes in the use of affirmative action'
p7
ssS'output'
p8
(dp9
g4
(lp10
I11339
aI5438
aI46022
aI7589
aI63765
aI646
aI63765
aI52846
aI538
aI3
aI2140
aI685
aI75
aI3
aI48395
aI752
aI63765
asg6
S'1989 - Wards Cove Packing Co . v . Atonio   revised the standards established by the 1971 Griggs decision .'
p11
ss.