(dp1
S'input'
p2
(dp3
S'encoded'
p4
(lp5
I64
aI2179
aI394
aI2976
aI12243
aI24
aI954
aI126
aI1560
aI10723
asS'ori'
p6
S'This house would implement playoffs in collegiate level American football'
p7
ssS'output'
p8
(dp9
g4
(lp10
I378
aI207
aI8717
aI55
aI12
aI221
aI45
aI927
aI51
aI4834
aI145
aI675
aI89
aI12247
aI13151
aI575
aI3
aI24692
aI2464
aI16
aI2444
aI24
aI3
aI380
aI21656
aI63765
asg6
S'However  little headway has been made to institute an alternative system like a playoff tournament  given the entrenched vested economic interests in the various bowls .'
p11
ss.