(dp1
S'input'
p2
(dp3
S'encoded'
p4
(lp5
I64
aI2179
aI43
aI24
aI3
aI475
aI7
aI12436
aI3364
asS'ori'
p6
S'This house believes in the use of affirmative action'
p7
ssS'output'
p8
(dp9
g4
(lp10
I3271
aI4933
aI2784
aI92
aI10139
aI5489
aI12411
aI7
aI3
aI3202
aI2446
aI2784
aI7
aI1812
aI4933
aI717
aI111
aI3271
aI24
aI3
aI12464
aI493
aI3495
aI2784
aI63765
asg6
S'Pregnancy Discrimination Act  which amended Title VII of the Civil Rights Act of 1964  covers discrimination based upon pregnancy in the workplaceViolence Against Women Act  .'
p11
ss.