(dp1
S'input'
p2
(dp3
S'encoded'
p4
(lp5
I64
aI2179
aI43
aI63
aI1036
aI4828
aI33250
aI116
aI25073
aI45
aI3315
aI4562
asS'ori'
p6
S'This house believes that male infant circumcision is tantamount to child abuse'
p7
ssS'output'
p8
(dp9
g4
(lp10
I35786
aI378
aI4246
aI63
aI43849
aI5
aI34790
aI4673
aI117
aI89
aI1107
aI159
aI2035
aI7
aI60347
aI10845
aI4047
aI63765
aI5
aI53668
aI12194
aI211
aI1410
aI60355
aI7
aI16445
aI33250
aI5
aI1718
aI204
aI20244
aI182
aI566
aI60
aI33262
aI5057
aI63765
asg6
S'Stanton  however  notes that Fleiss and Hodges cited only a single such study  \'that of Maden et al .  and  curiously  omit its main conclusionthat "absence of neonatal circumcision and potential resulting complications are associated with penile cancer .'
p11
ss.