(dp1
S'input'
p2
(dp3
S'encoded'
p4
(lp5
I64
aI2179
aI394
aI3830
aI3
aI475
aI7
aI9441
aI13132
aI3102
aI24
aI276
aI381
asS'ori'
p6
S'This house would permit the use of performance enhancing drugs in professional sports'
p7
ssS'output'
p8
(dp9
g4
(lp10
I414
aI4155
aI366
aI750
aI63
aI3
aI2613
aI440
aI12
aI2686
aI63765
asg6
S"Word spread after Everton's win that the drug had been involved ."
p11
ss.