(dp1
S'input'
p2
(dp3
S'encoded'
p4
(lp5
I64
aI2179
aI394
aI5370
aI3
aI5286
asS'ori'
p6
S'This house would abolish the monarchy'
p7
ssS'output'
p8
(dp9
g4
(lp10
I24
aI29127
aI9813
aI38433
aI3505
aI3
aI2497
aI8275
aI21
aI45
aI3553
aI120
aI81
aI71
aI6168
aI17
aI3157
aI5
aI2135
aI38439
aI63765
asg6
S'In 1955  Seymour Martin Lipset coined the term radical right to describe those who opposed statist social reforms and foreign interventionism  .'
p11
ss.