(dp1
S'input'
p2
(dp3
S'encoded'
p4
(lp5
I64
aI2179
aI43
aI63
aI134
aI116
aI400
aI21
aI34
aI3
aI260
aI45
aI3439
aI57
aI7
aI2381
asS'ori'
p6
S'This house believes that it is sometimes right for the government to restrict freedom of speech'
p7
ssS'output'
p8
(dp9
g4
(lp10
I1381
aI273
aI182
aI443
aI441
aI7051
aI41
aI45
aI61
aI5612
aI7
aI7151
aI417
aI6750
aI92
aI9103
aI5
aI9153
aI182
aI575
aI14
aI89
aI33
aI75
aI33
aI2259
aI3
aI20463
aI693
aI3143
aI4434
aI8803
aI5
aI2613
aI3365
aI7151
aI257
aI134
aI116
aI300
aI45
aI316
aI14870
aI73
aI41
aI3398
aI34
aI166
aI9153
aI63765
asg6
S'Although there are no written guidelines as to what sort of content should receive which rating and ratings are given on a case by case basis  the commissioners typically cite violent  sexual and drug related content (especially if it is deemed to be graphic or gratuitous) as reasons for higher ratings .'
p11
ss.