(dp1
S'input'
p2
(dp3
S'encoded'
p4
(lp5
I64
aI2179
aI43
aI63
aI3376
aI4938
aI417
aI316
aI3537
asS'ori'
p6
S'This house believes that endangered species should be protected'
p7
ssS'output'
p8
(dp9
g4
(lp10
I7797
aI116
aI89
aI2878
aI7
aI16
aI3064
aI34
aI725
aI2317
aI7
aI3
aI285
aI159
aI41
aI725
aI580
aI2844
aI8165
aI5
aI7910
aI53
aI6687
aI5
aI4975
aI182
aI2879
aI7
aI18899
aI5
aI13742
aI34
aI725
aI78
aI63765
asg6
S'Biodiversity is a source of economic wealth for many regions of the world  such as many nature reserves  parks and forests  where wildlife and plants are sources of beauty and joy for many people .'
p11
ss.