(dp1
S'input'
p2
(dp3
S'encoded'
p4
(lp5
I64
aI2179
aI13605
aI2258
aI45
aI2194
asS'ori'
p6
S'This house prefers trade to aid'
p7
ssS'output'
p8
(dp9
g4
(lp10
I2258
aI2361
aI83
aI1304
aI4825
aI3157
aI24
aI2506
aI159
aI41
aI8754
aI11364
aI131
aI174
aI136
aI4663
aI24
aI23310
aI442
aI34
aI5440
aI63765
asg6
S'Trade agreements must generate relevant reforms in areas such as customs documentation  but also more fundamentally in relaxing rules for cross-border transportation .'
p11
ss.