(dp1
S'input'
p2
(dp3
S'encoded'
p4
(lp5
I64
aI2179
aI394
aI5370
aI7146
aI4585
aI2446
asS'ori'
p6
S'This house would abolish intellectual property rights'
p7
ssS'output'
p8
(dp9
g4
(lp10
I93
aI1019
aI284
aI5224
aI252
aI7295
aI248
aI78
asg6
S'one cannot own information without owning other people'
p11
ss.