(dp1
S'input'
p2
(dp3
S'encoded'
p4
(lp5
I64
aI2179
aI43
aI63
aI2659
aI417
aI1690
aI3
aI12048
aI7
aI19084
asS'ori'
p6
S'This house believes that Israel should lift the blockade of Gaza'
p7
ssS'output'
p8
(dp9
g4
(lp10
I641
aI8995
aI11
aI3017
aI27171
aI864
aI2659
aI34
aI12618
aI2198
aI116
aI15991
aI41
aI89
aI296
aI7
aI3089
aI63765
asg6
S"Notable commentators have suggested singling out Israel for disproportionate criticism is warranted as a result of Israel's actions  ."
p11
ss.