(dp1
S'input'
p2
(dp3
S'encoded'
p4
(lp5
I64
aI2179
aI43
aI223
aI2138
aI11
aI89
aI21
aI45
aI2185
aI372
asS'ori'
p6
S'This house believes all nations have a right to nuclear weapons'
p7
ssS'output'
p8
(dp9
g4
(lp10
I809
aI14200
aI7
aI943
aI36750
aI17493
aI36751
aI89
aI12098
aI122
aI14188
aI75
aI3
aI7700
aI5451
aI34
aI292
aI2439
aI19
aI3
aI943
aI2131
aI487
aI63765
asg6
S'Former Leasing of Soviet submarinesIn 1988 INS Chakra (Sanskrit: Wheel)  a Charlie-class submarine was leased by the Indian Navy for three years from the Soviet Union  until 1991 .'
p11
ss.