(dp1
S'input'
p2
(dp3
S'encoded'
p4
(lp5
I64
aI2179
aI43
aI63
aI3
aI4538
aI7
aI4434
aI7793
aI283
aI45
aI3586
aI417
aI316
aI577
asS'ori'
p6
S'This house believes that the sale of violent video games to minors should be banned'
p7
ssS'output'
p8
(dp9
g4
(lp10
I1381
aI217
aI2478
aI4776
aI63
aI64
aI2838
aI1019
aI316
aI5022
aI45
aI89
aI14958
aI782
aI155
aI3307
aI63
aI64
aI6999
aI3172
aI493
aI14958
aI11968
aI4658
aI34
aI897
aI2617
aI63765
asg6
S'Although most scholars caution that this decline cannot be attributed to a causal effect  they conclude that this observation argues against causal harmful effects for media violence .'
p11
ss.