(dp1
S'input'
p2
(dp3
S'encoded'
p4
(lp5
I64
aI2179
aI43
aI63
aI1036
aI4828
aI33250
aI116
aI25073
aI45
aI3315
aI4562
asS'ori'
p6
S'This house believes that male infant circumcision is tantamount to child abuse'
p7
ssS'output'
p8
(dp9
g4
(lp10
I34892
aI24
aI1341
aI382
aI2853
aI63
aI155
aI463
aI316
aI13336
aI34
aI351
aI3217
aI845
aI63
aI876
aI949
aI113
aI257
aI134
aI640
aI100
aI413
aI366
aI3
aI33250
aI63765
asg6
S'Mohels in particular were concerned that they could be punished for any health issue that might develop  even if it arose some time after the circumcision  .'
p11
ss.