(dp1
S'input'
p2
(dp3
S'encoded'
p4
(lp5
I64
aI2179
aI394
aI1499
aI3
aI8115
aI34564
aI17106
asS'ori'
p6
S'This house would build the Keystone XL pipeline'
p7
ssS'output'
p8
(dp9
g4
(lp10
I6687
aI55
aI12
aI7919
aI3493
aI75
aI3
aI2579
aI15177
asg6
S'wildlife has been negatively affected by the oil sands'
p11
ss.