(dp1
S'input'
p2
(dp3
S'encoded'
p4
(lp5
I64
aI2179
aI43
aI63
aI3
aI21
aI45
aI12715
aI417
aI99
aI316
aI2897
asS'ori'
p6
S'This house believes that the right to asylum should not be absolute'
p7
ssS'output'
p8
(dp9
g4
(lp10
I134
aI876
aI316
aI4359
aI63
aI134
aI122
aI24
aI63
aI3
aI260
aI2405
aI6196
aI29711
aI60
aI15
aI3
aI3900
aI5354
aI5
aI22772
aI63765
asg6
S'It might be perceived that it was in 2006 that the government finally lost patience with both the Home Office and IND .'
p11
ss.