(dp1
S'input'
p2
(dp3
S'encoded'
p4
(lp5
I64
aI2179
aI43
aI63
aI2157
aI2565
aI493
aI19084
aI382
aI4850
asS'ori'
p6
S"This house believes that Israel's 2008-2009 military operations against Gaza were justified"
p7
ssS'output'
p8
(dp9
g4
(lp10
I5851
aI2135
aI2161
aI29858
aI29859
aI742
aI15
aI2659
aI5
aI3
aI19088
aI254
aI83
aI12352
aI2223
aI4212
aI13410
aI3270
aI139
aI316
aI443
aI13418
aI34
aI2034
aI2445
aI2446
aI844
aI15
aI14
aI3
aI19088
aI5
aI3
aI6056
aI63765
asg6
S'Dutch foreign minister Maxime Verhagen said both Israel and the Palestinian Authority must investigate war crimes allegations  saying "there can be no impunity for serious human rights violations both on the Palestinian and the Israeli side" .'
p11
ss.