(dp1
S'input'
p2
(dp3
S'encoded'
p4
(lp5
I64
aI2179
aI394
aI2017
aI262
asS'ori'
p6
S'This house would ban boxing'
p7
ssS'output'
p8
(dp9
g4
(lp10
I41424
aI40089
aI6335
aI3
aI7632
aI11151
aI24
aI3
aI5958
aI50517
aI2117
aI5
aI17865
aI38201
aI6335
aI3
aI7632
aI11151
aI24
aI3
aI5958
aI659
aI2117
aI63765
asg6
S'Zou Shiming won the gold medal in the Light Flyweight (-48 kg) event  and Zhang Xiaoping won the gold medal in the Light Heavyweight (81 kg) event  .'
p11
ss.