(dp1
S'input'
p2
(dp3
S'encoded'
p4
(lp5
I64
aI2179
aI43
aI63
aI3
aI28431
aI7
aI2157
aI4624
aI75
aI39939
aI27257
aI122
aI4850
asS'ori'
p6
S'This house believes that the leaking of military documents by Anat Kamm was justified'
p7
ssS'output'
p8
(dp9
g4
(lp10
I97
aI905
aI24
aI2555
aI2822
aI7
aI7396
aI1274
aI2569
aI63765
asg6
S'Another report  in September 2008  spoke of co-ordinated  multinational al-Qaeda attack planning .'
p11
ss.