(dp1
S'input'
p2
(dp3
S'encoded'
p4
(lp5
I64
aI2179
aI43
aI63
aI3376
aI4938
aI417
aI316
aI3537
asS'ori'
p6
S'This house believes that endangered species should be protected'
p7
ssS'output'
p8
(dp9
g4
(lp10
I159
aI4658
aI182
aI217
aI5012
aI24
aI38363
aI5
aI18874
aI2567
aI63765
asg6
S'Such effects are most severe in mutualistic and parasitic relationships .'
p11
ss.