(dp1
S'input'
p2
(dp3
S'encoded'
p4
(lp5
I64
aI2179
aI235
aI3
aI2136
aI7
aI3
aI2306
aI7
aI2390
asS'ori'
p6
S'This house supports the one-child policy of the republic of China'
p7
ssS'output'
p8
(dp9
g4
(lp10
I134
aI122
aI113
aI7863
aI75
aI41958
aI22158
aI24
aI63
aI2328
aI116
aI2874
aI1021
aI45
aI17783
aI5
aI463
aI1985
aI544
aI45
aI7338
aI723
aI220
aI63765
asg6
S'It was even speculated by Aldous Huxley in 1958 that democracy is threatened due to overpopulation  and could give rise to totalitarian style governments  .'
p11
ss.