(dp1
S'input'
p2
(dp3
S'encoded'
p4
(lp5
I64
aI2179
aI43
aI63
aI134
aI116
aI400
aI21
aI34
aI3
aI260
aI45
aI3439
aI57
aI7
aI2381
asS'ori'
p6
S'This house believes that it is sometimes right for the government to restrict freedom of speech'
p7
ssS'output'
p8
(dp9
g4
(lp10
I24
aI1906
aI8515
aI5162
aI25
aI905
aI24
aI92
aI42
aI3394
aI63
aI4185
aI417
aI316
aI9975
aI87
aI63
aI5119
aI12511
aI2381
aI116
aI89
aI10985
aI3135
aI829
aI63765
asg6
S'In November 2008  Moon released his report in which he recommended that Section 13 should be repealed so that online hate speech is a purely criminal matter .'
p11
ss.