(dp1
S'input'
p2
(dp3
S'encoded'
p4
(lp5
I64
aI2179
aI394
aI190
aI3
aI21
aI45
aI3895
aI834
asS'ori'
p6
S'This house would limit the right to bear arms'
p7
ssS'output'
p8
(dp9
g4
(lp10
I217
aI2612
aI45
aI17119
aI5
aI4546
aI4547
aI84
aI238
aI24
aI3
aI192
aI24
aI92
aI3892
aI182
aI1645
aI75
aI17222
aI147
aI63765
asg6
S'" Most sales to youths and convicted felons take place in the "secondary market " in which previously-owned firearms are transferred by unlicensed individuals  .'
p11
ss.