(dp1
S'input'
p2
(dp3
S'encoded'
p4
(lp5
I64
aI2179
aI43
aI63
aI3
aI4990
aI4991
aI116
aI4850
aI24
aI12166
aI3
aI475
aI7
aI3532
aI3290
aI7
aI4714
asS'ori'
p6
S'This house believes that the Catholic Church is justified in forbidding the use of barrier methods of contraception'
p7
ssS'output'
p8
(dp9
g4
(lp10
I226
aI5478
aI2452
aI24
aI88
aI6359
aI10903
aI4573
aI75
aI3270
aI63
aI3920
aI3162
aI440
aI12
aI34
aI3
aI5711
aI2247
aI1607
aI45
aI2318
aI875
aI75
aI21346
aI63765
asg6
S'While visiting Brazil in May 2007  "the pope sparked controversy by saying that native populations had been \'silently longing\' for the Christian faith brought to South America by colonizers .'
p11
ss.