(dp1
S'input'
p2
(dp3
S'encoded'
p4
(lp5
I64
aI2179
aI394
aI2773
aI12505
asS'ori'
p6
S'This house would embrace multiculturalism'
p7
ssS'output'
p8
(dp9
g4
(lp10
I24
aI64
aI998
aI134
aI139
aI316
aI871
aI2319
aI41
aI89
aI667
aI6130
aI11316
aI63765
asg6
S'In this way it can be passed along as a new authoritarian canon .'
p11
ss.