(dp1
S'input'
p2
(dp3
S'encoded'
p4
(lp5
I64
aI2179
aI394
aI163
aI959
aI2042
aI3557
asS'ori'
p6
S'This house would make physical education compulsory'
p7
ssS'output'
p8
(dp9
g4
(lp10
I658
aI3217
aI55
aI12
aI1545
aI41
aI3707
aI5
aI348
aI7
aI5377
aI4368
aI21678
aI3269
aI5
aI3932
aI3217
aI620
aI3
aI3550
aI2997
aI5
aI7166
aI7167
aI7
aI2022
aI2142
aI658
aI5
aI3249
aI5269
aI5
aI147
aI63765
asg6
S'Public health has been described as "the science and art of preventing disease  prolonging life and promoting health through the organized efforts and informed choices of society  organizations  public and private  communities and individuals .'
p11
ss.