(dp1
S'input'
p2
(dp3
S'encoded'
p4
(lp5
I64
aI2179
aI43
aI223
aI2138
aI11
aI89
aI21
aI45
aI2185
aI372
asS'ori'
p6
S'This house believes all nations have a right to nuclear weapons'
p7
ssS'output'
p8
(dp9
g4
(lp10
I24
aI77
aI3717
aI155
aI139
aI6372
aI89
aI69
aI2210
aI41
aI155
aI11
aI24
aI3
aI1257
aI63765
asg6
S'In certain circumstances  they can play a positive role - as they have in the past .'
p11
ss.