(dp1
S'input'
p2
(dp3
S'encoded'
p4
(lp5
I64
aI2179
aI394
aI5370
aI3
aI5286
asS'ori'
p6
S'This house would abolish the monarchy'
p7
ssS'output'
p8
(dp9
g4
(lp10
I3
aI878
aI5449
aI24
aI3
aI626
aI2549
aI116
aI3
aI4137
aI3440
aI92
aI339
aI3
aI4137
aI834
aI63765
asg6
S"The monarch's official flag in the United Kingdom is the Royal Standard  which depicts the Royal Arms ."
p11
ss.