(dp1
S'input'
p2
(dp3
S'encoded'
p4
(lp5
I64
aI2179
aI43
aI3
aI626
aI187
aI116
aI1989
aI34
aI3102
aI2223
asS'ori'
p6
S"This house believes the United States is responsible for Mexico's drugs war"
p7
ssS'output'
p8
(dp9
g4
(lp10
I3503
aI257
aI4336
aI440
aI3
aI2611
aI7991
aI5
aI4543
aI696
aI4336
aI5726
aI394
aI99
aI1068
aI45
aI8734
aI3757
aI45
aI3
aI2611
aI63765
asg6
S'Yet  if ATF had the gun description and serial number  ATF officials would not need to request access to the gun  .'
p11
ss.