(dp1
S'input'
p2
(dp3
S'encoded'
p4
(lp5
I64
aI2179
aI394
aI4325
aI2042
aI270
aI89
aI11605
aI3324
asS'ori'
p6
S'This house would fund education using a voucher scheme'
p7
ssS'output'
p8
(dp9
g4
(lp10
I217
aI7
aI132
aI256
aI182
aI3619
aI45
aI4358
aI24
aI5743
aI982
aI3812
aI4364
aI73
aI256
aI63765
asg6
S'Most of these programs are offered to students in low-income families  low performing schools  or special-education programs .'
p11
ss.