(dp1
S'input'
p2
(dp3
S'encoded'
p4
(lp5
I64
aI2179
aI43
aI63
aI3
aI21
aI45
aI12715
aI417
aI99
aI316
aI2897
asS'ori'
p6
S'This house believes that the right to asylum should not be absolute'
p7
ssS'output'
p8
(dp9
g4
(lp10
I273
aI116
aI89
aI1261
aI9567
aI24
aI41923
aI30488
aI5
aI7168
aI41
aI155
aI3026
aI134
aI3
aI658
aI24162
aI5
aI2287
aI7517
aI192
aI63765
asg6
S'There is a distinct pride in uncovering deception and safeguarding  as they saw it  the public purse and domestic employment market .'
p11
ss.