(dp1
S'input'
p2
(dp3
S'encoded'
p4
(lp5
I64
aI2179
aI394
aI2741
aI3
aI1560
aI6025
aI2784
asS'ori'
p6
S'This house would pass the American Jobs Act'
p7
ssS'output'
p8
(dp9
g4
(lp10
I1655
aI516
aI3645
aI14
aI3224
aI81
aI12513
aI493
aI5650
aI120
aI81
aI182
aI178
aI63765
asg6
S'Creating additional regulations on businesses who discriminate against hiring those who are long-term unemployed .'
p11
ss.