(dp1
S'input'
p2
(dp3
S'encoded'
p4
(lp5
I64
aI2179
aI394
aI4325
aI2042
aI270
aI89
aI11605
aI3324
asS'ori'
p6
S'This house would fund education using a voucher scheme'
p7
ssS'output'
p8
(dp9
g4
(lp10
I2869
aI2870
aI2822
aI24
aI96
aI7
aI2135
aI2136
aI3293
aI24
aI3
aI320
aI2618
aI3007
aI116
aI93
aI7
aI3
aI7585
aI3024
aI332
aI34
aI89
aI1352
aI150
aI720
aI63765
asg6
S'Ronald Reagan spoke in support of Paul\'s foreign policy views in the early 1980s  stating "Ron Paul is one of the outstanding leaders fighting for a stronger national defense .'
p11
ss.