(dp1
S'input'
p2
(dp3
S'encoded'
p4
(lp5
I64
aI2179
aI43
aI63
aI1036
aI4828
aI33250
aI116
aI25073
aI45
aI3315
aI4562
asS'ori'
p6
S'This house believes that male infant circumcision is tantamount to child abuse'
p7
ssS'output'
p8
(dp9
g4
(lp10
I6179
aI1729
aI3
aI748
aI16481
aI7
aI33250
aI14
aI3862
aI5
aI8532
aI13819
aI289
aI3
aI33242
aI10
aI89
aI1168
aI45
aI16335
aI3
aI16481
aI5
aI3017
aI89
aI1068
aI14
aI3
aI759
aI7
aI33242
aI3535
aI45
aI154
aI2015
aI16523
aI34
aI3
aI3378
asg6
S'Goldman (1999) discussed the possible trauma of circumcision on children and parents  anxieties over the circumcised state  a tendency to repeat the trauma  and suggested a need on the part of circumcised doctors to find medical justifications for the procedure '
p11
ss.