(dp1
S'input'
p2
(dp3
S'encoded'
p4
(lp5
I64
aI2179
aI43
aI63
aI3357
aI5003
aI652
aI3
aI188
aI3262
asS'ori'
p6
S'This house believes that opinion polls harm the democratic process'
p7
ssS'output'
p8
(dp9
g4
(lp10
I64
aI4900
aI55
aI2425
aI45
aI2041
aI14
aI40
aI3
aI8935
aI7
aI4275
aI24
aI368
aI626
aI187
aI182
aI2794
aI75
aI2935
aI1191
aI3
aI747
aI7
aI4275
aI24
aI248
aI413
aI4361
aI63765
asg6
S'This difference has led to research on how the behavior of voters in western United States are influenced by news about the decisions of voters in other time zones .'
p11
ss.