(dp1
S'input'
p2
(dp3
S'encoded'
p4
(lp5
I64
aI2179
aI394
aI5842
aI3569
aI446
aI13498
asS'ori'
p6
S'This house would introduce year round schooling'
p7
ssS'output'
p8
(dp9
g4
(lp10
I24
aI421
aI45
aI3424
aI9716
aI6778
aI4364
aI11
aI93
aI3427
aI24
aI2871
aI267
aI3286
aI311
aI9233
aI5
aI267
aI3286
aI311
aI9234
aI63765
asg6
S'In addition to summer holidays  Scottish schools have one week in October  two weeks at Christmas and two weeks at Easter .'
p11
ss.