(dp1
S'input'
p2
(dp3
S'encoded'
p4
(lp5
I64
aI2179
aI394
aI117
aI7428
aI21151
aI34
aI11389
aI2042
aI24
aI4364
asS'ori'
p6
S'This house would only teach abstinence for sex education in schools'
p7
ssS'output'
p8
(dp9
g4
(lp10
I3
aI4659
aI7
aI8803
aI2567
aI88
aI1358
aI755
aI3
aI11389
aI116
aI11968
aI73
aI99
aI45
aI89
aI5615
aI36548
aI41
aI261
aI41
aI45
aI271
aI10665
aI7
aI7283
aI864
aI7
aI2240
aI63765
asg6
S"The context of sexual relationships may determine whether the sex is harmful or not to a young person's GPA  as well as to their chances of dropping out of school  ."
p11
ss.