(dp1
S'input'
p2
(dp3
S'encoded'
p4
(lp5
I64
aI2179
aI43
aI223
aI2138
aI11
aI89
aI21
aI45
aI2185
aI372
asS'ori'
p6
S'This house believes all nations have a right to nuclear weapons'
p7
ssS'output'
p8
(dp9
g4
(lp10
I12084
aI282
aI89
aI6669
aI2134
aI60
aI3079
aI24
aI2203
aI63765
asg6
S'Greenpeace International  a non-governmental environmental organization with offices in 41 countries  .'
p11
ss.