(dp1
S'input'
p2
(dp3
S'encoded'
p4
(lp5
I64
aI2179
aI43
aI63
aI11083
aI10046
aI417
aI316
aI89
aI3135
aI4603
asS'ori'
p6
S'This house believes that Holocaust denial should be a criminal offence'
p7
ssS'output'
p8
(dp9
g4
(lp10
I11083
aI10046
aI116
aI1240
aI667
aI45
aI3
aI2653
aI2087
aI41
aI22242
aI8640
aI1983
aI150
aI5606
aI7
aI3
aI2344
aI742
aI24
aI51
aI3625
aI60
aI3
aI6348
aI7
aI11083
aI10046
aI7
aI368
aI2478
aI116
aI89
aI1240
aI667
aI8164
aI24
aI3
aI5761
aI285
aI63765
asg6
S'Holocaust denial is relatively new to the Middle East  as Kenneth Jacobson  assistant national director of the Anti-Defamation League  said in an interview with Haaretz: "Adopting the theories of Holocaust denial of Western scholars is a relatively new phenomenon in the Muslim world .'
p11
ss.