(dp1
S'input'
p2
(dp3
S'encoded'
p4
(lp5
I64
aI2179
aI43
aI63
aI3
aI21
aI45
aI12715
aI417
aI99
aI316
aI2897
asS'ori'
p6
S'This house believes that the right to asylum should not be absolute'
p7
ssS'output'
p8
(dp9
g4
(lp10
I155
aI2056
aI163
aI475
aI7
aI3164
aI92
aI182
aI2142
aI63
aI2677
aI3
aI260
aI24
aI3
aI32236
aI3262
aI63765
asg6
S'They now make use of 11 Voluntary Agencies" (VOLAGS)  which are non-governmental organizations that assist the government in the resettlement process  .'
p11
ss.