(dp1
S'input'
p2
(dp3
S'encoded'
p4
(lp5
I64
aI2179
aI43
aI63
aI6670
aI546
aI417
aI316
aI89
aI1334
aI3108
aI7
aI4849
aI1886
aI2855
asS'ori'
p6
S'This house believes that wind power should be a primary focus of future energy supply'
p7
ssS'output'
p8
(dp9
g4
(lp10
I6717
aI139
aI4979
aI3
aI6
aI45
aI92
aI89
aI546
aI2878
aI116
aI17320
aI999
aI73
aI6681
aI131
aI6717
aI116
aI514
aI416
aI41
aI114
aI134
aI382
aI16919
aI60
aI5124
aI63765
asg6
S'Intermittency can mean the extent to which a power source is unintentionally stopped or unavailable  but intermittency is frequently used as though it were synonymous with variability  .'
p11
ss.