(dp1
S'input'
p2
(dp3
S'encoded'
p4
(lp5
I64
aI2179
aI394
aI2773
aI12505
asS'ori'
p6
S'This house would embrace multiculturalism'
p7
ssS'output'
p8
(dp9
g4
(lp10
I89
aI3409
aI2328
aI1019
aI316
aI15307
aI42
aI1966
aI604
aI12505
aI116
aI51
aI4182
aI5
aI89
aI2328
aI55
aI443
aI878
aI4182
aI63765
asg6
S'A liberal democracy cannot be multicultural  he argued  because multiculturalism is an ideology and a democracy has no official ideology .'
p11
ss.