(dp1
S'input'
p2
(dp3
S'encoded'
p4
(lp5
I64
aI2179
aI394
aI5370
aI3
aI5286
asS'ori'
p6
S'This house would abolish the monarchy'
p7
ssS'output'
p8
(dp9
g4
(lp10
I366
aI9901
aI3
aI3661
aI7
aI3
aI1692
aI63765
asg6
S"After Anne's accession  the problem of the succession re-emerged ."
p11
ss.