(dp1
S'input'
p2
(dp3
S'encoded'
p4
(lp5
I64
aI2179
aI43
aI63
aI3
aI21
aI45
aI12715
aI417
aI99
aI316
aI2897
asS'ori'
p6
S'This house believes that the right to asylum should not be absolute'
p7
ssS'output'
p8
(dp9
g4
(lp10
I3739
aI3438
aI45
aI3411
aI89
aI2231
aI7
aI3
aI2610
aI708
aI1910
aI89
aI7337
aI7
aI25616
aI45
aI420
aI27052
aI81
aI26166
aI3
aI4013
aI3163
aI7
aI25
aI413
aI92
aI394
aI2507
aI11
aI12
aI6196
aI63765
asg6
S'Anyone attempting to write a history of the immigration control owes a debt of gratitude to Mr Roche who mined the collective memories of his time which would otherwise have been lost .'
p11
ss.