(dp1
S'input'
p2
(dp3
S'encoded'
p4
(lp5
I64
aI2179
aI43
aI63
aI134
aI116
aI400
aI21
aI34
aI3
aI260
aI45
aI3439
aI57
aI7
aI2381
asS'ori'
p6
S'This house believes that it is sometimes right for the government to restrict freedom of speech'
p7
ssS'output'
p8
(dp9
g4
(lp10
I24
aI93
aI3256
aI33
aI3
aI14942
aI1966
aI63
aI59454
aI122
aI89
aI667
aI2186
aI63
aI123
aI22905
aI3497
aI34
aI89
aI913
aI7801
aI5
aI508
aI463
aI316
aI4570
aI19
aI3
aI12359
aI2860
aI63765
asg6
S'In one landmark case  the FCC argued that teletext was a new technology that created soaring demand for a limited resource  and thus could be exempt from the Fairness Doctrine .'
p11
ss.