(dp1
S'input'
p2
(dp3
S'encoded'
p4
(lp5
I64
aI2179
aI43
aI223
aI2138
aI11
aI89
aI21
aI45
aI2185
aI372
asS'ori'
p6
S'This house believes all nations have a right to nuclear weapons'
p7
ssS'output'
p8
(dp9
g4
(lp10
I134
aI55
aI12
aI1966
aI946
aI366
aI3
aI2555
aI1687
aI63
aI64
aI35990
aI116
aI3
aI2267
aI7
aI3
aI1608
aI3485
aI7
aI2185
aI1862
aI1261
aI19
aI3
aI1353
aI2465
aI7
aI3
aI2237
aI2223
aI63765
asg6
S'It has been argued  especially after the September 11  2001 attacks  that this complication is the sign of the next age of nuclear strategy  distinct from the relative stability of the Cold War  .'
p11
ss.