(dp1
S'input'
p2
(dp3
S'encoded'
p4
(lp5
I64
aI2179
aI43
aI63
aI2157
aI2565
aI493
aI19084
aI382
aI4850
asS'ori'
p6
S"This house believes that Israel's 2008-2009 military operations against Gaza were justified"
p7
ssS'output'
p8
(dp9
g4
(lp10
I3
aI905
aI742
aI63
aI3
aI6056
aI5462
aI440
aI8117
aI89
aI1160
aI7
aI9422
aI34
aI7058
aI5
aI440
aI11022
aI3
aI57
aI7
aI4640
aI7
aI120
aI4287
aI3
aI1687
aI14
aI19084
aI63765
asg6
S'The report said that the Israeli authorities had shown a lack of toleration for protests  and had damaged the freedom of expression of those opposing the attacks on Gaza .'
p11
ss.