(dp1
S'input'
p2
(dp3
S'encoded'
p4
(lp5
I64
aI2179
aI43
aI63
aI3357
aI5003
aI652
aI3
aI188
aI3262
asS'ori'
p6
S'This house believes that opinion polls harm the democratic process'
p7
ssS'output'
p8
(dp9
g4
(lp10
I7188
aI7
aI11561
aI182
aI3629
aI75
aI89
aI1168
aI45
aI4998
aI19
aI1609
aI89
aI3419
aI1191
aI4722
aI155
aI1190
aI876
aI7397
aI2342
aI63765
asg6
S"Threats of isolation are avoided by a person's tendency to refrain from making a statement about something they think might attract objections ."
p11
ss.