(dp1
S'input'
p2
(dp3
S'encoded'
p4
(lp5
I64
aI2179
aI235
aI839
aI4168
aI7
aI4996
aI34759
asS'ori'
p6
S'This house supports direct election of city mayors'
p7
ssS'output'
p8
(dp9
g4
(lp10
I16369
aI2394
aI63765
asg6
S'|- Harrow 6 December 2001 17 502 43 23 554 57 26  .'
p11
ss.