(dp1
S'input'
p2
(dp3
S'encoded'
p4
(lp5
I64
aI2179
aI43
aI63
aI3
aI21
aI45
aI12715
aI417
aI99
aI316
aI2897
asS'ori'
p6
S'This house believes that the right to asylum should not be absolute'
p7
ssS'output'
p8
(dp9
g4
(lp10
I24
aI128
aI45
aI1715
aI35802
aI4056
aI5
aI17531
aI3
aI667
aI16761
aI3243
aI3092
aI3
aI19129
aI7
aI18471
aI60
aI4156
aI23067
aI14
aI4056
aI5
aI60
aI3386
aI23067
aI45
aI8827
aI3
aI4613
aI14
aI3
aI4224
aI17531
aI63765
asg6
S'In order to mark someones arrival and departure the new Aliens Officers endorsed the passports of passengers with red stamps on arrival and with black stamps to cancel the endorsement on the persons departure .'
p11
ss.