(dp1
S'input'
p2
(dp3
S'encoded'
p4
(lp5
I64
aI2179
aI235
aI3
aI2136
aI7
aI3
aI2306
aI7
aI2390
asS'ori'
p6
S'This house supports the one-child policy of the republic of China'
p7
ssS'output'
p8
(dp9
g4
(lp10
I24
aI3
aI626
aI187
aI24
aI49
aI2642
aI7
aI16513
aI382
aI4851
aI63765
asg6
S'In the United States  in 2001  almost half of pregnancies were unintended  .'
p11
ss.