(dp1
S'input'
p2
(dp3
S'encoded'
p4
(lp5
I64
aI2179
aI394
aI2017
aI262
asS'ori'
p6
S'This house would ban boxing'
p7
ssS'output'
p8
(dp9
g4
(lp10
I64
aI116
aI1724
aI344
aI24
aI276
aI262
aI41
aI134
aI1298
aI89
aI325
aI1962
aI24
aI1065
aI126
aI45
aI1835
aI63765
asg6
S'This is rarely seen in professional boxing as it requires a great disparity in skill level to execute .'
p11
ss.