(dp1
S'input'
p2
(dp3
S'encoded'
p4
(lp5
I64
aI2179
aI43
aI63
aI323
aI417
aI10009
aI211
aI9035
aI249
aI45
aI3426
aI211
aI2144
aI595
aI17
aI96
asS'ori'
p6
S'This house believes that Europe should weaken its austerity measures to guarantee its citizens greater social support'
p7
ssS'output'
p8
(dp9
g4
(lp10
I8923
aI116
aI89
aI1488
aI3716
aI234
aI24
aI226
aI134
aI55
aI440
aI3552
aI289
aI3
aI2439
aI5
aI2794
aI8924
aI81
aI4555
aI4004
aI134
aI134
aI116
aI8925
aI2493
aI73
aI3192
aI75
aI1825
aI223
aI3950
aI8277
aI5019
aI63765
asg6
S'Chartalism is a small minority view in economics; while it has had advocates over the years  and influenced Keynes  who specifically credited it  it is categorically rejected or ignored by virtually all contemporary mainstream economists .'
p11
ss.