(dp1
S'input'
p2
(dp3
S'encoded'
p4
(lp5
I64
aI2179
aI394
aI5842
aI3569
aI446
aI13498
asS'ori'
p6
S'This house would introduce year round schooling'
p7
ssS'output'
p8
(dp9
g4
(lp10
I24
aI6097
aI3424
aI12931
aI162
aI6120
aI19
aI45
aI320
aI2555
aI73
aI63765
asg6
S'In Hungary  summer vacation usually lasts from mid-June to early September (11 or 12 weeks) .'
p11
ss.