(dp1
S'input'
p2
(dp3
S'encoded'
p4
(lp5
I64
aI2179
aI43
aI223
aI2138
aI11
aI89
aI21
aI45
aI2185
aI372
asS'ori'
p6
S'This house believes all nations have a right to nuclear weapons'
p7
ssS'output'
p8
(dp9
g4
(lp10
I357
aI1190
aI155
aI182
aI15848
aI604
aI3
aI681
aI7
aI2185
aI2672
aI116
aI289
aI63765
asg6
S'We think they are stupid because the era of nuclear bombs is over .'
p11
ss.