(dp1
S'input'
p2
(dp3
S'encoded'
p4
(lp5
I64
aI2179
aI43
aI223
aI2138
aI11
aI89
aI21
aI45
aI2185
aI372
asS'ori'
p6
S'This house believes all nations have a right to nuclear weapons'
p7
ssS'output'
p8
(dp9
g4
(lp10
I691
aI25
aI4168
aI42
aI55
aI11396
aI64
aI2028
aI24
aI1237
aI281
aI2136
aI7259
aI63765
asg6
S'Since his election he has reiterated this goal in several major policy addresses  .'
p11
ss.