(dp1
S'input'
p2
(dp3
S'encoded'
p4
(lp5
I64
aI2179
aI394
aI5370
aI3
aI5286
asS'ori'
p6
S'This house would abolish the monarchy'
p7
ssS'output'
p8
(dp9
g4
(lp10
I653
aI7
aI15283
aI206
aI89
aI3357
aI7
aI5352
aI5405
aI2236
aI41
aI89
aI2007
aI117
aI93
aI3059
aI7
aI15283
aI3476
aI2547
aI45
aI2455
aI89
aI5286
aI3
aI3074
aI7
aI15283
aI742
aI155
aI394
aI1385
aI45
aI11
aI51
aI2990
aI536
aI7
aI10
aI97
aI382
aI15415
aI5
aI382
aI5015
aI63765
asg6
S'Despite 69% of Canadians having a "mostly favourable" opinion of Queen Elizabeth II as a person  only one third  33%  of Canadians preferred Canada to remain a monarchy - the plurality 36% of Canadians said they would prefer to have an elected head of state  another 21% were indifferent  and 11% were unsure .'
p11
ss.