(dp1
S'input'
p2
(dp3
S'encoded'
p4
(lp5
I64
aI2179
aI43
aI24
aI3
aI475
aI7
aI12436
aI3364
asS'ori'
p6
S'This house believes in the use of affirmative action'
p7
ssS'output'
p8
(dp9
g4
(lp10
I6269
aI19
aI45
aI3
aI212
aI195
aI7
aI3386
aI6703
aI6941
aI2422
aI75
aI63
aI7
aI5948
aI75
aI63765
asg6
S'Consequently  from 1975 to 1990 the real wages of black manufacturing workers rose by 50 %  that of whites by 1 %  .'
p11
ss.