(dp1
S'input'
p2
(dp3
S'encoded'
p4
(lp5
I64
aI2179
aI43
aI223
aI2138
aI11
aI89
aI21
aI45
aI2185
aI372
asS'ori'
p6
S'This house believes all nations have a right to nuclear weapons'
p7
ssS'output'
p8
(dp9
g4
(lp10
I3
aI1843
aI7
aI3
aI11570
aI3081
aI9311
aI24
aI3
aI68
aI63
aI443
aI1178
aI16879
aI7
aI7371
aI122
aI2686
aI63765
asg6
S'The weakness of the NPT regime lay in the fact that no obvious diversion of material was involved .'
p11
ss.