(dp1
S'input'
p2
(dp3
S'encoded'
p4
(lp5
I64
aI2179
aI43
aI24
aI3
aI475
aI7
aI12436
aI3364
asS'ori'
p6
S'This house believes in the use of affirmative action'
p7
ssS'output'
p8
(dp9
g4
(lp10
I3406
aI1592
aI3
aI15578
aI1343
aI366
aI425
aI3495
aI83
aI3420
aI311
aI870
aI7
aI2128
aI2789
aI24
aI223
aI7664
aI2721
aI7872
aI73
aI10
aI4443
aI6228
aI63765
asg6
S'Additionally  following the Norwegian example  after January 27  2014  women must represent at least 20% of board members in all stock exchange listed or state owned companies .'
p11
ss.