(dp1
S'input'
p2
(dp3
S'encoded'
p4
(lp5
I64
aI2179
aI43
aI63
aI134
aI116
aI400
aI21
aI34
aI3
aI260
aI45
aI3439
aI57
aI7
aI2381
asS'ori'
p6
S'This house believes that it is sometimes right for the government to restrict freedom of speech'
p7
ssS'output'
p8
(dp9
g4
(lp10
I3
aI33
aI10113
aI14
aI3
aI15971
aI4276
aI46
aI2784
aI7
aI89
aI2503
aI70
aI63
aI2052
aI667
aI2051
aI14
aI4276
aI2373
aI63765
asg6
S'The case centered on the Bipartisan Campaign Reform Act of 2002  a federal law that imposed new restrictions on campaign financing .'
p11
ss.