(dp1
S'input'
p2
(dp3
S'encoded'
p4
(lp5
I64
aI2179
aI43
aI63
aI2659
aI417
aI1690
aI3
aI12048
aI7
aI19084
asS'ori'
p6
S'This house believes that Israel should lift the blockade of Gaza'
p7
ssS'output'
p8
(dp9
g4
(lp10
I24
aI421
aI45
aI3727
aI19363
aI3
aI19191
aI10318
aI100
aI7
aI3
aI18471
aI14
aI3
aI863
aI248
aI2414
aI382
aI993
aI19
aI10105
aI5
aI13560
aI5
aI382
aI24980
aI24
aI2659
aI63765
asg6
S'In addition to activists aboard the Mavi Marmara  some of the passengers on the five other ships were injured from beatings and less-lethal weaponry  and were hospitalized in Israel  .'
p11
ss.