(dp1
S'input'
p2
(dp3
S'encoded'
p4
(lp5
I64
aI2179
aI43
aI17
aI4941
aI857
aI3211
asS'ori'
p6
S'This house believes social deprivation causes crime'
p7
ssS'output'
p8
(dp9
g4
(lp10
I42
aI174
aI5789
aI311
aI40
aI169
aI4116
aI70
aI122
aI1964
aI24
aI2087
aI2404
aI87
aI63
aI3
aI210
aI463
aI14147
aI19
aI3332
aI7312
aI5
aI40
aI3
aI70
aI24
aI5669
aI180
aI7318
aI5668
aI18131
aI63765
asg6
S'He also looked at how British Colonial Law was applied in East Africa  so that the capitalist "ruling class" could profit from coffee plantations  and how the law in medieval England benefited feudal landowners .'
p11
ss.