(dp1
S'input'
p2
(dp3
S'encoded'
p4
(lp5
I64
aI2179
aI394
aI2017
aI262
asS'ori'
p6
S'This house would ban boxing'
p7
ssS'output'
p8
(dp9
g4
(lp10
I155
aI182
aI153
aI1058
aI41
aI3
aI1059
aI262
aI1060
aI1021
aI45
aI271
aI710
aI45
aI708
aI3
aI1061
aI7
aI3
aI405
aI5
aI48
aI271
aI299
aI1062
aI371
aI1063
aI462
aI5
aI1064
aI136
aI1065
aI5
aI1066
aI138
aI89
aI1067
aI63765
asg6
S'They are often regarded as the best boxing strategists due to their ability to control the pace of the fight and lead their opponent  methodically wearing him down and exhibiting more skill and finesse than a brawler .'
p11
ss.