(dp1
S'input'
p2
(dp3
S'encoded'
p4
(lp5
I64
aI2179
aI43
aI8629
aI116
aI3
aI117
aI998
asS'ori'
p6
S'This house believes atheism is the only way'
p7
ssS'output'
p8
(dp9
g4
(lp10
I8381
aI8408
aI63
aI100
aI8409
aI1190
aI63
aI3
aI8410
aI73
aI1532
aI75
aI5
aI63
aI1532
aI1640
aI4316
aI2126
aI63765
asg6
S'Haggard insists that some evolutionists think that the ear or eye "happened by accident" and that "the eye just formed itself somehow" .'
p11
ss.