(dp1
S'input'
p2
(dp3
S'encoded'
p4
(lp5
I64
aI2179
aI43
aI63
aI6670
aI546
aI417
aI316
aI89
aI1334
aI3108
aI7
aI4849
aI1886
aI2855
asS'ori'
p6
S'This house believes that wind power should be a primary focus of future energy supply'
p7
ssS'output'
p8
(dp9
g4
(lp10
I93
aI2035
aI6826
aI63
aI6670
aI6738
aI182
aI1989
aI34
aI45
aI6688
aI4386
aI7
aI2881
aI226
aI546
aI6745
aI182
aI1989
aI34
aI1191
aI6688
aI4386
aI6711
aI1381
aI248
aI2992
aI11
aI979
aI6826
aI7
aI6817
aI457
aI63765
asg6
S'One study estimates that wind farms are responsible for 0 .3 to 0 .4 fatalities per gigawatt-hour (GWh) of electricity while fossil-fueled power stations are responsible for about 5 .2 fatalities per GWh  although other studies have lower estimates of avian deaths .'
p11
ss.