(dp1
S'input'
p2
(dp3
S'encoded'
p4
(lp5
I64
aI2179
aI43
aI63
aI2659
aI417
aI1690
aI3
aI12048
aI7
aI19084
asS'ori'
p6
S'This house believes that Israel should lift the blockade of Gaza'
p7
ssS'output'
p8
(dp9
g4
(lp10
I3
aI3572
aI901
aI742
aI3
aI19097
aI122
aI89
aI29942
aI34
aI3
aI260
aI7
aI29943
aI19229
asg6
S'The Washington Post said the raid was a "diplomatic debacle for the government of Binyamin Netanyahu ."'
p11
ss.