(dp1
S'input'
p2
(dp3
S'encoded'
p4
(lp5
I64
aI2179
aI394
aI2998
aI3
aI4360
aI7
aI3249
aI6804
aI24
aI3
aI102
asS'ori'
p6
S'This house would encourage the creation of private universities in the UK'
p7
ssS'output'
p8
(dp9
g4
(lp10
I12434
aI7
aI11203
aI4443
aI6228
aI182
aI4914
aI45
aI271
aI5
aI45
aI3
aI7182
aI5
aI139
aI117
aI4532
aI5
aI17050
aI53
aI1227
aI182
aI5898
aI63765
asg6
S'Managers of privately owned companies are accountable to their owners/shareholders and to the consumer  and can only exist and thrive where needs are met .'
p11
ss.