(dp1
S'input'
p2
(dp3
S'encoded'
p4
(lp5
I64
aI2179
aI394
aI2017
aI223
aI9058
aI23653
asS'ori'
p6
S'This house would ban all unsustainable logging'
p7
ssS'output'
p8
(dp9
g4
(lp10
I378
aI273
aI182
aI725
aI2142
aI589
aI3
aI285
aI63
aI2998
aI41
aI89
aI998
aI45
aI6792
aI6695
aI6694
aI34
aI3
aI6564
aI3014
aI7
aI332
aI2456
aI1546
aI63765
asg6
S'However  there are many organizations around the world that encourage tree-planting as a way to offset carbon emissions for the express purpose of fighting climate change .'
p11
ss.