(dp1
S'input'
p2
(dp3
S'encoded'
p4
(lp5
I64
aI2179
aI394
aI5370
aI7146
aI4585
aI2446
asS'ori'
p6
S'This house would abolish intellectual property rights'
p7
ssS'output'
p8
(dp9
g4
(lp10
I3744
aI24
aI3
aI626
aI187
aI5
aI3
aI626
aI2549
aI11
aI2493
aI3
aI2860
aI7
aI89
aI279
aI70
aI12717
aI63765
asg6
S'Courts in the United States and the United Kingdom have rejected the doctrine of a common law copyright .'
p11
ss.