(dp1
S'input'
p2
(dp3
S'encoded'
p4
(lp5
I64
aI2179
aI394
aI2017
aI223
aI9058
aI23653
asS'ori'
p6
S'This house would ban all unsustainable logging'
p7
ssS'output'
p8
(dp9
g4
(lp10
I89
aI1511
aI8252
aI17284
aI122
aI63
aI385
aI382
aI153
aI2676
aI24
aI89
aI7945
aI803
aI92
aI394
aI124
aI15896
aI34
aI100
aI5938
aI1343
aI2955
aI17725
aI63765
asg6
S'A typical progress trap was that cities were often built in a forested area  which would provide wood for some industry (for example  construction  shipbuilding  pottery) .'
p11
ss.