(dp1
S'input'
p2
(dp3
S'encoded'
p4
(lp5
I64
aI2179
aI394
aI2017
aI3807
aI314
aI3433
asS'ori'
p6
S'This house would ban partial birth abortions'
p7
ssS'output'
p8
(dp9
g4
(lp10
I75
aI3
aI70
aI3269
aI116
aI3537
aI99
aI117
aI19
aI6460
aI2945
aI131
aI19
aI1928
aI4927
aI7
aI650
aI2617
aI5
aI24
aI100
aI3052
aI19
aI1928
aI4927
aI7
aI786
asg6
S'By the law  life is protected not only from immediate destruction  but from every degree of actual violence  and  in some cases  from every degree of danger  ."'
p11
ss.