(dp1
S'input'
p2
(dp3
S'encoded'
p4
(lp5
I64
aI2179
aI43
aI24
aI3
aI475
aI7
aI12436
aI3364
asS'ori'
p6
S'This house believes in the use of affirmative action'
p7
ssS'output'
p8
(dp9
g4
(lp10
I63
aI116
aI10250
aI11085
aI4962
aI45
aI3018
aI3
aI4927
aI7
aI4933
aI5025
aI1560
aI5615
aI3939
aI12517
aI5072
aI10250
aI4182
aI88
aI17217
aI3
aI14729
aI3859
aI4658
aI7
aI63
aI4933
aI63765
asg6
S'That is  racial centrality appears to promote the degree of discrimination African American young adults perceive whereas racial ideology may buffer the detrimental emotional effects of that discrimination .'
p11
ss.