(dp1
S'input'
p2
(dp3
S'encoded'
p4
(lp5
I64
aI2179
aI43
aI63
aI134
aI116
aI400
aI21
aI34
aI3
aI260
aI45
aI3439
aI57
aI7
aI2381
asS'ori'
p6
S'This house believes that it is sometimes right for the government to restrict freedom of speech'
p7
ssS'output'
p8
(dp9
g4
(lp10
I134
aI2100
aI1237
aI1497
aI75
aI25582
aI25583
aI158
aI89
aI237
aI9797
aI7
aI25
aI93
aI2784
aI6372
aI3869
aI5
aI89
aI4772
aI45
aI2954
aI5726
aI14
aI631
aI7149
aI7
aI25
aI2394
aI2410
aI7
aI3
aI20026
aI75
aI495
aI8558
aI63765
asg6
S"It included several pieces by Vaclav Havel  including a first translation of his one act play Conversation  and a letter to Czech officials on police censorship of his December 1975 production of The Beggar's Opera by John Gay  ."
p11
ss.