(dp1
S'input'
p2
(dp3
S'encoded'
p4
(lp5
I64
aI2179
aI43
aI63
aI2659
aI417
aI1690
aI3
aI12048
aI7
aI19084
asS'ori'
p6
S'This house believes that Israel should lift the blockade of Gaza'
p7
ssS'output'
p8
(dp9
g4
(lp10
I45
aI11
aI89
aI3341
aI6407
aI1754
aI41
aI15
aI3639
aI5
aI707
aI116
aI99
aI6679
aI60
aI351
aI6174
aI7
aI70
aI63765
asg6
S'To have a defendant acting simultaneously as both prosecutor and judge is not compatible with any principle of law .'
p11
ss.