(dp1
S'input'
p2
(dp3
S'encoded'
p4
(lp5
I64
aI2179
aI394
aI1499
aI3
aI8115
aI34564
aI17106
asS'ori'
p6
S'This house would build the Keystone XL pipeline'
p7
ssS'output'
p8
(dp9
g4
(lp10
I1592
aI3
aI6032
aI89
aI3798
aI75
aI3
aI2179
aI1886
aI5
aI2228
aI1886
aI5
aI546
aI5261
aI122
aI3772
aI34
aI425
aI63765
asg6
S"Following the rejection  a hearing by the House Energy and Commerce Committee's energy and power subcommittee was planned for January 25  ."
p11
ss.