(dp1
S'input'
p2
(dp3
S'encoded'
p4
(lp5
I64
aI2179
aI43
aI63
aI187
aI417
aI99
aI16642
aI3
aI6449
aI7
aI3935
asS'ori'
p6
S'This house believes that states should not subsidize the growing of tobacco'
p7
ssS'output'
p8
(dp9
g4
(lp10
I604
aI13159
aI182
aI2794
aI136
aI75
aI271
aI15072
aI138
aI75
aI3939
aI44
aI75
aI8532
aI4364
aI5
aI3217
aI6195
aI311
aI5377
aI78
aI19
aI1370
aI9257
aI182
aI153
aI15787
aI63765
asg6
S'Because teenagers are influenced more by their peers than by adults  attempts by parents  schools  and health professionals at preventing people from trying cigarettes are often unsuccessful .'
p11
ss.