(dp1
S'input'
p2
(dp3
S'encoded'
p4
(lp5
I64
aI2179
aI394
aI2773
aI12505
asS'ori'
p6
S'This house would embrace multiculturalism'
p7
ssS'output'
p8
(dp9
g4
(lp10
I3
aI2023
aI6165
aI5
aI29
aI495
aI51380
aI22700
aI55
aI2244
aI3
aI234
aI63
aI3
aI4169
aI68
aI24
aI2547
aI116
aI2609
aI45
aI2023
aI5
aI324
aI45
aI28
aI2023
aI1019
aI316
aI988
aI868
aI63
aI12088
aI5
aI136
aI4814
aI27599
aI2547
aI116
aI311
aI3
aI419
aI3780
aI7
aI3
aI2023
aI35339
aI63765
asg6
S'The Canadian philosopher and writer John Ralston Saul has expressed the view that the French fact in Canada is central to Canadian  and particularly to English Canadian identity:It cannot be repeated enough that Quebec and  more precisely  francophone Canada is at the very heart of the Canadian mythology .'
p11
ss.