(dp1
S'input'
p2
(dp3
S'encoded'
p4
(lp5
I64
aI2179
aI43
aI63
aI187
aI417
aI99
aI16642
aI3
aI6449
aI7
aI3935
asS'ori'
p6
S'This house believes that states should not subsidize the growing of tobacco'
p7
ssS'output'
p8
(dp9
g4
(lp10
I237
aI134
aI394
aI880
aI6750
aI3646
aI18567
aI3
aI9174
aI703
aI2867
aI397
aI3
aI2668
aI7
aI3
aI7214
aI1687
aI63765
asg6
S'First  it would neither receive nor deserve the careful attention necessary during the aftermath of the terrorist attacks .'
p11
ss.