(dp1
S'input'
p2
(dp3
S'encoded'
p4
(lp5
I64
aI2179
aI235
aI3
aI2136
aI7
aI3
aI2306
aI7
aI2390
asS'ori'
p6
S'This house supports the one-child policy of the republic of China'
p7
ssS'output'
p8
(dp9
g4
(lp10
I134
aI122
aI3
aI5855
aI319
aI1652
aI45
aI1292
aI3
aI22
aI4562
aI7
aI20007
aI19
aI995
aI3
aI37257
aI2175
aI63765
asg6
S'It was the unfair game aiming to avoid the political abuse of psychiatry from dominating the WPA agenda  .'
p11
ss.