(dp1
S'input'
p2
(dp3
S'encoded'
p4
(lp5
I64
aI2179
aI394
aI163
aI959
aI2042
aI3557
asS'ori'
p6
S'This house would make physical education compulsory'
p7
ssS'output'
p8
(dp9
g4
(lp10
I3218
aI3984
aI45
aI17711
aI16031
aI7825
aI3236
aI5
aI1049
aI61
aI37552
aI1809
aI35
aI254
aI7395
aI2206
aI45
aI2784
aI24
aI8051
aI4713
aI3708
aI63765
asg6
S'Our desire to cultivate friendships  engender respect  and maintain what Dennison terms natural authority encourages us to act in socially acceptable ways (i .e .'
p11
ss.