(dp1
S'input'
p2
(dp3
S'encoded'
p4
(lp5
I64
aI2179
aI43
aI63
aI3
aI4990
aI4991
aI116
aI4850
aI24
aI12166
aI3
aI475
aI7
aI3532
aI3290
aI7
aI4714
asS'ori'
p6
S'This house believes that the Catholic Church is justified in forbidding the use of barrier methods of contraception'
p7
ssS'output'
p8
(dp9
g4
(lp10
I24
aI3
aI2145
aI63765
aI21152
aI5583
aI122
aI118
aI2499
aI45
aI271
aI475
aI41
aI4368
aI39748
aI63765
asg6
S'In the U .S .  condom advertising was legally restricted to their use as disease preventatives .'
p11
ss.