(dp1
S'input'
p2
(dp3
S'encoded'
p4
(lp5
I64
aI2179
aI43
aI63
aI323
aI417
aI10009
aI211
aI9035
aI249
aI45
aI3426
aI211
aI2144
aI595
aI17
aI96
asS'ori'
p6
S'This house believes that Europe should weaken its austerity measures to guarantee its citizens greater social support'
p7
ssS'output'
p8
(dp9
g4
(lp10
I260
aI8877
aI182
aI8903
aI63765
aI7094
aI248
aI138
aI8904
aI73
aI8905
aI7528
aI116
aI246
aI1348
aI24
aI7800
aI45
aI316
aI89
aI6730
aI1963
asg6
S'government deficits are inflationary . Anything other than mild or moderate inflation is generally accepted in economics to be a bad thing'
p11
ss.