(dp1
S'input'
p2
(dp3
S'encoded'
p4
(lp5
I64
aI2179
aI43
aI8629
aI116
aI3
aI117
aI998
asS'ori'
p6
S'This house believes atheism is the only way'
p7
ssS'output'
p8
(dp9
g4
(lp10
I8629
aI116
aI89
aI1377
aI2259
aI34
aI4706
asg6
S'atheism is a superior basis for ethics'
p11
ss.