(dp1
S'input'
p2
(dp3
S'encoded'
p4
(lp5
I64
aI2179
aI394
aI190
aI3
aI21
aI45
aI3895
aI834
asS'ori'
p6
S'This house would limit the right to bear arms'
p7
ssS'output'
p8
(dp9
g4
(lp10
I667
aI2086
aI4996
aI116
aI174
aI1047
aI34
aI211
aI2050
aI2611
aI708
aI2511
aI63765
asg6
S'New York City is also known for its strict gun control laws .'
p11
ss.