(dp1
S'input'
p2
(dp3
S'encoded'
p4
(lp5
I64
aI2179
aI394
aI5284
aI150
aI3987
asS'ori'
p6
S'This house would reintroduce national service'
p7
ssS'output'
p8
(dp9
g4
(lp10
I2151
aI4358
aI863
aI1727
aI3
aI8895
aI5856
aI406
aI311
aI3
aI2097
aI448
aI7807
aI7
aI3
aI4750
aI7
aI5518
aI2022
aI5
aI3382
aI45
aI1979
aI3
aI1580
aI2032
aI45
aI991
aI3
aI2023
aI2219
aI19
aI3951
aI14
aI10385
aI311
aI945
aI2891
aI2120
aI60
aI51
aI2845
aI5561
aI24
aI1561
aI7
aI3
aI2017
aI63765
asg6
S"Approximately 500 students  five times the usual attendance  appeared at the Annual General Meeting of the University of Victoria Students' Society (UVSS)  and voted to defeat the motion proposed to stop the Canadian Forces from appearing on campus at career development events  with an estimated 25 votes in favor of the ban ."
p11
ss.