(dp1
S'input'
p2
(dp3
S'encoded'
p4
(lp5
I64
aI2179
aI394
aI5370
aI223
aI4013
aI10440
aI2446
aI4881
aI75
aI14482
aI11004
asS'ori'
p6
S'This house would abolish all collective bargaining rights claimed by trades unions'
p7
ssS'output'
p8
(dp9
g4
(lp10
I64
aI2131
aI122
aI2062
aI24
aI41
aI3
aI237
aI2287
aI2016
aI63765
asg6
S'This union was founded in 1834 as the first domestic association .'
p11
ss.