(dp1
S'input'
p2
(dp3
S'encoded'
p4
(lp5
I64
aI2179
aI43
aI3
aI2206
aI116
aI4850
aI24
aI270
aI972
aI45
aI881
aI187
aI19
aI10443
aI2185
aI372
asS'ori'
p6
S'This house believes the US is justified in using force to prevent states from acquiring nuclear weapons'
p7
ssS'output'
p8
(dp9
g4
(lp10
I3
aI2145
aI63765
aI8736
aI7
aI2153
aI311
aI89
aI2148
aI2333
aI24
aI2299
aI63765
asg6
S'The U .S . pledged 0 .7% of GDP at a global conference in Mexico  .'
p11
ss.