(dp1
S'input'
p2
(dp3
S'encoded'
p4
(lp5
I64
aI2179
aI43
aI63
aI3
aI21
aI45
aI12715
aI417
aI99
aI316
aI2897
asS'ori'
p6
S'This house believes that the right to asylum should not be absolute'
p7
ssS'output'
p8
(dp9
g4
(lp10
I3
aI43503
aI4259
aI394
aI302
aI271
aI40771
aI4164
aI311
aI7145
aI400
aI9676
aI289
aI3131
aI572
aI4871
aI19
aI19366
aI11161
aI4368
aI5
aI5735
aI751
aI179
aI934
aI63765
asg6
S'The unlucky ones would continue their perilous journey at sea  sometimes lasting over 6 months long  suffering from hunger  thirst  disease  and pirates before finding safety .'
p11
ss.