(dp1
S'input'
p2
(dp3
S'encoded'
p4
(lp5
I64
aI2179
aI394
aI60
aI23587
asS'ori'
p6
S'This house would re-engage with Myanmar'
p7
ssS'output'
p8
(dp9
g4
(lp10
I42
aI9296
aI19
aI3
aI3578
aI6293
aI5
aI122
aI9249
aI34
aI20509
aI63765
asg6
S'He resigned from the Legislative Assembly and was arrested for sedition .'
p11
ss.