(dp1
S'input'
p2
(dp3
S'encoded'
p4
(lp5
I64
aI2179
aI394
aI16756
aI20435
asS'ori'
p6
S'This house would criminalize blasphemy'
p7
ssS'output'
p8
(dp9
g4
(lp10
I89
aI103
aI63
aI3
aI20435
aI70
aI116
aI5343
aI60
aI3500
aI7
aI3
aI2533
aI34
aI57
aI7
aI122
aI2493
aI24
aI3
aI33
aI7
aI20489
aI646
aI102
aI89
aI33
aI1607
aI75
aI11233
aI1715
aI12300
aI63765
aI3
aI2483
aI297
aI63
aI134
aI122
aI545
aI3
aI7561
aI7
aI15282
aI34
aI89
aI3890
aI14
aI1260
aI2381
asg6
S"a claim that the blasphemy law is inconsistent with article 10 of the Convention (providing for freedom of expression) was rejected in the case of Wingrove v UK (1997); a case brought by solicitor Mark Stephens . The Court decided that it was within the state's margin of appreciation for a restriction on free speech"
p11
ss.