(dp1
S'input'
p2
(dp3
S'encoded'
p4
(lp5
I64
aI2179
aI394
aI60
aI23587
asS'ori'
p6
S'This house would re-engage with Myanmar'
p7
ssS'output'
p8
(dp9
g4
(lp10
I89
aI10619
aI905
aI742
aI63
aI2879
aI19
aI89
aI3988
aI2173
aI155
aI394
aI4319
aI316
aI2367
aI1931
aI19
aI31858
aI5
aI63
aI3
aI16983
aI11
aI12
aI50615
aI5
aI50616
aI63765
asg6
S'A BBC report said that sources from a government-sponsored militia stated they would soon be moved away from Yangon  and that the monks have been disrobed and shackled .'
p11
ss.