(dp1
S'input'
p2
(dp3
S'encoded'
p4
(lp5
I64
aI2179
aI43
aI223
aI2138
aI11
aI89
aI21
aI45
aI2185
aI372
asS'ori'
p6
S'This house believes all nations have a right to nuclear weapons'
p7
ssS'output'
p8
(dp9
g4
(lp10
I217
aI133
aI63
aI4059
aI1886
aI4510
aI5
aI6844
aI1886
aI139
aI4726
aI271
aI1227
aI63765
asg6
S'Most believe that boosting energy efficiency and renewable energy can meet their needs  .'
p11
ss.