(dp1
S'input'
p2
(dp3
S'encoded'
p4
(lp5
I64
aI2179
aI43
aI63
aI3
aI4990
aI4991
aI116
aI4850
aI24
aI12166
aI3
aI475
aI7
aI3532
aI3290
aI7
aI4714
asS'ori'
p6
S'This house believes that the Catholic Church is justified in forbidding the use of barrier methods of contraception'
p7
ssS'output'
p8
(dp9
g4
(lp10
I7376
aI4254
aI4916
aI685
aI3
aI11148
aI34
aI701
aI5781
aI10695
aI41
aI3
aI237
aI10572
aI18726
aI34
aI574
aI4728
aI5
aI25902
aI21194
aI397
aI3
aI5781
aI315
aI14
aI25903
aI5
aI3
aI10920
aI7
aI3
aI11335
aI7
aI3
aI10790
aI3780
aI63765
asg6
S'Moreover  Saint Margaret established the devotion for receiving Holy Communion as the First Friday Devotions for each month  and Eucharistic adoration during the Holy Hour on Thursdays  and the celebration of the Feast of the Sacred Heart  .'
p11
ss.