(dp1
S'input'
p2
(dp3
S'encoded'
p4
(lp5
I64
aI2179
aI43
aI63
aI323
aI417
aI10009
aI211
aI9035
aI249
aI45
aI3426
aI211
aI2144
aI595
aI17
aI96
asS'ori'
p6
S'This house believes that Europe should weaken its austerity measures to guarantee its citizens greater social support'
p7
ssS'output'
p8
(dp9
g4
(lp10
I89
aI2351
aI1727
aI7066
aI14
aI2805
aI1966
aI3024
aI440
aI777
aI121
aI45
aI5426
aI14
aI89
aI213
aI63
aI47
aI99
aI1068
aI45
aI316
aI8033
aI3503
aI63
aI311
aI1059
aI3
aI250
aI463
aI117
aI9331
aI45
aI5271
aI93
aI759
aI7
aI3
aI6085
aI7750
aI6373
aI3
aI6518
aI658
aI8998
aI114
aI134
aI394
aI99
aI1856
aI113
aI1453
aI63
aI63765
asg6
S'A Financial Times editorial on 22 February 2012 argued leaders had "proved themselves unable to settle on a solution that will not need to be revisited yet again"  that at best the deal could only hope to remedy one part of the Greek disaster  namely the country\'s debilitated public finances  though it would not likely even do that  .'
p11
ss.