(dp1
S'input'
p2
(dp3
S'encoded'
p4
(lp5
I64
aI2179
aI43
aI63
aI3
aI4538
aI7
aI4434
aI7793
aI283
aI45
aI3586
aI417
aI316
aI577
asS'ori'
p6
S'This house believes that the sale of violent video games to minors should be banned'
p7
ssS'output'
p8
(dp9
g4
(lp10
I7376
aI3
aI2706
aI7147
aI5
aI5226
aI5938
aI133
aI3
aI678
aI7
aI5119
aI7607
aI4329
aI24
aI725
aI3708
aI45
aI949
aI89
aI419
aI2753
aI5
aI16326
aI2667
aI63765
asg6
S'Moreover  the Korean internet and computer industry believe the popularity of online gaming contributed in many ways to develop a very robust and profitable infrastructure .'
p11
ss.