(dp1
S'input'
p2
(dp3
S'encoded'
p4
(lp5
I64
aI2179
aI43
aI63
aI2659
aI417
aI1690
aI3
aI12048
aI7
aI19084
asS'ori'
p6
S'This house believes that Israel should lift the blockade of Gaza'
p7
ssS'output'
p8
(dp9
g4
(lp10
I226
aI24
aI3644
aI3
aI2377
aI382
aI10905
aI75
aI4136
aI7
aI78
aI158
aI2157
aI5726
aI5
aI8850
aI63765
asg6
S'While in hospital  the soldiers were visited by hundreds of people  including military officials and politicians  .'
p11
ss.