(dp1
S'input'
p2
(dp3
S'encoded'
p4
(lp5
I64
aI2179
aI394
aI2017
aI223
aI9058
aI23653
asS'ori'
p6
S'This house would ban all unsustainable logging'
p7
ssS'output'
p8
(dp9
g4
(lp10
I41
aI89
aI296
aI1445
aI2711
aI7
aI3945
aI78
aI382
aI44686
aI174
aI45
aI8254
aI2506
aI63765
asg6
S'As a result large numbers of rural people were dislocated  also to forest areas .'
p11
ss.