(dp1
S'input'
p2
(dp3
S'encoded'
p4
(lp5
I64
aI2179
aI394
aI1499
aI177
aI1819
aI34
aI160
asS'ori'
p6
S'This house would build high rises for housing'
p7
ssS'output'
p8
(dp9
g4
(lp10
I1381
aI3
aI4585
aI4423
aI34
aI132
aI9482
aI6763
aI382
aI8411
aI9467
aI138
aI271
aI15172
aI4996
aI1484
aI155
aI153
aI440
aI207
aI3757
aI45
aI658
aI33028
aI159
aI41
aI658
aI6676
aI63765
asg6
S'Although the property prices for these periphery sites were markedly cheaper than their inner city counterparts  they often had little access to public amenities  such as public transport  .'
p11
ss.