(dp1
S'input'
p2
(dp3
S'encoded'
p4
(lp5
I64
aI2179
aI43
aI17
aI4941
aI857
aI3211
asS'ori'
p6
S'This house believes social deprivation causes crime'
p7
ssS'output'
p8
(dp9
g4
(lp10
I20575
aI3168
aI3293
aI3
aI10250
aI1962
aI24
aI3211
aI2722
aI41
aI89
aI296
aI7
aI20575
aI4900
aI291
aI13438
aI63765
asg6
S'IQ theory views the racial disparity in crime rates as a result of IQ difference between races .'
p11
ss.