(dp1
S'input'
p2
(dp3
S'encoded'
p4
(lp5
I64
aI2179
aI394
aI4325
aI2042
aI270
aI89
aI11605
aI3324
asS'ori'
p6
S'This house would fund education using a voucher scheme'
p7
ssS'output'
p8
(dp9
g4
(lp10
I3218
aI2157
aI2158
aI24
aI448
aI55
aI8501
aI998
aI864
aI7
aI708
aI63765
asg6
S'Our military spending in general has grown way out of control .'
p11
ss.