(dp1
S'input'
p2
(dp3
S'encoded'
p4
(lp5
I64
aI2179
aI43
aI63
aI2157
aI2565
aI493
aI19084
aI382
aI4850
asS'ori'
p6
S"This house believes that Israel's 2008-2009 military operations against Gaza were justified"
p7
ssS'output'
p8
(dp9
g4
(lp10
I3
aI7088
aI16631
aI282
aI905
aI480
aI24
aI492
aI4246
aI63
aI3
aI2945
aI7
aI4492
aI3224
aI5
aI658
aI6766
aI397
aI6056
aI20031
aI122
aI24
aI725
aI3052
aI5
aI5
aI99
aI316
aI4850
aI14
aI3
aI18
aI7
aI2157
aI63765
asg6
S'The comprehensive Amnesty International report  published in July 2009  notes that the destruction of homes  businesses and public buildings during Israeli offensive was in many cases "wanton and deliberate" and "could not be justified on the grounds of military necessity" .'
p11
ss.