(dp1
S'input'
p2
(dp3
S'encoded'
p4
(lp5
I64
aI2179
aI43
aI63
aI134
aI116
aI400
aI21
aI34
aI3
aI260
aI45
aI3439
aI57
aI7
aI2381
asS'ori'
p6
S'This house believes that it is sometimes right for the government to restrict freedom of speech'
p7
ssS'output'
p8
(dp9
g4
(lp10
I134
aI88
aI11
aI12
aI87
aI211
aI8275
aI9184
aI131
aI122
aI2056
aI41
aI2853
aI60
aI332
aI41
aI1771
aI1260
aI2381
aI63765
asg6
S"It may have been so its radical youth  but was now as concerned with fighting 'hate speech' as protecting free speech  ."
p11
ss.