(dp1
S'input'
p2
(dp3
S'encoded'
p4
(lp5
I64
aI2179
aI394
aI2017
aI223
aI9058
aI23653
asS'ori'
p6
S'This house would ban all unsustainable logging'
p7
ssS'output'
p8
(dp9
g4
(lp10
I3
aI12751
aI459
aI3
aI918
aI7
aI3218
aI47
aI5
aI203
aI4197
aI737
aI45
aI316
aI89
aI6030
aI8219
aI24
aI3
aI2231
aI7
aI3
aI285
aI5
aI221
aI4968
aI45
aI248
aI325
aI7450
aI4197
aI1199
aI89
aI8219
aI24
aI3
aI2231
aI7
aI2445
aI10065
aI63765
asg6
S'The Amazon  under the impact of our will and labor  shall cease to be a simple chapter in the history of the world  and made equivalent to other great rivers  shall become a chapter in the history of human civilization .'
p11
ss.