(dp1
S'input'
p2
(dp3
S'encoded'
p4
(lp5
I64
aI2179
aI43
aI63
aI11083
aI10046
aI417
aI316
aI89
aI3135
aI4603
asS'ori'
p6
S'This house believes that Holocaust denial should be a criminal offence'
p7
ssS'output'
p8
(dp9
g4
(lp10
I3
aI16085
aI7
aI10324
aI10791
aI7
aI19122
aI10608
aI89
aI7
aI19090
aI5
aI2164
aI7
aI3
aI19088
aI150
aI254
aI81
aI7284
aI25
aI16243
aI24
aI2231
aI311
aI3
aI927
aI7
aI15553
aI2992
aI7
aI3
aI2304
aI4371
aI7
aI4372
aI60
aI33586
aI33587
aI41
aI16085
aI19365
aI122
aI8862
aI3968
aI291
aI3
aI10782
aI5
aI3
aI3024
aI7
aI3
aI27161
aI63765
asg6
S'The thesis of 1982 doctoral dissertation of Mahmoud Abbas  a co-founder of Fatah and president of the Palestinian National Authority  who earned his PhD in history at the Institute of Oriental Studies of the Russian Academy of Sciences  with Yevgeny Primakov as thesis advisor  was "The Secret Connection between the Nazis and the Leaders of the Zionist Movement"  .'
p11
ss.