(dp1
S'input'
p2
(dp3
S'encoded'
p4
(lp5
I64
aI2179
aI43
aI63
aI2659
aI417
aI1690
aI3
aI12048
aI7
aI19084
asS'ori'
p6
S'This house believes that Israel should lift the blockade of Gaza'
p7
ssS'output'
p8
(dp9
g4
(lp10
I16619
aI98
aI99
aI733
aI51
aI1010
aI689
aI10
aI5
aI174
aI55
aI99
aI2340
aI132
aI2040
aI63765
asg6
S'Hamas does not administer an internationally recognized state and also has not signed these protocols .'
p11
ss.