(dp1
S'input'
p2
(dp3
S'encoded'
p4
(lp5
I64
aI2179
aI394
aI190
aI3
aI21
aI45
aI3895
aI834
asS'ori'
p6
S'This house would limit the right to bear arms'
p7
ssS'output'
p8
(dp9
g4
(lp10
I92
aI7
aI132
aI5980
aI155
aI2428
aI382
aI217
aI1185
aI92
aI7
aI132
aI5980
aI155
aI382
aI217
aI30958
aI1191
aI5
aI3
aI6
aI45
aI92
aI574
aI7
aI132
aI5980
aI990
aI353
aI4640
aI24
aI3
aI1950
aI3264
aI116
aI2580
aI63765
asg6
S'Which of these considerations they thought were most important  which of these considerations they were most alarmed about  and the extent to which each of these considerations ultimately found expression in the Second Amendment is disputed .'
p11
ss.