(dp1
S'input'
p2
(dp3
S'encoded'
p4
(lp5
I64
aI2179
aI394
aI2017
aI3807
aI314
aI3433
asS'ori'
p6
S'This house would ban partial birth abortions'
p7
ssS'output'
p8
(dp9
g4
(lp10
I3409
aI3049
aI89
aI21
aI116
aI344
aI41
aI4722
aI3
aI10
aI5
aI3202
aI2022
aI83
aI776
aI755
aI2445
aI2446
aI2446
aI2446
aI7102
aI63765
asg6
S"(In liberal democracies  a right is seen as something the state and civil society must defend  whether human rights  victims' rights  children's rights  etc ."
p11
ss.