(dp1
S'input'
p2
(dp3
S'encoded'
p4
(lp5
I64
aI2179
aI394
aI5370
aI7146
aI4585
aI2446
asS'ori'
p6
S'This house would abolish intellectual property rights'
p7
ssS'output'
p8
(dp9
g4
(lp10
I3
aI2258
aI2603
aI187
aI63
aI3353
aI7
aI7146
aI4585
aI2446
aI116
aI3057
aI45
aI7823
aI16
aI2234
aI967
aI223
aI5945
aI5
aI63765
asg6
S'The Anti-Counterfeiting Trade Agreement (ACTA) states that "effective enforcement of intellectual property rights is critical to sustaining economic growth across all industries and globally"  .'
p11
ss.