(dp1
S'input'
p2
(dp3
S'encoded'
p4
(lp5
I64
aI2179
aI394
aI2017
aI3807
aI314
aI3433
asS'ori'
p6
S'This house would ban partial birth abortions'
p7
ssS'output'
p8
(dp9
g4
(lp10
I1928
aI10
aI440
aI3257
aI2474
aI75
aI63765
asg6
S'Every state had abortion legislation by 1900  .'
p11
ss.