(dp1
S'input'
p2
(dp3
S'encoded'
p4
(lp5
I64
aI2179
aI43
aI63
aI11083
aI10046
aI417
aI316
aI89
aI3135
aI4603
asS'ori'
p6
S'This house believes that Holocaust denial should be a criminal offence'
p7
ssS'output'
p8
(dp9
g4
(lp10
I3868
aI63
aI3
aI10779
aI122
aI116
aI4693
aI41
aI14623
aI75
aI11083
aI9703
aI2204
aI9798
aI12217
aI48028
aI81
aI4655
aI63
aI3
aI3579
aI7
aI217
aI7
aI3
aI31349
aI19
aI3
aI36272
aI116
aI604
aI3
aI2083
aI2977
aI2598
aI16871
aI45
aI3
aI803
aI366
aI3
aI2223
aI19223
aI54807
aI45
aI3
aI3912
aI60
aI11438
aI54808
aI19
aI31349
aI24
aI3
aI10779
aI803
aI158
aI19
aI3
aI36329
aI36272
aI63765
asg6
S'Leuchter\'s comment that the camp was "untouched" is dismissed as nonsense by Holocaust scholar Robert Jan van Pelt  who explains that the absence of most of the would-be rubble from the crematoria is because the local Polish population returning to the area after the war rebuilt farmhouses to the west with bricks salvaged from rubble in the camp area including from the Birkenau crematoria  .'
p11
ss.