(dp1
S'input'
p2
(dp3
S'encoded'
p4
(lp5
I64
aI2179
aI43
aI17
aI4941
aI857
aI3211
asS'ori'
p6
S'This house believes social deprivation causes crime'
p7
ssS'output'
p8
(dp9
g4
(lp10
I298
aI8532
aI1480
aI1453
aI99
aI3084
aI53
aI271
aI3862
aI182
aI61
aI271
aI4948
aI182
aI73
aI81
aI271
aI2716
aI182
aI3862
aI182
aI136
aI1856
aI45
aI15705
aI19
aI2240
aI5
aI11
aI17091
aI2716
aI574
aI7
aI92
aI182
aI6212
aI45
aI849
aI63765
asg6
S'When parents commonly do not know where their children are  what their activities are  or who their friends are  children are more likely to truant from school and have delinquent friends  each of which are linked to offending .'
p11
ss.