(dp1
S'input'
p2
(dp3
S'encoded'
p4
(lp5
I64
aI2179
aI394
aI163
aI959
aI2042
aI3557
asS'ori'
p6
S'This house would make physical education compulsory'
p7
ssS'output'
p8
(dp9
g4
(lp10
I15
aI3136
aI7
aI51568
aI11765
aI19653
aI182
aI4200
aI24
aI759
aI75
aI37340
aI63765
asg6
S'Both groups of arcuate nucleus neurons are regulated in part by leptin .'
p11
ss.