(dp1
S'input'
p2
(dp3
S'encoded'
p4
(lp5
I64
aI2179
aI43
aI63
aI134
aI116
aI400
aI21
aI34
aI3
aI260
aI45
aI3439
aI57
aI7
aI2381
asS'ori'
p6
S'This house believes that it is sometimes right for the government to restrict freedom of speech'
p7
ssS'output'
p8
(dp9
g4
(lp10
I3
aI6668
aI332
aI4199
aI182
aI8925
aI7212
aI19
aI3
aI1795
aI7
aI3
aI237
aI3264
aI116
aI99
aI63
aI271
aI7151
aI17098
aI351
aI1341
aI2096
aI131
aI63
aI271
aI7151
aI21995
aI89
aI324
aI25166
aI8051
aI17543
aI7
aI15359
aI1431
aI2096
aI3
aI5280
aI7185
aI45
aI7107
aI63765
asg6
S'The "reason why fighting words are categorically excluded from the protection of the First Amendment is not that their content communicates any particular idea  but that their content embodies a particularly intolerable (and socially unnecessary) mode of expressing whatever idea the speaker wishes to convey .'
p11
ss.