(dp1
S'input'
p2
(dp3
S'encoded'
p4
(lp5
I64
aI2179
aI43
aI63
aI7382
aI116
aI400
aI4713
asS'ori'
p6
S'This house believes that bribery is sometimes acceptable'
p7
ssS'output'
p8
(dp9
g4
(lp10
I495
aI29473
aI809
aI1560
aI5378
aI4546
aI7
aI5914
aI89
aI18324
aI24
aI3
aI29474
aI3099
aI9813
aI1147
aI29475
aI809
aI2145
aI63765
aI2503
aI707
aI4546
aI7
aI5914
aI5915
aI2661
aI15059
aI4573
aI3094
aI29476
aI3094
aI24157
aI5
aI20510
aI20118
aI29477
aI29478
aI353
aI12344
aI7
aI5914
aI5915
aI45
aI20731
aI443
aI1508
aI493
aI180
aI311
aI77
aI1727
aI63765
asg6
S"John Jenrette  former American politician convicted of accepting a bribe in the FBI's Abscam operation Martin Thomas Manton  former U .S . federal judge convicted of accepting bribes Pakistan cricket spot-fixing controversy  Mohammad Asif  Mohammad Amir and Salman Butt  Pakistani cricketers found guilty of accepting bribes to bowl no balls against England at certain times ."
p11
ss.