(dp1
S'input'
p2
(dp3
S'encoded'
p4
(lp5
I64
aI2179
aI394
aI2017
aI223
aI9058
aI23653
asS'ori'
p6
S'This house would ban all unsustainable logging'
p7
ssS'output'
p8
(dp9
g4
(lp10
I3475
aI9208
aI7993
aI7910
aI182
aI93
aI7
aI3
aI1334
aI36822
asg6
S"Equally crucial  healthy forests are one of the world's primary 'carbon sinks .'"
p11
ss.