(dp1
S'input'
p2
(dp3
S'encoded'
p4
(lp5
I64
aI2179
aI43
aI8629
aI116
aI3
aI117
aI998
asS'ori'
p6
S'This house believes atheism is the only way'
p7
ssS'output'
p8
(dp9
g4
(lp10
I248
aI2041
aI24
aI27413
aI3715
aI51
aI4703
aI1362
aI291
aI2382
aI5
aI3211
aI60
aI725
aI2992
aI4717
aI64
aI7997
aI3968
aI100
aI3943
aI134
aI116
aI89
aI10237
aI63765
asg6
S'Other research in criminology indicates an inverse relationship between religion and crime  with many studies establishing this beneficial connection (though some say it is a modest one)  .'
p11
ss.