(dp1
S'input'
p2
(dp3
S'encoded'
p4
(lp5
I64
aI2179
aI43
aI24
aI3
aI475
aI7
aI12436
aI3364
asS'ori'
p6
S'This house believes in the use of affirmative action'
p7
ssS'output'
p8
(dp9
g4
(lp10
I233
aI45
aI495
aI12973
aI3862
aI7
aI6374
aI5
aI8532
aI162
aI11
aI89
aI12974
aI502
aI289
aI248
aI1486
aI7
aI3862
aI5
aI42
aI4246
aI63
aI5
aI1707
aI6223
aI777
aI289
aI3
aI3269
aI1351
aI5
aI153
aI14
aI45
aI3
aI1608
aI87
aI63
aI482
aI8532
aI2741
aI2319
aI271
aI3064
aI5
aI2042
aI45
aI12975
aI3994
aI1609
aI134
aI330
aI34
aI80
aI45
aI12976
aI588
aI89
aI17
aI12977
aI63765
asg6
S'" According to John Hills  children of wealthy and well-connected parents usually have a decisive advantage over other types of children  and he notes that "advantage and disadvantage reinforce themselves over the life cycle  and often on to the next generation" so that successful parents pass along their wealth and education to succeeding generations  making it difficult for others to climb up a social ladder  .'
p11
ss.