(dp1
S'input'
p2
(dp3
S'encoded'
p4
(lp5
I64
aI2179
aI43
aI63
aI3
aI4990
aI4991
aI116
aI4850
aI24
aI12166
aI3
aI475
aI7
aI3532
aI3290
aI7
aI4714
asS'ori'
p6
S'This house believes that the Catholic Church is justified in forbidding the use of barrier methods of contraception'
p7
ssS'output'
p8
(dp9
g4
(lp10
I24
aI2793
aI323
aI5
aI2451
aI46915
aI8231
aI1668
aI366
aI3
aI312
aI7
aI3
aI943
aI2131
aI63765
asg6
S'In Eastern Europe and Russia  natality fell abruptly after the end of the Soviet Union  .'
p11
ss.