(dp1
S'input'
p2
(dp3
S'encoded'
p4
(lp5
I64
aI2179
aI43
aI24
aI3
aI475
aI7
aI12436
aI3364
asS'ori'
p6
S'This house believes in the use of affirmative action'
p7
ssS'output'
p8
(dp9
g4
(lp10
I7038
aI10250
aI24696
aI24
aI404
aI7
aI3064
aI2455
aI24
aI3
aI626
aI291
aI5948
aI5
aI5025
aI2625
aI3
aI1387
aI116
aI89
aI5085
aI7
aI5895
aI63765
aI51
aI13071
aI7
aI3
aI8164
aI1147
aI18416
aI2999
aI7
aI70
aI5
aI17
aI2136
aI311
aI27204
aI4750
aI3172
aI3
aI3064
aI1387
aI116
aI99
aI1640
aI89
aI8580
aI7
aI6612
aI5
aI3240
aI211
aI174
aI89
aI8580
aI7
aI3
aI1420
aI2795
aI7
aI4226
aI24
aI3
aI626
aI187
aI63765
asg6
S'Massive racial differentials in account of wealth remain in the United States: between whites and African Americans  the gap is a factor of twenty  . An analyst of the phenomenon  Thomas Shapiro  professor of law and social policy at Brandeis University argues  The wealth gap is not just a story of merit and achievement  its also a story of the historical legacy of race in the United States .'
p11
ss.