(dp1
S'input'
p2
(dp3
S'encoded'
p4
(lp5
I64
aI2179
aI394
aI15841
aI2736
asS'ori'
p6
S'This house would disband ASEAN'
p7
ssS'output'
p8
(dp9
g4
(lp10
I311
aI3
aI4031
aI7
aI3
aI398
aI214
aI1438
aI45
aI1944
aI89
aI136
aI6669
aI4921
aI63765
asg6
S'At the turn of the 21st century  issues shifted to involve a more environmental perspective .'
p11
ss.