(dp1
S'input'
p2
(dp3
S'encoded'
p4
(lp5
I64
aI2179
aI43
aI17
aI4941
aI857
aI3211
asS'ori'
p6
S'This house believes social deprivation causes crime'
p7
ssS'output'
p8
(dp9
g4
(lp10
I89
aI1496
aI8696
aI3905
aI16097
aI725
aI131
aI99
aI223
aI10725
aI64
aI88
aI949
aI620
aI8855
aI2167
aI17
aI5205
aI3539
aI24
aI3
aI51374
aI145
aI1004
aI75
aI9184
aI3874
aI73
aI14779
aI3186
aI24
aI3211
aI5
aI3
aI13000
aI3089
aI7
aI3135
aI254
aI167
aI63765
asg6
S'A distinctive gang culture underpins many  but not all  organised groups; this may develop through recruiting strategies  social learning processes in the corrective system experienced by youth  family or peer involvement in crime  and the coercive actions of criminal authority figures .'
p11
ss.