(dp1
S'input'
p2
(dp3
S'encoded'
p4
(lp5
I64
aI2179
aI394
aI4261
aI8667
aI3
aI9361
aI5
aI17069
asS'ori'
p6
S'This house would prohibit burning the stars and stripes'
p7
ssS'output'
p8
(dp9
g4
(lp10
I500
aI20881
aI5
aI25095
aI1629
aI4477
aI45
aI51
aI1560
aI5449
aI5
aI31774
aI155
aI500
aI63
aI45
aI20205
aI357
aI1068
aI51
aI1560
aI5449
aI63765
asg6
S'[he] did willfully and unlawfully set fire to an American Flag and shout  "If they did that to Meredith  We don\'t need an American Flag .'
p11
ss.