(dp1
S'input'
p2
(dp3
S'encoded'
p4
(lp5
I64
aI2179
aI43
aI8629
aI116
aI3
aI117
aI998
asS'ori'
p6
S'This house believes atheism is the only way'
p7
ssS'output'
p8
(dp9
g4
(lp10
I5480
aI547
aI63
aI3
aI845
aI463
aI316
aI4141
aI75
aI1443
aI18847
aI5
aI8560
aI1237
aI42521
aI45
aI2312
aI60
aI351
aI399
aI7
aI260
aI5
aI17
aI2134
aI155
aI7433
aI252
aI3013
aI73
aI5903
aI2987
aI75
aI5480
aI5
aI45
aI9138
aI251
aI75
aI271
aI284
aI5344
aI42522
aI5254
aI63765
asg6
S"God allowed that the issue could be settled by allowing humankind and Satan several millenia to experiment with any form of government and social organization they wished without interference or overt intervention by God  and to solve humankind's problems by their own secular and/or demonic devices ."
p11
ss.