(dp1
S'input'
p2
(dp3
S'encoded'
p4
(lp5
I64
aI2179
aI394
aI117
aI7428
aI21151
aI34
aI11389
aI2042
aI24
aI4364
asS'ori'
p6
S'This house would only teach abstinence for sex education in schools'
p7
ssS'output'
p8
(dp9
g4
(lp10
I9547
aI1630
aI63
aI64
aI605
aI20965
aI61
aI42
aI5810
aI45
aI316
aI89
aI125
aI4817
aI63
aI223
aI17821
aI5
aI4607
aI22517
aI19
aI42855
aI8803
aI19562
aI63765
asg6
S'Reich added that this emphasis obscures what he believed to be a basic psychological principle: that all worries and difficulties originate from unsatisfied sexual impulses  .'
p11
ss.