(dp1
S'input'
p2
(dp3
S'encoded'
p4
(lp5
I64
aI2179
aI43
aI63
aI6670
aI546
aI417
aI316
aI89
aI1334
aI3108
aI7
aI4849
aI1886
aI2855
asS'ori'
p6
S'This house believes that wind power should be a primary focus of future energy supply'
p7
ssS'output'
p8
(dp9
g4
(lp10
I41
aI2032
aI3
aI5109
aI394
aI316
aI2676
aI14
aI16517
aI4410
aI37003
aI24
aI2743
aI3791
aI4722
aI63
aI55
aI1301
aI12
aI3818
aI24
aI3
aI626
aI187
aI63765
asg6
S'As proposed  the turbines would be built on floating platforms  anchored in waters 100200&nbsp;meters (330660&nbsp;ft) deep  something that has never been done in the United States .'
p11
ss.