(dp1
S'input'
p2
(dp3
S'encoded'
p4
(lp5
I64
aI2179
aI43
aI63
aI2157
aI2565
aI493
aI19084
aI382
aI4850
asS'ori'
p6
S"This house believes that Israel's 2008-2009 military operations against Gaza were justified"
p7
ssS'output'
p8
(dp9
g4
(lp10
I2790
aI263
aI14
aI2659
aI45
aI840
aI1690
aI211
aI12048
aI5
aI501
aI2893
aI6941
aI736
aI19084
aI63765
asg6
S'Vietnam called on Israel to immediately lift its blockade and allow humanitarian workers into Gaza  .'
p11
ss.