(dp1
S'input'
p2
(dp3
S'encoded'
p4
(lp5
I64
aI2179
aI43
aI63
aI2203
aI60
aI51
aI997
aI2837
aI21716
aI1636
aI5349
aI417
aI2998
aI8532
aI45
aI3051
aI8578
asS'ori'
p6
S'This house believes that countries with an imbalanced male/female ratio skewed towards males should encourage parents to produce girls'
p7
ssS'output'
p8
(dp9
g4
(lp10
I4658
aI7
aI2456
aI1546
aI380
aI6834
aI11
aI3072
aI3
aI2802
aI755
aI2445
aI314
aI11389
aI17839
aI11
aI4284
aI12
aI3493
aI75
aI6669
aI35601
aI159
aI41
aI2456
aI1546
aI5
aI2148
aI6850
aI63765
asg6
S'Effects of climate change Various scientists have examined the question whether human birth sex ratios have historically been affected by environmental stressors such as climate change and global warming .'
p11
ss.