(dp1
S'input'
p2
(dp3
S'encoded'
p4
(lp5
I64
aI2179
aI394
aI1499
aI177
aI1819
aI34
aI160
asS'ori'
p6
S'This house would build high rises for housing'
p7
ssS'output'
p8
(dp9
g4
(lp10
I3
aI2418
aI960
aI7
aI3
aI1950
aI285
aI2223
aI117
aI12104
aI3
aI3016
aI7
aI160
aI7664
aI92
aI122
aI24
aI1376
aI3016
aI1460
aI45
aI3
aI2875
aI7
aI2223
aI63765
asg6
S"The bomb damage of the Second World War only worsened the condition of Britain's housing stock  which was in poor condition prior to the outbreak of war ."
p11
ss.