(dp1
S'input'
p2
(dp3
S'encoded'
p4
(lp5
I64
aI2179
aI43
aI63
aI3
aI4990
aI4991
aI116
aI4850
aI24
aI12166
aI3
aI475
aI7
aI3532
aI3290
aI7
aI4714
asS'ori'
p6
S'This house believes that the Catholic Church is justified in forbidding the use of barrier methods of contraception'
p7
ssS'output'
p8
(dp9
g4
(lp10
I226
aI2751
aI13744
aI41
aI3
aI1334
aI6424
aI7
aI2189
aI3
aI2394
aI10857
aI13776
aI13777
aI75
aI6359
aI8357
aI6270
aI1442
aI3
aI2810
aI399
aI7
aI2437
aI45
aI89
aI42610
aI7
aI8803
aI2189
aI63765
asg6
S'While maintaining procreation as the primary function of intercourse  the December 1930 encyclical Casti Connubii by Pope Pius XI gave the highest form of recognition to a secondaryunitivepurpose of sexual intercourse .'
p11
ss.