(dp1
S'input'
p2
(dp3
S'encoded'
p4
(lp5
I64
aI2179
aI43
aI8629
aI116
aI3
aI117
aI998
asS'ori'
p6
S'This house believes atheism is the only way'
p7
ssS'output'
p8
(dp9
g4
(lp10
I2041
aI24
aI64
aI639
aI2853
aI4471
aI7
aI3966
aI63765
asg6
S"Dawkins' research in this period concerned models of animal decision-making  ."
p11
ss.