(dp1
S'input'
p2
(dp3
S'encoded'
p4
(lp5
I64
aI2179
aI43
aI24
aI3
aI475
aI7
aI12436
aI3364
asS'ori'
p6
S'This house believes in the use of affirmative action'
p7
ssS'output'
p8
(dp9
g4
(lp10
I54710
aI646
aI3983
aI3205
aI2130
aI54711
aI645
aI646
aI2159
aI7
aI10
aI34
aI2042
aI54712
aI30607
aI646
aI595
aI15227
aI3217
aI2128
aI10588
aI54713
aI646
aI41651
aI407
aI15770
aI2132
aI54711
aI54714
aI646
aI54715
aI3217
aI254
aI54711
aI645
aI7631
aI646
aI2159
aI7
aI10
aI34
aI2258
aI5
aI5938
aI10588
aI54716
aI3342
aI2132
aI646
aI3386
aI54712
aI645
aI646
aI2159
aI7
aI10
aI34
aI7517
aI54711
aI12221
aI646
aI2159
aI7
aI10
aI34
aI2258
aI5
aI5938
aI54717
aI63765
asg6
S'Ojutiku v Manpower Services Commission [1982]   [1982] ICR 661 R (Schaffter) v Secretary of State for Education [1987] IRLR 53 Rainey v Greater Glasgow Health Board [1987] AC 224 Clymo v Wandsworth London Borough Council [1989] ICR 250 Enderby v Frenchay Health Authority (C-127/92) [1994] ICR 112 R (Equal Opportunities Commission) v Secretary of State for Trade and Industry [1995] 1 AC 1 Staffordshire County Council v Black [1995] IRLR 234 R (Seymour Smith) v Secretary of State for Employment [2000] ICR 244 Rutherford v Secretary of State for Trade and Industry (No 2) [2006] UKHL 19  .'
p11
ss.