(dp1
S'input'
p2
(dp3
S'encoded'
p4
(lp5
I64
aI2179
aI43
aI24
aI3
aI475
aI7
aI12436
aI3364
asS'ori'
p6
S'This house believes in the use of affirmative action'
p7
ssS'output'
p8
(dp9
g4
(lp10
I24
aI3820
aI45
aI1358
aI755
aI51
aI3364
aI55
aI51
aI782
aI4980
aI45
aI3
aI2533
aI134
aI47
aI9503
aI45
aI1792
aI755
aI63
aI3364
aI55
aI51
aI31337
aI16712
aI918
aI111
aI89
aI94
aI5722
aI75
aI4226
aI5231
aI7292
aI73
aI150
aI73
aI2812
aI5304
aI63765
asg6
S'In seeking to determine whether an action has an effect contrary to the Convention  it will look to see whether that action has an unjustifiable disparate impact upon a group distinguished by race  colour  descent  or national or ethnic origin .'
p11
ss.