(dp1
S'input'
p2
(dp3
S'encoded'
p4
(lp5
I64
aI2179
aI394
aI1499
aI177
aI1819
aI34
aI160
asS'ori'
p6
S'This house would build high rises for housing'
p7
ssS'output'
p8
(dp9
g4
(lp10
I3
aI217
aI448
aI2497
aI14477
aI64
aI3445
aI116
aI1856
aI6806
aI2891
aI73
aI136
aI1032
aI1640
aI73
aI3237
asg6
S'The most general term characterizing this concept is likely Sustainable Development  or more simply just "Resource Stewardship" or "Best Practices ."'
p11
ss.