(dp1
S'input'
p2
(dp3
S'encoded'
p4
(lp5
I64
aI2179
aI43
aI63
aI1036
aI4828
aI33250
aI116
aI25073
aI45
aI3315
aI4562
asS'ori'
p6
S'This house believes that male infant circumcision is tantamount to child abuse'
p7
ssS'output'
p8
(dp9
g4
(lp10
I23196
aI187
aI63
aI24
aI3
aI3579
aI7
aI12390
aI14
aI3
aI782
aI7
aI4828
aI33250
aI14
aI3822
aI8803
aI6424
aI5
aI3797
aI33250
aI2196
aI1019
aI316
aI1607
aI45
aI89
aI24566
aI877
aI5
aI273
aI47
aI243
aI316
aI89
aI22580
aI13313
aI63
aI3
aI400
aI958
aI36985
aI3609
aI45
aI33250
aI116
aI5195
aI8274
aI75
aI2637
aI12906
aI8469
aI588
aI41
aI4707
aI3384
aI63765
asg6
S'Holm (2004) states that  in the absence of "valid comparative data" on the effect of infant circumcision on adult sexual function and satisfaction  "the circumcision debate cannot be brought to a satisfactory conclusion  and there will always be a lingering suspicion that the sometimes rather strident opposition to circumcision is partly driven by cultural prejudices  dressed up as ethical arguments .'
p11
ss.