(dp1
S'input'
p2
(dp3
S'encoded'
p4
(lp5
I64
aI2179
aI394
aI2976
aI12243
aI24
aI954
aI126
aI1560
aI10723
asS'ori'
p6
S'This house would implement playoffs in collegiate level American football'
p7
ssS'output'
p8
(dp9
g4
(lp10
I7719
aI5
aI28910
aI754
aI3
aI5159
aI60
aI117
aI93
aI852
aI1643
aI41
aI2296
aI5
aI4235
aI63765
asg6
S'Wisconsin and Louisville ended the season with only one loss (the same as Florida and Ohio State) .'
p11
ss.