(dp1
S'input'
p2
(dp3
S'encoded'
p4
(lp5
I64
aI2179
aI43
aI223
aI2138
aI11
aI89
aI21
aI45
aI2185
aI372
asS'ori'
p6
S'This house believes all nations have a right to nuclear weapons'
p7
ssS'output'
p8
(dp9
g4
(lp10
I24
aI16502
aI37051
aI3172
aI63
aI3
aI3455
aI7
aI7967
aI2944
aI2945
aI417
aI79
aI24
aI223
aI2702
aI7025
aI917
aI7
aI1420
aI5317
aI73
aI2068
aI7623
aI63765
asg6
S'In embryo  Waltz argues that the logic of mutually assured destruction (MAD) should work in all security environments  regardless of historical tensions or recent hostility .'
p11
ss.