(dp1
S'input'
p2
(dp3
S'encoded'
p4
(lp5
I64
aI2179
aI43
aI3
aI2206
aI116
aI4850
aI24
aI270
aI972
aI45
aI881
aI187
aI19
aI10443
aI2185
aI372
asS'ori'
p6
S'This house believes the US is justified in using force to prevent states from acquiring nuclear weapons'
p7
ssS'output'
p8
(dp9
g4
(lp10
I397
aI3
aI16653
aI2285
aI24
aI3
aI3
aI2206
aI71
aI2806
aI89
aI2696
aI63
aI122
aI99
aI493
aI3
aI2206
aI5
aI210
aI6537
aI397
aI3
aI2237
aI2223
aI5
aI51
aI2553
aI397
aI15
aI285
aI2285
aI24
aI92
aI3
aI16654
aI10930
aI3
aI4830
aI7
aI725
aI1560
aI12346
aI81
aI16655
aI5854
aI289
aI3
aI12482
aI63765
asg6
S"During the Yugoslav Wars in the 1990's  the US opposed Serbia  a country that was not against the US and capitalist ideals during the Cold War and an ally during both World Wars in which the Serbs saved the lives of many American pilots who flew missions over the Balkans ."
p11
ss.