(dp1
S'input'
p2
(dp3
S'encoded'
p4
(lp5
I64
aI2179
aI394
aI475
aI2135
aI2194
aI6198
aI45
aI2041
aI5
aI13926
aI8732
aI63
aI1735
aI12708
aI5
aI5599
aI24
aI2203
aI45
aI1397
aI7149
aI5
aI12311
aI271
aI5119
aI4948
asS'ori'
p6
S'This house would use foreign aid funds to research and distribute software that allows bloggers and journalists in non-democratic countries to evade censorship and conceal their online activities'
p7
ssS'output'
p8
(dp9
g4
(lp10
I64
aI696
aI116
aI1483
aI177
aI24
aI2897
aI1809
aI131
aI1483
aI982
aI1353
aI45
aI3
aI697
aI696
aI7
aI25205
aI7147
aI1517
aI2487
aI55
aI289
aI267
aI2665
aI2639
aI7147
aI63765
asg6
S'This number is quite high in absolute terms but quite low relative to the total number of filtered Internet users (China alone has over two hundred million Internet users) .'
p11
ss.