(dp1
S'input'
p2
(dp3
S'encoded'
p4
(lp5
I64
aI2179
aI43
aI63
aI2157
aI2565
aI493
aI19084
aI382
aI4850
asS'ori'
p6
S"This house believes that Israel's 2008-2009 military operations against Gaza were justified"
p7
ssS'output'
p8
(dp9
g4
(lp10
I14
aI2394
aI2659
aI2791
aI63
aI134
aI2264
aI6926
aI3
aI2396
aI16619
aI20621
aI45
aI3
aI3020
aI63765
asg6
S'On December 13  Israel announced that it favored extending the cease-fire  provided Hamas adhered to the conditions  .'
p11
ss.