(dp1
S'input'
p2
(dp3
S'encoded'
p4
(lp5
I64
aI2179
aI394
aI16642
aI1376
aI5269
asS'ori'
p6
S'This house would subsidize poor communities'
p7
ssS'output'
p8
(dp9
g4
(lp10
I363
aI12927
aI5
aI6159
aI246
aI1453
aI99
aI84
aI89
aI612
aI14
aI3064
aI4925
aI131
aI133
aI24
aI5969
aI459
aI3
aI70
aI917
aI7
aI755
aI134
aI4309
aI45
aI12426
aI3064
aI5200
aI63765
asg6
S'Classical liberals and libertarians generally do not take a stance on wealth inequality  but believe in equality under the law regardless of whether it leads to unequal wealth distribution .'
p11
ss.