(dp1
S'input'
p2
(dp3
S'encoded'
p4
(lp5
I64
aI2179
aI394
aI2017
aI3807
aI314
aI3433
asS'ori'
p6
S'This house would ban partial birth abortions'
p7
ssS'output'
p8
(dp9
g4
(lp10
I570
aI2511
aI382
aI871
aI24
aI2300
aI7717
aI5
aI874
aI7537
aI63765
asg6
S'Similar laws were passed in California  Oregon  and North Carolina .'
p11
ss.