(dp1
S'input'
p2
(dp3
S'encoded'
p4
(lp5
I64
aI2179
aI394
aI60
aI23587
asS'ori'
p6
S'This house would re-engage with Myanmar'
p7
ssS'output'
p8
(dp9
g4
(lp10
I675
aI3
aI8199
aI370
aI60681
aI60682
aI5
aI3
aI41041
aI187
aI382
aI223
aI6581
aI63765
asg6
S'Like the Pagan Empire  Ava  Hanthawaddy and the Shan states were all multi-ethnic polities .'
p11
ss.