(dp1
S'input'
p2
(dp3
S'encoded'
p4
(lp5
I64
aI2179
aI43
aI63
aI3357
aI5003
aI652
aI3
aI188
aI3262
asS'ori'
p6
S'This house believes that opinion polls harm the democratic process'
p7
ssS'output'
p8
(dp9
g4
(lp10
I64
aI2041
aI3500
aI2981
aI63
aI89
aI3174
aI63
aI89
aI2007
aI116
aI384
aI19
aI80
aI138
aI155
aI182
aI136
aI1856
aI45
aI1576
aI1483
aI24
aI128
aI45
aI1576
aI120
aI4900
aI19
aI773
aI8117
aI63765
asg6
S'This research article shows that a perception that a person is different from others than they are more likely to keep quite in order to keep those difference from being shown .'
p11
ss.