(dp1
S'input'
p2
(dp3
S'encoded'
p4
(lp5
I64
aI2179
aI394
aI2998
aI3
aI4360
aI7
aI3249
aI6804
aI24
aI3
aI102
asS'ori'
p6
S'This house would encourage the creation of private universities in the UK'
p7
ssS'output'
p8
(dp9
g4
(lp10
I1685
aI11958
aI3369
aI7
aI4510
aI5
aI658
aI1421
aI3249
aI708
aI7
aI2635
aI100
aI9178
aI7709
aI139
aI316
aI4186
aI41
aI89
aI399
aI7
aI89
aI4216
aI7180
aI5
aI182
aI3531
aI41
aI89
aI47256
aI399
aI7
aI3664
aI63765
asg6
S'Setting aside questions of efficiency and public versus private control of resources  some privatization transactions can be interpreted as a form of a secured loan  and are criticized as a "particularly noxious form of governmental debt"  .'
p11
ss.