(dp1
S'input'
p2
(dp3
S'encoded'
p4
(lp5
I64
aI2179
aI394
aI10662
aI626
aI187
aI2157
aI2697
aI19
aI2371
asS'ori'
p6
S'This house would remove United States military bases from Japan'
p7
ssS'output'
p8
(dp9
g4
(lp10
I1381
aI2371
aI443
aI593
aI2933
aI351
aI2194
aI19
aI3
aI626
aI187
aI75
aI3
aI3
aI2603
aI634
aI45
aI2830
aI41
aI3
aI2259
aI34
aI2290
aI5
aI4295
aI2361
aI13216
aI14317
aI7
aI3
aI267
aI372
aI5
aI34
aI3
aI4515
aI7
aI4846
aI3073
aI45
aI2371
aI158
aI15
aI282
aI1306
aI2962
aI5
aI4846
aI1022
aI5224
aI63765
asg6
S"Although Japan no longer received any aid from the United States by the 1960s  the agreement continued to serve as the basis for purchase and licensing agreements ensuring interoperability of the two nations' weapons and for the release of classified data to Japan  including both international intelligence reports and classified technical information ."
p11
ss.