(dp1
S'input'
p2
(dp3
S'encoded'
p4
(lp5
I64
aI2179
aI394
aI163
aI959
aI2042
aI3557
asS'ori'
p6
S'This house would make physical education compulsory'
p7
ssS'output'
p8
(dp9
g4
(lp10
I20567
aI6238
aI159
aI41
aI7964
aI11254
aI11270
aI33947
aI1506
aI1503
aI6864
aI11255
aI73
aI5600
aI16749
aI3108
aI14
aI1879
aI7072
aI1278
aI63765
asg6
S'Aerobic exercises  such as cycling  swimming  walking  skipping rope  rowing  running  hiking or playing tennis  focus on increasing cardiovascular endurance  .'
p11
ss.