(dp1
S'input'
p2
(dp3
S'encoded'
p4
(lp5
I64
aI2179
aI394
aI163
aI959
aI2042
aI3557
asS'ori'
p6
S'This house would make physical education compulsory'
p7
ssS'output'
p8
(dp9
g4
(lp10
I46265
aI2240
aI122
aI2062
aI24
aI24
aI53561
aI5156
aI25461
aI327
aI75
aI46266
aI41
aI759
aI7
aI53562
aI53563
aI63765
asg6
S'Summerhill School was founded in 1921 in Hellerau near Dresden  Germany by Neill as part of Neue Schule ("New School") .'
p11
ss.