(dp1
S'input'
p2
(dp3
S'encoded'
p4
(lp5
I64
aI2179
aI394
aI4325
aI2042
aI270
aI89
aI11605
aI3324
asS'ori'
p6
S'This house would fund education using a voucher scheme'
p7
ssS'output'
p8
(dp9
g4
(lp10
I211
aI1334
aI5046
aI182
aI4262
aI5
aI2158
aI46
aI4585
aI2446
aI6874
aI2240
aI4662
aI3583
aI3
aI5933
aI7
aI260
aI5
aI22
aI2497
aI447
aI63765
asg6
S'Its primary concerns are tax and spending reform  property rights restoration  school choice  limiting the size of government  and political term limits .'
p11
ss.