(dp1
S'input'
p2
(dp3
S'encoded'
p4
(lp5
I64
aI2179
aI394
aI5370
aI3
aI5286
asS'ori'
p6
S'This house would abolish the monarchy'
p7
ssS'output'
p8
(dp9
g4
(lp10
I1381
aI42
aI4993
aI45
aI773
aI51
aI3
aI103
aI116
aI93
aI42
aI5576
aI5577
aI63765
asg6
S'Although he admits to being an "unashamed royalist"  the claim is one he adamantly rejects .'
p11
ss.