(dp1
S'input'
p2
(dp3
S'encoded'
p4
(lp5
I64
aI2179
aI394
aI163
aI959
aI2042
aI3557
asS'ori'
p6
S'This house would make physical education compulsory'
p7
ssS'output'
p8
(dp9
g4
(lp10
I3
aI1334
aI2879
aI7
aI132
aI1417
aI19173
aI182
aI37328
aI20130
aI92
aI2056
aI404
aI34
aI49
aI2900
aI7
aI3993
aI3964
aI1886
aI24
aI5615
aI3939
aI24
aI875
aI5
aI19227
aI19228
aI63765
asg6
S'The primary sources of these extra carbohydrates are sweetened beverages  which now account for almost 25 percent of daily food energy in young adults in America  and potato chips  .'
p11
ss.