(dp1
S'input'
p2
(dp3
S'encoded'
p4
(lp5
I64
aI2179
aI43
aI63
aI1036
aI4828
aI33250
aI116
aI25073
aI45
aI3315
aI4562
asS'ori'
p6
S'This house believes that male infant circumcision is tantamount to child abuse'
p7
ssS'output'
p8
(dp9
g4
(lp10
I6826
aI7
aI3
aI5973
aI7
aI5349
aI63
aI182
aI33242
aI3048
aI1569
aI19
aI45
aI89
aI3059
aI63765
asg6
S'Estimates of the proportion of males that are circumcised worldwide vary from one-sixth to a third  .'
p11
ss.