(dp1
S'input'
p2
(dp3
S'encoded'
p4
(lp5
I64
aI2179
aI394
aI117
aI7428
aI21151
aI34
aI11389
aI2042
aI24
aI4364
asS'ori'
p6
S'This house would only teach abstinence for sex education in schools'
p7
ssS'output'
p8
(dp9
g4
(lp10
I89
aI2145
aI63765
aI2503
aI2326
aI122
aI1653
aI311
aI17092
aI24
aI24
aI128
aI45
aI184
aI26496
aI11389
aI5
aI3861
aI16513
aI63765
asg6
S'A U .S . federal government-promoted abstinence-only program was aimed at teens in 1981 in order to discourage premarital sex and unwanted pregnancies .'
p11
ss.