(dp1
S'input'
p2
(dp3
S'encoded'
p4
(lp5
I64
aI2179
aI43
aI63
aI3
aI21
aI45
aI12715
aI417
aI99
aI316
aI2897
asS'ori'
p6
S'This house believes that the right to asylum should not be absolute'
p7
ssS'output'
p8
(dp9
g4
(lp10
I526
aI273
aI116
aI443
aI2488
aI145
aI45
aI10636
aI3518
aI3
aI5496
aI7
aI2372
aI2181
aI752
aI45
aI38102
aI78
aI5
aI443
aI1341
aI447
aI14
aI3
aI6391
aI7
aI413
aI51
aI229
aI139
aI316
aI17121
aI63765
asg6
S'Furthermore  there is no formal system to independently review the Ministry of Internal Affairs decision to detain people and no particular limits on the length of time an individual can be detained .'
p11
ss.