(dp1
S'input'
p2
(dp3
S'encoded'
p4
(lp5
I64
aI2179
aI43
aI24
aI3
aI475
aI7
aI12436
aI3364
asS'ori'
p6
S'This house believes in the use of affirmative action'
p7
ssS'output'
p8
(dp9
g4
(lp10
I10250
aI16112
aI2814
aI45
aI316
aI3365
aI45
aI12420
aI5
aI3657
aI958
aI138
aI3
aI650
aI6401
aI5200
aI7
aI10250
aI4935
aI63765
asg6
S'Racial qualities tended to be related to nationality and language rather than the actual geographic distribution of racial characteristics .'
p11
ss.