(dp1
S'input'
p2
(dp3
S'encoded'
p4
(lp5
I64
aI2179
aI394
aI163
aI959
aI2042
aI3557
asS'ori'
p6
S'This house would make physical education compulsory'
p7
ssS'output'
p8
(dp9
g4
(lp10
I64
aI55
aI12
aI5022
aI45
aI2322
aI413
aI698
aI35986
aI2645
aI45
aI149
aI5982
aI5
aI149
aI16386
aI953
aI311
aI3900
aI63765
asg6
S'This has been attributed to increased time spent commuting  leading to less exercise and less meal preparation at home  .'
p11
ss.