(dp1
S'input'
p2
(dp3
S'encoded'
p4
(lp5
I64
aI2179
aI43
aI223
aI2138
aI11
aI89
aI21
aI45
aI2185
aI372
asS'ori'
p6
S'This house believes all nations have a right to nuclear weapons'
p7
ssS'output'
p8
(dp9
g4
(lp10
I1381
aI155
aI182
aI449
aI5545
aI5
aI16681
aI1021
aI45
aI271
aI982
aI1051
aI5
aI1071
aI273
aI182
aI637
aI2962
aI63
aI155
aI182
aI1537
aI24
aI201
aI5
aI139
aI637
aI316
aI416
aI1021
aI45
aI271
aI15106
aI24
aI3
aI481
aI63765
asg6
S'Although they are extremely old and incompetent due to their low range and speed  there are still reports that they are kept in reserve and can still be used due to their upgrades in the late 90s  .'
p11
ss.