(dp1
S'input'
p2
(dp3
S'encoded'
p4
(lp5
I64
aI2179
aI394
aI2773
aI12505
asS'ori'
p6
S'This house would embrace multiculturalism'
p7
ssS'output'
p8
(dp9
g4
(lp10
I134
aI116
aI174
aI416
aI45
aI3553
aI89
aI910
aI45
aI687
aI73
aI454
aI89
aI51
aI6960
aI34
aI51
aI2812
aI94
aI63765
asg6
S"It is also used to describe a movement to establish or protect a 'homeland' (usually an autonomous state) for an ethnic group ."
p11
ss.