(dp1
S'input'
p2
(dp3
S'encoded'
p4
(lp5
I64
aI2179
aI43
aI63
aI1036
aI4828
aI33250
aI116
aI25073
aI45
aI3315
aI4562
asS'ori'
p6
S'This house believes that male infant circumcision is tantamount to child abuse'
p7
ssS'output'
p8
(dp9
g4
(lp10
I134
aI187
aI63
aI44
aI45
aI3021
aI33248
aI3
aI33218
aI5076
aI63765
asg6
S'It states that attempts to forcibly retract the foreskin  e .g .'
p11
ss.