(dp1
S'input'
p2
(dp3
S'encoded'
p4
(lp5
I64
aI2179
aI394
aI2773
aI12505
asS'ori'
p6
S'This house would embrace multiculturalism'
p7
ssS'output'
p8
(dp9
g4
(lp10
I273
aI11
aI174
aI12
aI641
aI5317
aI24
aI326
aI291
aI685
aI5761
aI5269
aI5
aI2793
aI1565
aI5307
aI63765
asg6
S'There have also been notable tensions in Britain between established Muslim communities and newly-arrived Eastern European immigrants  .'
p11
ss.