(dp1
S'input'
p2
(dp3
S'encoded'
p4
(lp5
I64
aI2179
aI43
aI223
aI2138
aI11
aI89
aI21
aI45
aI2185
aI372
asS'ori'
p6
S'This house believes all nations have a right to nuclear weapons'
p7
ssS'output'
p8
(dp9
g4
(lp10
I9100
aI215
aI13253
aI2326
aI64
aI2326
aI1048
aI45
aI3423
aI3904
aI11521
aI60
aI89
aI1932
aI696
aI7
aI13253
aI1486
aI3075
aI45
aI316
aI1694
aI45
aI1049
aI252
aI8351
aI63765
asg6
S'Reliable Replacement Warhead Program (RRW): This program seeks to replace existing warheads with a smaller number of warhead types designed to be easier to maintain without testing .'
p11
ss.