(dp1
S'input'
p2
(dp3
S'encoded'
p4
(lp5
I64
aI2179
aI43
aI63
aI3
aI4538
aI7
aI4434
aI7793
aI283
aI45
aI3586
aI417
aI316
aI577
asS'ori'
p6
S'This house believes that the sale of violent video games to minors should be banned'
p7
ssS'output'
p8
(dp9
g4
(lp10
I717
aI14
aI3
aI2035
aI75
aI52334
aI94
aI24
aI1191
aI2900
aI7
aI5268
aI5844
aI6372
aI283
aI63765
asg6
S'Based on the study by NPD group in 2011  about 91 percent of kids aged 217 play games  .'
p11
ss.