(dp1
S'input'
p2
(dp3
S'encoded'
p4
(lp5
I64
aI2179
aI43
aI24
aI3
aI475
aI7
aI12436
aI3364
asS'ori'
p6
S'This house believes in the use of affirmative action'
p7
ssS'output'
p8
(dp9
g4
(lp10
I14
aI88
aI13692
aI30549
aI51
aI8474
aI7
aI44492
aI24
aI92
aI1237
aI16619
aI23274
aI84
aI89
aI3572
aI3644
aI459
aI19383
aI63765
asg6
S'On May 9  1997  CBS aired an episode of JAG in which several Hamas terrorists take a Washington hospital under siege .'
p11
ss.