(dp1
S'input'
p2
(dp3
S'encoded'
p4
(lp5
I64
aI2179
aI394
aI5370
aI3
aI5286
asS'ori'
p6
S'This house would abolish the monarchy'
p7
ssS'output'
p8
(dp9
g4
(lp10
I4801
aI1404
aI9030
aI75
aI5347
aI732
aI4990
aI32123
aI4138
aI45146
aI24
aI63765
asg6
S'Mary caused alarm by marrying her Catholic cousin  Lord Darnley  in 1565 .'
p11
ss.