(dp1
S'input'
p2
(dp3
S'encoded'
p4
(lp5
I64
aI2179
aI43
aI24
aI3
aI475
aI7
aI12436
aI3364
asS'ori'
p6
S'This house believes in the use of affirmative action'
p7
ssS'output'
p8
(dp9
g4
(lp10
I248
aI726
aI1589
aI7
aI41405
aI1074
aI2892
aI3
aI5017
aI7
aI17080
aI24
aI2386
aI2203
aI15785
aI6125
aI604
aI117
aI7
aI3862
aI182
aI24
aI17642
aI5
aI31226
aI1872
aI187
aI45
aI41447
aI3257
aI63765
asg6
S'" Other controversial positions of CEDAW include supporting the decriminalization of prostitution in specific countries  criticizing Slovenia because only 30% of children are in daycare  and pressuring numerous states to decriminalize abortion  .'
p11
ss.