(dp1
S'input'
p2
(dp3
S'encoded'
p4
(lp5
I64
aI2179
aI394
aI4325
aI2042
aI270
aI89
aI11605
aI3324
asS'ori'
p6
S'This house would fund education using a voucher scheme'
p7
ssS'output'
p8
(dp9
g4
(lp10
I14
aI89
aI136
aI6460
aI12189
aI55
aI263
aI34
aI3
aI475
aI7
aI2545
aI45
aI687
aI89
aI4560
aI5
aI3
aI475
aI7
aI1306
aI1186
aI45
aI17117
aI350
aI7
aI8579
aI5
aI1499
aI3052
aI493
aI211
aI8597
aI63765
asg6
S'On a more immediate time-frame McCain has called for the use of NATO air-power to establish a no-fly zone and the use of intelligence assets to gather evidence of genocide and build cases against its perpetrators  .'
p11
ss.