(dp1
S'input'
p2
(dp3
S'encoded'
p4
(lp5
I64
aI2179
aI43
aI63
aI134
aI116
aI400
aI21
aI34
aI3
aI260
aI45
aI3439
aI57
aI7
aI2381
asS'ori'
p6
S'This house believes that it is sometimes right for the government to restrict freedom of speech'
p7
ssS'output'
p8
(dp9
g4
(lp10
I707
aI3390
aI645
aI63765
aI50449
aI93
aI7
aI3
aI292
aI2503
aI712
aI81
aI24
aI2116
aI551
aI1948
aI7
aI3
aI50450
aI2481
aI24
aI25
aI3357
aI2173
aI3
aI63765
asg6
S'Judge Stewart R . Dalzell  one of the three federal judges who in June 1996 declared parts of the CDA unconstitutional  in his opinion stated the following:  .'
p11
ss.