(dp1
S'input'
p2
(dp3
S'encoded'
p4
(lp5
I64
aI2179
aI43
aI63
aI6670
aI546
aI417
aI316
aI89
aI1334
aI3108
aI7
aI4849
aI1886
aI2855
asS'ori'
p6
S'This house believes that wind power should be a primary focus of future energy supply'
p7
ssS'output'
p8
(dp9
g4
(lp10
I3
aI626
aI2549
aI116
aI93
aI7
aI3
aI285
aI3024
aI24
aI3
aI11523
aI7
aI18071
aI2504
aI134
aI116
aI18095
aI45
aI9503
aI311
aI3
aI9067
aI34
aI64
aI2654
aI24
aI1809
aI7
aI12581
aI650
aI9441
aI60
aI17938
aI63765
asg6
S'The United Kingdom is one of the world leaders in the deployment of renewables  hence it is instructive to look at the statistics for this region  in terms of comparing actual performance with projections .'
p11
ss.