(dp1
S'input'
p2
(dp3
S'encoded'
p4
(lp5
I64
aI2179
aI43
aI17
aI4941
aI857
aI3211
asS'ori'
p6
S'This house believes social deprivation causes crime'
p7
ssS'output'
p8
(dp9
g4
(lp10
I64
aI1735
aI34
aI3
aI2891
aI5
aI8351
aI7
aI1112
aI9636
aI45
aI4506
aI3
aI6369
aI857
aI5
aI87
aI3204
aI3217
aI63765
asg6
S'This allows for the development and testing of effective approaches to address the underlying causes and so improve health .'
p11
ss.