(dp1
S'input'
p2
(dp3
S'encoded'
p4
(lp5
I64
aI2179
aI394
aI2998
aI3
aI4360
aI7
aI3249
aI6804
aI24
aI3
aI102
asS'ori'
p6
S'This house would encourage the creation of private universities in the UK'
p7
ssS'output'
p8
(dp9
g4
(lp10
I64
aI2496
aI116
aI324
aI1966
aI45
aI1416
aI45
aI2068
aI4431
aI7709
aI24
aI3
aI626
aI187
aI324
aI34
aI5547
aI2497
aI159
aI41
aI3
aI4538
aI7
aI3
aI9417
aI19
aI4248
aI15930
aI13401
aI34
aI2439
aI63765
asg6
S'This interpretation is particularly argued to apply to recent municipal transactions in the United States  particularly for fixed term  such as the 2008 sale of the proceeds from Chicago parking meters for 75 years .'
p11
ss.