(dp1
S'input'
p2
(dp3
S'encoded'
p4
(lp5
I64
aI2179
aI43
aI63
aI134
aI116
aI400
aI21
aI34
aI3
aI260
aI45
aI3439
aI57
aI7
aI2381
asS'ori'
p6
S'This house believes that it is sometimes right for the government to restrict freedom of speech'
p7
ssS'output'
p8
(dp9
g4
(lp10
I3
aI2482
aI2483
aI55
aI4673
aI32887
aI646
aI63765
aI667
aI2086
aI41
aI3846
aI34
aI89
aI290
aI7
aI747
aI63
aI221
aI217
aI131
aI99
aI223
aI7
aI3
aI3663
aI7
aI3
aI2029
aI7
aI2446
aI2051
aI4531
aI45
aI3
aI187
aI459
aI3
aI2860
aI7
aI5642
aI4490
aI63765
asg6
S'The Supreme Court has cited Gitlow v . New York as precedent for a series of decisions that made most  but not all  of the provisions of the Bill of Rights restrictions applicable to the states under the doctrine of selective incorporation .'
p11
ss.