(dp1
S'input'
p2
(dp3
S'encoded'
p4
(lp5
I64
aI2179
aI43
aI63
aI3
aI21
aI45
aI12715
aI417
aI99
aI316
aI2897
asS'ori'
p6
S'This house believes that the right to asylum should not be absolute'
p7
ssS'output'
p8
(dp9
g4
(lp10
I3
aI260
aI871
aI3
aI40753
aI4223
aI2784
aI45
aI26054
aI5
aI3654
aI45
aI9385
aI3
aI40753
aI4223
aI2784
aI45
aI708
aI3
aI19921
aI7
aI1968
aI2610
aI63765
asg6
S'The government passed the Bhutanese Citizenship Act 1985 to clarify and try to enforce the Bhutanese Citizenship Act 1958 to control the flood of illegal immigration .'
p11
ss.