(dp1
S'input'
p2
(dp3
S'encoded'
p4
(lp5
I64
aI2179
aI394
aI2773
aI12505
asS'ori'
p6
S'This house would embrace multiculturalism'
p7
ssS'output'
p8
(dp9
g4
(lp10
I45
aI3109
aI2544
aI187
aI41
aI261
aI41
aI3
aI1565
aI2131
aI11
aI2215
aI3
aI2533
aI3375
aI3
aI2206
aI1005
aI5
aI2659
aI63765
asg6
S'To date  116 member states as well as the European Union have ratified the Convention  except the US  Australia and Israel  .'
p11
ss.