(dp1
S'input'
p2
(dp3
S'encoded'
p4
(lp5
I64
aI2179
aI394
aI2773
aI12505
asS'ori'
p6
S'This house would embrace multiculturalism'
p7
ssS'output'
p8
(dp9
g4
(lp10
I3
aI51744
aI11513
aI4134
aI24
aI3611
aI5903
aI7623
aI1636
aI5307
aI1155
aI30622
aI19
aI2450
aI81
aI3009
aI45
aI1413
aI24
aI20181
aI63765
asg6
S'The Komagata Maru incident in 1914 revealed overt hostility towards would-be immigrants  mainly Sikhs from India  who attempted to land in Vancouver .'
p11
ss.