(dp1
S'input'
p2
(dp3
S'encoded'
p4
(lp5
I64
aI2179
aI43
aI63
aI134
aI116
aI400
aI21
aI34
aI3
aI260
aI45
aI3439
aI57
aI7
aI2381
asS'ori'
p6
S'This house believes that it is sometimes right for the government to restrict freedom of speech'
p7
ssS'output'
p8
(dp9
g4
(lp10
I7149
aI116
aI3
aI7251
aI7
aI2381
aI73
aI248
aI658
aI4279
aI92
aI88
aI316
aI513
aI25663
aI11968
aI9124
aI73
aI17148
aI45
aI3
aI448
aI760
aI7
aI78
aI41
aI695
aI75
aI89
aI260
aI897
aI3790
aI73
aI248
aI11706
aI760
aI63765
asg6
S'Censorship is the suppression of speech or other public communication which may be considered objectionable  harmful  sensitive  or inconvenient to the general body of people as determined by a government  media outlet  or other controlling body .'
p11
ss.