(dp1
S'input'
p2
(dp3
S'encoded'
p4
(lp5
I64
aI2179
aI43
aI63
aI3
aI4990
aI4991
aI116
aI4850
aI24
aI12166
aI3
aI475
aI7
aI3532
aI3290
aI7
aI4714
asS'ori'
p6
S'This house believes that the Catholic Church is justified in forbidding the use of barrier methods of contraception'
p7
ssS'output'
p8
(dp9
g4
(lp10
I3
aI2994
aI7
aI45876
aI116
aI291
aI5
aI226
aI3
aI2994
aI7
aI45877
aI116
aI291
aI5
aI63765
asg6
S'The rate of breakage is between 0 .4% and 2 .3%  while the rate of slippage is between 0 .6% and 1 .3%  .'
p11
ss.