(dp1
S'input'
p2
(dp3
S'encoded'
p4
(lp5
I64
aI2179
aI394
aI16642
aI1376
aI5269
asS'ori'
p6
S'This house would subsidize poor communities'
p7
ssS'output'
p8
(dp9
g4
(lp10
I725
aI1356
aI24694
aI16
aI24695
aI88
aI316
aI2801
aI736
aI267
aI260
aI4293
aI5
aI192
aI8274
aI63765
asg6
S'Many factors constrain economic inequalitythey may be divided into two classes: government sponsored  and market driven .'
p11
ss.