(dp1
S'input'
p2
(dp3
S'encoded'
p4
(lp5
I64
aI2179
aI394
aI2017
aI262
asS'ori'
p6
S'This house would ban boxing'
p7
ssS'output'
p8
(dp9
g4
(lp10
I89
aI217
aI1185
aI1186
aI182
aI546
aI5
aI1187
aI710
aI45
aI1181
aI1184
aI226
aI1188
aI1031
aI45
aI302
aI63765
asg6
S"A brawler's most important assets are power and chin (the ability to absorb punishment while remaining able to continue boxing) ."
p11
ss.