(dp1
S'input'
p2
(dp3
S'encoded'
p4
(lp5
I64
aI2179
aI394
aI2773
aI12505
asS'ori'
p6
S'This house would embrace multiculturalism'
p7
ssS'output'
p8
(dp9
g4
(lp10
I3
aI4658
aI7
aI21330
aI14
aI959
aI3217
aI116
aI2428
aI45
aI316
aI89
aI281
aI5085
aI24
aI3
aI15871
aI8932
aI3
aI179
aI63
aI237
aI105
aI5307
aI1057
aI45
aI11
aI1796
aI3217
aI6609
aI138
aI2789
aI7
aI3
aI2671
aI3905
aI5
aI63
aI132
aI3802
aI8953
aI289
aI3994
aI63765
asg6
S'The effects of acculturation on physical health is thought to be a major factor in the Immigrant Paradox  the finding that first generation immigrants tend to have better health outcomes than members of the host culture  and that these differences decrease over generations .'
p11
ss.