(dp1
S'input'
p2
(dp3
S'encoded'
p4
(lp5
I64
aI2179
aI394
aI5370
aI3
aI5286
asS'ori'
p6
S'This house would abolish the monarchy'
p7
ssS'output'
p8
(dp9
g4
(lp10
I41015
aI5489
aI416
aI75
aI3
aI6309
aI7
aI3
aI2549
aI7
aI41016
aI759
aI7
aI3
aI63765
asg6
S'|- Lakan title used by the rulers of the Kingdom of Tondo (now part of the Philippines) .'
p11
ss.