(dp1
S'input'
p2
(dp3
S'encoded'
p4
(lp5
I64
aI2179
aI43
aI63
aI187
aI417
aI99
aI16642
aI3
aI6449
aI7
aI3935
asS'ori'
p6
S'This house believes that states should not subsidize the growing of tobacco'
p7
ssS'output'
p8
(dp9
g4
(lp10
I24
aI11719
aI25460
aI7
aI25461
aI327
aI480
aI89
aI479
aI4946
aI2488
aI5023
aI350
aI7
aI89
aI14834
aI49585
aI3063
aI63765
asg6
S'In 1929  Fritz Lickint of Dresden  Germany  published a paper containing formal statistical evidence of a lung cancertobacco link .'
p11
ss.