(dp1
S'input'
p2
(dp3
S'encoded'
p4
(lp5
I64
aI2179
aI394
aI2017
aI3807
aI314
aI3433
asS'ori'
p6
S'This house would ban partial birth abortions'
p7
ssS'output'
p8
(dp9
g4
(lp10
I397
aI3
aI3806
aI3009
aI45
aI2017
aI89
aI77
aI3257
aI3378
aI1047
aI41
aI3594
aI3595
aI5
aI3596
aI263
aI3807
aI314
aI63765
asg6
S'During the 1990s  Nebraska attempted to ban a certain second-trimester abortion procedure known as intact dilation and extraction (sometimes called partial birth abortion) .'
p11
ss.