(dp1
S'input'
p2
(dp3
S'encoded'
p4
(lp5
I64
aI2179
aI394
aI2017
aI223
aI9058
aI23653
asS'ori'
p6
S'This house would ban all unsustainable logging'
p7
ssS'output'
p8
(dp9
g4
(lp10
I2887
aI3185
aI14
aI3
aI1227
aI7
aI28625
aI8306
aI60
aI51
aI605
aI14
aI13132
aI3
aI3223
aI7
aI6762
aI14
aI6738
aI63765
asg6
S'Component 1 focuses on the needs of smallholder producers  with an emphasis on enhancing the productivity of trees on farms (e .g .'
p11
ss.