(dp1
S'input'
p2
(dp3
S'encoded'
p4
(lp5
I64
aI2179
aI43
aI3
aI626
aI187
aI116
aI1989
aI34
aI3102
aI2223
asS'ori'
p6
S"This house believes the United States is responsible for Mexico's drugs war"
p7
ssS'output'
p8
(dp9
g4
(lp10
I131
aI2900
aI7
aI3941
aI284
aI89
aI6881
aI5
aI2900
aI11
aI89
aI3953
aI1629
aI63765
asg6
S'But 82 .5 percent of households own a radio and 94 .7 percent have a television set  .'
p11
ss.