(dp1
S'input'
p2
(dp3
S'encoded'
p4
(lp5
I64
aI2179
aI394
aI3830
aI3
aI475
aI7
aI9441
aI13132
aI3102
aI24
aI276
aI381
asS'ori'
p6
S'This house would permit the use of performance enhancing drugs in professional sports'
p7
ssS'output'
p8
(dp9
g4
(lp10
I5
aI3
aI136
aI340
aI3481
aI311
aI3
aI908
aI3
aI166
aI3
aI13171
aI463
aI316
aI5
aI3
aI595
aI122
aI3
aI191
aI7
aI12256
aI45
aI1223
aI50171
aI316
aI1537
aI50172
aI12486
aI3
aI2715
aI830
aI63765
asg6
S'And the more spectators paid at the gate  the higher the prizes could be and the greater was the incentive of riders to stay awakeor be kept awaketo ride the greatest distance .'
p11
ss.