(dp1
S'input'
p2
(dp3
S'encoded'
p4
(lp5
I64
aI2179
aI43
aI17
aI4941
aI857
aI3211
asS'ori'
p6
S'This house believes social deprivation causes crime'
p7
ssS'output'
p8
(dp9
g4
(lp10
I89
aI1622
aI9022
aI291
aI51
aI229
aI5
aI2022
aI2126
aI1735
aI3
aI229
aI45
aI33856
aI6217
aI13541
aI5
aI3442
aI12375
aI63
aI182
aI27623
aI24
aI580
asg6
S'a weak bond between an individual and society itself allows the individual to defy societal norms and adopt behaviors that are deviant in nature'
p11
ss.