(dp1
S'input'
p2
(dp3
S'encoded'
p4
(lp5
I64
aI2179
aI394
aI5284
aI150
aI3987
asS'ori'
p6
S'This house would reintroduce national service'
p7
ssS'output'
p8
(dp9
g4
(lp10
I1036
aI6050
aI5
aI6055
aI6056
aI2144
aI182
aI4890
aI75
aI2603
aI60
aI271
aI2178
aI3024
aI6050
aI5
aI6055
aI182
aI4570
aI19
aI63765
asg6
S'Male Druze and Circassian Israeli citizens are liable  by agreement with their community leaders (Female Druze and Circassian are exempt from service) .'
p11
ss.