(dp1
S'input'
p2
(dp3
S'encoded'
p4
(lp5
I64
aI2179
aI43
aI223
aI2138
aI11
aI89
aI21
aI45
aI2185
aI372
asS'ori'
p6
S'This house believes all nations have a right to nuclear weapons'
p7
ssS'output'
p8
(dp9
g4
(lp10
I60
aI3
aI4038
aI7
aI11993
aI2185
aI2672
aI139
aI316
aI8735
aI75
aI15
aI594
aI2420
aI5
aI5814
aI1443
aI51
aI2674
aI972
aI45
aI475
aI211
aI912
aI2700
aI60
aI207
aI73
aI443
aI13972
aI63765
asg6
S'With the advent of miniaturization  nuclear bombs can be delivered by both strategic bombers and tactical fighter-bombers  allowing an air force to use its current fleet with little or no modification .'
p11
ss.