(dp1
S'input'
p2
(dp3
S'encoded'
p4
(lp5
I64
aI2179
aI43
aI223
aI2138
aI11
aI89
aI21
aI45
aI2185
aI372
asS'ori'
p6
S'This house believes all nations have a right to nuclear weapons'
p7
ssS'output'
p8
(dp9
g4
(lp10
I3
aI7700
aI3274
aI1404
aI2661
aI45
aI12147
aI211
aI6856
aI5
aI60
aI2019
aI63765
aI89
aI63765
aI12148
aI63765
aI6562
aI3
aI12149
aI709
aI482
aI11869
aI2565
aI24
aI3
aI3140
aI226
aI174
aI2760
aI3
aI6856
aI12150
aI14
aI3
aI248
aI823
aI63765
asg6
S'The Indian test caused Pakistan to spurred its programme  and with Dr . A . Q . Khan  the ISI conduct successful espionage operations in the Netherlands  while also developing the programme ingeniously on the other side .'
p11
ss.