(dp1
S'input'
p2
(dp3
S'encoded'
p4
(lp5
I64
aI2179
aI43
aI63
aI7382
aI116
aI400
aI4713
asS'ori'
p6
S'This house believes that bribery is sometimes acceptable'
p7
ssS'output'
p8
(dp9
g4
(lp10
I100
aI1202
aI182
aI217
aI7
aI3
aI31904
aI4615
aI7
aI2318
aI2450
aI5
aI174
aI3
aI2221
aI171
aI92
aI116
aI93
aI7
aI3
aI267
aI281
aI22
aI4615
aI24
aI2450
aI63765
asg6
S'Some examples are most of the Dravidian parties of south India and also the Congress party  which is one of the two major political parties in India .'
p11
ss.