(dp1
S'input'
p2
(dp3
S'encoded'
p4
(lp5
I64
aI2179
aI43
aI24
aI3
aI475
aI7
aI12436
aI3364
asS'ori'
p6
S'This house believes in the use of affirmative action'
p7
ssS'output'
p8
(dp9
g4
(lp10
I1301
aI24
aI2231
aI440
aI3
aI2211
aI12
aI1031
aI45
aI27906
aI868
aI5561
aI45
aI1024
aI1295
aI89
aI27941
aI14
aI89
aI3202
aI2446
aI2029
aI63765
asg6
S'Never in history had the Senate been able to muster enough votes to cut off a filibuster on a civil rights bill .'
p11
ss.