(dp1
S'input'
p2
(dp3
S'encoded'
p4
(lp5
I64
aI2179
aI394
aI60
aI23587
asS'ori'
p6
S'This house would re-engage with Myanmar'
p7
ssS'output'
p8
(dp9
g4
(lp10
I3
aI2157
aI122
aI5047
aI45
aI11
aI4883
aI217
aI16984
aI459
aI1296
aI45
aI881
aI50589
aI63765
asg6
S'The military was reported to have put most monasteries under guard to prevent egress .'
p11
ss.