(dp1
S'input'
p2
(dp3
S'encoded'
p4
(lp5
I64
aI2179
aI394
aI2998
aI3
aI4360
aI7
aI3249
aI6804
aI24
aI3
aI102
asS'ori'
p6
S'This house would encourage the creation of private universities in the UK'
p7
ssS'output'
p8
(dp9
g4
(lp10
I5267
aI60
aI5018
aI2825
aI6713
aI17501
aI24
aI595
aI2711
aI138
aI3
aI696
aI7
aI29590
aI1589
aI155
aI3548
aI45
aI836
aI273
aI116
aI207
aI2802
aI63
aI5725
aI182
aI19716
aI7
aI3
aI16
aI4658
aI7
aI64
aI5635
aI63765
asg6
S'Indeed  with academic institutions producing Ph .D .s in greater numbers than the number of tenure-track professorial positions they intend to create  there is little question that administrators are cognizant of the economic effects of this arrangement .'
p11
ss.