(dp1
S'input'
p2
(dp3
S'encoded'
p4
(lp5
I64
aI2179
aI394
aI2017
aI262
asS'ori'
p6
S'This house would ban boxing'
p7
ssS'output'
p8
(dp9
g4
(lp10
I89
aI116
aI89
aI484
aI81
aI116
aI1031
aI45
aI405
aI311
aI1102
aI1051
aI60
aI89
aI1103
aI7
aI1104
aI5
aI546
aI153
aI60
aI3
aI710
aI45
aI1105
aI833
aI864
aI60
aI89
aI1103
aI5
aI24
aI100
aI1106
aI89
aI1107
aI1108
aI63765
asg6
S'A boxer-puncher is a well-rounded boxer who is able to fight at close range with a combination of technique and power  often with the ability to knock opponents out with a combination and in some instances a single shot .'
p11
ss.