(dp1
S'input'
p2
(dp3
S'encoded'
p4
(lp5
I64
aI2179
aI43
aI17
aI4941
aI857
aI3211
asS'ori'
p6
S'This house believes social deprivation causes crime'
p7
ssS'output'
p8
(dp9
g4
(lp10
I1202
aI7
aI8021
aI14330
aI2167
aI45
aI881
aI2617
aI1074
aI5837
aI5
aI13107
aI2042
aI45
aI881
aI3315
aI3269
aI950
aI477
aI34
aI3862
aI5755
aI8278
aI45
aI4506
aI4583
aI13541
aI5
aI200
aI3934
aI3891
aI5
aI3949
aI620
aI10173
aI5
aI3353
aI7
aI7651
aI4295
aI2511
aI4107
aI5
aI200
aI3757
aI45
aI1374
aI5
aI5
aI3932
aI4583
aI5969
aI75
aI34
aI6396
aI2892
aI3
aI16
aI15687
aI7
aI3495
aI63765
asg6
S'Examples of scientifically credible strategies to prevent violence include nurse home-visiting and parenting education to prevent child maltreatment; life skills training for children ages 618 years; school-based programmes to address gender norms and attitudes; reducing alcohol availability and misuse through enactment and enforcement of liquor licensing laws  taxation and pricing; reducing access to guns and knives; and promoting gender equality by  for instance  supporting the economic empowerment of women  .'
p11
ss.