(dp1
S'input'
p2
(dp3
S'encoded'
p4
(lp5
I64
aI2179
aI43
aI63
aI134
aI116
aI400
aI21
aI34
aI3
aI260
aI45
aI3439
aI57
aI7
aI2381
asS'ori'
p6
S'This house believes that it is sometimes right for the government to restrict freedom of speech'
p7
ssS'output'
p8
(dp9
g4
(lp10
I24
aI3
aI2482
aI2483
aI743
aI63
aI3
aI3854
aI3264
aI4042
aI14
aI5175
aI5
aI3
aI4742
aI3264
aI2489
aI14
aI21
aI45
aI5519
aI382
aI45
aI316
aI221
aI1047
aI45
aI223
aI4224
aI606
aI459
aI11653
aI5
aI132
aI24791
aI11
aI1199
aI1047
aI41
aI3
aI41195
aI2446
aI63765
asg6
S'In 1966  the Supreme Court ruled that the fifth amendment prohibition on forced self-incrimination and the sixth amendment clause on right to counsel were to be made known to all persons placed under arrest  and these clauses have become known as the Miranda rights .'
p11
ss.