(dp1
S'input'
p2
(dp3
S'encoded'
p4
(lp5
I64
aI2179
aI394
aI2773
aI12505
asS'ori'
p6
S'This house would embrace multiculturalism'
p7
ssS'output'
p8
(dp9
g4
(lp10
I14
aI425
aI3
aI3727
aI7
aI3
aI910
aI4384
aI51
aI2134
aI60
aI3
aI976
aI565
aI910
aI34
aI2446
aI5
aI57
aI24
aI25031
aI25032
aI25033
aI24
aI3
aI11213
aI4996
aI7
aI21569
aI63765
asg6
S'On January 4  1990 the activists of the movement registered an organization with the legal name Movement for Rights and Freedom (MRF) (in Bulgarian:     : in Turkish: Hak ve Ozgurlukler Hareketi) in the Bulgarian city of Varna .'
p11
ss.