(dp1
S'input'
p2
(dp3
S'encoded'
p4
(lp5
I64
aI2179
aI43
aI63
aI3
aI21
aI45
aI12715
aI417
aI99
aI316
aI2897
asS'ori'
p6
S'This house believes that the right to asylum should not be absolute'
p7
ssS'output'
p8
(dp9
g4
(lp10
I60
aI3
aI2486
aI3461
aI7
aI2806
aI16203
aI7
aI3
aI2749
aI182
aI368
aI2203
aI131
aI223
aI182
aI19
aI2770
aI2318
aI875
aI5
aI874
aI2404
aI63765
asg6
S'With the sole exception of Serbia  non of the signatories are western countries  but all are from Asia  South America  and North Africa .'
p11
ss.