(dp1
S'input'
p2
(dp3
S'encoded'
p4
(lp5
I64
aI2179
aI43
aI63
aI2659
aI417
aI1690
aI3
aI12048
aI7
aI19084
asS'ori'
p6
S'This house believes that Israel should lift the blockade of Gaza'
p7
ssS'output'
p8
(dp9
g4
(lp10
I3313
aI8398
aI63
aI116
aI604
aI134
aI116
aI63765
aI116
aI2686
aI298
aI3
aI1361
aI116
aI11506
aI63
aI7
aI223
aI3
aI6619
aI14
aI3
aI4999
aI3
aI117
aI3
aI4307
aI417
aI99
aI11
aI3
aI21
aI45
aI24
aI89
aI1413
aI7
aI271
aI284
aI63765
asg6
S'She contends that anti-Zionism is anti-semitic because it is discriminatory: " . .antisemitism is involved when the belief is articulated that of all the peoples on the globe (including the Palestinians)  only the Jews should not have the right to self-determination in a land of their own .'
p11
ss.