(dp1
S'input'
p2
(dp3
S'encoded'
p4
(lp5
I64
aI2179
aI43
aI223
aI2138
aI11
aI89
aI21
aI45
aI2185
aI372
asS'ori'
p6
S'This house believes all nations have a right to nuclear weapons'
p7
ssS'output'
p8
(dp9
g4
(lp10
I526
aI2046
aI3172
aI63
aI2185
aI546
aI32
aI245
aI1228
aI16
aI2498
aI63765
asg6
S'Furthermore  Iran argues that nuclear power makes fairly good economic sense .'
p11
ss.