(dp1
S'input'
p2
(dp3
S'encoded'
p4
(lp5
I64
aI2179
aI43
aI63
aI3
aI4990
aI4991
aI116
aI4850
aI24
aI12166
aI3
aI475
aI7
aI3532
aI3290
aI7
aI4714
asS'ori'
p6
S'This house believes that the Catholic Church is justified in forbidding the use of barrier methods of contraception'
p7
ssS'output'
p8
(dp9
g4
(lp10
I114
aI16497
aI5254
aI182
aI939
aI24
aI725
aI1948
aI7
aI3
aI285
aI725
aI78
aI24
aI3
aI626
aI187
aI133
aI155
aI182
aI5501
aI6847
aI24
aI1445
aI759
aI1021
aI45
aI3
aI1360
aI4253
aI3217
aI4779
aI566
aI60
aI51
aI31631
aI2823
aI263
aI3
aI46921
aI2956
aI63765
asg6
S'Though intrauterine devices (IUDs) are popular in many parts of the world  many people in the United States believe they are dangerous  probably in large part due to the widely publicized health risks associated with an IUD model called the Dalkon Shield .'
p11
ss.