(dp1
S'input'
p2
(dp3
S'encoded'
p4
(lp5
I64
aI2179
aI13605
aI2258
aI45
aI2194
asS'ori'
p6
S'This house prefers trade to aid'
p7
ssS'output'
p8
(dp9
g4
(lp10
I60
aI3236
aI45
aI7313
aI1183
aI2898
aI9108
aI3
aI9267
aI3223
aI7
aI574
aI516
aI2898
aI7
aI2135
aI2194
aI34
aI3
aI2203
aI19055
aI5
aI3026
aI63
aI100
aI2203
aI440
aI419
aI177
aI2722
aI7
aI9267
aI3223
aI2898
aI461
aI226
aI80
aI324
aI177
aI1183
aI7
aI2194
aI5
aI979
aI2363
aI7
aI440
aI982
aI400
aI2363
aI7
aI9267
aI3223
aI63765
asg6
S'With respect to optimal amounts Dollar calculated the marginal productivity of each additional dollar of foreign aid for the countries sampled  and saw that some countries had very high rates of marginal productivity (each dollar went further)  while others [with particularly high amounts of aid  and lower levels of poverty] had low [and sometimes negative] levels of marginal productivity .'
p11
ss.