(dp1
S'input'
p2
(dp3
S'encoded'
p4
(lp5
I64
aI2179
aI43
aI63
aI3
aI4538
aI7
aI4434
aI7793
aI283
aI45
aI3586
aI417
aI316
aI577
asS'ori'
p6
S'This house believes that the sale of violent video games to minors should be banned'
p7
ssS'output'
p8
(dp9
g4
(lp10
I35977
aI174
aI4446
aI357
aI83
aI9503
aI3515
aI89
aI2386
aI4035
aI45
aI1190
aI1191
aI3
aI2386
aI4659
aI24
aI92
aI134
aI55
aI12
aI6675
aI5
aI3
aI11707
aI17
aI4304
aI7
aI3
aI63765
aI233
aI45
aI35977
aI273
aI116
aI443
aI159
aI1963
aI263
aI2617
aI24
aI3
aI897
aI63
aI843
aI463
aI73
aI463
aI99
aI521
aI2617
aI357
aI417
aI958
aI5878
aI703
aI45
aI40
aI17
aI1356
aI5
aI4304
aI163
aI100
aI78
aI6702
aI897
aI24
aI2386
aI998
aI63765
aI34
aI6396
aI113
aI3
aI2935
aI174
aI342
aI5846
aI7
aI2617
aI87
aI78
aI417
aI958
aI5878
aI703
aI45
aI40
aI17
aI1356
aI5
aI4304
aI163
aI100
aI78
aI6702
aI897
aI24
aI1341
aI998
aI63765
asg6
S"Barker also suggests 'that we must look beyond a specific film to think about the specific context in which it has been consumed  and the wider social background of the people' . according to Barker there is no such thing called violence in the media that either could or could not cause violence  we should rather pay attention to how social factors and background make some people consume media in specific way .  for instance  even the news also show lots of violence  so people should rather pay attention to how social factors and background make some people consume media in particular way ."
p11
ss.