(dp1
S'input'
p2
(dp3
S'encoded'
p4
(lp5
I64
aI2179
aI394
aI16756
aI20435
asS'ori'
p6
S'This house would criminalize blasphemy'
p7
ssS'output'
p8
(dp9
g4
(lp10
I9289
aI9290
aI768
aI7354
aI2161
aI5
aI2272
aI10484
aI742
aI14
aI62824
aI3953
aI63
aI42
aI51
aI6966
aI7
aI32972
aI45
aI51
aI6966
aI7
aI5
aI6833
aI864
aI63
aI134
aI116
aI257
aI2867
aI588
aI45
aI3
aI3744
aI45
aI707
aI755
aI37620
aI867
aI3515
aI61
aI116
aI4509
aI45
aI10686
aI5
aI99
aI45
aI3
aI220
aI7
aI5761
aI2203
aI63765
asg6
S'Nicolas Sarkozy  then Interior Minister and presidential candidate  said on LCI television that he "preferred an excess of caricature to an excess of censorship" and pointed out that it is  if necessary  up to the courts to judge whether caricatures go beyond what is reasonable to publish  and not to the governments of Muslim countries  .'
p11
ss.