(dp1
S'input'
p2
(dp3
S'encoded'
p4
(lp5
I64
aI2179
aI394
aI190
aI3
aI21
aI45
aI3895
aI834
asS'ori'
p6
S'This house would limit the right to bear arms'
p7
ssS'output'
p8
(dp9
g4
(lp10
I378
aI3
aI3648
aI81
aI3550
aI3
aI7048
aI2204
aI5680
aI4001
aI3
aI3572
aI901
aI42
aI116
aI89
aI2544
aI7
aI351
aI7
aI120
aI5
aI3
aI33
aI122
aI3251
aI117
aI75
aI1063
aI63765
asg6
S'However  the lawyer who organized the plaintiffs  Robert Levy  told the Washington Post he is "not a member of any of those pro-gun groups"  and the case was funded only by him  .'
p11
ss.