(dp1
S'input'
p2
(dp3
S'encoded'
p4
(lp5
I64
aI2179
aI43
aI63
aI187
aI417
aI99
aI16642
aI3
aI6449
aI7
aI3935
asS'ori'
p6
S'This house believes that states should not subsidize the growing of tobacco'
p7
ssS'output'
p8
(dp9
g4
(lp10
I15378
aI14953
aI7026
aI5
aI1071
aI7
aI3935
aI2835
aI182
aI5810
aI45
aI316
aI2818
aI3365
aI45
aI7128
aI1500
aI7
aI13169
aI231
aI14680
aI5
aI2811
aI63765
asg6
S'Absorption quantity  frequency  and speed of tobacco consumption are believed to be directly related to biological strength of nicotine dependence  addiction  and tolerance  .'
p11
ss.