(dp1
S'input'
p2
(dp3
S'encoded'
p4
(lp5
I64
aI2179
aI235
aI3
aI2136
aI7
aI3
aI2306
aI7
aI2390
asS'ori'
p6
S'This house supports the one-child policy of the republic of China'
p7
ssS'output'
p8
(dp9
g4
(lp10
I6426
aI5726
aI1401
aI63
aI7743
aI52940
aI3147
aI7
aI3
aI2326
aI458
aI5
aI63
aI155
aI5523
aI159
aI1647
aI131
aI155
aI8304
aI63
aI3
aI3874
aI2569
aI2326
aI122
aI4789
aI14
aI89
aI3164
aI2259
aI270
aI52108
aI5
aI16
aI249
aI117
aI63765
asg6
S'Chinese officials admitted that isolated  uncondoned abuses of the program occurred and that they condemned such acts  but they insisted that the family planning program was administered on a voluntary basis using persuasion and economic measures only .'
p11
ss.