(dp1
S'input'
p2
(dp3
S'encoded'
p4
(lp5
I64
aI2179
aI43
aI17
aI4941
aI857
aI3211
asS'ori'
p6
S'This house believes social deprivation causes crime'
p7
ssS'output'
p8
(dp9
g4
(lp10
I24
aI1706
aI79
aI58307
aI63715
aI3
aI21394
aI2497
aI45
aI6365
aI3
aI19297
aI3503
aI1946
aI57939
aI5287
aI5
aI14748
aI1265
aI5032
aI63765
asg6
S"In further work Hayward reintroduces the Freudian term 'narcissism' to explain the insecure yet aggressive  acquisitive sentiments and motivations behind criminality ."
p11
ss.