(dp1
S'input'
p2
(dp3
S'encoded'
p4
(lp5
I64
aI2179
aI394
aI2017
aI3807
aI314
aI3433
asS'ori'
p6
S'This house would ban partial birth abortions'
p7
ssS'output'
p8
(dp9
g4
(lp10
I24
aI1035
aI3
aI3993
aI14865
aI5047
aI63
aI10371
aI19
aI3
aI4137
aI4758
aI7
aI2039
aI524
aI864
aI63
aI273
aI116
aI637
aI443
aI350
aI63
aI3257
aI857
aI1043
aI3217
aI251
aI63765
aI63765
asg6
S'" In contrast  the Daily Mail reported that "Updated guidance from the Royal College of Physicians points out that there is still no evidence that abortion causes mental health problems . .'
p11
ss.