(dp1
S'input'
p2
(dp3
S'encoded'
p4
(lp5
I64
aI2179
aI43
aI3
aI626
aI187
aI116
aI1989
aI34
aI3102
aI2223
asS'ori'
p6
S"This house believes the United States is responsible for Mexico's drugs war"
p7
ssS'output'
p8
(dp9
g4
(lp10
I1719
aI100
aI182
aI2853
aI60
aI3
aI912
aI532
aI7
aI2445
aI2446
aI3147
aI860
aI75
aI3
aI2218
aI2219
aI100
aI24
aI3
aI237
aI863
aI3131
aI7
aI4915
aI3
aI2994
aI19
aI3
aI3569
aI751
aI63765
asg6
S'Already some are concerned with the current amount of human rights abuses committed by the armed forces  some 800 in the first five months of 2008  double the rate from the year before .'
p11
ss.