(dp1
S'input'
p2
(dp3
S'encoded'
p4
(lp5
I64
aI2179
aI394
aI2017
aI628
asS'ori'
p6
S'This house would ban gambling'
p7
ssS'output'
p8
(dp9
g4
(lp10
I24
aI89
aI1268
aI9933
aI89
aI4313
aI2273
aI7078
aI34163
aI2302
aI588
aI49
aI223
aI7
aI3
aI1110
aI119
aI14
aI3
aI1156
aI5930
aI63765
asg6
S'In a famous occurrence  a Polish-Irish businessman named Stefan Klincewicz bought up almost all of the 1 947 792 combinations available on the Irish lottery .'
p11
ss.