(dp1
S'input'
p2
(dp3
S'encoded'
p4
(lp5
I64
aI2179
aI394
aI16642
aI1376
aI5269
asS'ori'
p6
S'This house would subsidize poor communities'
p7
ssS'output'
p8
(dp9
g4
(lp10
I185
aI133
aI16
aI5969
aI116
aI2867
aI34
aI22
aI24771
aI63
aI298
aI273
aI116
aI16
aI4925
aI768
aI22
aI4925
aI116
aI24772
aI159
aI89
aI2022
aI2720
aI394
aI316
aI9931
aI3
aI258
aI7
aI2410
aI4443
aI24
aI279
aI5
aI112
aI9931
aI73
aI5936
aI63765
asg6
S'Marxists believe economic equality is necessary for political freedomsaying that when there is economic inequality then political inequality is assuredin such a society currency would be eliminated  the means of production owned in common and non-labor income eliminated (rent/profit or surplus value) .'
p11
ss.