(dp1
S'input'
p2
(dp3
S'encoded'
p4
(lp5
I64
aI2179
aI394
aI5370
aI7146
aI4585
aI2446
asS'ori'
p6
S'This house would abolish intellectual property rights'
p7
ssS'output'
p8
(dp9
g4
(lp10
I6359
aI11317
aI25907
aI3470
aI116
aI4501
aI34569
aI63
aI298
aI89
aI460
aI7263
aI24
aI52237
aI203
aI3
aI52238
aI1025
aI5
aI16537
aI7
aI25
aI79
aI116
aI45
aI3322
aI4585
aI5
aI5505
aI45
aI1781
aI134
aI41
aI25
aI419
aI284
asg6
S'Pope Leo XIII wrote "It is surely undeniable that  when a man engages in remunerative labor  the impelling reason and motive of his work is to obtain property  and thereafter to hold it as his very own'
p11
ss.