(dp1
S'input'
p2
(dp3
S'encoded'
p4
(lp5
I64
aI2179
aI43
aI63
aI3376
aI4938
aI417
aI316
aI3537
asS'ori'
p6
S'This house believes that endangered species should be protected'
p7
ssS'output'
p8
(dp9
g4
(lp10
I3
aI912
aI2994
aI7
aI7798
aI116
aI400
aI513
aI89
aI4256
aI7798
aI60
aI912
aI4938
aI7798
aI2722
aI14
aI3
aI128
aI7
aI45
aI1727
aI41
aI177
aI41
aI24
aI3
aI1257
aI63765
asg6
S'The current rate of extinction is sometimes considered a mass extinction  with current species extinction rates on the order of 100 to 1000 times as high as in the past  .'
p11
ss.