(dp1
S'input'
p2
(dp3
S'encoded'
p4
(lp5
I64
aI2179
aI394
aI4261
aI8667
aI3
aI9361
aI5
aI17069
asS'ori'
p6
S'This house would prohibit burning the stars and stripes'
p7
ssS'output'
p8
(dp9
g4
(lp10
I3
aI2503
aI70
aI221
aI134
aI1968
aI45
aI9806
aI111
aI5449
aI7
aI3
aI626
aI187
aI75
aI3867
aI44661
aI29212
aI45747
aI8667
aI73
aI45746
aI111
aI134
asg6
S'The federal law made it illegal to "knowingly" cast "contempt" upon "any flag of the United States by publicly mutilating  defacing  defiling  burning or trampling upon it ."'
p11
ss.