(dp1
S'input'
p2
(dp3
S'encoded'
p4
(lp5
I64
aI2179
aI43
aI63
aI2659
aI417
aI1690
aI3
aI12048
aI7
aI19084
asS'ori'
p6
S'This house believes that Israel should lift the blockade of Gaza'
p7
ssS'output'
p8
(dp9
g4
(lp10
I24906
aI24907
aI24908
aI742
aI3727
aI440
aI11177
aI100
aI7
aI3
aI2377
aI5
aI11487
aI271
aI372
aI131
aI440
aI1596
aI86
aI24856
aI252
aI270
aI86
aI63765
asg6
S'Fehmi Bulent Yldrm said activists had rushed some of the soldiers and snatched their weapons  but had thrown them overboard without using them  .'
p11
ss.