(dp1
S'input'
p2
(dp3
S'encoded'
p4
(lp5
I64
aI2179
aI394
aI2998
aI3
aI4360
aI7
aI3249
aI6804
aI24
aI3
aI102
asS'ori'
p6
S'This house would encourage the creation of private universities in the UK'
p7
ssS'output'
p8
(dp9
g4
(lp10
I2572
aI214
aI139
aI28151
aI5
aI9622
aI2287
aI2352
aI3210
aI4059
aI9162
aI5
aI16
aI2234
aI131
aI257
aI3
aI2352
aI3210
aI182
aI9408
aI643
aI134
aI88
aI316
aI330
aI45
aI154
aI868
aI22866
aI5
aI6380
aI5136
aI63765
asg6
S'Share issues can broaden and deepen domestic capital markets  boosting liquidity and (potentially) economic growth  but if the capital markets are insufficiently developed it may be difficult to find enough buyers  and transaction costs (e .g .'
p11
ss.