(dp1
S'input'
p2
(dp3
S'encoded'
p4
(lp5
I64
aI2179
aI43
aI8629
aI116
aI3
aI117
aI998
asS'ori'
p6
S'This house believes atheism is the only way'
p7
ssS'output'
p8
(dp9
g4
(lp10
I24
aI64
aI4659
aI2382
aI116
aI3531
aI34
aI773
aI34664
aI24
aI63
aI134
aI139
aI521
aI3
aI16440
aI7
aI63
aI8528
aI45
aI2784
aI34615
aI60878
aI2635
aI5
aI142
aI19381
aI2384
aI73
aI248
aI4099
aI11631
aI252
aI212
aI1025
aI63765
asg6
S'In this context  religion is criticized for being maladaptive in that it can cause the carrier of that meme to act irrationally  misallocate resources and feel guilt  fear or other negative emotions without real reason .'
p11
ss.