(dp1
S'input'
p2
(dp3
S'encoded'
p4
(lp5
I64
aI2179
aI43
aI3
aI626
aI187
aI116
aI1989
aI34
aI3102
aI2223
asS'ori'
p6
S"This house believes the United States is responsible for Mexico's drugs war"
p7
ssS'output'
p8
(dp9
g4
(lp10
I42
aI440
aI174
aI2238
aI134
aI41
aI28463
aI2326
aI63
aI3762
aI706
aI63765
asg6
S'" He had also characterized it as "an undercover program that wasn\'t properly controlled .'
p11
ss.