(dp1
S'input'
p2
(dp3
S'encoded'
p4
(lp5
I64
aI2179
aI43
aI63
aI134
aI116
aI400
aI21
aI34
aI3
aI260
aI45
aI3439
aI57
aI7
aI2381
asS'ori'
p6
S'This house believes that it is sometimes right for the government to restrict freedom of speech'
p7
ssS'output'
p8
(dp9
g4
(lp10
I3
aI21
aI45
aI89
aI569
aI3516
aI55
aI12
aI1038
aI24
aI1872
aI2742
aI5
aI282
aI2445
aI2446
aI9160
aI63765
asg6
S'The right to a fair trial has been defined in numerous regional and international human rights instruments .'
p11
ss.