(dp1
S'input'
p2
(dp3
S'encoded'
p4
(lp5
I64
aI2179
aI43
aI63
aI188
aI220
aI417
aI1619
aI4275
aI45
aI713
aI14799
aI7533
aI311
aI3
aI3721
aI5145
asS'ori'
p6
S'This house believes that democratic governments should require voters to present photo identification at the polling station'
p7
ssS'output'
p8
(dp9
g4
(lp10
I3
aI633
aI7
aI7532
aI7251
aI139
aI1051
aI19
aI2583
aI63
aI163
aI5334
aI17148
aI588
aI45
aI46390
aI1968
aI4948
aI63
aI12705
aI9911
aI4587
aI4275
aI45
aI881
aI86
aI19
aI18235
aI10868
aI63765
asg6
S'The tactics of voter suppression can range from minor "dirty tricks" that make voting inconvenient  up to blatantly illegal activities that physically intimidate prospective voters to prevent them from casting ballots .'
p11
ss.