(dp1
S'input'
p2
(dp3
S'encoded'
p4
(lp5
I64
aI2179
aI235
aI3
aI2136
aI7
aI3
aI2306
aI7
aI2390
asS'ori'
p6
S'This house supports the one-child policy of the republic of China'
p7
ssS'output'
p8
(dp9
g4
(lp10
I2023
aI3557
aI13759
aI10256
aI2089
aI3
aI1643
aI164
aI9612
aI7
aI32269
aI4605
aI5
aI4790
aI41
aI3
aI1560
aI145
aI63765
asg6
S'Canadian compulsory sterilization operated via the same overall mechanisms of institutionalization  judgement  and surgery as the American system .'
p11
ss.