(dp1
S'input'
p2
(dp3
S'encoded'
p4
(lp5
I64
aI2179
aI43
aI63
aI3
aI28431
aI7
aI2157
aI4624
aI75
aI39939
aI27257
aI122
aI4850
asS'ori'
p6
S'This house believes that the leaking of military documents by Anat Kamm was justified'
p7
ssS'output'
p8
(dp9
g4
(lp10
I78
aI88
aI316
aI575
aI3757
aI45
aI2499
aI5224
aI14
aI3
aI1500
aI7
aI51
aI43197
aI75
aI271
aI536
aI7
aI2176
aI252
aI773
aI10103
aI45
aI3
aI4304
aI17291
aI566
aI60
aI9192
aI8862
aI5
aI1200
aI8862
aI39276
aI63765
asg6
S'People may be given access to Restricted information on the strength of an authorisation by their Head of Department  without being subjected to the background vetting associated with Confidential  Secret and Top Secret clearances .'
p11
ss.