(dp1
S'input'
p2
(dp3
S'encoded'
p4
(lp5
I64
aI2179
aI235
aI3
aI2136
aI7
aI3
aI2306
aI7
aI2390
asS'ori'
p6
S'This house supports the one-child policy of the republic of China'
p7
ssS'output'
p8
(dp9
g4
(lp10
I3
aI15950
aI24
aI3
aI2857
aI2722
aI382
aI3
aI296
aI7
aI3
aI17781
aI7
aI15
aI13843
aI5
aI457
aI45
aI3
aI5462
aI459
aI3
aI4294
aI5743
aI394
aI99
aI905
aI100
aI13843
aI604
aI7
aI3
aI2136
aI5
aI394
aI99
aI905
aI100
aI457
aI87
aI41
aI45
aI1781
aI14
aI45
aI3
aI23105
aI7
aI3
aI6608
aI63765
asg6
S'The discrepancies in the vital rates were the result of the underreporting of both births and deaths to the authorities under the registration system; families would not report some births because of the one-child policy and would not report some deaths so as to hold on to the rations of the deceased .'
p11
ss.