(dp1
S'input'
p2
(dp3
S'encoded'
p4
(lp5
I64
aI2179
aI43
aI17
aI4941
aI857
aI3211
asS'ori'
p6
S'This house believes social deprivation causes crime'
p7
ssS'output'
p8
(dp9
g4
(lp10
I89
aI3440
aI5039
aI717
aI14
aI3
aI3364
aI2041
aI17880
aI89
aI1629
aI7
aI8008
aI73
aI1409
aI13881
aI5
aI89
aI760
aI7
aI3040
aI1485
aI158
aI2992
aI7
aI16649
aI63765
asg6
S'a standard methodology based on the action research paradigm a set of opportunity-reducing techniques or target hardening  and a body of evaluated practice including studies of displacement .'
p11
ss.