(dp1
S'input'
p2
(dp3
S'encoded'
p4
(lp5
I64
aI2179
aI43
aI63
aI134
aI116
aI400
aI21
aI34
aI3
aI260
aI45
aI3439
aI57
aI7
aI2381
asS'ori'
p6
S'This house believes that it is sometimes right for the government to restrict freedom of speech'
p7
ssS'output'
p8
(dp9
g4
(lp10
I1592
aI3
aI9923
aI2533
aI100
aI1268
aI3034
aI167
aI5
aI11985
aI159
aI41
aI4135
aI1117
aI3867
aI1966
aI493
aI3
aI2475
aI63765
asg6
S'Following the Philadelphia Convention  some famous revolutionary figures and statesmen  such as Patrick Henry  publicly argued against the Constitution  .'
p11
ss.