(dp1
S'input'
p2
(dp3
S'encoded'
p4
(lp5
I64
aI2179
aI43
aI63
aI3
aI4990
aI4991
aI116
aI4850
aI24
aI12166
aI3
aI475
aI7
aI3532
aI3290
aI7
aI4714
asS'ori'
p6
S'This house believes that the Catholic Church is justified in forbidding the use of barrier methods of contraception'
p7
ssS'output'
p8
(dp9
g4
(lp10
I3552
aI34
aI3164
aI3558
aI3027
aI7
aI4714
aI3683
aI63
aI3495
aI417
aI117
aI268
aI24
aI11389
aI34
aI3
aI3014
aI7
aI13744
aI5
aI5468
aI34
aI2718
aI73
aI1994
aI21151
aI63765
asg6
S'Advocates for voluntary motherhood disapproved of contraception  arguing that women should only engage in sex for the purpose of procreation and advocated for periodic or permanent abstinence .'
p11
ss.