(dp1
S'input'
p2
(dp3
S'encoded'
p4
(lp5
I64
aI2179
aI394
aI163
aI959
aI2042
aI3557
asS'ori'
p6
S'This house would make physical education compulsory'
p7
ssS'output'
p8
(dp9
g4
(lp10
I959
aI5982
aI116
aI1185
aI34
aI2751
aI959
aI11262
asg6
S'Physical exercise is important for maintaining physical fitness'
p11
ss.