(dp1
S'input'
p2
(dp3
S'encoded'
p4
(lp5
I64
aI2179
aI235
aI3
aI2136
aI7
aI3
aI2306
aI7
aI2390
asS'ori'
p6
S'This house supports the one-child policy of the republic of China'
p7
ssS'output'
p8
(dp9
g4
(lp10
I217
aI2041
aI14
aI117
aI3862
aI55
aI12
aI8948
aI5
aI2942
aI14
aI3
aI10670
aI7
aI5
aI14
aI40
aI80
aI34
aI1343
aI5251
aI11807
aI63
aI10670
aI63765
asg6
S'Most research on only children has been quantitative and focused on the behaviour of only-children and on how others  for example teachers  assess that behaviour .'
p11
ss.