(dp1
S'input'
p2
(dp3
S'encoded'
p4
(lp5
I64
aI2179
aI394
aI16642
aI1376
aI5269
asS'ori'
p6
S'This house would subsidize poor communities'
p7
ssS'output'
p8
(dp9
g4
(lp10
I934
aI19023
aI366
aI35
aI12119
aI3709
aI3941
aI1292
aI19533
aI7931
aI63
aI463
aI23137
aI63765
asg6
S'Safety nets after natural disasters help households avoid irreversible losses that could ensue .'
p11
ss.