(dp1
S'input'
p2
(dp3
S'encoded'
p4
(lp5
I64
aI2179
aI394
aI2976
aI12243
aI24
aI954
aI126
aI1560
aI10723
asS'ori'
p6
S'This house would implement playoffs in collegiate level American football'
p7
ssS'output'
p8
(dp9
g4
(lp10
I604
aI7
aI89
aI34949
aI306
aI1443
aI117
aI267
aI4144
aI19
aI574
aI2333
aI45
aI6372
aI24
aI34949
aI20731
aI283
aI7719
aI5
aI34992
aI382
aI99
aI5647
aI34
aI4584
aI45
aI89
aI34949
aI319
aI63765
asg6
S'Because of a BCS rule allowing only two teams from each conference to play in BCS bowl games  highly-ranked Wisconsin and Auburn were not eligible for selection to a BCS game .'
p11
ss.