(dp1
S'input'
p2
(dp3
S'encoded'
p4
(lp5
I64
aI2179
aI394
aI163
aI959
aI2042
aI3557
asS'ori'
p6
S'This house would make physical education compulsory'
p7
ssS'output'
p8
(dp9
g4
(lp10
I188
aI4364
aI1222
aI45
aI1292
aI351
aI399
aI7
aI5903
aI73
aI2527
aI46313
aI1642
aI3
aI188
aI3262
aI63765
asg6
S'Democratic schools attempt to avoid any form of overt or covert enculturation outside the democratic process .'
p11
ss.