(dp1
S'input'
p2
(dp3
S'encoded'
p4
(lp5
I64
aI2179
aI43
aI63
aI3
aI21
aI45
aI12715
aI417
aI99
aI316
aI2897
asS'ori'
p6
S'This house believes that the right to asylum should not be absolute'
p7
ssS'output'
p8
(dp9
g4
(lp10
I64
aI4925
aI55
aI174
aI12
aI3531
aI41
aI17010
aI60
aI3
aI6174
aI7
aI5125
aI7631
aI92
aI1416
aI870
aI24
aI545
aI188
aI63765
asg6
S'This inequality has also been criticized as conflicting with the principle of equal opportunities  which apply (at least in theory) within democratic nation-states .'
p11
ss.