(dp1
S'input'
p2
(dp3
S'encoded'
p4
(lp5
I64
aI2179
aI43
aI63
aI7382
aI116
aI400
aI4713
asS'ori'
p6
S'This house believes that bribery is sometimes acceptable'
p7
ssS'output'
p8
(dp9
g4
(lp10
I3
aI4900
aI60
aI7382
aI116
aI63
aI64
aI116
aI89
aI4645
aI63765
asg6
S'The difference with bribery is that this is a tri-lateral relation .'
p11
ss.