(dp1
S'input'
p2
(dp3
S'encoded'
p4
(lp5
I64
aI2179
aI43
aI223
aI2138
aI11
aI89
aI21
aI45
aI2185
aI372
asS'ori'
p6
S'This house believes all nations have a right to nuclear weapons'
p7
ssS'output'
p8
(dp9
g4
(lp10
I4284
aI3
aI237
aI1869
aI7
aI11676
aI5
aI3
aI1869
aI416
aI24
aI3
aI267
aI2185
aI372
aI2909
aI416
aI24
aI7497
aI122
aI41
aI89
aI13249
aI2418
aI3722
aI19
aI11236
aI6837
aI63765
asg6
S'Historically the first method of delivery  and the method used in the two nuclear weapons actually used in warfare  was as a gravity bomb  dropped from bomber aircraft .'
p11
ss.