(dp1
S'input'
p2
(dp3
S'encoded'
p4
(lp5
I64
aI2179
aI394
aI10662
aI626
aI187
aI2157
aI2697
aI19
aI2371
asS'ori'
p6
S'This house would remove United States military bases from Japan'
p7
ssS'output'
p8
(dp9
g4
(lp10
I3
aI217
aI1173
aI3609
aI24
aI11542
aI378
aI26600
aI19
aI3135
aI1647
aI860
aI75
aI2206
aI3987
aI2789
aI5
aI271
aI41622
aI60
aI3
aI7854
aI1343
aI773
aI3
aI8833
aI5
aI3323
aI7
aI89
aI26432
aI10731
aI75
aI267
aI27088
aI5
aI89
aI5451
aI54325
aI63765
asg6
S'The most powerful opposition in Okinawa  however  stemmed from criminal acts committed by US service members and their dependants  with the latest example being the 1995 kidnapping and rape of a 12-year-old Okinawan girl by two Marines and a Navy corpsmen (Packard  2010) .'
p11
ss.