(dp1
S'input'
p2
(dp3
S'encoded'
p4
(lp5
I64
aI2179
aI13605
aI2258
aI45
aI2194
asS'ori'
p6
S'This house prefers trade to aid'
p7
ssS'output'
p8
(dp9
g4
(lp10
I24
aI64
aI4659
aI2891
aI116
aI89
aI3262
aI7
aI1546
aI63
aI4664
aI4830
aI63765
asg6
S"In this context  development is a process of change that affects people's lives ."
p11
ss.