(dp1
S'input'
p2
(dp3
S'encoded'
p4
(lp5
I64
aI2179
aI43
aI63
aI134
aI116
aI400
aI21
aI34
aI3
aI260
aI45
aI3439
aI57
aI7
aI2381
asS'ori'
p6
S'This house believes that it is sometimes right for the government to restrict freedom of speech'
p7
ssS'output'
p8
(dp9
g4
(lp10
I357
aI154
aI155
aI11
aI24
aI3
aI3355
aI4185
aI7
aI3
aI237
aI3500
aI551
aI63
aI3
aI3864
aI7
aI4638
aI4639
aI4197
aI99
aI316
aI5001
aI1375
aI24
aI3052
aI7
aI63
aI443
aI2029
aI7
aI57369
aI73
aI20498
aI901
aI2733
aI70
aI4197
aI316
aI63
aI443
aI5489
aI7
aI5690
aI4197
aI316
aI4626
aI75
aI3
aI626
aI187
aI7102
aI63765
asg6
S'We find they have  in the ninth section of the first article declared  that the writ of habeas corpus shall not be suspended  unless in cases of rebellion&nbsp; that no bill of attainder  or ex post facto law  shall be passed&nbsp; that no title of nobility shall be granted by the United States  etc .'
p11
ss.