(dp1
S'input'
p2
(dp3
S'encoded'
p4
(lp5
I64
aI2179
aI43
aI63
aI2203
aI60
aI51
aI997
aI2837
aI21716
aI1636
aI5349
aI417
aI2998
aI8532
aI45
aI3051
aI8578
asS'ori'
p6
S'This house believes that countries with an imbalanced male/female ratio skewed towards males should encourage parents to produce girls'
p7
ssS'output'
p8
(dp9
g4
(lp10
I113
aI24
aI3
aI3579
aI7
aI11389
aI4584
aI3237
aI89
aI1051
aI7
aI11389
aI17839
aI311
aI314
aI7
aI291
aI45
aI5716
aI4386
aI8578
aI55
aI12
aI2778
aI24
aI384
aI5090
aI643
aI2203
aI5
aI887
aI384
aI2812
aI5
aI10250
aI3136
aI545
aI89
aI575
aI2696
aI63765
asg6
S'Even in the absence of sex selection practices  a range of "normal" sex ratios at birth of between 103 to 108 boys per 100 girls has been observed in different economically developed countries  and among different ethnic and racial groups within a given country .'
p11
ss.