(dp1
S'input'
p2
(dp3
S'encoded'
p4
(lp5
I64
aI2179
aI43
aI63
aI2659
aI417
aI1690
aI3
aI12048
aI7
aI19084
asS'ori'
p6
S'This house believes that Israel should lift the blockade of Gaza'
p7
ssS'output'
p8
(dp9
g4
(lp10
I24
aI241
aI742
aI1198
aI3114
aI3
aI2696
aI3
aI78
aI3
aI3905
aI60
aI3
aI6309
aI7246
aI3
aI7338
aI2860
aI768
aI27256
aI45
aI4302
aI3
aI6056
aI2136
aI5
aI45
aI4302
aI3
aI1560
aI2136
aI5
aI134
aI122
aI298
aI3
aI12881
aI3531
aI2304
aI2136
aI63765
asg6
S'In 2004  Chomsky said "If you identify the country  the people  the culture with the rulers  accept the totalitarian doctrine  then yeah  it\'s anti-Semitic to criticize the Israeli policy  and anti-American to criticize the American policy  and it was anti-Soviet when the dissidents criticized Russian policy .'
p11
ss.