(dp1
S'input'
p2
(dp3
S'encoded'
p4
(lp5
I64
aI2179
aI43
aI8629
aI116
aI3
aI117
aI998
asS'ori'
p6
S'This house believes atheism is the only way'
p7
ssS'output'
p8
(dp9
g4
(lp10
I8219
aI2599
aI39
aI40
aI8313
aI399
aI5
aI4453
aI63
aI217
aI8313
aI182
aI2062
aI75
aI7330
aI4992
aI147
aI63765
asg6
S'Chapter eleven discusses how religions form  and claims that most religions are founded by corrupt  immoral individuals .'
p11
ss.