(dp1
S'input'
p2
(dp3
S'encoded'
p4
(lp5
I64
aI2179
aI394
aI16642
aI1376
aI5269
asS'ori'
p6
S'This house would subsidize poor communities'
p7
ssS'output'
p8
(dp9
g4
(lp10
I237
aI3
aI532
aI7
aI4262
aI7619
aI800
aI311
aI3
aI218
aI4262
aI2722
aI7
aI5
aI116
aI513
aI63765
asg6
S'First  the amount of tax revenue raised at the extreme tax rates of 0% and 100% is considered .'
p11
ss.