(dp1
S'input'
p2
(dp3
S'encoded'
p4
(lp5
I64
aI2179
aI394
aI4325
aI2042
aI270
aI89
aI11605
aI3324
asS'ori'
p6
S'This house would fund education using a voucher scheme'
p7
ssS'output'
p8
(dp9
g4
(lp10
I751
aI3
aI2490
aI433
aI12018
aI742
aI42
aI394
aI99
aI15974
aI14
aI3
aI3545
aI24
aI3
aI3592
aI2029
aI92
aI394
aI4934
aI6198
aI45
aI223
aI658
aI4364
aI5040
aI257
aI89
aI1107
aI2083
aI3370
aI7464
aI63765
asg6
S'Before the vote  Governor Stanley said he would not insist on the provision in the funding cut-off bill which would deny funds to all public schools statewide if a single local jurisdiction integrated  .'
p11
ss.