(dp1
S'input'
p2
(dp3
S'encoded'
p4
(lp5
I64
aI2179
aI43
aI63
aI2157
aI2565
aI493
aI19084
aI382
aI4850
asS'ori'
p6
S"This house believes that Israel's 2008-2009 military operations against Gaza were justified"
p7
ssS'output'
p8
(dp9
g4
(lp10
I725
aI30030
aI5743
aI7016
aI1544
aI24
aI89
aI1107
aI19256
aI3380
aI24
aI271
aI4492
aI63765
asg6
S'Many Sderot families sleep together in a single fortified room in their homes  .'
p11
ss.