(dp1
S'input'
p2
(dp3
S'encoded'
p4
(lp5
I64
aI2179
aI43
aI63
aI3
aI21
aI45
aI12715
aI417
aI99
aI316
aI2897
asS'ori'
p6
S'This house believes that the right to asylum should not be absolute'
p7
ssS'output'
p8
(dp9
g4
(lp10
I113
aI366
aI3
aI2784
aI351
aI3364
aI45
aI6861
aI2610
aI7582
aI24
aI3
aI2178
aI122
aI637
aI513
aI89
aI631
aI829
aI5
aI4024
aI913
aI45
aI3
aI13996
aI7
aI4140
aI28312
aI41839
aI19
aI8856
aI73
aI120
aI81
aI382
aI2195
aI45
aI10752
aI3364
aI63765
asg6
S'Even after the 1971 Act any action to detect immigration offenders in the community was still considered a police matter and largely limited to the detection of seamen deserters  absconders from ports or those who were subject to deportation action .'
p11
ss.