(dp1
S'input'
p2
(dp3
S'encoded'
p4
(lp5
I64
aI2179
aI43
aI63
aI134
aI116
aI400
aI21
aI34
aI3
aI260
aI45
aI3439
aI57
aI7
aI2381
asS'ori'
p6
S'This house believes that it is sometimes right for the government to restrict freedom of speech'
p7
ssS'output'
p8
(dp9
g4
(lp10
I24
aI3
aI2482
aI2483
aI743
aI63
aI2221
aI463
aI99
aI7228
aI15621
aI75
aI6745
aI63
aI2933
aI2397
aI19
aI3
aI9276
aI34
aI658
aI13200
aI646
aI63765
aI2344
aI7
aI3495
aI4275
aI7
aI2300
aI63765
asg6
S'In 1984  the Supreme Court ruled that Congress could not forbid editorials by non-profit stations that received grants from the Corporation for Public Broadcasting (FCC v . League of Women Voters of California  ) .'
p11
ss.