(dp1
S'input'
p2
(dp3
S'encoded'
p4
(lp5
I64
aI2179
aI394
aI2017
aI262
asS'ori'
p6
S'This house would ban boxing'
p7
ssS'output'
p8
(dp9
g4
(lp10
I311
aI3
aI1643
aI413
aI3
aI1677
aI1579
aI1678
aI1612
aI5
aI3
aI609
aI5
aI1601
aI1679
aI5
aI3
aI1522
aI1527
aI1680
aI1681
aI1682
aI3
aI760
aI910
aI7
aI3
aI1633
aI63765
asg6
S'At the same time  the knees push upwards quickly and the torso and hips rotate anti-clockwise and the rear heel turns outward  mimicking the body movement of the cross .'
p11
ss.