(dp1
S'input'
p2
(dp3
S'encoded'
p4
(lp5
I64
aI2179
aI394
aI16642
aI1376
aI5269
asS'ori'
p6
S'This house would subsidize poor communities'
p7
ssS'output'
p8
(dp9
g4
(lp10
I3
aI17594
aI45
aI1228
aI8069
aI6609
aI1074
aI7184
aI442
aI7
aI3
aI1972
aI699
aI5
aI7994
aI8890
aI5
aI7184
aI5224
aI2938
aI7371
aI17594
aI7249
aI5
aI9404
aI63765
asg6
S'The inputs to good targeting outcomes include adequate staffing; well-defined rules of the game; clearly assigned and sensible institutional roles; and adequate information systems  material inputs  monitoring  and evaluation .'
p11
ss.