(dp1
S'input'
p2
(dp3
S'encoded'
p4
(lp5
I64
aI2179
aI43
aI24
aI3
aI475
aI7
aI12436
aI3364
asS'ori'
p6
S'This house believes in the use of affirmative action'
p7
ssS'output'
p8
(dp9
g4
(lp10
I134
aI116
aI246
aI4415
aI41
aI89
aI69
aI22
aI6535
aI24
aI3
aI7037
aI2498
aI63765
asg6
S'It is generally viewed as a positive political ideal in the abstract sense  .'
p11
ss.