(dp1
S'input'
p2
(dp3
S'encoded'
p4
(lp5
I64
aI2179
aI43
aI63
aI3
aI4538
aI7
aI4434
aI7793
aI283
aI45
aI3586
aI417
aI316
aI577
asS'ori'
p6
S'This house believes that the sale of violent video games to minors should be banned'
p7
ssS'output'
p8
(dp9
g4
(lp10
I1237
aI2992
aI11
aI4101
aI3
aI748
aI127
aI7
aI29252
aI7793
aI283
aI24
aI89
aI3874
aI1685
aI63765
aI3
aI217
aI2068
aI2035
aI353
aI63
aI8578
aI81
aI2757
aI7793
aI283
aI60
aI271
aI8532
aI440
aI1796
aI1043
aI3217
aI5
aI149
aI1946
aI8935
aI60
aI89
aI1352
aI3968
aI257
aI155
aI2757
aI283
asg6
S'Several studies have explored the possible benefits of multiplayer video games in a family setting . The most recent study found that girls 11-16 who played video games with their parents had better mental health and less aggressive behavior  with a stronger connection if they played age-appropriate games '
p11
ss.