(dp1
S'input'
p2
(dp3
S'encoded'
p4
(lp5
I64
aI2179
aI43
aI63
aI3
aI4990
aI4991
aI116
aI4850
aI24
aI12166
aI3
aI475
aI7
aI3532
aI3290
aI7
aI4714
asS'ori'
p6
S'This house believes that the Catholic Church is justified in forbidding the use of barrier methods of contraception'
p7
ssS'output'
p8
(dp9
g4
(lp10
I604
aI11389
aI116
aI513
aI21242
aI117
aI545
aI4659
aI7
aI8559
aI134
aI55
aI2118
aI45
aI316
aI263
aI3
aI25992
aI2784
aI24
aI4990
aI26000
aI63765
asg6
S'Because sex is considered chaste only within context of marriage it has come to be called the nuptial act in Catholic passages .'
p11
ss.