(dp1
S'input'
p2
(dp3
S'encoded'
p4
(lp5
I64
aI2179
aI43
aI63
aI2157
aI2565
aI493
aI19084
aI382
aI4850
asS'ori'
p6
S"This house believes that Israel's 2008-2009 military operations against Gaza were justified"
p7
ssS'output'
p8
(dp9
g4
(lp10
I653
aI19386
aI9813
aI3667
aI1620
aI63
aI273
aI122
aI443
aI5624
aI45
aI3
aI538
aI6412
aI3
aI2445
aI2446
aI2132
aI1301
aI3382
aI45
aI15757
aI3
aI6412
aI5
aI9596
aI485
aI8920
aI63765
asg6
S"Despite Ambassador Martin Uhomoibhi's verbal commitment that there was no objection to the revised mandate  the Human Rights Council never voted to revise the mandate  and resolution S-9/1 remained unchanged  ."
p11
ss.