(dp1
S'input'
p2
(dp3
S'encoded'
p4
(lp5
I64
aI2179
aI43
aI63
aI3357
aI5003
aI652
aI3
aI188
aI3262
asS'ori'
p6
S'This house believes that opinion polls harm the democratic process'
p7
ssS'output'
p8
(dp9
g4
(lp10
I2711
aI3082
aI11
aI45
aI316
aI10575
aI75
aI1070
aI92
aI116
aI136
aI5
aI5132
aI34
aI3732
aI63765
asg6
S'Numbers therefore have to be dialled by hand  which is more time-consuming and expensive for pollsters .'
p11
ss.