(dp1
S'input'
p2
(dp3
S'encoded'
p4
(lp5
I64
aI2179
aI394
aI5284
aI150
aI3987
asS'ori'
p6
S'This house would reintroduce national service'
p7
ssS'output'
p8
(dp9
g4
(lp10
I2390
aI2306
aI7
aI3151
aI10
aI443
aI976
aI459
aI2475
aI131
aI55
aI99
aI3503
aI12
aI5652
aI24
aI2231
aI63765
asg6
S"|- China  People's Republic of 9 326 410 $5 745 000 $2 459 .43 1 336 718 015 Communist State No  Legal under Constitution but has not yet been practiced in history  ."
p11
ss.