(dp1
S'input'
p2
(dp3
S'encoded'
p4
(lp5
I64
aI2179
aI43
aI63
aI1036
aI4828
aI33250
aI116
aI25073
aI45
aI3315
aI4562
asS'ori'
p6
S'This house believes that male infant circumcision is tantamount to child abuse'
p7
ssS'output'
p8
(dp9
g4
(lp10
I34
aI725
aI3
aI3099
aI116
aI2056
aI3589
aI24
aI3249
aI14
aI93
aI229
aI24
aI89
aI3644
aI73
aI5354
aI63765
asg6
S"For many  the operation is now performed in private on one individual  in a hospital or doctor's office ."
p11
ss.