(dp1
S'input'
p2
(dp3
S'encoded'
p4
(lp5
I64
aI2179
aI43
aI63
aI187
aI417
aI99
aI16642
aI3
aI6449
aI7
aI3935
asS'ori'
p6
S'This house believes that states should not subsidize the growing of tobacco'
p7
ssS'output'
p8
(dp9
g4
(lp10
I7350
aI108
aI153
aI32632
aI2042
aI604
aI3935
aI5677
aI946
aI24
aI3
aI2760
aI285
aI1019
aI163
aI868
aI137
aI19
aI271
aI17529
aI45
aI3514
aI252
aI3
aI7406
aI203
aI63
aI3862
aI124
aI63765
asg6
S'Unfortunately working often beats education because tobacco farmers  especially in the developing world  cannot make enough money from their crop to survive without the cheap labor that children provide .'
p11
ss.