(dp1
S'input'
p2
(dp3
S'encoded'
p4
(lp5
I64
aI2179
aI43
aI63
aI3
aI28431
aI7
aI2157
aI4624
aI75
aI39939
aI27257
aI122
aI4850
asS'ori'
p6
S'This house believes that the leaking of military documents by Anat Kamm was justified'
p7
ssS'output'
p8
(dp9
g4
(lp10
I24
aI953
aI34
aI3
aI20346
aI3
aI20389
aI123
aI51
aI5224
aI3518
aI8791
aI972
aI5935
aI78
aI2425
aI75
aI3
aI720
aI1306
aI2904
aI63765
asg6
S'In preparation for the leak  the Pentagon created an Information Review Task Force  comprising 120 people led by the Defense Intelligence Agency  .'
p11
ss.