(dp1
S'input'
p2
(dp3
S'encoded'
p4
(lp5
I64
aI2179
aI43
aI3
aI626
aI187
aI116
aI1989
aI34
aI3102
aI2223
asS'ori'
p6
S"This house believes the United States is responsible for Mexico's drugs war"
p7
ssS'output'
p8
(dp9
g4
(lp10
I64
aI122
aI1398
aI8917
aI604
aI18425
aI58916
aI440
aI1719
aI685
aI51
aI2667
aI63
aI9930
aI4147
aI45
aI2830
aI3
aI8677
aI63765
asg6
S'This was easily accomplished because Felix Gallardo had already established an infrastructure that stood ready to serve the Colombia-based traffickers .'
p11
ss.