(dp1
S'input'
p2
(dp3
S'encoded'
p4
(lp5
I64
aI2179
aI43
aI3
aI2206
aI116
aI4850
aI24
aI270
aI972
aI45
aI881
aI187
aI19
aI10443
aI2185
aI372
asS'ori'
p6
S'This house believes the US is justified in using force to prevent states from acquiring nuclear weapons'
p7
ssS'output'
p8
(dp9
g4
(lp10
I2456
aI1546
aI116
aI51
aI4217
aI2135
aI2136
aI845
aI324
aI853
aI14
aI755
aI2138
aI139
aI1461
aI45
aI79
aI1544
aI45
aI190
aI748
aI4849
aI4779
aI63765
asg6
S'Climate change is an unresolved foreign policy issue  particularly depending on whether nations can agree to work together to limit possible future risks  .'
p11
ss.