(dp1
S'input'
p2
(dp3
S'encoded'
p4
(lp5
I64
aI2179
aI394
aI117
aI7428
aI21151
aI34
aI11389
aI2042
aI24
aI4364
asS'ori'
p6
S'This house would only teach abstinence for sex education in schools'
p7
ssS'output'
p8
(dp9
g4
(lp10
I93
aI2035
aI353
aI63
aI3
aI494
aI4306
aI7
aI17089
aI3534
aI382
aI149
aI1856
aI45
aI6310
aI3
aI596
aI7
aI2042
aI5
aI7517
aI5
aI136
aI1856
aI45
aI7246
aI2445
aI8803
aI8935
aI13107
aI5
aI8559
aI311
aI494
aI494
aI6590
aI183
aI382
aI353
aI45
aI316
aI136
aI7661
aI7
aI5
aI320
aI13843
aI24
aI421
aI45
aI773
aI136
aI1820
aI45
aI12375
aI63765
asg6
S'One study found that the younger sisters of teen mothers were less likely to emphasize the importance of education and employment and more likely to accept human sexual behavior  parenting  and marriage at younger ages; younger brothers  too  were found to be more tolerant of non-marital and early births  in addition to being more susceptible to high-risk behaviors  .'
p11
ss.