(dp1
S'input'
p2
(dp3
S'encoded'
p4
(lp5
I64
aI2179
aI43
aI223
aI2138
aI11
aI89
aI21
aI45
aI2185
aI372
asS'ori'
p6
S'This house believes all nations have a right to nuclear weapons'
p7
ssS'output'
p8
(dp9
g4
(lp10
I2450
aI55
aI174
aI8117
aI376
aI24
aI3
aI2304
aI3
aI217
aI5182
aI2950
aI63765
asg6
S'India has also shown interest in the Russian S-400  the most advanced anti-ballistic missile .'
p11
ss.