(dp1
S'input'
p2
(dp3
S'encoded'
p4
(lp5
I64
aI2179
aI394
aI16642
aI1376
aI5269
asS'ori'
p6
S'This house would subsidize poor communities'
p7
ssS'output'
p8
(dp9
g4
(lp10
I934
aI19023
aI24
aI2979
aI12423
aI1222
aI45
aI454
aI3065
aI5
aI1292
aI19533
aI7931
aI7
aI959
aI1186
aI5
aI2445
aI2352
aI63765
asg6
S'Safety nets in crisis contexts attempt to protect incomes and avoid irreversible losses of physical assets and human capital .'
p11
ss.