(dp1
S'input'
p2
(dp3
S'encoded'
p4
(lp5
I64
aI2179
aI394
aI16756
aI20435
asS'ori'
p6
S'This house would criminalize blasphemy'
p7
ssS'output'
p8
(dp9
g4
(lp10
I233
aI45
aI13693
aI2789
aI7
aI3
aI11169
aI3136
aI19088
aI2763
aI14619
aI5
aI4047
aI31202
aI9956
aI19158
aI3
aI2218
aI11406
aI7
aI3
aI809
aI2528
aI171
aI19090
aI17377
aI11179
aI736
aI3
aI2674
aI5
aI89
aI460
aI3599
aI3
aI7161
aI63765
aI19136
aI20
aI89
aI4149
aI14
aI3
aI2884
aI3842
aI63
aI3
aI1444
aI394
aI2455
aI816
aI487
aI7303
aI25130
aI45
aI5786
aI725
aI7
aI4895
aI358
aI3
aI14852
aI20031
aI63765
asg6
S'According to CNN  "Masked members of the militant groups Palestinian Islamic Jihad and Al Aqsa Martyrs Brigades  the armed wing of the Palestinians\' former ruling party  Fatah  fired bullets into the air  and a man read the group\'s demands . .The gunmen left a notice on the EU office\'s door that the building would remain closed until Europeans apologize to Muslims  many of whom consider the cartoons offensive .'
p11
ss.