(dp1
S'input'
p2
(dp3
S'encoded'
p4
(lp5
I64
aI2179
aI394
aI190
aI3
aI21
aI45
aI3895
aI834
asS'ori'
p6
S'This house would limit the right to bear arms'
p7
ssS'output'
p8
(dp9
g4
(lp10
I2789
aI7
aI2221
aI11
aI329
aI3
aI4283
aI41
aI3
aI217
aI1173
aI4387
aI2134
aI24
aI3
aI2696
aI1237
aI2439
aI24
aI89
aI21694
aI63765
asg6
S'Members of Congress have ranked the NRA as the most powerful lobbying organization in the country several years in a row  .'
p11
ss.