(dp1
S'input'
p2
(dp3
S'encoded'
p4
(lp5
I64
aI2179
aI43
aI24
aI3
aI475
aI7
aI12436
aI3364
asS'ori'
p6
S'This house believes in the use of affirmative action'
p7
ssS'output'
p8
(dp9
g4
(lp10
I2345
aI122
aI75
aI7239
aI12323
aI15896
aI5
aI43741
aI43742
aI24
aI3
aI5
aI122
aI788
aI588
aI75
aI12515
aI366
aI42
aI122
aI2227
aI24
aI75
aI433
aI4314
aI2491
aI45
aI3
aI4750
aI7
aI2300
aI2128
aI7
aI17765
aI63765
asg6
S"California's initiative was co-authored by academics Tom Wood and Glynn Custred in the mid-1990s and was taken up by Connerly after he was appointed in 1994 by Governor Pete Wilson to the University of California Board of Regents ."
p11
ss.