(dp1
S'input'
p2
(dp3
S'encoded'
p4
(lp5
I64
aI2179
aI43
aI63
aI3376
aI4938
aI417
aI316
aI3537
asS'ori'
p6
S'This house believes that endangered species should be protected'
p7
ssS'output'
p8
(dp9
g4
(lp10
I226
aI3
aI5200
aI7
aI915
aI1495
aI4696
aI24
aI100
aI1948
aI7
aI3
aI285
aI134
aI937
aI12426
aI63765
asg6
S'While the distribution of clean water increases  in some parts of the world it remains unequal .'
p11
ss.