(dp1
S'input'
p2
(dp3
S'encoded'
p4
(lp5
I64
aI2179
aI43
aI63
aI1036
aI4828
aI33250
aI116
aI25073
aI45
aI3315
aI4562
asS'ori'
p6
S'This house believes that male infant circumcision is tantamount to child abuse'
p7
ssS'output'
p8
(dp9
g4
(lp10
I33250
aI417
aI316
aI1340
aI41
aI51
aI5433
aI34
aI3217
aI127
asg6
S'circumcision should be presented as an option for health benefits'
p11
ss.