(dp1
S'input'
p2
(dp3
S'encoded'
p4
(lp5
I64
aI2179
aI394
aI1499
aI3
aI8115
aI34564
aI17106
asS'ori'
p6
S'This house would build the Keystone XL pipeline'
p7
ssS'output'
p8
(dp9
g4
(lp10
I45623
aI11
aI12
aI416
aI34
aI5440
aI7
aI18108
aI24
aI2452
aI5
aI273
aI182
aI1237
aI18108
aI17106
aI4949
aI24
aI2452
aI5
aI3
aI626
aI187
aI63765
asg6
S'Pipelines have been used for transportation of ethanol in Brazil  and there are several ethanol pipeline projects in Brazil and the United States  .'
p11
ss.