(dp1
S'input'
p2
(dp3
S'encoded'
p4
(lp5
I64
aI2179
aI394
aI16642
aI1376
aI5269
asS'ori'
p6
S'This house would subsidize poor communities'
p7
ssS'output'
p8
(dp9
g4
(lp10
I16
aI4925
aI1371
aI15475
aI45
aI22
aI4925
asg6
S'economic inequality invariably translates to political inequality'
p11
ss.