(dp1
S'input'
p2
(dp3
S'encoded'
p4
(lp5
I64
aI2179
aI43
aI17
aI4941
aI857
aI3211
asS'ori'
p6
S'This house believes social deprivation causes crime'
p7
ssS'output'
p8
(dp9
g4
(lp10
I7376
aI273
aI182
aI725
aI3017
aI6368
aI41
aI45
aI6668
aI134
aI116
aI63
aI5716
aI4447
aI136
aI4212
aI138
aI8578
aI63765
asg6
S'Moreover  there are many suggested explanations as to why it is that boys commit more crimes than girls .'
p11
ss.