(dp1
S'input'
p2
(dp3
S'encoded'
p4
(lp5
I64
aI2179
aI43
aI223
aI2138
aI11
aI89
aI21
aI45
aI2185
aI372
asS'ori'
p6
S'This house believes all nations have a right to nuclear weapons'
p7
ssS'output'
p8
(dp9
g4
(lp10
I717
aI14
aI3
aI1643
aI4537
aI89
aI615
aI36685
aI3
aI36685
aI2236
aI116
aI3701
aI89
aI9368
aI7
aI3
aI36685
aI2233
aI3375
aI63
aI134
aI55
aI89
aI1051
aI5
aI89
aI1463
aI33674
aI63765
asg6
S'Based on the same design  a modified Prithvi  the Prithvi II  is essentially a longer-ranged version of the Prithvi I except that it has a 250-kilometer range and a lighter payload .'
p11
ss.