(dp1
S'input'
p2
(dp3
S'encoded'
p4
(lp5
I64
aI2179
aI43
aI63
aI3
aI4538
aI7
aI4434
aI7793
aI283
aI45
aI3586
aI417
aI316
aI577
asS'ori'
p6
S'This house believes that the sale of violent video games to minors should be banned'
p7
ssS'output'
p8
(dp9
g4
(lp10
I113
aI136
aI218
aI5
aI29950
aI1647
aI7
aI14870
aI2617
aI31938
aI589
aI182
aI153
aI416
aI24
aI3
aI13566
aI4040
aI24
aI128
aI45
aI8542
aI113
aI1352
aI11631
aI7
aI2384
aI5
aI11274
aI3
aI8632
aI7932
aI394
aI13035
aI316
aI63765
asg6
S'Even more extreme and grotesque acts of graphic violence (generally revolving around mutilation) are often used in the horror genre in order to inspire even stronger emotions of fear and shock (which the viewing demographic would presumably be seeking) .'
p11
ss.