(dp1
S'input'
p2
(dp3
S'encoded'
p4
(lp5
I64
aI2179
aI394
aI117
aI7428
aI21151
aI34
aI11389
aI2042
aI24
aI4364
asS'ori'
p6
S'This house would only teach abstinence for sex education in schools'
p7
ssS'output'
p8
(dp9
g4
(lp10
I19
aI45
aI3
aI2035
aI3729
aI136
aI138
aI4358
aI19
aI3485
aI73
aI45
aI3485
aI3
aI2035
aI2100
aI4358
aI81
aI440
aI7644
aI24
aI93
aI7
aI869
aI21151
aI2042
aI256
aI41
aI261
aI41
aI89
aI708
aI94
aI81
aI440
aI99
aI7644
aI24
aI159
aI89
aI2326
aI63765
asg6
S'From 1999 to 2006  the study tracked more than 2 000 students from age 11 or 12 to age 16; the study included students who had participated in one of four abstinence education programs  as well as a control group who had not participated in such a program .'
p11
ss.