(dp1
S'input'
p2
(dp3
S'encoded'
p4
(lp5
I64
aI2179
aI43
aI63
aI3376
aI4938
aI417
aI316
aI3537
asS'ori'
p6
S'This house believes that endangered species should be protected'
p7
ssS'output'
p8
(dp9
g4
(lp10
I155
aI1025
aI134
aI116
aI1796
aI45
aI7817
aI3
aI5048
aI7
aI3
aI6685
aI2864
aI7
aI4938
aI63765
asg6
S'They reason it is better to understand the significance of the ecological roles of species  .'
p11
ss.