(dp1
S'input'
p2
(dp3
S'encoded'
p4
(lp5
I64
aI2179
aI394
aI2017
aI3807
aI314
aI3433
asS'ori'
p6
S'This house would ban partial birth abortions'
p7
ssS'output'
p8
(dp9
g4
(lp10
I89
aI425
aI13692
aI2086
aI1727
aI3713
aI3072
aI755
aI2625
aI2428
aI3257
aI417
aI316
aI976
aI73
aI99
aI5
aI353
aI5041
aI24
aI3357
aI92
aI3979
aI111
aI171
aI10108
aI5
aI3
aI2654
aI7
aI3
aI2696
aI63765
asg6
S'A January 2003 CBS News/New York Times poll examined whether Americans thought abortion should be legal or not  and found variations in opinion which depended upon party affiliation and the region of the country  .'
p11
ss.