(dp1
S'input'
p2
(dp3
S'encoded'
p4
(lp5
I64
aI2179
aI43
aI63
aI2659
aI417
aI1690
aI3
aI12048
aI7
aI19084
asS'ori'
p6
S'This house believes that Israel should lift the blockade of Gaza'
p7
ssS'output'
p8
(dp9
g4
(lp10
I42
aI1630
aI63
aI3730
aI285
aI417
aI6261
aI3
aI3364
aI7
aI64
aI4052
aI5
aI3
aI4134
aI47
aI296
aI24
aI89
aI15694
aI14
aI2659
aI63765
asg6
S'He added that ""the whole world should condemn the action of this cruel regime" and "hoped the incident will result in a censure on Israel .'
p11
ss.