(dp1
S'input'
p2
(dp3
S'encoded'
p4
(lp5
I64
aI2179
aI394
aI5370
aI223
aI4013
aI10440
aI2446
aI4881
aI75
aI14482
aI11004
asS'ori'
p6
S'This house would abolish all collective bargaining rights claimed by trades unions'
p7
ssS'output'
p8
(dp9
g4
(lp10
I773
aI47823
aI5
aI47824
aI155
aI881
aI351
aI10725
aI1222
aI773
aI221
aI75
aI3
aI6941
aI41
aI89
aI5052
aI45
aI399
aI89
aI23487
aI171
aI7
aI271
aI284
aI1521
aI19
aI3904
aI9303
aI60
aI89
aI234
aI45
aI7510
aI3
aI17
aI3020
aI89
aI730
aI139
aI117
aI316
aI2754
aI75
aI43590
aI22
aI3364
aI63765
asg6
S'Being also. unsectarian and unpolitical  they prevent any organised attempt being made by the workers as a class to form a definite party of their own  apart from existing factions  with a view to dominate the social conditions  a victory which. can only be gained by resolute political action .'
p11
ss.