(dp1
S'input'
p2
(dp3
S'encoded'
p4
(lp5
I64
aI2179
aI43
aI63
aI3
aI4538
aI7
aI4434
aI7793
aI283
aI45
aI3586
aI417
aI316
aI577
asS'ori'
p6
S'This house believes that the sale of violent video games to minors should be banned'
p7
ssS'output'
p8
(dp9
g4
(lp10
I1640
aI41
aI273
aI182
aI5
aI4434
aI381
aI283
aI87
aI183
aI182
aI273
aI7405
aI5
aI265
aI7405
aI57073
aI1617
aI7405
aI5
aI1617
aI265
aI57073
aI5
aI7756
aI283
aI5
aI7103
aI265
aI283
aI63765
asg6
S'Just as there are non-violent and violent sports games  so too are there flight and combat flight simulators  space flight and space combat simulators  and racing games and vehicular combat games .'
p11
ss.