(dp1
S'input'
p2
(dp3
S'encoded'
p4
(lp5
I64
aI2179
aI394
aI1499
aI177
aI1819
aI34
aI160
asS'ori'
p6
S'This house would build high rises for housing'
p7
ssS'output'
p8
(dp9
g4
(lp10
I1028
aI36002
aI55
aI12
aI403
aI5
aI4328
aI24
aI380
aI3708
aI63765
asg6
S'Job sprawl has been documented and measured in various ways .'
p11
ss.