(dp1
S'input'
p2
(dp3
S'encoded'
p4
(lp5
I64
aI2179
aI43
aI63
aI188
aI220
aI417
aI1619
aI4275
aI45
aI713
aI14799
aI7533
aI311
aI3
aI3721
aI5145
asS'ori'
p6
S'This house believes that democratic governments should require voters to present photo identification at the polling station'
p7
ssS'output'
p8
(dp9
g4
(lp10
I159
aI78
aI394
aI133
aI155
aI440
aI4384
aI45
aI2490
aI5
aI394
aI117
aI7278
aI14
aI4168
aI1379
aI63
aI155
aI382
aI99
aI4384
aI5
aI463
aI99
aI9806
aI89
aI10472
aI63765
asg6
S'Such people would believe they had registered to vote  and would only discover on election day that they were not registered and could not cast a ballot  .'
p11
ss.