(dp1
S'input'
p2
(dp3
S'encoded'
p4
(lp5
I64
aI2179
aI43
aI63
aI3
aI21
aI45
aI12715
aI417
aI99
aI316
aI2897
asS'ori'
p6
S'This house believes that the right to asylum should not be absolute'
p7
ssS'output'
p8
(dp9
g4
(lp10
I24
aI2805
aI3
aI5399
aI3900
aI2181
aI4145
aI2180
aI2951
aI89
aI1699
aI1003
aI29813
aI736
aI3
aI3398
aI34
aI3
aI544
aI24
aI12715
aI5
aI3
aI998
aI63
aI22772
aI5
aI3
aI2610
aI3987
aI440
aI10681
aI3
aI214
aI63765
asg6
S'In February 2000 the Parliamentary Home Affairs Select Committee  (HAC)  started a wide ranging enquiry into the reasons for the rise in asylum and the way that IND and the Immigration Service had handled the issues .'
p11
ss.