(dp1
S'input'
p2
(dp3
S'encoded'
p4
(lp5
I64
aI2179
aI43
aI63
aI6670
aI546
aI417
aI316
aI89
aI1334
aI3108
aI7
aI4849
aI1886
aI2855
asS'ori'
p6
S'This house believes that wind power should be a primary focus of future energy supply'
p7
ssS'output'
p8
(dp9
g4
(lp10
I155
aI3307
aI63
aI89
aI8112
aI1886
aI2855
aI116
aI2867
aI34
aI15
aI150
aI2702
aI5
aI3
aI3216
aI63765
asg6
S'They conclude that a resilient energy supply is necessary for both national security and the environment .'
p11
ss.