(dp1
S'input'
p2
(dp3
S'encoded'
p4
(lp5
I64
aI2179
aI43
aI63
aI134
aI116
aI400
aI21
aI34
aI3
aI260
aI45
aI3439
aI57
aI7
aI2381
asS'ori'
p6
S'This house believes that it is sometimes right for the government to restrict freedom of speech'
p7
ssS'output'
p8
(dp9
g4
(lp10
I41
aI3
aI7
aI888
aI4155
aI220
aI685
aI17753
aI708
aI4550
aI63765
asg6
S'As the "menace" of printing spread  governments established centralised control mechanism  .'
p11
ss.