(dp1
S'input'
p2
(dp3
S'encoded'
p4
(lp5
I64
aI2179
aI43
aI63
aI3
aI21
aI45
aI12715
aI417
aI99
aI316
aI2897
asS'ori'
p6
S'This house believes that the right to asylum should not be absolute'
p7
ssS'output'
p8
(dp9
g4
(lp10
I3
aI2784
aI122
aI717
aI14
aI89
aI3445
aI7
aI1968
aI9107
aI92
aI20901
aI1968
aI9107
aI2089
aI10755
aI27837
aI14
aI10735
aI25325
aI63765
asg6
S'The Act was based on a concept of illegal entry which imagined illegal entry via clandestine landings on dark beaches .'
p11
ss.