(dp1
S'input'
p2
(dp3
S'encoded'
p4
(lp5
I64
aI2179
aI43
aI63
aI187
aI417
aI99
aI16642
aI3
aI6449
aI7
aI3935
asS'ori'
p6
S'This house believes that states should not subsidize the growing of tobacco'
p7
ssS'output'
p8
(dp9
g4
(lp10
I923
aI3
aI81
aI16532
aI63
aI2155
aI78
aI47
aI316
aI7176
aI75
aI3
aI2268
aI92
aI1501
aI2749
aI63765
asg6
S'Currently the WHO declares that 4 billion people will be covered by the treaty  which includes 168 signatories  .'
p11
ss.