(dp1
S'input'
p2
(dp3
S'encoded'
p4
(lp5
I64
aI2179
aI394
aI4325
aI2042
aI270
aI89
aI11605
aI3324
asS'ori'
p6
S'This house would fund education using a voucher scheme'
p7
ssS'output'
p8
(dp9
g4
(lp10
I64
aI1387
aI55
aI2322
aI958
aI138
aI1472
aI289
aI3
aI1257
aI1896
aI2467
aI1021
aI24
aI759
aI45
aI89
aI1160
aI7
aI17
aI1161
aI63765
asg6
S'This gap has increased  rather than decreased  over the past few decades due in part to a lack of social mobility  .'
p11
ss.