(dp1
S'input'
p2
(dp3
S'encoded'
p4
(lp5
I64
aI2179
aI43
aI63
aI3
aI28431
aI7
aI2157
aI4624
aI75
aI39939
aI27257
aI122
aI4850
asS'ori'
p6
S'This house believes that the leaking of military documents by Anat Kamm was justified'
p7
ssS'output'
p8
(dp9
g4
(lp10
I20387
aI20388
aI16572
aI2173
aI63
aI3
aI4515
aI463
aI521
aI419
aI15967
aI5
aI63
aI88
aI11
aI89
aI419
aI4099
aI2702
aI918
aI34
aI78
aI2686
asg6
S'OtherNATO\'s Secretary-General Anders Fogh Rasmussen stated that the release could cause "a very unfortunate situation"  and that "such leaks. may have a very negative security impact for people involved ."'
p11
ss.