(dp1
S'input'
p2
(dp3
S'encoded'
p4
(lp5
I64
aI2179
aI43
aI17
aI4941
aI857
aI3211
asS'ori'
p6
S'This house believes social deprivation causes crime'
p7
ssS'output'
p8
(dp9
g4
(lp10
I64
aI116
aI3843
aI60
aI24667
aI5
aI23961
aI2041
aI7856
aI63
aI5349
aI404
aI34
aI7
aI3
aI5047
aI17076
aI11389
aI4734
aI63765
asg6
S'This is consistent with Ryan and Lanes research indicating that males account for 91-93% of the reported juvenile sex offenses  .'
p11
ss.