(dp1
S'input'
p2
(dp3
S'encoded'
p4
(lp5
I64
aI2179
aI394
aI10662
aI626
aI187
aI2157
aI2697
aI19
aI2371
asS'ori'
p6
S'This house would remove United States military bases from Japan'
p7
ssS'output'
p8
(dp9
g4
(lp10
I24
aI3
aI260
aI4544
aI89
aI1024
aI24
aI3
aI6229
aI7
aI2692
aI7398
aI108
aI14
aI3
aI2206
aI2697
aI89
aI3728
aI63
aI1016
aI3
aI2692
aI4912
aI75
aI2155
aI63765
asg6
S'In 2007 the government implemented a cut in the salaries of Japanese nationals working on the US bases  a measure that reduced the Japanese burden by 10 billion  .'
p11
ss.