(dp1
S'input'
p2
(dp3
S'encoded'
p4
(lp5
I64
aI2179
aI43
aI63
aI2157
aI2565
aI493
aI19084
aI382
aI4850
asS'ori'
p6
S"This house believes that Israel's 2008-2009 military operations against Gaza were justified"
p7
ssS'output'
p8
(dp9
g4
(lp10
I31328
aI16629
aI46334
aI3
aI19088
aI2161
aI7
aI3217
aI1668
aI1024
aI1295
aI3
aI6751
aI45
aI6056
aI3590
aI34
aI4902
aI7
aI19088
aI4821
aI1854
aI4136
aI7
aI16618
aI45
aI12169
aI271
aI8143
aI5
aI8817
aI86
aI1295
aI19
aI3576
aI2015
aI85
aI63765
asg6
S'Fathi Abu Moughli  the Palestinian minister of health  abruptly cut off the payments to Israeli hospitals for treatment of Palestinian patients  forcing hundreds of Palestinians to halt their treatments and cutting them off from proper medical care  .'
p11
ss.