(dp1
S'input'
p2
(dp3
S'encoded'
p4
(lp5
I64
aI2179
aI43
aI63
aI3
aI4538
aI7
aI4434
aI7793
aI283
aI45
aI3586
aI417
aI316
aI577
asS'ori'
p6
S'This house believes that the sale of violent video games to minors should be banned'
p7
ssS'output'
p8
(dp9
g4
(lp10
I6807
aI7
aI8935
aI122
aI2778
aI24
aI40147
aI25329
aI16809
aI63765
asg6
S"Modeling of behavior was observed in Bandura's Bobo Doll experiments ."
p11
ss.