(dp1
S'input'
p2
(dp3
S'encoded'
p4
(lp5
I64
aI2179
aI394
aI2998
aI3
aI4360
aI7
aI3249
aI6804
aI24
aI3
aI102
asS'ori'
p6
S'This house would encourage the creation of private universities in the UK'
p7
ssS'output'
p8
(dp9
g4
(lp10
I397
aI3
aI6313
aI217
aI7
aI323
aI122
aI637
aI75
aI5
aI1445
aI1592
aI3
aI5668
aI16
aI2823
aI63765
asg6
S'During the Renaissance  most of Europe was still by and large following the feudal economic model .'
p11
ss.