(dp1
S'input'
p2
(dp3
S'encoded'
p4
(lp5
I64
aI2179
aI43
aI8629
aI116
aI3
aI117
aI998
asS'ori'
p6
S'This house believes atheism is the only way'
p7
ssS'output'
p8
(dp9
g4
(lp10
I8301
aI3367
aI63
aI64
aI7691
aI89
aI1387
aI24
aI25
aI22206
aI5
aI297
aI45
aI3411
aI3
aI26
aI45
aI9459
aI60
aI22207
aI3569
aI63765
asg6
S"Dawkins felt that this represented a gap in his oeuvre  and decided to write the book to coincide with Darwin's bicentennial year  ."
p11
ss.