(dp1
S'input'
p2
(dp3
S'encoded'
p4
(lp5
I64
aI2179
aI43
aI8629
aI116
aI3
aI117
aI998
asS'ori'
p6
S'This house believes atheism is the only way'
p7
ssS'output'
p8
(dp9
g4
(lp10
I7275
aI394
aI316
aI1796
aI1295
aI252
aI2382
aI73
aI1361
aI24
aI5480
asg6
S'humanity would be better off without religion or belief in God'
p11
ss.