(dp1
S'input'
p2
(dp3
S'encoded'
p4
(lp5
I64
aI2179
aI394
aI5284
aI150
aI3987
asS'ori'
p6
S'This house would reintroduce national service'
p7
ssS'output'
p8
(dp9
g4
(lp10
I1980
aI81
aI2933
aI2114
aI13086
aI463
aI153
aI10532
aI53
aI155
aI382
aI3072
aI75
aI6909
aI588
aI311
aI2114
aI4367
aI938
aI1931
aI19
aI271
aI650
aI6769
aI14
aI3
aI4363
aI3109
aI34
aI7075
aI34
aI89
aI959
aI73
aI3
aI2114
aI959
aI63765
asg6
S'Men who received induction notices could often manipulate where they were examined by showing up at induction centers far away from their actual residences on the mandated date for examination (either for a pre-induction physical or the induction physical examination) .'
p11
ss.