(dp1
S'input'
p2
(dp3
S'encoded'
p4
(lp5
I64
aI2179
aI43
aI63
aI2659
aI417
aI1690
aI3
aI12048
aI7
aI19084
asS'ori'
p6
S'This house believes that Israel should lift the blockade of Gaza'
p7
ssS'output'
p8
(dp9
g4
(lp10
I25524
aI3402
aI63
aI732
aI2198
aI7
aI2659
aI116
aI45
aI316
aI4920
aI41
aI11095
aI7
aI223
aI63765
asg6
S'Sheehan emphasized that her criticism of Israel is "not to be construed as hatred of all Jews"  .'
p11
ss.