(dp1
S'input'
p2
(dp3
S'encoded'
p4
(lp5
I64
aI2179
aI43
aI8629
aI116
aI3
aI117
aI998
asS'ori'
p6
S'This house believes atheism is the only way'
p7
ssS'output'
p8
(dp9
g4
(lp10
I8610
aI7515
aI3
aI8566
aI41
aI4719
aI92
aI417
aI316
aI3599
aI24
aI3
aI4659
aI7
aI3
aI413
aI155
aI382
aI441
aI5
aI4186
aI24
aI3
aI5958
aI7
aI8
aI8613
aI63765
asg6
S'Harries sees the scriptures as texts which should be read in the context of the time they were written  and interpreted in the light of modern insights .'
p11
ss.