(dp1
S'input'
p2
(dp3
S'encoded'
p4
(lp5
I64
aI2179
aI43
aI63
aI134
aI116
aI400
aI21
aI34
aI3
aI260
aI45
aI3439
aI57
aI7
aI2381
asS'ori'
p6
S'This house believes that it is sometimes right for the government to restrict freedom of speech'
p7
ssS'output'
p8
(dp9
g4
(lp10
I75
aI3
aI398
aI3
aI2096
aI7
aI57
aI7
aI2381
aI122
aI773
aI1729
aI75
aI8237
aI223
aI289
aI3
aI368
aI285
aI946
aI75
aI4169
aI43543
aI675
aI22616
aI47489
aI18560
aI5
aI26375
aI44911
aI47683
aI3
aI2096
aI2586
aI45
aI316
aI5427
aI24
aI22
aI3168
aI15
aI24
aI3168
aI41
aI261
aI41
aI3
aI237
aI10
aI9902
aI24
aI2231
aI13807
aI4163
aI57
aI7
aI2381
aI122
aI3
aI93
aI3435
aI2394
aI24
aI397
aI3
aI33418
aI7
aI24066
aI13124
aI43554
aI63765
asg6
S"By the 18th century the idea of freedom of speech was being discussed by thinkers all over the Western world  especially by French philosophes like Denis Diderot  Baron d'Holbach and Claude Adrien Helvetius The idea began to be incorporated in political theory both in theory as well as practice; the first state edict in history proclaiming complete freedom of speech was the one issued December 4 1770 in Denmark-Norway during the regency of Johann Friedrich Struensee  ."
p11
ss.