(dp1
S'input'
p2
(dp3
S'encoded'
p4
(lp5
I64
aI2179
aI43
aI63
aI3
aI21
aI45
aI12715
aI417
aI99
aI316
aI2897
asS'ori'
p6
S'This house believes that the right to asylum should not be absolute'
p7
ssS'output'
p8
(dp9
g4
(lp10
I397
aI3
aI639
aI7
aI3
aI49
aI9696
aI382
aI860
aI75
aI78
aI4651
aI2192
aI226
aI49
aI382
aI860
aI75
aI78
aI60
aI89
aI2135
aI4304
aI63765
asg6
S'During the period 1997-2001  25% of the almost 1 520 000 offences were committed by people born abroad  while almost 20% were committed by Swedish-born people with a foreign background .'
p11
ss.