(dp1
S'input'
p2
(dp3
S'encoded'
p4
(lp5
I64
aI2179
aI394
aI4325
aI2042
aI270
aI89
aI11605
aI3324
asS'ori'
p6
S'This house would fund education using a voucher scheme'
p7
ssS'output'
p8
(dp9
g4
(lp10
I2714
aI2969
aI45
aI5878
aI34
aI3
aI4262
aI2438
aI226
aI1804
aI462
aI3
aI2154
aI8872
aI75
aI8817
aI225
aI2158
aI63765
asg6
S'Obama plans to pay for the tax changes while bringing down the budget deficit by cutting unnecessary spending  .'
p11
ss.