(dp1
S'input'
p2
(dp3
S'encoded'
p4
(lp5
I64
aI2179
aI43
aI63
aI2659
aI417
aI1690
aI3
aI12048
aI7
aI19084
asS'ori'
p6
S'This house believes that Israel should lift the blockade of Gaza'
p7
ssS'output'
p8
(dp9
g4
(lp10
I42
aI122
aI89
aI5378
aI7
aI3
aI25023
aI171
aI2623
aI3
aI6658
aI171
aI92
aI42
aI440
aI2385
aI353
aI487
aI134
aI122
aI577
aI34
aI211
aI25024
aI63765
asg6
S'He was a politician of the Felicity Party  previously the Virtue Party  which he had helped found  until it was banned for its Islamism .'
p11
ss.