(dp1
S'input'
p2
(dp3
S'encoded'
p4
(lp5
I64
aI2179
aI43
aI63
aI2157
aI2565
aI493
aI19084
aI382
aI4850
asS'ori'
p6
S"This house believes that Israel's 2008-2009 military operations against Gaza were justified"
p7
ssS'output'
p8
(dp9
g4
(lp10
I3
aI3293
aI420
aI19389
aI2244
aI182
aI25
aI284
aI3446
aI3293
asg6
S'The views Mr Goldstone expressed are his own personal views ."'
p11
ss.