(dp1
S'input'
p2
(dp3
S'encoded'
p4
(lp5
I64
aI2179
aI43
aI63
aI3
aI4990
aI4991
aI116
aI4850
aI24
aI12166
aI3
aI475
aI7
aI3532
aI3290
aI7
aI4714
asS'ori'
p6
S'This house believes that the Catholic Church is justified in forbidding the use of barrier methods of contraception'
p7
ssS'output'
p8
(dp9
g4
(lp10
I3
aI3107
aI3609
aI116
aI99
aI45
aI316
aI2856
aI291
aI100
aI7371
aI2339
aI45
aI3
aI7031
aI3539
aI7
aI580
aI5
aI100
aI3284
aI2987
aI63765
asg6
S'The true opposition is not to be sought between some material conformity to the physiological processes of nature and some artificial intervention .'
p11
ss.