(dp1
S'input'
p2
(dp3
S'encoded'
p4
(lp5
I64
aI2179
aI43
aI63
aI11083
aI10046
aI417
aI316
aI89
aI3135
aI4603
asS'ori'
p6
S'This house believes that Holocaust denial should be a criminal offence'
p7
ssS'output'
p8
(dp9
g4
(lp10
I366
aI3
aI7556
aI42582
aI4001
aI3
aI10597
aI63
aI2483
aI500
aI99
aI358
aI3
aI3341
aI45
aI11
aI13937
aI579
aI25
aI3777
aI63765
asg6
S'After the sentencing  Liebtreu told the audience that "The court did not consider the defendant to have genuinely changed his mind .'
p11
ss.