(dp1
S'input'
p2
(dp3
S'encoded'
p4
(lp5
I64
aI2179
aI394
aI60
aI23587
asS'ori'
p6
S'This house would re-engage with Myanmar'
p7
ssS'output'
p8
(dp9
g4
(lp10
I298
aI273
aI182
aI443
aI136
aI6002
aI155
aI6729
aI620
aI3
aI13005
aI311
aI4150
aI5
aI2011
aI3
aI78
asg6
S'When there are no more witnesses  they drive through the suburbs at night and kill the people ."'
p11
ss.