(dp1
S'input'
p2
(dp3
S'encoded'
p4
(lp5
I64
aI2179
aI394
aI16642
aI1376
aI5269
asS'ori'
p6
S'This house would subsidize poor communities'
p7
ssS'output'
p8
(dp9
g4
(lp10
I2978
aI986
aI17
aI4416
aI4300
aI3
aI1376
aI5
aI3716
aI3862
aI24
aI979
aI7757
aI53
aI155
aI6750
aI2042
aI5
aI3
aI4358
aI63
aI182
aI1796
aI1295
aI182
aI606
aI24
aI1740
aI7757
aI53
aI155
aI11
aI725
aI7631
aI34
aI1350
aI63765
asg6
S'Tracking separates social classes putting the poor and minority children in lower tracks where they receive second-rate education  and the students that are better off are placed in upper tracks where they have many opportunities for success .'
p11
ss.