(dp1
S'input'
p2
(dp3
S'encoded'
p4
(lp5
I64
aI2179
aI43
aI63
aI323
aI417
aI10009
aI211
aI9035
aI249
aI45
aI3426
aI211
aI2144
aI595
aI17
aI96
asS'ori'
p6
S'This house believes that Europe should weaken its austerity measures to guarantee its citizens greater social support'
p7
ssS'output'
p8
(dp9
g4
(lp10
I206
aI440
aI3
aI8921
aI9103
aI779
aI1706
aI9104
aI710
aI45
aI671
aI5
aI3
aI2038
aI9128
aI14
aI6085
aI260
aI8947
aI237
aI781
aI2363
aI3
aI6085
aI260
aI7266
aI14
aI2959
aI878
aI2351
aI115
aI63765
asg6
S"Having had the credit rating agencies further downgraded Greece's ability to achieve and the risk premiums on long-term Greek government bonds first record levels  the Greek government requested on 23 April 2010 official financial assistance ."
p11
ss.