(dp1
S'input'
p2
(dp3
S'encoded'
p4
(lp5
I64
aI2179
aI394
aI117
aI7428
aI21151
aI34
aI11389
aI2042
aI24
aI4364
asS'ori'
p6
S'This house would only teach abstinence for sex education in schools'
p7
ssS'output'
p8
(dp9
g4
(lp10
I233
aI45
aI3
aI2145
aI63765
aI4367
aI34
aI4368
aI708
aI5
aI2466
aI24
aI7
aI2145
aI63765
aI177
aI2240
aI4358
aI5047
aI206
aI1978
aI440
aI8803
aI2189
aI63765
asg6
S'According to the U .S . Centers for Disease Control and Prevention  in 2007 47 .8% of U .S . high school students reported having ever had sexual intercourse .'
p11
ss.