(dp1
S'input'
p2
(dp3
S'encoded'
p4
(lp5
I64
aI2179
aI43
aI17
aI4941
aI857
aI3211
asS'ori'
p6
S'This house believes social deprivation causes crime'
p7
ssS'output'
p8
(dp9
g4
(lp10
I100
aI17552
aI34
aI6396
aI13834
aI20832
aI11
aI1966
aI63
aI1353
aI3802
aI24
aI16
aI3064
aI182
aI136
aI1185
aI138
aI2897
aI4941
aI5
aI63
aI134
aI116
aI136
aI4229
aI24
aI9364
aI2445
aI5229
aI7
aI3269
aI63765
asg6
S'Some sociologists  for instance Karl Polanyi  have argued that relative differences in economic wealth are more important than absolute deprivation  and that it is more significant in determining human quality of life  .'
p11
ss.