(dp1
S'input'
p2
(dp3
S'encoded'
p4
(lp5
I64
aI2179
aI43
aI63
aI3
aI28431
aI7
aI2157
aI4624
aI75
aI39939
aI27257
aI122
aI4850
asS'ori'
p6
S'This house believes that the leaking of military documents by Anat Kamm was justified'
p7
ssS'output'
p8
(dp9
g4
(lp10
I1381
aI3
aI8298
aI2498
aI7
aI3
aI414
aI116
aI1032
aI16919
aI60
aI134
aI55
aI643
aI89
aI2498
aI16919
aI60
aI24
aI3
aI4659
aI7
aI4846
aI5224
aI63765
asg6
S'Although the root sense of the word "classified" is simply synonymous with "categorized"  it has developed a sense synonymous with "censored" in the context of classified information .'
p11
ss.