(dp1
S'input'
p2
(dp3
S'encoded'
p4
(lp5
I64
aI2179
aI43
aI8629
aI116
aI3
aI117
aI998
asS'ori'
p6
S'This house believes atheism is the only way'
p7
ssS'output'
p8
(dp9
g4
(lp10
I565
aI34
aI3
aI5023
aI6773
aI63
aI5480
aI49
aI4807
aI98
aI99
aI4532
aI116
aI3
aI21899
aI63765
asg6
S'Dawkins\'s name for the statistical demonstration that God almost certainly does not exist is the "Ultimate Boeing 747 gambit" .'
p11
ss.