(dp1
S'input'
p2
(dp3
S'encoded'
p4
(lp5
I64
aI2179
aI43
aI17
aI4941
aI857
aI3211
asS'ori'
p6
S'This house believes social deprivation causes crime'
p7
ssS'output'
p8
(dp9
g4
(lp10
I273
aI182
aI11825
aI63
aI1021
aI45
aI3
aI859
aI2838
aI24
aI3112
aI2410
aI24
aI2318
aI2087
aI2770
aI8677
aI88
aI507
aI45
aI9503
aI45
aI2678
aI41
aI89
aI2878
aI7
aI3104
aI63765
asg6
S'There are suggestions that due to the continuing decline in opium production in South East Asia  traffickers may begin to look to Afghanistan as a source of heroin .'
p11
ss.