(dp1
S'input'
p2
(dp3
S'encoded'
p4
(lp5
I64
aI2179
aI394
aI2773
aI12505
asS'ori'
p6
S'This house would embrace multiculturalism'
p7
ssS'output'
p8
(dp9
g4
(lp10
I35989
aI63
aI89
aI3716
aI94
aI55
aI863
aI4871
aI4933
aI5
aI10017
aI959
aI2637
aI18439
aI63
aI1629
aI86
aI1521
aI5
aI92
aI182
aI3027
aI75
aI3
aI941
aI94
aI89
aI2622
aI2498
aI7
aI4013
aI3914
aI5
aI279
aI28738
aI8051
aI2622
aI442
aI1191
aI81
aI6175
aI5
aI81
aI98
aI99
aI1358
aI3716
aI2554
aI5
aI1168
aI45
aI9701
aI545
aI3
aI94
aI63765
asg6
S'Feagin (1984)states that a minority group has five characteristics: (1) suffering discrimination and subordination  (2) physical and/or cultural traits that set them apart  and which are disapproved by the dominant group  (3) a shared sense of collective identity and common burdens  (4) socially shared rules about who belongs and who does not determine minority status  and (5) tendency to marry within the group .'
p11
ss.