(dp1
S'input'
p2
(dp3
S'encoded'
p4
(lp5
I64
aI2179
aI394
aI117
aI7428
aI21151
aI34
aI11389
aI2042
aI24
aI4364
asS'ori'
p6
S'This house would only teach abstinence for sex education in schools'
p7
ssS'output'
p8
(dp9
g4
(lp10
I3
aI8828
aI7
aI9917
aI1028
aI8459
aI742
aI1191
aI976
aI17080
aI24
aI25
aI5939
aI64
aI116
aI443
aI593
aI1191
aI16192
aI131
aI63
aI5240
aI3211
aI8281
aI182
aI2686
aI9730
aI24
aI3139
aI3495
aI3102
aI4964
aI5
aI248
aI3135
aI63765
asg6
S'The mayor of Amsterdam  Job Cohen said about legal prostitution in his city: "We\'ve realized this is no longer about small-scale entrepreneurs  but that big crime organisations are involved here in trafficking women  drugs  killings and other criminal activities"  .'
p11
ss.