(dp1
S'input'
p2
(dp3
S'encoded'
p4
(lp5
I64
aI2179
aI43
aI8629
aI116
aI3
aI117
aI998
asS'ori'
p6
S'This house believes atheism is the only way'
p7
ssS'output'
p8
(dp9
g4
(lp10
I24
aI3
aI398
aI18545
aI4329
aI45
aI3
aI2282
aI7
aI3
aI2497
aI45
aI6455
aI45
aI18542
aI24
aI223
aI6530
aI114
aI134
aI937
aI279
aI24
aI368
aI2022
aI45
aI3553
aI8629
aI41
aI1032
aI24
aI63765
asg6
S'In the 20th century  globalization contributed to the expansion of the term to refer to disbelief in all deities  though it remains common in Western society to describe atheism as simply "disbelief in God"  .'
p11
ss.