(dp1
S'input'
p2
(dp3
S'encoded'
p4
(lp5
I64
aI2179
aI43
aI63
aI3376
aI4938
aI417
aI316
aI3537
asS'ori'
p6
S'This house believes that endangered species should be protected'
p7
ssS'output'
p8
(dp9
g4
(lp10
I2857
aI2635
aI158
aI1495
aI5
aI3964
aI139
aI174
aI316
aI913
aI397
aI5166
aI7992
aI2645
aI45
aI7798
aI63765
asg6
S'Vital resources including water and food can also be limited during habitat degradation  leading to extinction .'
p11
ss.