(dp1
S'input'
p2
(dp3
S'encoded'
p4
(lp5
I64
aI2179
aI43
aI24
aI3
aI475
aI7
aI12436
aI3364
asS'ori'
p6
S'This house believes in the use of affirmative action'
p7
ssS'output'
p8
(dp9
g4
(lp10
I64
aI7074
aI83
aI1074
aI2170
aI5
aI40827
aI34
aI12402
aI838
aI11527
aI7
aI3495
aI5
aI2789
aI7
aI10250
aI5275
aI24
aI5896
aI717
aI14
aI51
aI3068
aI7
aI3
aI912
aI6194
aI2449
aI45
aI3
aI3891
aI24
aI3
aI448
aI203
aI882
aI7
aI3495
aI5
aI2789
aI7
aI10250
aI5275
aI63765
asg6
S'This plan must include goals and timetables for achieving full utilization of women and members of racial minorities  in quotas based on an analysis of the current workforce compared to the availability in the general labor pool of women and members of racial minorities .'
p11
ss.