(dp1
S'input'
p2
(dp3
S'encoded'
p4
(lp5
I64
aI2179
aI394
aI5284
aI150
aI3987
asS'ori'
p6
S'This house would reintroduce national service'
p7
ssS'output'
p8
(dp9
g4
(lp10
I14
aI1872
aI2920
aI23419
aI63765
aI27890
aI4001
aI2221
aI34
aI1928
aI460
aI555
aI292
aI73
aI869
aI136
aI382
aI27914
aI736
aI27915
aI63765
asg6
S'On numerous occasions Gen . Hershey told Congress for every man drafted  three or four more were scared into volunteering  .'
p11
ss.