(dp1
S'input'
p2
(dp3
S'encoded'
p4
(lp5
I64
aI2179
aI394
aI2017
aI628
asS'ori'
p6
S'This house would ban gambling'
p7
ssS'output'
p8
(dp9
g4
(lp10
I132
aI7761
aI1358
aI40
aI165
aI7619
aI3
aI187
aI47
aI3322
aI19
aI3
aI7700
aI7604
aI63765
asg6
S'These Tribal-State compacts determine how much revenue the states will obtain from the Indian casinos  .'
p11
ss.