(dp1
S'input'
p2
(dp3
S'encoded'
p4
(lp5
I64
aI2179
aI43
aI8629
aI116
aI3
aI117
aI998
asS'ori'
p6
S'This house believes atheism is the only way'
p7
ssS'output'
p8
(dp9
g4
(lp10
I7829
aI5304
aI7
aI3
aI3782
aI34
aI1343
aI3
aI103
aI63
aI10805
aI55
aI89
aI7997
aI782
aI14
aI80
aI55
aI12
aI4068
aI5
aI8361
aI63765
asg6
S'evolution  origin of the universe  miracles); for example  the claim that prayer has a beneficial effect on others has been tested and disproved  .'
p11
ss.