(dp1
S'input'
p2
(dp3
S'encoded'
p4
(lp5
I64
aI2179
aI394
aI5370
aI3
aI5286
asS'ori'
p6
S'This house would abolish the monarchy'
p7
ssS'output'
p8
(dp9
g4
(lp10
I3
aI2546
aI171
aI60
aI51
aI878
aI2136
aI7
aI5285
aI116
aI923
aI3
aI14137
aI171
aI7
aI180
aI5
aI499
aI60
aI93
aI20532
aI24
aI3
aI2179
aI7
aI4683
aI63765
asg6
S'The largest party with an official policy of republicanism is currently the Green Party of England and Wales  with one MP in the House of Commons .'
p11
ss.