(dp1
S'input'
p2
(dp3
S'encoded'
p4
(lp5
I64
aI2179
aI43
aI3
aI626
aI187
aI116
aI1989
aI34
aI3102
aI2223
asS'ori'
p6
S"This house believes the United States is responsible for Mexico's drugs war"
p7
ssS'output'
p8
(dp9
g4
(lp10
I2256
aI73
aI2361
aI291
aI2613
aI8679
aI11
aI12
aI8117
aI45
aI316
aI18201
aI11553
aI5
aI1788
aI63765
asg6
S'Alliances or agreements between drug cartels have been shown to be fragile  tense and temporary .'
p11
ss.