(dp1
S'input'
p2
(dp3
S'encoded'
p4
(lp5
I64
aI2179
aI43
aI223
aI2138
aI11
aI89
aI21
aI45
aI2185
aI372
asS'ori'
p6
S'This house believes all nations have a right to nuclear weapons'
p7
ssS'output'
p8
(dp9
g4
(lp10
I2450
aI2661
aI5
aI2659
aI11
aI12
aI2203
aI24
aI1809
aI7
aI3
aI282
aI3081
aI63765
asg6
S'India  Pakistan and Israel have been "threshold" countries in terms of the international non-proliferation regime .'
p11
ss.