(dp1
S'input'
p2
(dp3
S'encoded'
p4
(lp5
I64
aI2179
aI43
aI63
aI134
aI116
aI400
aI21
aI34
aI3
aI260
aI45
aI3439
aI57
aI7
aI2381
asS'ori'
p6
S'This house believes that it is sometimes right for the government to restrict freedom of speech'
p7
ssS'output'
p8
(dp9
g4
(lp10
I57372
aI11343
aI7
aI4393
aI24
aI3
aI2096
aI2367
aI34
aI89
aI2180
aI45
aI7981
aI89
aI2029
aI7
aI2446
asg6
S'Elbridge Gerry of Massachusetts "concurred in the idea & moved for a Committee to prepare a Bill of Rights ."'
p11
ss.