(dp1
S'input'
p2
(dp3
S'encoded'
p4
(lp5
I64
aI2179
aI43
aI8629
aI116
aI3
aI117
aI998
asS'ori'
p6
S'This house believes atheism is the only way'
p7
ssS'output'
p8
(dp9
g4
(lp10
I35
aI2511
aI11
aI89
aI238
aI24
aI271
aI155
aI3553
aI3
aI4658
aI7
aI6954
aI857
aI2231
aI4185
aI63765
asg6
S'Natural laws have a place in their theology; they describe the effects of so-called secondary causes (see History section  below) .'
p11
ss.