(dp1
S'input'
p2
(dp3
S'encoded'
p4
(lp5
I64
aI2179
aI394
aI2741
aI3
aI1560
aI6025
aI2784
asS'ori'
p6
S'This house would pass the American Jobs Act'
p7
ssS'output'
p8
(dp9
g4
(lp10
I5
aI7
aI2346
aI100
aI78
aI1032
aI6644
aI99
aI45
aI79
aI1162
aI45
aI316
aI5966
aI14
aI80
aI34
aI37236
aI63765
asg6
S'And of course some people simply elect not to work  preferring to be dependent on others for sustenance .'
p11
ss.