(dp1
S'input'
p2
(dp3
S'encoded'
p4
(lp5
I64
aI2179
aI394
aI5370
aI7146
aI4585
aI2446
asS'ori'
p6
S'This house would abolish intellectual property rights'
p7
ssS'output'
p8
(dp9
g4
(lp10
I3
aI5323
aI12407
aI291
aI7208
aI5
aI4640
aI5
aI187
aI63
aI12717
aI236
aI117
aI3
aI3851
aI4640
aI7
aI7208
aI5
aI99
aI3
aI7208
aI777
aI63765
asg6
S'The idea-expression divide differentiates between ideas and expression  and states that copyright protects only the original expression of ideas  and not the ideas themselves .'
p11
ss.