(dp1
S'input'
p2
(dp3
S'encoded'
p4
(lp5
I64
aI2179
aI394
aI1499
aI177
aI1819
aI34
aI160
asS'ori'
p6
S'This house would build high rises for housing'
p7
ssS'output'
p8
(dp9
g4
(lp10
I53
aI748
aI64
aI116
aI3
aI3476
aI5433
aI63765
asg6
S"Where possible  this is the authors' preferred option ."
p11
ss.