(dp1
S'input'
p2
(dp3
S'encoded'
p4
(lp5
I64
aI2179
aI394
aI3830
aI3
aI475
aI7
aI9441
aI13132
aI3102
aI24
aI276
aI381
asS'ori'
p6
S'This house would permit the use of performance enhancing drugs in professional sports'
p7
ssS'output'
p8
(dp9
g4
(lp10
I5
aI134
aI122
aI3818
aI233
aI45
aI89
aI150
aI883
aI9359
aI60
aI3
aI3709
aI7
aI50186
aI63765
asg6
S'And it was done  according to a national newspaper investigation  with the help of Benzedrine .'
p11
ss.