(dp1
S'input'
p2
(dp3
S'encoded'
p4
(lp5
I64
aI2179
aI394
aI5370
aI3
aI5286
asS'ori'
p6
S'This house would abolish the monarchy'
p7
ssS'output'
p8
(dp9
g4
(lp10
I3
aI2549
aI122
aI89
aI8418
aI639
aI24
aI3
aI2231
aI7
aI31481
aI298
aI3
aI2730
aI10878
aI60
aI3034
aI2265
aI5
aI2856
aI2157
aI1795
aI19
aI325
aI326
aI63765
asg6
S'The Anglo-Corsican Kingdom was a brief period in the history of Corsica (17941796) when the island broke with Revolutionary France and sought military protection from Great Britain .'
p11
ss.