(dp1
S'input'
p2
(dp3
S'encoded'
p4
(lp5
I64
aI2179
aI43
aI63
aI2157
aI2565
aI493
aI19084
aI382
aI4850
asS'ori'
p6
S"This house believes that Israel's 2008-2009 military operations against Gaza were justified"
p7
ssS'output'
p8
(dp9
g4
(lp10
I24
aI3
aI3569
aI751
aI3
aI2223
aI16619
aI440
aI17377
aI289
aI11994
aI311
aI19359
aI19084
aI9482
aI3946
aI63765
aI63
aI696
aI3722
aI45
aI149
aI138
aI24
aI3
aI767
aI3131
aI1592
aI3
aI2513
asg6
S'In the year before the war  Hamas had fired over 3 300 rockets at Israels Gaza periphery towns . That number dropped to less than 300 in the ten months following the conflict '
p11
ss.