(dp1
S'input'
p2
(dp3
S'encoded'
p4
(lp5
I64
aI2179
aI43
aI223
aI2138
aI11
aI89
aI21
aI45
aI2185
aI372
asS'ori'
p6
S'This house believes all nations have a right to nuclear weapons'
p7
ssS'output'
p8
(dp9
g4
(lp10
I500
aI99
aI2222
aI755
aI134
aI43
aI3
aI11558
aI122
aI212
aI5
aI1565
aI12041
aI779
aI174
aI500
aI99
aI1985
aI351
aI33583
aI45
aI3
aI11558
aI63765
asg6
S'did not declare whether it believes the document was real  and European spy agencies also did not give any authentication to the document  .'
p11
ss.