(dp1
S'input'
p2
(dp3
S'encoded'
p4
(lp5
I64
aI2179
aI394
aI5370
aI223
aI4013
aI10440
aI2446
aI4881
aI75
aI14482
aI11004
asS'ori'
p6
S'This house would abolish all collective bargaining rights claimed by trades unions'
p7
ssS'output'
p8
(dp9
g4
(lp10
I226
aI3
aI116
aI3
aI8
aI9368
aI7
aI3
aI23843
aI134
aI116
aI165
aI136
aI820
aI45
aI3834
aI75
aI3495
aI5307
aI5
aI384
aI17853
aI63765
asg6
S'" While the AFL-CIO is the modern version of the AFL  it is much more open to membership by women  immigrants  and different nationalities .'
p11
ss.