(dp1
S'input'
p2
(dp3
S'encoded'
p4
(lp5
I64
aI2179
aI394
aI117
aI7428
aI21151
aI34
aI11389
aI2042
aI24
aI4364
asS'ori'
p6
S'This house would only teach abstinence for sex education in schools'
p7
ssS'output'
p8
(dp9
g4
(lp10
I3
aI905
aI174
aI4673
aI248
aI2992
aI45
aI342
aI63
aI206
aI11389
aI113
aI89
aI1896
aI1727
aI89
aI3427
aI88
aI316
aI566
aI60
aI3
aI3006
aI2498
aI7
aI1016
aI2038
aI7
aI3780
aI444
aI852
aI5
aI164
aI1016
aI2356
aI3
aI335
aI73
aI19799
aI7
aI149
aI9983
aI44545
aI5
aI1796
aI25216
aI1796
aI5
aI3006
aI34792
aI6424
aI63765
asg6
S'The report also cited other studies to show that having sex even a few times a week may be associated with the following: improved sense of smell; reduced risk of heart disease; weight loss and overall fitness; reduced depression (in women); the relief or lessening of pain; less frequent colds and flu; better bladder control; better teeth; and improved prostate function .'
p11
ss.