(dp1
S'input'
p2
(dp3
S'encoded'
p4
(lp5
I64
aI2179
aI43
aI3
aI626
aI187
aI116
aI1989
aI34
aI3102
aI2223
asS'ori'
p6
S"This house believes the United States is responsible for Mexico's drugs war"
p7
ssS'output'
p8
(dp9
g4
(lp10
I3
aI12611
aI7
aI4876
aI1374
aI1372
aI958
aI138
aI28391
aI86
aI5
aI18314
aI3
aI22866
aI2425
aI45
aI4573
aI545
aI3
aI4336
aI63765
asg6
S'The tactic of letting guns walk  rather than interdicting them and arresting the buyers  led to controversy within the ATF  .'
p11
ss.