(dp1
S'input'
p2
(dp3
S'encoded'
p4
(lp5
I64
aI2179
aI394
aI1499
aI177
aI1819
aI34
aI160
asS'ori'
p6
S'This house would build high rises for housing'
p7
ssS'output'
p8
(dp9
g4
(lp10
I1021
aI45
aI17
aI251
aI545
aI132
aI1693
aI3
aI5451
aI20
aI5
aI3
aI2176
aI7
aI160
aI427
aI10293
aI5
aI35842
aI382
aI8196
aI45
aI982
aI112
aI5
aI15871
aI5743
aI63765
asg6
S'Due to social problems within these blocks the Navy left and the Department of Housing took charge and flats were let to low income and immigrant families .'
p11
ss.