(dp1
S'input'
p2
(dp3
S'encoded'
p4
(lp5
I64
aI2179
aI43
aI63
aI3376
aI4938
aI417
aI316
aI3537
asS'ori'
p6
S'This house believes that endangered species should be protected'
p7
ssS'output'
p8
(dp9
g4
(lp10
I24
aI200
aI3
aI6987
aI251
aI417
aI316
aI9450
aI8171
aI53
aI748
aI958
aI138
aI14498
aI86
aI45
aI248
aI6401
aI6776
aI73
aI4849
aI3994
aI63765
asg6
S'In reducing the footprint  problems should be solved locally where possible  rather than shifting them to other geographic locations or future generations .'
p11
ss.