(dp1
S'input'
p2
(dp3
S'encoded'
p4
(lp5
I64
aI2179
aI43
aI24
aI3
aI475
aI7
aI12436
aI3364
asS'ori'
p6
S'This house believes in the use of affirmative action'
p7
ssS'output'
p8
(dp9
g4
(lp10
I4408
aI4290
aI11107
aI25530
aI7
aI2301
aI3382
aI493
aI3
aI2029
aI18494
aI2505
aI4588
asg6
S'Republican senator Barry Goldwater of Arizona voted against the bill  remarking  "You can\'t legislate morality ."'
p11
ss.