(dp1
S'input'
p2
(dp3
S'encoded'
p4
(lp5
I64
aI2179
aI394
aI60
aI23587
asS'ori'
p6
S'This house would re-engage with Myanmar'
p7
ssS'output'
p8
(dp9
g4
(lp10
I89
aI667
aI2475
aI7
aI3
aI216
aI2306
aI7
aI3
aI2131
aI7
aI3118
aI122
aI1515
aI24
aI487
aI3
aI2696
aI122
aI743
aI41
aI89
aI145
aI60
aI3
aI448
aI5
aI248
aI2157
aI3243
aI307
aI5
aI2528
aI620
aI3
aI3118
aI216
aI6856
aI171
aI63765
asg6
S'A new constitution of the Socialist Republic of the Union of Burma was adopted in 1974  until 1988  the country was ruled as a one-party system  with the General and other military officers resigning and ruling through the Burma Socialist Programme Party (BSPP)  .'
p11
ss.