(dp1
S'input'
p2
(dp3
S'encoded'
p4
(lp5
I64
aI2179
aI394
aI2017
aI223
aI9058
aI23653
asS'ori'
p6
S'This house would ban all unsustainable logging'
p7
ssS'output'
p8
(dp9
g4
(lp10
I217
aI7808
aI18865
aI182
aI4648
aI589
aI73
aI5156
aI3
aI33751
aI3082
aI206
aI61
aI116
aI263
aI51
aI23585
aI2456
aI2238
aI75
aI292
aI281
aI23570
aI6929
aI22886
aI5
aI5158
aI5159
aI1394
aI248
aI10564
aI63
aI782
aI7808
aI18865
aI182
aI6695
aI6696
aI17184
aI16423
aI11516
aI5
aI6699
aI3891
aI63765
asg6
S'Most tropical rainforests are located around or near the equator  therefore having what is called an equatorial climate characterized by three major climatic parameters: temperature  rainfall  and dry season intensity Other parameters that effect tropical rainforests are carbon dioxide concentrations  solar radiation  and nitrogen availability .'
p11
ss.