(dp1
S'input'
p2
(dp3
S'encoded'
p4
(lp5
I64
aI2179
aI394
aI4325
aI2042
aI270
aI89
aI11605
aI3324
asS'ori'
p6
S'This house would fund education using a voucher scheme'
p7
ssS'output'
p8
(dp9
g4
(lp10
I2625
aI34
aI913
aI260
aI4439
aI2126
aI41
aI89
aI4534
aI2923
aI860
aI45
aI1395
aI3157
aI3249
aI4585
aI2446
aI5
aI2886
aI1560
aI9934
aI63765
asg6
S'Americans for Limited Government (ALG) describes itself as a non-partisan  nationwide network committed to advancing free-market reforms  private property rights and core American liberties  .'
p11
ss.