(dp1
S'input'
p2
(dp3
S'encoded'
p4
(lp5
I64
aI2179
aI43
aI24
aI3
aI475
aI7
aI12436
aI3364
asS'ori'
p6
S'This house believes in the use of affirmative action'
p7
ssS'output'
p8
(dp9
g4
(lp10
I378
aI100
aI3920
aI2625
aI6016
aI73
aI382
aI547
aI45
aI2455
aI5
aI3629
aI6828
aI44434
aI155
aI382
aI10103
aI45
aI12395
aI2825
aI24
aI271
aI33378
aI9711
aI63765
asg6
S'However  some Native Americans chose or were allowed to remain and avoided removal whereafter they were subjected to racist institutions in their ancestral homeland .'
p11
ss.