(dp1
S'input'
p2
(dp3
S'encoded'
p4
(lp5
I64
aI2179
aI43
aI24
aI3
aI475
aI7
aI12436
aI3364
asS'ori'
p6
S'This house believes in the use of affirmative action'
p7
ssS'output'
p8
(dp9
g4
(lp10
I366
aI873
aI7
aI27941
aI5525
aI2063
aI55315
aI1147
aI55321
aI12227
aI12228
aI5
aI1266
aI24069
aI451
aI89
aI1494
aI2029
aI63
aI155
aI7304
aI394
aI7397
aI868
aI4408
aI1954
aI5561
aI45
aI312
aI3
aI27941
aI63765
asg6
S'After 54 days of filibuster  Senators Everett Dirksen (R-IL)  Thomas Kuchel (R-CA)  Hubert Humphrey (D-MN)  and Mike Mansfield (D-MT) introduced a substitute bill that they hoped would attract enough Republican swing votes to end the filibuster .'
p11
ss.