(dp1
S'input'
p2
(dp3
S'encoded'
p4
(lp5
I64
aI2179
aI43
aI63
aI134
aI116
aI400
aI21
aI34
aI3
aI260
aI45
aI3439
aI57
aI7
aI2381
asS'ori'
p6
S'This house believes that it is sometimes right for the government to restrict freedom of speech'
p7
ssS'output'
p8
(dp9
g4
(lp10
I3
aI32979
aI55
aI174
aI12
aI4673
aI41
aI8799
aI45
aI13372
aI1517
aI159
aI41
aI4358
aI7
aI32983
aI24
aI89
aI6396
aI2999
aI32984
aI5
aI4358
aI311
aI5
aI2702
aI8145
aI159
aI41
aI3
aI3140
aI717
aI11730
aI3194
aI81
aI55
aI3350
aI45
aI10686
aI5224
aI1191
aI27688
aI42
aI3312
aI24
aI51
aI31282
aI3324
aI604
aI7
aI25
aI1411
aI1191
aI773
aI9249
aI459
aI3
aI32979
aI298
aI42
aI9231
aI45
aI3
aI626
aI187
aI63765
asg6
S'The DMCA has also been cited as chilling to non-criminal inclined users  such as students of cryptanalysis (including  in a well-known instance  Professor Felten and students at Princeton)  and security consultants such as the Netherlands based Niels Ferguson  who has declined to publish information about vulnerabilities he discovered in an Intel secure-computing scheme because of his concern about being arrested under the DMCA when he travels to the United States .'
p11
ss.