(dp1
S'input'
p2
(dp3
S'encoded'
p4
(lp5
I64
aI2179
aI394
aI2017
aI223
aI9058
aI23653
asS'ori'
p6
S'This house would ban all unsustainable logging'
p7
ssS'output'
p8
(dp9
g4
(lp10
I3718
aI23635
aI182
aI46919
aI5545
aI693
aI47008
aI2146
aI47007
aI5
aI36839
aI378
aI182
aI261
aI19114
aI2449
aI45
aI47006
aI63765
asg6
S'Similarly  oxisols are acidic  old  typically reddish  highly weathered and leached  however are well drained compared to ultisols .'
p11
ss.