(dp1
S'input'
p2
(dp3
S'encoded'
p4
(lp5
I64
aI2179
aI43
aI63
aI134
aI116
aI400
aI21
aI34
aI3
aI260
aI45
aI3439
aI57
aI7
aI2381
asS'ori'
p6
S'This house believes that it is sometimes right for the government to restrict freedom of speech'
p7
ssS'output'
p8
(dp9
g4
(lp10
I1460
aI533
aI116
aI7149
aI92
aI858
aI7371
aI19
aI773
aI480
aI24
aI3
aI237
aI238
aI63765
asg6
S'Prior restraint is censorship which prevents material from being published in the first place .'
p11
ss.