(dp1
S'input'
p2
(dp3
S'encoded'
p4
(lp5
I64
aI2179
aI394
aI2773
aI12505
asS'ori'
p6
S'This house would embrace multiculturalism'
p7
ssS'output'
p8
(dp9
g4
(lp10
I226
aI15307
aI2181
aI4367
aI271
aI2997
aI14
aI6911
aI89
aI2755
aI7
aI2768
aI5
aI1444
aI89
aI2498
aI7
aI2178
aI10179
aI2976
aI271
aI2997
aI24
aI725
aI3708
aI63765
asg6
S'While Multicultural Affairs centers their efforts on placing a value of diversity and building a sense of community  campuses implement their efforts in many ways .'
p11
ss.