(dp1
S'input'
p2
(dp3
S'encoded'
p4
(lp5
I64
aI2179
aI43
aI63
aI17574
aI417
aI316
aI3481
aI34
aI271
aI79
asS'ori'
p6
S'This house believes that housewives should be paid for their work'
p7
ssS'output'
p8
(dp9
g4
(lp10
I3
aI203
aI3168
aI7
aI2755
aI122
aI217
aI17403
aI643
aI24
aI2352
aI75
aI13834
aI17584
aI63765
asg6
S'The labor theory of value was most thoroughly developed in Capital by Karl Marx .'
p11
ss.