(dp1
S'input'
p2
(dp3
S'encoded'
p4
(lp5
I64
aI2179
aI394
aI2773
aI12505
asS'ori'
p6
S'This house would embrace multiculturalism'
p7
ssS'output'
p8
(dp9
g4
(lp10
I3136
aI7
aI395
aI5
aI398
aI15575
aI45
aI2451
aI19
aI323
aI4169
aI21349
aI2960
aI16654
aI28954
aI318
aI4307
aI7102
asg6
S'Groups of later  18th and 19th century migrants to Russia  from Europe (Germans  French  Italians  Poles  Serbs  Bulgarians  Greeks  Jews  etc .)'
p11
ss.