(dp1
S'input'
p2
(dp3
S'encoded'
p4
(lp5
I64
aI2179
aI394
aI163
aI959
aI2042
aI3557
asS'ori'
p6
S'This house would make physical education compulsory'
p7
ssS'output'
p8
(dp9
g4
(lp10
I658
aI3217
aI55
aI725
aI131
aI693
aI1501
aI3
aI7799
aI2890
aI7
aI25331
aI39434
aI5
aI3217
aI3205
aI63765
asg6
S'Public health has many sub-fields  but typically includes the interdisciplinary categories of epidemiology  biostatistics and health services .'
p11
ss.