(dp1
S'input'
p2
(dp3
S'encoded'
p4
(lp5
I64
aI2179
aI43
aI17
aI4941
aI857
aI3211
asS'ori'
p6
S'This house believes social deprivation causes crime'
p7
ssS'output'
p8
(dp9
g4
(lp10
I5
aI8401
aI89
aI6030
aI9518
aI63765
asg6
S'and expecting a simple answer  .'
p11
ss.