(dp1
S'input'
p2
(dp3
S'encoded'
p4
(lp5
I64
aI2179
aI43
aI63
aI2659
aI417
aI1690
aI3
aI12048
aI7
aI19084
asS'ori'
p6
S'This house believes that Israel should lift the blockade of Gaza'
p7
ssS'output'
p8
(dp9
g4
(lp10
I3
aI5327
aI382
aI788
aI45
aI271
aI25018
aI53
aI155
aI382
aI11300
aI24
aI229
aI11303
aI63765
asg6
S'The dead were taken to their hometowns  where they were buried in individual funerals .'
p11
ss.