(dp1
S'input'
p2
(dp3
S'encoded'
p4
(lp5
I64
aI2179
aI43
aI223
aI2138
aI11
aI89
aI21
aI45
aI2185
aI372
asS'ori'
p6
S'This house believes all nations have a right to nuclear weapons'
p7
ssS'output'
p8
(dp9
g4
(lp10
I107
aI134
aI116
aI1966
aI63
aI2157
aI1862
aI122
aI2056
aI3475
aI257
aI99
aI136
aI3
aI348
aI7
aI10028
aI7
aI18230
aI5
aI3965
aI63765
asg6
S'Instead  it is argued that military strategy was now equally  if not more  the art of coercion  of intimidation and deterrence  .'
p11
ss.