(dp1
S'input'
p2
(dp3
S'encoded'
p4
(lp5
I64
aI2179
aI394
aI2017
aI223
aI9058
aI23653
asS'ori'
p6
S'This house would ban all unsustainable logging'
p7
ssS'output'
p8
(dp9
g4
(lp10
I3
aI25726
aI122
aI7732
aI75
aI28635
aI2318
aI2404
aI19
aI1906
aI45
aI2394
aI63765
asg6
S'The 2011 COP 17 was hosted by Durban  South Africa  from 28 November to 9 December  2011 .'
p11
ss.