(dp1
S'input'
p2
(dp3
S'encoded'
p4
(lp5
I64
aI2179
aI394
aI4325
aI2042
aI270
aI89
aI11605
aI3324
asS'ori'
p6
S'This house would fund education using a voucher scheme'
p7
ssS'output'
p8
(dp9
g4
(lp10
I114
aI495
aI12189
aI2969
aI45
aI3209
aI2135
aI2194
aI4555
aI8069
aI17917
aI24
aI2404
aI42
aI55
aI2244
aI1411
aI63
aI183
aI165
aI1560
aI2194
aI137
aI116
aI14728
aI73
aI9842
aI8765
aI75
aI7330
aI2135
aI220
aI63765
asg6
S'|-valign="top" Though John McCain plans to expand foreign aid  specifically targeting malaria in Africa  he has expressed concern that too much American aid money is embezzled or outright stolen by corrupt foreign governments  .'
p11
ss.