(dp1
S'input'
p2
(dp3
S'encoded'
p4
(lp5
I64
aI2179
aI43
aI63
aI3
aI4990
aI4991
aI116
aI4850
aI24
aI12166
aI3
aI475
aI7
aI3532
aI3290
aI7
aI4714
asS'ori'
p6
S'This house believes that the Catholic Church is justified in forbidding the use of barrier methods of contraception'
p7
ssS'output'
p8
(dp9
g4
(lp10
I3
aI117
aI878
aI658
aI3419
aI134
aI55
aI1978
aI221
aI14
aI3
aI2195
aI1894
aI4714
aI75
aI3270
aI116
aI4980
aI45
aI3
aI10004
aI7
aI3
aI4991
aI12532
aI45
aI5112
aI73
aI881
aI3
aI314
aI7
aI3862
aI63765
asg6
S'The only official public statement it has ever made on the subject discouraged contraception by saying  "it is contrary to the teachings of the Church artificially to curtail or prevent the birth of children .'
p11
ss.