(dp1
S'input'
p2
(dp3
S'encoded'
p4
(lp5
I64
aI2179
aI394
aI2017
aI3807
aI314
aI3433
asS'ori'
p6
S'This house would ban partial birth abortions'
p7
ssS'output'
p8
(dp9
g4
(lp10
I311
aI3
aI413
aI3311
aI122
aI443
aI593
aI176
aI732
aI3271
aI122
aI3
aI296
aI7
aI3323
aI5
aI395
aI3345
aI3313
aI440
aI3346
aI2388
aI1191
aI206
aI12
aI3321
aI63765
asg6
S'At the time  McCorvey was no longer claiming her pregnancy was the result of rape  and later acknowledged she had lied earlier about having been raped  .'
p11
ss.