(dp1
S'input'
p2
(dp3
S'encoded'
p4
(lp5
I64
aI2179
aI43
aI63
aI2659
aI417
aI1690
aI3
aI12048
aI7
aI19084
asS'ori'
p6
S'This house believes that Israel should lift the blockade of Gaza'
p7
ssS'output'
p8
(dp9
g4
(lp10
I3
aI626
aI2138
aI2702
aI2132
aI5523
aI1647
aI92
aI891
aI24
aI3
aI852
aI7
aI5
aI263
aI34
aI89
aI19030
aI9359
aI25124
aI45
aI282
aI2140
aI63765
asg6
S'The United Nations Security Council condemned "those acts which resulted in the loss of lives" and called for a prompt investigation conforming to international standards  .'
p11
ss.