(dp1
S'input'
p2
(dp3
S'encoded'
p4
(lp5
I64
aI2179
aI43
aI63
aI2157
aI2565
aI493
aI19084
aI382
aI4850
asS'ori'
p6
S"This house believes that Israel's 2008-2009 military operations against Gaza were justified"
p7
ssS'output'
p8
(dp9
g4
(lp10
I19389
aI418
aI63
aI3
aI4705
aI8745
aI75
aI2659
aI5
aI689
aI24
aI3
aI2145
aI63765
aI13733
aI905
aI63
aI3180
aI382
aI99
aI519
aI9274
aI41
aI89
aI829
aI7
aI226
aI4212
aI9792
aI860
aI75
aI16619
aI382
aI856
aI2605
aI252
aI3270
asg6
S'Goldstone noted that the subsequent investigations by Israel and recognized in the U .N . committees report "indicate that civilians were not intentionally targeted as a matter of policy" while "the crimes allegedly committed by Hamas were intentional goes without saying ."'
p11
ss.