(dp1
S'input'
p2
(dp3
S'encoded'
p4
(lp5
I64
aI2179
aI394
aI2773
aI12505
asS'ori'
p6
S'This house would embrace multiculturalism'
p7
ssS'output'
p8
(dp9
g4
(lp10
I12505
aI116
aI89
aI1341
aI2195
aI7
aI2196
aI24
aI77
aI1565
aI2138
aI63
aI382
aI374
aI566
aI60
aI89
aI1107
aI10311
aI150
aI2637
aI3914
aI63765
asg6
S'Multiculturalism is a particular subject of debate in certain European nations that were once associated with a single  homogeneous  national cultural identity  .'
p11
ss.