(dp1
S'input'
p2
(dp3
S'encoded'
p4
(lp5
I64
aI2179
aI394
aI2017
aI223
aI9058
aI23653
asS'ori'
p6
S'This house would ban all unsustainable logging'
p7
ssS'output'
p8
(dp9
g4
(lp10
I7915
aI33829
aI139
aI48
aI45
aI3
aI2945
aI7
aI3
aI7801
aI63765
asg6
S'Sustained overexploitation can lead to the destruction of the resource .'
p11
ss.