(dp1
S'input'
p2
(dp3
S'encoded'
p4
(lp5
I64
aI2179
aI394
aI16756
aI20435
asS'ori'
p6
S'This house would criminalize blasphemy'
p7
ssS'output'
p8
(dp9
g4
(lp10
I89
aI696
aI7
aI220
aI2142
aI5
aI147
aI11
aI3435
aI5404
aI2166
aI271
aI612
aI14
aI3
aI7058
aI73
aI14852
aI63765
asg6
S'A number of governments  organizations  and individuals have issued statements defining their stance on the protests or cartoons .'
p11
ss.