(dp1
S'input'
p2
(dp3
S'encoded'
p4
(lp5
I64
aI2179
aI394
aI2017
aI262
asS'ori'
p6
S'This house would ban boxing'
p7
ssS'output'
p8
(dp9
g4
(lp10
I64
aI656
aI3
aI312
aI7
aI657
aI658
aI343
aI24
aI180
aI63765
asg6
S'This marked the end of widespread public bare-knuckle contests in England .'
p11
ss.