(dp1
S'input'
p2
(dp3
S'encoded'
p4
(lp5
I64
aI2179
aI43
aI63
aI2659
aI417
aI1690
aI3
aI12048
aI7
aI19084
asS'ori'
p6
S'This house believes that Israel should lift the blockade of Gaza'
p7
ssS'output'
p8
(dp9
g4
(lp10
I24
aI425
aI2659
aI16414
aI4564
aI19
aI19084
aI3
aI9107
aI7
aI7500
aI5
aI1024
aI5092
aI7442
aI204
aI24
aI546
aI7520
aI63765
aI64
aI1607
aI4694
aI63
aI2659
aI122
aI31061
aI4013
aI1184
aI14
aI3
aI19084
aI2598
aI2645
aI45
aI282
aI10954
asg6
S'In January 2008  Israel curtailed travel from Gaza  the entry of goods  and cut fuel supplies  resulting in power shortages . This brought charges that Israel was inflicting collective punishment on the Gaza population  leading to international condemnation'
p11
ss.