(dp1
S'input'
p2
(dp3
S'encoded'
p4
(lp5
I64
aI2179
aI394
aI190
aI3
aI21
aI45
aI3895
aI834
asS'ori'
p6
S'This house would limit the right to bear arms'
p7
ssS'output'
p8
(dp9
g4
(lp10
I3
aI136
aI2419
aI534
aI7
aI78
aI3
aI136
aI330
aI134
aI116
aI45
aI2976
aI89
aI2466
aI1862
aI63765
asg6
S'The more effort required of people  the more difficult it is to implement a prevention strategy  .'
p11
ss.