(dp1
S'input'
p2
(dp3
S'encoded'
p4
(lp5
I64
aI2179
aI394
aI117
aI7428
aI21151
aI34
aI11389
aI2042
aI24
aI4364
asS'ori'
p6
S'This house would only teach abstinence for sex education in schools'
p7
ssS'output'
p8
(dp9
g4
(lp10
I131
aI113
aI768
aI24
aI3879
aI60
aI3
aI5204
aI7
aI3
aI21131
aI3007
aI3203
aI7
aI21151
aI182
aI474
aI887
aI6603
aI11003
aI63765
asg6
S'But even then  in accordance with the teaching of the Apostle Paul  periods of abstinence are encouraged among married couples .'
p11
ss.