(dp1
S'input'
p2
(dp3
S'encoded'
p4
(lp5
I64
aI2179
aI394
aI16756
aI20435
asS'ori'
p6
S'This house would criminalize blasphemy'
p7
ssS'output'
p8
(dp9
g4
(lp10
I5436
aI4674
aI4542
aI3739
aI19
aI21286
aI5714
aI22929
aI5714
aI73
aI5761
aI7140
aI73
aI13853
aI9735
aI21484
aI63765
asg6
S"Jordan's Penal Code prohibits anyone from blaspheming Islam  demeaning Islam or Muslim feelings  or insulting Prophet Mohammed  ."
p11
ss.