(dp1
S'input'
p2
(dp3
S'encoded'
p4
(lp5
I64
aI2179
aI394
aI117
aI7428
aI21151
aI34
aI11389
aI2042
aI24
aI4364
asS'ori'
p6
S'This house would only teach abstinence for sex education in schools'
p7
ssS'output'
p8
(dp9
g4
(lp10
I3874
aI4948
aI382
aI1185
aI235
aI34
aI3862
aI193
aI7631
aI34
aI3859
aI18877
aI4279
aI5
aI6241
aI7
aI3527
aI5
aI4859
aI63765
asg6
S'Family activities were "centrally important supports for children  providing opportunities for emotional warmth  communication  and transmission of values and beliefs .'
p11
ss.