(dp1
S'input'
p2
(dp3
S'encoded'
p4
(lp5
I64
aI2179
aI43
aI63
aI134
aI116
aI400
aI21
aI34
aI3
aI260
aI45
aI3439
aI57
aI7
aI2381
asS'ori'
p6
S'This house believes that it is sometimes right for the government to restrict freedom of speech'
p7
ssS'output'
p8
(dp9
g4
(lp10
I3
aI217
aI4280
aI1795
aI7
aI1260
aI2381
aI394
aI99
aI454
aI89
aI460
aI24
aI3320
aI14156
aI4477
aI24
aI89
aI8552
aI5
aI850
aI89
aI24366
aI63765
asg6
S'The most stringent protection of free speech would not protect a man in falsely shouting fire in a theatre and causing a panic .'
p11
ss.