(dp1
S'input'
p2
(dp3
S'encoded'
p4
(lp5
I64
aI2179
aI394
aI2017
aI262
asS'ori'
p6
S'This house would ban boxing'
p7
ssS'output'
p8
(dp9
g4
(lp10
I24
aI15
aI3921
aI5
aI7076
aI41225
aI139
aI5579
aI3
aI23978
aI34
aI5101
aI45
aI3286
aI1685
aI736
aI1580
aI89
aI157
aI7
aI14676
aI2120
aI63765
asg6
S"In both animals and humans  MTBI can alter the brain's physiology for hours to weeks  setting into motion a variety of pathological events  ."
p11
ss.