(dp1
S'input'
p2
(dp3
S'encoded'
p4
(lp5
I64
aI2179
aI235
aI3
aI2136
aI7
aI3
aI2306
aI7
aI2390
asS'ori'
p6
S'This house supports the one-child policy of the republic of China'
p7
ssS'output'
p8
(dp9
g4
(lp10
I4624
aI6282
aI63
aI2164
aI23477
aI122
aI7166
aI574
aI4728
aI7
aI3
aI696
aI7
aI17811
aI3818
aI75
aI25
aI809
aI9322
aI7
aI3217
aI17498
aI38636
aI38637
aI35818
aI8719
aI22999
aI5
aI17489
aI38638
aI63765
asg6
S'Documents proved that President Fujimori was informed  each month  of the number of sterilizations done  by his former Ministers of Health  Eduardo Yong Motta (199496)  Marino Costa Bauer (19961999) and Alejandro Aguinaga (19992000)  .'
p11
ss.