(dp1
S'input'
p2
(dp3
S'encoded'
p4
(lp5
I64
aI2179
aI394
aI4325
aI2042
aI270
aI89
aI11605
aI3324
asS'ori'
p6
S'This house would fund education using a voucher scheme'
p7
ssS'output'
p8
(dp9
g4
(lp10
I35062
aI55
aI5605
aI14
aI3
aI3499
aI5929
aI34
aI3
aI150
aI2132
aI14
aI8428
aI5229
aI5
aI3
aI150
aI1863
aI34
aI4834
aI4266
aI63765
asg6
S'Rhee has served on the advisory boards for the National Council on Teacher Quality  and the National Center for Alternative Certification  .'
p11
ss.