(dp1
S'input'
p2
(dp3
S'encoded'
p4
(lp5
I64
aI2179
aI43
aI63
aI1036
aI4828
aI33250
aI116
aI25073
aI45
aI3315
aI4562
asS'ori'
p6
S'This house believes that male infant circumcision is tantamount to child abuse'
p7
ssS'output'
p8
(dp9
g4
(lp10
I10
aI63
aI33250
aI88
aI296
aI24
aI4817
aI652
aI158
aI7071
aI7928
aI3815
aI89
aI2035
aI63
aI2981
aI51
aI4697
aI2994
aI7
aI39841
aI233
aI45
aI7
aI49
aI887
aI26405
aI5716
aI10103
aI45
aI15351
aI33250
aI5
aI887
aI5716
aI10103
aI45
aI2015
aI33250
aI2083
aI63765
asg6
S'(2002) state that circumcision may result in psychological harm  including post-traumatic stress disorder (PTSD)  citing a study that shows an incidence rate of PTSD (measured according to DSM-IV) of almost 70% among Filipino boys subjected to ritual circumcision  and 51% among boys subjected to medical circumcision (with local anaesthetic)  .'
p11
ss.