(dp1
S'input'
p2
(dp3
S'encoded'
p4
(lp5
I64
aI2179
aI43
aI8629
aI116
aI3
aI117
aI998
asS'ori'
p6
S'This house believes atheism is the only way'
p7
ssS'output'
p8
(dp9
g4
(lp10
I64
aI4798
aI116
aI51
aI2695
aI1343
aI7
aI3
aI4900
aI291
aI89
aI29618
aI234
aI5
aI89
aI14559
aI234
aI63765
asg6
S'This distinction is an excellent example of the difference between a deistic view (Leibniz) and a theistic view (Aquinas) .'
p11
ss.