(dp1
S'input'
p2
(dp3
S'encoded'
p4
(lp5
I64
aI2179
aI394
aI163
aI959
aI2042
aI3557
asS'ori'
p6
S'This house would make physical education compulsory'
p7
ssS'output'
p8
(dp9
g4
(lp10
I2377
aI7
aI3
aI626
aI187
aI202
aI83
aI316
aI1031
aI45
aI2741
aI3
aI202
aI959
aI11262
aI3274
aI63765
asg6
S'Soldiers of the United States Army must be able to pass the Army Physical Fitness Test (APFT)  .'
p11
ss.