(dp1
S'input'
p2
(dp3
S'encoded'
p4
(lp5
I64
aI2179
aI43
aI63
aI6670
aI546
aI417
aI316
aI89
aI1334
aI3108
aI7
aI4849
aI1886
aI2855
asS'ori'
p6
S'This house believes that wind power should be a primary focus of future energy supply'
p7
ssS'output'
p8
(dp9
g4
(lp10
I516
aI3365
aI13215
aI1074
aI2573
aI10781
aI34
aI14170
aI7
aI6844
aI1886
aI2947
aI51
aI3226
aI24
aI667
aI915
aI6844
aI1886
aI8947
aI45
aI8885
aI6670
aI4678
aI5
aI3592
aI1636
aI1395
aI3
aI5120
aI5121
aI63765
asg6
S'Additional related incentives include 30% investment credits for manufacturers of renewable energy technologies  an increase in new clean renewable energy bonds to finance wind facilities  and funding towards advancing the electrical grid  .'
p11
ss.