(dp1
S'input'
p2
(dp3
S'encoded'
p4
(lp5
I64
aI2179
aI43
aI63
aI134
aI116
aI400
aI21
aI34
aI3
aI260
aI45
aI3439
aI57
aI7
aI2381
asS'ori'
p6
S'This house believes that it is sometimes right for the government to restrict freedom of speech'
p7
ssS'output'
p8
(dp9
g4
(lp10
I3020
aI34
aI3
aI5685
aI1074
aI3
aI21
aI7
aI3723
aI34
aI1718
aI6399
aI5
aI63
aI3
aI1255
aI7
aI3
aI8656
aI122
aI569
aI24
aI234
aI7
aI61
aI3
aI29
aI5264
aI311
aI3
aI413
aI63765
asg6
S'Conditions for the defence include the right of reply for potential claimants  and that the balance of the piece was fair in view of what the writer knew at the time .'
p11
ss.