(dp1
S'input'
p2
(dp3
S'encoded'
p4
(lp5
I64
aI2179
aI394
aI5370
aI3
aI5286
asS'ori'
p6
S'This house would abolish the monarchy'
p7
ssS'output'
p8
(dp9
g4
(lp10
I41003
aI5489
aI7
aI3024
aI7
aI1488
aI6509
aI397
aI66
aI2308
aI63765
asg6
S'|- Datu title of leaders of small kingdoms during Ancient Philippines .'
p11
ss.