(dp1
S'input'
p2
(dp3
S'encoded'
p4
(lp5
I64
aI2179
aI43
aI17
aI4941
aI857
aI3211
asS'ori'
p6
S'This house believes social deprivation causes crime'
p7
ssS'output'
p8
(dp9
g4
(lp10
I3
aI2497
aI116
aI4635
aI41
aI5
aI153
aI416
aI23240
aI60
aI18967
aI2614
aI92
aI116
aI1038
aI75
aI3
aI626
aI2138
aI2533
aI493
aI7181
aI3550
aI3211
aI41
aI63765
aI16142
aI24
aI128
aI45
aI3322
aI2818
aI73
aI10678
aI89
aI2351
aI73
aI248
aI7371
aI161
aI7
aI3
aI1968
aI9107
aI7
aI89
aI2007
aI736
aI89
aI10
aI171
aI7
aI92
aI3
aI2007
aI116
aI99
aI89
aI63765
asg6
S'The term is understood as and often used interchangeably with migrant smuggling  which is defined by the United Nations Convention Against Transnational Organized Crime as " . .the procurement  in order to obtain  directly or indirectly  a financial or other material benefit  of the illegal entry of a person into a state party of which the person is not a national"  .'
p11
ss.