(dp1
S'input'
p2
(dp3
S'encoded'
p4
(lp5
I64
aI2179
aI43
aI63
aI2157
aI2565
aI493
aI19084
aI382
aI4850
asS'ori'
p6
S"This house believes that Israel's 2008-2009 military operations against Gaza were justified"
p7
ssS'output'
p8
(dp9
g4
(lp10
I15578
aI2194
aI3
aI15578
aI2194
aI3435
aI3
aI1592
aI3089
aI14
aI3
aI19084
aI966
aI83
aI316
aI23651
aI41
aI2223
aI4212
aI63765
asg6
S'|- Norwegian People\'s Aid The Norwegian People\'s Aid issued the following statement: "Israel\'s actions on the Gaza Strip must be characterised as war crimes .'
p11
ss.