(dp1
S'input'
p2
(dp3
S'encoded'
p4
(lp5
I64
aI2179
aI394
aI117
aI7428
aI21151
aI34
aI11389
aI2042
aI24
aI4364
asS'ori'
p6
S'This house would only teach abstinence for sex education in schools'
p7
ssS'output'
p8
(dp9
g4
(lp10
I5716
aI182
aI136
aI1856
aI45
aI475
aI24
aI128
aI45
aI19211
aI5
aI45
aI881
aI3710
aI33271
aI63765
asg6
S'Boys are more likely to use in order to relax and to prevent premature ejaculation  .'
p11
ss.