(dp1
S'input'
p2
(dp3
S'encoded'
p4
(lp5
I64
aI2179
aI43
aI63
aI6670
aI546
aI417
aI316
aI89
aI1334
aI3108
aI7
aI4849
aI1886
aI2855
asS'ori'
p6
S'This house believes that wind power should be a primary focus of future energy supply'
p7
ssS'output'
p8
(dp9
g4
(lp10
I3
aI2410
aI7
aI12186
aI6695
aI2881
aI311
aI3
aI6670
aI6677
aI116
aI4666
aI45
aI1476
aI6694
aI7
aI6695
aI6696
aI75
aI49
aI7962
aI89
aI3569
aI4968
aI45
aI1708
aI6820
aI1295
aI3
aI4566
aI63765
asg6
S'The production of zero carbon electricity at the wind farm is expected to reduce emissions of carbon dioxide by almost 300 000 tonnes a year  equivalent to taking 70 000 cars off the road  .'
p11
ss.