(dp1
S'input'
p2
(dp3
S'encoded'
p4
(lp5
I64
aI2179
aI13605
aI2258
aI45
aI2194
asS'ori'
p6
S'This house prefers trade to aid'
p7
ssS'output'
p8
(dp9
g4
(lp10
I64
aI3002
aI782
aI7
aI2135
aI2194
aI116
aI9168
aI34
aI3452
aI3251
aI256
aI5
aI4531
aI45
aI2135
aI2194
aI2997
aI63765
asg6
S'This counterproductive effect of foreign aid is evident for federally funded programs and applicable to faith-based foreign aid efforts .'
p11
ss.