(dp1
S'input'
p2
(dp3
S'encoded'
p4
(lp5
I64
aI2179
aI394
aI4325
aI2042
aI270
aI89
aI11605
aI3324
asS'ori'
p6
S'This house would fund education using a voucher scheme'
p7
ssS'output'
p8
(dp9
g4
(lp10
I134
aI116
aI3365
aI45
aI3
aI45
aI4
aI63
aI3739
aI60
aI1273
aI79
aI5
aI9332
aI55
aI3
aI710
aI45
aI831
aI9097
aI443
aI829
aI61
aI4304
aI155
aI2118
aI19
aI63765
asg6
S'It is related to the "rags to riches" notion that anyone  with hard work and determination  has the ability to move upward no matter what background they come from .'
p11
ss.