(dp1
S'input'
p2
(dp3
S'encoded'
p4
(lp5
I64
aI2179
aI43
aI3
aI626
aI187
aI116
aI1989
aI34
aI3102
aI2223
asS'ori'
p6
S"This house believes the United States is responsible for Mexico's drugs war"
p7
ssS'output'
p8
(dp9
g4
(lp10
I57
aI7
aI2767
aI4930
aI118
aI1735
aI100
aI34
aI1343
aI2789
aI7
aI3
aI3920
aI1560
aI4991
aI45
aI475
aI23486
aI60
aI23487
aI6268
aI73
aI2767
aI8170
aI131
aI3
aI1260
aI5982
aI2489
aI7
aI3
aI237
aI3264
aI4467
aI443
aI5376
aI34
aI4736
aI45
aI316
aI10238
aI45
aI51
aI878
aI4991
aI3082
aI4527
aI100
aI13398
aI63765
asg6
S'Freedom of religious conscience legally allows some  for example  members of the Native American Church  to use peyote with definite spiritual or religious motives  but the Free Exercise Clause of the First Amendment implies no requirement for someone to be affiliated to an official church - therefore leaving some ambiguity .'
p11
ss.