(dp1
S'input'
p2
(dp3
S'encoded'
p4
(lp5
I64
aI2179
aI43
aI63
aI134
aI116
aI400
aI21
aI34
aI3
aI260
aI45
aI3439
aI57
aI7
aI2381
asS'ori'
p6
S'This house believes that it is sometimes right for the government to restrict freedom of speech'
p7
ssS'output'
p8
(dp9
g4
(lp10
I443
aI93
aI4197
aI316
aI16784
aI4957
aI7
aI25
aI12420
aI3646
aI729
aI3
aI21
aI45
aI1546
aI25
aI12420
aI63765
asg6
S'(2) No one shall be arbitrarily deprived of his nationality nor denied the right to change his nationality .'
p11
ss.