(dp1
S'input'
p2
(dp3
S'encoded'
p4
(lp5
I64
aI2179
aI43
aI24
aI3
aI475
aI7
aI12436
aI3364
asS'ori'
p6
S'This house believes in the use of affirmative action'
p7
ssS'output'
p8
(dp9
g4
(lp10
I4555
aI134
aI16835
aI4615
aI45
aI16756
aI12511
aI2381
aI12511
aI4212
aI5
aI3
aI2373
aI7
aI12395
aI4948
aI5
aI45
aI4261
aI5
aI16756
aI3834
aI24
aI2142
aI63
aI5
aI10250
aI4933
aI63765
asg6
S'Specifically  it obliges parties to criminalize hate speech  hate crimes and the financing of racist activities  and to prohibit and criminalize membership in organizations that "promote and incite" racial discrimination  .'
p11
ss.