(dp1
S'input'
p2
(dp3
S'encoded'
p4
(lp5
I64
aI2179
aI394
aI5370
aI3
aI5286
asS'ori'
p6
S'This house would abolish the monarchy'
p7
ssS'output'
p8
(dp9
g4
(lp10
I24
aI2721
aI34
aI25
aI4515
aI3520
aI122
aI5175
aI45
aI9056
aI1117
aI41
aI25
aI5668
aI45141
aI63765
asg6
S'In exchange for his release  William was forced to acknowledge Henry as his feudal overlord .'
p11
ss.