(dp1
S'input'
p2
(dp3
S'encoded'
p4
(lp5
I64
aI2179
aI43
aI223
aI2138
aI11
aI89
aI21
aI45
aI2185
aI372
asS'ori'
p6
S'This house believes all nations have a right to nuclear weapons'
p7
ssS'output'
p8
(dp9
g4
(lp10
I1191
aI78
aI427
aI759
aI24
aI7058
aI24
aI27305
aI63765
asg6
S'About 7 000 people took part in anti-nuclear protests in Bremen .'
p11
ss.