(dp1
S'input'
p2
(dp3
S'encoded'
p4
(lp5
I64
aI2179
aI394
aI190
aI3
aI21
aI45
aI3895
aI834
asS'ori'
p6
S'This house would limit the right to bear arms'
p7
ssS'output'
p8
(dp9
g4
(lp10
I2985
aI11
aI3444
aI63
aI3211
aI3073
aI382
aI4024
aI5075
aI604
aI155
aI500
aI99
aI4614
aI650
aI2722
aI7
aI3211
aI24
aI223
aI3
aI16549
aI63
aI17345
aI6879
aI131
aI958
aI3
aI696
aI7
aI4212
aI4782
aI24
aI1431
aI2083
aI778
aI5
aI63
aI9144
aI45
aI905
aI271
aI3211
aI9067
aI45
aI10
aI5462
aI63765
asg6
S"Critics have asserted that Lott's county-based crime data were largely meaningless because they did not reflect actual rates of crime in all the counties that Lott studied  but rather the number of crimes occurring in whatever local jurisdictions (towns and cities) that happened to report their crime statistics to state authorities ."
p11
ss.