(dp1
S'input'
p2
(dp3
S'encoded'
p4
(lp5
I64
aI2179
aI394
aI16642
aI1376
aI5269
asS'ori'
p6
S'This house would subsidize poor communities'
p7
ssS'output'
p8
(dp9
g4
(lp10
I19
aI51
aI8890
aI957
aI7
aI234
aI281
aI605
aI55
aI12
aI4883
aI14
aI12502
aI7600
aI5
aI708
aI75
aI3202
aI2022
aI545
aI59476
aI13785
aI2132
aI564
aI3202
aI2022
aI4758
aI923
aI1501
aI2789
aI7
aI2742
aI5
aI150
aI3202
aI2022
aI8281
aI63765
asg6
S'3) From an institutional point of view  major emphasis has been put on inclusive participation and control by civil society within PRODESIS Consultative Council  whose civil society college currently includes 30 members of regional and national civil society organisations .'
p11
ss.