(dp1
S'input'
p2
(dp3
S'encoded'
p4
(lp5
I64
aI2179
aI43
aI24
aI3
aI475
aI7
aI12436
aI3364
asS'ori'
p6
S'This house believes in the use of affirmative action'
p7
ssS'output'
p8
(dp9
g4
(lp10
I131
aI64
aI4642
aI55
aI12
aI3531
aI41
aI261
aI63765
asg6
S'But this conception has been criticized as well  .'
p11
ss.