(dp1
S'input'
p2
(dp3
S'encoded'
p4
(lp5
I64
aI2179
aI394
aI9385
aI2497
aI447
aI14
aI3
aI3578
aI5721
aI7
aI260
asS'ori'
p6
S'This house would enforce term limits on the legislative branch of government'
p7
ssS'output'
p8
(dp9
g4
(lp10
I233
aI45
aI7412
aI42
aI5
aI25
aI3136
aI11
aI12
aI482
aI24
aI1655
aI2497
aI447
aI34
aI5456
aI10
aI3482
aI5
aI24
aI2596
aI1445
aI385
aI63765
asg6
S'" According to Rich  he and his groups have been successful in creating term limits for 37 governors  15 state legislatures  and in nine large cities  .'
p11
ss.