(dp1
S'input'
p2
(dp3
S'encoded'
p4
(lp5
I64
aI2179
aI43
aI17
aI4941
aI857
aI3211
asS'ori'
p6
S'This house believes social deprivation causes crime'
p7
ssS'output'
p8
(dp9
g4
(lp10
I3
aI626
aI187
aI2503
aI260
aI3581
aI2474
aI45
aI17116
aI3
aI13516
aI7
aI17076
aI17079
aI3
aI17076
aI2248
aI5
aI13537
aI2784
aI7
aI63765
asg6
S'The United States federal government enacted legislation to unify the handling of juvenile delinquents  the Juvenile Justice and Delinquency Act of 1974 .'
p11
ss.