(dp1
S'input'
p2
(dp3
S'encoded'
p4
(lp5
I64
aI2179
aI13605
aI2258
aI45
aI2194
asS'ori'
p6
S'This house prefers trade to aid'
p7
ssS'output'
p8
(dp9
g4
(lp10
I3
aI285
aI2895
aI487
aI1902
aI3435
aI117
aI2395
aI1999
aI63
aI3
aI2696
aI83
aI9207
aI15
aI3
aI7180
aI5
aI3
aI376
aI2722
aI63765
asg6
S'The World Bank  until recently  issued only loans  meaning that the country must repay both the loan and the interest rates .'
p11
ss.