(dp1
S'input'
p2
(dp3
S'encoded'
p4
(lp5
I64
aI2179
aI43
aI63
aI3
aI4990
aI4991
aI116
aI4850
aI24
aI12166
aI3
aI475
aI7
aI3532
aI3290
aI7
aI4714
asS'ori'
p6
S'This house believes that the Catholic Church is justified in forbidding the use of barrier methods of contraception'
p7
ssS'output'
p8
(dp9
g4
(lp10
I298
aI10656
aI89
aI8803
aI2577
aI100
aI4935
aI139
aI3226
aI3
aI4779
aI34
aI18345
aI7447
aI20997
aI7438
aI63765
asg6
S'When selecting a sexual partner  some characteristics can increase the risks for contracting sexually transmitted diseases  .'
p11
ss.