(dp1
S'input'
p2
(dp3
S'encoded'
p4
(lp5
I64
aI2179
aI394
aI5370
aI223
aI4013
aI10440
aI2446
aI4881
aI75
aI14482
aI11004
asS'ori'
p6
S'This house would abolish all collective bargaining rights claimed by trades unions'
p7
ssS'output'
p8
(dp9
g4
(lp10
I4658
aI5195
aI5114
aI14
aI40
aI7595
aI3
aI192
aI116
aI63765
asg6
S'Effects partly depend on how competitive the market is .'
p11
ss.