(dp1
S'input'
p2
(dp3
S'encoded'
p4
(lp5
I64
aI2179
aI43
aI17
aI4941
aI857
aI3211
asS'ori'
p6
S'This house believes social deprivation causes crime'
p7
ssS'output'
p8
(dp9
g4
(lp10
I174
aI3168
aI41
aI1964
aI45
aI7076
aI55
aI3488
aI528
aI2198
aI1021
aI45
aI7950
aI14369
aI12395
aI4376
aI63765
asg6
S'Also  r/K theory as applied to humans has attracted heavy criticism due to reaching purportedly racist conclusions  .'
p11
ss.