(dp1
S'input'
p2
(dp3
S'encoded'
p4
(lp5
I64
aI2179
aI394
aI15841
aI2736
asS'ori'
p6
S'This house would disband ASEAN'
p7
ssS'output'
p8
(dp9
g4
(lp10
I132
aI2100
aI3
aI9227
aI7
aI3
aI2736
aI2603
aI14
aI31791
aI21007
aI6673
aI24
aI41
aI51
aI1222
aI45
aI708
aI21007
aI6673
aI24
aI2769
aI2770
aI63765
asg6
S'These included the signing of the ASEAN Agreement on Transboundary Haze Pollution in 2002 as an attempt to control haze pollution in Southeast Asia  .'
p11
ss.